
flash_preload_aes_smoketest.elf:     file format elf32-littleriscv
architecture: riscv:rv32, flags 0x00000112:
EXEC_P, HAS_SYMS, D_PAGED
start address 0xe0000080

Sections:
Idx Name          Size      VMA       LMA       File off  Algn
  0 .vectors      00000084  e0000000  e0000000  00001000  2**0
                  CONTENTS, ALLOC, LOAD, READONLY, CODE
  1 .text         0000050c  e0000084  e0000084  00001084  2**1
                  CONTENTS, ALLOC, LOAD, READONLY, CODE
  2 .rodata       000064bc  e0000590  e0000590  00001590  2**2
                  CONTENTS, ALLOC, LOAD, READONLY, DATA
  3 .data         00000010  e0006a4c  e0006a4c  00007a4c  2**2
                  CONTENTS, ALLOC, LOAD, DATA
  4 .bss          00000000  e0006a5c  e0006a5c  00007a5c  2**0
                  ALLOC
  5 .logs.fields  00000000  e0006a5c  e0006a5c  00007a5c  2**0
                  CONTENTS
  6 .stack        00002000  e0008000  e0008000  00008000  2**0
                  ALLOC
  7 .debug_frame  00000290  00000000  00000000  00007a5c  2**2
                  CONTENTS, READONLY, DEBUGGING
  8 .debug_info   00000b6f  00000000  00000000  00007cec  2**0
                  CONTENTS, READONLY, DEBUGGING
  9 .debug_abbrev 00000476  00000000  00000000  0000885b  2**0
                  CONTENTS, READONLY, DEBUGGING
 10 .debug_loc    00000ac3  00000000  00000000  00008cd1  2**0
                  CONTENTS, READONLY, DEBUGGING
 11 .debug_aranges 00000068  00000000  00000000  00009798  2**3
                  CONTENTS, READONLY, DEBUGGING
 12 .debug_ranges 00000168  00000000  00000000  00009800  2**3
                  CONTENTS, READONLY, DEBUGGING
 13 .debug_line   000008ec  00000000  00000000  00009968  2**0
                  CONTENTS, READONLY, DEBUGGING
 14 .debug_str    00000356  00000000  00000000  0000a254  2**0
                  CONTENTS, READONLY, DEBUGGING
 15 .comment      0000001a  00000000  00000000  0000a5aa  2**0
                  CONTENTS, READONLY
 16 .Pulp_Chip.Info 0000004e  00000000  00000000  0000a5c4  2**0
                  CONTENTS, READONLY

Disassembly of section .vectors:

e0000000 <_vectors_start>:
  .option norvc;
  
  .org 0x00
  .rept 10
  jal x0, default_exc_handler
  .endr
e0000000:	4be0006f          	j	e00004be <default_exc_handler>
e0000004:	4ba0006f          	j	e00004be <default_exc_handler>
e0000008:	4b60006f          	j	e00004be <default_exc_handler>
e000000c:	4b20006f          	j	e00004be <default_exc_handler>
e0000010:	4ae0006f          	j	e00004be <default_exc_handler>
e0000014:	4aa0006f          	j	e00004be <default_exc_handler>
e0000018:	4a60006f          	j	e00004be <default_exc_handler>
e000001c:	4a20006f          	j	e00004be <default_exc_handler>
e0000020:	49e0006f          	j	e00004be <default_exc_handler>
e0000024:	49a0006f          	j	e00004be <default_exc_handler>
  
  jal x0, default_exc_handler
e0000028:	4960006f          	j	e00004be <default_exc_handler>
  
  jal x0, external_irq_handler
e000002c:	4260006f          	j	e0000452 <external_irq_handler>

  .org 0x30
  .rept 18
  jal x0, default_exc_handler
  .endr
e0000030:	48e0006f          	j	e00004be <default_exc_handler>
e0000034:	48a0006f          	j	e00004be <default_exc_handler>
e0000038:	4860006f          	j	e00004be <default_exc_handler>
e000003c:	4820006f          	j	e00004be <default_exc_handler>
e0000040:	47e0006f          	j	e00004be <default_exc_handler>
e0000044:	47a0006f          	j	e00004be <default_exc_handler>
e0000048:	4760006f          	j	e00004be <default_exc_handler>
e000004c:	4720006f          	j	e00004be <default_exc_handler>
e0000050:	46e0006f          	j	e00004be <default_exc_handler>
e0000054:	46a0006f          	j	e00004be <default_exc_handler>
e0000058:	4660006f          	j	e00004be <default_exc_handler>
e000005c:	4620006f          	j	e00004be <default_exc_handler>
e0000060:	45e0006f          	j	e00004be <default_exc_handler>
e0000064:	45a0006f          	j	e00004be <default_exc_handler>
e0000068:	4560006f          	j	e00004be <default_exc_handler>
e000006c:	4520006f          	j	e00004be <default_exc_handler>
e0000070:	44e0006f          	j	e00004be <default_exc_handler>
e0000074:	44a0006f          	j	e00004be <default_exc_handler>
  jal x0, default_exc_handler
e0000078:	4460006f          	j	e00004be <default_exc_handler>
  jal x0, default_exc_handler
e000007c:	4420006f          	j	e00004be <default_exc_handler>


  // reset vector
  .org 0x80
  jal x0, reset_handler
e0000080:	4420006f          	j	e00004c2 <reset_handler>

Disassembly of section .text:

e0000084 <uart_set_cfg>:
}


void uart_set_cfg(int parity, uint16_t clk_counter) {
  unsigned int i;
  *(volatile unsigned int*)(UART_REG_LCR) = 0x83; //sets 8N1 and set DLAB to 1
e0000084:	400007b7          	lui	a5,0x40000
e0000088:	08300713          	li	a4,131
e000008c:	c7d8                	sw	a4,12(a5)
  *(volatile unsigned int*)(UART_REG_DLM) = (clk_counter >> 8) & 0xFF;
e000008e:	0085d713          	srli	a4,a1,0x8
e0000092:	c3d8                	sw	a4,4(a5)
  *(volatile unsigned int*)(UART_REG_DLL) =  clk_counter       & 0xFF;
e0000094:	0ff5f593          	andi	a1,a1,255
e0000098:	c38c                	sw	a1,0(a5)
  *(volatile unsigned int*)(UART_REG_FCR) = 0xA7; //enables 16byte FIFO and clear FIFOs
e000009a:	0a700713          	li	a4,167
e000009e:	c798                	sw	a4,8(a5)
  *(volatile unsigned int*)(UART_REG_LCR) = 0x03; //sets 8N1 and set DLAB to 0
e00000a0:	470d                	li	a4,3
e00000a2:	c7d8                	sw	a4,12(a5)

  *(volatile unsigned int*)(UART_REG_IER) = ((*(volatile unsigned int*)(UART_REG_IER)) & 0xF0) | 0x02; // set IER (interrupt enable register) on UART
e00000a4:	43d8                	lw	a4,4(a5)
e00000a6:	0f077713          	andi	a4,a4,240
e00000aa:	00276713          	ori	a4,a4,2
e00000ae:	c3d8                	sw	a4,4(a5)
}
e00000b0:	8082                	ret

e00000b2 <uart_send>:

  while(len > 0) {
    // process this in batches of 16 bytes to actually use the FIFO in the UART

    // wait until there is space in the fifo
    while( (*(volatile unsigned int*)(UART_REG_LSR) & 0x20) == 0);
e00000b2:	40000737          	lui	a4,0x40000
  while(len > 0) {
e00000b6:	e191                	bnez	a1,e00000ba <uart_send+0x8>
      *(volatile unsigned int*)(UART_REG_THR) = *str++;

      len--;
    }
  }
}
e00000b8:	8082                	ret
    while( (*(volatile unsigned int*)(UART_REG_LSR) & 0x20) == 0);
e00000ba:	4b5c                	lw	a5,20(a4)
e00000bc:	0207f793          	andi	a5,a5,32
e00000c0:	dfed                	beqz	a5,e00000ba <uart_send+0x8>
e00000c2:	04050793          	addi	a5,a0,64
      *(volatile unsigned int*)(UART_REG_THR) = *str++;
e00000c6:	0505                	addi	a0,a0,1
e00000c8:	fff54683          	lbu	a3,-1(a0)
      len--;
e00000cc:	15fd                	addi	a1,a1,-1
      *(volatile unsigned int*)(UART_REG_THR) = *str++;
e00000ce:	c314                	sw	a3,0(a4)
    for(i = 0; (i < UART_FIFO_DEPTH) && (len > 0); i++) {
e00000d0:	fef503e3          	beq	a0,a5,e00000b6 <uart_send+0x4>
e00000d4:	f9ed                	bnez	a1,e00000c6 <uart_send+0x14>
e00000d6:	8082                	ret

e00000d8 <uart_getchar>:

char uart_getchar() {
  while((*((volatile int*)UART_REG_LSR) & 0x1) != 0x1);
e00000d8:	40000737          	lui	a4,0x40000
e00000dc:	4b5c                	lw	a5,20(a4)
e00000de:	8b85                	andi	a5,a5,1
e00000e0:	dff5                	beqz	a5,e00000dc <uart_getchar+0x4>

  return *(volatile int*)UART_REG_RBR;
e00000e2:	4308                	lw	a0,0(a4)
}
e00000e4:	0ff57513          	andi	a0,a0,255
e00000e8:	8082                	ret

e00000ea <uart_sendchar>:

void uart_sendchar(const char c) {
  // wait until there is space in the fifo
  while( (*(volatile unsigned int*)(UART_REG_LSR) & 0x20) == 0);
e00000ea:	40000737          	lui	a4,0x40000
e00000ee:	4b5c                	lw	a5,20(a4)
e00000f0:	0207f793          	andi	a5,a5,32
e00000f4:	dfed                	beqz	a5,e00000ee <uart_sendchar+0x4>

  // load FIFO
  *(volatile unsigned int*)(UART_REG_THR) = c;
e00000f6:	c308                	sw	a0,0(a4)
}
e00000f8:	8082                	ret

e00000fa <qprints.constprop.2>:
  }
  else
    putchar((char)c);
}

static int qprints(char **out, const char *string, int width, int pad)
e00000fa:	1101                	addi	sp,sp,-32
e00000fc:	cc22                	sw	s0,24(sp)
e00000fe:	ca26                	sw	s1,20(sp)
e0000100:	c84a                	sw	s2,16(sp)
e0000102:	ce06                	sw	ra,28(sp)
e0000104:	c64e                	sw	s3,12(sp)
e0000106:	c452                	sw	s4,8(sp)
e0000108:	84aa                	mv	s1,a0
e000010a:	842e                	mv	s0,a1
{
  register int pc = 0, padchar = ' ';
e000010c:	02000913          	li	s2,32

  if (width > 0) {
e0000110:	02b05463          	blez	a1,e0000138 <qprints.constprop.2+0x3e>
e0000114:	87aa                	mv	a5,a0
e0000116:	a011                	j	e000011a <qprints.constprop.2+0x20>
    register int len = 0;
    register const char *ptr;
    for (ptr = string; *ptr; ++ptr) ++len;
e0000118:	0785                	addi	a5,a5,1
e000011a:	0007c683          	lbu	a3,0(a5) # 40000000 <tohost+0x3ffdfff8>
e000011e:	40978733          	sub	a4,a5,s1
e0000122:	fafd                	bnez	a3,e0000118 <qprints.constprop.2+0x1e>
    if (len >= width) width = 0;
e0000124:	04875663          	ble	s0,a4,e0000170 <qprints.constprop.2+0x76>
    else width -= len;
e0000128:	8c19                	sub	s0,s0,a4
    if (pad & PAD_ZERO) padchar = '0';
e000012a:	00267793          	andi	a5,a2,2
  register int pc = 0, padchar = ' ';
e000012e:	02000913          	li	s2,32
    if (pad & PAD_ZERO) padchar = '0';
e0000132:	c399                	beqz	a5,e0000138 <qprints.constprop.2+0x3e>
e0000134:	03000913          	li	s2,48
  }
  if (!(pad & PAD_RIGHT)) {
e0000138:	8a05                	andi	a2,a2,1
e000013a:	ca21                	beqz	a2,e000018a <qprints.constprop.2+0x90>
  register int pc = 0, padchar = ' ';
e000013c:	4781                	li	a5,0
e000013e:	409789b3          	sub	s3,a5,s1
    for ( ; width > 0; --width) {
      qprintchar (out, padchar);
      ++pc;
    }
  }
  for ( ; *string ; ++string) {
e0000142:	0004c503          	lbu	a0,0(s1)
e0000146:	01348a33          	add	s4,s1,s3
e000014a:	e521                	bnez	a0,e0000192 <qprints.constprop.2+0x98>
e000014c:	84a2                	mv	s1,s0
  uart_sendchar(s);
e000014e:	0ff97913          	andi	s2,s2,255
    qprintchar (out, *string);
    ++pc;
  }
  for ( ; width > 0; --width) {
e0000152:	04904363          	bgtz	s1,e0000198 <qprints.constprop.2+0x9e>
    qprintchar (out, padchar);
    ++pc;
  }

  return pc;
e0000156:	00045363          	bgez	s0,e000015c <qprints.constprop.2+0x62>
e000015a:	4401                	li	s0,0
}
e000015c:	01440533          	add	a0,s0,s4
e0000160:	40f2                	lw	ra,28(sp)
e0000162:	4462                	lw	s0,24(sp)
e0000164:	44d2                	lw	s1,20(sp)
e0000166:	4942                	lw	s2,16(sp)
e0000168:	49b2                	lw	s3,12(sp)
e000016a:	4a22                	lw	s4,8(sp)
e000016c:	6105                	addi	sp,sp,32
e000016e:	8082                	ret
    if (len >= width) width = 0;
e0000170:	4401                	li	s0,0
e0000172:	bf65                	j	e000012a <qprints.constprop.2+0x30>
  uart_sendchar(s);
e0000174:	8552                	mv	a0,s4
e0000176:	3f95                	jal	e00000ea <uart_sendchar>
    for ( ; width > 0; --width) {
e0000178:	19fd                	addi	s3,s3,-1
e000017a:	ff304de3          	bgtz	s3,e0000174 <qprints.constprop.2+0x7a>
e000017e:	87a2                	mv	a5,s0
e0000180:	00045363          	bgez	s0,e0000186 <qprints.constprop.2+0x8c>
e0000184:	4781                	li	a5,0
e0000186:	8c1d                	sub	s0,s0,a5
e0000188:	bf5d                	j	e000013e <qprints.constprop.2+0x44>
  if (!(pad & PAD_RIGHT)) {
e000018a:	89a2                	mv	s3,s0
  uart_sendchar(s);
e000018c:	0ff97a13          	andi	s4,s2,255
e0000190:	b7ed                	j	e000017a <qprints.constprop.2+0x80>
e0000192:	3fa1                	jal	e00000ea <uart_sendchar>
  for ( ; *string ; ++string) {
e0000194:	0485                	addi	s1,s1,1
e0000196:	b775                	j	e0000142 <qprints.constprop.2+0x48>
  uart_sendchar(s);
e0000198:	854a                	mv	a0,s2
e000019a:	3f81                	jal	e00000ea <uart_sendchar>
  for ( ; width > 0; --width) {
e000019c:	14fd                	addi	s1,s1,-1
e000019e:	bf55                	j	e0000152 <qprints.constprop.2+0x58>

e00001a0 <qprinti.constprop.1>:

static int qprinti(char **out, int i, int b, int sg, int width, int pad, char letbase)
e00001a0:	7139                	addi	sp,sp,-64
e00001a2:	da26                	sw	s1,52(sp)
e00001a4:	de06                	sw	ra,60(sp)
e00001a6:	dc22                	sw	s0,56(sp)
e00001a8:	84b2                	mv	s1,a2
e00001aa:	863a                	mv	a2,a4
  char print_buf[PRINT_BUF_LEN];
  register char *s;
  register int neg = 0, pc = 0;
  unsigned int t,u = i;

  if (i == 0)
e00001ac:	ed09                	bnez	a0,e00001c6 <qprinti.constprop.1+0x26>
  {
    print_buf[0] = '0';
e00001ae:	03000793          	li	a5,48
    print_buf[1] = '\0';
    return qprints (out, print_buf, width, pad);
e00001b2:	85b6                	mv	a1,a3
e00001b4:	0808                	addi	a0,sp,16
    print_buf[0] = '0';
e00001b6:	00f11823          	sh	a5,16(sp)
    return qprints (out, print_buf, width, pad);
e00001ba:	3781                	jal	e00000fa <qprints.constprop.2>
    {
      *--s = '-';
    }
  }
  return pc + qprints (out, s, width, pad);
}
e00001bc:	50f2                	lw	ra,60(sp)
e00001be:	5462                	lw	s0,56(sp)
e00001c0:	54d2                	lw	s1,52(sp)
e00001c2:	6121                	addi	sp,sp,64
e00001c4:	8082                	ret
  if (sg && b == 10 && i < 0)
e00001c6:	c881                	beqz	s1,e00001d6 <qprinti.constprop.1+0x36>
e00001c8:	4729                	li	a4,10
e00001ca:	06e59d63          	bne	a1,a4,e0000244 <qprinti.constprop.1+0xa4>
e00001ce:	06055b63          	bgez	a0,e0000244 <qprinti.constprop.1+0xa4>
    u = -i;
e00001d2:	40a00533          	neg	a0,a0
  *s = '\0';
e00001d6:	020107a3          	sb	zero,47(sp)
  if(b == 16) {
e00001da:	4741                	li	a4,16
  s = print_buf + PRINT_BUF_LEN-1;
e00001dc:	02f10413          	addi	s0,sp,47
  if(b == 16) {
e00001e0:	0ae58263          	beq	a1,a4,e0000284 <qprinti.constprop.1+0xe4>
  n = (0x19999999 * n + (n >> 1) + (n >> 3)) >> 28;
e00001e4:	1999a737          	lui	a4,0x1999a
  return remu10_table[n];
e00001e8:	00007317          	auipc	t1,0x7
e00001ec:	86430313          	addi	t1,t1,-1948 # e0006a4c <remu10_table>
  n = (0x19999999 * n + (n >> 1) + (n >> 3)) >> 28;
e00001f0:	99970713          	addi	a4,a4,-1639 # 19999999 <tohost+0x19979991>
  r = n - q * 10;
e00001f4:	4e29                	li	t3,10
    while (u) {
e00001f6:	c52d                	beqz	a0,e0000260 <qprinti.constprop.1+0xc0>
  n = (0x19999999 * n + (n >> 1) + (n >> 3)) >> 28;
e00001f8:	02e50833          	mul	a6,a0,a4
e00001fc:	00155893          	srli	a7,a0,0x1
e0000200:	00355793          	srli	a5,a0,0x3
      *--s = remu10(u) + '0';
e0000204:	147d                	addi	s0,s0,-1
  n = (0x19999999 * n + (n >> 1) + (n >> 3)) >> 28;
e0000206:	9846                	add	a6,a6,a7
e0000208:	983e                	add	a6,a6,a5
e000020a:	01c85813          	srli	a6,a6,0x1c
  return remu10_table[n];
e000020e:	981a                	add	a6,a6,t1
      *--s = remu10(u) + '0';
e0000210:	00084583          	lbu	a1,0(a6)
  q = (n >> 1) + (n >> 2);
e0000214:	00255793          	srli	a5,a0,0x2
e0000218:	97c6                	add	a5,a5,a7
      *--s = remu10(u) + '0';
e000021a:	03058593          	addi	a1,a1,48
e000021e:	00b40023          	sb	a1,0(s0)
  q = q + (q >> 4);
e0000222:	0047d593          	srli	a1,a5,0x4
e0000226:	97ae                	add	a5,a5,a1
  q = q + (q >> 8);
e0000228:	0087d593          	srli	a1,a5,0x8
e000022c:	97ae                	add	a5,a5,a1
  q = q + (q >> 16);
e000022e:	0107d593          	srli	a1,a5,0x10
e0000232:	97ae                	add	a5,a5,a1
  q = q >> 3;
e0000234:	838d                	srli	a5,a5,0x3
  r = n - q * 10;
e0000236:	03c785b3          	mul	a1,a5,t3
  return q + ((r + 6) >> 4);
e000023a:	0519                	addi	a0,a0,6
e000023c:	8d0d                	sub	a0,a0,a1
e000023e:	8111                	srli	a0,a0,0x4
e0000240:	953e                	add	a0,a0,a5
e0000242:	bf55                	j	e00001f6 <qprinti.constprop.1+0x56>
  register int neg = 0, pc = 0;
e0000244:	4481                	li	s1,0
e0000246:	bf41                	j	e00001d6 <qprinti.constprop.1+0x36>
      int t = u & 0xF;
e0000248:	00f57813          	andi	a6,a0,15
      if (t >= 10)
e000024c:	01075363          	ble	a6,a4,e0000252 <qprinti.constprop.1+0xb2>
        t += letbase - '0' - 10;
e0000250:	983e                	add	a6,a6,a5
      *--s = t + '0';
e0000252:	147d                	addi	s0,s0,-1
e0000254:	03080813          	addi	a6,a6,48
e0000258:	01040023          	sb	a6,0(s0)
      u >>= 4;
e000025c:	8111                	srli	a0,a0,0x4
    while (u) {
e000025e:	f56d                	bnez	a0,e0000248 <qprinti.constprop.1+0xa8>
  if (neg) {
e0000260:	cc89                	beqz	s1,e000027a <qprinti.constprop.1+0xda>
    if( width && (pad & PAD_ZERO) )
e0000262:	c68d                	beqz	a3,e000028c <qprinti.constprop.1+0xec>
e0000264:	00267793          	andi	a5,a2,2
e0000268:	c395                	beqz	a5,e000028c <qprinti.constprop.1+0xec>
  uart_sendchar(s);
e000026a:	02d00513          	li	a0,45
e000026e:	c432                	sw	a2,8(sp)
e0000270:	c636                	sw	a3,12(sp)
e0000272:	3da5                	jal	e00000ea <uart_sendchar>
      --width;
e0000274:	46b2                	lw	a3,12(sp)
e0000276:	4622                	lw	a2,8(sp)
e0000278:	16fd                	addi	a3,a3,-1
  return pc + qprints (out, s, width, pad);
e000027a:	85b6                	mv	a1,a3
e000027c:	8522                	mv	a0,s0
e000027e:	3db5                	jal	e00000fa <qprints.constprop.2>
e0000280:	9526                	add	a0,a0,s1
e0000282:	bf2d                	j	e00001bc <qprinti.constprop.1+0x1c>
      if (t >= 10)
e0000284:	4725                	li	a4,9
        t += letbase - '0' - 10;
e0000286:	fc678793          	addi	a5,a5,-58
e000028a:	bfd1                	j	e000025e <qprinti.constprop.1+0xbe>
      *--s = '-';
e000028c:	02d00793          	li	a5,45
e0000290:	fef40fa3          	sb	a5,-1(s0)
  register int neg = 0, pc = 0;
e0000294:	4481                	li	s1,0
      *--s = '-';
e0000296:	147d                	addi	s0,s0,-1
e0000298:	b7cd                	j	e000027a <qprinti.constprop.1+0xda>

e000029a <uart_wait_tx_done>:
  while( (*(volatile unsigned int*)(UART_REG_LSR) & 0x40) == 0);
e000029a:	40000737          	lui	a4,0x40000
e000029e:	4b5c                	lw	a5,20(a4)
e00002a0:	0407f793          	andi	a5,a5,64
e00002a4:	dfed                	beqz	a5,e000029e <uart_wait_tx_done+0x4>
}
e00002a6:	8082                	ret

e00002a8 <putchar>:
{
e00002a8:	1141                	addi	sp,sp,-16
e00002aa:	c422                	sw	s0,8(sp)
e00002ac:	842a                	mv	s0,a0
  uart_sendchar(s);
e00002ae:	0ff57513          	andi	a0,a0,255
{
e00002b2:	c606                	sw	ra,12(sp)
  uart_sendchar(s);
e00002b4:	3d1d                	jal	e00000ea <uart_sendchar>
}
e00002b6:	8522                	mv	a0,s0
e00002b8:	40b2                	lw	ra,12(sp)
e00002ba:	4422                	lw	s0,8(sp)
e00002bc:	0141                	addi	sp,sp,16
e00002be:	8082                	ret

e00002c0 <printf>:

  return pc;
}

int printf(const char *format, ...)
{
e00002c0:	711d                	addi	sp,sp,-96
e00002c2:	dc22                	sw	s0,56(sp)
  int pc;
  va_list va;

  va_start(va, format);
e00002c4:	00c0                	addi	s0,sp,68
{
e00002c6:	da26                	sw	s1,52(sp)
e00002c8:	d84a                	sw	s2,48(sp)
e00002ca:	d64e                	sw	s3,44(sp)
e00002cc:	d452                	sw	s4,40(sp)
e00002ce:	d256                	sw	s5,36(sp)
e00002d0:	d05a                	sw	s6,32(sp)
e00002d2:	ce5e                	sw	s7,28(sp)
e00002d4:	de06                	sw	ra,60(sp)
e00002d6:	cc62                	sw	s8,24(sp)
e00002d8:	8baa                	mv	s7,a0
e00002da:	c2ae                	sw	a1,68(sp)
e00002dc:	c4b2                	sw	a2,72(sp)
e00002de:	c6b6                	sw	a3,76(sp)
e00002e0:	c8ba                	sw	a4,80(sp)
e00002e2:	cabe                	sw	a5,84(sp)
e00002e4:	ccc2                	sw	a6,88(sp)
e00002e6:	cec6                	sw	a7,92(sp)
  va_start(va, format);
e00002e8:	c622                	sw	s0,12(sp)
  register int pc = 0;
e00002ea:	4b01                	li	s6,0
    if (*format == '%')
e00002ec:	02500493          	li	s1,37
      if (*format == '-')
e00002f0:	02d00913          	li	s2,45
      while (*format == '0')
e00002f4:	03000993          	li	s3,48
        width *= 10;
e00002f8:	4a29                	li	s4,10
        pc += qprints (out, s?s:"(null)", width, pad);
e00002fa:	00006a97          	auipc	s5,0x6
e00002fe:	73aa8a93          	addi	s5,s5,1850 # e0006a34 <FLASH_AES_SMOKETEST_SIGNED+0x64a4>
  for (; *format != 0; ++format)
e0000302:	000bc783          	lbu	a5,0(s7)
e0000306:	ef91                	bnez	a5,e0000322 <printf+0x62>

  va_end(va);

  return pc;

}
e0000308:	50f2                	lw	ra,60(sp)
e000030a:	5462                	lw	s0,56(sp)
e000030c:	855a                	mv	a0,s6
e000030e:	54d2                	lw	s1,52(sp)
e0000310:	5942                	lw	s2,48(sp)
e0000312:	59b2                	lw	s3,44(sp)
e0000314:	5a22                	lw	s4,40(sp)
e0000316:	5a92                	lw	s5,36(sp)
e0000318:	5b02                	lw	s6,32(sp)
e000031a:	4bf2                	lw	s7,28(sp)
e000031c:	4c62                	lw	s8,24(sp)
e000031e:	6125                	addi	sp,sp,96
e0000320:	8082                	ret
    if (*format == '%')
e0000322:	0e979663          	bne	a5,s1,e000040e <printf+0x14e>
      if (*format == '\0') break;
e0000326:	001bc683          	lbu	a3,1(s7)
e000032a:	def9                	beqz	a3,e0000308 <printf+0x48>
e000032c:	001b8793          	addi	a5,s7,1
      if (*format == '%') goto out;
e0000330:	0c968e63          	beq	a3,s1,e000040c <printf+0x14c>
      width = pad = 0;
e0000334:	4701                	li	a4,0
      if (*format == '-')
e0000336:	01269563          	bne	a3,s2,e0000340 <printf+0x80>
        ++format;
e000033a:	002b8793          	addi	a5,s7,2
        pad = PAD_RIGHT;
e000033e:	4705                	li	a4,1
e0000340:	8bbe                	mv	s7,a5
      while (*format == '0')
e0000342:	000bc783          	lbu	a5,0(s7)
e0000346:	001b8693          	addi	a3,s7,1
e000034a:	03378b63          	beq	a5,s3,e0000380 <printf+0xc0>
      width = pad = 0;
e000034e:	4681                	li	a3,0
      for ( ; *format >= '0' && *format <= '9'; ++format) {
e0000350:	4525                	li	a0,9
e0000352:	000bc783          	lbu	a5,0(s7)
e0000356:	001b8813          	addi	a6,s7,1
e000035a:	fd078613          	addi	a2,a5,-48
e000035e:	0ff67593          	andi	a1,a2,255
e0000362:	02b57363          	bleu	a1,a0,e0000388 <printf+0xc8>
      if( *format == 's' ) {
e0000366:	07300613          	li	a2,115
e000036a:	02c79463          	bne	a5,a2,e0000392 <printf+0xd2>
        register char *s = va_arg(va, char*);
e000036e:	4008                	lw	a0,0(s0)
e0000370:	00440c13          	addi	s8,s0,4
        pc += qprints (out, s?s:"(null)", width, pad);
e0000374:	e111                	bnez	a0,e0000378 <printf+0xb8>
e0000376:	8556                	mv	a0,s5
e0000378:	863a                	mv	a2,a4
e000037a:	85b6                	mv	a1,a3
        pc += qprints (out, scr, width, pad);
e000037c:	3bbd                	jal	e00000fa <qprints.constprop.2>
e000037e:	a035                	j	e00003aa <printf+0xea>
        pad |= PAD_ZERO;
e0000380:	00276713          	ori	a4,a4,2
        ++format;
e0000384:	8bb6                	mv	s7,a3
e0000386:	bf75                	j	e0000342 <printf+0x82>
        width *= 10;
e0000388:	034686b3          	mul	a3,a3,s4
      for ( ; *format >= '0' && *format <= '9'; ++format) {
e000038c:	8bc2                	mv	s7,a6
        width += *format - '0';
e000038e:	96b2                	add	a3,a3,a2
e0000390:	b7c9                	j	e0000352 <printf+0x92>
      if( *format == 'd' ) {
e0000392:	06400613          	li	a2,100
e0000396:	00c79e63          	bne	a5,a2,e00003b2 <printf+0xf2>
        pc += qprinti (out, va_arg(va, int), 10, 1, width, pad, 'a');
e000039a:	00440c13          	addi	s8,s0,4
e000039e:	06100793          	li	a5,97
e00003a2:	4605                	li	a2,1
e00003a4:	45a9                	li	a1,10
e00003a6:	4008                	lw	a0,0(s0)
e00003a8:	3be5                	jal	e00001a0 <qprinti.constprop.1>
e00003aa:	9b2a                	add	s6,s6,a0
e00003ac:	8462                	mv	s0,s8
  for (; *format != 0; ++format)
e00003ae:	0b85                	addi	s7,s7,1
e00003b0:	bf89                	j	e0000302 <printf+0x42>
      if( *format == 'u' ) {
e00003b2:	07500613          	li	a2,117
e00003b6:	00c79863          	bne	a5,a2,e00003c6 <printf+0x106>
        pc += qprinti (out, va_arg(va, unsigned int), 10, 0, width, pad, 'a');
e00003ba:	00440c13          	addi	s8,s0,4
e00003be:	06100793          	li	a5,97
e00003c2:	4601                	li	a2,0
e00003c4:	b7c5                	j	e00003a4 <printf+0xe4>
      if( *format == 'x' ) {
e00003c6:	07800613          	li	a2,120
e00003ca:	00c79963          	bne	a5,a2,e00003dc <printf+0x11c>
        pc += qprinti (out, va_arg(va, uint32_t), 16, 0, width, pad, 'a');
e00003ce:	00440c13          	addi	s8,s0,4
e00003d2:	06100793          	li	a5,97
        pc += qprinti (out, va_arg(va, uint32_t), 16, 0, width, pad, 'A');
e00003d6:	4601                	li	a2,0
e00003d8:	45c1                	li	a1,16
e00003da:	b7f1                	j	e00003a6 <printf+0xe6>
      if( *format == 'X' ) {
e00003dc:	05800613          	li	a2,88
e00003e0:	00c79763          	bne	a5,a2,e00003ee <printf+0x12e>
        pc += qprinti (out, va_arg(va, uint32_t), 16, 0, width, pad, 'A');
e00003e4:	00440c13          	addi	s8,s0,4
e00003e8:	04100793          	li	a5,65
e00003ec:	b7ed                	j	e00003d6 <printf+0x116>
      if( *format == 'c' ) {
e00003ee:	06300613          	li	a2,99
e00003f2:	fac79ee3          	bne	a5,a2,e00003ae <printf+0xee>
        scr[0] = va_arg(va, int);
e00003f6:	401c                	lw	a5,0(s0)
e00003f8:	00440c13          	addi	s8,s0,4
        scr[1] = '\0';
e00003fc:	000104a3          	sb	zero,9(sp)
        scr[0] = va_arg(va, int);
e0000400:	00f10423          	sb	a5,8(sp)
        pc += qprints (out, scr, width, pad);
e0000404:	863a                	mv	a2,a4
e0000406:	85b6                	mv	a1,a3
e0000408:	0028                	addi	a0,sp,8
e000040a:	bf8d                	j	e000037c <printf+0xbc>
      ++format;
e000040c:	8bbe                	mv	s7,a5
  uart_sendchar(s);
e000040e:	000bc503          	lbu	a0,0(s7)
      ++pc;
e0000412:	0b05                	addi	s6,s6,1
  uart_sendchar(s);
e0000414:	39d9                	jal	e00000ea <uart_sendchar>
e0000416:	bf61                	j	e00003ae <printf+0xee>

e0000418 <simple_exc_handler>:
  printf("EXCEPTION!!!\r\n");
e0000418:	00006517          	auipc	a0,0x6
e000041c:	62450513          	addi	a0,a0,1572 # e0006a3c <FLASH_AES_SMOKETEST_SIGNED+0x64ac>
e0000420:	b545                	j	e00002c0 <printf>

e0000422 <puts>:

int puts(const char *s)
{
e0000422:	1141                	addi	sp,sp,-16
e0000424:	c422                	sw	s0,8(sp)
e0000426:	c226                	sw	s1,4(sp)
e0000428:	c606                	sw	ra,12(sp)
e000042a:	c04a                	sw	s2,0(sp)
e000042c:	84aa                	mv	s1,a0
  int i=0;

  while(s[i] != '\0')
e000042e:	842a                	mv	s0,a0
e0000430:	40940933          	sub	s2,s0,s1
e0000434:	0405                	addi	s0,s0,1
e0000436:	fff44503          	lbu	a0,-1(s0)
e000043a:	e911                	bnez	a0,e000044e <puts+0x2c>
  uart_sendchar(s);
e000043c:	4529                	li	a0,10
e000043e:	3175                	jal	e00000ea <uart_sendchar>
    putchar(s[i++]);

  putchar('\n');

  return i;
}
e0000440:	40b2                	lw	ra,12(sp)
e0000442:	4422                	lw	s0,8(sp)
e0000444:	854a                	mv	a0,s2
e0000446:	4492                	lw	s1,4(sp)
e0000448:	4902                	lw	s2,0(sp)
e000044a:	0141                	addi	sp,sp,16
e000044c:	8082                	ret
  uart_sendchar(s);
e000044e:	3971                	jal	e00000ea <uart_sendchar>
e0000450:	b7c5                	j	e0000430 <puts+0xe>

e0000452 <external_irq_handler>:

void external_irq_handler(void)  {
e0000452:	1101                	addi	sp,sp,-32
e0000454:	c63a                	sw	a4,12(sp)
e0000456:	c43e                	sw	a5,8(sp)
e0000458:	ce2a                	sw	a0,28(sp)
e000045a:	cc2e                	sw	a1,24(sp)
e000045c:	ca32                	sw	a2,20(sp)
e000045e:	c836                	sw	a3,16(sp)
e0000460:	c242                	sw	a6,4(sp)
  p_reg5 = (int *) 0x1040401C;

  // start of """Interrupt Service Routine"""
  
  plic_check = (int *) 0xC8200004;
  while(*plic_check != mbox_id);   //check wether the intr is the correct one
e0000462:	c82007b7          	lui	a5,0xc8200
e0000466:	09f00713          	li	a4,159
e000046a:	43d0                	lw	a2,4(a5)
e000046c:	00478693          	addi	a3,a5,4 # c8200004 <pulp__FC+0xc8200005>
e0000470:	fee61de3          	bne	a2,a4,e000046a <external_irq_handler+0x18>
  
  p_reg = (int *) 0x10404020;
 *p_reg = 0x00000000;        //clearing the pending interrupt signal
e0000474:	104047b7          	lui	a5,0x10404
e0000478:	0207a023          	sw	zero,32(a5) # 10404020 <tohost+0x103e4018>
 
 *plic_check = mbox_id;      //completing interrupt
e000047c:	c298                	sw	a4,0(a3)
 
  a = *p_reg1;
e000047e:	4788                	lw	a0,8(a5)
  c = *p_reg3;
  d = *p_reg4;
  e = *p_reg5;
  
  
  if( a == 0xBAADC0DE &&  b == 0xBAADC0DE && c == 0xBAADC0DE && d == 0xBAADC0DE && e == 0xBAADC0DE){
e0000480:	baadc737          	lui	a4,0xbaadc
  b = *p_reg2;
e0000484:	4b8c                	lw	a1,16(a5)
  c = *p_reg3;
e0000486:	4bd0                	lw	a2,20(a5)
  d = *p_reg4;
e0000488:	4f94                	lw	a3,24(a5)
  e = *p_reg5;
e000048a:	01c7a803          	lw	a6,28(a5)
  if( a == 0xBAADC0DE &&  b == 0xBAADC0DE && c == 0xBAADC0DE && d == 0xBAADC0DE && e == 0xBAADC0DE){
e000048e:	0de70713          	addi	a4,a4,222 # baadc0de <pulp__FC+0xbaadc0df>
e0000492:	00e51c63          	bne	a0,a4,e00004aa <external_irq_handler+0x58>
e0000496:	00a59a63          	bne	a1,a0,e00004aa <external_irq_handler+0x58>
e000049a:	00b61863          	bne	a2,a1,e00004aa <external_irq_handler+0x58>
e000049e:	00c69663          	bne	a3,a2,e00004aa <external_irq_handler+0x58>
e00004a2:	00d81463          	bne	a6,a3,e00004aa <external_irq_handler+0x58>
      p_reg = (int *) 0x10404024; // completion interrupt to ariane agent
     *p_reg = 0x00000001;
e00004a6:	4705                	li	a4,1
e00004a8:	d3d8                	sw	a4,36(a5)
  }
  
  return;
}
e00004aa:	4572                	lw	a0,28(sp)
e00004ac:	45e2                	lw	a1,24(sp)
e00004ae:	4652                	lw	a2,20(sp)
e00004b0:	46c2                	lw	a3,16(sp)
e00004b2:	4732                	lw	a4,12(sp)
e00004b4:	47a2                	lw	a5,8(sp)
e00004b6:	4812                	lw	a6,4(sp)
e00004b8:	6105                	addi	sp,sp,32
e00004ba:	30200073          	mret

e00004be <default_exc_handler>:
  jal x0, sleep_loop //exc handler
e00004be:	0760006f          	j	e0000534 <sleep_loop>

e00004c2 <reset_handler>:
  mv  x1, x0
e00004c2:	00000093          	li	ra,0
  mv  x2, x1
e00004c6:	8106                	mv	sp,ra
  mv  x3, x1
e00004c8:	8186                	mv	gp,ra
  mv  x4, x1
e00004ca:	8206                	mv	tp,ra
  mv  x5, x1
e00004cc:	8286                	mv	t0,ra
  mv  x6, x1
e00004ce:	8306                	mv	t1,ra
  mv  x7, x1
e00004d0:	8386                	mv	t2,ra
  mv  x8, x1
e00004d2:	8406                	mv	s0,ra
  mv  x9, x1
e00004d4:	8486                	mv	s1,ra
  mv x10, x1
e00004d6:	8506                	mv	a0,ra
  mv x11, x1
e00004d8:	8586                	mv	a1,ra
  mv x12, x1
e00004da:	8606                	mv	a2,ra
  mv x13, x1
e00004dc:	8686                	mv	a3,ra
  mv x14, x1
e00004de:	8706                	mv	a4,ra
  mv x15, x1
e00004e0:	8786                	mv	a5,ra
  mv x16, x1
e00004e2:	8806                	mv	a6,ra
  mv x17, x1
e00004e4:	8886                	mv	a7,ra
  mv x18, x1
e00004e6:	8906                	mv	s2,ra
  mv x19, x1
e00004e8:	8986                	mv	s3,ra
  mv x20, x1
e00004ea:	8a06                	mv	s4,ra
  mv x21, x1
e00004ec:	8a86                	mv	s5,ra
  mv x22, x1
e00004ee:	8b06                	mv	s6,ra
  mv x23, x1
e00004f0:	8b86                	mv	s7,ra
  mv x24, x1
e00004f2:	8c06                	mv	s8,ra
  mv x25, x1
e00004f4:	8c86                	mv	s9,ra
  mv x26, x1
e00004f6:	8d06                	mv	s10,ra
  mv x27, x1
e00004f8:	8d86                	mv	s11,ra
  mv x28, x1
e00004fa:	8e06                	mv	t3,ra
  mv x29, x1
e00004fc:	8e86                	mv	t4,ra
  mv x30, x1
e00004fe:	8f06                	mv	t5,ra
  mv x31, x1
e0000500:	8f86                	mv	t6,ra
  la   x2, _stack_start
e0000502:	00010117          	auipc	sp,0x10
e0000506:	afe10113          	addi	sp,sp,-1282 # e0010000 <_stack_start>

e000050a <_start>:
  la x26, _bss_start
e000050a:	00006d17          	auipc	s10,0x6
e000050e:	552d0d13          	addi	s10,s10,1362 # e0006a5c <_bss_end>
  la x27, _bss_end
e0000512:	00006d97          	auipc	s11,0x6
e0000516:	54ad8d93          	addi	s11,s11,1354 # e0006a5c <_bss_end>
  bge x26, x27, zero_loop_end
e000051a:	01bd5763          	ble	s11,s10,e0000528 <main_entry>

e000051e <zero_loop>:
  sw x0, 0(x26)
e000051e:	000d2023          	sw	zero,0(s10)
  addi x26, x26, 4
e0000522:	0d11                	addi	s10,s10,4
  ble x26, x27, zero_loop
e0000524:	ffaddde3          	ble	s10,s11,e000051e <zero_loop>

e0000528 <main_entry>:
  addi x10, x0, 0
e0000528:	00000513          	li	a0,0
  addi x11, x0, 0
e000052c:	00000593          	li	a1,0
  jal x1, main
e0000530:	00a000ef          	jal	ra,e000053a <main>

e0000534 <sleep_loop>:
  wfi
e0000534:	10500073          	wfi
  j sleep_loop
e0000538:	bff5                	j	e0000534 <sleep_loop>

e000053a <main>:
  address     = (int *) 0xff00000C;
  start       = (int *) 0xff000010;
  sw_bootmode = (int *) 0xff000018;
  datapath    = (int *) 0xff00001C;

  *datapath = 0x1;
e000053a:	ff0007b7          	lui	a5,0xff000
e000053e:	4705                	li	a4,1
  
  for(int i = 0; i < buffer_size; i += 3) {
e0000540:	6609                	lui	a2,0x2
  *datapath = 0x1;
e0000542:	cfd8                	sw	a4,28(a5)
  for(int i = 0; i < buffer_size; i += 3) {
e0000544:	4681                	li	a3,0
e0000546:	00000717          	auipc	a4,0x0
e000054a:	04a70713          	addi	a4,a4,74 # e0000590 <FLASH_AES_SMOKETEST_SIGNED>
     if(i + 2 < buffer_size) {
        *payload_1 = FLASH_AES_SMOKETEST_SIGNED[i];
        *payload_2 = FLASH_AES_SMOKETEST_SIGNED[i+1];
        *payload_3 = FLASH_AES_SMOKETEST_SIGNED[i+2];
        *address = i/3;
e000054e:	488d                	li	a7,3
        *start = 0x1;
e0000550:	01078593          	addi	a1,a5,16 # ff000010 <pulp__FC+0xff000011>
e0000554:	4505                	li	a0,1
  for(int i = 0; i < buffer_size; i += 3) {
e0000556:	92960613          	addi	a2,a2,-1751 # 1929 <_min_stack-0x6d7>
        *payload_1 = FLASH_AES_SMOKETEST_SIGNED[i];
e000055a:	00072803          	lw	a6,0(a4)
e000055e:	0731                	addi	a4,a4,12
e0000560:	0107a023          	sw	a6,0(a5)
        *payload_2 = FLASH_AES_SMOKETEST_SIGNED[i+1];
e0000564:	ff872803          	lw	a6,-8(a4)
e0000568:	0107a223          	sw	a6,4(a5)
        *payload_3 = FLASH_AES_SMOKETEST_SIGNED[i+2];
e000056c:	ffc72803          	lw	a6,-4(a4)
e0000570:	0107a423          	sw	a6,8(a5)
        *address = i/3;
e0000574:	0316c833          	div	a6,a3,a7
  for(int i = 0; i < buffer_size; i += 3) {
e0000578:	068d                	addi	a3,a3,3
        *address = i/3;
e000057a:	0107a623          	sw	a6,12(a5)
        *start = 0x1;
e000057e:	c188                	sw	a0,0(a1)
  for(int i = 0; i < buffer_size; i += 3) {
e0000580:	fcc69de3          	bne	a3,a2,e000055a <main+0x20>
     }
  }

  *datapath = 0x0;
e0000584:	0007ae23          	sw	zero,28(a5)
  *sw_bootmode = 0x1;
e0000588:	4705                	li	a4,1
e000058a:	cf98                	sw	a4,24(a5)
  
  return 0;
  
}
e000058c:	4501                	li	a0,0
e000058e:	8082                	ret

Disassembly of section .rodata:

e0000590 <FLASH_AES_SMOKETEST_SIGNED>:
e0000590:	1dbd                	addi	s11,s11,-17
e0000592:	3a1ee383          	p.elw	t2,929(t4)
e0000596:	ee6e                	fsw	fs11,28(sp)
e0000598:	0000                	unimp
e000059a:	c800                	sw	s0,16(s0)
e000059c:	a05a                	fsd	fs6,0(sp)
e000059e:	a5684a97          	auipc	s5,0xa5684
e00005a2:	5585                	li	a1,-31
e00005a4:	0000                	unimp
e00005a6:	e340                	fsw	fs0,4(a4)
e00005a8:	2cf2                	fld	fs9,280(sp)
e00005aa:	d56c                	sw	a1,108(a0)
e00005ac:	cda8                	sw	a0,88(a1)
e00005ae:	cc85                	beqz	s1,e00005e6 <FLASH_AES_SMOKETEST_SIGNED+0x56>
e00005b0:	0000                	unimp
e00005b2:	4ba0                	lw	s0,80(a5)
e00005b4:	3750                	fld	fa2,168(a4)
e00005b6:	7384                	flw	fs1,32(a5)
e00005b8:	535389e3          	beq	t2,s5,e00012ea <FLASH_AES_SMOKETEST_SIGNED+0xd5a>
e00005bc:	0000                	unimp
e00005be:	c770                	sw	a2,76(a4)
e00005c0:	60a1                	lui	ra,0x8
e00005c2:	0d5aa38b          	p.lw	t2,213(s5!) # 85684673 <tohost+0x8566466b>
e00005c6:	e654                	fsw	fa3,12(a2)
e00005c8:	0000                	unimp
e00005ca:	ad80                	fsd	fs0,24(a1)
e00005cc:	175e                	slli	a4,a4,0x37
e00005ce:	86e1                	srai	a3,a3,0x18
e00005d0:	4ee5                	li	t4,25
e00005d2:	0395                	addi	t2,t2,5
e00005d4:	0000                	unimp
e00005d6:	abc0                	fsd	fs0,144(a5)
e00005d8:	ff96                	fsw	ft5,252(sp)
e00005da:	ba9e                	fsd	ft7,368(sp)
e00005dc:	573e                	lw	a4,236(sp)
e00005de:	1a7e                	slli	s4,s4,0x3f
e00005e0:	0000                	unimp
e00005e2:	f4c0                	fsw	fs0,44(s1)
e00005e4:	15f1                	addi	a1,a1,-4
e00005e6:	3a9c                	fld	fa5,48(a3)
e00005e8:	0be9                	addi	s7,s7,26
e00005ea:	9002                	ebreak
e00005ec:	0000                	unimp
e00005ee:	7590                	flw	fa2,40(a1)
e00005f0:	8ff5172b          	p.sh	t6,-1810(a0!)
e00005f4:	a886                	fsd	ft1,80(sp)
e00005f6:	d832                	sw	a2,48(sp)
e00005f8:	0000                	unimp
e00005fa:	bc10                	fsd	fa2,56(s0)
e00005fc:	6a69                	lui	s4,0x1a
e00005fe:	0e42                	slli	t3,t3,0x10
e0000600:	3553d427          	0x3553d427
e0000604:	0000                	unimp
e0000606:	e630                	fsw	fa2,72(a2)
e0000608:	8dcf767b          	0x8dcf767b
e000060c:	c8e1                	beqz	s1,e00006dc <FLASH_AES_SMOKETEST_SIGNED+0x14c>
e000060e:	0929                	addi	s2,s2,10
e0000610:	0000                	unimp
e0000612:	5910                	lw	a2,48(a0)
e0000614:	5dc8beeb          	0x5dc8beeb
e0000618:	e67e                	fsw	ft11,12(sp)
e000061a:	5666                	lw	a2,120(sp)
e000061c:	0000                	unimp
e000061e:	81e0                	0x81e0
e0000620:	76de                	flw	fa3,244(sp)
e0000622:	223c                	fld	fa5,64(a2)
e0000624:	9dff                	0x9dff
e0000626:	9f1a                	add	t5,t5,t1
e0000628:	0000                	unimp
e000062a:	6fd0                	flw	fa2,28(a5)
e000062c:	819c                	0x819c
e000062e:	f09bca93          	xori	s5,s7,-247
e0000632:	000036bf 06ac9f00 	0x6ac9f00000036bf
e000063a:	d4df 5ad9 4a41      	0x4a415ad9d4df
e0000640:	0000                	unimp
e0000642:	31f0                	fld	fa2,224(a1)
e0000644:	c5a2                	sw	s0,200(sp)
e0000646:	9e48                	0x9e48
e0000648:	c6f1                	beqz	a3,e0000714 <FLASH_AES_SMOKETEST_SIGNED+0x184>
e000064a:	73cc                	flw	fa1,36(a5)
e000064c:	0000                	unimp
e000064e:	b250                	fsd	fa2,160(a2)
e0000650:	32a1                	jal	dfffff98 <tohost+0xdffdff90>
e0000652:	6b21                	lui	s6,0x8
e0000654:	b041683b          	0xb041683b
e0000658:	0000                	unimp
e000065a:	5cc0                	lw	s0,60(s1)
e000065c:	1b3c                	addi	a5,sp,440
e000065e:	7ff2                	flw	ft11,60(sp)
e0000660:	e41a                	fsw	ft6,8(sp)
e0000662:	00003a9b          	0x3a9b
e0000666:	ad70                	fsd	fa2,216(a0)
e0000668:	33870483          	lb	s1,824(a4)
e000066c:	98b1                	andi	s1,s1,-20
e000066e:	f3e2                	fsw	fs8,228(sp)
e0000670:	0000                	unimp
e0000672:	0a40                	addi	s0,sp,276
e0000674:	83cd                	srli	a5,a5,0x13
e0000676:	d8a0                	sw	s0,112(s1)
e0000678:	6f29                	lui	t5,0xa
e000067a:	8bb8                	0x8bb8
e000067c:	0000                	unimp
e000067e:	f680                	fsw	fs0,40(a3)
e0000680:	3680                	fld	fs0,40(a3)
e0000682:	c7937a93          	andi	s5,t1,-903
e0000686:	f759                	bnez	a4,e0000614 <FLASH_AES_SMOKETEST_SIGNED+0x84>
e0000688:	0000                	unimp
e000068a:	9240                	0x9240
e000068c:	e6e96263          	bltu	s2,a4,dffffcf0 <tohost+0xdffdfce8>
e0000690:	b63d                	j	e00001be <qprinti.constprop.1+0x1e>
e0000692:	000087cb          	fnmsub.s	fa5,ft1,ft0,ft0,rne
e0000696:	8850                	0x8850
e0000698:	af95                	j	e0000e0c <FLASH_AES_SMOKETEST_SIGNED+0x87c>
e000069a:	5754                	lw	a3,44(a4)
e000069c:	a2ec                	fsd	fa1,192(a3)
e000069e:	10b1                	addi	ra,ra,-20
e00006a0:	0000                	unimp
e00006a2:	59b0                	lw	a2,112(a1)
e00006a4:	a4e4                	fsd	fs1,200(s1)
e00006a6:	d012f757          	0xd012f757
e00006aa:	df2a                	sw	a0,188(sp)
e00006ac:	0000                	unimp
e00006ae:	ee90                	fsw	fa2,24(a3)
e00006b0:	24ae                	fld	fs1,200(sp)
e00006b2:	ea9f cb54 b5c6      	0xb5c6cb54ea9f
e00006b8:	0000                	unimp
e00006ba:	6d60                	flw	fs0,92(a0)
e00006bc:	46e14467          	0x46e14467
e00006c0:	e7d2                	fsw	fs4,204(sp)
e00006c2:	000094ab          	p.sh	zero,9(ra!) # 8009 <_stack_len+0x9>
e00006c6:	d6d0                	sw	a2,44(a3)
e00006c8:	27500cb3          	0x27500cb3
e00006cc:	b065                	j	dfffff74 <tohost+0xdffdff6c>
e00006ce:	f712                	fsw	ft4,172(sp)
e00006d0:	0000                	unimp
e00006d2:	54a0                	lw	s0,104(s1)
e00006d4:	69fa                	flw	fs3,156(sp)
e00006d6:	8381                	srli	a5,a5,0x0
e00006d8:	a7c2                	fsd	fa6,456(sp)
e00006da:	1a96                	slli	s5,s5,0x25
e00006dc:	0000                	unimp
e00006de:	9880                	0x9880
e00006e0:	123fbbe7          	0x123fbbe7
e00006e4:	777a                	flw	fa4,188(sp)
e00006e6:	4c84                	lw	s1,24(s1)
e00006e8:	0000                	unimp
e00006ea:	55c0                	lw	s0,44(a1)
e00006ec:	8fb8                	0x8fb8
e00006ee:	44dd                	li	s1,23
e00006f0:	525fb1af          	0x525fb1af
e00006f4:	0000                	unimp
e00006f6:	1450                	addi	a2,sp,548
e00006f8:	bd59                	j	e000058e <main+0x54>
e00006fa:	b6e1                	j	e00002c2 <printf+0x2>
e00006fc:	55c4                	lw	s1,44(a1)
e00006fe:	85c2                	mv	a1,a6
e0000700:	0000                	unimp
e0000702:	79d0                	flw	fa2,52(a1)
e0000704:	843a                	mv	s0,a4
e0000706:	456c                	lw	a1,76(a0)
e0000708:	582c                	lw	a1,112(s0)
e000070a:	dd24                	sw	s1,120(a0)
e000070c:	0000                	unimp
e000070e:	3ef0                	fld	fa2,248(a3)
e0000710:	0216                	slli	tp,tp,0x5
e0000712:	3565                	jal	e00005ba <FLASH_AES_SMOKETEST_SIGNED+0x2a>
e0000714:	16b4                	addi	a3,sp,872
e0000716:	2ad1                	jal	e00008ea <FLASH_AES_SMOKETEST_SIGNED+0x35a>
e0000718:	0000                	unimp
e000071a:	93c0                	0x93c0
e000071c:	fb55                	bnez	a4,e00006d0 <FLASH_AES_SMOKETEST_SIGNED+0x140>
e000071e:	9e4c                	0x9e4c
e0000720:	8824                	0x8824
e0000722:	9e72                	add	t3,t3,t3
e0000724:	0000                	unimp
e0000726:	9470                	0x9470
e0000728:	fa65                	bnez	a2,e0000718 <FLASH_AES_SMOKETEST_SIGNED+0x188>
e000072a:	4b28                	lw	a0,80(a4)
e000072c:	3ffd0387          	0x3ffd0387
e0000730:	0000                	unimp
e0000732:	5f10                	lw	a2,56(a4)
e0000734:	d7509f23          	sh	s5,-642(ra)
e0000738:	f3af3167          	0xf3af3167
e000073c:	0000                	unimp
e000073e:	16a0                	addi	s0,sp,872
e0000740:	a6f6                	fsd	ft9,328(sp)
e0000742:	4386                	lw	t2,64(sp)
e0000744:	5115                	li	sp,-27
e0000746:	76b2                	flw	fa3,44(sp)
e0000748:	0000                	unimp
e000074a:	a3d0                	fsd	fa2,128(a5)
e000074c:	ecb6                	fsw	fa3,88(sp)
e000074e:	e8a6                	fsw	fs1,80(sp)
e0000750:	b7bd                	j	e00006be <FLASH_AES_SMOKETEST_SIGNED+0x12e>
e0000752:	15ca                	slli	a1,a1,0x32
e0000754:	0000                	unimp
e0000756:	06d0                	addi	a2,sp,836
e0000758:	625d                	lui	tp,0x17
e000075a:	2235                	jal	e0000886 <FLASH_AES_SMOKETEST_SIGNED+0x2f6>
e000075c:	1540                	addi	s0,sp,676
e000075e:	4798                	lw	a4,8(a5)
e0000760:	0000                	unimp
e0000762:	d6a0                	sw	s0,104(a3)
e0000764:	cc7a0dd3          	0xcc7a0dd3
e0000768:	ada09a23          	sh	s10,-1324(ra)
e000076c:	0000                	unimp
e000076e:	4900                	lw	s0,16(a0)
e0000770:	6fea                	flw	ft11,152(sp)
e0000772:	d238                	sw	a4,96(a2)
e0000774:	4cdf 9a59 0000      	0x9a594cdf
e000077a:	7580                	flw	fs0,40(a1)
e000077c:	81b80d5b          	p.muls	s10,a6,s11
e0000780:	c4b4                	sw	a3,72(s1)
e0000782:	0000cf1b          	0xcf1b
e0000786:	d270                	sw	a2,100(a2)
e0000788:	e9196647          	fmsub.s	fa2,fs2,fa7,ft9,unknown
e000078c:	f571                	bnez	a0,e0000758 <FLASH_AES_SMOKETEST_SIGNED+0x1c8>
e000078e:	a421                	j	e0000996 <FLASH_AES_SMOKETEST_SIGNED+0x406>
e0000790:	0000                	unimp
e0000792:	5ae0                	lw	s0,116(a3)
e0000794:	eb21fd53          	0xeb21fd53
e0000798:	5765                	li	a4,-7
e000079a:	00004cd3          	fadd.s	fs9,ft0,ft0,rmm
e000079e:	85b0                	0x85b0
e00007a0:	812d                	srli	a0,a0,0xb
e00007a2:	b4da                	fsd	fs6,104(sp)
e00007a4:	f382                	fsw	ft0,228(sp)
e00007a6:	6f95                	lui	t6,0x5
e00007a8:	0000                	unimp
e00007aa:	79c0                	flw	fs0,52(a1)
e00007ac:	28bd                	jal	e000082a <FLASH_AES_SMOKETEST_SIGNED+0x29a>
e00007ae:	5e4e                	lw	t3,240(sp)
e00007b0:	a148d0b3          	vfeq.r.ah	ra,a7,s4
e00007b4:	0000                	unimp
e00007b6:	3880                	fld	fs0,48(s1)
e00007b8:	7a99f1fb          	0x7a99f1fb
e00007bc:	3371                	jal	e0000548 <main+0xe>
e00007be:	7619                	lui	a2,0xfffe6
e00007c0:	0000                	unimp
e00007c2:	3320                	fld	fs0,96(a4)
e00007c4:	e2370b2b          	p.sb	gp,-458(a4!)
e00007c8:	94de                	add	s1,s1,s7
e00007ca:	44a4                	lw	s1,72(s1)
e00007cc:	0000                	unimp
e00007ce:	7320                	flw	fs0,96(a4)
e00007d0:	5a5a                	lw	s4,180(sp)
e00007d2:	e23a                	fsw	fa4,4(sp)
e00007d4:	0000                	unimp
e00007d6:	5a50                	lw	a2,52(a2)
e00007d8:	0000                	unimp
e00007da:	0000                	unimp
e00007dc:	5a5a                	lw	s4,180(sp)
e00007de:	191a                	slli	s2,s2,0x26
e00007e0:	5a5a                	lw	s4,180(sp)
e00007e2:	5a5a                	lw	s4,180(sp)
e00007e4:	0000                	unimp
e00007e6:	5a50                	lw	a2,52(a2)
e00007e8:	5a5a                	lw	s4,180(sp)
e00007ea:	191a                	slli	s2,s2,0x26
e00007ec:	5a5a                	lw	s4,180(sp)
e00007ee:	5a5a                	lw	s4,180(sp)
e00007f0:	0000                	unimp
e00007f2:	5a50                	lw	a2,52(a2)
e00007f4:	5a5a                	lw	s4,180(sp)
e00007f6:	191a                	slli	s2,s2,0x26
e00007f8:	5a5a                	lw	s4,180(sp)
e00007fa:	5a5a                	lw	s4,180(sp)
e00007fc:	0000                	unimp
e00007fe:	5a50                	lw	a2,52(a2)
e0000800:	5a5a                	lw	s4,180(sp)
e0000802:	191a                	slli	s2,s2,0x26
e0000804:	5a5a                	lw	s4,180(sp)
e0000806:	5a5a                	lw	s4,180(sp)
e0000808:	0000                	unimp
e000080a:	5a50                	lw	a2,52(a2)
e000080c:	5a5a                	lw	s4,180(sp)
e000080e:	191a                	slli	s2,s2,0x26
e0000810:	5a5a                	lw	s4,180(sp)
e0000812:	5a5a                	lw	s4,180(sp)
e0000814:	0000                	unimp
e0000816:	5a50                	lw	a2,52(a2)
e0000818:	ff64                	fsw	fs1,124(a4)
e000081a:	5b2e                	lw	s6,232(sp)
e000081c:	801a                	0x801a
e000081e:	a465                	j	e0000ac6 <FLASH_AES_SMOKETEST_SIGNED+0x536>
e0000820:	0000                	unimp
e0000822:	2bd0                	fld	fa2,144(a5)
e0000824:	7cd6                	flw	fs9,116(sp)
e0000826:	6b2a                	flw	fs6,136(sp)
e0000828:	8cf2                	mv	s9,t3
e000082a:	2cbc                	fld	fa5,88(s1)
e000082c:	0000                	unimp
e000082e:	2510                	fld	fa2,8(a0)
e0000830:	14d55c93          	0x14d55c93
e0000834:	6d3634a3          	0x6d3634a3
e0000838:	0000                	unimp
e000083a:	9c20                	0x9c20
e000083c:	94d762eb          	0x94d762eb
e0000840:	63d6                	flw	ft7,84(sp)
e0000842:	baa4                	fsd	fs1,112(a3)
e0000844:	0000                	unimp
e0000846:	1fc0                	addi	s0,sp,1012
e0000848:	3da1                	jal	e00006a0 <FLASH_AES_SMOKETEST_SIGNED+0x110>
e000084a:	f912                	fsw	ft4,176(sp)
e000084c:	1aad                	addi	s5,s5,-21
e000084e:	5d10                	lw	a2,56(a0)
e0000850:	0000                	unimp
e0000852:	fb20                	fsw	fs0,112(a4)
e0000854:	dc74ec67          	0xdc74ec67
e0000858:	475f b7b8 0000      	0xb7b8475f
e000085e:	dc60                	sw	s0,124(s0)
e0000860:	23ec                	fld	fa1,192(a5)
e0000862:	f1bd                	bnez	a1,e00007c8 <FLASH_AES_SMOKETEST_SIGNED+0x238>
e0000864:	9364                	0x9364
e0000866:	7c7e                	flw	fs8,252(sp)
e0000868:	0000                	unimp
e000086a:	5700                	lw	s0,40(a4)
e000086c:	688a                	flw	fa7,128(sp)
e000086e:	18a5                	addi	a7,a7,-23
e0000870:	8038                	0x8038
e0000872:	56b9                	li	a3,-18
e0000874:	0000                	unimp
e0000876:	d630                	sw	a2,104(a2)
e0000878:	20ff                	0x20ff
e000087a:	8037738b          	0x8037738b
e000087e:	2896                	fld	fa7,320(sp)
e0000880:	0000                	unimp
e0000882:	add0                	fsd	fa2,152(a1)
e0000884:	fdcbac0b          	p.lw	s8,-36(s7!)
e0000888:	d96c                	sw	a1,116(a0)
e000088a:	8cd9                	or	s1,s1,a4
e000088c:	0000                	unimp
e000088e:	1ce0                	addi	s0,sp,636
e0000890:	95f8                	0x95f8
e0000892:	a231                	j	e000099e <FLASH_AES_SMOKETEST_SIGNED+0x40e>
e0000894:	9c8ead33          	vfsgnjn.h	s10,t4,s0
e0000898:	0000                	unimp
e000089a:	d0b0                	sw	a2,96(s1)
e000089c:	5bcc                	lw	a1,52(a5)
e000089e:	c75f 7dc1 c12d      	0xc12d7dc1c75f
e00008a4:	0000                	unimp
e00008a6:	10e0                	addi	s0,sp,108
e00008a8:	dc40                	sw	s0,60(s0)
e00008aa:	4a9e                	lw	s5,196(sp)
e00008ac:	4d28dfa3          	0x4d28dfa3
e00008b0:	0000                	unimp
e00008b2:	3dc0                	fld	fs0,184(a1)
e00008b4:	197c                	addi	a5,sp,188
e00008b6:	6c79                	lui	s8,0x1e
e00008b8:	4ef8                	lw	a4,92(a3)
e00008ba:	00000c87          	0xc87
e00008be:	5240                	lw	s0,36(a2)
e00008c0:	c9c5                	beqz	a1,e0000970 <FLASH_AES_SMOKETEST_SIGNED+0x3e0>
e00008c2:	a384                	fsd	fs1,0(a5)
e00008c4:	9cc4                	0x9cc4
e00008c6:	000005d7          	pv.add.h	a1,zero,zero
e00008ca:	48e0                	lw	s0,84(s1)
e00008cc:	a75e2d0f          	0xa75e2d0f
e00008d0:	a586                	fsd	ft1,200(sp)
e00008d2:	0714                	addi	a3,sp,896
e00008d4:	0000                	unimp
e00008d6:	ad70                	fsd	fa2,216(a0)
e00008d8:	ca7f                	0xca7f
e00008da:	5002                	0x5002
e00008dc:	89f2                	mv	s3,t3
e00008de:	c225                	beqz	a2,e000093e <FLASH_AES_SMOKETEST_SIGNED+0x3ae>
e00008e0:	0000                	unimp
e00008e2:	8c20                	0x8c20
e00008e4:	66eefb63          	bleu	a4,t4,e0000f5a <FLASH_AES_SMOKETEST_SIGNED+0x9ca>
e00008e8:	b440354b          	fnmsub.h	a0,zero,tp,s6,rup
e00008ec:	0000                	unimp
e00008ee:	0e20                	addi	s0,sp,792
e00008f0:	e194                	fsw	fa3,0(a1)
e00008f2:	d759                	beqz	a4,e0000880 <FLASH_AES_SMOKETEST_SIGNED+0x2f0>
e00008f4:	3a75                	jal	e00002b0 <putchar+0x8>
e00008f6:	00004543          	fmadd.s	fa0,ft0,ft0,ft0,rmm
e00008fa:	b040                	fsd	fs0,160(s0)
e00008fc:	a008e3f7          	0xa008e3f7
e0000900:	b4b2                	fsd	fa2,104(sp)
e0000902:	8e01                	sub	a2,a2,s0
e0000904:	0000                	unimp
e0000906:	cde0                	sw	s0,92(a1)
e0000908:	5685                	li	a3,-31
e000090a:	2910                	fld	fa2,16(a0)
e000090c:	2608                	fld	fa0,8(a2)
e000090e:	b725                	j	e0000836 <FLASH_AES_SMOKETEST_SIGNED+0x2a6>
e0000910:	0000                	unimp
e0000912:	77c0                	flw	fs0,44(a5)
e0000914:	81b10303          	lb	t1,-2021(sp)
e0000918:	868a                	mv	a3,sp
e000091a:	ac94                	fsd	fa3,24(s1)
e000091c:	0000                	unimp
e000091e:	d4e0                	sw	s0,108(s1)
e0000920:	7ff5e797          	auipc	a5,0x7ff5e
e0000924:	5ac2                	lw	s5,48(sp)
e0000926:	3810                	fld	fa2,48(s0)
e0000928:	0000                	unimp
e000092a:	4110                	lw	a2,0(a0)
e000092c:	3522                	fld	fa0,40(sp)
e000092e:	ba9e                	fsd	ft7,368(sp)
e0000930:	348d5407          	0x348d5407
e0000934:	0000                	unimp
e0000936:	6680                	flw	fs0,8(a3)
e0000938:	8f7a                	mv	t5,t5
e000093a:	33137ff3          	csrrci	t6,0x331,6
e000093e:	953a                	add	a0,a0,a4
e0000940:	0000                	unimp
e0000942:	4f80                	lw	s0,24(a5)
e0000944:	36f6                	fld	fa3,376(sp)
e0000946:	1751                	addi	a4,a4,-12
e0000948:	753d926f          	jal	tp,e00da89a <fromhost+0xca88a>
e000094c:	0000                	unimp
e000094e:	6720                	flw	fs0,72(a4)
e0000950:	3dc5ccab          	0x3dc5ccab
e0000954:	586b186b          	0x586b186b
e0000958:	0000                	unimp
e000095a:	0ab0                	addi	a2,sp,344
e000095c:	fc0e                	fsw	ft3,56(sp)
e000095e:	b1b9                	j	e00005ac <FLASH_AES_SMOKETEST_SIGNED+0x1c>
e0000960:	ebb61e5b          	p.machhsn	t3,a2,s11,21
e0000964:	0000                	unimp
e0000966:	f2e0                	fsw	fs0,100(a3)
e0000968:	7b5f f754 88ed      	0x88edf7547b5f
e000096e:	0000c707          	0xc707
e0000972:	0bd0                	addi	a2,sp,468
e0000974:	b40d                	j	e0000396 <printf+0xd6>
e0000976:	97122753          	0x97122753
e000097a:	000099bf e3c962a0 	0xe3c962a0000099bf
e0000982:	96ec                	0x96ec
e0000984:	b9fd                	j	e0000682 <FLASH_AES_SMOKETEST_SIGNED+0xf2>
e0000986:	3bf5                	jal	e0000782 <FLASH_AES_SMOKETEST_SIGNED+0x1f2>
e0000988:	0000                	unimp
e000098a:	9260                	0x9260
e000098c:	2b9e                	fld	fs7,448(sp)
e000098e:	4060d1b7          	lui	gp,0x4060d
e0000992:	555d                	li	a0,-9
e0000994:	0000                	unimp
e0000996:	05e0                	addi	s0,sp,716
e0000998:	223fcef7          	0x223fcef7
e000099c:	9b92                	add	s7,s7,tp
e000099e:	47fc                	lw	a5,76(a5)
e00009a0:	0000                	unimp
e00009a2:	73e0                	flw	fs0,100(a5)
e00009a4:	761e                	flw	fa2,228(sp)
e00009a6:	48a2                	lw	a7,8(sp)
e00009a8:	0a35                	addi	s4,s4,13
e00009aa:	00008f6f          	jal	t5,e00089aa <_bss_end+0x1f4e>
e00009ae:	5980                	lw	s0,48(a1)
e00009b0:	62bc                	flw	fa5,64(a3)
e00009b2:	6dc4                	flw	fs1,28(a1)
e00009b4:	c179                	beqz	a0,e0000a7a <FLASH_AES_SMOKETEST_SIGNED+0x4ea>
e00009b6:	52de                	lw	t0,244(sp)
e00009b8:	0000                	unimp
e00009ba:	9df0                	0x9df0
e00009bc:	29cc                	fld	fa1,144(a1)
e00009be:	61b4                	flw	fa3,64(a1)
e00009c0:	e472                	fsw	ft8,8(sp)
e00009c2:	dae8                	sw	a0,116(a3)
e00009c4:	0000                	unimp
e00009c6:	18b0                	addi	a2,sp,120
e00009c8:	0c70                	addi	a2,sp,540
e00009ca:	7e7dc567          	0x7e7dc567
e00009ce:	b03e                	fsd	fa5,32(sp)
e00009d0:	0000                	unimp
e00009d2:	66c0                	flw	fs0,12(a3)
e00009d4:	cb3e                	sw	a5,148(sp)
e00009d6:	356c6913          	ori	s2,s8,854
e00009da:	7d10                	flw	fa2,56(a0)
e00009dc:	0000                	unimp
e00009de:	3d20                	fld	fs0,120(a0)
e00009e0:	3c52                	fld	fs8,304(sp)
e00009e2:	56e8                	lw	a0,108(a3)
e00009e4:	42d0                	lw	a2,4(a3)
e00009e6:	9a3d                	andi	a2,a2,-17
e00009e8:	0000                	unimp
e00009ea:	35d0                	fld	fa2,168(a1)
e00009ec:	082e                	slli	a6,a6,0xb
e00009ee:	df99238b          	p.lw	t2,-519(s2!)
e00009f2:	1f08                	addi	a0,sp,944
e00009f4:	0000                	unimp
e00009f6:	30e0                	fld	fs0,224(s1)
e00009f8:	c33a                	sw	a4,132(sp)
e00009fa:	adc5                	j	e00010ea <FLASH_AES_SMOKETEST_SIGNED+0xb5a>
e00009fc:	7509                	lui	a0,0xfffe2
e00009fe:	3500                	fld	fs0,40(a0)
e0000a00:	0000                	unimp
e0000a02:	c300                	sw	s0,0(a4)
e0000a04:	b9d2                	fsd	fs4,240(sp)
e0000a06:	f6881e47          	0xf6881e47
e0000a0a:	de04                	sw	s1,56(a2)
e0000a0c:	0000                	unimp
e0000a0e:	4b90                	lw	a2,16(a5)
e0000a10:	8dbc                	0x8dbc
e0000a12:	f1d184d3          	0xf1d184d3
e0000a16:	f550                	fsw	fa2,44(a0)
e0000a18:	0000                	unimp
e0000a1a:	6b30                	flw	fa2,80(a4)
e0000a1c:	2f2a                	fld	ft10,136(sp)
e0000a1e:	8b2c                	0x8b2c
e0000a20:	6858                	flw	fa4,20(s0)
e0000a22:	ca41                	beqz	a2,e0000ab2 <FLASH_AES_SMOKETEST_SIGNED+0x522>
e0000a24:	0000                	unimp
e0000a26:	0ea0                	addi	s0,sp,856
e0000a28:	27dd                	jal	e000120e <FLASH_AES_SMOKETEST_SIGNED+0xc7e>
e0000a2a:	fb22                	fsw	fs0,180(sp)
e0000a2c:	3f0a                	fld	ft10,160(sp)
e0000a2e:	2ed4                	fld	fa3,152(a3)
e0000a30:	0000                	unimp
e0000a32:	e600                	fsw	fs0,8(a2)
e0000a34:	404e                	0x404e
e0000a36:	8c79                	and	s0,s0,a4
e0000a38:	8dc6                	mv	s11,a7
e0000a3a:	8bcd                	andi	a5,a5,19
e0000a3c:	0000                	unimp
e0000a3e:	1f40                	addi	s0,sp,948
e0000a40:	491d                	li	s2,7
e0000a42:	db76b6e3          	p.bneimm	a3,-9,e00007ee <FLASH_AES_SMOKETEST_SIGNED+0x25e>
e0000a46:	3b00                	fld	fs0,48(a4)
e0000a48:	0000                	unimp
e0000a4a:	fe30                	fsw	fa2,120(a2)
e0000a4c:	e91cda63          	ble	a7,s9,e00000e0 <uart_getchar+0x8>
e0000a50:	ca44                	sw	s1,20(a2)
e0000a52:	7196                	flw	ft3,100(sp)
e0000a54:	0000                	unimp
e0000a56:	e270                	fsw	fa2,68(a2)
e0000a58:	5525                	li	a0,-23
e0000a5a:	1564                	addi	s1,sp,684
e0000a5c:	0000                	unimp
e0000a5e:	44f0                	lw	a2,76(s1)
e0000a60:	0000                	unimp
e0000a62:	1d40                	addi	s0,sp,692
e0000a64:	0000                	unimp
e0000a66:	5380                	lw	s0,32(a5)
e0000a68:	0004                	addi	s1,sp,0
e0000a6a:	0000                	unimp
e0000a6c:	0000                	unimp
e0000a6e:	3140                	fld	fs0,160(a0)
	...
e0000ab8:	0000                	unimp
e0000aba:	f910                	fsw	fa2,48(a0)
e0000abc:	0000                	unimp
e0000abe:	4000                	lw	s0,0(s0)
e0000ac0:	0000                	unimp
e0000ac2:	0000                	unimp
e0000ac4:	0000                	unimp
e0000ac6:	d6e0                	sw	s0,108(a3)
e0000ac8:	0002                	0x2
e0000aca:	4800                	lw	s0,16(s0)
e0000acc:	0000                	unimp
e0000ace:	e500                	fsw	fs0,8(a0)
	...
e0000b90:	0001                	nop
e0000b92:	e38c                	fsw	fa1,0(a5)
e0000b94:	0800                	addi	s0,sp,16
e0000b96:	0732                	slli	a4,a4,0xc
e0000b98:	0000                	unimp
e0000b9a:	06f0                	addi	a2,sp,844
e0000b9c:	4c00                	lw	s0,24(s0)
e0000b9e:	9562                	add	a0,a0,s8
e0000ba0:	0001                	nop
e0000ba2:	06fc                	addi	a5,sp,844
e0000ba4:	0000                	unimp
e0000ba6:	0730                	addi	a2,sp,904
e0000ba8:	0001                	nop
e0000baa:	438c                	lw	a1,0(a5)
e0000bac:	0001                	nop
e0000bae:	073c                	addi	a5,sp,904
e0000bb0:	0000                	unimp
e0000bb2:	0730                	addi	a2,sp,904
e0000bb4:	9000                	0x9000
e0000bb6:	e1b2                	fsw	fa2,192(sp)
e0000bb8:	0001                	nop
e0000bba:	06fc                	addi	a5,sp,844
e0000bbc:	0000                	unimp
e0000bbe:	0730                	addi	a2,sp,904
e0000bc0:	0001                	nop
e0000bc2:	438c                	lw	a1,0(a5)
e0000bc4:	0001                	nop
e0000bc6:	073c                	addi	a5,sp,904
e0000bc8:	0000                	unimp
e0000bca:	0730                	addi	a2,sp,904
e0000bcc:	d400                	sw	s0,40(s0)
e0000bce:	1e42                	slli	t3,t3,0x30
e0000bd0:	0001                	nop
e0000bd2:	06fc                	addi	a5,sp,844
e0000bd4:	0000                	unimp
e0000bd6:	0730                	addi	a2,sp,904
e0000bd8:	0001                	nop
e0000bda:	438c                	lw	a1,0(a5)
e0000bdc:	0001                	nop
e0000bde:	073c                	addi	a5,sp,904
e0000be0:	0000                	unimp
e0000be2:	0730                	addi	a2,sp,904
e0000be4:	0001                	nop
e0000be6:	438c                	lw	a1,0(a5)
e0000be8:	0001                	nop
e0000bea:	073c                	addi	a5,sp,904
e0000bec:	0000                	unimp
e0000bee:	0730                	addi	a2,sp,904
e0000bf0:	0001                	nop
e0000bf2:	438c                	lw	a1,0(a5)
e0000bf4:	0001                	nop
e0000bf6:	073c                	addi	a5,sp,904
e0000bf8:	0000                	unimp
e0000bfa:	0730                	addi	a2,sp,904
e0000bfc:	0001                	nop
e0000bfe:	438c                	lw	a1,0(a5)
e0000c00:	0001                	nop
e0000c02:	073c                	addi	a5,sp,904
e0000c04:	0000                	unimp
e0000c06:	0730                	addi	a2,sp,904
e0000c08:	0001                	nop
e0000c0a:	438c                	lw	a1,0(a5)
e0000c0c:	0001                	nop
e0000c0e:	073c                	addi	a5,sp,904
e0000c10:	0000                	unimp
e0000c12:	0730                	addi	a2,sp,904
e0000c14:	0001                	nop
e0000c16:	438c                	lw	a1,0(a5)
e0000c18:	0001                	nop
e0000c1a:	073c                	addi	a5,sp,904
e0000c1c:	0000                	unimp
e0000c1e:	0730                	addi	a2,sp,904
e0000c20:	0001                	nop
e0000c22:	438c                	lw	a1,0(a5)
e0000c24:	0001                	nop
e0000c26:	073c                	addi	a5,sp,904
e0000c28:	0000                	unimp
e0000c2a:	0730                	addi	a2,sp,904
e0000c2c:	0001                	nop
e0000c2e:	438c                	lw	a1,0(a5)
e0000c30:	0001                	nop
e0000c32:	073c                	addi	a5,sp,904
e0000c34:	0000                	unimp
e0000c36:	0730                	addi	a2,sp,904
e0000c38:	0001                	nop
e0000c3a:	438c                	lw	a1,0(a5)
e0000c3c:	0001                	nop
e0000c3e:	073c                	addi	a5,sp,904
e0000c40:	0000                	unimp
e0000c42:	0730                	addi	a2,sp,904
e0000c44:	d800                	sw	s0,48(s0)
e0000c46:	9c72                	add	s8,s8,t3
e0000c48:	0001                	nop
e0000c4a:	06fc                	addi	a5,sp,844
e0000c4c:	0000                	unimp
e0000c4e:	0730                	addi	a2,sp,904
e0000c50:	4418                	lw	a4,8(s0)
e0000c52:	00024753          	fadd.s	fa4,ft4,ft0,rmm
e0000c56:	0000193f 68101970 	0x681019700000193f
e0000c5e:	0020d00b          	p.lhu	zero,2(ra!)
e0000c62:	0000113f 71281170 	0x712811700000113f
e0000c6a:	0000f38f          	0xf38f
e0000c6e:	2930                	fld	fa2,80(a0)
e0000c70:	0000                	unimp
e0000c72:	2970                	fld	fa2,208(a0)
e0000c74:	0002                	0x2
e0000c76:	0529f38f          	0x529f38f
e0000c7a:	00005173          	csrrwi	sp,0x0,0
e0000c7e:	0730                	addi	a2,sp,904
e0000c80:	8418                	0x8418
e0000c82:	0dc8                	addi	a0,sp,724
e0000c84:	2850                	fld	fa2,144(s0)
e0000c86:	0000593b          	0x593b
e0000c8a:	5130                	lw	a2,96(a0)
e0000c8c:	e860                	fsw	fs0,84(s0)
e0000c8e:	023d                	addi	tp,tp,15
e0000c90:	0004                	addi	s1,sp,0
e0000c92:	6130                	flw	fa2,64(a0)
e0000c94:	0000                	unimp
e0000c96:	6170                	flw	fa2,68(a0)
e0000c98:	91b0513f 00025172 	0x2517291b0513f
e0000ca0:	0000                	unimp
e0000ca2:	8b10                	0x8b10
e0000ca4:	f4d8593f 0002597b 	0x2597bf4d8593f
e0000cac:	0000                	unimp
e0000cae:	9650                	0x9650
e0000cb0:	0000                	unimp
e0000cb2:	0a90                	addi	a2,sp,336
e0000cb4:	01dc                	addi	a5,sp,196
e0000cb6:	4172                	lw	sp,28(sp)
e0000cb8:	0000                	unimp
e0000cba:	ca50                	sw	a2,20(a2)
e0000cbc:	0000                	unimp
e0000cbe:	7e40                	flw	fs0,60(a2)
e0000cc0:	8440                	0x8440
e0000cc2:	4970                	lw	a2,84(a0)
e0000cc4:	0000                	unimp
e0000cc6:	4130                	lw	a2,64(a0)
e0000cc8:	db200947          	fmsub.d	fs2,ft0,fs2,fs11,rne
e0000ccc:	7c48                	flw	fa0,60(s0)
e0000cce:	8630                	0x8630
e0000cd0:	0000                	unimp
e0000cd2:	4930                	lw	a2,80(a0)
e0000cd4:	4119                	li	sp,6
e0000cd6:	3b20                	fld	fs0,112(a4)
e0000cd8:	0042                	0x42
e0000cda:	2820                	fld	fs0,80(s0)
e0000cdc:	0000                	unimp
e0000cde:	2830                	fld	fa2,80(s0)
e0000ce0:	0d00                	addi	s0,sp,656
e0000ce2:	e946ac77          	0xe946ac77
e0000ce6:	06ff                	0x6ff
e0000ce8:	0000                	unimp
e0000cea:	ce30                	sw	a2,88(a2)
e0000cec:	0b56                	slli	s6,s6,0x15
e0000cee:	3000                	fld	fs0,32(s0)
e0000cf0:	2b300b57          	0x2b300b57
e0000cf4:	0000                	unimp
e0000cf6:	e630                	fsw	fa2,72(a2)
e0000cf8:	0029                	c.addi	zero,10
e0000cfa:	8750                	0x8750
e0000cfc:	b630032f          	0xb630032f
e0000d00:	0000                	unimp
e0000d02:	2930                	fld	fa2,80(a0)
e0000d04:	de30                	sw	a2,120(a2)
e0000d06:	46e6                	lw	a3,88(sp)
e0000d08:	0052                	0x52
e0000d0a:	5110                	lw	a2,32(a0)
e0000d0c:	0000                	unimp
e0000d0e:	0230                	addi	a2,sp,264
e0000d10:	0b51                	addi	s6,s6,20
e0000d12:	a230                	fsd	fa2,64(a2)
e0000d14:	3638082f          	0x3638082f
e0000d18:	0000                	unimp
e0000d1a:	eb50                	fsw	fa2,20(a4)
e0000d1c:	01b02b57          	pv.add.h.div2	s6,zero,s11
e0000d20:	0008                	addi	a0,sp,0
e0000d22:	9630                	0x9630
e0000d24:	0000                	unimp
e0000d26:	0820                	addi	s0,sp,24
e0000d28:	0c2e                	slli	s8,s8,0xb
e0000d2a:	c380                	sw	s0,0(a5)
e0000d2c:	0b56                	slli	s6,s6,0x15
e0000d2e:	2b30                	fld	fa2,80(a4)
e0000d30:	0000                	unimp
e0000d32:	2b30                	fld	fa2,80(a4)
e0000d34:	2029                	jal	e0000d3e <FLASH_AES_SMOKETEST_SIGNED+0x7ae>
e0000d36:	9380                	0x9380
e0000d38:	4630032f          	0x4630032f
e0000d3c:	0000                	unimp
e0000d3e:	2930                	fld	fa2,80(a0)
e0000d40:	0a58                	addi	a4,sp,276
e0000d42:	4564                	lw	s1,76(a0)
e0000d44:	0c50                	addi	a2,sp,532
e0000d46:	3334                	fld	fa3,96(a4)
e0000d48:	0000                	unimp
e0000d4a:	2b30                	fld	fa2,80(a4)
e0000d4c:	0062                	0x62
e0000d4e:	7910                	flw	fa2,48(a0)
e0000d50:	062e                	slli	a2,a2,0xb
e0000d52:	2830                	fld	fa2,80(s0)
e0000d54:	0000                	unimp
e0000d56:	e630                	fsw	fa2,72(a2)
e0000d58:	5110                	lw	a2,32(a0)
e0000d5a:	4dc0                	lw	s0,28(a1)
e0000d5c:	0230                	addi	a2,sp,264
e0000d5e:	0552                	slli	a0,a0,0x14
e0000d60:	0000                	unimp
e0000d62:	6110                	flw	fa2,0(a0)
e0000d64:	3638                	fld	fa4,104(a2)
e0000d66:	d4d1                	beqz	s1,e0000cf2 <FLASH_AES_SMOKETEST_SIGNED+0x762>
e0000d68:	eb56                	fsw	fs5,148(sp)
e0000d6a:	0000082f          	0x82f
e0000d6e:	ae30                	fsd	fa2,88(a2)
e0000d70:	0000                	unimp
e0000d72:	a560                	fsd	fs0,200(a0)
e0000d74:	0820                	addi	s0,sp,24
e0000d76:	0008                	addi	a0,sp,0
e0000d78:	0000                	unimp
e0000d7a:	0b50                	addi	a2,sp,404
e0000d7c:	1812                	slli	a6,a6,0x24
e0000d7e:	0002bc7b          	0x2bc7b
e0000d82:	0000103f 3c241170 	0x3c2411700000103f
e0000d8a:	b754                	fsd	fa3,168(a4)
e0000d8c:	0824                	addi	s1,sp,24
e0000d8e:	3324                	fld	fs1,96(a4)
e0000d90:	0000                	unimp
e0000d92:	1020                	addi	s0,sp,40
e0000d94:	5824                	lw	s1,112(s0)
e0000d96:	4755                	li	a4,21
e0000d98:	4e24                	lw	s1,88(a2)
e0000d9a:	5724                	lw	s1,104(a4)
e0000d9c:	0000                	unimp
e0000d9e:	4520                	lw	s0,72(a0)
e0000da0:	7c25                	lui	s8,0xfffe9
e0000da2:	2005                	jal	e0000dc2 <FLASH_AES_SMOKETEST_SIGNED+0x832>
e0000da4:	6a25                	lui	s4,0x9
e0000da6:	7325                	lui	t1,0xfffe9
e0000da8:	0000                	unimp
e0000daa:	6120                	flw	fs0,64(a0)
e0000dac:	9865                	andi	s0,s0,-7
e0000dae:	a754                	fsd	fa3,136(a4)
e0000db0:	8e25                	xor	a2,a2,s1
e0000db2:	9725                	srai	a4,a4,0x29
e0000db4:	0000                	unimp
e0000db6:	8520                	0x8520
e0000db8:	bc64                	fsd	fs1,248(s0)
e0000dba:	3c74                	fld	fa3,248(s0)
e0000dbc:	aa64                	fsd	fs1,208(a2)
e0000dbe:	b364                	fsd	fs1,224(a4)
e0000dc0:	0000                	unimp
e0000dc2:	a160                	fsd	fs0,192(a0)
e0000dc4:	d864                	sw	s1,116(s0)
e0000dc6:	0a95                	addi	s5,s5,5
e0000dc8:	ce64                	sw	s1,92(a2)
e0000dca:	d764                	sw	s1,108(a4)
e0000dcc:	0000                	unimp
e0000dce:	c560                	sw	s0,76(a0)
e0000dd0:	fc65                	bnez	s0,e0000dc8 <FLASH_AES_SMOKETEST_SIGNED+0x838>
e0000dd2:	6dc5                	lui	s11,0x11
e0000dd4:	ea65                	bnez	a2,e0000ec4 <FLASH_AES_SMOKETEST_SIGNED+0x934>
e0000dd6:	f365                	bnez	a4,e0000db6 <FLASH_AES_SMOKETEST_SIGNED+0x826>
e0000dd8:	0000                	unimp
e0000dda:	e160                	fsw	fs0,68(a0)
e0000ddc:	0730                	addi	a2,sp,904
e0000dde:	41b9                	li	gp,14
e0000de0:	2935                	jal	e000121c <FLASH_AES_SMOKETEST_SIGNED+0xc8c>
e0000de2:	082e                	slli	a6,a6,0xb
e0000de4:	0000                	unimp
e0000de6:	2d60                	fld	fs0,216(a0)
e0000de8:	7810                	flw	fa2,48(s0)
e0000dea:	5910                	lw	a2,48(a0)
e0000dec:	11342a23          	sw	s3,276(s0)
e0000df0:	0000                	unimp
e0000df2:	0020                	addi	s0,sp,8
e0000df4:	0002                	0x2
e0000df6:	0018ce43          	fmadd.s	ft8,fa7,ft1,ft0,rmm
e0000dfa:	2f30                	fld	fa2,88(a4)
e0000dfc:	0000                	unimp
e0000dfe:	0820                	addi	s0,sp,24
e0000e00:	3136                	fld	ft2,360(sp)
e0000e02:	1380                	addi	s0,sp,480
e0000e04:	309ff72f          	0x309ff72f
e0000e08:	0000                	unimp
e0000e0a:	2930                	fld	fa2,80(a0)
e0000e0c:	5130                	lw	a2,96(a0)
e0000e0e:	0c70                	addi	a2,sp,540
e0000e10:	2b38                	fld	fa4,80(a4)
e0000e12:	062e                	slli	a2,a2,0xb
e0000e14:	0000                	unimp
e0000e16:	8030                	0x8030
e0000e18:	d500                	sw	s0,40(a0)
e0000e1a:	e1bc                	fsw	fa5,64(a1)
e0000e1c:	6552a23f 88500000 	0x885000006552a23f
e0000e24:	082c                	addi	a1,sp,24
e0000e26:	3918                	fld	fa4,48(a0)
e0000e28:	0052                	0x52
e0000e2a:	10c0                	addi	s0,sp,100
e0000e2c:	0000                	unimp
e0000e2e:	2230                	fld	fa2,64(a2)
e0000e30:	4202                	lw	tp,0(sp)
e0000e32:	41029b23          	sh	a6,1046(t0)
e0000e36:	00003733          	snez	a4,zero
e0000e3a:	2f30                	fld	fa2,88(a4)
e0000e3c:	0820                	addi	s0,sp,24
e0000e3e:	96e8                	0x96e8
e0000e40:	3634                	fld	fa3,104(a2)
e0000e42:	0731                	addi	a4,a4,12
e0000e44:	0000                	unimp
e0000e46:	3850                	fld	fa2,176(s0)
e0000e48:	e334                	fsw	fa3,64(a4)
e0000e4a:	dfff                	0xdfff
e0000e4c:	0029                	c.addi	zero,10
e0000e4e:	30d0                	fld	fa2,160(s1)
e0000e50:	0000                	unimp
e0000e52:	3830                	fld	fa2,112(s0)
e0000e54:	2890                	fld	fa2,16(s1)
e0000e56:	b380                	fsd	fs0,32(a5)
e0000e58:	4630                	lw	a2,72(a2)
e0000e5a:	06e0                	addi	s0,sp,844
e0000e5c:	0000                	unimp
e0000e5e:	0630                	addi	a2,sp,776
e0000e60:	0018                	addi	a4,sp,0
e0000e62:	9750                	0x9750
e0000e64:	2918                	fld	fa4,16(a0)
e0000e66:	0820                	addi	s0,sp,24
e0000e68:	0000                	unimp
e0000e6a:	0820                	addi	s0,sp,24
e0000e6c:	6c28                	flw	fa0,88(s0)
e0000e6e:	bffc                	fsd	fa5,248(a5)
e0000e70:	29300003          	lb	zero,659(zero) # 293 <_min_stack-0x1d6d>
e0000e74:	0000                	unimp
e0000e76:	2970                	fld	fa2,208(a0)
e0000e78:	0030                	addi	a2,sp,8
e0000e7a:	7e40                	flw	fs0,60(a2)
e0000e7c:	0028                	addi	a0,sp,8
e0000e7e:	8630                	0x8630
e0000e80:	0000                	unimp
e0000e82:	3030                	fld	fa2,96(s0)
e0000e84:	683a                	flw	fa6,140(sp)
e0000e86:	54da                	lw	s1,180(sp)
e0000e88:	0002                	0x2
e0000e8a:	0000383f 00183970 	0x1839700000383f
e0000e92:	dc70                	sw	a2,124(s0)
e0000e94:	023a                	slli	tp,tp,0xe
e0000e96:	0820                	addi	s0,sp,24
e0000e98:	0000                	unimp
e0000e9a:	0230                	addi	a2,sp,264
e0000e9c:	416c                	lw	a1,68(a0)
e0000e9e:	ae4c                	fsd	fa1,152(a2)
e0000ea0:	8810                	0x8810
e0000ea2:	0000206f          	j	e0002ea2 <FLASH_AES_SMOKETEST_SIGNED+0x2912>
e0000ea6:	1130                	addi	a2,sp,168
e0000ea8:	c26c                	sw	a1,68(a2)
e0000eaa:	56ec                	lw	a1,108(a3)
e0000eac:	81ec                	0x81ec
e0000eae:	a22c                	fsd	fa1,64(a2)
e0000eb0:	0000                	unimp
e0000eb2:	61a0                	flw	fs0,64(a1)
e0000eb4:	436d                	li	t1,27
e0000eb6:	18ad                	addi	a7,a7,-21
e0000eb8:	02ec                	addi	a1,sp,332
e0000eba:	232d                	jal	e00013e4 <FLASH_AES_SMOKETEST_SIGNED+0xe54>
e0000ebc:	0000                	unimp
e0000ebe:	e2a0                	fsw	fs0,64(a3)
e0000ec0:	c46d                	beqz	s0,e0000faa <FLASH_AES_SMOKETEST_SIGNED+0xa1a>
e0000ec2:	4a9d                	li	s5,7
e0000ec4:	83ed                	srli	a5,a5,0x1b
e0000ec6:	a42d                	j	e00010f0 <FLASH_AES_SMOKETEST_SIGNED+0xb60>
e0000ec8:	0000                	unimp
e0000eca:	63a0                	flw	fs0,64(a5)
e0000ecc:	4d6c                	lw	a1,92(a0)
e0000ece:	9c7c                	0x9c7c
e0000ed0:	0ced                	addi	s9,s9,27
e0000ed2:	2d2c                	fld	fa1,88(a0)
e0000ed4:	0000                	unimp
e0000ed6:	e4a0                	fsw	fs0,72(s1)
e0000ed8:	ce6c                	sw	a1,92(a2)
e0000eda:	538c                	lw	a1,32(a5)
e0000edc:	8dec                	0x8dec
e0000ede:	ae2c                	fsd	fa1,88(a2)
e0000ee0:	0000                	unimp
e0000ee2:	6da0                	flw	fs0,88(a1)
e0000ee4:	4f6d                	li	t5,27
e0000ee6:	1dcd                	addi	s11,s11,-13
e0000ee8:	0eec                	addi	a1,sp,860
e0000eea:	2f2d                	jal	e0001624 <FLASH_AES_SMOKETEST_SIGNED+0x1094>
e0000eec:	0000                	unimp
e0000eee:	eea0                	fsw	fs0,88(a3)
e0000ef0:	0002                	0x2
e0000ef2:	8fed46e3          	blt	s10,t5,e00007de <FLASH_AES_SMOKETEST_SIGNED+0x24e>
e0000ef6:	2f3d                	jal	e0001634 <FLASH_AES_SMOKETEST_SIGNED+0x10a4>
e0000ef8:	0000                	unimp
e0000efa:	6fa0                	flw	fs0,88(a5)
e0000efc:	f69c                	fsw	fa5,40(a3)
e0000efe:	f9dd8e43          	fmadd.s	ft8,fs11,ft9,ft11,rne
e0000f02:	00000163          	beqz	zero,e0000f04 <FLASH_AES_SMOKETEST_SIGNED+0x974>
e0000f06:	a960                	fsd	fs0,208(a0)
e0000f08:	5400                	lw	s0,40(s0)
e0000f0a:	c381                	beqz	a5,e0000f0a <FLASH_AES_SMOKETEST_SIGNED+0x97a>
e0000f0c:	7e01                	lui	t3,0xfffe0
e0000f0e:	06f1                	addi	a3,a3,28
e0000f10:	0000                	unimp
e0000f12:	0ef0                	addi	a2,sp,860
e0000f14:	416c                	lw	a1,68(a0)
e0000f16:	ae4c                	fsd	fa1,152(a2)
e0000f18:	8810                	0x8810
e0000f1a:	0000206f          	j	e0002f1a <FLASH_AES_SMOKETEST_SIGNED+0x298a>
e0000f1e:	1130                	addi	a2,sp,168
e0000f20:	c26c                	sw	a1,68(a2)
e0000f22:	56ec                	lw	a1,108(a3)
e0000f24:	81ec                	0x81ec
e0000f26:	a22c                	fsd	fa1,64(a2)
e0000f28:	0000                	unimp
e0000f2a:	61a0                	flw	fs0,64(a1)
e0000f2c:	436d                	li	t1,27
e0000f2e:	18ad                	addi	a7,a7,-21
e0000f30:	02ec                	addi	a1,sp,332
e0000f32:	232d                	jal	e000145c <FLASH_AES_SMOKETEST_SIGNED+0xecc>
e0000f34:	0000                	unimp
e0000f36:	e2a0                	fsw	fs0,64(a3)
e0000f38:	c46d                	beqz	s0,e0001022 <FLASH_AES_SMOKETEST_SIGNED+0xa92>
e0000f3a:	4a9d                	li	s5,7
e0000f3c:	83ed                	srli	a5,a5,0x1b
e0000f3e:	a42d                	j	e0001168 <FLASH_AES_SMOKETEST_SIGNED+0xbd8>
e0000f40:	0000                	unimp
e0000f42:	63a0                	flw	fs0,64(a5)
e0000f44:	4d6c                	lw	a1,92(a0)
e0000f46:	9c7c                	0x9c7c
e0000f48:	0ced                	addi	s9,s9,27
e0000f4a:	2d2c                	fld	fa1,88(a0)
e0000f4c:	0000                	unimp
e0000f4e:	e4a0                	fsw	fs0,72(s1)
e0000f50:	ce6c                	sw	a1,92(a2)
e0000f52:	538c                	lw	a1,32(a5)
e0000f54:	8dec                	0x8dec
e0000f56:	ae2c                	fsd	fa1,88(a2)
e0000f58:	0000                	unimp
e0000f5a:	6da0                	flw	fs0,88(a1)
e0000f5c:	4f6d                	li	t5,27
e0000f5e:	1dcd                	addi	s11,s11,-13
e0000f60:	0eec                	addi	a1,sp,860
e0000f62:	2f2d                	jal	e000169c <FLASH_AES_SMOKETEST_SIGNED+0x110c>
e0000f64:	0000                	unimp
e0000f66:	eea0                	fsw	fs0,88(a3)
e0000f68:	0002                	0x2
e0000f6a:	8fed46e3          	blt	s10,t5,e0000856 <FLASH_AES_SMOKETEST_SIGNED+0x2c6>
e0000f6e:	2f3d                	jal	e00016ac <FLASH_AES_SMOKETEST_SIGNED+0x111c>
e0000f70:	0000                	unimp
e0000f72:	6fa0                	flw	fs0,88(a5)
e0000f74:	956c0163          	beq	s8,s6,e00000b6 <uart_send+0x4>
e0000f78:	2f3d                	jal	e00016b6 <FLASH_AES_SMOKETEST_SIGNED+0x1126>
e0000f7a:	4102                	lw	sp,0(sp)
e0000f7c:	0000                	unimp
e0000f7e:	a960                	fsd	fs0,208(a0)
e0000f80:	06f1                	addi	a3,a3,28
e0000f82:	76e0                	flw	fs0,108(a3)
e0000f84:	92010ef3          	0x92010ef3
e0000f88:	0000                	unimp
e0000f8a:	7a10                	flw	fa2,48(a2)
e0000f8c:	8810                	0x8810
e0000f8e:	cfff                	0xcfff
e0000f90:	0011                	c.addi	zero,4
e0000f92:	1130                	addi	a2,sp,168
e0000f94:	0000                	unimp
e0000f96:	0200                	addi	s0,sp,256
e0000f98:	81ec                	0x81ec
e0000f9a:	1b2c                	addi	a1,sp,440
e0000f9c:	416c                	lw	a1,68(a0)
e0000f9e:	61ac                	flw	fa1,64(a1)
e0000fa0:	0000                	unimp
e0000fa2:	2060                	fld	fs0,192(s0)
e0000fa4:	02ec                	addi	a1,sp,332
e0000fa6:	5a9d                	li	s5,-25
e0000fa8:	c26c                	sw	a1,68(a2)
e0000faa:	e2ac                	fsw	fa1,64(a3)
e0000fac:	0000                	unimp
e0000fae:	a220                	fsd	fs0,64(a2)
e0000fb0:	83ed                	srli	a5,a5,0x1b
e0000fb2:	98ad                	andi	s1,s1,-21
e0000fb4:	436d                	li	t1,27
e0000fb6:	63ad                	lui	t2,0xb
e0000fb8:	0000                	unimp
e0000fba:	2320                	fld	fs0,64(a4)
e0000fbc:	0ced                	addi	s9,s9,27
e0000fbe:	6c7c                	flw	fa5,92(s0)
e0000fc0:	c46d                	beqz	s0,e00010aa <FLASH_AES_SMOKETEST_SIGNED+0xb1a>
e0000fc2:	e4ad                	bnez	s1,e000102c <FLASH_AES_SMOKETEST_SIGNED+0xa9c>
e0000fc4:	0000                	unimp
e0000fc6:	a420                	fsd	fs0,72(s0)
e0000fc8:	8dec                	0x8dec
e0000fca:	11bc                	addi	a5,sp,232
e0000fcc:	4d6c                	lw	a1,92(a0)
e0000fce:	6dac                	flw	fa1,88(a1)
e0000fd0:	0000                	unimp
e0000fd2:	2d20                	fld	fs0,88(a0)
e0000fd4:	0eec                	addi	a1,sp,860
e0000fd6:	5ffd                	li	t6,-1
e0000fd8:	ce6c                	sw	a1,92(a2)
e0000fda:	eeac                	fsw	fa1,88(a3)
e0000fdc:	0000                	unimp
e0000fde:	ae20                	fsd	fs0,88(a2)
e0000fe0:	8fed                	and	a5,a5,a1
e0000fe2:	9dcd                	0x9dcd
e0000fe4:	4f6d                	li	t5,27
e0000fe6:	6fad                	lui	t6,0xb
e0000fe8:	0000                	unimp
e0000fea:	2f20                	fld	fs0,88(a4)
e0000fec:	2f3d                	jal	e000172a <FLASH_AES_SMOKETEST_SIGNED+0x119a>
e0000fee:	6912                	flw	fs2,4(sp)
e0000ff0:	0002                	0x2
e0000ff2:	0000a963          	p.beqimm	ra,0,e0001004 <FLASH_AES_SMOKETEST_SIGNED+0xa74>
e0000ff6:	2f30                	fld	fa2,88(a4)
e0000ff8:	21b10ef3          	0x21b10ef3
e0000ffc:	dd5c0163          	beq	s8,s5,e00005be <FLASH_AES_SMOKETEST_SIGNED+0x2e>
e0001000:	0000                	unimp
e0001002:	4100                	lw	s0,0(a0)
e0001004:	0010                	addi	a2,sp,0
e0001006:	4c70                	lw	a2,92(s0)
e0001008:	06f1                	addi	a3,a3,28
e000100a:	ae00                	fsd	fs0,24(a2)
e000100c:	0000                	unimp
e000100e:	5200                	lw	s0,32(a2)
e0001010:	416c                	lw	a1,68(a0)
e0001012:	ae4c                	fsd	fa1,152(a2)
e0001014:	8810                	0x8810
e0001016:	0000206f          	j	e0003016 <FLASH_AES_SMOKETEST_SIGNED+0x2a86>
e000101a:	1130                	addi	a2,sp,168
e000101c:	c26c                	sw	a1,68(a2)
e000101e:	56ec                	lw	a1,108(a3)
e0001020:	81ec                	0x81ec
e0001022:	a22c                	fsd	fa1,64(a2)
e0001024:	0000                	unimp
e0001026:	61a0                	flw	fs0,64(a1)
e0001028:	436d                	li	t1,27
e000102a:	18ad                	addi	a7,a7,-21
e000102c:	02ec                	addi	a1,sp,332
e000102e:	232d                	jal	e0001558 <FLASH_AES_SMOKETEST_SIGNED+0xfc8>
e0001030:	0000                	unimp
e0001032:	e2a0                	fsw	fs0,64(a3)
e0001034:	c46d                	beqz	s0,e000111e <FLASH_AES_SMOKETEST_SIGNED+0xb8e>
e0001036:	4a9d                	li	s5,7
e0001038:	83ed                	srli	a5,a5,0x1b
e000103a:	a42d                	j	e0001264 <FLASH_AES_SMOKETEST_SIGNED+0xcd4>
e000103c:	0000                	unimp
e000103e:	63a0                	flw	fs0,64(a5)
e0001040:	4d6c                	lw	a1,92(a0)
e0001042:	9c7c                	0x9c7c
e0001044:	0ced                	addi	s9,s9,27
e0001046:	2d2c                	fld	fa1,88(a0)
e0001048:	0000                	unimp
e000104a:	e4a0                	fsw	fs0,72(s1)
e000104c:	ce6c                	sw	a1,92(a2)
e000104e:	538c                	lw	a1,32(a5)
e0001050:	8dec                	0x8dec
e0001052:	ae2c                	fsd	fa1,88(a2)
e0001054:	0000                	unimp
e0001056:	6da0                	flw	fs0,88(a1)
e0001058:	4f6d                	li	t5,27
e000105a:	1dcd                	addi	s11,s11,-13
e000105c:	0eec                	addi	a1,sp,860
e000105e:	2f2d                	jal	e0001798 <FLASH_AES_SMOKETEST_SIGNED+0x1208>
e0001060:	0000                	unimp
e0001062:	eea0                	fsw	fs0,88(a3)
e0001064:	0002                	0x2
e0001066:	8fed46e3          	blt	s10,t5,e0000952 <FLASH_AES_SMOKETEST_SIGNED+0x3c2>
e000106a:	2f3d                	jal	e00017a8 <FLASH_AES_SMOKETEST_SIGNED+0x1218>
e000106c:	0000                	unimp
e000106e:	6fa0                	flw	fs0,88(a5)
e0001070:	956c0163          	beq	s8,s6,e00001b2 <qprinti.constprop.1+0x12>
e0001074:	2f3d                	jal	e00017b2 <FLASH_AES_SMOKETEST_SIGNED+0x1222>
e0001076:	4102                	lw	sp,0(sp)
e0001078:	0000                	unimp
e000107a:	a960                	fsd	fs0,208(a0)
e000107c:	06f1                	addi	a3,a3,28
e000107e:	ee40                	fsw	fs0,28(a2)
e0001080:	16010ef3          	0x16010ef3
e0001084:	0000                	unimp
e0001086:	5450                	lw	a2,44(s0)
e0001088:	8810                	0x8810
e000108a:	0010d23f 00001130 	0x11300010d23f
e0001092:	5a00                	lw	s0,48(a2)
e0001094:	81ec                	0x81ec
e0001096:	1b2c                	addi	a1,sp,440
e0001098:	416c                	lw	a1,68(a0)
e000109a:	61ac                	flw	fa1,64(a1)
e000109c:	0000                	unimp
e000109e:	2060                	fld	fs0,192(s0)
e00010a0:	02ec                	addi	a1,sp,332
e00010a2:	5a9d                	li	s5,-25
e00010a4:	c26c                	sw	a1,68(a2)
e00010a6:	e2ac                	fsw	fa1,64(a3)
e00010a8:	0000                	unimp
e00010aa:	a220                	fsd	fs0,64(a2)
e00010ac:	83ed                	srli	a5,a5,0x1b
e00010ae:	98ad                	andi	s1,s1,-21
e00010b0:	436d                	li	t1,27
e00010b2:	63ad                	lui	t2,0xb
e00010b4:	0000                	unimp
e00010b6:	2320                	fld	fs0,64(a4)
e00010b8:	0ced                	addi	s9,s9,27
e00010ba:	6c7c                	flw	fa5,92(s0)
e00010bc:	c46d                	beqz	s0,e00011a6 <FLASH_AES_SMOKETEST_SIGNED+0xc16>
e00010be:	e4ad                	bnez	s1,e0001128 <FLASH_AES_SMOKETEST_SIGNED+0xb98>
e00010c0:	0000                	unimp
e00010c2:	a420                	fsd	fs0,72(s0)
e00010c4:	8dec                	0x8dec
e00010c6:	11bc                	addi	a5,sp,232
e00010c8:	4d6c                	lw	a1,92(a0)
e00010ca:	6dac                	flw	fa1,88(a1)
e00010cc:	0000                	unimp
e00010ce:	2d20                	fld	fs0,88(a0)
e00010d0:	0eec                	addi	a1,sp,860
e00010d2:	5ffd                	li	t6,-1
e00010d4:	ce6c                	sw	a1,92(a2)
e00010d6:	eeac                	fsw	fa1,88(a3)
e00010d8:	0000                	unimp
e00010da:	ae20                	fsd	fs0,88(a2)
e00010dc:	8fed                	and	a5,a5,a1
e00010de:	9dcd                	0x9dcd
e00010e0:	4f6d                	li	t5,27
e00010e2:	6fad                	lui	t6,0xb
e00010e4:	0000                	unimp
e00010e6:	2f20                	fld	fs0,88(a4)
e00010e8:	2f3d                	jal	e0001826 <FLASH_AES_SMOKETEST_SIGNED+0x1296>
e00010ea:	6912                	flw	fs2,4(sp)
e00010ec:	0002                	0x2
e00010ee:	0000a963          	p.beqimm	ra,0,e0001100 <FLASH_AES_SMOKETEST_SIGNED+0xb70>
e00010f2:	2f30                	fld	fa2,88(a4)
e00010f4:	39110ef3          	0x39110ef3
e00010f8:	5b1c0163          	beq	s8,a7,e000169a <FLASH_AES_SMOKETEST_SIGNED+0x110a>
e00010fc:	0000                	unimp
e00010fe:	4100                	lw	s0,0(a0)
e0001100:	0010                	addi	a2,sp,0
e0001102:	b560                	fsd	fs0,232(a0)
e0001104:	06f1                	addi	a3,a3,28
e0001106:	0600                	addi	s0,sp,768
e0001108:	0000                	unimp
e000110a:	a200                	fsd	fs0,0(a2)
e000110c:	ac28                	fsd	fa0,88(s0)
e000110e:	74da                	flw	fs1,180(sp)
e0001110:	29300003          	lb	zero,659(zero) # 293 <_min_stack-0x1d6d>
e0001114:	0000                	unimp
e0001116:	2970                	fld	fa2,208(a0)
e0001118:	0030                	addi	a2,sp,8
e000111a:	7e40                	flw	fs0,60(a2)
e000111c:	0028                	addi	a0,sp,8
e000111e:	8630                	0x8630
e0001120:	0000                	unimp
e0001122:	3030                	fld	fa2,96(s0)
e0001124:	a83a                	fsd	fa4,16(sp)
e0001126:	da98                	sw	a4,48(a3)
e0001128:	0002                	0x2
e000112a:	0000383f 07343970 	0x73439700000383f
e0001132:	3a99                	jal	e0000a88 <FLASH_AES_SMOKETEST_SIGNED+0x4f8>
e0001134:	003a                	0x3a
e0001136:	2820                	fld	fs0,80(s0)
e0001138:	0000                	unimp
e000113a:	1030                	addi	a2,sp,40
e000113c:	0029                	c.addi	zero,10
e000113e:	2d631563          	bne	t1,s6,e0001408 <FLASH_AES_SMOKETEST_SIGNED+0xe78>
e0001142:	0735                	addi	a4,a4,13
e0001144:	0000                	unimp
e0001146:	4120                	lw	s0,64(a0)
e0001148:	3c24                	fld	fs1,120(s0)
e000114a:	ba94                	fsd	fa3,48(a3)
e000114c:	2a24                	fld	fs1,80(a2)
e000114e:	3324                	fld	fs1,96(a4)
e0001150:	0000                	unimp
e0001152:	0920                	addi	s0,sp,152
e0001154:	5824                	lw	s1,112(s0)
e0001156:	4755                	li	a4,21
e0001158:	4e24                	lw	s1,88(a2)
e000115a:	5724                	lw	s1,104(a4)
e000115c:	0000                	unimp
e000115e:	4520                	lw	s0,72(a0)
e0001160:	7c25                	lui	s8,0xfffe9
e0001162:	2005                	jal	e0001182 <FLASH_AES_SMOKETEST_SIGNED+0xbf2>
e0001164:	6a25                	lui	s4,0x9
e0001166:	7325                	lui	t1,0xfffe9
e0001168:	0000                	unimp
e000116a:	6120                	flw	fs0,64(a0)
e000116c:	9865                	andi	s0,s0,-7
e000116e:	a754                	fsd	fa3,136(a4)
e0001170:	8e25                	xor	a2,a2,s1
e0001172:	9725                	srai	a4,a4,0x29
e0001174:	0000                	unimp
e0001176:	8520                	0x8520
e0001178:	bc64                	fsd	fs1,248(s0)
e000117a:	3c74                	fld	fa3,248(s0)
e000117c:	aa64                	fsd	fs1,208(a2)
e000117e:	b364                	fsd	fs1,224(a4)
e0001180:	0000                	unimp
e0001182:	a160                	fsd	fs0,192(a0)
e0001184:	d864                	sw	s1,116(s0)
e0001186:	0a95                	addi	s5,s5,5
e0001188:	ce64                	sw	s1,92(a2)
e000118a:	d764                	sw	s1,108(a4)
e000118c:	0000                	unimp
e000118e:	c560                	sw	s0,76(a0)
e0001190:	fc65                	bnez	s0,e0001188 <FLASH_AES_SMOKETEST_SIGNED+0xbf8>
e0001192:	6dc5                	lui	s11,0x11
e0001194:	ea65                	bnez	a2,e0001284 <FLASH_AES_SMOKETEST_SIGNED+0xcf4>
e0001196:	f365                	bnez	a4,e0001176 <FLASH_AES_SMOKETEST_SIGNED+0xbe6>
e0001198:	0000                	unimp
e000119a:	e160                	fsw	fs0,68(a0)
e000119c:	0200                	addi	s0,sp,256
e000119e:	7810f913          	andi	s2,ra,1921
e00011a2:	0730                	addi	a2,sp,904
e00011a4:	0000                	unimp
e00011a6:	1130                	addi	a2,sp,168
e00011a8:	4231                	li	tp,12
e00011aa:	1002                	0x1002
e00011ac:	01126237          	lui	tp,0x1126
e00011b0:	0000                	unimp
e00011b2:	16d0                	addi	a2,sp,868
e00011b4:	0231                	addi	tp,tp,12
e00011b6:	91b2                	add	gp,gp,a2
e00011b8:	2231                	jal	e00012c4 <FLASH_AES_SMOKETEST_SIGNED+0xd34>
e00011ba:	0912                	slli	s2,s2,0x4
e00011bc:	0000                	unimp
e00011be:	0810                	addi	a2,sp,16
e00011c0:	bd6d                	j	e000107a <FLASH_AES_SMOKETEST_SIGNED+0xaea>
e00011c2:	36ed                	jal	e0000dac <FLASH_AES_SMOKETEST_SIGNED+0x81c>
e00011c4:	fce1                	bnez	s1,e000119c <FLASH_AES_SMOKETEST_SIGNED+0xc0c>
e00011c6:	dd2d                	beqz	a0,e0001140 <FLASH_AES_SMOKETEST_SIGNED+0xbb0>
e00011c8:	0000                	unimp
e00011ca:	1210                	addi	a2,sp,288
e00011cc:	3e6d                	jal	e0000d86 <FLASH_AES_SMOKETEST_SIGNED+0x7f6>
e00011ce:	eb2d                	bnez	a4,e0001240 <FLASH_AES_SMOKETEST_SIGNED+0xcb0>
e00011d0:	7ded                	lui	s11,0xffffb
e00011d2:	5e2d                	li	t3,-21
e00011d4:	0000                	unimp
e00011d6:	9da0                	0x9da0
e00011d8:	1100                	addi	s0,sp,160
e00011da:	a56c                	fsd	fa1,200(a0)
e00011dc:	feed                	bnez	a3,e00011d6 <FLASH_AES_SMOKETEST_SIGNED+0xc46>
e00011de:	537c                	lw	a5,100(a4)
e00011e0:	0000                	unimp
e00011e2:	1ea0                	addi	s0,sp,888
e00011e4:	4970                	lw	a2,84(a0)
e00011e6:	c914                	sw	a3,16(a0)
e00011e8:	0ef1                	addi	t4,t4,28
e00011ea:	c700                	sw	s0,8(a4)
e00011ec:	0000                	unimp
e00011ee:	92c0                	0x92c0
e00011f0:	d15a                	sw	s6,160(sp)
e00011f2:	f6ec                	fsw	fa1,108(a3)
e00011f4:	4930                	lw	a2,80(a0)
e00011f6:	4e48                	lw	a0,28(a2)
e00011f8:	0000                	unimp
e00011fa:	0000                	unimp
e00011fc:	517c                	lw	a5,100(a0)
e00011fe:	191f 0888 9114      	0x91140888191f
e0001204:	0000                	unimp
e0001206:	42a0                	lw	s0,64(a3)
e0001208:	80045857          	pv.dotup.sc.b	a6,s0,zero
e000120c:	5131                	li	sp,-20
e000120e:	b250                	fsd	fa2,160(a2)
e0001210:	0000                	unimp
e0001212:	0000                	unimp
e0001214:	1e4a8293          	addi	t0,s5,484
e0001218:	0ef8                	addi	a4,sp,860
e000121a:	6001                	0x6001
e000121c:	0000                	unimp
e000121e:	6220                	flw	fs0,64(a2)
e0001220:	fc58                	fsw	fa4,60(s0)
e0001222:	d759                	beqz	a4,e00011b0 <FLASH_AES_SMOKETEST_SIGNED+0xc20>
e0001224:	59300003          	lb	zero,1427(zero) # 593 <_min_stack-0x1a6d>
e0001228:	0000                	unimp
e000122a:	5970                	lw	a2,116(a0)
e000122c:	2501                	jal	e000182c <FLASH_AES_SMOKETEST_SIGNED+0x129c>
e000122e:	88a4                	0x88a4
e0001230:	6510                	flw	fa2,8(a0)
e0001232:	0ef4                	addi	a3,sp,860
e0001234:	0000                	unimp
e0001236:	8a80                	0x8a80
e0001238:	a401                	j	e0001438 <FLASH_AES_SMOKETEST_SIGNED+0xea8>
e000123a:	3b22                	fld	fs6,40(sp)
e000123c:	5a20                	lw	s0,112(a2)
e000123e:	0ef8                	addi	a4,sp,860
e0001240:	0000                	unimp
e0001242:	8a80                	0x8a80
e0001244:	0efa                	slli	t4,t4,0x1e
e0001246:	7001                	0x7001
e0001248:	5136                	lw	sp,108(sp)
e000124a:	ad50                	fsd	fa2,152(a0)
e000124c:	0000                	unimp
e000124e:	5310                	lw	a2,32(a4)
e0001250:	8b00                	0x8b00
e0001252:	06e0                	addi	s0,sp,844
e0001254:	9281                	srli	a3,a3,0x20
e0001256:	0ef1                	addi	t4,t4,28
e0001258:	0000                	unimp
e000125a:	d400                	sw	s0,40(s0)
e000125c:	9114                	0x9114
e000125e:	4dcc                	lw	a1,28(a1)
e0001260:	42ac                	lw	a1,64(a3)
e0001262:	0888                	addi	a0,sp,80
e0001264:	0000                	unimp
e0001266:	d150                	sw	a2,36(a0)
e0001268:	8450                	0x8450
e000126a:	000fa757          	pv.add.h.div2	a4,t6,zero
e000126e:	5131                	li	sp,-20
e0001270:	0000                	unimp
e0001272:	5170                	lw	a2,100(a0)
e0001274:	1e01                	addi	t3,t3,-32
e0001276:	622498a3          	sh	sp,1585(s1)
e000127a:	0ef8                	addi	a4,sp,860
e000127c:	0000                	unimp
e000127e:	5850                	lw	a2,52(s0)
e0001280:	5930                	lw	a2,112(a0)
e0001282:	0ff8                	addi	a4,sp,988
e0001284:	597a                	lw	s2,188(sp)
e0001286:	00000003          	lb	zero,0(zero) # 0 <_min_stack-0x2000>
e000128a:	8290                	0x8290
e000128c:	0ef4                	addi	a3,sp,860
e000128e:	06e1                	addi	a3,a3,24
e0001290:	8a89                	andi	a3,a3,2
e0001292:	6510                	flw	fa2,8(a0)
e0001294:	0000                	unimp
e0001296:	ce50                	sw	a2,28(a2)
e0001298:	0ef8                	addi	a4,sp,860
e000129a:	58a1                	li	a7,-24
e000129c:	5a208a83          	lb	s5,1442(ra)
e00012a0:	0000                	unimp
e00012a2:	e300                	fsw	fs0,0(a4)
e00012a4:	ad50                	fsd	fa2,152(a0)
e00012a6:	74da                	flw	fs1,180(sp)
e00012a8:	5312                	lw	t1,36(sp)
e00012aa:	5136                	lw	sp,108(sp)
e00012ac:	0000                	unimp
e00012ae:	6200                	flw	fs0,0(a2)
e00012b0:	5974                	lw	a3,116(a0)
e00012b2:	9201dff3          	csrrwi	t6,0x920,3
e00012b6:	5011                	0x5011
e00012b8:	0000                	unimp
e00012ba:	0ef0                	addi	a2,sp,860
e00012bc:	6179                	addi	sp,sp,464
e00012be:	59301a93          	0x59301a93
e00012c2:	be58                	fsd	fa4,184(a2)
e00012c4:	0000                	unimp
e00012c6:	0000                	unimp
e00012c8:	9349                	srli	a4,a4,0x32
e00012ca:	06e0                	addi	s0,sp,844
e00012cc:	6130                	flw	fa2,64(a0)
e00012ce:	d660                	sw	s0,108(a2)
e00012d0:	0000                	unimp
e00012d2:	0000                	unimp
e00012d4:	0b50                	addi	a2,sp,404
e00012d6:	2230                	fld	fa2,64(a2)
e00012d8:	2000                	fld	fs0,0(s0)
e00012da:	7b30                	flw	fa2,112(a4)
e00012dc:	0000                	unimp
e00012de:	7130                	flw	fa2,96(a0)
e00012e0:	0c50                	addi	a2,sp,532
e00012e2:	f6e0                	fsw	fs0,108(a3)
e00012e4:	0078                	addi	a4,sp,12
e00012e6:	4330                	lw	a2,64(a4)
e00012e8:	0000                	unimp
e00012ea:	7830                	flw	fa2,112(s0)
e00012ec:	4338                	lw	a4,64(a4)
e00012ee:	1238                	addi	a4,sp,296
e00012f0:	0040                	addi	s0,sp,4
e00012f2:	fa10                	fsw	fa2,48(a2)
e00012f4:	0000                	unimp
e00012f6:	4030                	lw	a2,64(s0)
e00012f8:	0f40                	addi	s0,sp,916
e00012fa:	28a0                	fld	fs0,80(s1)
e00012fc:	5050                	lw	a2,36(s0)
e00012fe:	0230                	addi	a2,sp,264
e0001300:	0000                	unimp
e0001302:	0a60                	addi	s0,sp,284
e0001304:	92c0                	0x92c0
e0001306:	0b20                	addi	s0,sp,408
e0001308:	ee51                	bnez	a2,e00013a4 <FLASH_AES_SMOKETEST_SIGNED+0xe14>
e000130a:	00008a8f          	0x8a8f
e000130e:	2e30                	fld	fa2,88(a2)
e0001310:	8d01                	sub	a0,a0,s0
e0001312:	200031b3          	0x200031b3
e0001316:	0ef0                	addi	a2,sp,860
e0001318:	0000                	unimp
e000131a:	6130                	flw	fa2,64(a0)
e000131c:	5930                	lw	a2,112(a0)
e000131e:	de48                	sw	a0,60(a2)
e0001320:	5971                	li	s2,-4
e0001322:	00000003          	lb	zero,0(zero) # 0 <_min_stack-0x2000>
e0001326:	8a80                	0x8a80
e0001328:	0ef0                	addi	a2,sp,860
e000132a:	78a1                	lui	a7,0xfffe8
e000132c:	6139                	addi	sp,sp,448
e000132e:	2000                	fld	fs0,0(s0)
e0001330:	0000                	unimp
e0001332:	9a50                	0x9a50
e0001334:	5930                	lw	a2,112(a0)
e0001336:	5e48                	lw	a0,60(a2)
e0001338:	00035973          	csrrwi	s2,0x0,6
e000133c:	0000                	unimp
e000133e:	7b00                	flw	fs0,48(a4)
e0001340:	0ef4                	addi	a3,sp,860
e0001342:	d561                	beqz	a0,e000130a <FLASH_AES_SMOKETEST_SIGNED+0xd7a>
e0001344:	8289                	srli	a3,a3,0x2
e0001346:	6711                	lui	a4,0x4
e0001348:	0000                	unimp
e000134a:	aa50                	fsd	fa2,144(a2)
e000134c:	8b01                	andi	a4,a4,0
e000134e:	4560                	lw	s0,76(a0)
e0001350:	82c19283          	lh	t0,-2004(gp) # 4060c82c <tohost+0x405ec824>
e0001354:	0000                	unimp
e0001356:	6b00                	flw	fs0,16(a4)
e0001358:	9030                	0x9030
e000135a:	775a                	flw	fa4,180(sp)
e000135c:	0ef4                	addi	a3,sp,860
e000135e:	1100                	addi	s0,sp,160
e0001360:	0000                	unimp
e0001362:	6810                	flw	fa2,16(s0)
e0001364:	b638                	fsd	fa4,104(a2)
e0001366:	1560                	addi	s0,sp,684
e0001368:	d150                	sw	a2,36(a0)
e000136a:	42ac                	lw	a1,64(a3)
e000136c:	0000                	unimp
e000136e:	0040                	addi	s0,sp,4
e0001370:	5131                	li	sp,-20
e0001372:	c560                	sw	s0,76(a0)
e0001374:	5170                	lw	a2,100(a0)
e0001376:	0000000f          	fence	unknown,unknown
e000137a:	0090                	addi	a2,sp,64
e000137c:	0ef8                	addi	a4,sp,860
e000137e:	16e1                	addi	a3,a3,-8
e0001380:	5856                	lw	a6,116(sp)
e0001382:	6224                	flw	fs1,64(a2)
e0001384:	0000                	unimp
e0001386:	e650                	fsw	fa2,12(a2)
e0001388:	51b00003          	lb	zero,1307(zero) # 51b <_min_stack-0x1ae5>
e000138c:	8292                	mv	t0,tp
e000138e:	597a                	lw	s2,188(sp)
e0001390:	0000                	unimp
e0001392:	6c00                	flw	fs0,24(s0)
e0001394:	6510                	flw	fa2,8(a0)
e0001396:	6234                	flw	fa3,64(a2)
e0001398:	8c58                	0x8c58
e000139a:	1889                	addi	a7,a7,-30
e000139c:	0000                	unimp
e000139e:	5930                	lw	a2,112(a0)
e00013a0:	5a20                	lw	s0,112(a2)
e00013a2:	aff8                	fsd	fa4,216(a5)
e00013a4:	3101                	jal	e0000fa4 <FLASH_AES_SMOKETEST_SIGNED+0xa14>
e00013a6:	00001883          	lh	a7,0(zero) # 0 <_min_stack-0x2000>
e00013aa:	0ef0                	addi	a2,sp,860
e00013ac:	5136                	lw	sp,108(sp)
e00013ae:	26e0                	fld	fs0,200(a3)
e00013b0:	b001                	j	e0000bb0 <FLASH_AES_SMOKETEST_SIGNED+0x620>
e00013b2:	5311                	li	t1,-28
e00013b4:	0000                	unimp
e00013b6:	0ef0                	addi	a2,sp,860
e00013b8:	5970                	lw	a2,116(a0)
e00013ba:	0efa9c73          	csrrw	s8,0xef,s5
e00013be:	e001                	bnez	s0,e00013be <FLASH_AES_SMOKETEST_SIGNED+0xe2e>
e00013c0:	0000                	unimp
e00013c2:	ad50                	fsd	fa2,152(a0)
e00013c4:	0289                	addi	t0,t0,2
e00013c6:	1c71                	addi	s8,s8,-4
e00013c8:	5930                	lw	a2,112(a0)
e00013ca:	7e58                	flw	fa4,60(a2)
e00013cc:	0000                	unimp
e00013ce:	0000                	unimp
e00013d0:	0d01                	addi	s10,s10,0
e00013d2:	62e4ce43          	fmadd.d	ft8,fs1,fa4,fa2,rmm
e00013d6:	0efc                	addi	a5,sp,860
e00013d8:	0000                	unimp
e00013da:	6410                	flw	fa2,8(s0)
e00013dc:	e850                	fsw	fa2,20(s0)
e00013de:	db28                	sw	a0,112(a4)
e00013e0:	0004                	addi	s1,sp,0
e00013e2:	5130                	lw	a2,96(a0)
e00013e4:	0000                	unimp
e00013e6:	5170                	lw	a2,100(a0)
e00013e8:	00f4                	addi	a3,sp,76
e00013ea:	e380                	fsw	fs0,0(a5)
e00013ec:	1084                	addi	s1,sp,96
e00013ee:	6374                	flw	fa3,68(a4)
e00013f0:	0000                	unimp
e00013f2:	14c0                	addi	s0,sp,612
e00013f4:	3558                	fld	fa4,168(a0)
e00013f6:	26e0                	fld	fs0,200(a3)
e00013f8:	4060                	lw	s0,68(s0)
e00013fa:	5b32                	lw	s6,44(sp)
e00013fc:	0000                	unimp
e00013fe:	a930                	fsd	fa2,80(a0)
e0001400:	5339                	li	t1,-18
e0001402:	e230                	fsw	fa2,64(a2)
e0001404:	5b203553          	0x5b203553
e0001408:	0000                	unimp
e000140a:	6330                	flw	fa2,64(a4)
e000140c:	656c                	flw	fa1,76(a0)
e000140e:	f758                	fsw	fa4,44(a4)
e0001410:	82a0                	0x82a0
e0001412:	a2ec                	fsd	fa1,192(a3)
e0001414:	0000                	unimp
e0001416:	3550                	fld	fa2,168(a0)
e0001418:	2d01                	jal	e0001a28 <FLASH_AES_SMOKETEST_SIGNED+0x1498>
e000141a:	a752                	fsd	fs4,392(sp)
e000141c:	7014                	flw	fa3,32(s0)
e000141e:	0ef4                	addi	a3,sp,860
e0001420:	0000                	unimp
e0001422:	6810                	flw	fa2,16(s0)
e0001424:	8002                	0x8002
e0001426:	4ae856eb          	0x4ae856eb
e000142a:	5738                	lw	a4,104(a4)
e000142c:	0000                	unimp
e000142e:	baa0                	fsd	fs0,112(a3)
e0001430:	8002                	0x8002
e0001432:	0002ec7b          	0x2ec7b
e0001436:	0000673b          	0x673b
e000143a:	5f30                	lw	a2,120(a4)
e000143c:	85600193          	li	gp,-1962
e0001440:	ec51                	bnez	s0,e00014dc <FLASH_AES_SMOKETEST_SIGNED+0xf4c>
e0001442:	0000a13f 0b03ae30 	0xb03ae300000a13f
e000144a:	a560                	fsd	fs0,200(a0)
e000144c:	0b00                	addi	s0,sp,400
e000144e:	5b34                	lw	a3,112(a4)
e0001450:	0000                	unimp
e0001452:	9330                	0x9330
e0001454:	b174                	fsd	fa3,224(a0)
e0001456:	9b39adc3          	fmadd.d	fs11,fs3,fs3,fs3,rdn
e000145a:	0a00                	addi	s0,sp,272
e000145c:	0000                	unimp
e000145e:	52e0                	lw	s0,100(a3)
e0001460:	5319                	li	t1,-26
e0001462:	ca96                	sw	t0,84(sp)
e0001464:	b130                	fsd	fa2,96(a0)
e0001466:	56b0                	lw	a2,104(a3)
e0001468:	0000                	unimp
e000146a:	0000                	unimp
e000146c:	be41000f          	0xbe41000f
e0001470:	ad50                	fsd	fa2,152(a0)
e0001472:	c17a                	sw	t5,128(sp)
e0001474:	0000                	unimp
e0001476:	d930                	sw	a2,112(a0)
e0001478:	0a900003          	lb	zero,169(zero) # a9 <_min_stack-0x1f57>
e000147c:	50c0                	lw	s0,36(s1)
e000147e:	c976                	sw	t4,144(sp)
e0001480:	0000                	unimp
e0001482:	c130                	sw	a2,64(a0)
e0001484:	d561000f          	0xd561000f
e0001488:	acc8                	fsd	fa0,152(s1)
e000148a:	d17a                	sw	t5,160(sp)
e000148c:	0000                	unimp
e000148e:	c930                	sw	a2,80(a0)
e0001490:	5911                	li	s2,-28
e0001492:	fc74                	fsw	fa3,124(s0)
e0001494:	6cd0                	flw	fa2,28(s1)
e0001496:	00009287          	0x9287
e000149a:	d130                	sw	a2,96(a0)
e000149c:	5151                	li	sp,-12
e000149e:	da9c                	sw	a5,48(a3)
e00014a0:	0ef0                	addi	a2,sp,860
e00014a2:	1f00                	addi	s0,sp,944
e00014a4:	0000                	unimp
e00014a6:	8300                	0x8300
e00014a8:	5850                	lw	a2,52(s0)
e00014aa:	9dc4                	0x9dc4
e00014ac:	8638                	0x8638
e00014ae:	00a1                	addi	ra,ra,8
e00014b0:	0000                	unimp
e00014b2:	42a0                	lw	s0,64(a3)
e00014b4:	9e01                	0x9e01
e00014b6:	dc71                	beqz	s0,e0001492 <FLASH_AES_SMOKETEST_SIGNED+0xf02>
e00014b8:	6228                	flw	fa0,64(a2)
e00014ba:	0ef8                	addi	a4,sp,860
e00014bc:	0000                	unimp
e00014be:	56a0                	lw	s0,104(a3)
e00014c0:	5e64                	lw	s1,124(a2)
e00014c2:	9568                	0x9568
e00014c4:	188a                	slli	a7,a7,0x22
e00014c6:	6510                	flw	fa2,8(a0)
e00014c8:	0000                	unimp
e00014ca:	8110                	0x8110
e00014cc:	5a20                	lw	s0,112(a2)
e00014ce:	e6e8                	fsw	fa0,76(a3)
e00014d0:	6901                	lui	s2,0x0
e00014d2:	1882                	slli	a7,a7,0x20
e00014d4:	0000                	unimp
e00014d6:	0ef0                	addi	a2,sp,860
e00014d8:	0ef8                	addi	a4,sp,860
e00014da:	edc1                	bnez	a1,e0001572 <FLASH_AES_SMOKETEST_SIGNED+0xfe2>
e00014dc:	e801                	bnez	s0,e00014ec <FLASH_AES_SMOKETEST_SIGNED+0xf5c>
e00014de:	56e0                	lw	s0,108(a3)
e00014e0:	0000                	unimp
e00014e2:	0ef0                	addi	a2,sp,860
e00014e4:	d390                	sw	a2,32(a5)
e00014e6:	0c7e                	slli	s8,s8,0x1f
e00014e8:	5030                	lw	a2,96(s0)
e00014ea:	1814                	addi	a3,sp,48
e00014ec:	0000                	unimp
e00014ee:	1c00                	addi	s0,sp,560
e00014f0:	0002                	0x2
e00014f2:	80025a9b          	0x80025a9b
e00014f6:	0000573b          	0x573b
e00014fa:	5f30                	lw	a2,120(a4)
e00014fc:	ec59                	bnez	s0,e000159a <FLASH_AES_SMOKETEST_SIGNED+0x100a>
e00014fe:	775f 8002 ae3b      	0xae3b8002775f
e0001504:	0000                	unimp
e0001506:	6730                	flw	fa2,72(a4)
e0001508:	64e0                	flw	fs0,76(s1)
e000150a:	f6e9                	bnez	a3,e00014d4 <FLASH_AES_SMOKETEST_SIGNED+0xf44>
e000150c:	6339                	lui	t1,0xe
e000150e:	00001253          	fadd.s	ft4,ft0,ft0,rtz
e0001512:	54a0                	lw	s0,104(s1)
e0001514:	5330                	lw	a2,96(a4)
e0001516:	5639e38b          	0x5639e38b
e000151a:	0958                	addi	a4,sp,148
e000151c:	0000                	unimp
e000151e:	5b20                	lw	s0,112(a4)
e0001520:	c6e00abb          	0xc6e00abb
e0001524:	0190                	addi	a2,sp,192
e0001526:	533a                	lw	t1,172(sp)
e0001528:	0000                	unimp
e000152a:	0b40                	addi	s0,sp,404
e000152c:	1a91963f d4100154 	0xd41001541a91963f
e0001534:	0000                	unimp
e0001536:	5130                	lw	a2,96(a0)
e0001538:	6568                	flw	fa0,76(a0)
e000153a:	0388                	addi	a0,sp,448
e000153c:	5890                	lw	a2,48(s1)
e000153e:	5624                	lw	s1,104(a2)
e0001540:	0000                	unimp
e0001542:	00a0                	addi	s0,sp,72
e0001544:	8191                	srli	a1,a1,0x4
e0001546:	1b2a                	slli	s6,s6,0x2a
e0001548:	0ef8                	addi	a4,sp,860
e000154a:	4001                	0x4001
e000154c:	0000                	unimp
e000154e:	6de0                	flw	fs0,92(a1)
e0001550:	0ef8                	addi	a4,sp,860
e0001552:	3381                	jal	e0001292 <FLASH_AES_SMOKETEST_SIGNED+0xd02>
e0001554:	6510                	flw	fa2,8(a0)
e0001556:	5da4                	lw	s1,120(a1)
e0001558:	0000                	unimp
e000155a:	1880                	addi	s0,sp,112
e000155c:	65e8                	flw	fa0,76(a1)
e000155e:	36e8                	fld	fa0,232(a3)
e0001560:	1882                	slli	a7,a7,0x20
e0001562:	5d60                	lw	s0,124(a0)
e0001564:	0000                	unimp
e0001566:	0b00                	addi	s0,sp,400
e0001568:	0ef8                	addi	a4,sp,860
e000156a:	1560                	addi	s0,sp,684
e000156c:	8801                	andi	s0,s0,0
e000156e:	56e0                	lw	s0,108(a3)
e0001570:	0000                	unimp
e0001572:	0ef0                	addi	a2,sp,860
e0001574:	5c25                	li	s8,-23
e0001576:	a1b5                	j	e00019e2 <FLASH_AES_SMOKETEST_SIGNED+0x1452>
e0001578:	552b7ad7          	0x552b7ad7
e000157c:	0000                	unimp
e000157e:	bd00                	fsd	fs0,56(a0)
e0001580:	5aec                	lw	a1,116(a3)
e0001582:	c00c                	sw	a1,0(s0)
e0001584:	6a25                	lui	s4,0x9
e0001586:	7aa5                	lui	s5,0xfffe9
e0001588:	0000                	unimp
e000158a:	6320                	flw	fs0,64(a4)
e000158c:	18c1                	addi	a7,a7,-16
e000158e:	adc0                	fsd	fs0,152(a1)
e0001590:	1b6c                	addi	a1,sp,444
e0001592:	928c                	0x928c
e0001594:	0000                	unimp
e0001596:	3b20                	fld	fs0,112(a4)
e0001598:	42ac                	lw	a1,64(a3)
e000159a:	f4d8                	fsw	fa4,44(s1)
e000159c:	0500                	addi	s0,sp,640
e000159e:	d150                	sw	a2,36(a0)
e00015a0:	0000                	unimp
e00015a2:	0ef0                	addi	a2,sp,860
e00015a4:	58a1000f          	0x58a1000f
e00015a8:	00a1                	addi	ra,ra,8
e00015aa:	5170                	lw	a2,100(a0)
e00015ac:	0000                	unimp
e00015ae:	b630                	fsd	fa2,104(a2)
e00015b0:	6224                	flw	fs1,64(a2)
e00015b2:	a6e8                	fsd	fa0,200(a3)
e00015b4:	9450                	0x9450
e00015b6:	5855                	li	a6,-11
e00015b8:	0000                	unimp
e00015ba:	5130                	lw	a2,96(a0)
e00015bc:	597a                	lw	s2,188(sp)
e00015be:	f2015ff3          	csrrwi	t6,0xf20,2
e00015c2:	8290                	0x8290
e00015c4:	0000                	unimp
e00015c6:	0ef0                	addi	a2,sp,860
e00015c8:	1888                	addi	a0,sp,112
e00015ca:	3000                	fld	fs0,32(s0)
e00015cc:	5930                	lw	a2,112(a0)
e00015ce:	7a58                	flw	fa4,52(a2)
e00015d0:	0000                	unimp
e00015d2:	0000                	unimp
e00015d4:	1881                	addi	a7,a7,-32
e00015d6:	6b20                	flw	fs0,80(a4)
e00015d8:	0ef4                	addi	a3,sp,860
e00015da:	b701                	j	e00014da <FLASH_AES_SMOKETEST_SIGNED+0xf4a>
e00015dc:	0000                	unimp
e00015de:	6510                	flw	fa2,8(a0)
e00015e0:	5310                	lw	a2,32(a4)
e00015e2:	b4d6                	fsd	fs5,104(sp)
e00015e4:	0ef8                	addi	a4,sp,860
e00015e6:	3601                	jal	e00010e6 <FLASH_AES_SMOKETEST_SIGNED+0xb56>
e00015e8:	0000                	unimp
e00015ea:	5a20                	lw	s0,112(a2)
e00015ec:	6700                	flw	fs0,8(a4)
e00015ee:	ad50f8a7          	0xad50f8a7
e00015f2:	0efa                	slli	t4,t4,0x1e
e00015f4:	0000                	unimp
e00015f6:	5130                	lw	a2,96(a0)
e00015f8:	4050                	lw	a2,4(s0)
e00015fa:	5e42                	lw	t3,48(sp)
e00015fc:	00f4                	addi	a3,sp,76
e00015fe:	a930                	fsd	fa2,80(a0)
e0001600:	0000                	unimp
e0001602:	5370                	lw	a2,100(a4)
e0001604:	6818                	flw	fa4,16(s0)
e0001606:	3b24                	fld	fs1,112(a4)
e0001608:	5d24                	lw	s1,120(a0)
e000160a:	6564                	flw	fs1,76(a0)
e000160c:	0000                	unimp
e000160e:	5420                	lw	s0,104(s0)
e0001610:	baa0                	fsd	fs0,112(a3)
e0001612:	f008                	fsw	fa0,32(s0)
e0001614:	0ef4                	addi	a3,sp,860
e0001616:	df01                	beqz	a4,e000152e <FLASH_AES_SMOKETEST_SIGNED+0xf9e>
e0001618:	0000                	unimp
e000161a:	7010                	flw	fa2,32(s0)
e000161c:	30025f3b          	0x30025f3b
e0001620:	5738                	lw	a4,104(a4)
e0001622:	8002                	0x8002
e0001624:	0000                	unimp
e0001626:	92e0                	0x92e0
e0001628:	ac71ae3b          	0xac71ae3b
e000162c:	8002673b          	0x8002673b
e0001630:	0000                	unimp
e0001632:	0000                	unimp
e0001634:	2c50                	fld	fa2,152(s0)
e0001636:	78a0                	flw	fs0,112(s1)
e0001638:	67df 5335 0000      	0x533567df
e000163e:	ec50                	fsw	fa2,28(s0)
e0001640:	3a900b03          	lb	s6,937(zero) # 3a9 <_min_stack-0x1c57>
e0001644:	0b00                	addi	s0,sp,400
e0001646:	5b34                	lw	a3,112(a4)
e0001648:	0000                	unimp
e000164a:	4b30                	lw	a2,80(a4)
e000164c:	87500003          	lb	zero,-1931(zero) # fffff875 <pulp__FC+0xfffff876>
e0001650:	0b50                	addi	a2,sp,404
e0001652:	b174                	fsd	fa3,224(a0)
e0001654:	0000                	unimp
e0001656:	9b30                	0x9b30
e0001658:	d936                	sw	a3,176(sp)
e000165a:	aa90                	fsd	fa2,16(a3)
e000165c:	30b0                	fld	fa2,96(s1)
e000165e:	5318                	lw	a4,32(a4)
e0001660:	0000                	unimp
e0001662:	b130                	fsd	fa2,96(a0)
e0001664:	c131                	beqz	a0,e00016a8 <FLASH_AES_SMOKETEST_SIGNED+0x1118>
e0001666:	1000                	addi	s0,sp,32
e0001668:	c17a                	sw	t5,128(sp)
e000166a:	0000000f          	fence	unknown,unknown
e000166e:	ad50                	fsd	fa2,152(a0)
e0001670:	c930                	sw	a2,80(a0)
e0001672:	da98                	sw	a4,48(a3)
e0001674:	c975                	beqz	a0,e0001768 <FLASH_AES_SMOKETEST_SIGNED+0x11d8>
e0001676:	00000003          	lb	zero,0(zero) # 0 <_min_stack-0x2000>
e000167a:	2ac0                	fld	fs0,144(a3)
e000167c:	d131                	beqz	a0,e00015c0 <FLASH_AES_SMOKETEST_SIGNED+0x1030>
e000167e:	a8a0                	fsd	fs0,80(s1)
e0001680:	d179                	beqz	a0,e0001646 <FLASH_AES_SMOKETEST_SIGNED+0x10b6>
e0001682:	0000000f          	fence	unknown,unknown
e0001686:	5ec0                	lw	s0,60(a3)
e0001688:	8304                	0x8304
e000168a:	34d0                	fld	fa2,168(s1)
e000168c:	9286                	add	t0,t0,ra
e000168e:	58d1                	li	a7,-12
e0001690:	0000                	unimp
e0001692:	1ed0                	addi	a2,sp,884
e0001694:	42ac                	lw	a1,64(a3)
e0001696:	b568                	fsd	fa0,232(a0)
e0001698:	d000                	sw	s0,32(s0)
e000169a:	00005157          	pv.add.sc.b	sp,zero,zero
e000169e:	0ef0                	addi	a2,sp,860
e00016a0:	56a4                	lw	s1,104(a3)
e00016a2:	f388                	fsw	fa0,32(a5)
e00016a4:	00a1                	addi	ra,ra,8
e00016a6:	5850                	lw	a2,52(s0)
e00016a8:	0000                	unimp
e00016aa:	8630                	0x8630
e00016ac:	8110                	0x8110
e00016ae:	b91a                	fsd	ft6,176(sp)
e00016b0:	0ef8                	addi	a4,sp,860
e00016b2:	5001                	0x5001
e00016b4:	0000                	unimp
e00016b6:	6220                	flw	fs0,64(a2)
e00016b8:	0ef8                	addi	a4,sp,860
e00016ba:	fdc1                	bnez	a1,e0001652 <FLASH_AES_SMOKETEST_SIGNED+0x10c2>
e00016bc:	6510                	flw	fa2,8(a0)
e00016be:	5e64                	lw	s1,124(a2)
e00016c0:	0000                	unimp
e00016c2:	1880                	addi	s0,sp,112
e00016c4:	0ef8                	addi	a4,sp,860
e00016c6:	71b0                	flw	fa2,96(a1)
e00016c8:	1881                	addi	a7,a7,-32
e00016ca:	5a20                	lw	s0,112(a2)
e00016cc:	0000                	unimp
e00016ce:	1b00                	addi	s0,sp,432
e00016d0:	cf00                	sw	s0,24(a4)
e00016d2:	e1b6                	fsw	fa3,192(sp)
e00016d4:	0ef856e7          	0xef856e7
e00016d8:	0000                	unimp
e00016da:	9b00                	0x9b00
e00016dc:	5f3e                	lw	t5,236(sp)
e00016de:	6c72                	flw	fs8,28(sp)
e00016e0:	1814                	addi	a3,sp,48
e00016e2:	d390                	sw	a2,32(a5)
e00016e4:	0000                	unimp
e00016e6:	5030                	lw	a2,96(s0)
e00016e8:	4002673b          	0x4002673b
e00016ec:	0002573b          	0x2573b
e00016f0:	0000                	unimp
e00016f2:	8000                	0x8000
e00016f4:	dff9526f          	jal	tp,dff974f2 <tohost+0xdff774ea>
e00016f8:	ec59ae3b          	0xec59ae3b
e00016fc:	0000                	unimp
e00016fe:	8000                	0x8000
e0001700:	5b29                	li	s6,-22
e0001702:	b919                	j	e0001318 <FLASH_AES_SMOKETEST_SIGNED+0xd88>
e0001704:	64e00953          	0x64e00953
e0001708:	0000                	unimp
e000170a:	6330                	flw	fa2,64(a4)
e000170c:	76e00b93          	li	s7,1902
e0001710:	1258                	addi	a4,sp,292
e0001712:	5330                	lw	a2,96(a4)
e0001714:	0000                	unimp
e0001716:	5630                	lw	a2,104(a2)
e0001718:	5130                	lw	a2,96(a0)
e000171a:	74d4                	flw	fa3,44(s1)
e000171c:	533a                	lw	t1,172(sp)
e000171e:	00000abb          	0xabb
e0001722:	0190                	addi	a2,sp,192
e0001724:	00a1                	addi	ra,ra,8
e0001726:	74d0                	flw	fa2,44(s1)
e0001728:	d410                	sw	a2,40(s0)
e000172a:	0000963f 6de80150 	0x6de801500000963f
e0001732:	6008                	flw	fa0,0(s0)
e0001734:	5624                	lw	s1,104(a2)
e0001736:	6568                	flw	fa0,76(a0)
e0001738:	0000                	unimp
e000173a:	5890                	lw	a2,48(s1)
e000173c:	188a                	slli	a7,a7,0x22
e000173e:	8560                	0x8560
e0001740:	f300                	fsw	fs0,32(a4)
e0001742:	00008197          	auipc	gp,0x8
e0001746:	0ef0                	addi	a2,sp,860
e0001748:	bd01                	j	e0001558 <FLASH_AES_SMOKETEST_SIGNED+0xfc8>
e000174a:	c4d0                	sw	a2,12(s1)
e000174c:	5da4                	lw	s1,120(a1)
e000174e:	0ef8                	addi	a4,sp,860
e0001750:	0000                	unimp
e0001752:	6510                	flw	fa2,8(a0)
e0001754:	0ef8                	addi	a4,sp,860
e0001756:	6b20                	flw	fs0,80(a4)
e0001758:	5d60                	lw	s0,124(a0)
e000175a:	65e8                	flw	fa0,76(a1)
e000175c:	0000                	unimp
e000175e:	1880                	addi	s0,sp,112
e0001760:	6f00                	flw	fs0,24(a4)
e0001762:	b566                	fsd	fs9,168(sp)
e0001764:	0ef856e7          	0xef856e7
e0001768:	0000                	unimp
e000176a:	3b00                	fld	fs0,48(a4)
e000176c:	0ef0                	addi	a2,sp,860
e000176e:	2ff0                	fld	fa2,216(a5)
e0001770:	82c1928b          	p.lh	t0,-2004(gp!) # e0008f6e <_bss_end+0x2512>
e0001774:	0000                	unimp
e0001776:	7ad0                	flw	fa2,52(a3)
e0001778:	b638                	fsd	fa4,104(a2)
e000177a:	4a91                	li	s5,4
e000177c:	d156                	sw	s5,160(sp)
e000177e:	42ac                	lw	a1,64(a3)
e0001780:	0000                	unimp
e0001782:	fc00                	fsw	fs0,56(s0)
e0001784:	5131                	li	sp,-20
e0001786:	c000                	sw	s0,0(s0)
e0001788:	5170                	lw	a2,100(a0)
e000178a:	0000000f          	fence	unknown,unknown
e000178e:	00a0                	addi	s0,sp,72
e0001790:	0ef8                	addi	a4,sp,860
e0001792:	1a90                	addi	a2,sp,368
e0001794:	5854                	lw	a3,52(s0)
e0001796:	6224                	flw	fs1,64(a2)
e0001798:	0000                	unimp
e000179a:	7e50                	flw	fa2,60(a2)
e000179c:	0002                	0x2
e000179e:	7380                	flw	fs0,32(a5)
e00017a0:	597a8297          	auipc	t0,0x597a8
e00017a4:	0000                	unimp
e00017a6:	b500                	fsd	fs0,40(a0)
e00017a8:	6510                	flw	fa2,8(a0)
e00017aa:	4754                	lw	a3,12(a4)
e00017ac:	6458                	flw	fa4,12(s0)
e00017ae:	00001887          	0x1887
e00017b2:	5930                	lw	a2,112(a0)
e00017b4:	5a20                	lw	s0,112(a2)
e00017b6:	5e48                	lw	a0,60(a2)
e00017b8:	7901                	lui	s2,0xfffe0
e00017ba:	1880                	addi	s0,sp,112
e00017bc:	0000                	unimp
e00017be:	0ef0                	addi	a2,sp,860
e00017c0:	5136                	lw	sp,108(sp)
e00017c2:	3380                	fld	fs0,32(a5)
e00017c4:	f900                	fsw	fs0,48(a0)
e00017c6:	5316                	lw	t1,100(sp)
e00017c8:	0000                	unimp
e00017ca:	0ef0                	addi	a2,sp,860
e00017cc:	9286                	add	t0,t0,ra
e00017ce:	cb21                	beqz	a4,e000181e <FLASH_AES_SMOKETEST_SIGNED+0x128e>
e00017d0:	0efa                	slli	t4,t4,0x1e
e00017d2:	2900                	fld	fs0,16(a0)
e00017d4:	0000                	unimp
e00017d6:	ad50                	fsd	fa2,152(a0)
e00017d8:	42ac                	lw	a1,64(a3)
e00017da:	d4d8                	sw	a4,44(s1)
e00017dc:	4a00                	lw	s0,16(a2)
e00017de:	d156                	sw	s5,160(sp)
e00017e0:	0000                	unimp
e00017e2:	0ef0                	addi	a2,sp,860
e00017e4:	58a1000f          	0x58a1000f
e00017e8:	00a1                	addi	ra,ra,8
e00017ea:	5170                	lw	a2,100(a0)
e00017ec:	0000                	unimp
e00017ee:	b630                	fsd	fa2,104(a2)
e00017f0:	6224                	flw	fs1,64(a2)
e00017f2:	1b28                	addi	a0,sp,440
e00017f4:	5050                	lw	a2,36(s0)
e00017f6:	5854                	lw	a3,52(s0)
e00017f8:	0000                	unimp
e00017fa:	5130                	lw	a2,96(a0)
e00017fc:	597a                	lw	s2,188(sp)
e00017fe:	9232                	add	tp,tp,a2
e0001800:	7300                	flw	fs0,32(a4)
e0001802:	00008297          	auipc	t0,0x8
e0001806:	0ef0                	addi	a2,sp,860
e0001808:	85601887          	0x85601887
e000180c:	5930                	lw	a2,112(a0)
e000180e:	3658                	fld	fa4,168(a2)
e0001810:	0000                	unimp
e0001812:	0000                	unimp
e0001814:	1880                	addi	s0,sp,112
e0001816:	2230                	fld	fa2,64(a2)
e0001818:	0ef4                	addi	a3,sp,860
e000181a:	3701                	jal	e000171a <FLASH_AES_SMOKETEST_SIGNED+0x118a>
e000181c:	0000                	unimp
e000181e:	6510                	flw	fa2,8(a0)
e0001820:	5316                	lw	t1,100(sp)
e0001822:	c566                	sw	s9,136(sp)
e0001824:	0ef8                	addi	a4,sp,860
e0001826:	b700                	fsd	fs0,40(a4)
e0001828:	0000                	unimp
e000182a:	5a20                	lw	s0,112(a2)
e000182c:	e700                	fsw	fs0,8(a4)
e000182e:	fdc5                	bnez	a1,e00017e6 <FLASH_AES_SMOKETEST_SIGNED+0x1256>
e0001830:	ad50                	fsd	fa2,152(a0)
e0001832:	0efa                	slli	t4,t4,0x1e
e0001834:	0000                	unimp
e0001836:	5130                	lw	a2,96(a0)
e0001838:	1810                	addi	a2,sp,48
e000183a:	c380                	sw	s0,0(a5)
e000183c:	4014                	lw	a3,0(s0)
e000183e:	9134                	0x9134
e0001840:	0000                	unimp
e0001842:	5010                	lw	a2,32(s0)
e0001844:	2098                	fld	fa4,0(s1)
e0001846:	00022007          	flw	ft0,0(tp) # 1126000 <tohost+0x1105ff8>
e000184a:	9930                	0x9930
e000184c:	0000                	unimp
e000184e:	9970                	0x9970
e0001850:	a930                	fsd	fa2,80(a0)
e0001852:	0c78                	addi	a4,sp,540
e0001854:	a974                	fsd	fa3,208(a0)
e0001856:	0002                	0x2
e0001858:	0000                	unimp
e000185a:	d410                	sw	a2,40(s0)
e000185c:	c131                	beqz	a0,e00018a0 <FLASH_AES_SMOKETEST_SIGNED+0x1310>
e000185e:	db20                	sw	s0,112(a4)
e0001860:	000fc177          	0xfc177
e0001864:	0000                	unimp
e0001866:	6aa0                	flw	fs0,80(a3)
e0001868:	b130                	fsd	fa2,96(a0)
e000186a:	9000                	0x9000
e000186c:	b174                	fsd	fa3,224(a0)
e000186e:	0002                	0x2
e0001870:	0000                	unimp
e0001872:	2ac0                	fld	fs0,144(a3)
e0001874:	b931                	j	e0001490 <FLASH_AES_SMOKETEST_SIGNED+0xf00>
e0001876:	6008                	flw	fa0,0(s0)
e0001878:	000fb977          	0xfb977
e000187c:	0000                	unimp
e000187e:	46b0                	lw	a2,72(a3)
e0001880:	5830                	lw	a2,112(s0)
e0001882:	c56c                	sw	a1,76(a0)
e0001884:	4b34                	lw	a3,80(a4)
e0001886:	0890                	addi	a2,sp,80
e0001888:	0000                	unimp
e000188a:	06b0                	addi	a2,sp,840
e000188c:	d830                	sw	a2,112(s0)
e000188e:	f004                	fsw	fs1,32(s0)
e0001890:	6330                	flw	fa2,64(a4)
e0001892:	1340                	addi	s0,sp,420
e0001894:	0000                	unimp
e0001896:	0040                	addi	s0,sp,4
e0001898:	9050                	0x9050
e000189a:	adc8                	fsd	fa0,152(a1)
e000189c:	c630                	sw	a2,72(a2)
e000189e:	5b58                	lw	a4,52(a4)
e00018a0:	0000                	unimp
e00018a2:	0060                	addi	s0,sp,12
e00018a4:	8050                	0x8050
e00018a6:	bc7a                	fsd	ft10,56(sp)
e00018a8:	963c                	0x963c
e00018aa:	00a0                	addi	s0,sp,72
e00018ac:	0000                	unimp
e00018ae:	5010                	lw	a2,32(s0)
e00018b0:	5818                	lw	a4,48(s0)
e00018b2:	7914                	flw	fa3,48(a0)
e00018b4:	00a1                	addi	ra,ra,8
e00018b6:	55e0                	lw	s0,108(a1)
e00018b8:	0000                	unimp
e00018ba:	f630                	fsw	fa2,104(a2)
e00018bc:	004c                	addi	a1,sp,4
e00018be:	db20                	sw	s0,112(a4)
e00018c0:	f300                	fsw	fs0,32(a4)
e00018c2:	6836                	flw	fa6,76(sp)
e00018c4:	0000                	unimp
e00018c6:	0ef0                	addi	a2,sp,860
e00018c8:	76e8                	flw	fa0,108(a3)
e00018ca:	6238                	flw	fa4,64(a2)
e00018cc:	5624                	lw	s1,104(a2)
e00018ce:	6228                	flw	fa0,64(a2)
e00018d0:	0000                	unimp
e00018d2:	58d0                	lw	a2,52(s1)
e00018d4:	188a                	slli	a7,a7,0x22
e00018d6:	2560                	fld	fs0,200(a0)
e00018d8:	e300                	fsw	fs0,0(a4)
e00018da:	0356                	slli	t1,t1,0x15
e00018dc:	0000                	unimp
e00018de:	0ef0                	addi	a2,sp,860
e00018e0:	ac01                	j	e0001af0 <FLASH_AES_SMOKETEST_SIGNED+0x1560>
e00018e2:	5da406e7          	jalr	a3,1498(s0)
e00018e6:	0ef8                	addi	a4,sp,860
e00018e8:	0000                	unimp
e00018ea:	6510                	flw	fa2,8(a0)
e00018ec:	c836                	sw	a3,16(sp)
e00018ee:	d38c                	sw	a1,32(a5)
e00018f0:	0ef0                	addi	a2,sp,860
e00018f2:	2f00                	fld	fs0,24(a4)
e00018f4:	0000                	unimp
e00018f6:	1880                	addi	s0,sp,112
e00018f8:	5d64                	lw	s1,124(a0)
e00018fa:	88a8                	0x88a8
e00018fc:	1880                	addi	s0,sp,112
e00018fe:	6510                	flw	fa2,8(a0)
e0001900:	0000                	unimp
e0001902:	0040                	addi	s0,sp,4
e0001904:	5a20                	lw	s0,112(a2)
e0001906:	b008                	fsd	fa0,32(s0)
e0001908:	9801                	andi	s0,s0,-32
e000190a:	00001887          	0x1887
e000190e:	0ef0                	addi	a2,sp,860
e0001910:	1500                	addi	s0,sp,672
e0001912:	51b6                	lw	gp,108(sp)
e0001914:	6ee8                	flw	fa0,92(a3)
e0001916:	0ef8                	addi	a4,sp,860
e0001918:	0000                	unimp
e000191a:	6660                	flw	fs0,76(a2)
e000191c:	9a41                	andi	a2,a2,-16
e000191e:	475f 4054 be30      	0xbe304054475f
e0001924:	0000                	unimp
e0001926:	5050                	lw	a2,36(s0)
e0001928:	5136                	lw	sp,108(sp)
e000192a:	c8a0                	sw	s0,80(s1)
e000192c:	5118                	lw	a4,32(a0)
e000192e:	531c                	lw	a5,32(a4)
e0001930:	0000                	unimp
e0001932:	9050                	0x9050
e0001934:	5095                	li	ra,-27
e0001936:	eb24                	fsw	fs1,80(a4)
e0001938:	0efa                	slli	t4,t4,0x1e
e000193a:	3900                	fld	fs0,48(a0)
e000193c:	0000                	unimp
e000193e:	ad50                	fsd	fa2,152(a0)
e0001940:	8b01                	andi	a4,a4,0
e0001942:	4dc0                	lw	s0,28(a1)
e0001944:	928d                	srli	a3,a3,0x23
e0001946:	82c1                	srli	a3,a3,0x10
e0001948:	0000                	unimp
e000194a:	c2a0                	sw	s0,64(a3)
e000194c:	42ac                	lw	a1,64(a3)
e000194e:	f6e8                	fsw	fa0,108(a3)
e0001950:	9214                	0x9214
e0001952:	d152                	sw	s4,160(sp)
e0001954:	0000                	unimp
e0001956:	6810                	flw	fa2,16(s0)
e0001958:	58a1000f          	0x58a1000f
e000195c:	00a1                	addi	ra,ra,8
e000195e:	5170                	lw	a2,100(a0)
e0001960:	0000                	unimp
e0001962:	b630                	fsd	fa2,104(a2)
e0001964:	6224                	flw	fs1,64(a2)
e0001966:	eff8                	fsw	fa4,92(a5)
e0001968:	9450                	0x9450
e000196a:	00005853          	fadd.s	fa6,ft0,ft0,unknown
e000196e:	5130                	lw	a2,96(a0)
e0001970:	597a                	lw	s2,188(sp)
e0001972:	e4d2                	fsw	fs4,72(sp)
e0001974:	7b00                	flw	fs0,48(a4)
e0001976:	8296                	mv	t0,t0
e0001978:	0000                	unimp
e000197a:	0ef0                	addi	a2,sp,860
e000197c:	1886                	slli	a7,a7,0x21
e000197e:	4e40                	lw	s0,28(a2)
e0001980:	5930                	lw	a2,112(a0)
e0001982:	ba58                	fsd	fa4,176(a2)
e0001984:	0000                	unimp
e0001986:	0000                	unimp
e0001988:	de401887          	0xde401887
e000198c:	0ef4                	addi	a3,sp,860
e000198e:	3e01                	jal	e000149e <FLASH_AES_SMOKETEST_SIGNED+0xf0e>
e0001990:	0000                	unimp
e0001992:	6510                	flw	fa2,8(a0)
e0001994:	5315                	li	t1,-27
e0001996:	eff6                	fsw	ft9,220(sp)
e0001998:	0ef8                	addi	a4,sp,860
e000199a:	bf00                	fsd	fs0,56(a4)
e000199c:	0000                	unimp
e000199e:	5a20                	lw	s0,112(a2)
e00019a0:	ef00                	fsw	fs0,24(a4)
e00019a2:	8564                	0x8564
e00019a4:	ad50                	fsd	fa2,152(a0)
e00019a6:	0efa                	slli	t4,t4,0x1e
e00019a8:	0000                	unimp
e00019aa:	5130                	lw	a2,96(a0)
e00019ac:	4050                	lw	a2,4(s0)
e00019ae:	5e42                	lw	t3,48(sp)
e00019b0:	00f4                	addi	a3,sp,76
e00019b2:	a930                	fsd	fa2,80(a0)
e00019b4:	0000                	unimp
e00019b6:	5370                	lw	a2,100(a4)
e00019b8:	6818                	flw	fa4,16(s0)
e00019ba:	3b24                	fld	fs1,112(a4)
e00019bc:	5d24                	lw	s1,120(a0)
e00019be:	6564                	flw	fs1,76(a0)
e00019c0:	0000                	unimp
e00019c2:	5420                	lw	s0,104(s0)
e00019c4:	baa6                	fsd	fs1,368(sp)
e00019c6:	da98                	sw	a4,48(a3)
e00019c8:	0ef4                	addi	a3,sp,860
e00019ca:	6601                	lui	a2,0x0
e00019cc:	0000                	unimp
e00019ce:	7010                	flw	fa2,32(s0)
e00019d0:	30025f3b          	0x30025f3b
e00019d4:	5738                	lw	a4,104(a4)
e00019d6:	8002                	0x8002
e00019d8:	0000                	unimp
e00019da:	92e0                	0x92e0
e00019dc:	ac71ae3b          	0xac71ae3b
e00019e0:	8002673b          	0x8002673b
e00019e4:	0000                	unimp
e00019e6:	0000                	unimp
e00019e8:	2c50                	fld	fa2,152(s0)
e00019ea:	78a0                	flw	fs0,112(s1)
e00019ec:	67df 5335 0000      	0x533567df
e00019f2:	ec50                	fsw	fa2,28(s0)
e00019f4:	3a900b03          	lb	s6,937(zero) # 3a9 <_min_stack-0x1c57>
e00019f8:	0b00                	addi	s0,sp,400
e00019fa:	5b34                	lw	a3,112(a4)
e00019fc:	0000                	unimp
e00019fe:	4b30                	lw	a2,80(a4)
e0001a00:	0002                	0x2
e0001a02:	b560                	fsd	fs0,232(a0)
e0001a04:	0b50                	addi	a2,sp,404
e0001a06:	b174                	fsd	fa3,224(a0)
e0001a08:	0000                	unimp
e0001a0a:	9b30                	0x9b30
e0001a0c:	d936                	sw	a3,176(sp)
e0001a0e:	aff0                	fsd	fa2,216(a5)
e0001a10:	70b0                	flw	fa2,96(s1)
e0001a12:	5316                	lw	t1,100(sp)
e0001a14:	0000                	unimp
e0001a16:	b130                	fsd	fa2,96(a0)
e0001a18:	c131                	beqz	a0,e0001a5c <FLASH_AES_SMOKETEST_SIGNED+0x14cc>
e0001a1a:	1000                	addi	s0,sp,32
e0001a1c:	c17a                	sw	t5,128(sp)
e0001a1e:	0000000f          	fence	unknown,unknown
e0001a22:	ad50                	fsd	fa2,152(a0)
e0001a24:	c930                	sw	a2,80(a0)
e0001a26:	34d8                	fld	fa4,168(s1)
e0001a28:	0002c973          	0x2c973
e0001a2c:	0000                	unimp
e0001a2e:	2ac0                	fld	fs0,144(a3)
e0001a30:	d131                	beqz	a0,e0001974 <FLASH_AES_SMOKETEST_SIGNED+0x13e4>
e0001a32:	7e40                	flw	fs0,60(a2)
e0001a34:	d176                	sw	t4,160(sp)
e0001a36:	0000000f          	fence	unknown,unknown
e0001a3a:	e6c0                	fsw	fs0,12(a3)
e0001a3c:	6134                	flw	fa3,64(a0)
e0001a3e:	f6e0                	fsw	fs0,108(a3)
e0001a40:	59119283          	lh	t0,1425(gp)
e0001a44:	0000                	unimp
e0001a46:	a6d0                	fsd	fa2,136(a3)
e0001a48:	42ac                	lw	a1,64(a3)
e0001a4a:	9238                	0x9238
e0001a4c:	b990                	fsd	fa2,48(a1)
e0001a4e:	5152                	lw	sp,52(sp)
e0001a50:	0000                	unimp
e0001a52:	db10                	sw	a2,48(a4)
e0001a54:	56a4                	lw	s1,104(a3)
e0001a56:	f388                	fsw	fa0,32(a5)
e0001a58:	00a1                	addi	ra,ra,8
e0001a5a:	5850                	lw	a2,52(s0)
e0001a5c:	0000                	unimp
e0001a5e:	8630                	0x8630
e0001a60:	8115                	srli	a0,a0,0x5
e0001a62:	e23a                	fsw	fa4,4(sp)
e0001a64:	0ef8                	addi	a4,sp,860
e0001a66:	d900                	sw	s0,48(a0)
e0001a68:	0000                	unimp
e0001a6a:	6220                	flw	fs0,64(a2)
e0001a6c:	0ef8                	addi	a4,sp,860
e0001a6e:	fdc1                	bnez	a1,e0001a06 <FLASH_AES_SMOKETEST_SIGNED+0x1476>
e0001a70:	6510                	flw	fa2,8(a0)
e0001a72:	5e64                	lw	s1,124(a2)
e0001a74:	0000                	unimp
e0001a76:	1880                	addi	s0,sp,112
e0001a78:	0ef8                	addi	a4,sp,860
e0001a7a:	ba90                	fsd	fa2,48(a3)
e0001a7c:	1886                	slli	a7,a7,0x21
e0001a7e:	5a20                	lw	s0,112(a2)
e0001a80:	0000                	unimp
e0001a82:	a200                	fsd	fs0,0(a2)
e0001a84:	5700                	lw	s0,40(a4)
e0001a86:	e914                	fsw	fa3,16(a0)
e0001a88:	56e5                	li	a3,-7
e0001a8a:	0ef8                	addi	a4,sp,860
e0001a8c:	0000                	unimp
e0001a8e:	2300                	fld	fs0,0(a4)
e0001a90:	5f3e                	lw	t5,236(sp)
e0001a92:	a752                	fsd	fs4,392(sp)
e0001a94:	db14                	sw	a3,48(a4)
e0001a96:	d390                	sw	a2,32(a5)
e0001a98:	0000                	unimp
e0001a9a:	5030                	lw	a2,96(s0)
e0001a9c:	4002673b          	0x4002673b
e0001aa0:	0002573b          	0x2573b
e0001aa4:	0000                	unimp
e0001aa6:	8000                	0x8000
e0001aa8:	dff9526f          	jal	tp,dff978a6 <tohost+0xdff7789e>
e0001aac:	ec59ae3b          	0xec59ae3b
e0001ab0:	0000                	unimp
e0001ab2:	8000                	0x8000
e0001ab4:	5b29                	li	s6,-22
e0001ab6:	b919                	j	e00016cc <FLASH_AES_SMOKETEST_SIGNED+0x113c>
e0001ab8:	64e00953          	0x64e00953
e0001abc:	0000                	unimp
e0001abe:	6330                	flw	fa2,64(a4)
e0001ac0:	76e00b93          	li	s7,1902
e0001ac4:	1258                	addi	a4,sp,292
e0001ac6:	5330                	lw	a2,96(a4)
e0001ac8:	0000                	unimp
e0001aca:	5630                	lw	a2,104(a2)
e0001acc:	5130                	lw	a2,96(a0)
e0001ace:	74d4                	flw	fa3,44(s1)
e0001ad0:	533a                	lw	t1,172(sp)
e0001ad2:	00000abb          	0xabb
e0001ad6:	0190                	addi	a2,sp,192
e0001ad8:	00a1                	addi	ra,ra,8
e0001ada:	74d0                	flw	fa2,44(s1)
e0001adc:	d410                	sw	a2,40(s0)
e0001ade:	0000963f 6de80150 	0x6de801500000963f
e0001ae6:	6008                	flw	fa0,0(s0)
e0001ae8:	5624                	lw	s1,104(a2)
e0001aea:	6568                	flw	fa0,76(a0)
e0001aec:	0000                	unimp
e0001aee:	5890                	lw	a2,48(s1)
e0001af0:	188a                	slli	a7,a7,0x22
e0001af2:	54d0                	lw	a2,44(s1)
e0001af4:	7b00                	flw	fs0,48(a4)
e0001af6:	8195                	srli	a1,a1,0x5
e0001af8:	0000                	unimp
e0001afa:	0ef0                	addi	a2,sp,860
e0001afc:	4401                	li	s0,0
e0001afe:	3e46                	fld	ft8,112(sp)
e0001b00:	5da4                	lw	s1,120(a1)
e0001b02:	0ef8                	addi	a4,sp,860
e0001b04:	0000                	unimp
e0001b06:	6510                	flw	fa2,8(a0)
e0001b08:	0ef8                	addi	a4,sp,860
e0001b0a:	6b20                	flw	fs0,80(a4)
e0001b0c:	5d60                	lw	s0,124(a0)
e0001b0e:	65e8                	flw	fa0,76(a1)
e0001b10:	0000                	unimp
e0001b12:	1880                	addi	s0,sp,112
e0001b14:	f700                	fsw	fs0,40(a4)
e0001b16:	56e4e563          	bltu	s1,a4,e0002080 <FLASH_AES_SMOKETEST_SIGNED+0x1af0>
e0001b1a:	0ef8                	addi	a4,sp,860
e0001b1c:	0000                	unimp
e0001b1e:	c300                	sw	s0,0(a4)
e0001b20:	6725                	lui	a4,0x9
e0001b22:	b914                	fsd	fa3,48(a0)
e0001b24:	5825512b          	0x5825512b
e0001b28:	0000                	unimp
e0001b2a:	7ad0                	flw	fa2,52(a3)
e0001b2c:	3b2c                	fld	fa1,112(a4)
e0001b2e:	fdcc                	fsw	fa1,60(a1)
e0001b30:	7aa4                	flw	fs1,112(a3)
e0001b32:	5aec                	lw	a1,116(a3)
e0001b34:	0000                	unimp
e0001b36:	6e20                	flw	fs0,88(a2)
e0001b38:	93d0                	0x93d0
e0001b3a:	9752                	add	a4,a4,s4
e0001b3c:	928c                	0x928c
e0001b3e:	18c1                	addi	a7,a7,-16
e0001b40:	0000                	unimp
e0001b42:	1b60                	addi	s0,sp,444
e0001b44:	00a1                	addi	ra,ra,8
e0001b46:	56e0                	lw	s0,108(a3)
e0001b48:	42ac                	lw	a1,64(a3)
e0001b4a:	b638                	fsd	fa4,104(a2)
e0001b4c:	0000                	unimp
e0001b4e:	d150                	sw	a2,36(a0)
e0001b50:	7050                	flw	fa2,36(s0)
e0001b52:	e752                	fsw	fs4,140(sp)
e0001b54:	5131000f          	0x5131000f
e0001b58:	0000                	unimp
e0001b5a:	5170                	lw	a2,100(a0)
e0001b5c:	2f00                	fld	fs0,24(a4)
e0001b5e:	eff5                	bnez	a5,e0001c5a <FLASH_AES_SMOKETEST_SIGNED+0x16ca>
e0001b60:	6224                	flw	fs1,64(a2)
e0001b62:	0ef8                	addi	a4,sp,860
e0001b64:	0000                	unimp
e0001b66:	5850                	lw	a2,52(s0)
e0001b68:	5930                	lw	a2,112(a0)
e0001b6a:	adc8                	fsd	fa0,152(a1)
e0001b6c:	597a                	lw	s2,188(sp)
e0001b6e:	0002                	0x2
e0001b70:	0000                	unimp
e0001b72:	8290                	0x8290
e0001b74:	0ef4                	addi	a3,sp,860
e0001b76:	e561                	bnez	a0,e0001c3e <FLASH_AES_SMOKETEST_SIGNED+0x16ae>
e0001b78:	1885                	addi	a7,a7,-31
e0001b7a:	6510                	flw	fa2,8(a0)
e0001b7c:	0000                	unimp
e0001b7e:	9650                	0x9650
e0001b80:	0ef8                	addi	a4,sp,860
e0001b82:	38a0                	fld	fs0,112(s1)
e0001b84:	1885                	addi	a7,a7,-31
e0001b86:	5a20                	lw	s0,112(a2)
e0001b88:	0000                	unimp
e0001b8a:	f200                	fsw	fs0,32(a2)
e0001b8c:	ad50                	fsd	fa2,152(a0)
e0001b8e:	f6ea                	fsw	fs10,108(sp)
e0001b90:	5314                	lw	a3,32(a4)
e0001b92:	5136                	lw	sp,108(sp)
e0001b94:	0000                	unimp
e0001b96:	7300                	flw	fs0,32(a4)
e0001b98:	00f4                	addi	a3,sp,76
e0001b9a:	fc70                	fsw	fa2,124(s0)
e0001b9c:	a300                	fsd	fs0,0(a4)
e0001b9e:	00005373          	csrrwi	t1,0x0,0
e0001ba2:	0ef0                	addi	a2,sp,860
e0001ba4:	5d24                	lw	s1,120(a0)
e0001ba6:	cb24                	sw	s1,80(a4)
e0001ba8:	4050                	lw	a2,4(s0)
e0001baa:	5422                	lw	s0,40(sp)
e0001bac:	0000                	unimp
e0001bae:	a930                	fsd	fa2,80(a0)
e0001bb0:	0ef4                	addi	a3,sp,860
e0001bb2:	06e1                	addi	a3,a3,24
e0001bb4:	6818                	flw	fa4,16(s0)
e0001bb6:	7014                	flw	fa3,32(s0)
e0001bb8:	0000                	unimp
e0001bba:	6560                	flw	fs0,76(a0)
e0001bbc:	5738                	lw	a4,104(a4)
e0001bbe:	0ff2                	slli	t6,t6,0x1c
e0001bc0:	9aa5                	andi	a3,a3,-23
e0001bc2:	d2e8                	sw	a0,100(a3)
e0001bc4:	0000                	unimp
e0001bc6:	1a00                	addi	s0,sp,304
e0001bc8:	94d2673b          	0x94d2673b
e0001bcc:	00025f3b          	0x25f3b
e0001bd0:	0000                	unimp
e0001bd2:	8000                	0x8000
e0001bd4:	67df 3755 ae3b      	0xae3b375567df
e0001bda:	ec51                	bnez	s0,e0001c76 <FLASH_AES_SMOKETEST_SIGNED+0x16e6>
e0001bdc:	0000                	unimp
e0001bde:	8000                	0x8000
e0001be0:	0b00                	addi	s0,sp,400
e0001be2:	7ff4                	flw	fa3,124(a5)
e0001be4:	2c50                	fld	fa2,152(s0)
e0001be6:	4b30                	lw	a2,80(a4)
e0001be8:	0000                	unimp
e0001bea:	5330                	lw	a2,96(a4)
e0001bec:	0b50                	addi	a2,sp,404
e0001bee:	a4d4                	fsd	fa3,136(s1)
e0001bf0:	db300b03          	lb	s6,-589(zero) # fffffdb3 <pulp__FC+0xfffffdb4>
e0001bf4:	0000                	unimp
e0001bf6:	5b30                	lw	a2,112(a4)
e0001bf8:	4c90                	lw	a2,24(s1)
e0001bfa:	3915                	jal	e000182e <FLASH_AES_SMOKETEST_SIGNED+0x129e>
e0001bfc:	0002                	0x2
e0001bfe:	9130                	0x9130
e0001c00:	0000                	unimp
e0001c02:	9170                	0x9170
e0001c04:	b17a                	fsd	ft10,160(sp)
e0001c06:	c936156f          	jal	a0,dff63898 <tohost+0xdff43890>
e0001c0a:	ad50                	fsd	fa2,152(a0)
e0001c0c:	0000                	unimp
e0001c0e:	5310                	lw	a2,32(a4)
e0001c10:	b972                	fsd	ft8,176(sp)
e0001c12:	b912                	fsd	ft4,176(sp)
e0001c14:	b131                	j	e0001820 <FLASH_AES_SMOKETEST_SIGNED+0x1290>
e0001c16:	06b0                	addi	a2,sp,840
e0001c18:	0000                	unimp
e0001c1a:	0000                	unimp
e0001c1c:	c175                	beqz	a0,e0001d00 <FLASH_AES_SMOKETEST_SIGNED+0x1770>
e0001c1e:	b930323f 00009ab8 	0x9ab8b930323f
e0001c26:	0000                	unimp
e0001c28:	9282                	jalr	t0
e0001c2a:	9ff1                	0x9ff1
e0001c2c:	c131                	beqz	a0,e0001c70 <FLASH_AES_SMOKETEST_SIGNED+0x16e0>
e0001c2e:	5ac0                	lw	s0,52(a3)
e0001c30:	0000                	unimp
e0001c32:	0000                	unimp
e0001c34:	1290                	addi	a2,sp,352
e0001c36:	9e42                	add	t3,t3,a6
e0001c38:	6134                	flw	fa3,64(a0)
e0001c3a:	db10                	sw	a2,48(a4)
e0001c3c:	0000                	unimp
e0001c3e:	58d0                	lw	a2,52(s1)
e0001c40:	00a1                	addi	ra,ra,8
e0001c42:	9000                	0x9000
e0001c44:	42ac                	lw	a1,64(a3)
e0001c46:	8638                	0x8638
e0001c48:	0000                	unimp
e0001c4a:	5150                	lw	a2,36(a0)
e0001c4c:	0ef8                	addi	a4,sp,860
e0001c4e:	9560                	0x9560
e0001c50:	5624                	lw	s1,104(a2)
e0001c52:	6228                	flw	fa0,64(a2)
e0001c54:	0000                	unimp
e0001c56:	5850                	lw	a2,52(s0)
e0001c58:	6510                	flw	fa2,8(a0)
e0001c5a:	3384                	fld	fs1,32(a5)
e0001c5c:	8114                	0x8114
e0001c5e:	188a                	slli	a7,a7,0x22
e0001c60:	0000                	unimp
e0001c62:	8d00                	0x8d00
e0001c64:	1885                	addi	a7,a7,-31
e0001c66:	0560                	addi	s0,sp,652
e0001c68:	0ef8                	addi	a4,sp,860
e0001c6a:	5601                	li	a2,-32
e0001c6c:	0000                	unimp
e0001c6e:	5de0                	lw	s0,124(a1)
e0001c70:	b7585663          	ble	s5,a6,e0000fdc <FLASH_AES_SMOKETEST_SIGNED+0xa4c>
e0001c74:	0ef8                	addi	a4,sp,860
e0001c76:	d700                	sw	s0,40(a4)
e0001c78:	0000                	unimp
e0001c7a:	5a20                	lw	s0,112(a2)
e0001c7c:	db14                	sw	a3,48(a4)
e0001c7e:	8750                	0x8750
e0001c80:	0b00                	addi	s0,sp,400
e0001c82:	00005033          	srl	zero,zero,zero
e0001c86:	0ef0                	addi	a2,sp,860
e0001c88:	db22573b          	0xdb22573b
e0001c8c:	5f3e                	lw	t5,236(sp)
e0001c8e:	8002                	0x8002
e0001c90:	0000                	unimp
e0001c92:	d390                	sw	a2,32(a5)
e0001c94:	a009ae3b          	0xa009ae3b
e0001c98:	8002673b          	0x8002673b
e0001c9c:	0000                	unimp
e0001c9e:	0000                	unimp
e0001ca0:	3a900953          	0x3a900953
e0001ca4:	6339526f          	jal	tp,e0097ad6 <fromhost+0x87ac6>
e0001ca8:	0000                	unimp
e0001caa:	ec50                	fsw	fa2,28(s0)
e0001cac:	1a58                	addi	a4,sp,308
e0001cae:	6c70                	flw	fa2,92(s0)
e0001cb0:	5b29                	li	s6,-22
e0001cb2:	5639                	li	a2,-18
e0001cb4:	0000                	unimp
e0001cb6:	66e0                	flw	fs0,76(a3)
e0001cb8:	533a                	lw	t1,172(sp)
e0001cba:	0bd318ab          	p.sh	t4,177(t1!) # e0b1 <_stack_len+0x60b1>
e0001cbe:	0190                	addi	a2,sp,192
e0001cc0:	0000                	unimp
e0001cc2:	5330                	lw	a2,96(a4)
e0001cc4:	d410                	sw	a2,40(s0)
e0001cc6:	51305b2f          	0x51305b2f
e0001cca:	0154                	addi	a3,sp,132
e0001ccc:	0000                	unimp
e0001cce:	0a90                	addi	a2,sp,336
e0001cd0:	55a4                	lw	s1,104(a1)
e0001cd2:	7918                	flw	fa4,48(a0)
e0001cd4:	00a1                	addi	ra,ra,8
e0001cd6:	5890                	lw	a2,48(s1)
e0001cd8:	0000                	unimp
e0001cda:	9630                	0x9630
e0001cdc:	2f00                	fld	fs0,24(a4)
e0001cde:	b8a4                	fsd	fs1,112(s1)
e0001ce0:	6ce8                	flw	fa0,92(s1)
e0001ce2:	0ef8                	addi	a4,sp,860
e0001ce4:	0000                	unimp
e0001ce6:	6560                	flw	fs0,76(a0)
e0001ce8:	5ca4                	lw	s1,120(s1)
e0001cea:	e6e8                	fsw	fa0,76(a3)
e0001cec:	188a                	slli	a7,a7,0x22
e0001cee:	6510                	flw	fa2,8(a0)
e0001cf0:	0000                	unimp
e0001cf2:	8190                	0x8190
e0001cf4:	5d60                	lw	s0,124(a0)
e0001cf6:	08a8                	addi	a0,sp,88
e0001cf8:	f801                	bnez	s0,e0001c08 <FLASH_AES_SMOKETEST_SIGNED+0x1678>
e0001cfa:	1884                	addi	s1,sp,112
e0001cfc:	0000                	unimp
e0001cfe:	0ef0                	addi	a2,sp,860
e0001d00:	f3885663          	ble	s8,a6,e000142c <FLASH_AES_SMOKETEST_SIGNED+0xe9c>
e0001d04:	0ef8                	addi	a4,sp,860
e0001d06:	7700                	flw	fs0,40(a4)
e0001d08:	0000                	unimp
e0001d0a:	64e0                	flw	fs0,76(s1)
e0001d0c:	c381928b          	p.lh	t0,-968(gp!)
e0001d10:	ab00                	fsd	fs0,16(a4)
e0001d12:	7ad2                	flw	fs5,52(sp)
e0001d14:	0000                	unimp
e0001d16:	0ef0                	addi	a2,sp,860
e0001d18:	d154                	sw	a3,36(a0)
e0001d1a:	a75c                	fsd	fa5,136(a4)
e0001d1c:	e250                	fsw	fa2,4(a2)
e0001d1e:	db22                	sw	s0,180(sp)
e0001d20:	0000                	unimp
e0001d22:	82c0                	0x82c0
e0001d24:	5170                	lw	a2,100(a0)
e0001d26:	b638e56f          	jal	a0,dff90888 <tohost+0xdff70880>
e0001d2a:	00a1                	addi	ra,ra,8
e0001d2c:	0000                	unimp
e0001d2e:	42a0                	lw	s0,64(a3)
e0001d30:	5851                	li	a6,-12
e0001d32:	9dc4                	0x9dc4
e0001d34:	5131                	li	sp,-20
e0001d36:	5a50                	lw	a2,52(a2)
e0001d38:	0000                	unimp
e0001d3a:	0000                	unimp
e0001d3c:	091a8293          	addi	t0,s5,145 # fffe9091 <pulp__FC+0xfffe9092>
e0001d40:	0ef8                	addi	a4,sp,860
e0001d42:	f100                	fsw	fs0,32(a0)
e0001d44:	0000                	unimp
e0001d46:	6220                	flw	fs0,64(a2)
e0001d48:	8058                	0x8058
e0001d4a:	74d4                	flw	fa3,44(s1)
e0001d4c:	0002                	0x2
e0001d4e:	5930                	lw	a2,112(a0)
e0001d50:	0000                	unimp
e0001d52:	5970                	lw	a2,116(a0)
e0001d54:	b401                	j	e0001754 <FLASH_AES_SMOKETEST_SIGNED+0x11c4>
e0001d56:	91b4                	0x91b4
e0001d58:	6510                	flw	fa2,8(a0)
e0001d5a:	0ef4                	addi	a3,sp,860
e0001d5c:	0000                	unimp
e0001d5e:	1880                	addi	s0,sp,112
e0001d60:	3500                	fld	fs0,40(a0)
e0001d62:	5a209e43          	fmadd.d	ft8,ft1,ft2,fa1,rtz
e0001d66:	0ef8                	addi	a4,sp,860
e0001d68:	0000                	unimp
e0001d6a:	1880                	addi	s0,sp,112
e0001d6c:	0efa                	slli	t4,t4,0x1e
e0001d6e:	fe40                	fsw	fs0,60(a2)
e0001d70:	5136                	lw	sp,108(sp)
e0001d72:	ad50                	fsd	fa2,152(a0)
e0001d74:	0000                	unimp
e0001d76:	5310                	lw	a2,32(a4)
e0001d78:	d152                	sw	s4,160(sp)
e0001d7a:	0a9c                	addi	a5,sp,336
e0001d7c:	9282                	jalr	t0
e0001d7e:	4591                	li	a1,4
e0001d80:	0000                	unimp
e0001d82:	6500                	flw	fs0,8(a0)
e0001d84:	5170                	lw	a2,100(a0)
e0001d86:	b638e56f          	jal	a0,dff908e8 <tohost+0xdff708e0>
e0001d8a:	00a1                	addi	ra,ra,8
e0001d8c:	0000                	unimp
e0001d8e:	42a0                	lw	s0,64(a3)
e0001d90:	5851                	li	a6,-12
e0001d92:	1ff4                	addi	a3,sp,1020
e0001d94:	5131                	li	sp,-20
e0001d96:	2e50                	fld	fa2,152(a2)
e0001d98:	0000                	unimp
e0001d9a:	0000                	unimp
e0001d9c:	f00a8293          	addi	t0,s5,-256
e0001da0:	0ef8                	addi	a4,sp,860
e0001da2:	b100                	fsd	fs0,32(a0)
e0001da4:	0000                	unimp
e0001da6:	6220                	flw	fs0,64(a2)
e0001da8:	5458                	lw	a4,44(s0)
e0001daa:	f6e4                	fsw	fs1,108(a3)
e0001dac:	0002                	0x2
e0001dae:	5930                	lw	a2,112(a0)
e0001db0:	0000                	unimp
e0001db2:	5970                	lw	a2,116(a0)
e0001db4:	7401                	lui	s0,0xfffe0
e0001db6:	d8a4                	sw	s1,112(s1)
e0001db8:	6510                	flw	fa2,8(a0)
e0001dba:	0ef4                	addi	a3,sp,860
e0001dbc:	0000                	unimp
e0001dbe:	1880                	addi	s0,sp,112
e0001dc0:	f500                	fsw	fs0,40(a0)
e0001dc2:	5912                	lw	s2,36(sp)
e0001dc4:	5a20                	lw	s0,112(a2)
e0001dc6:	0ef8                	addi	a4,sp,860
e0001dc8:	0000                	unimp
e0001dca:	1880                	addi	s0,sp,112
e0001dcc:	0efa                	slli	t4,t4,0x1e
e0001dce:	fe40                	fsw	fs0,60(a2)
e0001dd0:	5136                	lw	sp,108(sp)
e0001dd2:	ad50                	fsd	fa2,152(a0)
e0001dd4:	0000                	unimp
e0001dd6:	5310                	lw	a2,32(a4)
e0001dd8:	c134                	sw	a3,64(a0)
e0001dda:	fe40                	fsw	fs0,60(a2)
e0001ddc:	4012                	0x4012
e0001dde:	5014                	lw	a3,32(s0)
e0001de0:	0000                	unimp
e0001de2:	2500                	fld	fs0,8(a0)
e0001de4:	0002                	0x2
e0001de6:	dc70                	sw	a2,124(s0)
e0001de8:	cc10                	sw	a2,24(s0)
e0001dea:	9174                	0x9174
e0001dec:	0000                	unimp
e0001dee:	1810                	addi	a2,sp,48
e0001df0:	6561000f          	0x6561000f
e0001df4:	5090                	lw	a2,32(s1)
e0001df6:	b174                	fsd	fa3,224(a0)
e0001df8:	0000                	unimp
e0001dfa:	9130                	0x9130
e0001dfc:	0002                	0x2
e0001dfe:	7b20                	flw	fs0,112(a4)
e0001e00:	10b0                	addi	a2,sp,104
e0001e02:	9971                	andi	a0,a0,-4
e0001e04:	0000                	unimp
e0001e06:	b130                	fsd	fa2,96(a0)
e0001e08:	dff1000f          	0xdff1000f
e0001e0c:	2c98                	fld	fa4,24(s1)
e0001e0e:	a974                	fsd	fa3,208(a0)
e0001e10:	0000                	unimp
e0001e12:	9930                	0x9930
e0001e14:	08c0                	addi	s0,sp,84
e0001e16:	b000                	fsd	fs0,32(s0)
e0001e18:	eca8                	fsw	fa0,88(s1)
e0001e1a:	4b30                	lw	a2,80(a4)
e0001e1c:	0000                	unimp
e0001e1e:	a930                	fsd	fa2,80(a0)
e0001e20:	1b40                	addi	s0,sp,436
e0001e22:	6c70                	flw	fa2,92(s0)
e0001e24:	004c                	addi	a1,sp,4
e0001e26:	6330                	flw	fa2,64(a4)
e0001e28:	0000                	unimp
e0001e2a:	5830                	lw	a2,112(s0)
e0001e2c:	5a58                	lw	a4,52(a2)
e0001e2e:	8e40                	0x8e40
e0001e30:	0064                	addi	s1,sp,12
e0001e32:	c630                	sw	a2,72(a2)
e0001e34:	0000                	unimp
e0001e36:	d030                	sw	a2,96(s0)
e0001e38:	00a0                	addi	s0,sp,72
e0001e3a:	7c70                	flw	fa2,124(s0)
e0001e3c:	5018                	lw	a4,32(s0)
e0001e3e:	963c                	0x963c
e0001e40:	0000                	unimp
e0001e42:	9050                	0x9050
e0001e44:	5560                	lw	s0,108(a0)
e0001e46:	08a8                	addi	a0,sp,88
e0001e48:	f63a                	fsw	fa4,44(sp)
e0001e4a:	00a1                	addi	ra,ra,8
e0001e4c:	0000                	unimp
e0001e4e:	8050                	0x8050
e0001e50:	e4dc6833          	0xe4dc6833
e0001e54:	0ef4                	addi	a3,sp,860
e0001e56:	3900                	fld	fs0,48(a0)
e0001e58:	0000                	unimp
e0001e5a:	5810                	lw	a2,48(s0)
e0001e5c:	6228                	flw	fa0,64(a2)
e0001e5e:	78a8                	flw	fa0,112(s1)
e0001e60:	58d0                	lw	a2,52(s1)
e0001e62:	55a4                	lw	s1,104(a1)
e0001e64:	0000                	unimp
e0001e66:	0040                	addi	s0,sp,4
e0001e68:	3a9a0353          	0x3a9a0353
e0001e6c:	0ef8                	addi	a4,sp,860
e0001e6e:	2900                	fld	fs0,16(a0)
e0001e70:	0000                	unimp
e0001e72:	76a0                	flw	fs0,104(a3)
e0001e74:	0ef8                	addi	a4,sp,860
e0001e76:	f8a1                	bnez	s1,e0001dc6 <FLASH_AES_SMOKETEST_SIGNED+0x1836>
e0001e78:	6510                	flw	fa2,8(a0)
e0001e7a:	5ce4                	lw	s1,124(s1)
e0001e7c:	0000                	unimp
e0001e7e:	1880                	addi	s0,sp,112
e0001e80:	7500                	flw	fs0,40(a0)
e0001e82:	d002                	sw	zero,32(sp)
e0001e84:	0ef01883          	lh	a7,239(zero) # ef <_min_stack-0x1f11>
e0001e88:	0000                	unimp
e0001e8a:	f200                	fsw	fs0,32(a2)
e0001e8c:	6510                	flw	fa2,8(a0)
e0001e8e:	16e4                	addi	s1,sp,876
e0001e90:	004c                	addi	a1,sp,4
e0001e92:	1880                	addi	s0,sp,112
e0001e94:	0000                	unimp
e0001e96:	b830                	fsd	fa2,112(s0)
e0001e98:	5e401883          	lh	a7,1508(zero) # 5e4 <_min_stack-0x1a1c>
e0001e9c:	0ef8                	addi	a4,sp,860
e0001e9e:	de01                	beqz	a2,e0001db6 <FLASH_AES_SMOKETEST_SIGNED+0x1826>
e0001ea0:	0000                	unimp
e0001ea2:	5ca0                	lw	s0,120(s1)
e0001ea4:	0ef8                	addi	a4,sp,860
e0001ea6:	3750                	fld	fa2,168(a4)
e0001ea8:	65e8                	flw	fa0,76(a1)
e0001eaa:	6ea8                	flw	fa0,88(a3)
e0001eac:	0000                	unimp
e0001eae:	5a20                	lw	s0,112(a2)
e0001eb0:	be30                	fsd	fa2,120(a2)
e0001eb2:	fdc1                	bnez	a1,e0001e4a <FLASH_AES_SMOKETEST_SIGNED+0x18ba>
e0001eb4:	5052                	0x5052
e0001eb6:	4054                	lw	a3,4(s0)
e0001eb8:	0000                	unimp
e0001eba:	5b00                	lw	s0,48(a4)
e0001ebc:	531c                	lw	a5,32(a4)
e0001ebe:	1e46                	slli	t3,t3,0x31
e0001ec0:	905f 5118 0000      	0x5118905f
e0001ec6:	9940                	0x9940
e0001ec8:	7f00                	flw	fs0,56(a4)
e0001eca:	3381                	jal	e0001c0a <FLASH_AES_SMOKETEST_SIGNED+0x167a>
e0001ecc:	ad50                	fsd	fa2,152(a0)
e0001ece:	0efa                	slli	t4,t4,0x1e
e0001ed0:	0000                	unimp
e0001ed2:	5130                	lw	a2,96(a0)
e0001ed4:	c9e5                	beqz	a1,e0001fc4 <FLASH_AES_SMOKETEST_SIGNED+0x1a34>
e0001ed6:	c915                	beqz	a0,e0001f0a <FLASH_AES_SMOKETEST_SIGNED+0x197a>
e0001ed8:	dfe4                	sw	s1,124(a5)
e0001eda:	d0e4                	sw	s1,100(s1)
e0001edc:	0000                	unimp
e0001ede:	5050                	lw	a2,36(s0)
e0001ee0:	ade5                	j	e00025d8 <FLASH_AES_SMOKETEST_SIGNED+0x2048>
e0001ee2:	dc75                	beqz	s0,e0001ede <FLASH_AES_SMOKETEST_SIGNED+0x194e>
e0001ee4:	bbe5                	j	e0001cdc <FLASH_AES_SMOKETEST_SIGNED+0x174c>
e0001ee6:	b4e5                	j	e00019ce <FLASH_AES_SMOKETEST_SIGNED+0x143e>
e0001ee8:	0000                	unimp
e0001eea:	c2e0                	sw	s0,68(a3)
e0001eec:	0012                	0x12
e0001eee:	6751                	lui	a4,0x14
e0001ef0:	9fe5                	0x9fe5
e0001ef2:	9035                	srli	s0,s0,0x2d
e0001ef4:	0000                	unimp
e0001ef6:	a6e0                	fsd	fs0,200(a3)
e0001ef8:	0812                	slli	a6,a6,0x4
e0001efa:	3381                	jal	e0001c3a <FLASH_AES_SMOKETEST_SIGNED+0x16aa>
e0001efc:	0412                	slli	s0,s0,0x4
e0001efe:	4031                	0x4031
e0001f00:	0000                	unimp
e0001f02:	4830                	lw	a2,80(s0)
e0001f04:	0826                	slli	a6,a6,0x9
e0001f06:	6238                	flw	fa4,64(a2)
e0001f08:	0c12                	slli	s8,s8,0x4
e0001f0a:	1511                	addi	a0,a0,-28
e0001f0c:	0000                	unimp
e0001f0e:	0830                	addi	a2,sp,24
e0001f10:	011c                	addi	a5,sp,128
e0001f12:	6c7a                	flw	fs8,156(sp)
e0001f14:	601c                	flw	fa5,0(s0)
e0001f16:	1884                	addi	s1,sp,112
e0001f18:	0000                	unimp
e0001f1a:	5810                	lw	a2,48(s0)
e0001f1c:	9058                	0x9058
e0001f1e:	11bc                	addi	a5,sp,232
e0001f20:	5324                	lw	s1,96(a4)
e0001f22:	0828                	addi	a0,sp,24
e0001f24:	0000                	unimp
e0001f26:	60d0                	flw	fa2,4(s1)
e0001f28:	a050                	fsd	fa2,128(s0)
e0001f2a:	7ff8                	flw	fa4,124(a5)
e0001f2c:	6034                	flw	fa3,64(s0)
e0001f2e:	845a                	mv	s0,s6
e0001f30:	0000                	unimp
e0001f32:	10c0                	addi	s0,sp,100
e0001f34:	9f0d                	0x9f0d
e0001f36:	256d                	jal	e00025e0 <FLASH_AES_SMOKETEST_SIGNED+0x2050>
e0001f38:	621d                	lui	tp,0x7
e0001f3a:	9f06                	add	t5,t5,ra
e0001f3c:	0000                	unimp
e0001f3e:	e6d0                	fsw	fa2,12(a3)
e0001f40:	8c5a                	mv	s8,s6
e0001f42:	fa90                	fsw	fa2,48(a3)
e0001f44:	6194                	flw	fa3,0(a1)
e0001f46:	0234                	addi	a3,sp,264
e0001f48:	0000                	unimp
e0001f4a:	10c0                	addi	s0,sp,100
e0001f4c:	9050                	0x9050
e0001f4e:	8008                	0x8008
e0001f50:	5034                	lw	a3,96(s0)
e0001f52:	845a                	mv	s0,s6
e0001f54:	0000                	unimp
e0001f56:	10c0                	addi	s0,sp,100
e0001f58:	8300                	0x8300
e0001f5a:	501daa97          	auipc	s5,0x501da
e0001f5e:	6134                	flw	fa3,64(a0)
e0001f60:	0000                	unimp
e0001f62:	d6d0                	sw	a2,44(a3)
e0001f64:	50d8                	lw	a4,36(s1)
e0001f66:	6384                	flw	fs1,0(a5)
e0001f68:	9f0d                	0x9f0d
e0001f6a:	082d                	addi	a6,a6,11
e0001f6c:	0000                	unimp
e0001f6e:	9f00                	0x9f00
e0001f70:	7930                	flw	fa2,112(a0)
e0001f72:	7138775b          	p.mac.zh.sh	a4,a6,s3,s8
e0001f76:	00000153          	fadd.s	ft2,ft0,ft0,rne
e0001f7a:	0820                	addi	s0,sp,24
e0001f7c:	5634                	lw	a3,104(a2)
e0001f7e:	7239                	lui	tp,0xfffee
e0001f80:	fd90                	fsw	fa2,56(a1)
e0001f82:	70d8                	flw	fa4,36(s1)
e0001f84:	0000                	unimp
e0001f86:	0150                	addi	a2,sp,132
e0001f88:	045a                	slli	s0,s0,0x16
e0001f8a:	9560                	0x9560
e0001f8c:	6911                	lui	s2,0x4
e0001f8e:	803e                	0x803e
e0001f90:	0000                	unimp
e0001f92:	0070                	addi	a2,sp,12
e0001f94:	2190                	fld	fa2,0(a1)
e0001f96:	538e                	lw	t2,224(sp)
e0001f98:	f634                	fsw	fa3,104(a2)
e0001f9a:	ef81                	bnez	a5,e0001fb2 <FLASH_AES_SMOKETEST_SIGNED+0x1a22>
e0001f9c:	0000                	unimp
e0001f9e:	7850                	flw	fa2,52(s0)
e0001fa0:	0052                	0x52
e0001fa2:	9000                	0x9000
e0001fa4:	bfd4                	fsd	fa3,184(a5)
e0001fa6:	283c                	fld	fa5,80(s0)
e0001fa8:	0000                	unimp
e0001faa:	99c0                	0x99c0
e0001fac:	76e00177          	0x76e00177
e0001fb0:	842a                	mv	s0,a0
e0001fb2:	7930                	flw	fa2,112(a0)
e0001fb4:	0000                	unimp
e0001fb6:	7030                	flw	fa2,96(s0)
e0001fb8:	8034                	0x8034
e0001fba:	391a                	fld	fs2,416(sp)
e0001fbc:	3fd4                	fld	fa3,184(a5)
e0001fbe:	198c                	addi	a1,sp,240
e0001fc0:	0000                	unimp
e0001fc2:	7390                	flw	fa2,32(a5)
e0001fc4:	59c0                	lw	s0,52(a1)
e0001fc6:	de44                	sw	s1,60(a2)
e0001fc8:	8930                	0x8930
e0001fca:	00000377          	0x377
e0001fce:	0450                	addi	a2,sp,516
e0001fd0:	a910fc77          	0xa910fc77
e0001fd4:	0281                	addi	t0,t0,0
e0001fd6:	7130                	flw	fa2,96(a0)
e0001fd8:	0000                	unimp
e0001fda:	7130                	flw	fa2,96(a0)
e0001fdc:	8830                	0x8830
e0001fde:	2c7a                	fld	fs8,408(sp)
e0001fe0:	1176                	slli	sp,sp,0x3d
e0001fe2:	7a20                	flw	fs0,112(a2)
e0001fe4:	0000                	unimp
e0001fe6:	7330                	flw	fa2,96(a4)
e0001fe8:	40063337          	lui	t1,0x40063
e0001fec:	7930                	flw	fa2,112(a0)
e0001fee:	007f                	0x7f
e0001ff0:	0000                	unimp
e0001ff2:	1450                	addi	a2,sp,548
e0001ff4:	1d89                	addi	s11,s11,-30
e0001ff6:	3560                	fld	fs0,232(a0)
e0001ff8:	5dc0                	lw	s0,60(a1)
e0001ffa:	7134                	flw	fa3,96(a0)
e0001ffc:	0000                	unimp
e0001ffe:	0f70                	addi	a2,sp,924
e0002000:	7fd0                	flw	fa2,60(a5)
e0002002:	9911                	andi	a0,a0,-28
e0002004:	7338                	flw	fa4,96(a4)
e0002006:	0e36                	slli	t3,t3,0xd
e0002008:	0000                	unimp
e000200a:	3450                	fld	fa2,168(s0)
e000200c:	9750017b          	lp.starti	x2,e00012f6 <FLASH_AES_SMOKETEST_SIGNED+0xd66>
e0002010:	105a                	0x105a
e0002012:	7930                	flw	fa2,112(a0)
e0002014:	0000                	unimp
e0002016:	8830                	0x8830
e0002018:	ff88                	fsw	fa0,56(a5)
e000201a:	291f f5d0 7938      	0x7938f5d0291f
e0002020:	0000                	unimp
e0002022:	7be0                	flw	fs0,116(a5)
e0002024:	f5d0                	fsw	fa2,44(a1)
e0002026:	1758                	addi	a4,sp,932
e0002028:	7ae0017b          	lp.starti	x2,e0002f84 <FLASH_AES_SMOKETEST_SIGNED+0x29f4>
e000202c:	0000                	unimp
e000202e:	7930                	flw	fa2,112(a0)
e0002030:	6e2a                	flw	ft8,136(sp)
e0002032:	4910                	lw	a2,16(a0)
e0002034:	6e2a                	flw	ft8,136(sp)
e0002036:	a230                	fsd	fa2,64(a2)
e0002038:	0000                	unimp
e000203a:	a230                	fsd	fa2,64(a2)
e000203c:	783c                	flw	fa5,112(s0)
e000203e:	cff8                	sw	a4,92(a5)
e0002040:	f7c4                	fsw	fs1,44(a5)
e0002042:	bc15                	j	e0001a76 <FLASH_AES_SMOKETEST_SIGNED+0x14e6>
e0002044:	0000                	unimp
e0002046:	1180                	addi	s0,sp,224
e0002048:	7860                	flw	fs0,116(s0)
e000204a:	c910                	sw	a2,16(a0)
e000204c:	2830                	fld	fa2,80(s0)
e000204e:	185c                	addi	a5,sp,52
e0002050:	0000                	unimp
e0002052:	1950                	addi	a2,sp,180
e0002054:	057e                	slli	a0,a0,0x1f
e0002056:	c910                	sw	a2,16(a0)
e0002058:	fe7f                	0xfe7f
e000205a:	7b30                	flw	fa2,112(a4)
e000205c:	0000                	unimp
e000205e:	7930                	flw	fa2,112(a0)
e0002060:	1a5c                	addi	a5,sp,308
e0002062:	e910                	fsw	fa2,16(a0)
e0002064:	f3cd                	bnez	a5,e0002006 <FLASH_AES_SMOKETEST_SIGNED+0x1a76>
e0002066:	583d                	li	a6,-17
e0002068:	0000                	unimp
e000206a:	f3c0                	fsw	fs0,36(a5)
e000206c:	f6c0                	fsw	fs0,44(a3)
e000206e:	300d                	jal	e0001890 <FLASH_AES_SMOKETEST_SIGNED+0x1300>
e0002070:	5934                	lw	a3,112(a0)
e0002072:	015c                	addi	a5,sp,132
e0002074:	0000                	unimp
e0002076:	1180                	addi	s0,sp,224
e0002078:	8934                	0x8934
e000207a:	7230                	flw	fa2,96(a2)
e000207c:	2089                	jal	e00020be <FLASH_AES_SMOKETEST_SIGNED+0x1b2e>
e000207e:	5810                	lw	a2,48(s0)
e0002080:	0000                	unimp
e0002082:	c630                	sw	a2,72(a2)
e0002084:	0b60                	addi	s0,sp,412
e0002086:	3000                	fld	fs0,32(s0)
e0002088:	11c0                	addi	s0,sp,228
e000208a:	7334                	flw	fa3,96(a4)
e000208c:	0000                	unimp
e000208e:	2000                	fld	fs0,0(s0)
e0002090:	3d80                	fld	fs0,56(a1)
e0002092:	a4dc                	fsd	fa5,136(s1)
e0002094:	7ae4                	flw	fs1,116(a3)
e0002096:	5919                	li	s2,-26
e0002098:	0000                	unimp
e000209a:	3180                	fld	fs0,32(a1)
e000209c:	6134                	flw	fa3,64(a0)
e000209e:	dc70                	sw	a2,124(s0)
e00020a0:	f159                	bnez	a0,e0002026 <FLASH_AES_SMOKETEST_SIGNED+0x1a96>
e00020a2:	581f 0000 9e30      	0x9e300000581f
e00020a8:	11c0                	addi	s0,sp,228
e00020aa:	1384                	addi	s1,sp,480
e00020ac:	8930                	0x8930
e00020ae:	2000                	fld	fs0,0(s0)
e00020b0:	0000                	unimp
e00020b2:	2060                	fld	fs0,192(s0)
e00020b4:	7ae4                	flw	fs1,116(a3)
e00020b6:	fc79                	bnez	s0,e0002094 <FLASH_AES_SMOKETEST_SIGNED+0x1b04>
e00020b8:	0b60                	addi	s0,sp,412
e00020ba:	3180                	fld	fs0,32(a1)
e00020bc:	0000                	unimp
e00020be:	7330                	flw	fa2,96(a4)
e00020c0:	f159                	bnez	a0,e0002046 <FLASH_AES_SMOKETEST_SIGNED+0x1ab6>
e00020c2:	d75f 3d80 9e3d      	0x9e3d3d80d75f
e00020c8:	0000                	unimp
e00020ca:	5910                	lw	a2,48(a0)
e00020cc:	10c0                	addi	s0,sp,100
e00020ce:	a6e4                	fsd	fs1,200(a3)
e00020d0:	6634                	flw	fa3,72(a2)
e00020d2:	2b80                	fld	fs0,16(a5)
e00020d4:	0000                	unimp
e00020d6:	5850                	lw	a2,52(s0)
e00020d8:	e6d8                	fsw	fa4,12(a3)
e00020da:	f1bd                	bnez	a1,e0002040 <FLASH_AES_SMOKETEST_SIGNED+0x1ab0>
e00020dc:	845a                	mv	s0,s6
e00020de:	a050                	fsd	fa2,128(s0)
e00020e0:	0000                	unimp
e00020e2:	6030                	flw	fa2,64(s0)
e00020e4:	593c                	lw	a5,112(a0)
e00020e6:	ec78                	fsw	fa4,92(s0)
e00020e8:	6014                	flw	fa3,0(s0)
e00020ea:	1f84                	addi	s1,sp,1008
e00020ec:	0000                	unimp
e00020ee:	2980                	fld	fs0,16(a1)
e00020f0:	7b34                	flw	fa3,112(a4)
e00020f2:	4ff8                	lw	a4,92(a5)
e00020f4:	6b10                	flw	fa2,16(a4)
e00020f6:	1184                	addi	s1,sp,224
e00020f8:	0000                	unimp
e00020fa:	0460                	addi	s0,sp,524
e00020fc:	6119                	addi	sp,sp,384
e00020fe:	e1b0                	fsw	fa2,64(a1)
e0002100:	39c0                	fld	fs0,176(a1)
e0002102:	7324                	flw	fs1,96(a4)
e0002104:	0000                	unimp
e0002106:	0c50                	addi	a2,sp,532
e0002108:	701f 1384 9e3c      	0x9e3c1384701f
e000210e:	ed61                	bnez	a0,e00021e6 <FLASH_AES_SMOKETEST_SIGNED+0x1c56>
e0002110:	0000                	unimp
e0002112:	73c0                	flw	fs0,36(a5)
e0002114:	2835                	jal	e0002150 <FLASH_AES_SMOKETEST_SIGNED+0x1bc0>
e0002116:	d75c                	sw	a5,44(a4)
e0002118:	0828                	addi	a0,sp,24
e000211a:	f3c8                	fsw	fa0,36(a5)
e000211c:	0000                	unimp
e000211e:	53a0                	lw	s0,96(a5)
e0002120:	7350                	flw	fa2,36(a4)
e0002122:	2e44                	fld	fs1,152(a2)
e0002124:	3130                	fld	fa2,96(a0)
e0002126:	017f                	0x17f
e0002128:	0000                	unimp
e000212a:	1850                	addi	a2,sp,52
e000212c:	195c                	addi	a5,sp,180
e000212e:	54d0                	lw	a2,44(s1)
e0002130:	e629                	bnez	a2,e000217a <FLASH_AES_SMOKETEST_SIGNED+0x1bea>
e0002132:	0000583f 6f588e30 	0x6f588e300000583f
e000213a:	275f b858 ee38      	0xee38b858275f
e0002140:	0000                	unimp
e0002142:	3850                	fld	fa2,176(s0)
e0002144:	5834                	lw	a3,112(s0)
e0002146:	0a92                	slli	s5,s5,0x4
e0002148:	110c915b          	p.macun	sp,s9,a6,8
e000214c:	0000                	unimp
e000214e:	7c50                	flw	fa2,60(s0)
e0002150:	5b90                	lw	a2,48(a5)
e0002152:	8ff4                	0x8ff4
e0002154:	6930                	flw	fa2,80(a0)
e0002156:	015f 0000 8460      	0x84600000015f
e000215c:	9850                	0x9850
e000215e:	d1b8                	sw	a4,96(a1)
e0002160:	583c                	lw	a5,112(s0)
e0002162:	8462                	mv	s0,s8
e0002164:	0000                	unimp
e0002166:	6850                	flw	fa2,20(s0)
e0002168:	a6cd                	j	e000254a <FLASH_AES_SMOKETEST_SIGNED+0x1fba>
e000216a:	1e4d                	addi	t3,t3,-13
e000216c:	5a1d                	li	s4,-25
e000216e:	a6c6                	fsd	fa7,328(sp)
e0002170:	0000                	unimp
e0002172:	ded0                	sw	a2,60(a3)
e0002174:	8c5a                	mv	s8,s6
e0002176:	fa90                	fsw	fa2,48(a3)
e0002178:	6194                	flw	fa3,0(a1)
e000217a:	0234                	addi	a3,sp,264
e000217c:	0000                	unimp
e000217e:	10c0                	addi	s0,sp,100
e0002180:	9850                	0x9850
e0002182:	0238                	addi	a4,sp,264
e0002184:	5834                	lw	a3,112(s0)
e0002186:	8452                	mv	s0,s4
e0002188:	0000                	unimp
e000218a:	1080                	addi	s0,sp,96
e000218c:	58da                	lw	a7,180(sp)
e000218e:	e914                	fsw	fa3,16(a0)
e0002190:	581d                	li	a6,-25
e0002192:	0114                	addi	a3,sp,128
e0002194:	0000                	unimp
e0002196:	ded0                	sw	a2,60(a3)
e0002198:	114c                	addi	a1,sp,164
e000219a:	16e4                	addi	s1,sp,876
e000219c:	0828                	addi	a0,sp,24
e000219e:	9058                	0x9058
e00021a0:	0000                	unimp
e00021a2:	52e0                	lw	s0,100(a3)
e00021a4:	35601067          	0x35601067
e00021a8:	846a                	mv	s0,s10
e00021aa:	7130                	flw	fa2,96(a0)
e00021ac:	0000                	unimp
e00021ae:	6030                	flw	fa2,64(s0)
e00021b0:	6014                	flw	fa3,0(s0)
e00021b2:	c234                	sw	a3,64(a2)
e00021b4:	3154                	fld	fa3,160(a0)
e00021b6:	198c                	addi	a1,sp,240
e00021b8:	0000                	unimp
e00021ba:	6390                	flw	fa2,0(a5)
e00021bc:	1184                	addi	s1,sp,224
e00021be:	3914                	fld	fa3,48(a0)
e00021c0:	591c                	lw	a5,48(a0)
e00021c2:	6b10                	flw	fa2,16(a4)
e00021c4:	0000                	unimp
e00021c6:	af80                	fsd	fs0,24(a5)
e00021c8:	7324                	flw	fs1,96(a4)
e00021ca:	b239                	j	e0001ad8 <FLASH_AES_SMOKETEST_SIGNED+0x1548>
e00021cc:	0c58                	addi	a4,sp,532
e00021ce:	39c0                	fld	fs0,176(a1)
e00021d0:	0000                	unimp
e00021d2:	7b30                	flw	fa2,112(a4)
e00021d4:	ed61                	bnez	a0,e00022ac <FLASH_AES_SMOKETEST_SIGNED+0x1d1c>
e00021d6:	34df f3c0 9e3c      	0x9e3cf3c034df
e00021dc:	0000                	unimp
e00021de:	6110                	flw	fa2,0(a0)
e00021e0:	5324                	lw	s1,96(a4)
e00021e2:	c4d8                	sw	a4,12(s1)
e00021e4:	0114                	addi	a3,sp,128
e00021e6:	60da                	flw	ft1,148(sp)
e00021e8:	0000                	unimp
e00021ea:	6010                	flw	fa2,0(s0)
e00021ec:	6930                	flw	fa2,80(a0)
e00021ee:	61389e4b          	fnmsub.s	ft8,fa7,fs3,fa2,rtz
e00021f2:	00000153          	fadd.s	ft2,ft0,ft0,rne
e00021f6:	0820                	addi	s0,sp,24
e00021f8:	69d4                	flw	fa3,20(a1)
e00021fa:	14de                	slli	s1,s1,0x37
e00021fc:	ed10                	fsw	fa2,24(a0)
e00021fe:	60d8                	flw	fa4,4(s1)
e0002200:	0000                	unimp
e0002202:	0150                	addi	a2,sp,132
e0002204:	7130                	flw	fa2,96(a0)
e0002206:	6034f8a7          	0x6034f8a7
e000220a:	846a                	mv	s0,s10
e000220c:	0000                	unimp
e000220e:	1140                	addi	s0,sp,164
e0002210:	2f4c                	fld	fa1,152(a4)
e0002212:	bc75                	j	e0001cce <FLASH_AES_SMOKETEST_SIGNED+0x173e>
e0002214:	6350                	flw	fa2,4(a4)
e0002216:	3054                	fld	fa3,160(s0)
e0002218:	0000                	unimp
e000221a:	0860                	addi	s0,sp,28
e000221c:	6b10                	flw	fa2,16(a4)
e000221e:	e234                	fsw	fa3,64(a2)
e0002220:	1944                	addi	s1,sp,180
e0002222:	591c                	lw	a5,48(a0)
e0002224:	0000                	unimp
e0002226:	6010                	flw	fa2,0(s0)
e0002228:	7b35                	lui	s6,0xfffed
e000222a:	6dc8                	flw	fa0,28(a1)
e000222c:	7324                	flw	fs1,96(a4)
e000222e:	7389                	lui	t2,0xfffe2
e0002230:	0000                	unimp
e0002232:	1180                	addi	s0,sp,224
e0002234:	9e3c                	0x9e3c
e0002236:	41b1                	li	gp,12
e0002238:	6110                	flw	fa2,0(a0)
e000223a:	3980                	fld	fs0,48(a1)
e000223c:	0000                	unimp
e000223e:	0c50                	addi	a2,sp,532
e0002240:	0828                	addi	a0,sp,24
e0002242:	d568                	sw	a0,108(a0)
e0002244:	601f 5324 0000      	0x5324601f
e000224a:	ed60                	fsw	fs0,92(a0)
e000224c:	a0000163          	beqz	zero,e000144e <FLASH_AES_SMOKETEST_SIGNED+0xebe>
e0002250:	71300153          	0x71300153
e0002254:	0000                	unimp
e0002256:	6930                	flw	fa2,80(a0)
e0002258:	699e                	flw	fs3,196(sp)
e000225a:	9384                	0x9384
e000225c:	68d8                	flw	fa4,20(s1)
e000225e:	33d4                	fld	fa3,160(a5)
e0002260:	0000                	unimp
e0002262:	f550                	fsw	fa2,44(a0)
e0002264:	6970                	flw	fa2,84(a0)
e0002266:	1912                	slli	s2,s2,0x24
e0002268:	0b6e                	slli	s6,s6,0x1b
e000226a:	58a0                	lw	s0,112(s1)
e000226c:	0000                	unimp
e000226e:	e630                	fsw	fa2,72(a2)
e0002270:	5b61                	li	s6,-8
e0002272:	4759                	li	a4,22
e0002274:	6930                	flw	fa2,80(a0)
e0002276:	7668                	flw	fa0,108(a2)
e0002278:	0000                	unimp
e000227a:	0000                	unimp
e000227c:	5034                	lw	a3,96(s0)
e000227e:	0002                	0x2
e0002280:	5824                	lw	s1,112(s0)
e0002282:	1088                	addi	a0,sp,96
e0002284:	0000                	unimp
e0002286:	18c0                	addi	s0,sp,116
e0002288:	0914                	addi	a3,sp,144
e000228a:	375a                	fld	fa4,432(sp)
e000228c:	0810                	addi	a2,sp,16
e000228e:	6b5a                	flw	fs6,148(sp)
e0002290:	0000                	unimp
e0002292:	8450                	0x8450
e0002294:	1050                	addi	a2,sp,36
e0002296:	e238                	fsw	fa4,64(a2)
e0002298:	5034                	lw	a3,96(s0)
e000229a:	8452                	mv	s0,s4
e000229c:	0000                	unimp
e000229e:	1080                	addi	s0,sp,96
e00022a0:	8452                	mv	s0,s4
e00022a2:	ab20                	fsd	fs0,80(a4)
e00022a4:	108a                	slli	ra,ra,0x22
e00022a6:	5034                	lw	a3,96(s0)
e00022a8:	0000                	unimp
e00022aa:	80d0                	0x80d0
e00022ac:	5034                	lw	a3,96(s0)
e00022ae:	0dc2                	slli	s11,s11,0x10
e00022b0:	0258                	addi	a4,sp,260
e00022b2:	108a                	slli	ra,ra,0x22
e00022b4:	0000                	unimp
e00022b6:	1090                	addi	a2,sp,96
e00022b8:	108a                	slli	ra,ra,0x22
e00022ba:	4a94                	lw	a3,16(a3)
e00022bc:	10d0                	addi	a2,sp,100
e00022be:	8398                	0x8398
e00022c0:	0000                	unimp
e00022c2:	8450                	0x8450
e00022c4:	8118                	0x8118
e00022c6:	fffa                	fsw	ft10,252(sp)
e00022c8:	8452                	mv	s0,s4
e00022ca:	1110                	addi	a2,sp,160
e00022cc:	0000                	unimp
e00022ce:	5030                	lw	a2,96(s0)
e00022d0:	1190                	addi	a2,sp,224
e00022d2:	11b8                	addi	a4,sp,232
e00022d4:	5034                	lw	a3,96(s0)
e00022d6:	8452                	mv	s0,s4
e00022d8:	0000                	unimp
e00022da:	1080                	addi	s0,sp,96
e00022dc:	8452                	mv	s0,s4
e00022de:	7ff0                	flw	fa2,124(a5)
e00022e0:	108a                	slli	ra,ra,0x22
e00022e2:	5034                	lw	a3,96(s0)
e00022e4:	0000                	unimp
e00022e6:	0290                	addi	a2,sp,320
e00022e8:	0238                	addi	a4,sp,264
e00022ea:	5b20                	lw	s0,112(a4)
e00022ec:	6818                	flw	fa4,16(s0)
e00022ee:	9054                	0x9054
e00022f0:	0000                	unimp
e00022f2:	1150                	addi	a2,sp,164
e00022f4:	1018                	addi	a4,sp,32
e00022f6:	a6e1                	j	e00026be <FLASH_AES_SMOKETEST_SIGNED+0x212e>
e00022f8:	5360                	lw	s0,100(a4)
e00022fa:	0828                	addi	a0,sp,24
e00022fc:	0000                	unimp
e00022fe:	0a60                	addi	s0,sp,284
e0002300:	4000513f 0001517c 	0x1517c4000513f
e0002308:	0000                	unimp
e000230a:	e060                	fsw	fs0,68(s0)
e000230c:	0f2c                	addi	a1,sp,920
e000230e:	5234                	lw	a3,96(a2)
e0002310:	108c                	addi	a1,sp,96
e0002312:	5094                	lw	a3,32(s1)
e0002314:	0000                	unimp
e0002316:	be50                	fsd	fa2,184(a2)
e0002318:	5175                	li	sp,-3
e000231a:	06f6f233          	0x6f6f233
e000231e:	7601                	lui	a2,0xfffe0
e0002320:	0000                	unimp
e0002322:	1050                	addi	a2,sp,36
e0002324:	108e                	slli	ra,ra,0x23
e0002326:	7234                	flw	fa3,96(a2)
e0002328:	5130                	lw	a2,96(a0)
e000232a:	d650                	sw	a2,44(a2)
e000232c:	0000                	unimp
e000232e:	0000                	unimp
e0002330:	5131                	li	sp,-20
e0002332:	d750                	sw	a2,44(a4)
e0002334:	517c                	lw	a5,100(a0)
e0002336:	0000000f          	fence	unknown,unknown
e000233a:	9110                	0x9110
e000233c:	1054                	addi	a3,sp,36
e000233e:	7386                	flw	ft7,96(sp)
e0002340:	581d                	li	a6,-25
e0002342:	0f24                	addi	s1,sp,920
e0002344:	0000                	unimp
e0002346:	ba50                	fsd	fa2,176(a2)
e0002348:	0002                	0x2
e000234a:	7c70                	flw	fa2,124(s0)
e000234c:	ea00                	fsw	fs0,16(a2)
e000234e:	00005977          	0x5977
e0002352:	06f0                	addi	a2,sp,844
e0002354:	6510                	flw	fa2,8(a0)
e0002356:	9914                	0x9914
e0002358:	6058                	flw	fa4,4(s0)
e000235a:	00000283          	lb	t0,0(zero) # 0 <_min_stack-0x2000>
e000235e:	5930                	lw	a2,112(a0)
e0002360:	0ef0                	addi	a2,sp,860
e0002362:	46e0                	lw	s0,76(a3)
e0002364:	b001                	j	e0001b64 <FLASH_AES_SMOKETEST_SIGNED+0x15d4>
e0002366:	0280                	addi	s0,sp,320
e0002368:	0000                	unimp
e000236a:	0ef0                	addi	a2,sp,860
e000236c:	0826                	slli	a6,a6,0x9
e000236e:	cff8                	sw	a4,92(a5)
e0002370:	10540f27          	0x10540f27
e0002374:	0000                	unimp
e0002376:	3200                	fld	fs0,32(a2)
e0002378:	226d                	jal	e0002522 <FLASH_AES_SMOKETEST_SIGNED+0x1f92>
e000237a:	ba9d                	j	e0001cf0 <FLASH_AES_SMOKETEST_SIGNED+0x1760>
e000237c:	422d6067          	0x422d6067
e0002380:	0000                	unimp
e0002382:	1790                	addi	a2,sp,992
e0002384:	5450                	lw	a2,44(s0)
e0002386:	511d94d3          	0x511d94d3
e000238a:	5136                	lw	sp,108(sp)
e000238c:	0000                	unimp
e000238e:	04a0                	addi	s0,sp,584
e0002390:	f1b00003          	lb	zero,-229(zero) # ffffff1b <pulp__FC+0xffffff1c>
e0002394:	5200                	lw	s0,32(a2)
e0002396:	5176                	lw	sp,124(sp)
e0002398:	0000                	unimp
e000239a:	0ef0                	addi	a2,sp,860
e000239c:	9174                	0x9174
e000239e:	68508c73          	0x68508c73
e00023a2:	108e                	slli	ra,ra,0x23
e00023a4:	0000                	unimp
e00023a6:	5130                	lw	a2,96(a0)
e00023a8:	497e                	lw	s2,220(sp)
e00023aa:	6382                	flw	ft7,0(sp)
e00023ac:	9130                	0x9130
e00023ae:	7e90                	flw	fa2,56(a3)
e00023b0:	0000                	unimp
e00023b2:	0000                	unimp
e00023b4:	91de                	add	gp,gp,s7
e00023b6:	14dc                	addi	a5,sp,612
e00023b8:	4930                	lw	a2,80(a0)
e00023ba:	3e48                	fld	fa0,184(a2)
e00023bc:	0000                	unimp
e00023be:	0000                	unimp
e00023c0:	0c00                	addi	s0,sp,528
e00023c2:	d564                	sw	s1,108(a0)
e00023c4:	5032                	0x5032
e00023c6:	0092                	slli	ra,ra,0x4
e00023c8:	0000                	unimp
e00023ca:	8fd0                	0x8fd0
e00023cc:	5131                	li	sp,-20
e00023ce:	d750                	sw	a2,44(a4)
e00023d0:	517c                	lw	a5,100(a0)
e00023d2:	0000000f          	fence	unknown,unknown
e00023d6:	9110                	0x9110
e00023d8:	0ef8                	addi	a4,sp,860
e00023da:	1ff0                	addi	a2,sp,1020
e00023dc:	585d                	li	a6,-9
e00023de:	6224                	flw	fs1,64(a2)
e00023e0:	0000                	unimp
e00023e2:	6650                	flw	fa2,12(a2)
e00023e4:	0002                	0x2
e00023e6:	7b20                	flw	fs0,112(a4)
e00023e8:	597a8297          	auipc	t0,0x597a8
e00023ec:	0000                	unimp
e00023ee:	8400                	0x8400
e00023f0:	6518                	flw	fa4,8(a0)
e00023f2:	0b24                	addi	s1,sp,408
e00023f4:	0c58                	addi	a4,sp,532
e00023f6:	000050a3          	p.sh	zero,ra(zero)
e00023fa:	5930                	lw	a2,112(a0)
e00023fc:	5a28                	lw	a0,112(a2)
e00023fe:	c6e8                	sw	a0,76(a3)
e0002400:	4801                	li	a6,0
e0002402:	50a0                	lw	s0,96(s1)
e0002404:	0000                	unimp
e0002406:	0ef0                	addi	a2,sp,860
e0002408:	11f0                	addi	a2,sp,236
e000240a:	a23c                	fsd	fa5,64(a2)
e000240c:	c800                	sw	s0,16(s0)
e000240e:	5376                	lw	t1,124(sp)
e0002410:	0000                	unimp
e0002412:	0ef0                	addi	a2,sp,860
e0002414:	d155                	beqz	a0,e00023b8 <FLASH_AES_SMOKETEST_SIGNED+0x1e28>
e0002416:	f4dc                	fsw	fa5,44(s1)
e0002418:	0ef0                	addi	a2,sp,860
e000241a:	ea00                	fsw	fs0,16(a2)
e000241c:	0000                	unimp
e000241e:	82c0                	0x82c0
e0002420:	9110                	0x9110
e0002422:	3e4c                	fld	fa1,184(a2)
e0002424:	5038                	lw	a4,96(s0)
e0002426:	0092                	slli	ra,ra,0x4
e0002428:	0000                	unimp
e000242a:	42a0                	lw	s0,64(a3)
e000242c:	3c50                	fld	fa2,184(s0)
e000242e:	ee4d                	bnez	a2,e00024e8 <FLASH_AES_SMOKETEST_SIGNED+0x1f58>
e0002430:	5131000f          	0x5131000f
e0002434:	0000                	unimp
e0002436:	5170                	lw	a2,100(a0)
e0002438:	4600                	lw	s0,8(a2)
e000243a:	62242dc7          	fmsub.d	fs11,fs0,ft2,fa2,rdn
e000243e:	0ef8                	addi	a4,sp,860
e0002440:	0000                	unimp
e0002442:	5850                	lw	a2,52(s0)
e0002444:	5930                	lw	a2,112(a0)
e0002446:	adc8                	fsd	fa0,152(a1)
e0002448:	597a                	lw	s2,188(sp)
e000244a:	0002                	0x2
e000244c:	0000                	unimp
e000244e:	8290                	0x8290
e0002450:	0ef4                	addi	a3,sp,860
e0002452:	fa91                	bnez	a3,e0002366 <FLASH_AES_SMOKETEST_SIGNED+0x1dd6>
e0002454:	50a2                	lw	ra,40(sp)
e0002456:	6518                	flw	fa4,8(a0)
e0002458:	0000                	unimp
e000245a:	e250                	fsw	fa2,4(a2)
e000245c:	0ef8                	addi	a4,sp,860
e000245e:	a000                	fsd	fs0,0(s0)
e0002460:	50a0                	lw	s0,96(s1)
e0002462:	5a28                	lw	a0,112(a2)
e0002464:	0000                	unimp
e0002466:	0a00                	addi	s0,sp,272
e0002468:	ad50                	fsd	fa2,152(a0)
e000246a:	b75a                	fsd	fs6,424(sp)
e000246c:	5316                	lw	t1,100(sp)
e000246e:	5136                	lw	sp,108(sp)
e0002470:	0000                	unimp
e0002472:	8a00                	0x8a00
e0002474:	b310                	fsd	fa2,32(a4)
e0002476:	4002                	0x4002
e0002478:	50a2                	lw	ra,40(sp)
e000247a:	82c8                	0x82c8
e000247c:	0000                	unimp
e000247e:	b6d0                	fsd	fa2,168(a3)
e0002480:	0450                	addi	a2,sp,516
e0002482:	975c                	0x975c
e0002484:	0001                	nop
e0002486:	0000513f e5005170 	0xe50051700000513f
e000248e:	6618f917          	auipc	s2,0x6618f
e0002492:	0ef4                	addi	a3,sp,860
e0002494:	0000                	unimp
e0002496:	58a0                	lw	s0,112(s1)
e0002498:	517c                	lw	a5,100(a0)
e000249a:	86e0                	0x86e0
e000249c:	004c                	addi	a1,sp,4
e000249e:	11d0                	addi	a2,sp,228
e00024a0:	0000                	unimp
e00024a2:	5030                	lw	a2,96(s0)
e00024a4:	5971                	li	s2,-4
e00024a6:	0ff2                	slli	t6,t6,0x1c
e00024a8:	5130                	lw	a2,96(a0)
e00024aa:	3a50                	fld	fa2,176(a2)
e00024ac:	0000                	unimp
e00024ae:	0000                	unimp
e00024b0:	6131                	addi	sp,sp,320
e00024b2:	2750                	fld	fa2,136(a4)
e00024b4:	5930                	lw	a2,112(a0)
e00024b6:	2058                	fld	fa4,128(s0)
e00024b8:	0000                	unimp
e00024ba:	0000                	unimp
e00024bc:	7814                	flw	fa3,48(s0)
e00024be:	1c74                	addi	a3,sp,572
e00024c0:	7051                	0x7051
e00024c2:	6814                	flw	fa3,16(s0)
e00024c4:	0000                	unimp
e00024c6:	0000                	unimp
e00024c8:	4001                	0x4001
e00024ca:	6ff5                	lui	t6,0x1d
e00024cc:	1801                	addi	a6,a6,-32
e00024ce:	0ef2                	slli	t4,t4,0x1c
e00024d0:	0000                	unimp
e00024d2:	0ef0                	addi	a2,sp,860
e00024d4:	5032                	0x5032
e00024d6:	08a2                	slli	a7,a7,0x8
e00024d8:	501a                	0x501a
e00024da:	a114                	fsd	fa3,0(a0)
e00024dc:	0000                	unimp
e00024de:	0190                	addi	a2,sp,192
e00024e0:	ac71000f          	0xac71000f
e00024e4:	9090                	0x9090
e00024e6:	517c                	lw	a5,100(a0)
e00024e8:	0000                	unimp
e00024ea:	0090                	addi	a2,sp,64
e00024ec:	0ef4                	addi	a3,sp,860
e00024ee:	1000                	addi	s0,sp,32
e00024f0:	d450                	sw	a2,44(s0)
e00024f2:	581c                	lw	a5,48(s0)
e00024f4:	0000                	unimp
e00024f6:	5130                	lw	a2,96(a0)
e00024f8:	0002                	0x2
e00024fa:	38a0                	fld	fs0,112(s1)
e00024fc:	8216                	mv	tp,t0
e00024fe:	597a                	lw	s2,188(sp)
e0002500:	0000                	unimp
e0002502:	cc00                	sw	s0,24(s0)
e0002504:	6518                	flw	fa4,8(a0)
e0002506:	8914                	0x8914
e0002508:	7c58                	flw	fa4,60(s0)
e000250a:	50a2                	lw	ra,40(sp)
e000250c:	0000                	unimp
e000250e:	5930                	lw	a2,112(a0)
e0002510:	0ef8                	addi	a4,sp,860
e0002512:	5c70                	lw	a2,124(s0)
e0002514:	9100                	0x9100
e0002516:	000050a7          	0x50a7
e000251a:	0ef0                	addi	a2,sp,860
e000251c:	ad50                	fsd	fa2,152(a0)
e000251e:	a75a                	fsd	fs6,392(sp)
e0002520:	5316                	lw	t1,100(sp)
e0002522:	5136                	lw	sp,108(sp)
e0002524:	0000                	unimp
e0002526:	1200                	addi	s0,sp,288
e0002528:	4225                	li	tp,9
e000252a:	a1b5                	j	e0002996 <FLASH_AES_SMOKETEST_SIGNED+0x2406>
e000252c:	9022                	0x9022
e000252e:	4925                	li	s2,9
e0002530:	0000                	unimp
e0002532:	3890                	fld	fa2,48(s1)
e0002534:	1018                	addi	a4,sp,32
e0002536:	34d1                	jal	e0001ffa <FLASH_AES_SMOKETEST_SIGNED+0x1a6a>
e0002538:	1455                	addi	s0,s0,-11
e000253a:	0826                	slli	a6,a6,0x9
e000253c:	0000                	unimp
e000253e:	0b20                	addi	s0,sp,408
e0002540:	597c                	lw	a5,116(a0)
e0002542:	7381                	lui	t2,0xfffe0
e0002544:	c22c                	sw	a1,64(a2)
e0002546:	a26c                	fsd	fa1,192(a2)
e0002548:	0000                	unimp
e000254a:	e060                	fsw	fs0,68(s0)
e000254c:	7000537b          	lp.setupi	x6,1792,e000254c <FLASH_AES_SMOKETEST_SIGNED+0x1fbc>
e0002550:	2258593f 00000000 	0x2258593f
e0002558:	4975                	li	s2,29
e000255a:	0efca383          	lw	t2,239(s9)
e000255e:	c500                	sw	s0,8(a0)
e0002560:	0000                	unimp
e0002562:	0000                	unimp
e0002564:	d05d                	beqz	s0,e000250a <FLASH_AES_SMOKETEST_SIGNED+0x1f7a>
e0002566:	b56c                	fsd	fa1,232(a0)
e0002568:	4930                	lw	a2,80(a0)
e000256a:	5648                	lw	a0,44(a2)
e000256c:	0000                	unimp
e000256e:	0000                	unimp
e0002570:	517c                	lw	a5,100(a0)
e0002572:	191f 0888 9114      	0x91140888191f
e0002578:	0000                	unimp
e000257a:	42a0                	lw	s0,64(a3)
e000257c:	585c                	lw	a5,52(s0)
e000257e:	0234                	addi	a3,sp,264
e0002580:	5131                	li	sp,-20
e0002582:	8650                	0x8650
e0002584:	0000                	unimp
e0002586:	0000                	unimp
e0002588:	8216                	mv	tp,t0
e000258a:	e75a                	fsw	fs6,140(sp)
e000258c:	0ef8                	addi	a4,sp,860
e000258e:	6800                	flw	fs0,16(s0)
e0002590:	0000                	unimp
e0002592:	6220                	flw	fs0,64(a2)
e0002594:	2c58                	fld	fa4,152(s0)
e0002596:	bff2                	fsd	ft8,504(sp)
e0002598:	0002                	0x2
e000259a:	5930                	lw	a2,112(a0)
e000259c:	0000                	unimp
e000259e:	5970                	lw	a2,116(a0)
e00025a0:	2d00                	fld	fs0,24(a0)
e00025a2:	65180237          	lui	tp,0x65180
e00025a6:	0ef4                	addi	a3,sp,860
e00025a8:	0000                	unimp
e00025aa:	50a0                	lw	s0,96(s1)
e00025ac:	5312                	lw	t1,36(sp)
e00025ae:	ddc6                	sw	a7,248(sp)
e00025b0:	5a28                	lw	a0,112(a2)
e00025b2:	3758                	fld	fa4,168(a4)
e00025b4:	0000                	unimp
e00025b6:	50a0                	lw	s0,96(s1)
e00025b8:	5172                	lw	sp,60(sp)
e00025ba:	ad507563          	bleu	s5,zero,e0001884 <FLASH_AES_SMOKETEST_SIGNED+0x12f4>
e00025be:	9f9a                	add	t6,t6,t1
e00025c0:	0000                	unimp
e00025c2:	5130                	lw	a2,96(a0)
e00025c4:	108d                	addi	ra,ra,-29
e00025c6:	11b4                	addi	a3,sp,232
e00025c8:	5130                	lw	a2,96(a0)
e00025ca:	0a50                	addi	a2,sp,276
e00025cc:	0000                	unimp
e00025ce:	0000                	unimp
e00025d0:	f858                	fsw	fa4,52(s0)
e00025d2:	68ac                	flw	fa1,80(s1)
e00025d4:	59300003          	lb	zero,1427(zero) # 593 <_min_stack-0x1a6d>
e00025d8:	0000                	unimp
e00025da:	5970                	lw	a2,116(a0)
e00025dc:	402c                	lw	a1,64(s0)
e00025de:	84dc                	0x84dc
e00025e0:	02a4                	addi	s1,sp,328
e00025e2:	22ec                	fld	fa1,192(a3)
e00025e4:	0000                	unimp
e00025e6:	18c0                	addi	s0,sp,116
e00025e8:	0001                	nop
e00025ea:	62a4d1bf 0000517c 	0x517c62a4d1bf
e00025f2:	5050                	lw	a2,36(s0)
e00025f4:	0ef8                	addi	a4,sp,860
e00025f6:	0a90                	addi	a2,sp,336
e00025f8:	b450                	fsd	fa2,168(s0)
e00025fa:	58aa                	lw	a7,168(sp)
e00025fc:	0000                	unimp
e00025fe:	5130                	lw	a2,96(a0)
e0002600:	0888                	addi	a0,sp,80
e0002602:	3e44                	fld	fs1,184(a2)
e0002604:	d055                	beqz	s0,e00025a8 <FLASH_AES_SMOKETEST_SIGNED+0x2018>
e0002606:	42ac                	lw	a1,64(a3)
e0002608:	0000                	unimp
e000260a:	6700                	flw	fs0,8(a4)
e000260c:	5131                	li	sp,-20
e000260e:	d750                	sw	a2,44(a4)
e0002610:	517c                	lw	a5,100(a0)
e0002612:	0000000f          	fence	unknown,unknown
e0002616:	9110                	0x9110
e0002618:	0ef8                	addi	a4,sp,860
e000261a:	0ff0                	addi	a2,sp,988
e000261c:	585c                	lw	a5,52(s0)
e000261e:	6224                	flw	fs1,64(a2)
e0002620:	0000                	unimp
e0002622:	3650                	fld	fa2,168(a2)
e0002624:	0002                	0x2
e0002626:	e380                	fsw	fs0,0(a5)
e0002628:	8216                	mv	tp,t0
e000262a:	597a                	lw	s2,188(sp)
e000262c:	0000                	unimp
e000262e:	0400                	addi	s0,sp,512
e0002630:	6518                	flw	fa4,8(a0)
e0002632:	31b4                	fld	fa3,96(a1)
e0002634:	dc58                	sw	a4,60(s0)
e0002636:	50a1                	li	ra,-24
e0002638:	0000                	unimp
e000263a:	5930                	lw	a2,112(a0)
e000263c:	5a28                	lw	a0,112(a2)
e000263e:	2758                	fld	fa4,136(a4)
e0002640:	c900                	sw	s0,16(a0)
e0002642:	50a6                	lw	ra,104(sp)
e0002644:	0000                	unimp
e0002646:	0ef0                	addi	a2,sp,860
e0002648:	ad50                	fsd	fa2,152(a0)
e000264a:	b00a                	fsd	ft2,32(sp)
e000264c:	5312                	lw	t1,36(sp)
e000264e:	5136                	lw	sp,108(sp)
e0002650:	0000                	unimp
e0002652:	3a10                	fld	fa2,48(a2)
e0002654:	5a90513f 00015172 	0x151725a90513f
e000265c:	0000                	unimp
e000265e:	9ad0                	0x9ad0
e0002660:	4d26                	lw	s10,72(sp)
e0002662:	bff4                	fsd	fa3,248(a5)
e0002664:	0efa                	slli	t4,t4,0x1e
e0002666:	1000                	addi	s0,sp,32
e0002668:	0000                	unimp
e000266a:	6e50                	flw	fa2,28(a2)
e000266c:	0826                	slli	a6,a6,0x9
e000266e:	cdc8                	sw	a0,28(a1)
e0002670:	0f24                	addi	s1,sp,920
e0002672:	1054                	addi	a3,sp,36
e0002674:	0000                	unimp
e0002676:	4620                	lw	s0,72(a2)
e0002678:	a26c                	fsd	fa1,192(a2)
e000267a:	b56c                	fsd	fa1,232(a0)
e000267c:	e061                	bnez	s0,e000273c <FLASH_AES_SMOKETEST_SIGNED+0x21ac>
e000267e:	c22c                	sw	a1,64(a2)
e0002680:	0000                	unimp
e0002682:	1010                	addi	a2,sp,32
e0002684:	0efa                	slli	t4,t4,0x1e
e0002686:	26e1                	jal	e0002a4e <FLASH_AES_SMOKETEST_SIGNED+0x24be>
e0002688:	4136                	lw	sp,76(sp)
e000268a:	ad50                	fsd	fa2,152(a0)
e000268c:	0000                	unimp
e000268e:	5310                	lw	a2,32(a4)
e0002690:	0cff                	0xcff
e0002692:	7b2a                	flw	fs6,168(sp)
e0002694:	d110                	sw	a2,32(a0)
e0002696:	0efc                	addi	a5,sp,860
e0002698:	0000                	unimp
e000269a:	4900                	lw	s0,16(a0)
e000269c:	5090                	lw	a2,32(s1)
e000269e:	4c7e                	lw	s8,220(sp)
e00026a0:	0efc                	addi	a5,sp,860
e00026a2:	4101                	li	sp,0
e00026a4:	0000                	unimp
e00026a6:	9190                	0x9190
e00026a8:	021a                	slli	tp,tp,0x6
e00026aa:	900a                	0x900a
e00026ac:	4136                	lw	sp,76(sp)
e00026ae:	ad50                	fsd	fa2,152(a0)
e00026b0:	0000                	unimp
e00026b2:	5310                	lw	a2,32(a4)
e00026b4:	5170                	lw	a2,100(a0)
e00026b6:	41362c73          	csrrs	s8,0x413,a2
e00026ba:	0d50                	addi	a2,sp,660
e00026bc:	0000                	unimp
e00026be:	5250                	lw	a2,36(a2)
e00026c0:	108c                	addi	a1,sp,96
e00026c2:	3e44                	fld	fs1,184(a2)
e00026c4:	5130                	lw	a2,96(a0)
e00026c6:	4e50                	lw	a2,28(a2)
e00026c8:	0000                	unimp
e00026ca:	0000                	unimp
e00026cc:	4930                	lw	a2,80(a0)
e00026ce:	56e8                	lw	a0,108(a3)
e00026d0:	497c                	lw	a5,84(a0)
e00026d2:	0002                	0x2
e00026d4:	0000                	unimp
e00026d6:	5210                	lw	a2,32(a2)
e00026d8:	1110                	addi	a2,sp,160
e00026da:	4b2c                	lw	a1,80(a4)
e00026dc:	503c                	lw	a5,96(s0)
e00026de:	014c                	addi	a1,sp,132
e00026e0:	0000                	unimp
e00026e2:	2a40                	fld	fs0,144(a2)
e00026e4:	5130                	lw	a2,96(a0)
e00026e6:	b4d0                	fsd	fa2,168(s1)
e00026e8:	00035173          	csrrwi	sp,0x0,6
e00026ec:	0000                	unimp
e00026ee:	5dd0                	lw	a2,60(a1)
e00026f0:	9094                	0x9094
e00026f2:	891c                	0x891c
e00026f4:	108c                	addi	a1,sp,96
e00026f6:	0c44                	addi	s1,sp,532
e00026f8:	0000                	unimp
e00026fa:	5250                	lw	a2,36(a2)
e00026fc:	ac50                	fsd	fa2,152(s0)
e00026fe:	000f11bb          	0xf11bb
e0002702:	5131                	li	sp,-20
e0002704:	0000                	unimp
e0002706:	5170                	lw	a2,100(a0)
e0002708:	8212                	mv	tp,tp
e000270a:	523a                	lw	tp,172(sp)
e000270c:	6264                	flw	fs1,68(a2)
e000270e:	39d8                	fld	fa4,176(a1)
e0002710:	0000                	unimp
e0002712:	5850                	lw	a2,52(s0)
e0002714:	5458                	lw	a4,44(s0)
e0002716:	3dc1                	jal	e00025e6 <FLASH_AES_SMOKETEST_SIGNED+0x2056>
e0002718:	0002                	0x2
e000271a:	5930                	lw	a2,112(a0)
e000271c:	0000                	unimp
e000271e:	5970                	lw	a2,116(a0)
e0002720:	2d00                	fld	fs0,24(a0)
e0002722:	8c76                	mv	s8,t4
e0002724:	6518                	flw	fa4,8(a0)
e0002726:	0ef4                	addi	a3,sp,860
e0002728:	0000                	unimp
e000272a:	50a0                	lw	s0,96(s1)
e000272c:	8012                	0x8012
e000272e:	c1b2                	sw	a2,192(sp)
e0002730:	5a68                	lw	a0,116(a2)
e0002732:	1758                	addi	a4,sp,932
e0002734:	0000                	unimp
e0002736:	50a0                	lw	s0,96(s1)
e0002738:	4624                	lw	s1,72(a2)
e000273a:	7e44                	flw	fs1,60(a2)
e000273c:	6c58                	flw	fa4,28(s0)
e000273e:	4d22                	lw	s10,8(sp)
e0002740:	0000                	unimp
e0002742:	5220                	lw	s0,96(a2)
e0002744:	0828                	addi	a0,sp,24
e0002746:	f758                	fsw	fa4,44(a4)
e0002748:	1054                	addi	a3,sp,36
e000274a:	0826                	slli	a6,a6,0x9
e000274c:	0000                	unimp
e000274e:	0f20                	addi	s0,sp,920
e0002750:	d3800003          	lb	zero,-712(zero) # fffffd38 <pulp__FC+0xfffffd39>
e0002754:	e061                	bnez	s0,e0002814 <FLASH_AES_SMOKETEST_SIGNED+0x2284>
e0002756:	517c                	lw	a5,100(a0)
e0002758:	0000                	unimp
e000275a:	1010                	addi	a2,sp,32
e000275c:	d014                	sw	a3,32(s0)
e000275e:	600e                	flw	ft0,192(sp)
e0002760:	0850                	addi	a2,sp,20
e0002762:	108c                	addi	a1,sp,96
e0002764:	0000                	unimp
e0002766:	5130                	lw	a2,96(a0)
e0002768:	e058                	fsw	fa4,4(s0)
e000276a:	3dc1                	jal	e000263a <FLASH_AES_SMOKETEST_SIGNED+0x20aa>
e000276c:	0002                	0x2
e000276e:	5930                	lw	a2,112(a0)
e0002770:	0000                	unimp
e0002772:	5970                	lw	a2,116(a0)
e0002774:	f500                	fsw	fs0,40(a0)
e0002776:	96e5                	srai	a3,a3,0x39
e0002778:	6510                	flw	fa2,8(a0)
e000277a:	0ef4                	addi	a3,sp,860
e000277c:	0000                	unimp
e000277e:	0280                	addi	s0,sp,320
e0002780:	517a                	lw	sp,188(sp)
e0002782:	34df 99d0 0392      	0x39299d034df
e0002788:	0000                	unimp
e000278a:	0280                	addi	s0,sp,320
e000278c:	1564581b          	0x1564581b
e0002790:	5131                	li	sp,-20
e0002792:	6250                	flw	fa2,4(a2)
e0002794:	0000                	unimp
e0002796:	0000                	unimp
e0002798:	1a92                	slli	s5,s5,0x24
e000279a:	8e42                	mv	t3,a6
e000279c:	5012                	0x5012
e000279e:	8a14                	0x8a14
e00027a0:	0000                	unimp
e00027a2:	3290                	fld	fa2,32(a3)
e00027a4:	d3800003          	lb	zero,-712(zero) # fffffd38 <pulp__FC+0xfffffd39>
e00027a8:	e061                	bnez	s0,e0002868 <FLASH_AES_SMOKETEST_SIGNED+0x22d8>
e00027aa:	517c                	lw	a5,100(a0)
e00027ac:	0000                	unimp
e00027ae:	1010                	addi	a2,sp,32
e00027b0:	d014                	sw	a3,32(s0)
e00027b2:	8b2e                	mv	s6,a1
e00027b4:	d050                	sw	a2,36(s0)
e00027b6:	0000108b          	p.lh	ra,0(zero!) # 0 <_min_stack-0x2000>
e00027ba:	5130                	lw	a2,96(a0)
e00027bc:	bc58                	fsd	fa4,184(s0)
e00027be:	8b21                	andi	a4,a4,8
e00027c0:	0002                	0x2
e00027c2:	5930                	lw	a2,112(a0)
e00027c4:	0000                	unimp
e00027c6:	5970                	lw	a2,116(a0)
e00027c8:	bd00                	fsd	fs0,56(a0)
e00027ca:	eb25                	bnez	a4,e000283a <FLASH_AES_SMOKETEST_SIGNED+0x22aa>
e00027cc:	6510                	flw	fa2,8(a0)
e00027ce:	0ef4                	addi	a3,sp,860
e00027d0:	0000                	unimp
e00027d2:	0280                	addi	s0,sp,320
e00027d4:	517a                	lw	sp,188(sp)
e00027d6:	93d031bf 00000392 	0x39293d031bf
e00027de:	0280                	addi	s0,sp,320
e00027e0:	41b4581b          	0x41b4581b
e00027e4:	5131                	li	sp,-20
e00027e6:	3e50                	fld	fa2,184(a2)
e00027e8:	0000                	unimp
e00027ea:	0000                	unimp
e00027ec:	9092                	add	ra,ra,tp
e00027ee:	c6e2                	sw	s8,76(sp)
e00027f0:	5012                	0x5012
e00027f2:	0054                	addi	a3,sp,4
e00027f4:	0000                	unimp
e00027f6:	9c90                	0x9c90
e00027f8:	0894                	addi	a3,sp,80
e00027fa:	7562                	flw	fa0,56(sp)
e00027fc:	6061                	0x6061
e00027fe:	505c                	lw	a5,36(s0)
e0002800:	0000                	unimp
e0002802:	1410                	addi	a2,sp,544
e0002804:	8814                	0x8814
e0002806:	0a92                	slli	s5,s5,0x4
e0002808:	0154                	addi	a3,sp,132
e000280a:	5052                	0x5052
e000280c:	0000                	unimp
e000280e:	5050                	lw	a2,36(s0)
e0002810:	0b24                	addi	s1,sp,408
e0002812:	1b24                	addi	s1,sp,440
e0002814:	49fe                	lw	s3,220(sp)
e0002816:	501e                	0x501e
e0002818:	0000                	unimp
e000281a:	0ef0                	addi	a2,sp,860
e000281c:	521c                	lw	a5,32(a2)
e000281e:	8a94                	0x8a94
e0002820:	0820                	addi	s0,sp,24
e0002822:	5098                	lw	a4,32(s1)
e0002824:	0000                	unimp
e0002826:	1410                	addi	a2,sp,544
e0002828:	5218                	lw	a4,32(a2)
e000282a:	5e44                	lw	s1,60(a2)
e000282c:	0052                	0x52
e000282e:	00000823          	sb	zero,16(zero) # 10 <_min_stack-0x1ff0>
e0002832:	0730                	addi	a2,sp,904
e0002834:	5198                	lw	a4,32(a1)
e0002836:	fdcc                	fsw	fa1,60(a1)
e0002838:	08230053          	fsub.s	ft0,ft6,ft2,rne
e000283c:	0000                	unimp
e000283e:	0730                	addi	a2,sp,904
e0002840:	0738                	addi	a4,sp,904
e0002842:	edc2                	fsw	fa6,216(sp)
e0002844:	5136                	lw	sp,108(sp)
e0002846:	0050                	addi	a2,sp,4
e0002848:	0000                	unimp
e000284a:	5050                	lw	a2,36(s0)
e000284c:	5136                	lw	sp,108(sp)
e000284e:	b1b0                	fsd	fa2,96(a1)
e0002850:	50580823          	sb	t0,1296(a6)
e0002854:	0000                	unimp
e0002856:	0450                	addi	a2,sp,516
e0002858:	26e80823          	sb	a4,624(a6)
e000285c:	0738                	addi	a4,sp,904
e000285e:	00000453          	fadd.s	fs0,ft0,ft0,rne
e0002862:	0050                	addi	a2,sp,4
e0002864:	0730                	addi	a2,sp,904
e0002866:	6ff2                	flw	ft11,28(sp)
e0002868:	513c                	lw	a5,96(a0)
e000286a:	8000                	0x8000
e000286c:	0000                	unimp
e000286e:	5110                	lw	a2,32(a0)
e0002870:	8000                	0x8000
e0002872:	d8a0                	sw	s0,112(s1)
e0002874:	51380823          	sb	s3,1296(a6)
e0002878:	0000                	unimp
e000287a:	0450                	addi	a2,sp,516
e000287c:	5098                	lw	a4,32(s1)
e000287e:	11bc                	addi	a5,sp,232
e0002880:	08230453          	fsub.s	fs0,ft6,ft2,rne
e0002884:	0000                	unimp
e0002886:	0730                	addi	a2,sp,904
e0002888:	8b280823          	sb	s2,-1872(a6)
e000288c:	0734                	addi	a3,sp,904
e000288e:	0452                	slli	s0,s0,0x14
e0002890:	0000                	unimp
e0002892:	5210                	lw	a2,32(a2)
e0002894:	29180823          	sb	a7,656(a6)
e0002898:	0734                	addi	a3,sp,904
e000289a:	00000453          	fadd.s	fs0,ft0,ft0,rne
e000289e:	5210                	lw	a2,32(a2)
e00028a0:	226d                	jal	e0002a4a <FLASH_AES_SMOKETEST_SIGNED+0x24ba>
e00028a2:	ba9d                	j	e0002218 <FLASH_AES_SMOKETEST_SIGNED+0x1c88>
e00028a4:	422d6067          	0x422d6067
e00028a8:	0000                	unimp
e00028aa:	1790                	addi	a2,sp,992
e00028ac:	9aa8                	0x9aa8
e00028ae:	5388                	lw	a0,32(a5)
e00028b0:	e4ed                	bnez	s1,e000299a <FLASH_AES_SMOKETEST_SIGNED+0x240a>
e00028b2:	92ec                	0x92ec
e00028b4:	0000                	unimp
e00028b6:	04a0                	addi	s0,sp,584
e00028b8:	5972                	lw	s2,60(sp)
e00028ba:	4aa2f8a3          	0x4aa2f8a3
e00028be:	e618                	fsw	fa4,8(a2)
e00028c0:	0000                	unimp
e00028c2:	64d0                	flw	fa2,12(s1)
e00028c4:	48a418cb          	fnmsub.s	fa7,fs0,fa0,fs1,rtz
e00028c8:	5930                	lw	a2,112(a0)
e00028ca:	1658                	addi	a4,sp,804
e00028cc:	0000                	unimp
e00028ce:	0000                	unimp
e00028d0:	d561000f          	0xd561000f
e00028d4:	18d8                	addi	a4,sp,116
e00028d6:	517c                	lw	a5,100(a0)
e00028d8:	0000                	unimp
e00028da:	42a0                	lw	s0,64(a3)
e00028dc:	64e4                	flw	fs1,76(s1)
e00028de:	f568                	fsw	fa0,108(a0)
e00028e0:	ac50                	fsd	fa2,152(s0)
e00028e2:	591a                	lw	s2,164(sp)
e00028e4:	0000                	unimp
e00028e6:	5130                	lw	a2,96(a0)
e00028e8:	9f28                	0x9f28
e00028ea:	fc74                	fsw	fa3,124(s0)
e00028ec:	7268                	flw	fa0,100(a2)
e00028ee:	7a28                	flw	fa0,112(a2)
e00028f0:	0000                	unimp
e00028f2:	6ca0                	flw	fs0,88(s1)
e00028f4:	0b25                	addi	s6,s6,9
e00028f6:	d385                	beqz	a5,e0002816 <FLASH_AES_SMOKETEST_SIGNED+0x2286>
e00028f8:	4925                	li	s2,9
e00028fa:	4225                	li	tp,9
e00028fc:	0000                	unimp
e00028fe:	9020                	0x9020
e0002900:	0002                	0x2
e0002902:	76e0                	flw	fs0,108(a3)
e0002904:	9216                	add	tp,tp,t0
e0002906:	597a                	lw	s2,188(sp)
e0002908:	0000                	unimp
e000290a:	1450                	addi	a2,sp,548
e000290c:	6510                	flw	fa2,8(a0)
e000290e:	9914                	0x9914
e0002910:	6058                	flw	fa4,4(s0)
e0002912:	00000283          	lb	t0,0(zero) # 0 <_min_stack-0x2000>
e0002916:	5930                	lw	a2,112(a0)
e0002918:	5ce0                	lw	s0,124(s1)
e000291a:	64d8                	flw	fa4,12(s1)
e000291c:	e100                	fsw	fs0,0(a0)
e000291e:	0284                	addi	s1,sp,320
e0002920:	0000                	unimp
e0002922:	0ef0                	addi	a2,sp,860
e0002924:	ea98                	fsw	fa4,16(a3)
e0002926:	98a2                	add	a7,a7,s0
e0002928:	6a68                	flw	fa0,84(a2)
e000292a:	7228                	flw	fa0,96(a2)
e000292c:	0000                	unimp
e000292e:	64a0                	flw	fs0,72(s1)
e0002930:	4225                	li	tp,9
e0002932:	78a5                	lui	a7,0xfffe9
e0002934:	9024                	0x9024
e0002936:	4925                	li	s2,9
e0002938:	0000                	unimp
e000293a:	9f20                	0x9f20
e000293c:	1418                	addi	a4,sp,544
e000293e:	4001                	0x4001
e0002940:	1455                	addi	s0,s0,-11
e0002942:	0826                	slli	a6,a6,0x9
e0002944:	0000                	unimp
e0002946:	0b20                	addi	s0,sp,408
e0002948:	5ad8                	lw	a4,52(a3)
e000294a:	4c74                	lw	a3,92(s0)
e000294c:	e15c                	fsw	fa5,4(a0)
e000294e:	97d2                	add	a5,a5,s4
e0002950:	0000                	unimp
e0002952:	6060                	flw	fs0,68(s0)
e0002954:	5970                	lw	a2,116(a0)
e0002956:	4382                	lw	t2,0(sp)
e0002958:	2a5e                	fld	fs4,464(sp)
e000295a:	50a0                	lw	s0,96(s1)
e000295c:	0000                	unimp
e000295e:	f630                	fsw	fa2,104(a2)
e0002960:	52e0                	lw	s0,100(a3)
e0002962:	8c79                	and	s0,s0,a4
e0002964:	5930                	lw	a2,112(a0)
e0002966:	ba58                	fsd	fa4,176(a2)
e0002968:	0000                	unimp
e000296a:	0000                	unimp
e000296c:	1414                	addi	a3,sp,544
e000296e:	5910                	lw	a2,48(a0)
e0002970:	5024                	lw	s1,96(s0)
e0002972:	0b28                	addi	a0,sp,408
e0002974:	0000                	unimp
e0002976:	1080                	addi	s0,sp,96
e0002978:	00d0                	addi	a2,sp,68
e000297a:	fe4a                	fsw	fs2,60(sp)
e000297c:	0b2a                	slli	s6,s6,0xa
e000297e:	1414                	addi	a3,sp,544
e0002980:	0000                	unimp
e0002982:	0250                	addi	a2,sp,260
e0002984:	0b2a                	slli	s6,s6,0xa
e0002986:	14d4                	addi	a3,sp,612
e0002988:	1414                	addi	a3,sp,544
e000298a:	8310                	0x8310
e000298c:	0000                	unimp
e000298e:	0b20                	addi	s0,sp,408
e0002990:	1414                	addi	a3,sp,544
e0002992:	f910                	fsw	fa2,48(a0)
e0002994:	8190                	0x8190
e0002996:	0b2a                	slli	s6,s6,0xa
e0002998:	0000                	unimp
e000299a:	1410                	addi	a2,sp,544
e000299c:	0290                	addi	a2,sp,320
e000299e:	adca                	fsd	fs2,216(sp)
e00029a0:	0b2a                	slli	s6,s6,0xa
e00029a2:	1414                	addi	a3,sp,544
e00029a4:	0000                	unimp
e00029a6:	8010                	0x8010
e00029a8:	b6e2009b          	0xb6e2009b
e00029ac:	1414                	addi	a3,sp,544
e00029ae:	6690                	flw	fa2,8(a3)
e00029b0:	0000                	unimp
e00029b2:	0b20                	addi	s0,sp,408
e00029b4:	5aa2                	lw	s5,40(sp)
e00029b6:	5918                	lw	a4,48(a0)
e00029b8:	6061                	0x6061
e00029ba:	4edc                	lw	a5,28(a3)
e00029bc:	0000                	unimp
e00029be:	1410                	addi	a2,sp,544
e00029c0:	0002                	0x2
e00029c2:	88a0                	0x88a0
e00029c4:	50a8                	lw	a0,96(s1)
e00029c6:	6170                	flw	fa2,68(a0)
e00029c8:	0000                	unimp
e00029ca:	97d0                	0x97d0
e00029cc:	1089                	addi	ra,ra,-30
e00029ce:	26e4                	fld	fs1,200(a3)
e00029d0:	1c60                	addi	s0,sp,572
e00029d2:	00005323          	p.sh	zero,t1(zero)
e00029d6:	6130                	flw	fa2,64(a0)
e00029d8:	6061                	0x6061
e00029da:	056c                	addi	a1,sp,652
e00029dc:	14124f93          	xori	t6,tp,321
e00029e0:	0000                	unimp
e00029e2:	f050                	fsw	fa2,36(s0)
e00029e4:	0002                	0x2
e00029e6:	28a0                	fld	fs0,80(s1)
e00029e8:	5aa2                	lw	s5,40(sp)
e00029ea:	5178                	lw	a4,100(a0)
e00029ec:	0000                	unimp
e00029ee:	4f90                	lw	a2,24(a5)
e00029f0:	1b22c6d3          	fdiv.d	fa3,ft5,fs2,rmm
e00029f4:	e950                	fsw	fa2,20(a0)
e00029f6:	f310                	fsw	fa2,32(a4)
e00029f8:	0000                	unimp
e00029fa:	5130                	lw	a2,96(a0)
e00029fc:	5aa2                	lw	s5,40(sp)
e00029fe:	44d8                	lw	a4,12(s1)
e0002a00:	6061                	0x6061
e0002a02:	c6dc                	sw	a5,12(a3)
e0002a04:	0000                	unimp
e0002a06:	1410                	addi	a2,sp,544
e0002a08:	e250                	fsw	fa2,4(a2)
e0002a0a:	5000                	lw	s0,32(s0)
e0002a0c:	0002                	0x2
e0002a0e:	5130                	lw	a2,96(a0)
e0002a10:	0000                	unimp
e0002a12:	5170                	lw	a2,100(a0)
e0002a14:	0824                	addi	s1,sp,24
e0002a16:	14d8                	addi	a4,sp,612
e0002a18:	501245d3          	0x501245d3
e0002a1c:	0000                	unimp
e0002a1e:	7210                	flw	fa2,32(a2)
e0002a20:	226d                	jal	e0002bca <FLASH_AES_SMOKETEST_SIGNED+0x263a>
e0002a22:	ba9d                	j	e0002398 <FLASH_AES_SMOKETEST_SIGNED+0x1e08>
e0002a24:	422d6067          	0x422d6067
e0002a28:	0000                	unimp
e0002a2a:	1790                	addi	a2,sp,992
e0002a2c:	e850                	fsw	fa2,20(s0)
e0002a2e:	0000cb27          	0xcb27
e0002a32:	0000513f 49725170 	0x497251700000513f
e0002a3a:	5811ddc3          	fmadd.s	fs11,ft3,ft1,fa1,unknown
e0002a3e:	8fd4                	0x8fd4
e0002a40:	0000                	unimp
e0002a42:	0100                	addi	s0,sp,128
e0002a44:	91da                	add	gp,gp,s6
e0002a46:	f56c                	fsw	fa1,108(a0)
e0002a48:	4930                	lw	a2,80(a0)
e0002a4a:	1648                	addi	a0,sp,804
e0002a4c:	0000                	unimp
e0002a4e:	0000                	unimp
e0002a50:	517c                	lw	a5,100(a0)
e0002a52:	0888500f          	0x888500f
e0002a56:	9094                	0x9094
e0002a58:	0000                	unimp
e0002a5a:	42a0                	lw	s0,64(a3)
e0002a5c:	5859                	li	a6,-10
e0002a5e:	fe44                	fsw	fs1,60(a2)
e0002a60:	5131                	li	sp,-20
e0002a62:	be50                	fsd	fa2,184(a2)
e0002a64:	0000                	unimp
e0002a66:	0000                	unimp
e0002a68:	597a                	lw	s2,188(sp)
e0002a6a:	6e42                	flw	ft8,16(sp)
e0002a6c:	6258                	flw	fa4,4(a2)
e0002a6e:	8212                	mv	tp,tp
e0002a70:	0000                	unimp
e0002a72:	6220                	flw	fs0,64(a2)
e0002a74:	0282                	slli	t0,t0,0x0
e0002a76:	f4d0                	fsw	fa2,44(s1)
e0002a78:	5930                	lw	a2,112(a0)
e0002a7a:	8258                	0x8258
e0002a7c:	0000                	unimp
e0002a7e:	0000                	unimp
e0002a80:	73800283          	lb	t0,1848(zero) # 738 <_min_stack-0x18c8>
e0002a84:	0ef4                	addi	a3,sp,860
e0002a86:	ef00                	fsw	fs0,24(a4)
e0002a88:	0000                	unimp
e0002a8a:	6510                	flw	fa2,8(a0)
e0002a8c:	5136                	lw	sp,108(sp)
e0002a8e:	edc0                	fsw	fs0,28(a1)
e0002a90:	4bd8                	lw	a4,20(a5)
e0002a92:	5312                	lw	t1,36(sp)
e0002a94:	0000                	unimp
e0002a96:	5a20                	lw	s0,112(a2)
e0002a98:	50a5                	li	ra,-23
e0002a9a:	be40                	fsd	fs0,184(a2)
e0002a9c:	245a                	fld	fs0,400(sp)
e0002a9e:	5022                	0x5022
e0002aa0:	0000                	unimp
e0002aa2:	ad50                	fsd	fa2,152(a0)
e0002aa4:	a858                	fsd	fa4,144(s0)
e0002aa6:	00028753          	fadd.s	fa4,ft5,ft0,rne
e0002aaa:	5930                	lw	a2,112(a0)
e0002aac:	0000                	unimp
e0002aae:	5970                	lw	a2,116(a0)
e0002ab0:	b634                	fsd	fa3,104(a2)
e0002ab2:	5751                	li	a4,-12
e0002ab4:	1089                	addi	ra,ra,-30
e0002ab6:	5854                	lw	a3,52(s0)
e0002ab8:	0000                	unimp
e0002aba:	52e0                	lw	s0,100(a3)
e0002abc:	602c                	flw	fa1,64(s0)
e0002abe:	3ff5                	jal	e0002aba <FLASH_AES_SMOKETEST_SIGNED+0x252a>
e0002ac0:	f490                	fsw	fa2,40(s1)
e0002ac2:	00009213          	slli	tp,ra,0x0
e0002ac6:	4b50                	lw	a2,20(a4)
e0002ac8:	8050                	0x8050
e0002aca:	0000bff7          	0xbff7
e0002ace:	0000513f 42ac5170 	0x42ac51700000513f
e0002ad6:	0008                	addi	a0,sp,0
e0002ad8:	0c14                	addi	a3,sp,528
e0002ada:	91d2                	add	gp,gp,s4
e0002adc:	0000                	unimp
e0002ade:	5810                	lw	a2,48(s0)
e0002ae0:	7dc1000f          	0x7dc1000f
e0002ae4:	9094                	0x9094
e0002ae6:	517c                	lw	a5,100(a0)
e0002ae8:	0000                	unimp
e0002aea:	0880                	addi	s0,sp,80
e0002aec:	6224                	flw	fs1,64(a2)
e0002aee:	b918                	fsd	fa4,48(a0)
e0002af0:	7450                	flw	fa2,44(s0)
e0002af2:	5859                	li	a6,-10
e0002af4:	0000                	unimp
e0002af6:	5130                	lw	a2,96(a0)
e0002af8:	0002                	0x2
e0002afa:	7910                	flw	fa2,48(a0)
e0002afc:	8212                	mv	tp,tp
e0002afe:	597a                	lw	s2,188(sp)
e0002b00:	0000                	unimp
e0002b02:	4e90                	lw	a2,24(a3)
e0002b04:	6510                	flw	fa2,8(a0)
e0002b06:	d004                	sw	s1,32(s0)
e0002b08:	3858                	fld	fa4,176(s0)
e0002b0a:	0282                	slli	t0,t0,0x0
e0002b0c:	0000                	unimp
e0002b0e:	5930                	lw	a2,112(a0)
e0002b10:	5a20                	lw	s0,112(a2)
e0002b12:	64d8                	flw	fa4,12(s1)
e0002b14:	9100                	0x9100
e0002b16:	00000283          	lb	t0,0(zero) # 0 <_min_stack-0x2000>
e0002b1a:	0ef0                	addi	a2,sp,860
e0002b1c:	ad50                	fsd	fa2,152(a0)
e0002b1e:	e1ba                	fsw	fa4,192(sp)
e0002b20:	5312                	lw	t1,36(sp)
e0002b22:	5136                	lw	sp,108(sp)
e0002b24:	0000                	unimp
e0002b26:	c010                	sw	a2,0(s0)
e0002b28:	0b25                	addi	s6,s6,9
e0002b2a:	5b25                	li	s6,-23
e0002b2c:	4922                	lw	s2,8(sp)
e0002b2e:	4225                	li	tp,9
e0002b30:	0000                	unimp
e0002b32:	2890                	fld	fa2,16(s1)
e0002b34:	5aa2                	lw	s5,40(sp)
e0002b36:	54d8                	lw	a4,44(s1)
e0002b38:	0826                	slli	a6,a6,0x9
e0002b3a:	2ed8                	fld	fa4,152(a3)
e0002b3c:	0000                	unimp
e0002b3e:	1450                	addi	a2,sp,548
e0002b40:	c250                	sw	a2,4(a2)
e0002b42:	5910                	lw	a2,48(a0)
e0002b44:	0002                	0x2
e0002b46:	5130                	lw	a2,96(a0)
e0002b48:	0000                	unimp
e0002b4a:	5170                	lw	a2,100(a0)
e0002b4c:	6061                	0x6061
e0002b4e:	875c                	0x875c
e0002b50:	1412ad93          	slti	s11,t0,321
e0002b54:	0000                	unimp
e0002b56:	d250                	sw	a2,36(a2)
e0002b58:	0002                	0x2
e0002b5a:	3000                	fld	fs0,32(s0)
e0002b5c:	5aa2                	lw	s5,40(sp)
e0002b5e:	5178                	lw	a4,100(a0)
e0002b60:	0000                	unimp
e0002b62:	ad90                	fsd	fa2,24(a1)
e0002b64:	46e22c93          	slti	s9,tp,1134
e0002b68:	c250                	sw	a2,4(a2)
e0002b6a:	5151                	li	sp,-12
e0002b6c:	0000                	unimp
e0002b6e:	5130                	lw	a2,96(a0)
e0002b70:	5b72                	lw	s6,60(sp)
e0002b72:	94d0                	0x94d0
e0002b74:	6061                	0x6061
e0002b76:	2c9c                	fld	fa5,24(s1)
e0002b78:	0000                	unimp
e0002b7a:	1410                	addi	a2,sp,544
e0002b7c:	0b50                	addi	a2,sp,404
e0002b7e:	3560                	fld	fs0,232(a0)
e0002b80:	5fd8                	lw	a4,60(a5)
e0002b82:	8630                	0x8630
e0002b84:	0000                	unimp
e0002b86:	0000                	unimp
e0002b88:	0b20                	addi	s0,sp,408
e0002b8a:	edc4                	fsw	fs1,28(a1)
e0002b8c:	8635                	srai	a2,a2,0xd
e0002b8e:	0b51                	addi	s6,s6,20
e0002b90:	0000                	unimp
e0002b92:	5810                	lw	a2,48(s0)
e0002b94:	1414                	addi	a3,sp,544
e0002b96:	aa90                	fsd	fa2,16(a3)
e0002b98:	fc90                	fsw	fa2,56(s1)
e0002b9a:	00000b2b          	p.sb	zero,22(zero!) # 16 <_min_stack-0x1fea>
e0002b9e:	1410                	addi	a2,sp,544
e0002ba0:	5178                	lw	a4,100(a0)
e0002ba2:	f912                	fsw	ft4,176(sp)
e0002ba4:	5aa2255b          	0x5aa2255b
e0002ba8:	0000                	unimp
e0002baa:	7f10                	flw	fa2,56(a4)
e0002bac:	bcd1                	j	e0002680 <FLASH_AES_SMOKETEST_SIGNED+0x20f0>
e0002bae:	51300ff3          	0x51300ff3
e0002bb2:	9050                	0x9050
e0002bb4:	0000                	unimp
e0002bb6:	0000                	unimp
e0002bb8:	5b30                	lw	a2,112(a4)
e0002bba:	69321e43          	fmadd.s	ft8,ft4,fs3,fa3,rtz
e0002bbe:	00000153          	fadd.s	ft2,ft0,ft0,rne
e0002bc2:	a410                	fsd	fa2,8(s0)
e0002bc4:	5c700163          	beq	zero,t2,e0003186 <FLASH_AES_SMOKETEST_SIGNED+0x2bf6>
e0002bc8:	dd50                	sw	a2,60(a0)
e0002bca:	6938                	flw	fa4,80(a0)
e0002bcc:	0000                	unimp
e0002bce:	0b00                	addi	s0,sp,400
e0002bd0:	108e                	slli	ra,ra,0x23
e0002bd2:	c754                	sw	a3,12(a4)
e0002bd4:	58d8                	lw	a4,52(s1)
e0002bd6:	a894                	fsd	fa3,16(s1)
e0002bd8:	0000                	unimp
e0002bda:	ecd0                	fsw	fa2,28(s1)
e0002bdc:	52e0                	lw	s0,100(a3)
e0002bde:	d239                	beqz	a2,e0002b24 <FLASH_AES_SMOKETEST_SIGNED+0x2594>
e0002be0:	0200                	addi	s0,sp,256
e0002be2:	5910                	lw	a2,48(a0)
e0002be4:	0000                	unimp
e0002be6:	5b70                	lw	a2,116(a4)
e0002be8:	52ec                	lw	a1,100(a3)
e0002bea:	e1b8                	fsw	fa4,64(a1)
e0002bec:	5814                	lw	a3,48(s0)
e0002bee:	2084                	fld	fs1,0(s1)
e0002bf0:	0000                	unimp
e0002bf2:	1080                	addi	s0,sp,96
e0002bf4:	5b30                	lw	a2,112(a4)
e0002bf6:	6938cdc3          	fmadd.s	fs11,fa7,fs3,fa3,rmm
e0002bfa:	00000153          	fadd.s	ft2,ft0,ft0,rne
e0002bfe:	0820                	addi	s0,sp,24
e0002c00:	a814                	fsd	fa3,16(s0)
e0002c02:	04de                	slli	s1,s1,0x17
e0002c04:	ecd0                	fsw	fa2,28(s1)
e0002c06:	58d8                	lw	a4,52(s1)
e0002c08:	0000                	unimp
e0002c0a:	0b00                	addi	s0,sp,400
e0002c0c:	0200                	addi	s0,sp,256
e0002c0e:	74d0                	flw	fa2,44(s1)
e0002c10:	5814                	lw	a3,48(s0)
e0002c12:	6b74                	flw	fa3,84(a4)
e0002c14:	0000                	unimp
e0002c16:	1080                	addi	s0,sp,96
e0002c18:	52ec                	lw	a1,100(a3)
e0002c1a:	0a98                	addi	a4,sp,336
e0002c1c:	5360                	lw	s0,100(a4)
e0002c1e:	1109                	addi	sp,sp,-30
e0002c20:	0000                	unimp
e0002c22:	6910                	flw	fa2,16(a0)
e0002c24:	c22c                	sw	a1,64(a2)
e0002c26:	4b2c                	lw	a1,80(a4)
e0002c28:	1018                	addi	a4,sp,32
e0002c2a:	e061                	bnez	s0,e0002cea <FLASH_AES_SMOKETEST_SIGNED+0x275a>
e0002c2c:	0000                	unimp
e0002c2e:	0820                	addi	s0,sp,24
e0002c30:	d858                	sw	a4,52(s0)
e0002c32:	e23e                	fsw	fa5,4(sp)
e0002c34:	4aec                	lw	a1,84(a3)
e0002c36:	42a8                	lw	a0,64(a3)
e0002c38:	0000                	unimp
e0002c3a:	a260                	fsd	fs0,192(a2)
e0002c3c:	c450                	sw	a2,12(s0)
e0002c3e:	c758                	sw	a4,12(a4)
e0002c40:	51300003          	lb	zero,1299(zero) # 513 <_min_stack-0x1aed>
e0002c44:	0000                	unimp
e0002c46:	5170                	lw	a2,100(a0)
e0002c48:	2e41000f          	0x2e41000f
e0002c4c:	9014                	0x9014
e0002c4e:	517c                	lw	a5,100(a0)
e0002c50:	0000                	unimp
e0002c52:	1080                	addi	s0,sp,96
e0002c54:	af14                	fsd	fa3,24(a4)
e0002c56:	9b22                	add	s6,s6,s0
e0002c58:	9850                	0x9850
e0002c5a:	5818                	lw	a4,48(s0)
e0002c5c:	0000                	unimp
e0002c5e:	5130                	lw	a2,96(a0)
e0002c60:	5930                	lw	a2,112(a0)
e0002c62:	2ff8                	fld	fa4,216(a5)
e0002c64:	597a                	lw	s2,188(sp)
e0002c66:	0002                	0x2
e0002c68:	0000                	unimp
e0002c6a:	8190                	0x8190
e0002c6c:	0ef4                	addi	a3,sp,860
e0002c6e:	2000                	fld	fs0,0(s0)
e0002c70:	50a2                	lw	ra,40(sp)
e0002c72:	6518                	flw	fa4,8(a0)
e0002c74:	0000                	unimp
e0002c76:	6a50                	flw	fa2,20(a2)
e0002c78:	5312                	lw	t1,36(sp)
e0002c7a:	bc76                	fsd	ft9,56(sp)
e0002c7c:	50a2                	lw	ra,40(sp)
e0002c7e:	2158                	fld	fa4,128(a0)
e0002c80:	0000                	unimp
e0002c82:	a300                	fsd	fs0,0(a4)
e0002c84:	0042                	0x42
e0002c86:	591c                	lw	a5,48(a0)
e0002c88:	ad50                	fsd	fa2,152(a0)
e0002c8a:	899a                	mv	s3,t1
e0002c8c:	0000                	unimp
e0002c8e:	5130                	lw	a2,96(a0)
e0002c90:	0486                	slli	s1,s1,0x1
e0002c92:	e38c                	fsw	fa1,0(a5)
e0002c94:	5136                	lw	sp,108(sp)
e0002c96:	a050                	fsd	fa2,128(s0)
e0002c98:	0000                	unimp
e0002c9a:	5610                	lw	a2,40(a2)
e0002c9c:	ef50                	fsw	fa2,28(a4)
e0002c9e:	1a9e                	slli	s5,s5,0x27
e0002ca0:	eadc                	fsw	fa5,20(a3)
e0002ca2:	513d                	li	sp,-17
e0002ca4:	0000                	unimp
e0002ca6:	5370                	lw	a2,100(a4)
e0002ca8:	5138                	lw	a4,96(a0)
e0002caa:	9910                	0x9910
e0002cac:	537c                	lw	a5,100(a4)
e0002cae:	0000                	unimp
e0002cb0:	0000                	unimp
e0002cb2:	4080                	lw	s0,0(s1)
e0002cb4:	0000                	unimp
e0002cb6:	5561                	li	a0,-8
e0002cb8:	4480                	lw	s0,8(s1)
e0002cba:	513c                	lw	a5,96(a0)
e0002cbc:	0000                	unimp
e0002cbe:	5750                	lw	a2,44(a4)
e0002cc0:	4c58                	lw	a4,28(s0)
e0002cc2:	2dc8                	fld	fa0,152(a1)
e0002cc4:	59300003          	lb	zero,1427(zero) # 593 <_min_stack-0x1a6d>
e0002cc8:	0000                	unimp
e0002cca:	5970                	lw	a2,116(a0)
e0002ccc:	6095                	lui	ra,0x5
e0002cce:	3b24                	fld	fs1,112(a4)
e0002cd0:	8084                	0x8084
e0002cd2:	57dc                	lw	a5,44(a5)
e0002cd4:	0000                	unimp
e0002cd6:	18c0                	addi	s0,sp,116
e0002cd8:	8230                	0x8230
e0002cda:	6e42                	flw	ft8,16(sp)
e0002cdc:	463c                	lw	a5,72(a2)
e0002cde:	0c5e                	slli	s8,s8,0x17
e0002ce0:	0000                	unimp
e0002ce2:	8480                	0x8480
e0002ce4:	0f24                	addi	s1,sp,920
e0002ce6:	5a94                	lw	a3,48(a3)
e0002ce8:	4d20                	lw	s0,88(a0)
e0002cea:	4624                	lw	s1,72(a2)
e0002cec:	0000                	unimp
e0002cee:	0040                	addi	s0,sp,4
e0002cf0:	601c                	flw	fa5,0(s0)
e0002cf2:	4754                	lw	a3,12(a4)
e0002cf4:	0826                	slli	a6,a6,0x9
e0002cf6:	5818                	lw	a4,48(s0)
e0002cf8:	0000                	unimp
e0002cfa:	1050                	addi	a2,sp,36
e0002cfc:	5324                	lw	s1,96(a4)
e0002cfe:	9dc8                	0x9dc8
e0002d00:	011c                	addi	a5,sp,128
e0002d02:	60da                	flw	ft1,148(sp)
e0002d04:	0000                	unimp
e0002d06:	1880                	addi	s0,sp,112
e0002d08:	5b1c                	lw	a5,48(a4)
e0002d0a:	7566                	flw	fa0,120(sp)
e0002d0c:	1018                	addi	a4,sp,32
e0002d0e:	e061                	bnez	s0,e0002dce <FLASH_AES_SMOKETEST_SIGNED+0x283e>
e0002d10:	0000                	unimp
e0002d12:	0820                	addi	s0,sp,24
e0002d14:	2b50                	fld	fa2,144(a4)
e0002d16:	c560                	sw	s0,76(a0)
e0002d18:	ad58                	fsd	fa4,152(a0)
e0002d1a:	063a                	slli	a2,a2,0xe
e0002d1c:	0000                	unimp
e0002d1e:	5930                	lw	a2,112(a0)
e0002d20:	2b50                	fld	fa2,144(a4)
e0002d22:	fff0                	fsw	fa2,124(a5)
e0002d24:	5b56                	lw	s6,116(sp)
e0002d26:	d630                	sw	a2,104(a2)
e0002d28:	0000                	unimp
e0002d2a:	5a50                	lw	a2,52(a2)
e0002d2c:	2058                	fld	fa4,128(s0)
e0002d2e:	2dc8                	fld	fa0,152(a1)
e0002d30:	59300003          	lb	zero,1427(zero) # 593 <_min_stack-0x1a6d>
e0002d34:	0000                	unimp
e0002d36:	5970                	lw	a2,116(a0)
e0002d38:	0f2c                	addi	a1,sp,920
e0002d3a:	48a4                	lw	s1,80(s1)
e0002d3c:	1914                	addi	a3,sp,176
e0002d3e:	188c                	addi	a1,sp,112
e0002d40:	0000                	unimp
e0002d42:	18c0                	addi	s0,sp,116
e0002d44:	7c700003          	lb	zero,1991(zero) # 7c7 <_min_stack-0x1839>
e0002d48:	0826                	slli	a6,a6,0x9
e0002d4a:	5178                	lw	a4,100(a0)
e0002d4c:	0000                	unimp
e0002d4e:	1050                	addi	a2,sp,36
e0002d50:	d0d4                	sw	a3,36(s1)
e0002d52:	c75e                	sw	s7,140(sp)
e0002d54:	1050                	addi	a2,sp,36
e0002d56:	1088                	addi	a0,sp,96
e0002d58:	0000                	unimp
e0002d5a:	5130                	lw	a2,96(a0)
e0002d5c:	1058                	addi	a4,sp,36
e0002d5e:	8755                	srai	a4,a4,0x15
e0002d60:	0002                	0x2
e0002d62:	5930                	lw	a2,112(a0)
e0002d64:	0000                	unimp
e0002d66:	5970                	lw	a2,116(a0)
e0002d68:	fd00                	fsw	fs0,56(a0)
e0002d6a:	2561                	jal	e00033f2 <FLASH_AES_SMOKETEST_SIGNED+0x2e62>
e0002d6c:	6510                	flw	fa2,8(a0)
e0002d6e:	0ef4                	addi	a3,sp,860
e0002d70:	0000                	unimp
e0002d72:	0280                	addi	s0,sp,320
e0002d74:	517a                	lw	sp,188(sp)
e0002d76:	c1b2                	sw	a2,192(sp)
e0002d78:	8bd0                	0x8bd0
e0002d7a:	8052                	0x8052
e0002d7c:	0000                	unimp
e0002d7e:	0280                	addi	s0,sp,320
e0002d80:	0c741087          	0xc741087
e0002d84:	5130                	lw	a2,96(a0)
e0002d86:	ee50                	fsw	fa2,28(a2)
e0002d88:	0000                	unimp
e0002d8a:	0000                	unimp
e0002d8c:	5930                	lw	a2,112(a0)
e0002d8e:	f918                	fsw	fa4,48(a0)
e0002d90:	597e                	lw	s2,252(sp)
e0002d92:	0002                	0x2
e0002d94:	0000                	unimp
e0002d96:	d050                	sw	a2,36(s0)
e0002d98:	0ef4                	addi	a3,sp,860
e0002d9a:	2000                	fld	fs0,0(s0)
e0002d9c:	0284                	addi	s1,sp,320
e0002d9e:	6510                	flw	fa2,8(a0)
e0002da0:	0000                	unimp
e0002da2:	da50                	sw	a2,52(a2)
e0002da4:	03d2                	slli	t2,t2,0x14
e0002da6:	b75a                	fsd	fs6,424(sp)
e0002da8:	0281                	addi	t0,t0,0
e0002daa:	8b10                	0x8b10
e0002dac:	0000                	unimp
e0002dae:	db00                	sw	s0,48(a4)
e0002db0:	fc50                	fsw	fa2,60(s0)
e0002db2:	000eb757          	pv.add.b.div2	a4,t4,zero
e0002db6:	5131                	li	sp,-20
e0002db8:	0000                	unimp
e0002dba:	5170                	lw	a2,100(a0)
e0002dbc:	0002                	0x2
e0002dbe:	7c70                	flw	fa2,124(s0)
e0002dc0:	8c54                	0x8c54
e0002dc2:	5172                	lw	sp,60(sp)
e0002dc4:	0000                	unimp
e0002dc6:	5810                	lw	a2,48(s0)
e0002dc8:	5054                	lw	a3,36(s0)
e0002dca:	891c                	0x891c
e0002dcc:	bc50                	fsd	fa2,184(s0)
e0002dce:	00001087          	0x1087
e0002dd2:	5130                	lw	a2,96(a0)
e0002dd4:	839a                	mv	t2,t1
e0002dd6:	b1ba                	fsd	fa4,224(sp)
e0002dd8:	5936                	lw	s2,108(sp)
e0002dda:	ad58                	fsd	fa4,152(a0)
e0002ddc:	0000                	unimp
e0002dde:	5b10                	lw	a2,48(a4)
e0002de0:	c850                	sw	a2,20(s0)
e0002de2:	000e7567          	0xe7567
e0002de6:	5131                	li	sp,-20
e0002de8:	0000                	unimp
e0002dea:	5170                	lw	a2,100(a0)
e0002dec:	0002                	0x2
e0002dee:	2ff0                	fld	fa2,216(a5)
e0002df0:	8c14                	0x8c14
e0002df2:	5172                	lw	sp,60(sp)
e0002df4:	0000                	unimp
e0002df6:	5810                	lw	a2,48(s0)
e0002df8:	5014                	lw	a3,32(s0)
e0002dfa:	2c7c                	fld	fa5,216(s0)
e0002dfc:	9c50                	0x9c50
e0002dfe:	00001087          	0x1087
e0002e02:	5130                	lw	a2,96(a0)
e0002e04:	009c                	addi	a5,sp,64
e0002e06:	cdc2                	sw	a6,216(sp)
e0002e08:	5b56                	lw	s6,116(sp)
e0002e0a:	10c0                	addi	s0,sp,100
e0002e0c:	0000                	unimp
e0002e0e:	5a50                	lw	a2,52(a2)
e0002e10:	c912573b          	0xc912573b
e0002e14:	0500                	addi	s0,sp,640
e0002e16:	ff51                	bnez	a4,e0002db2 <FLASH_AES_SMOKETEST_SIGNED+0x2822>
e0002e18:	0000                	unimp
e0002e1a:	0730                	addi	a2,sp,904
e0002e1c:	4302                	lw	t1,0(sp)
e0002e1e:	0823e233          	0x823e233
e0002e22:	5738                	lw	a4,104(a4)
e0002e24:	0000                	unimp
e0002e26:	4200                	lw	s0,0(a2)
e0002e28:	8c780823          	sb	t2,-1840(a6)
e0002e2c:	5738                	lw	a4,104(a4)
e0002e2e:	4102                	lw	sp,0(sp)
e0002e30:	0000                	unimp
e0002e32:	0820                	addi	s0,sp,24
e0002e34:	226c                	fld	fa1,192(a2)
e0002e36:	a4dc                	fsd	fa5,136(s1)
e0002e38:	422c6067          	0x422c6067
e0002e3c:	0000                	unimp
e0002e3e:	1790                	addi	a2,sp,992
e0002e40:	23ed                	jal	e000342a <FLASH_AES_SMOKETEST_SIGNED+0x2e9a>
e0002e42:	223d                	jal	e0002f70 <FLASH_AES_SMOKETEST_SIGNED+0x29e0>
e0002e44:	6468                	flw	fa0,76(s0)
e0002e46:	442d                	li	s0,11
e0002e48:	0000                	unimp
e0002e4a:	42a0                	lw	s0,64(a3)
e0002e4c:	a2ec                	fsd	fa1,192(a3)
e0002e4e:	638c                	flw	fa1,0(a5)
e0002e50:	e36d                	bnez	a4,e0002f32 <FLASH_AES_SMOKETEST_SIGNED+0x29a2>
e0002e52:	c32c                	sw	a1,64(a4)
e0002e54:	0000                	unimp
e0002e56:	03a0                	addi	s0,sp,456
e0002e58:	6138                	flw	fa4,64(a0)
e0002e5a:	ea98                	fsw	fa4,16(a3)
e0002e5c:	5b74                	lw	a3,116(a4)
e0002e5e:	0000                	unimp
e0002e60:	0000                	unimp
e0002e62:	1480                	addi	s0,sp,608
e0002e64:	3f00                	fld	fs0,56(a4)
e0002e66:	5912                	lw	s2,36(sp)
e0002e68:	581f 0ef4 0000      	0xef4581f
e0002e6e:	ff50                	fsw	fa2,60(a4)
e0002e70:	5934                	lw	a3,112(a0)
e0002e72:	48a0                	lw	s0,80(s1)
e0002e74:	6334                	flw	fa3,64(a4)
e0002e76:	0d50                	addi	a2,sp,660
e0002e78:	0000                	unimp
e0002e7a:	0540                	addi	s0,sp,644
e0002e7c:	dd00                	sw	s0,56(a0)
e0002e7e:	34d2                	fld	fs1,304(sp)
e0002e80:	5360                	lw	s0,100(a4)
e0002e82:	0ef8                	addi	a4,sp,860
e0002e84:	0000                	unimp
e0002e86:	2f00                	fld	fs0,24(a4)
e0002e88:	0110                	addi	a2,sp,128
e0002e8a:	123a                	slli	tp,tp,0x2e
e0002e8c:	693c                	flw	fa5,80(a0)
e0002e8e:	0150                	addi	a2,sp,132
e0002e90:	0000                	unimp
e0002e92:	5010                	lw	a2,32(s0)
e0002e94:	a634                	fsd	fa3,72(a2)
e0002e96:	475e                	lw	a4,212(sp)
e0002e98:	0084                	addi	s1,sp,64
e0002e9a:	58d4                	lw	a3,52(s1)
e0002e9c:	0000                	unimp
e0002e9e:	0540                	addi	s0,sp,644
e0002ea0:	0002                	0x2
e0002ea2:	f1b0                	fsw	fa2,96(a1)
e0002ea4:	50a0                	lw	s0,96(s1)
e0002ea6:	5970                	lw	a2,116(a0)
e0002ea8:	0000                	unimp
e0002eaa:	0a50                	addi	a2,sp,276
e0002eac:	10c9                	addi	ra,ra,-14
e0002eae:	b1b4                	fsd	fa3,96(a1)
e0002eb0:	6458                	flw	fa4,12(s0)
e0002eb2:	52e4                	lw	s1,100(a3)
e0002eb4:	0000                	unimp
e0002eb6:	5930                	lw	a2,112(a0)
e0002eb8:	5930                	lw	a2,112(a0)
e0002eba:	f4d8                	fsw	fa4,44(s1)
e0002ebc:	597a                	lw	s2,188(sp)
e0002ebe:	0002                	0x2
e0002ec0:	0000                	unimp
e0002ec2:	0290                	addi	a2,sp,320
e0002ec4:	64d8493f 00004974 	0x497464d8493f
e0002ecc:	0000                	unimp
e0002ece:	5250                	lw	a2,36(a2)
e0002ed0:	4180                	lw	s0,0(a1)
e0002ed2:	7e44                	flw	fs1,60(a2)
e0002ed4:	6034                	flw	fa3,64(s0)
e0002ed6:	004d                	c.addi	zero,19
e0002ed8:	0000                	unimp
e0002eda:	da40                	sw	s0,52(a2)
e0002edc:	2450                	fld	fa2,136(s0)
e0002ede:	1564                	addi	s1,sp,684
e0002ee0:	0002                	0x2
e0002ee2:	5130                	lw	a2,96(a0)
e0002ee4:	0000                	unimp
e0002ee6:	5170                	lw	a2,100(a0)
e0002ee8:	5050                	lw	a2,36(s0)
e0002eea:	ac70                	fsd	fa2,216(s0)
e0002eec:	5032                	0x5032
e0002eee:	0049                	c.addi	zero,18
e0002ef0:	0000                	unimp
e0002ef2:	8650                	0x8650
e0002ef4:	02a0                	addi	s0,sp,328
e0002ef6:	9ffc                	0x9ffc
e0002ef8:	0a49                	addi	s4,s4,18
e0002efa:	8480                	0x8480
e0002efc:	0000                	unimp
e0002efe:	0230                	addi	a2,sp,264
e0002f00:	5172                	lw	sp,60(sp)
e0002f02:	e1b2                	fsw	fa2,192(sp)
e0002f04:	84c4                	0x84c4
e0002f06:	8d90                	0x8d90
e0002f08:	0000                	unimp
e0002f0a:	8080                	0x8080
e0002f0c:	8694                	0x8694
e0002f0e:	3dc2                	fld	fs11,48(sp)
e0002f10:	5130                	lw	a2,96(a0)
e0002f12:	1550                	addi	a2,sp,676
e0002f14:	0000                	unimp
e0002f16:	0000                	unimp
e0002f18:	1454                	addi	a3,sp,548
e0002f1a:	e386                	fsw	ft1,196(sp)
e0002f1c:	4224                	lw	s1,64(a2)
e0002f1e:	0b24                	addi	s1,sp,408
e0002f20:	0000                	unimp
e0002f22:	4920                	lw	s0,80(a0)
e0002f24:	c42c                	sw	a1,72(s0)
e0002f26:	e6ec                	fsw	fa1,76(a3)
e0002f28:	1018                	addi	a4,sp,32
e0002f2a:	e461                	bnez	s0,e0002ff2 <FLASH_AES_SMOKETEST_SIGNED+0x2a62>
e0002f2c:	0000                	unimp
e0002f2e:	0820                	addi	s0,sp,24
e0002f30:	7930                	flw	fa2,112(a0)
e0002f32:	3b28                	fld	fa0,112(a4)
e0002f34:	797c                	flw	fa5,116(a0)
e0002f36:	0002                	0x2
e0002f38:	0000                	unimp
e0002f3a:	a3e0                	fsd	fs0,192(a5)
e0002f3c:	636c                	flw	fa1,68(a4)
e0002f3e:	44dc                	lw	a5,12(s1)
e0002f40:	39c6                	fld	fs3,112(sp)
e0002f42:	83a4                	0x83a4
e0002f44:	0000                	unimp
e0002f46:	ca70                	sw	a2,84(a2)
e0002f48:	22a0                	fld	fs0,64(a3)
e0002f4a:	f56c                	fsw	fa1,108(a0)
e0002f4c:	388c                	fld	fa1,48(s1)
e0002f4e:	028c                	addi	a1,sp,320
e0002f50:	0000                	unimp
e0002f52:	4320                	lw	s0,64(a4)
e0002f54:	0450                	addi	a2,sp,516
e0002f56:	5e40                	lw	s0,60(a2)
e0002f58:	512c                	lw	a1,96(a0)
e0002f5a:	6134                	flw	fa3,64(a0)
e0002f5c:	0000                	unimp
e0002f5e:	9890                	0x9890
e0002f60:	3881                	jal	e00027b0 <FLASH_AES_SMOKETEST_SIGNED+0x2220>
e0002f62:	14dc                	addi	a5,sp,612
e0002f64:	108c                	addi	a1,sp,96
e0002f66:	5fd4                	lw	a3,60(a5)
e0002f68:	0000                	unimp
e0002f6a:	2320                	fld	fs0,64(a4)
e0002f6c:	5328                	lw	a0,96(a4)
e0002f6e:	7c78                	flw	fa4,124(s0)
e0002f70:	105f 0826 0000      	0x826105f
e0002f76:	9ed0                	0x9ed0
e0002f78:	8a98593f 00005978 	0x59788a98593f
e0002f80:	0000                	unimp
e0002f82:	0820                	addi	s0,sp,24
e0002f84:	0000                	unimp
e0002f86:	51b0                	lw	a2,96(a1)
e0002f88:	1884                	addi	s1,sp,112
e0002f8a:	517c                	lw	a5,100(a0)
e0002f8c:	0000                	unimp
e0002f8e:	6650                	flw	fa2,12(a2)
e0002f90:	082c                	addi	a1,sp,24
e0002f92:	c568                	sw	a0,76(a0)
e0002f94:	0c50                	addi	a2,sp,532
e0002f96:	1c80                	addi	s0,sp,624
e0002f98:	0000                	unimp
e0002f9a:	5130                	lw	a2,96(a0)
e0002f9c:	a26c                	fsd	fa1,192(a2)
e0002f9e:	b56c                	fsd	fa1,232(a0)
e0002fa0:	e061                	bnez	s0,e0003060 <FLASH_AES_SMOKETEST_SIGNED+0x2ad0>
e0002fa2:	c22c                	sw	a1,64(a2)
e0002fa4:	0000                	unimp
e0002fa6:	1010                	addi	a2,sp,32
e0002fa8:	432c                	lw	a1,64(a4)
e0002faa:	0238                	addi	a4,sp,264
e0002fac:	64ec                	flw	fa1,76(s1)
e0002fae:	20dc                	fld	fa5,128(s1)
e0002fb0:	0000                	unimp
e0002fb2:	84a0                	0x84a0
e0002fb4:	5334                	lw	a3,96(a4)
e0002fb6:	a4d0                	fsd	fa2,136(s1)
e0002fb8:	9aa8                	0x9aa8
e0002fba:	4818                	lw	a4,16(s0)
e0002fbc:	0000                	unimp
e0002fbe:	92e0                	0x92e0
e0002fc0:	54e0                	lw	s0,108(s1)
e0002fc2:	3758                	fld	fa4,168(a4)
e0002fc4:	5830                	lw	a2,112(s0)
e0002fc6:	0054                	addi	a3,sp,4
e0002fc8:	0000                	unimp
e0002fca:	0990                	addi	a2,sp,208
e0002fcc:	8e30                	0x8e30
e0002fce:	2231                	jal	e00030da <FLASH_AES_SMOKETEST_SIGNED+0x2b4a>
e0002fd0:	5192                	lw	gp,36(sp)
e0002fd2:	485e                	lw	a6,212(sp)
e0002fd4:	0000                	unimp
e0002fd6:	f590                	fsw	fa2,40(a1)
e0002fd8:	481a                	lw	a6,132(sp)
e0002fda:	8564                	0x8564
e0002fdc:	01184a2f          	0x1184a2f
e0002fe0:	0000                	unimp
e0002fe2:	e940                	fsw	fs0,20(a0)
e0002fe4:	4d24                	lw	s1,88(a0)
e0002fe6:	2754                	fld	fa3,136(a4)
e0002fe8:	9b28                	0x9b28
e0002fea:	9424                	0x9424
e0002fec:	0000                	unimp
e0002fee:	5260                	lw	s0,100(a2)
e0002ff0:	0826                	slli	a6,a6,0x9
e0002ff2:	cdc8                	sw	a0,28(a1)
e0002ff4:	0f24                	addi	s1,sp,920
e0002ff6:	1054                	addi	a3,sp,36
e0002ff8:	0000                	unimp
e0002ffa:	4620                	lw	s0,72(a2)
e0002ffc:	442d                	li	s0,11
e0002ffe:	ba9d                	j	e0002974 <FLASH_AES_SMOKETEST_SIGNED+0x23e4>
e0003000:	646c6067          	0x646c6067
e0003004:	0000                	unimp
e0003006:	1790                	addi	a2,sp,992
e0003008:	c32c                	sw	a1,64(a4)
e000300a:	bdcc                	fsd	fa1,184(a1)
e000300c:	03ad                	addi	t2,t2,11
e000300e:	e36d                	bnez	a4,e00030f0 <FLASH_AES_SMOKETEST_SIGNED+0x2b60>
e0003010:	0000                	unimp
e0003012:	23e0                	fld	fs0,192(a5)
e0003014:	8758593f 0000597c 	0x597c8758593f
e000301c:	0000                	unimp
e000301e:	a2e0                	fsd	fs0,192(a3)
e0003020:	72a4                	flw	fs1,96(a3)
e0003022:	bc78                	fsd	fa4,248(s0)
e0003024:	1cc41903          	lh	s2,460(s0) # fffe01cc <pulp__FC+0xfffe01cd>
e0003028:	0000                	unimp
e000302a:	fe50                	fsw	fa2,60(a2)
e000302c:	5320                	lw	s0,96(a4)
e000302e:	7b28                	flw	fa0,112(a4)
e0003030:	42a0                	lw	s0,64(a3)
e0003032:	854c                	0x854c
e0003034:	0000                	unimp
e0003036:	8480                	0x8480
e0003038:	1454                	addi	a3,sp,548
e000303a:	54d6                	lw	s1,116(sp)
e000303c:	00d8                	addi	a4,sp,68
e000303e:	0b22                	slli	s6,s6,0x8
e0003040:	0000                	unimp
e0003042:	63a0                	flw	fs0,64(a5)
e0003044:	7568693f 00006978 	0x69787568693f
e000304c:	0000                	unimp
e000304e:	0820                	addi	s0,sp,24
e0003050:	72e4                	flw	fs1,100(a3)
e0003052:	5a98                	lw	a4,48(a3)
e0003054:	2d442903          	lw	s2,724(s0)
e0003058:	0000                	unimp
e000305a:	de60                	sw	s0,124(a2)
e000305c:	63e8                	flw	fa0,68(a5)
e000305e:	e8a8                	fsw	fa0,80(s1)
e0003060:	5328                	lw	a0,96(a4)
e0003062:	5b68                	lw	a0,116(a4)
e0003064:	0000                	unimp
e0003066:	7aa0                	flw	fs0,112(a3)
e0003068:	956c6867          	0x956c6867
e000306c:	0098                	addi	a4,sp,64
e000306e:	15da                	slli	a1,a1,0x36
e0003070:	0000                	unimp
e0003072:	6ba0                	flw	fs0,80(a5)
e0003074:	e4ec                	fsw	fa1,76(s1)
e0003076:	1a9d                	addi	s5,s5,-25
e0003078:	2a6c                	fld	fa1,208(a2)
e000307a:	0cac                	addi	a1,sp,600
e000307c:	0000                	unimp
e000307e:	4a20                	lw	s0,80(a2)
e0003080:	65ed                	lui	a1,0x1b
e0003082:	623d                	lui	tp,0xf
e0003084:	a56d                	j	e000372e <FLASH_AES_SMOKETEST_SIGNED+0x319e>
e0003086:	85ad                	srai	a1,a1,0xb
e0003088:	0000                	unimp
e000308a:	c520                	sw	s0,72(a0)
e000308c:	e6ed                	bnez	a3,e0003176 <FLASH_AES_SMOKETEST_SIGNED+0x2be6>
e000308e:	2c7c                	fld	fa5,216(s0)
e0003090:	266d                	jal	e000343a <FLASH_AES_SMOKETEST_SIGNED+0x2eaa>
e0003092:	06ad                	addi	a3,a3,11
e0003094:	0000                	unimp
e0003096:	4620                	lw	s0,72(a2)
e0003098:	199c                	addi	a5,sp,240
e000309a:	0dcc                	addi	a1,sp,724
e000309c:	92a8                	0x92a8
e000309e:	4368                	lw	a0,68(a4)
e00030a0:	0000                	unimp
e00030a2:	cb20                	sw	s0,80(a4)
e00030a4:	0000                	unimp
e00030a6:	2230                	fld	fa2,64(a2)
e00030a8:	0298                	addi	a4,sp,320
e00030aa:	997a                	add	s2,s2,t5
e00030ac:	0000                	unimp
e00030ae:	9ae0                	0x9ae0
e00030b0:	503c                	lw	a5,96(s0)
e00030b2:	14dc                	addi	a5,sp,612
e00030b4:	3298                	fld	fa4,32(a3)
e00030b6:	0000236f          	jal	t1,e00050b6 <FLASH_AES_SMOKETEST_SIGNED+0x4b26>
e00030ba:	9930                	0x9930
e00030bc:	a814                	fsd	fa3,16(s0)
e00030be:	36e4                	fld	fs1,232(a3)
e00030c0:	5630                	lw	a2,104(a2)
e00030c2:	2050                	fld	fa2,128(s0)
e00030c4:	0000                	unimp
e00030c6:	00c0                	addi	s0,sp,68
e00030c8:	a294                	fsd	fa3,0(a3)
e00030ca:	4564                	lw	s1,76(a0)
e00030cc:	2500                	fld	fs0,8(a0)
e00030ce:	d250                	sw	a2,36(a2)
e00030d0:	0000                	unimp
e00030d2:	c130                	sw	a2,64(a0)
e00030d4:	02ec                	addi	a1,sp,332
e00030d6:	023c                	addi	a5,sp,264
e00030d8:	5936                	lw	s2,108(sp)
e00030da:	2258                	fld	fa4,128(a2)
e00030dc:	0000                	unimp
e00030de:	58d0                	lw	a2,52(s1)
e00030e0:	9630                	0x9630
e00030e2:	a380                	fsd	fs0,0(a5)
e00030e4:	4134                	lw	a3,64(a0)
e00030e6:	0000ff57          	pv.add.sci.b	t5,ra,0
e00030ea:	4810                	lw	a2,16(s0)
e00030ec:	09c8                	addi	a0,sp,212
e00030ee:	9560                	0x9560
e00030f0:	4190                	lw	a2,0(a1)
e00030f2:	533c                	lw	a5,96(a4)
e00030f4:	0000                	unimp
e00030f6:	1840                	addi	s0,sp,52
e00030f8:	7f50                	flw	fa2,60(a4)
e00030fa:	0154e75b          	p.mac.zh.zl	a4,s1,s5,zero
e00030fe:	4850                	lw	a2,20(s0)
e0003100:	0000                	unimp
e0003102:	5030                	lw	a2,96(s0)
e0003104:	6268                	flw	fa0,68(a2)
e0003106:	7dc8                	flw	fa0,60(a1)
e0003108:	54ac                	lw	a1,104(s1)
e000310a:	5e68                	lw	a0,124(a2)
e000310c:	0000                	unimp
e000310e:	4910                	lw	a2,16(a0)
e0003110:	e040                	fsw	fs0,4(s0)
e0003112:	aaa9ca93          	xori	s5,s3,-1366
e0003116:	9639                	srai	a2,a2,0x2e
e0003118:	0000                	unimp
e000311a:	9820                	0x9820
e000311c:	0154                	addi	a3,sp,132
e000311e:	98a0                	0x98a0
e0003120:	09c8                	addi	a0,sp,212
e0003122:	6030                	flw	fa2,64(s0)
e0003124:	0000                	unimp
e0003126:	5330                	lw	a2,96(a4)
e0003128:	0e61                	addi	t3,t3,24
e000312a:	fc70                	fsw	fa2,124(s0)
e000312c:	2100                	fld	fs0,0(a0)
e000312e:	8630                	0x8630
e0003130:	0000                	unimp
e0003132:	7130                	flw	fa2,96(a0)
e0003134:	0250                	addi	a2,sp,260
e0003136:	3000                	fld	fs0,32(s0)
e0003138:	0254                	addi	a3,sp,260
e000313a:	6930                	flw	fa2,80(a0)
e000313c:	0000                	unimp
e000313e:	5830                	lw	a2,112(s0)
e0003140:	6934                	flw	fa3,80(a0)
e0003142:	2230                	fld	fa2,64(a2)
e0003144:	0294                	addi	a3,sp,320
e0003146:	b01a                	fsd	ft6,32(sp)
e0003148:	0000                	unimp
e000314a:	b050                	fsd	fa2,160(s0)
e000314c:	a058                	fsd	fa4,128(s0)
e000314e:	5b200563          	beq	zero,s2,e00036f8 <FLASH_AES_SMOKETEST_SIGNED+0x3168>
e0003152:	b638                	fsd	fa4,104(a2)
e0003154:	0000                	unimp
e0003156:	0150                	addi	a2,sp,132
e0003158:	6134                	flw	fa3,64(a0)
e000315a:	eb20                	fsw	fs0,80(a4)
e000315c:	b814                	fsd	fa3,48(s0)
e000315e:	5014                	lw	a3,32(s0)
e0003160:	0000                	unimp
e0003162:	4810                	lw	a2,16(s0)
e0003164:	c930                	sw	a2,80(a0)
e0003166:	26e8                	fld	fa0,200(a3)
e0003168:	0163d93f df600000 	0xdf6000000163d93f
e0003170:	5ff7613f d0586130 	0xd05861305ff7613f
e0003178:	0000                	unimp
e000317a:	0160                	addi	s0,sp,140
e000317c:	b630                	fsd	fa2,104(a2)
e000317e:	c916                	sw	t0,144(sp)
e0003180:	5930                	lw	a2,112(a0)
e0003182:	ff5f 0000 ff60      	0xff600000ff5f
e0003188:	a190                	fsd	fa2,0(a1)
e000318a:	2ffc                	fld	fa5,216(a5)
e000318c:	6130                	flw	fa2,64(a0)
e000318e:	0000ff57          	pv.add.sci.b	t5,ra,0
e0003192:	2cd0                	fld	fa2,152(s1)
e0003194:	4939                	li	s2,14
e0003196:	c918                	sw	a4,16(a0)
e0003198:	3448                	fld	fa0,168(s0)
e000319a:	5b20                	lw	s0,112(a4)
e000319c:	0000                	unimp
e000319e:	6330                	flw	fa2,64(a4)
e00031a0:	c850                	sw	a2,20(s0)
e00031a2:	4e40                	lw	s0,28(a2)
e00031a4:	00cc583f d0500000 	0xd050000000cc583f
e00031ac:	2000                	fld	fs0,0(s0)
e00031ae:	68a0                	flw	fs0,80(s1)
e00031b0:	ea5f b93a 0000      	0xb93aea5f
e00031b6:	de90                	sw	a2,56(a3)
e00031b8:	2000                	fld	fs0,0(s0)
e00031ba:	be40                	fsd	fs0,184(a2)
e00031bc:	3000                	fld	fs0,32(s0)
e00031be:	5130                	lw	a2,96(a0)
e00031c0:	0000                	unimp
e00031c2:	6130                	flw	fa2,64(a0)
e00031c4:	3000                	fld	fs0,32(s0)
e00031c6:	dff0                	sw	a2,124(a5)
e00031c8:	ec59                	bnez	s0,e0003266 <FLASH_AES_SMOKETEST_SIGNED+0x2cd6>
e00031ca:	0000513f 763c0e30 	0x763c0e300000513f
e00031d2:	06ee                	slli	a3,a3,0x1b
e00031d4:	7c58                	flw	fa4,60(s0)
e00031d6:	0000481b          	0x481b
e00031da:	bb20                	fsd	fs0,112(a4)
e00031dc:	8910ff57          	pv.dotusp.sci.b	t5,ra,-30
e00031e0:	6710                	flw	fa2,8(a4)
e00031e2:	513a                	lw	sp,172(sp)
e00031e4:	0000                	unimp
e00031e6:	0e40                	addi	s0,sp,788
e00031e8:	a858                	fsd	fa4,144(s0)
e00031ea:	8051023f 00005133 	0x51338051023f
e00031f2:	3630                	fld	fa2,104(a2)
e00031f4:	5970                	lw	a2,116(a0)
e00031f6:	b752                	fsd	fs4,424(sp)
e00031f8:	4a76                	lw	s4,92(sp)
e00031fa:	50a0                	lw	s0,96(s1)
e00031fc:	0000                	unimp
e00031fe:	9630                	0x9630
e0003200:	52e2                	lw	t0,56(sp)
e0003202:	8919                	andi	a0,a0,6
e0003204:	5930                	lw	a2,112(a0)
e0003206:	3a58                	fld	fa4,176(a2)
e0003208:	0000                	unimp
e000320a:	0000                	unimp
e000320c:	a0d9                	j	e00032d2 <FLASH_AES_SMOKETEST_SIGNED+0x2d42>
e000320e:	21b2                	fld	ft3,264(sp)
e0003210:	5024                	lw	s1,96(s0)
e0003212:	c638                	sw	a4,72(a2)
e0003214:	0000                	unimp
e0003216:	1080                	addi	s0,sp,96
e0003218:	22e0                	fld	fs0,192(a3)
e000321a:	0c7c                	addi	a5,sp,540
e000321c:	5934                	lw	a3,112(a0)
e000321e:	0450                	addi	a2,sp,516
e0003220:	0000                	unimp
e0003222:	5120                	lw	s0,96(a0)
e0003224:	00b5                	addi	ra,ra,13
e0003226:	fc70                	fsw	fa2,124(s0)
e0003228:	0052                	0x52
e000322a:	c630                	sw	a2,72(a2)
e000322c:	0000                	unimp
e000322e:	b030                	fsd	fa2,96(s0)
e0003230:	af58                	fsd	fa4,152(a4)
e0003232:	31b2                	fld	ft3,296(sp)
e0003234:	0002                	0x2
e0003236:	5930                	lw	a2,112(a0)
e0003238:	0000                	unimp
e000323a:	5970                	lw	a2,116(a0)
e000323c:	aaa9                	j	e0003396 <FLASH_AES_SMOKETEST_SIGNED+0x2e06>
e000323e:	4e49                	li	t3,18
e0003240:	54a4                	lw	s1,104(s1)
e0003242:	9828                	0x9828
e0003244:	0000                	unimp
e0003246:	6050                	flw	fa2,4(s0)
e0003248:	a1b0ffbf 71341600 	0x71341600a1b0ffbf
e0003250:	0000                	unimp
e0003252:	b330                	fsd	fa2,96(a4)
e0003254:	aa80                	fsd	fs0,16(a3)
e0003256:	ab22                	fsd	fs0,400(sp)
e0003258:	0002                	0x2
e000325a:	8130                	0x8130
e000325c:	0000                	unimp
e000325e:	8170                	0x8170
e0003260:	65a8                	flw	fa0,72(a1)
e0003262:	9918                	0x9918
e0003264:	54a4                	lw	s1,104(s1)
e0003266:	5ce8                	lw	a0,124(s1)
e0003268:	0000                	unimp
e000326a:	7a90                	flw	fa2,48(a3)
e000326c:	d630                	sw	a2,104(a2)
e000326e:	4008                	lw	a0,0(s0)
e0003270:	513a                	lw	sp,172(sp)
e0003272:	4800                	lw	s0,16(s0)
e0003274:	0000                	unimp
e0003276:	4a10                	lw	a2,16(a2)
e0003278:	7632                	flw	fa2,44(sp)
e000327a:	ba99                	j	e0002bd0 <FLASH_AES_SMOKETEST_SIGNED+0x2640>
e000327c:	9630                	0x9630
e000327e:	7859                	lui	a6,0xffff6
e0003280:	0000                	unimp
e0003282:	2a50                	fld	fa2,144(a2)
e0003284:	5930                	lw	a2,112(a0)
e0003286:	a758                	fsd	fa4,136(a4)
e0003288:	5972                	lw	s2,60(sp)
e000328a:	0002                	0x2
e000328c:	0000                	unimp
e000328e:	60d0                	flw	fa2,4(s1)
e0003290:	20d8                	fld	fa4,128(s1)
e0003292:	9e40                	0x9e40
e0003294:	8512                	mv	a0,tp
e0003296:	263a                	fld	fa2,392(sp)
e0003298:	0000                	unimp
e000329a:	7350                	flw	fa2,36(a4)
e000329c:	22e0                	fld	fs0,192(a3)
e000329e:	0c7c                	addi	a5,sp,540
e00032a0:	5934                	lw	a3,112(a0)
e00032a2:	0450                	addi	a2,sp,516
e00032a4:	0000                	unimp
e00032a6:	5120                	lw	s0,96(a0)
e00032a8:	22e0                	fld	fs0,192(a3)
e00032aa:	838c                	0x838c
e00032ac:	5934                	lw	a3,112(a0)
e00032ae:	0850                	addi	a2,sp,20
e00032b0:	0000                	unimp
e00032b2:	1140                	addi	s0,sp,164
e00032b4:	8970                	0x8970
e00032b6:	f912                	fsw	ft4,176(sp)
e00032b8:	7934                	flw	fa3,112(a0)
e00032ba:	0000ffbf 2d521500 	0x2d5215000000ffbf
e00032c2:	dffa                	sw	t5,252(sp)
e00032c4:	8930                	0x8930
e00032c6:	9188                	0x9188
e00032c8:	0000                	unimp
e00032ca:	0000                	unimp
e00032cc:	22e0                	fld	fs0,192(a3)
e00032ce:	0c7c                	addi	a5,sp,540
e00032d0:	5934                	lw	a3,112(a0)
e00032d2:	0450                	addi	a2,sp,516
e00032d4:	0000                	unimp
e00032d6:	5120                	lw	s0,96(a0)
e00032d8:	8170                	0x8170
e00032da:	9a92                	add	s5,s5,tp
e00032dc:	7134                	flw	fa3,96(a0)
e00032de:	0000ffbf 2f521100 	0x2f5211000000ffbf
e00032e6:	475a                	lw	a4,148(sp)
e00032e8:	8130                	0x8130
e00032ea:	7980                	flw	fs0,48(a1)
e00032ec:	0000                	unimp
e00032ee:	0000                	unimp
e00032f0:	5934                	lw	a3,112(a0)
e00032f2:	6ff0                	flw	fa2,92(a5)
e00032f4:	20d8                	fld	fa4,128(s1)
e00032f6:	5122                	lw	sp,40(sp)
e00032f8:	0000                	unimp
e00032fa:	2630                	fld	fa2,72(a2)
e00032fc:	5934                	lw	a3,112(a0)
e00032fe:	f000                	fsw	fs0,32(s0)
e0003300:	22e0                	fld	fs0,192(a3)
e0003302:	114c                	addi	a1,sp,164
e0003304:	0000                	unimp
e0003306:	0450                	addi	a2,sp,516
e0003308:	7934                	flw	fa3,112(a0)
e000330a:	22e07b2f          	0x22e07b2f
e000330e:	150c                	addi	a1,sp,672
e0003310:	0000                	unimp
e0003312:	0850                	addi	a2,sp,20
e0003314:	8930                	0x8930
e0003316:	46e8                	lw	a0,76(a3)
e0003318:	8970                	0x8970
e000331a:	0002                	0x2
e000331c:	0000                	unimp
e000331e:	ffb0                	fsw	fa2,120(a5)
e0003320:	5934                	lw	a3,112(a0)
e0003322:	3380                	fld	fs0,32(a5)
e0003324:	add2                	fsd	fs4,216(sp)
e0003326:	512a                	lw	sp,168(sp)
e0003328:	0000                	unimp
e000332a:	5580                	lw	s0,40(a1)
e000332c:	8634                	0x8634
e000332e:	ee48                	fsw	fa0,28(a2)
e0003330:	22e0                	fld	fs0,192(a3)
e0003332:	110c                	addi	a1,sp,160
e0003334:	0000                	unimp
e0003336:	0450                	addi	a2,sp,516
e0003338:	5972                	lw	s2,60(sp)
e000333a:	7c72                	flw	fs8,60(sp)
e000333c:	2632                	fld	fa2,264(sp)
e000333e:	6060                	flw	fs0,68(s0)
e0003340:	0000                	unimp
e0003342:	00d0                	addi	a2,sp,68
e0003344:	6111                	addi	sp,sp,256
e0003346:	1384                	addi	s1,sp,480
e0003348:	5930                	lw	a2,112(a0)
e000334a:	fe58                	fsw	fa4,60(a2)
e000334c:	0000                	unimp
e000334e:	0000                	unimp
e0003350:	5121                	li	sp,-24
e0003352:	8ff4                	0x8ff4
e0003354:	163a                	slli	a2,a2,0x2e
e0003356:	e0d9                	bnez	s1,e00033dc <FLASH_AES_SMOKETEST_SIGNED+0x2e4c>
e0003358:	0000                	unimp
e000335a:	2fd0                	fld	fa2,152(a5)
e000335c:	108c                	addi	a1,sp,96
e000335e:	2e44                	fld	fs1,152(a2)
e0003360:	0450                	addi	a2,sp,516
e0003362:	22e0                	fld	fs0,192(a3)
e0003364:	0000                	unimp
e0003366:	5930                	lw	a2,112(a0)
e0003368:	6050                	flw	fa2,4(s0)
e000336a:	1e44                	addi	s1,sp,820
e000336c:	0a10                	addi	a2,sp,272
e000336e:	84c0                	0x84c0
e0003370:	0000                	unimp
e0003372:	a230                	fsd	fa2,64(a2)
e0003374:	5121                	li	sp,-24
e0003376:	8234                	0x8234
e0003378:	563a                	lw	a2,172(sp)
e000337a:	c0d9                	beqz	s1,e0003400 <FLASH_AES_SMOKETEST_SIGNED+0x2e70>
e000337c:	0000                	unimp
e000337e:	ad90                	fsd	fa2,24(a1)
e0003380:	110c                	addi	a1,sp,160
e0003382:	6754                	flw	fa3,12(a4)
e0003384:	0450                	addi	a2,sp,516
e0003386:	22e0                	fld	fs0,192(a3)
e0003388:	0000                	unimp
e000338a:	5930                	lw	a2,112(a0)
e000338c:	0002                	0x2
e000338e:	db20                	sw	s0,112(a4)
e0003390:	8170ffbf 71300000 	0x713000008170ffbf
e0003398:	a9d4                	fsd	fa3,144(a1)
e000339a:	f91a                	fsw	ft6,176(sp)
e000339c:	d680                	sw	s0,40(a3)
e000339e:	7a11                	lui	s4,0xfffe4
e00033a0:	0000                	unimp
e00033a2:	8130                	0x8130
e00033a4:	0002                	0x2
e00033a6:	4910                	lw	a2,16(a0)
e00033a8:	a0d9                	j	e000346e <FLASH_AES_SMOKETEST_SIGNED+0x2ede>
e00033aa:	5971                	li	s2,-4
e00033ac:	0000                	unimp
e00033ae:	6630                	flw	fa2,72(a2)
e00033b0:	54a4                	lw	s1,104(s1)
e00033b2:	a008                	fsd	fa0,0(s0)
e00033b4:	b558                	fsd	fa4,168(a0)
e00033b6:	6091                	lui	ra,0x4
e00033b8:	0000                	unimp
e00033ba:	5930                	lw	a2,112(a0)
e00033bc:	0458                	addi	a4,sp,516
e00033be:	f380                	fsw	fs0,32(a5)
e00033c0:	5929                	li	s2,-22
e00033c2:	6134                	flw	fa3,64(a0)
e00033c4:	0000                	unimp
e00033c6:	9820                	0x9820
e00033c8:	1550                	addi	a2,sp,676
e00033ca:	f1b0                	fsw	fa2,96(a1)
e00033cc:	190c                	addi	a1,sp,176
e00033ce:	4334                	lw	a3,64(a4)
e00033d0:	0000                	unimp
e00033d2:	2320                	fld	fs0,64(a4)
e00033d4:	aa80                	fsd	fs0,16(a3)
e00033d6:	e231                	bnez	a2,e000341a <FLASH_AES_SMOKETEST_SIGNED+0x2e8a>
e00033d8:	0002                	0x2
e00033da:	8130                	0x8130
e00033dc:	0000                	unimp
e00033de:	8170                	0x8170
e00033e0:	7c10                	flw	fa2,56(s0)
e00033e2:	f8a4                	fsw	fs1,112(s1)
e00033e4:	7134                	flw	fa3,96(a0)
e00033e6:	3000                	fld	fs0,32(s0)
e00033e8:	0000                	unimp
e00033ea:	6a10                	flw	fa2,16(a2)
e00033ec:	ab32                	fsd	fa2,400(sp)
e00033ee:	cb20                	sw	s0,80(a4)
e00033f0:	5ce8                	lw	a0,124(s1)
e00033f2:	e298                	fsw	fa4,0(a3)
e00033f4:	0000                	unimp
e00033f6:	54a0                	lw	s0,104(s1)
e00033f8:	5934                	lw	a3,112(a0)
e00033fa:	1910                	addi	a2,sp,176
e00033fc:	2490                	fld	fa2,8(s1)
e00033fe:	512a                	lw	sp,168(sp)
e0003400:	0000                	unimp
e0003402:	0a40                	addi	s0,sp,276
e0003404:	5824                	lw	s1,112(s0)
e0003406:	5b24                	lw	s1,112(a4)
e0003408:	22e0                	fld	fs0,192(a3)
e000340a:	108c                	addi	a1,sp,96
e000340c:	0000                	unimp
e000340e:	0450                	addi	a2,sp,516
e0003410:	2200                	fld	fs0,0(a2)
e0003412:	e230                	fsw	fa2,64(a2)
e0003414:	0b11                	addi	s6,s6,4
e0003416:	5930                	lw	a2,112(a0)
e0003418:	0000                	unimp
e000341a:	c230                	sw	a2,64(a2)
e000341c:	6930                	flw	fa2,80(a0)
e000341e:	0560                	addi	s0,sp,652
e0003420:	06cc                	addi	a1,sp,836
e0003422:	8100                	0x8100
e0003424:	0000                	unimp
e0003426:	a2e0                	fsd	fs0,192(a3)
e0003428:	baa4                	fsd	fs1,112(a3)
e000342a:	a6e8                	fsd	fa0,200(a3)
e000342c:	e8d0                	fsw	fa2,20(s1)
e000342e:	5b22                	lw	s6,40(sp)
e0003430:	0000                	unimp
e0003432:	1510                	addi	a2,sp,672
e0003434:	005c                	addi	a5,sp,4
e0003436:	c910                	sw	a2,16(a0)
e0003438:	ff58                	fsw	fa4,60(a4)
e000343a:	0000503f 613f4130 	0x613f41300000503f
e0003442:	7c79                	lui	s8,0xffffe
e0003444:	4050                	lw	a2,4(s0)
e0003446:	d650                	sw	a2,44(a2)
e0003448:	0000                	unimp
e000344a:	5850                	lw	a2,52(s0)
e000344c:	5930                	lw	a2,112(a0)
e000344e:	f6e8                	fsw	fa0,108(a3)
e0003450:	5970                	lw	a2,116(a0)
e0003452:	0002                	0x2
e0003454:	0000                	unimp
e0003456:	01d0                	addi	a2,sp,196
e0003458:	5b29                	li	s6,-22
e000345a:	3234                	fld	fa3,96(a2)
e000345c:	54a1                	li	s1,-24
e000345e:	9828                	0x9828
e0003460:	0000                	unimp
e0003462:	4f50                	lw	a2,28(a4)
e0003464:	54a4                	lw	s1,104(s1)
e0003466:	1008                	addi	a0,sp,32
e0003468:	6338                	flw	fa4,64(a4)
e000346a:	0b40                	addi	s0,sp,404
e000346c:	0000                	unimp
e000346e:	4aa0                	lw	s0,80(a3)
e0003470:	5970                	lw	a2,116(a0)
e0003472:	3232                	fld	ft4,296(sp)
e0003474:	4339                	li	t1,14
e0003476:	0950                	addi	a2,sp,148
e0003478:	0000                	unimp
e000347a:	9820                	0x9820
e000347c:	54a1                	li	s1,-24
e000347e:	9758                	0x9758
e0003480:	5930                	lw	a2,112(a0)
e0003482:	3458                	fld	fa4,168(s0)
e0003484:	0000                	unimp
e0003486:	0000                	unimp
e0003488:	5979                	li	s2,-2
e000348a:	b562                	fsd	fs8,168(sp)
e000348c:	9828                	0x9828
e000348e:	42a9                	li	t0,10
e0003490:	0000                	unimp
e0003492:	65a0                	flw	fs0,72(a1)
e0003494:	6051                	0x6051
e0003496:	c564                	sw	s1,76(a0)
e0003498:	5930                	lw	a2,112(a0)
e000349a:	0e58                	addi	a4,sp,788
e000349c:	0000                	unimp
e000349e:	0000                	unimp
e00034a0:	0a40                	addi	s0,sp,276
e00034a2:	c910                	sw	a2,16(a0)
e00034a4:	9828                	0x9828
e00034a6:	4b39                	li	s6,14
e00034a8:	0000                	unimp
e00034aa:	54a0                	lw	s0,104(s1)
e00034ac:	0002                	0x2
e00034ae:	bdc0                	fsd	fs0,184(a1)
e00034b0:	20b8                	fld	fa4,64(s1)
e00034b2:	5971                	li	s2,-4
e00034b4:	0000                	unimp
e00034b6:	3630                	fld	fa2,104(a2)
e00034b8:	54a4                	lw	s1,104(s1)
e00034ba:	d388                	sw	a0,32(a5)
e00034bc:	1058                	addi	a4,sp,36
e00034be:	6051                	0x6051
e00034c0:	0000                	unimp
e00034c2:	5930                	lw	a2,112(a0)
e00034c4:	84c0                	0x84c0
e00034c6:	c750                	sw	a2,12(a4)
e00034c8:	4339                	li	t1,14
e00034ca:	0950                	addi	a2,sp,148
e00034cc:	0000                	unimp
e00034ce:	9820                	0x9820
e00034d0:	6429                	lui	s0,0xa
e00034d2:	84d4                	0x84d4
e00034d4:	54a4                	lw	s1,104(s1)
e00034d6:	9828                	0x9828
e00034d8:	0000                	unimp
e00034da:	6190                	flw	fa2,0(a1)
e00034dc:	8130                	0x8130
e00034de:	3b20                	fld	fs0,112(a4)
e00034e0:	8179                	srli	a0,a0,0x1e
e00034e2:	0002                	0x2
e00034e4:	0000                	unimp
e00034e6:	42a0                	lw	s0,64(a3)
e00034e8:	5ce8                	lw	a0,124(s1)
e00034ea:	9ff8                	0x9ff8
e00034ec:	7a90                	flw	fa2,48(a3)
e00034ee:	54a4                	lw	s1,104(s1)
e00034f0:	0000                	unimp
e00034f2:	f880                	fsw	fs0,48(s1)
e00034f4:	42a2                	lw	t0,8(sp)
e00034f6:	5759                	li	a4,-10
e00034f8:	7014                	flw	fa3,32(s0)
e00034fa:	4ad4                	lw	a3,20(a3)
e00034fc:	0000                	unimp
e00034fe:	6810                	flw	fa2,16(s0)
e0003500:	de58                	sw	a4,60(a2)
e0003502:	ba90                	fsd	fa2,48(a3)
e0003504:	0002                	0x2
e0003506:	5930                	lw	a2,112(a0)
e0003508:	0000                	unimp
e000350a:	5970                	lw	a2,116(a0)
e000350c:	42a9                	li	t0,10
e000350e:	f8a9                	bnez	s1,e0003460 <FLASH_AES_SMOKETEST_SIGNED+0x2ed0>
e0003510:	54a4                	lw	s1,104(s1)
e0003512:	9828                	0x9828
e0003514:	0000                	unimp
e0003516:	6050                	flw	fa2,4(s0)
e0003518:	0450                	addi	a2,sp,516
e000351a:	aff0                	fsd	fa2,216(a5)
e000351c:	512a                	lw	sp,168(sp)
e000351e:	5934                	lw	a3,112(a0)
e0003520:	0000                	unimp
e0003522:	8e50                	0x8e50
e0003524:	1101                	addi	sp,sp,-32
e0003526:	f754                	fsw	fa3,44(a4)
e0003528:	363c                	fld	fa5,104(a2)
e000352a:	00d8                	addi	a4,sp,68
e000352c:	0000                	unimp
e000352e:	22e0                	fld	fs0,192(a3)
e0003530:	14cc                	addi	a1,sp,612
e0003532:	a914                	fsd	fa3,16(a0)
e0003534:	0850                	addi	a2,sp,20
e0003536:	22e0                	fld	fs0,192(a3)
e0003538:	0000                	unimp
e000353a:	5930                	lw	a2,112(a0)
e000353c:	5120                	lw	s0,96(a0)
e000353e:	b564                	fsd	fs1,232(a0)
e0003540:	d63a                	sw	a4,44(sp)
e0003542:	80d9                	srli	s1,s1,0x16
e0003544:	0000                	unimp
e0003546:	05d0                	addi	a2,sp,708
e0003548:	110c                	addi	a1,sp,160
e000354a:	6754                	flw	fa3,12(a4)
e000354c:	0450                	addi	a2,sp,516
e000354e:	22e0                	fld	fs0,192(a3)
e0003550:	0000                	unimp
e0003552:	5930                	lw	a2,112(a0)
e0003554:	0002                	0x2
e0003556:	db20                	sw	s0,112(a4)
e0003558:	8170ffbf 71300000 	0x713000008170ffbf
e0003560:	0994                	addi	a3,sp,208
e0003562:	a23a                	fsd	fa4,256(sp)
e0003564:	a680                	fsd	fs0,8(a3)
e0003566:	7a90                	flw	fa2,48(a3)
e0003568:	0000                	unimp
e000356a:	8130                	0x8130
e000356c:	5934                	lw	a3,112(a0)
e000356e:	0e40                	addi	s0,sp,788
e0003570:	20d8                	fld	fa4,128(s1)
e0003572:	5120                	lw	s0,96(a0)
e0003574:	0000                	unimp
e0003576:	6630                	flw	fa2,72(a2)
e0003578:	5934                	lw	a3,112(a0)
e000357a:	f000                	fsw	fs0,32(s0)
e000357c:	22e0                	fld	fs0,192(a3)
e000357e:	114c                	addi	a1,sp,164
e0003580:	0000                	unimp
e0003582:	0450                	addi	a2,sp,516
e0003584:	7934                	flw	fa3,112(a0)
e0003586:	22e07b2f          	0x22e07b2f
e000358a:	150c                	addi	a1,sp,672
e000358c:	0000                	unimp
e000358e:	0850                	addi	a2,sp,20
e0003590:	8930                	0x8930
e0003592:	46e8                	lw	a0,76(a3)
e0003594:	8970                	0x8970
e0003596:	0002                	0x2
e0003598:	0000                	unimp
e000359a:	ffb0                	fsw	fa2,120(a5)
e000359c:	5ce8                	lw	a0,124(s1)
e000359e:	18a8                	addi	a0,sp,120
e00035a0:	8050                	0x8050
e00035a2:	54a4                	lw	s1,104(s1)
e00035a4:	0000                	unimp
e00035a6:	8080                	0x8080
e00035a8:	5934                	lw	a3,112(a0)
e00035aa:	96e0                	0x96e0
e00035ac:	0b98                	addi	a4,sp,464
e00035ae:	512a                	lw	sp,168(sp)
e00035b0:	0000                	unimp
e00035b2:	7260                	flw	fs0,100(a2)
e00035b4:	7134                	flw	fa3,96(a0)
e00035b6:	22e0256f          	jal	a0,e00057e4 <FLASH_AES_SMOKETEST_SIGNED+0x5254>
e00035ba:	110c                	addi	a1,sp,160
e00035bc:	0000                	unimp
e00035be:	0450                	addi	a2,sp,516
e00035c0:	8130                	0x8130
e00035c2:	68a0                	flw	fs0,80(s1)
e00035c4:	8170                	0x8170
e00035c6:	0002                	0x2
e00035c8:	0000                	unimp
e00035ca:	ffb0                	fsw	fa2,120(a5)
e00035cc:	5ce8                	lw	a0,124(s1)
e00035ce:	d918                	sw	a4,48(a0)
e00035d0:	7c10                	flw	fa2,56(s0)
e00035d2:	54a4                	lw	s1,104(s1)
e00035d4:	0000                	unimp
e00035d6:	6080                	flw	fs0,0(s1)
e00035d8:	763a                	flw	fa2,172(sp)
e00035da:	e238                	fsw	fa4,64(a2)
e00035dc:	ad18                	fsd	fa4,24(a0)
e00035de:	83d2                	mv	t2,s4
e00035e0:	0000                	unimp
e00035e2:	6a60                	flw	fs0,84(a2)
e00035e4:	0450                	addi	a2,sp,516
e00035e6:	bdc0                	fsd	fs0,184(a1)
e00035e8:	5120                	lw	s0,96(a0)
e00035ea:	5934                	lw	a3,112(a0)
e00035ec:	0000                	unimp
e00035ee:	20d0                	fld	fa2,128(s1)
e00035f0:	0850                	addi	a2,sp,20
e00035f2:	1dc0                	addi	s0,sp,756
e00035f4:	114c                	addi	a1,sp,164
e00035f6:	5934                	lw	a3,112(a0)
e00035f8:	0000                	unimp
e00035fa:	22e0                	fld	fs0,192(a3)
e00035fc:	1b20ffbf 7934150c 	0x7934150c1b20ffbf
e0003604:	0000                	unimp
e0003606:	22e0                	fld	fs0,192(a3)
e0003608:	3288                	fld	fa0,32(a3)
e000360a:	3910                	fld	fa2,48(a0)
e000360c:	0002                	0x2
e000360e:	8930                	0x8930
e0003610:	0000                	unimp
e0003612:	8970                	0x8970
e0003614:	8018                	0x8018
e0003616:	dc74                	sw	a3,124(s0)
e0003618:	5ce8                	lw	a0,124(s1)
e000361a:	7268                	flw	fa0,100(a2)
e000361c:	0000                	unimp
e000361e:	54a0                	lw	s0,104(s1)
e0003620:	0002                	0x2
e0003622:	2ff0                	fld	fa2,216(a5)
e0003624:	8012                	0x8012
e0003626:	597a                	lw	s2,188(sp)
e0003628:	0000                	unimp
e000362a:	0c90                	addi	a2,sp,592
e000362c:	54a4                	lw	s1,104(s1)
e000362e:	61b8                	flw	fa4,64(a1)
e0003630:	5b58                	lw	a4,52(a4)
e0003632:	63d0                	flw	fa2,4(a5)
e0003634:	0000                	unimp
e0003636:	5930                	lw	a2,112(a0)
e0003638:	00cc                	addi	a1,sp,68
e000363a:	b230                	fsd	fa2,96(a2)
e000363c:	aaa9                	j	e0003796 <FLASH_AES_SMOKETEST_SIGNED+0x3206>
e000363e:	5039                	0x5039
e0003640:	0000                	unimp
e0003642:	9820                	0x9820
e0003644:	713a                	flw	ft2,172(sp)
e0003646:	605171bf 00008adc 	0x8adc605171bf
e000364e:	4e30                	lw	a2,88(a2)
e0003650:	8130                	0x8130
e0003652:	68a0                	flw	fs0,80(s1)
e0003654:	8170                	0x8170
e0003656:	0002                	0x2
e0003658:	0000                	unimp
e000365a:	ffb0                	fsw	fa2,120(a5)
e000365c:	edc4642b          	0xedc4642b
e0003660:	7890                	flw	fa2,48(s1)
e0003662:	7454                	flw	fa3,44(s0)
e0003664:	0000                	unimp
e0003666:	0080                	addi	s0,sp,64
e0003668:	f280                	fsw	fs0,32(a3)
e000366a:	0002ae4f          	fnmadd.s	ft8,ft5,ft0,ft0,rdn
e000366e:	8130                	0x8130
e0003670:	0000                	unimp
e0003672:	8170                	0x8170
e0003674:	6818                	flw	fa4,16(s0)
e0003676:	14d4                	addi	a3,sp,612
e0003678:	54a4                	lw	s1,104(s1)
e000367a:	5ce8                	lw	a0,124(s1)
e000367c:	0000                	unimp
e000367e:	7a90                	flw	fa2,48(a3)
e0003680:	0950                	addi	a2,sp,148
e0003682:	51b0                	lw	a2,96(a1)
e0003684:	2954                	fld	fa3,144(a0)
e0003686:	4332                	lw	t1,12(sp)
e0003688:	0000                	unimp
e000368a:	7010                	flw	fa2,32(s0)
e000368c:	d858                	sw	a4,52(s0)
e000368e:	0002f38f          	0x2f38f
e0003692:	5930                	lw	a2,112(a0)
e0003694:	0000                	unimp
e0003696:	5970                	lw	a2,116(a0)
e0003698:	5b39                	li	s6,-18
e000369a:	91b0                	0x91b0
e000369c:	65a8                	flw	fa0,72(a1)
e000369e:	9828                	0x9828
e00036a0:	0000                	unimp
e00036a2:	54a0                	lw	s0,104(s1)
e00036a4:	f5d0                	fsw	fa2,44(a1)
e00036a6:	ab30438b          	p.lbu	t2,-1357(zero!) # fffffab3 <pulp__FC+0xfffffab4>
e00036aa:	0a58                	addi	a4,sp,276
e00036ac:	0000                	unimp
e00036ae:	1540                	addi	s0,sp,676
e00036b0:	0a58                	addi	a4,sp,276
e00036b2:	6c70                	flw	fa2,92(s0)
e00036b4:	5014                	lw	a3,32(s0)
e00036b6:	6334                	flw	fa3,64(a4)
e00036b8:	0000                	unimp
e00036ba:	10c0                	addi	s0,sp,100
e00036bc:	a7d0                	fsd	fa2,136(a5)
e00036be:	0064800f          	0x64800f
e00036c2:	5050                	lw	a2,36(s0)
e00036c4:	0000                	unimp
e00036c6:	6030                	flw	fa2,64(s0)
e00036c8:	64d1597b          	lp.setupi	x18,1613,e00036cc <FLASH_AES_SMOKETEST_SIGNED+0x313c>
e00036cc:	ff50                	fsw	fa2,60(a4)
e00036ce:	f69f 0000 6130      	0x61300000f69f
e00036d4:	6155                	addi	sp,sp,304
e00036d6:	ac74                	fsd	fa3,216(s0)
e00036d8:	5930                	lw	a2,112(a0)
e00036da:	1e58                	addi	a4,sp,820
e00036dc:	0000                	unimp
e00036de:	0000                	unimp
e00036e0:	5930                	lw	a2,112(a0)
e00036e2:	e918                	fsw	fa4,16(a0)
e00036e4:	0002597b          	lp.setupi	x18,0,e00036ec <FLASH_AES_SMOKETEST_SIGNED+0x315c>
e00036e8:	0000                	unimp
e00036ea:	7790                	flw	fa2,40(a5)
e00036ec:	9828                	0x9828
e00036ee:	e009                	bnez	s0,e00036f0 <FLASH_AES_SMOKETEST_SIGNED+0x3160>
e00036f0:	645f 54a4 0000      	0x54a4645f
e00036f6:	b050                	fsd	fa2,160(s0)
e00036f8:	5564                	lw	s1,108(a0)
e00036fa:	d918                	sw	a4,48(a0)
e00036fc:	0119                	addi	sp,sp,6
e00036fe:	a81a                	fsd	ft6,16(sp)
e0003700:	0000                	unimp
e0003702:	aaa0                	fsd	fs0,80(a3)
e0003704:	c225                	beqz	a2,e0003764 <FLASH_AES_SMOKETEST_SIGNED+0x31d4>
e0003706:	2755                	jal	e0003eaa <FLASH_AES_SMOKETEST_SIGNED+0x391a>
e0003708:	d024                	sw	s1,96(s0)
e000370a:	c925                	beqz	a0,e000377a <FLASH_AES_SMOKETEST_SIGNED+0x31ea>
e000370c:	0000                	unimp
e000370e:	df20                	sw	s0,120(a4)
e0003710:	a625                	j	e0003a38 <FLASH_AES_SMOKETEST_SIGNED+0x34a8>
e0003712:	44d5                	li	s1,21
e0003714:	b425                	j	e000313c <FLASH_AES_SMOKETEST_SIGNED+0x2bac>
e0003716:	ad25                	j	e0003d4e <FLASH_AES_SMOKETEST_SIGNED+0x37be>
e0003718:	0000                	unimp
e000371a:	bb20                	fsd	fs0,112(a4)
e000371c:	4264                	lw	s1,68(a2)
e000371e:	7e44                	flw	fs1,60(a2)
e0003720:	9065                	srli	s0,s0,0x39
e0003722:	4964                	lw	s1,84(a0)
e0003724:	0000                	unimp
e0003726:	9f20                	0x9f20
e0003728:	5978                	lw	a4,116(a0)
e000372a:	e4d2                	fsw	fs4,72(sp)
e000372c:	1614                	addi	a3,sp,800
e000372e:	0826                	slli	a6,a6,0x9
e0003730:	0000                	unimp
e0003732:	0b60                	addi	s0,sp,412
e0003734:	631f f8a4 5930      	0x5930f8a4631f
e000373a:	8d58                	0x8d58
e000373c:	0000                	unimp
e000373e:	0000                	unimp
e0003740:	4a2c                	lw	a1,80(a2)
e0003742:	e56c                	fsw	fa1,76(a0)
e0003744:	686715db          	p.machhun	a1,a4,t1,20
e0003748:	0000                	unimp
e000374a:	7f10                	flw	fa2,56(a4)
e000374c:	c52d                	beqz	a0,e00037b6 <FLASH_AES_SMOKETEST_SIGNED+0x3226>
e000374e:	7a9d                	lui	s5,0xfffe7
e0003750:	0cac                	addi	a1,sp,600
e0003752:	e4ec                	fsw	fa1,76(s1)
e0003754:	0000                	unimp
e0003756:	2a60                	fld	fs0,208(a2)
e0003758:	462d                	li	a2,11
e000375a:	275d                	jal	e0003f00 <FLASH_AES_SMOKETEST_SIGNED+0x3970>
e000375c:	85ad                	srai	a1,a1,0xb
e000375e:	65ed                	lui	a1,0x1b
e0003760:	0000                	unimp
e0003762:	a560                	fsd	fs0,200(a0)
e0003764:	a428                	fsd	fa0,72(s0)
e0003766:	6ff8                	flw	fa4,92(a5)
e0003768:	06ad                	addi	a3,a3,11
e000376a:	bc6d                	j	e0003224 <FLASH_AES_SMOKETEST_SIGNED+0x2c94>
e000376c:	0000                	unimp
e000376e:	2660                	fld	fs0,200(a2)
e0003770:	9aa8                	0x9aa8
e0003772:	8008                	0x8008
e0003774:	ab28                	fsd	fa0,80(a4)
e0003776:	92e8                	0x92e8
e0003778:	0000                	unimp
e000377a:	b360                	fsd	fs0,224(a4)
e000377c:	1670                	addi	a2,sp,812
e000377e:	c8a4                	sw	s1,80(s1)
e0003780:	4b302e6f          	jal	t3,e0006432 <FLASH_AES_SMOKETEST_SIGNED+0x5ea2>
e0003784:	0000                	unimp
e0003786:	c630                	sw	a2,72(a2)
e0003788:	5be0                	lw	s0,116(a5)
e000378a:	7388                	flw	fa0,32(a5)
e000378c:	6138                	flw	fa4,64(a0)
e000378e:	2000                	fld	fs0,0(s0)
e0003790:	0000                	unimp
e0003792:	50a0                	lw	s0,96(s1)
e0003794:	5134                	lw	a3,96(a0)
e0003796:	94d0                	0x94d0
e0003798:	09d2                	slli	s3,s3,0x14
e000379a:	c01c                	sw	a5,0(s0)
e000379c:	0000                	unimp
e000379e:	6c10                	flw	fa2,24(s0)
e00037a0:	0a4e                	slli	s4,s4,0x13
e00037a2:	66e0                	flw	fs0,76(a3)
e00037a4:	4260                	lw	s0,68(a2)
e00037a6:	4638                	lw	a4,72(a2)
e00037a8:	0000                	unimp
e00037aa:	2000                	fld	fs0,0(s0)
e00037ac:	54e8                	lw	a0,108(s1)
e00037ae:	ec78                	fsw	fa4,92(s0)
e00037b0:	2000                	fld	fs0,0(s0)
e00037b2:	58a0                	lw	s0,112(s1)
e00037b4:	0000                	unimp
e00037b6:	4130                	lw	a2,64(a0)
e00037b8:	c2a8                	sw	a0,64(a3)
e00037ba:	b759                	j	e0003740 <FLASH_AES_SMOKETEST_SIGNED+0x31b0>
e00037bc:	9028                	0x9028
e00037be:	c819                	beqz	s0,e00037d4 <FLASH_AES_SMOKETEST_SIGNED+0x3244>
e00037c0:	0000                	unimp
e00037c2:	6220                	flw	fs0,64(a2)
e00037c4:	0ad0                	addi	a2,sp,340
e00037c6:	8dca                	mv	s11,s2
e00037c8:	00b1663f 0fd00000 	0xfd0000000b1663f
e00037d0:	4010                	lw	a2,0(s0)
e00037d2:	9a94                	0x9a94
e00037d4:	3634                	fld	fa3,104(a2)
e00037d6:	60b0                	flw	fa2,64(s1)
e00037d8:	0000                	unimp
e00037da:	c010                	sw	a2,0(s0)
e00037dc:	f008b0af          	0xf008b0af
e00037e0:	4934                	lw	a3,80(a0)
e00037e2:	ffb0                	fsw	fa2,120(a5)
e00037e4:	0000                	unimp
e00037e6:	6010                	flw	fa2,0(s0)
e00037e8:	5265                	li	tp,-7
e00037ea:	e918                	fsw	fa4,16(a0)
e00037ec:	2000                	fld	fs0,0(s0)
e00037ee:	d7d0                	sw	a2,44(a5)
e00037f0:	0000                	unimp
e00037f2:	c930                	sw	a2,80(a0)
e00037f4:	5568                	lw	a0,108(a0)
e00037f6:	04d9                	addi	s1,s1,22
e00037f8:	00a1                	addi	ra,ra,8
e00037fa:	5220                	lw	s0,96(a2)
e00037fc:	0000                	unimp
e00037fe:	3630                	fld	fa2,104(a2)
e0003800:	0455                	addi	s0,s0,21
e0003802:	3ff0                	fld	fa2,248(a5)
e0003804:	0054                	addi	a3,sp,4
e0003806:	5930                	lw	a2,112(a0)
e0003808:	0000                	unimp
e000380a:	5030                	lw	a2,96(s0)
e000380c:	6b30                	flw	fa2,80(a4)
e000380e:	f910                	fsw	fa2,48(a0)
e0003810:	5839                	li	a6,-18
e0003812:	0058                	addi	a4,sp,4
e0003814:	0000                	unimp
e0003816:	5de0                	lw	s0,124(a1)
e0003818:	93d0                	0x93d0
e000381a:	18a8                	addi	a0,sp,120
e000381c:	0230                	addi	a2,sp,264
e000381e:	0b68                	addi	a0,sp,412
e0003820:	0000                	unimp
e0003822:	0cb0                	addi	a2,sp,600
e0003824:	6090                	flw	fa2,0(s1)
e0003826:	74d0                	flw	fa2,44(s1)
e0003828:	5039                	0x5039
e000382a:	0050                	addi	a2,sp,4
e000382c:	0000                	unimp
e000382e:	55e0                	lw	s0,108(a1)
e0003830:	1961                	addi	s2,s2,-8
e0003832:	cc70                	sw	a2,92(s0)
e0003834:	0a68                	addi	a0,sp,284
e0003836:	9630                	0x9630
e0003838:	0000                	unimp
e000383a:	0a30                	addi	a2,sp,280
e000383c:	54e0                	lw	s0,108(s1)
e000383e:	b008                	fsd	fa0,32(s0)
e0003840:	6138                	flw	fa4,64(a0)
e0003842:	2000                	fld	fs0,0(s0)
e0003844:	0000                	unimp
e0003846:	58a0                	lw	s0,112(s1)
e0003848:	4fd9                	li	t6,22
e000384a:	44d1                	li	s1,20
e000384c:	6019                	0x6019
e000384e:	c2a4                	sw	s1,64(a3)
e0003850:	0000                	unimp
e0003852:	9020                	0x9020
e0003854:	609f 075c ee30      	0xee30075c609f
e000385a:	ba49                	j	e00031ec <FLASH_AES_SMOKETEST_SIGNED+0x2c5c>
e000385c:	0000                	unimp
e000385e:	4050                	lw	a2,4(s0)
e0003860:	c2a9                	beqz	a3,e00038a2 <FLASH_AES_SMOKETEST_SIGNED+0x3312>
e0003862:	8569                	srai	a0,a0,0x1a
e0003864:	54e8                	lw	a0,108(s1)
e0003866:	9028                	0x9028
e0003868:	0000                	unimp
e000386a:	58a0                	lw	s0,112(s1)
e000386c:	c225                	beqz	a2,e00038cc <FLASH_AES_SMOKETEST_SIGNED+0x333c>
e000386e:	b005                	j	e000308e <FLASH_AES_SMOKETEST_SIGNED+0x2afe>
e0003870:	d028                	sw	a0,96(s0)
e0003872:	c925                	beqz	a0,e00038e2 <FLASH_AES_SMOKETEST_SIGNED+0x3352>
e0003874:	0000                	unimp
e0003876:	5620                	lw	s0,104(a2)
e0003878:	a625                	j	e0003ba0 <FLASH_AES_SMOKETEST_SIGNED+0x3610>
e000387a:	44d5                	li	s1,21
e000387c:	b425                	j	e00032a4 <FLASH_AES_SMOKETEST_SIGNED+0x2d14>
e000387e:	ad25                	j	e0003eb6 <FLASH_AES_SMOKETEST_SIGNED+0x3926>
e0003880:	0000                	unimp
e0003882:	bb20                	fsd	fs0,112(a4)
e0003884:	4264                	lw	s1,68(a2)
e0003886:	7e44                	flw	fs1,60(a2)
e0003888:	9065                	srli	s0,s0,0x39
e000388a:	4964                	lw	s1,84(a0)
e000388c:	0000                	unimp
e000388e:	9f20                	0x9f20
e0003890:	1798                	addi	a4,sp,992
e0003892:	16146a97          	auipc	s5,0x16146
e0003896:	0826                	slli	a6,a6,0x9
e0003898:	0000                	unimp
e000389a:	0b60                	addi	s0,sp,412
e000389c:	381c                	fld	fa5,48(s0)
e000389e:	71b4                	flw	fa3,96(a1)
e00038a0:	8aed                	andi	a3,a3,27
e00038a2:	a058                	fsd	fa4,128(s0)
e00038a4:	0000                	unimp
e00038a6:	6060                	flw	fs0,68(s0)
e00038a8:	6338                	flw	fa4,64(a4)
e00038aa:	dc75                	beqz	s0,e00038a6 <FLASH_AES_SMOKETEST_SIGNED+0x3316>
e00038ac:	2b10                	fld	fa2,16(a4)
e00038ae:	3320                	fld	fs0,96(a4)
e00038b0:	0000                	unimp
e00038b2:	2930                	fld	fa2,80(a0)
e00038b4:	5b30                	lw	a2,112(a4)
e00038b6:	d750                	sw	a2,44(a4)
e00038b8:	5b30                	lw	a2,112(a4)
e00038ba:	2f60                	fld	fs0,216(a4)
e00038bc:	0000                	unimp
e00038be:	2f60                	fld	fs0,216(a4)
e00038c0:	0058                	addi	a4,sp,4
e00038c2:	3750                	fld	fa2,168(a4)
e00038c4:	5c24                	lw	s1,120(s0)
e00038c6:	e039                	bnez	s0,e000390c <FLASH_AES_SMOKETEST_SIGNED+0x337c>
e00038c8:	0000                	unimp
e00038ca:	0b30                	addi	a2,sp,408
e00038cc:	1c58                	addi	a4,sp,564
e00038ce:	3230                	fld	fa2,96(a2)
e00038d0:	0728                	addi	a0,sp,904
e00038d2:	0230                	addi	a2,sp,264
e00038d4:	0000                	unimp
e00038d6:	5b30                	lw	a2,112(a4)
e00038d8:	4c70633f ef371e31 	0xef371e314c70633f
e00038e0:	0000                	unimp
e00038e2:	3fd0                	fld	fa2,184(a5)
e00038e4:	0080                	addi	s0,sp,64
e00038e6:	0dc0                	addi	s0,sp,724
e00038e8:	0314                	addi	a3,sp,384
e00038ea:	583a                	lw	a6,172(sp)
e00038ec:	0000                	unimp
e00038ee:	0700                	addi	s0,sp,896
e00038f0:	5854                	lw	a3,52(s0)
e00038f2:	a564                	fsd	fs1,200(a0)
e00038f4:	2b10                	fld	fa2,16(a4)
e00038f6:	6050                	flw	fa2,4(s0)
e00038f8:	0000                	unimp
e00038fa:	5a30                	lw	a2,112(a2)
e00038fc:	2000                	fld	fs0,0(s0)
e00038fe:	4a90                	lw	a2,16(a3)
e0003900:	5b6c                	lw	a1,116(a4)
e0003902:	6938                	flw	fa4,80(a0)
e0003904:	0000                	unimp
e0003906:	2910                	fld	fa2,16(a0)
e0003908:	2000                	fld	fs0,0(s0)
e000390a:	d8a0                	sw	s0,112(s1)
e000390c:	0d5e                	slli	s10,s10,0x17
e000390e:	5930                	lw	a2,112(a0)
e0003910:	0000                	unimp
e0003912:	4630                	lw	a2,72(a2)
e0003914:	0c58                	addi	a4,sp,532
e0003916:	01b4                	addi	a3,sp,200
e0003918:	6b300b67          	jalr	s6,1715(zero) # 6b3 <_min_stack-0x194d>
e000391c:	0000                	unimp
e000391e:	e630                	fsw	fa2,72(a2)
e0003920:	67d4                	flw	fa3,12(a5)
e0003922:	8dc0                	0x8dc0
e0003924:	6330                	flw	fa2,64(a4)
e0003926:	0c78                	addi	a4,sp,540
e0003928:	0000                	unimp
e000392a:	07c0                	addi	s0,sp,964
e000392c:	67d1                	lui	a5,0x14
e000392e:	8b21                	andi	a4,a4,8
e0003930:	0e60                	addi	s0,sp,796
e0003932:	6fd0                	flw	fa2,28(a5)
e0003934:	0000                	unimp
e0003936:	0230                	addi	a2,sp,264
e0003938:	d910                	sw	a2,48(a0)
e000393a:	0e48                	addi	a0,sp,788
e000393c:	06c862ef          	jal	t0,e00899a8 <fromhost+0x79998>
e0003940:	0000                	unimp
e0003942:	ee50                	fsw	fa2,28(a2)
e0003944:	0b29                	addi	s6,s6,10
e0003946:	fc75                	bnez	s0,e0003942 <FLASH_AES_SMOKETEST_SIGNED+0x33b2>
e0003948:	2058                	fld	fa4,128(s0)
e000394a:	8820                	0x8820
e000394c:	0000                	unimp
e000394e:	5930                	lw	a2,112(a0)
e0003950:	0052                	0x52
e0003952:	ce40                	sw	s0,28(a2)
e0003954:	0826                	slli	a6,a6,0x9
e0003956:	8138                	0x8138
e0003958:	0000                	unimp
e000395a:	1450                	addi	a2,sp,548
e000395c:	bfd8                	fsd	fa4,184(a5)
e000395e:	b6e8                	fsd	fa0,232(a3)
e0003960:	1f55                	addi	t5,t5,-11
e0003962:	fe94                	fsw	fa3,56(a3)
e0003964:	0000                	unimp
e0003966:	7930                	flw	fa2,112(a0)
e0003968:	1a900e87          	0x1a900e87
e000396c:	8330017b          	lp.starti	x2,e00029d2 <FLASH_AES_SMOKETEST_SIGNED+0x2442>
e0003970:	0000                	unimp
e0003972:	7130                	flw	fa2,96(a0)
e0003974:	0081                	addi	ra,ra,0
e0003976:	4e40                	lw	s0,28(a2)
e0003978:	2000                	fld	fs0,0(s0)
e000397a:	3630                	fld	fa2,104(a2)
e000397c:	0000                	unimp
e000397e:	7130                	flw	fa2,96(a0)
e0003980:	7970                	flw	fa2,116(a0)
e0003982:	4910                	lw	a2,16(a0)
e0003984:	8138                	0x8138
e0003986:	0271                	addi	tp,tp,28
e0003988:	0000                	unimp
e000398a:	73e0                	flw	fs0,100(a5)
e000398c:	7c2d                	lui	s8,0xfffeb
e000398e:	5b29                	li	s6,-22
e0003990:	1e78793f 00000000 	0x1e78793f
e0003998:	95600173          	0x95600173
e000399c:	19c4                	addi	s1,sp,244
e000399e:	593c                	lw	a5,112(a0)
e00039a0:	0000                	unimp
e00039a2:	39c0                	fld	fs0,176(a1)
e00039a4:	7130                	flw	fa2,96(a0)
e00039a6:	713cab27          	fsw	fs3,1814(s9)
e00039aa:	0555                	addi	a0,a0,21
e00039ac:	0000                	unimp
e00039ae:	b1d0                	fsd	fa2,160(a1)
e00039b0:	1055                	c.addi	zero,-11
e00039b2:	c910                	sw	a2,16(a0)
e00039b4:	613c2187          	flw	ft3,1555(s8) # fffeb613 <pulp__FC+0xfffeb614>
e00039b8:	0000                	unimp
e00039ba:	ff70                	fsw	fa2,124(a4)
e00039bc:	0230                	addi	a2,sp,264
e00039be:	e008                	fsw	fa0,0(s0)
e00039c0:	6138                	flw	fa4,64(a0)
e00039c2:	4066                	0x4066
e00039c4:	0000                	unimp
e00039c6:	a7d0                	fsd	fa2,136(a5)
e00039c8:	a7d0                	fsd	fa2,136(a5)
e00039ca:	81b8                	0x81b8
e00039cc:	6130                	flw	fa2,64(a0)
e00039ce:	1555                	addi	a0,a0,-11
e00039d0:	0000                	unimp
e00039d2:	0c60                	addi	s0,sp,540
e00039d4:	0c68                	addi	a0,sp,540
e00039d6:	56e0                	lw	s0,108(a3)
e00039d8:	4066                	0x4066
e00039da:	0a30                	addi	a2,sp,280
e00039dc:	0000                	unimp
e00039de:	6130                	flw	fa2,64(a0)
e00039e0:	4056                	0x4056
e00039e2:	f8a0                	fsw	fs0,112(s1)
e00039e4:	97d8                	0x97d8
e00039e6:	5138                	lw	a4,96(a0)
e00039e8:	0000                	unimp
e00039ea:	1690                	addi	a2,sp,864
e00039ec:	208a                	fld	ft1,128(sp)
e00039ee:	ea9c                	fsw	fa5,16(a3)
e00039f0:	0a68                	addi	a0,sp,284
e00039f2:	0110                	addi	a2,sp,128
e00039f4:	0000                	unimp
e00039f6:	1230                	addi	a2,sp,296
e00039f8:	5818                	lw	a4,48(s0)
e00039fa:	14dc                	addi	a5,sp,612
e00039fc:	015c                	addi	a5,sp,132
e00039fe:	0820                	addi	s0,sp,24
e0003a00:	0000                	unimp
e0003a02:	5130                	lw	a2,96(a0)
e0003a04:	60da                	flw	ft1,148(sp)
e0003a06:	7004                	flw	fs1,32(s0)
e0003a08:	1884                	addi	s1,sp,112
e0003a0a:	011c                	addi	a5,sp,128
e0003a0c:	0000                	unimp
e0003a0e:	6010                	flw	fa2,0(s0)
e0003a10:	e061                	bnez	s0,e0003ad0 <FLASH_AES_SMOKETEST_SIGNED+0x3540>
e0003a12:	456c                	lw	a1,76(a0)
e0003a14:	0828                	addi	a0,sp,24
e0003a16:	1018                	addi	a4,sp,32
e0003a18:	0000                	unimp
e0003a1a:	5320                	lw	s0,96(a4)
e0003a1c:	64ec                	flw	fa1,76(s1)
e0003a1e:	200c                	fld	fa1,0(s0)
e0003a20:	a26c                	fsd	fa1,192(a2)
e0003a22:	84ac                	0x84ac
e0003a24:	0000                	unimp
e0003a26:	c220                	sw	s0,64(a2)
e0003a28:	1948                	addi	a0,sp,180
e0003a2a:	3b24                	fld	fs1,112(a4)
e0003a2c:	d514                	sw	a3,40(a0)
e0003a2e:	92ec                	0x92ec
e0003a30:	0000                	unimp
e0003a32:	48d0                	lw	a2,20(s1)
e0003a34:	a410                	fsd	fa2,8(s0)
e0003a36:	256c                	fld	fa1,200(a0)
e0003a38:	603c                	flw	fa5,64(s0)
e0003a3a:	0492                	slli	s1,s1,0x4
e0003a3c:	0000                	unimp
e0003a3e:	ad90                	fsd	fa2,24(a1)
e0003a40:	5130                	lw	a2,96(a0)
e0003a42:	3910                	fld	fa2,48(a0)
e0003a44:	5378                	lw	a4,100(a4)
e0003a46:	016e                	slli	sp,sp,0x1b
e0003a48:	0000                	unimp
e0003a4a:	42a0                	lw	s0,64(a3)
e0003a4c:	6b2016e3          	bne	zero,s2,e00048f8 <FLASH_AES_SMOKETEST_SIGNED+0x4368>
e0003a50:	5b78d353          	0x5b78d353
e0003a54:	0000                	unimp
e0003a56:	6050                	flw	fa2,4(s0)
e0003a58:	7338                	flw	fa4,96(a4)
e0003a5a:	7386                	flw	ft7,96(sp)
e0003a5c:	0058                	addi	a4,sp,4
e0003a5e:	db16                	sw	t0,180(sp)
e0003a60:	0000                	unimp
e0003a62:	5930                	lw	a2,112(a0)
e0003a64:	ff50                	fsw	fa2,60(a4)
e0003a66:	54105dcf          	fnmadd.ah	s11,zero,ra,a0
e0003a6a:	9936                	add	s2,s2,a3
e0003a6c:	0000                	unimp
e0003a6e:	0b50                	addi	a2,sp,404
e0003a70:	513c                	lw	a5,96(a0)
e0003a72:	4a99                	li	s5,6
e0003a74:	54e4                	lw	s1,108(s1)
e0003a76:	b018                	fsd	fa4,32(s0)
e0003a78:	0000                	unimp
e0003a7a:	5810                	lw	a2,48(s0)
e0003a7c:	6810                	flw	fa2,16(s0)
e0003a7e:	9b24                	0x9b24
e0003a80:	5930                	lw	a2,112(a0)
e0003a82:	0c6d                	addi	s8,s8,27
e0003a84:	0000                	unimp
e0003a86:	1460                	addi	s0,sp,556
e0003a88:	20001357          	pv.min.b	t1,zero,zero
e0003a8c:	0794                	addi	a3,sp,960
e0003a8e:	6332                	flw	ft6,12(sp)
e0003a90:	0000                	unimp
e0003a92:	7010                	flw	fa2,32(s0)
e0003a94:	008e                	slli	ra,ra,0x3
e0003a96:	0914                	addi	a3,sp,144
e0003a98:	d4d8                	sw	a4,44(s1)
e0003a9a:	9298                	0x9298
e0003a9c:	0000                	unimp
e0003a9e:	d310                	sw	a2,32(a4)
e0003aa0:	58d4                	lw	a3,52(s1)
e0003aa2:	e6e4                	fsw	fs1,76(a3)
e0003aa4:	0052                	0x52
e0003aa6:	0080                	addi	s0,sp,64
e0003aa8:	0000                	unimp
e0003aaa:	8230                	0x8230
e0003aac:	2052                	fld	ft0,272(sp)
e0003aae:	48a0                	lw	s0,80(s1)
e0003ab0:	008d                	addi	ra,ra,3
e0003ab2:	4234                	lw	a3,64(a2)
e0003ab4:	0000                	unimp
e0003ab6:	10c0                	addi	s0,sp,100
e0003ab8:	0080                	addi	s0,sp,64
e0003aba:	04d4                	addi	a3,sp,580
e0003abc:	8234                	0x8234
e0003abe:	2052                	fld	ft0,272(sp)
e0003ac0:	0000                	unimp
e0003ac2:	0080                	addi	s0,sp,64
e0003ac4:	5fd4                	lw	a3,60(a5)
e0003ac6:	cff5                	beqz	a5,e0003bc2 <FLASH_AES_SMOKETEST_SIGNED+0x3632>
e0003ac8:	0052                	0x52
e0003aca:	0080                	addi	s0,sp,64
e0003acc:	0000                	unimp
e0003ace:	2230                	fld	fa2,64(a2)
e0003ad0:	5130                	lw	a2,96(a0)
e0003ad2:	2751                	jal	e0004256 <FLASH_AES_SMOKETEST_SIGNED+0x3cc6>
e0003ad4:	683c                	flw	fa5,80(s0)
e0003ad6:	0892                	slli	a7,a7,0x4
e0003ad8:	0000                	unimp
e0003ada:	10c0                	addi	s0,sp,100
e0003adc:	4300                	lw	s0,0(a4)
e0003ade:	c8a0                	sw	s0,80(s1)
e0003ae0:	6050                	flw	fa2,4(s0)
e0003ae2:	5934                	lw	a3,112(a0)
e0003ae4:	0000                	unimp
e0003ae6:	1060                	addi	s0,sp,44
e0003ae8:	6034                	flw	fa3,64(s0)
e0003aea:	3c72                	fld	fs8,312(sp)
e0003aec:	0c68                	addi	a0,sp,540
e0003aee:	58d0                	lw	a2,52(s1)
e0003af0:	0000                	unimp
e0003af2:	3630                	fld	fa2,104(a2)
e0003af4:	513e                	lw	sp,236(sp)
e0003af6:	1386                	slli	t2,t2,0x21
e0003af8:	d4d0                	sw	a2,44(s1)
e0003afa:	2198                	fld	fa4,0(a1)
e0003afc:	0000                	unimp
e0003afe:	0c90                	addi	a2,sp,592
e0003b00:	008c                	addi	a1,sp,64
e0003b02:	5564                	lw	s1,108(a0)
e0003b04:	00c0                	addi	s0,sp,68
e0003b06:	9884                	0x9884
e0003b08:	0000                	unimp
e0003b0a:	8050                	0x8050
e0003b0c:	5260                	lw	s0,100(a2)
e0003b0e:	3dc8                	fld	fa0,184(a1)
e0003b10:	2234                	fld	fa3,64(a2)
e0003b12:	0052                	0x52
e0003b14:	0000                	unimp
e0003b16:	4810                	lw	a2,16(s0)
e0003b18:	4624                	lw	s1,72(a2)
e0003b1a:	2a94                	fld	fa3,16(a3)
e0003b1c:	9424                	0x9424
e0003b1e:	4d24                	lw	s1,88(a0)
e0003b20:	0000                	unimp
e0003b22:	9b20                	0x9b20
e0003b24:	d198                	sw	a4,32(a1)
e0003b26:	f4dc                	fsw	fa5,44(s1)
e0003b28:	1054                	addi	a3,sp,36
e0003b2a:	0826                	slli	a6,a6,0x9
e0003b2c:	0000                	unimp
e0003b2e:	0f20                	addi	s0,sp,920
e0003b30:	ef58                	fsw	fa4,28(a4)
e0003b32:	a544838f          	0xa544838f
e0003b36:	a854                	fsd	fa3,144(s0)
e0003b38:	0000                	unimp
e0003b3a:	1100                	addi	s0,sp,160
e0003b3c:	e4ce                	fsw	fs3,72(sp)
e0003b3e:	bc7c                	fsd	fa5,248(s0)
e0003b40:	a854                	fsd	fa3,144(s0)
e0003b42:	2998                	fld	fa4,16(a1)
e0003b44:	0000                	unimp
e0003b46:	a540                	fsd	fs0,136(a0)
e0003b48:	d758                	sw	a4,44(a4)
e0003b4a:	ab2d                	j	e0004084 <FLASH_AES_SMOKETEST_SIGNED+0x3af4>
e0003b4c:	a484                	fsd	fs1,8(s1)
e0003b4e:	9214                	0x9214
e0003b50:	0000                	unimp
e0003b52:	1100                	addi	s0,sp,160
e0003b54:	0824                	addi	s1,sp,24
e0003b56:	bc78                	fsd	fa4,248(s0)
e0003b58:	0824                	addi	s1,sp,24
e0003b5a:	50d8                	lw	a4,36(s1)
e0003b5c:	0000                	unimp
e0003b5e:	5010                	lw	a2,32(s0)
e0003b60:	24ac                	fld	fa1,72(s1)
e0003b62:	c56c                	sw	a1,76(a0)
e0003b64:	6221                	lui	tp,0x8
e0003b66:	426c                	lw	a1,68(a2)
e0003b68:	0000                	unimp
e0003b6a:	1410                	addi	a2,sp,544
e0003b6c:	e814                	fsw	fa3,16(s0)
e0003b6e:	b754                	fsd	fa3,168(a4)
e0003b70:	8014                	0x8014
e0003b72:	e014                	fsw	fa3,0(s0)
e0003b74:	0000                	unimp
e0003b76:	8810                	0x8810
e0003b78:	3134                	fld	fa3,96(a0)
e0003b7a:	2b29                	jal	e0004094 <FLASH_AES_SMOKETEST_SIGNED+0x3b04>
e0003b7c:	3f00                	fld	fs0,56(a4)
e0003b7e:	2fd0                	fld	fa2,152(a5)
e0003b80:	0000                	unimp
e0003b82:	7930                	flw	fa2,112(a0)
e0003b84:	e078                	fsw	fa4,68(s0)
e0003b86:	2c7f                	0x2c7f
e0003b88:	3fd0                	fld	fa2,184(a5)
e0003b8a:	4935                	li	s2,13
e0003b8c:	0000                	unimp
e0003b8e:	0150                	addi	a2,sp,132
e0003b90:	095d                	addi	s2,s2,23
e0003b92:	b230                	fsd	fa2,96(a2)
e0003b94:	004c                	addi	a1,sp,4
e0003b96:	f330                	fsw	fa2,96(a4)
e0003b98:	0000                	unimp
e0003b9a:	5630                	lw	a2,104(a2)
e0003b9c:	4330                	lw	a2,64(a4)
e0003b9e:	66e8                	flw	fa0,76(a3)
e0003ba0:	4b3a                	lw	s6,140(sp)
e0003ba2:	0f55                	addi	t5,t5,21
e0003ba4:	0000                	unimp
e0003ba6:	8090                	0x8090
e0003ba8:	f330                	fsw	fa2,96(a4)
e0003baa:	875e                	mv	a4,s7
e0003bac:	4334                	lw	a3,64(a4)
e0003bae:	0831                	addi	a6,a6,12
e0003bb0:	0000                	unimp
e0003bb2:	0f20                	addi	s0,sp,920
e0003bb4:	4130                	lw	a2,64(a0)
e0003bb6:	96e9                	srai	a3,a3,0x3a
e0003bb8:	4930                	lw	a2,80(a0)
e0003bba:	1fe5                	addi	t6,t6,-7
e0003bbc:	0000                	unimp
e0003bbe:	0840                	addi	s0,sp,20
e0003bc0:	4930                	lw	a2,80(a0)
e0003bc2:	e4d1                	bnez	s1,e0003c4e <FLASH_AES_SMOKETEST_SIGNED+0x36be>
e0003bc4:	eb30                	fsw	fa2,80(a4)
e0003bc6:	0946                	slli	s2,s2,0x11
e0003bc8:	0000                	unimp
e0003bca:	01e0                	addi	s0,sp,204
e0003bcc:	f330                	fsw	fa2,96(a4)
e0003bce:	c566                	sw	s9,136(sp)
e0003bd0:	4130                	lw	a2,64(a0)
e0003bd2:	000001f7          	0x1f7
e0003bd6:	01e0                	addi	s0,sp,204
e0003bd8:	e330                	fsw	fa2,64(a4)
e0003bda:	5630d91b          	0x5630d91b
e0003bde:	0de8                	addi	a0,sp,732
e0003be0:	0000                	unimp
e0003be2:	0940                	addi	s0,sp,148
e0003be4:	e6e00cf3          	0xe6e00cf3
e0003be8:	0190                	addi	a2,sp,192
e0003bea:	e33a                	fsw	fa4,132(sp)
e0003bec:	0000                	unimp
e0003bee:	0de0                	addi	s0,sp,732
e0003bf0:	4814                	lw	a3,16(s0)
e0003bf2:	4e44                	lw	s1,28(a2)
e0003bf4:	01e4                	addi	s1,sp,204
e0003bf6:	9010                	0x9010
e0003bf8:	0000                	unimp
e0003bfa:	f930                	fsw	fa2,112(a0)
e0003bfc:	4b28                	lw	a0,80(a4)
e0003bfe:	2758                	fld	fa4,136(a4)
e0003c00:	00e1                	addi	ra,ra,24
e0003c02:	9360                	0x9360
e0003c04:	0000                	unimp
e0003c06:	4630                	lw	a2,72(a2)
e0003c08:	0181                	addi	gp,gp,0
e0003c0a:	2dc0                	fld	fs0,152(a1)
e0003c0c:	1f8d                	addi	t6,t6,-29
e0003c0e:	4130                	lw	a2,64(a0)
e0003c10:	0000                	unimp
e0003c12:	e130                	fsw	fa2,64(a0)
e0003c14:	e330                	fsw	fa2,64(a4)
e0003c16:	8910                	0x8910
e0003c18:	1c46                	slli	s8,s8,0x31
e0003c1a:	8860                	0x8860
e0003c1c:	0000                	unimp
e0003c1e:	8330                	0x8330
e0003c20:	4330                	lw	a2,64(a4)
e0003c22:	2a98                	fld	fa4,16(a3)
e0003c24:	4b34                	lw	a3,80(a4)
e0003c26:	000009f3          	0x9f3
e0003c2a:	09f0                	addi	a2,sp,220
e0003c2c:	7fd4                	flw	fa3,60(a5)
e0003c2e:	0c71                	addi	s8,s8,28
e0003c30:	eb34                	fsw	fa3,80(a4)
e0003c32:	0940                	addi	s0,sp,148
e0003c34:	0000                	unimp
e0003c36:	12e0                	addi	s0,sp,364
e0003c38:	8779                	srai	a4,a4,0x1e
e0003c3a:	1f8e556f          	jal	a0,e00e8e32 <fromhost+0xd8e22>
e0003c3e:	4e30                	lw	a2,88(a2)
e0003c40:	0000                	unimp
e0003c42:	8b30                	0x8b30
e0003c44:	2230                	fld	fa2,64(a2)
e0003c46:	88a2                	mv	a7,s0
e0003c48:	023c                	addi	a5,sp,264
e0003c4a:	1c72                	slli	s8,s8,0x3c
e0003c4c:	0000                	unimp
e0003c4e:	7090                	flw	fa2,32(s1)
e0003c50:	9128                	0x9128
e0003c52:	b234                	fsd	fa3,96(a2)
e0003c54:	5460                	lw	s0,108(s0)
e0003c56:	5c28                	lw	a0,120(s0)
e0003c58:	0000                	unimp
e0003c5a:	1d70                	addi	a2,sp,700
e0003c5c:	0820                	addi	s0,sp,24
e0003c5e:	26e8                	fld	fa0,200(a3)
e0003c60:	4324                	lw	s1,64(a4)
e0003c62:	1414                	addi	a3,sp,544
e0003c64:	0000                	unimp
e0003c66:	4a20                	lw	s0,80(a2)
e0003c68:	1a90015b          	p.mac	sp,zero,s1,a3
e0003c6c:	71300153          	0x71300153
e0003c70:	0000                	unimp
e0003c72:	6930                	flw	fa2,80(a0)
e0003c74:	6b24                	flw	fs1,80(a4)
e0003c76:	d758                	sw	a4,44(a4)
e0003c78:	ab58                	fsd	fa4,144(a4)
e0003c7a:	711e                	flw	ft2,228(sp)
e0003c7c:	0000                	unimp
e0003c7e:	ed90                	fsw	fa2,24(a1)
e0003c80:	0a5c                	addi	a5,sp,276
e0003c82:	2230                	fld	fa2,64(a2)
e0003c84:	0e66                	slli	t3,t3,0x19
e0003c86:	6b30                	flw	fa2,80(a4)
e0003c88:	0000                	unimp
e0003c8a:	c630                	sw	a2,72(a2)
e0003c8c:	6b28                	flw	fa0,80(a4)
e0003c8e:	eff8                	fsw	fa4,92(a5)
e0003c90:	8320036f          	jal	t1,dff03cc2 <tohost+0xdfee3cba>
e0003c94:	0000                	unimp
e0003c96:	7930                	flw	fa2,112(a0)
e0003c98:	a8d4                	fsd	fa3,144(s1)
e0003c9a:	94d8                	0x94d8
e0003c9c:	6b3e                	flw	fs6,204(sp)
e0003c9e:	0a00                	addi	s0,sp,272
e0003ca0:	0000                	unimp
e0003ca2:	b910                	fsd	fa2,48(a0)
e0003ca4:	8339                	srli	a4,a4,0xe
e0003ca6:	d560                	sw	s0,108(a0)
e0003ca8:	0d60                	addi	s0,sp,668
e0003caa:	b714                	fsd	fa3,40(a4)
e0003cac:	0000                	unimp
e0003cae:	7330                	flw	fa2,96(a4)
e0003cb0:	7334                	flw	fa3,96(a4)
e0003cb2:	0918                	addi	a4,sp,144
e0003cb4:	6b90                	flw	fa2,16(a5)
e0003cb6:	781c                	flw	fa5,48(s0)
e0003cb8:	0000                	unimp
e0003cba:	0d70                	addi	a2,sp,668
e0003cbc:	7330                	flw	fa2,96(a4)
e0003cbe:	64d0                	flw	fa2,12(s1)
e0003cc0:	8830                	0x8830
e0003cc2:	0070                	addi	a2,sp,12
e0003cc4:	0000                	unimp
e0003cc6:	0f50                	addi	a2,sp,916
e0003cc8:	1170                	addi	a2,sp,172
e0003cca:	2230                	fld	fa2,64(a2)
e0003ccc:	7850                	flw	fa2,52(s0)
e0003cce:	0230                	addi	a2,sp,264
e0003cd0:	0000                	unimp
e0003cd2:	0f50                	addi	a2,sp,916
e0003cd4:	c6e0106f          	j	dff05142 <tohost+0xdfee513a>
e0003cd8:	ef69                	bnez	a4,e0003db2 <FLASH_AES_SMOKETEST_SIGNED+0x3822>
e0003cda:	0000b63f 7b347e30 	0x7b347e300000b63f
e0003ce2:	e380                	fsw	fs0,0(a5)
e0003ce4:	0d58                	addi	a4,sp,660
e0003ce6:	3180                	fld	fs0,32(a1)
e0003ce8:	0000                	unimp
e0003cea:	7330                	flw	fa2,96(a4)
e0003cec:	9e3c                	0x9e3c
e0003cee:	1ffe                	slli	t6,t6,0x3f
e0003cf0:	6910                	flw	fa2,16(a0)
e0003cf2:	3980                	fld	fs0,48(a1)
e0003cf4:	0000                	unimp
e0003cf6:	0d50                	addi	a2,sp,660
e0003cf8:	e150                	fsw	fa2,4(a0)
e0003cfa:	3008                	fld	fa0,32(s0)
e0003cfc:	0c6fe63f f0600000 	0xf06000000c6fe63f
e0003d04:	6839                	lui	a6,0xe
e0003d06:	58a8                	lw	a0,112(s1)
e0003d08:	0d50                	addi	a2,sp,660
e0003d0a:	5b60                	lw	s0,116(a4)
e0003d0c:	0000                	unimp
e0003d0e:	7330                	flw	fa2,96(a4)
e0003d10:	67d0                	flw	fa2,12(a5)
e0003d12:	1381                	addi	t2,t2,-32
e0003d14:	0230                	addi	a2,sp,264
e0003d16:	0d70                	addi	a2,sp,668
e0003d18:	0000                	unimp
e0003d1a:	0050                	addi	a2,sp,4
e0003d1c:	8c78082f          	0x8c78082f
e0003d20:	5850                	lw	a2,52(s0)
e0003d22:	a6d0                	fsd	fa2,136(a3)
e0003d24:	0000                	unimp
e0003d26:	7050                	flw	fa2,36(s0)
e0003d28:	ff1f a75b 7e34      	0x7e34a75bff1f
e0003d2e:	d06e                	sw	s11,32(sp)
e0003d30:	0000                	unimp
e0003d32:	6810                	flw	fa2,16(s0)
e0003d34:	0d66                	slli	s10,s10,0x19
e0003d36:	fe40                	fsw	fs0,60(a2)
e0003d38:	7324                	flw	fs1,96(a4)
e0003d3a:	6638                	flw	fa4,72(a2)
e0003d3c:	0000                	unimp
e0003d3e:	6910                	flw	fa2,16(a0)
e0003d40:	2230036f          	jal	t1,e0004762 <FLASH_AES_SMOKETEST_SIGNED+0x41d2>
e0003d44:	0a00                	addi	s0,sp,272
e0003d46:	7134                	flw	fa3,96(a0)
e0003d48:	0000                	unimp
e0003d4a:	6b30                	flw	fa2,80(a4)
e0003d4c:	9c7ffc6f          	jal	s8,e0003712 <FLASH_AES_SMOKETEST_SIGNED+0x3182>
e0003d50:	0e60                	addi	s0,sp,796
e0003d52:	8134                	0x8134
e0003d54:	0000                	unimp
e0003d56:	6b30                	flw	fa2,80(a4)
e0003d58:	0238                	addi	a4,sp,264
e0003d5a:	f568                	fsw	fa0,108(a0)
e0003d5c:	7aac                	flw	fa1,112(a3)
e0003d5e:	6ba8                	flw	fa0,80(a5)
e0003d60:	0000                	unimp
e0003d62:	b010                	fsd	fa2,32(s0)
e0003d64:	ee50                	fsw	fa2,28(a2)
e0003d66:	6fd078af          	0x6fd078af
e0003d6a:	7851                	lui	a6,0xffff4
e0003d6c:	0000                	unimp
e0003d6e:	0b70                	addi	a2,sp,412
e0003d70:	0e80                	addi	s0,sp,848
e0003d72:	56e0                	lw	s0,108(a3)
e0003d74:	2080                	fld	fs0,0(s1)
e0003d76:	8b30                	0x8b30
e0003d78:	0000                	unimp
e0003d7a:	2630                	fld	fa2,72(a2)
e0003d7c:	1010                	addi	a2,sp,32
e0003d7e:	71b0                	flw	fa2,96(a1)
e0003d80:	ff5f 7b70 0000      	0x7b70ff5f
e0003d86:	8130                	0x8130
e0003d88:	2f80                	fld	fs0,24(a5)
e0003d8a:	84d0                	0x84d0
e0003d8c:	0178                	addi	a4,sp,140
e0003d8e:	7b31                	lui	s6,0xfffec
e0003d90:	0000                	unimp
e0003d92:	7930                	flw	fa2,112(a0)
e0003d94:	29c0                	fld	fs0,144(a1)
e0003d96:	b38c                	fsd	fa1,32(a5)
e0003d98:	0e50                	addi	a2,sp,788
e0003d9a:	7110                	flw	fa2,32(a0)
e0003d9c:	0000                	unimp
e0003d9e:	6b30                	flw	fa2,80(a4)
e0003da0:	9dc00c77          	0x9dc00c77
e0003da4:	f176                	fsw	ft9,160(sp)
e0003da6:	0000a63f 0230ce30 	0x230ce300000a63f
e0003dae:	36e8                	fld	fa0,232(a3)
e0003db0:	6b38                	flw	fa4,80(a4)
e0003db2:	0e50                	addi	a2,sp,788
e0003db4:	0000                	unimp
e0003db6:	e190                	fsw	fa2,0(a1)
e0003db8:	e650                	fsw	fa2,12(a2)
e0003dba:	775f 67d0 6851      	0x685167d0775f
e0003dc0:	0000                	unimp
e0003dc2:	0b60                	addi	s0,sp,412
e0003dc4:	6638                	flw	fa4,72(a2)
e0003dc6:	9dc6                	add	s11,s11,a7
e0003dc8:	6918                	flw	fa4,16(a0)
e0003dca:	eb24                	fsw	fs1,80(a4)
e0003dcc:	0000                	unimp
e0003dce:	0820                	addi	s0,sp,24
e0003dd0:	e934                	fsw	fa3,80(a0)
e0003dd2:	6b30d23f 00000a00 	0xa006b30d23f
e0003dda:	0d60                	addi	s0,sp,668
e0003ddc:	b630                	fsd	fa2,104(a2)
e0003dde:	2918                	fld	fa4,16(a0)
e0003de0:	e130                	fsw	fa2,64(a0)
e0003de2:	ff5f 0000 0360      	0x3600000ff5f
e0003de8:	6838                	flw	fa4,80(s0)
e0003dea:	71bc                	flw	fa5,96(a1)
e0003dec:	5aa0                	lw	s0,112(a3)
e0003dee:	7f68                	flw	fa0,124(a4)
e0003df0:	0000                	unimp
e0003df2:	00e0                	addi	s0,sp,76
e0003df4:	7fd0                	flw	fa2,60(a5)
e0003df6:	04d1                	addi	s1,s1,20
e0003df8:	5630                	lw	a2,104(a2)
e0003dfa:	9c68                	0x9c68
e0003dfc:	0000                	unimp
e0003dfe:	0050                	addi	a2,sp,4
e0003e00:	1d60                	addi	s0,sp,700
e0003e02:	d8a4                	sw	s1,112(s1)
e0003e04:	bf50                	fsd	fa2,184(a4)
e0003e06:	00005b3f 1d585850 	0x1d58585000005b3f
e0003e0e:	2ff0                	fld	fa2,216(a5)
e0003e10:	9a99                	andi	a3,a3,-26
e0003e12:	833c                	0x833c
e0003e14:	0000                	unimp
e0003e16:	9f10                	0x9f10
e0003e18:	0158                	addi	a4,sp,132
e0003e1a:	d561                	beqz	a0,e0003de2 <FLASH_AES_SMOKETEST_SIGNED+0x3852>
e0003e1c:	1010                	addi	a2,sp,32
e0003e1e:	5930                	lw	a2,112(a0)
e0003e20:	0000                	unimp
e0003e22:	5b70                	lw	a2,116(a4)
e0003e24:	ff00                	fsw	fs0,56(a4)
e0003e26:	1910                	addi	a2,sp,176
e0003e28:	2be0                	fld	fs0,208(a5)
e0003e2a:	8930                	0x8930
e0003e2c:	0000                	unimp
e0003e2e:	2b30                	fld	fa2,80(a4)
e0003e30:	337f                	0x337f
e0003e32:	6750                	flw	fa2,12(a4)
e0003e34:	3936                	fld	fs2,360(sp)
e0003e36:	0058                	addi	a4,sp,4
e0003e38:	0000                	unimp
e0003e3a:	5c10                	lw	a2,56(s0)
e0003e3c:	1940                	addi	s0,sp,180
e0003e3e:	a4d4                	fsd	fa3,136(s1)
e0003e40:	5b30                	lw	a2,112(a4)
e0003e42:	1d50                	addi	a2,sp,692
e0003e44:	0000                	unimp
e0003e46:	0ff0                	addi	a2,sp,988
e0003e48:	ff7c                	fsw	fa5,124(a4)
e0003e4a:	056c038f          	0x56c038f
e0003e4e:	6930                	flw	fa2,80(a0)
e0003e50:	0000                	unimp
e0003e52:	7b30                	flw	fa2,112(a4)
e0003e54:	5170                	lw	a2,100(a0)
e0003e56:	0910                	addi	a2,sp,144
e0003e58:	4630ff6f          	jal	t5,e0013aba <fromhost+0x3aaa>
e0003e5c:	0000                	unimp
e0003e5e:	7130                	flw	fa2,96(a0)
e0003e60:	2770                	fld	fa2,200(a4)
e0003e62:	7750                	flw	fa2,44(a4)
e0003e64:	b630076f          	jal	a4,dff049c6 <tohost+0xdfee49be>
e0003e68:	0000                	unimp
e0003e6a:	7330                	flw	fa2,96(a4)
e0003e6c:	2668                	fld	fa0,200(a2)
e0003e6e:	2e40                	fld	fs0,152(a2)
e0003e70:	9630066f          	jal	a2,dff047d2 <tohost+0xdfee47ca>
e0003e74:	0000                	unimp
e0003e76:	6b30                	flw	fa2,80(a4)
e0003e78:	e91c                	fsw	fa5,16(a0)
e0003e7a:	58a0                	lw	s0,112(s1)
e0003e7c:	187d                	addi	a6,a6,-1
e0003e7e:	69d0                	flw	fa2,20(a1)
e0003e80:	0000                	unimp
e0003e82:	6930                	flw	fa2,80(a0)
e0003e84:	5e400cef          	jal	s9,e0004468 <FLASH_AES_SMOKETEST_SIGNED+0x3ed8>
e0003e88:	d0ee                	sw	s11,96(sp)
e0003e8a:	0000d63f 1d509e30 	0x1d509e300000d63f
e0003e92:	18a0                	addi	s0,sp,120
e0003e94:	1d60                	addi	s0,sp,700
e0003e96:	5b34                	lw	a3,112(a4)
e0003e98:	0000                	unimp
e0003e9a:	6330                	flw	fa2,64(a4)
e0003e9c:	1c50                	addi	a2,sp,564
e0003e9e:	7e40                	flw	fs0,60(a2)
e0003ea0:	005c                	addi	a5,sp,4
e0003ea2:	c630                	sw	a2,72(a2)
e0003ea4:	0000                	unimp
e0003ea6:	5030                	lw	a2,96(s0)
e0003ea8:	581f 2754 5851      	0x58512754581f
e0003eae:	a750                	fsd	fa2,136(a4)
e0003eb0:	0000                	unimp
e0003eb2:	67d0                	flw	fa2,12(a5)
e0003eb4:	589a                	lw	a7,164(sp)
e0003eb6:	24d0                	fld	fa2,136(s1)
e0003eb8:	585a                	lw	a6,180(sp)
e0003eba:	0210                	addi	a2,sp,256
e0003ebc:	0000                	unimp
e0003ebe:	0310                	addi	a2,sp,384
e0003ec0:	0828                	addi	a0,sp,24
e0003ec2:	1c78                	addi	a4,sp,572
e0003ec4:	58da                	lw	a7,180(sp)
e0003ec6:	52e0                	lw	s0,100(a3)
e0003ec8:	0000                	unimp
e0003eca:	0110                	addi	a2,sp,128
e0003ecc:	0d66                	slli	s10,s10,0x19
e0003ece:	9750                	0x9750
e0003ed0:	3324                	fld	fs1,96(a4)
e0003ed2:	6638                	flw	fa4,72(a2)
e0003ed4:	0000                	unimp
e0003ed6:	6910                	flw	fa2,16(a0)
e0003ed8:	db20036f          	jal	t1,dff0448a <tohost+0xdfee4482>
e0003edc:	0a00                	addi	s0,sp,272
e0003ede:	3134                	fld	fa3,96(a0)
e0003ee0:	0000                	unimp
e0003ee2:	6b30                	flw	fa2,80(a4)
e0003ee4:	7b39                	lui	s6,0xfffee
e0003ee6:	4dc8                	lw	a0,28(a1)
e0003ee8:	0660                	addi	s0,sp,780
e0003eea:	af14                	fsd	fa3,24(a4)
e0003eec:	0000                	unimp
e0003eee:	6b30                	flw	fa2,80(a4)
e0003ef0:	0f66                	slli	t5,t5,0x19
e0003ef2:	4e40                	lw	s0,28(a2)
e0003ef4:	6b20                	flw	fs0,80(a4)
e0003ef6:	3638                	fld	fa4,104(a2)
e0003ef8:	0000                	unimp
e0003efa:	0660                	addi	s0,sp,780
e0003efc:	d630                	sw	a2,104(a2)
e0003efe:	3938b8af          	0x3938b8af
e0003f02:	ff5f 0000 6be0      	0x6be00000ff5f
e0003f08:	5830                	lw	a2,112(s0)
e0003f0a:	a004                	fsd	fs1,0(s0)
e0003f0c:	7330                	flw	fa2,96(a4)
e0003f0e:	0c50                	addi	a2,sp,532
e0003f10:	0000                	unimp
e0003f12:	0c70                	addi	a2,sp,540
e0003f14:	b6e863af          	0xb6e863af
e0003f18:	ff60713f ff700000 	0xff700000ff60713f
e0003f20:	0829                	addi	a6,a6,10
e0003f22:	1e48                	addi	a0,sp,820
e0003f24:	e759                	bnez	a4,e0003fb2 <FLASH_AES_SMOKETEST_SIGNED+0x3a22>
e0003f26:	000053af          	0x53af
e0003f2a:	7e30                	flw	fa2,120(a2)
e0003f2c:	0158                	addi	a4,sp,132
e0003f2e:	d561                	beqz	a0,e0003ef6 <FLASH_AES_SMOKETEST_SIGNED+0x3966>
e0003f30:	1010                	addi	a2,sp,32
e0003f32:	5930                	lw	a2,112(a0)
e0003f34:	0000                	unimp
e0003f36:	5b70                	lw	a2,116(a4)
e0003f38:	0ff0                	addi	a2,sp,988
e0003f3a:	41b0                	lw	a2,64(a1)
e0003f3c:	2b38                	fld	fa4,80(a4)
e0003f3e:	8370                	0x8370
e0003f40:	0000                	unimp
e0003f42:	2b30                	fld	fa2,80(a4)
e0003f44:	0b20893f 00587936 	0x5879360b20893f
e0003f4c:	0000                	unimp
e0003f4e:	5c10                	lw	a2,56(s0)
e0003f50:	6330                	flw	fa2,64(a4)
e0003f52:	1ff0                	addi	a2,sp,1020
e0003f54:	5630                	lw	a2,104(a2)
e0003f56:	00004d37          	lui	s10,0x4
e0003f5a:	ff00                	fsw	fs0,56(a4)
e0003f5c:	223c733f fc625830 	0xfc625830223c733f
e0003f64:	0000                	unimp
e0003f66:	0d50                	addi	a2,sp,660
e0003f68:	d950                	sw	a2,52(a0)
e0003f6a:	61bc                	flw	fa5,64(a1)
e0003f6c:	5930                	lw	a2,112(a0)
e0003f6e:	1875                	addi	a6,a6,-3
e0003f70:	0000                	unimp
e0003f72:	0550                	addi	a2,sp,644
e0003f74:	c1b01077          	0xc1b01077
e0003f78:	ff74                	fsw	fa3,124(a4)
e0003f7a:	00005b3f 0f777130 	0xf77713000005b3f
e0003f82:	f1b0                	fsw	fa2,96(a1)
e0003f84:	3058                	fld	fa4,160(s0)
e0003f86:	5b30                	lw	a2,112(a4)
e0003f88:	0000                	unimp
e0003f8a:	c630                	sw	a2,72(a2)
e0003f8c:	f8a0ff77          	0xf8a0ff77
e0003f90:	2f58                	fld	fa4,152(a4)
e0003f92:	5930                	lw	a2,112(a0)
e0003f94:	0000                	unimp
e0003f96:	b630                	fsd	fa2,104(a2)
e0003f98:	94d9536f          	jal	t1,dff998e4 <tohost+0xdff798dc>
e0003f9c:	8e31                	xor	a2,a2,a2
e0003f9e:	d159                	beqz	a0,e0003f24 <FLASH_AES_SMOKETEST_SIGNED+0x3994>
e0003fa0:	0000                	unimp
e0003fa2:	6f10                	flw	fa2,24(a4)
e0003fa4:	5830                	lw	a2,112(s0)
e0003fa6:	d75c                	sw	a5,44(a4)
e0003fa8:	5b38                	lw	a4,112(a4)
e0003faa:	0d50                	addi	a2,sp,660
e0003fac:	0000                	unimp
e0003fae:	0820                	addi	s0,sp,24
e0003fb0:	0c786b2f          	0xc786b2f
e0003fb4:	ff68613f ff500000 	0xff500000ff68613f
e0003fbc:	501f 7384 0758      	0x7587384501f
e0003fc2:	6fd0                	flw	fa2,28(a5)
e0003fc4:	0000                	unimp
e0003fc6:	e630                	fsw	fa2,72(a2)
e0003fc8:	2e48082f          	0x2e48082f
e0003fcc:	5138                	lw	a4,96(a0)
e0003fce:	ff60                	fsw	fs0,124(a4)
e0003fd0:	0000                	unimp
e0003fd2:	0820                	addi	s0,sp,24
e0003fd4:	5138                	lw	a4,96(a0)
e0003fd6:	2c70                	fld	fa2,216(s0)
e0003fd8:	fe60                	fsw	fs0,124(a2)
e0003fda:	0000082f          	0x82f
e0003fde:	5130                	lw	a2,96(a0)
e0003fe0:	0829                	addi	a6,a6,10
e0003fe2:	ca98                	sw	a4,16(a3)
e0003fe4:	5328082f          	0x5328082f
e0003fe8:	0000                	unimp
e0003fea:	fd60                	fsw	fs0,124(a0)
e0003fec:	226d                	jal	e0004196 <FLASH_AES_SMOKETEST_SIGNED+0x3c06>
e0003fee:	ba9d                	j	e0003964 <FLASH_AES_SMOKETEST_SIGNED+0x33d4>
e0003ff0:	422d6067          	0x422d6067
e0003ff4:	0000                	unimp
e0003ff6:	1790                	addi	a2,sp,992
e0003ff8:	a56c                	fsd	fa1,200(a0)
e0003ffa:	275c                	fld	fa5,136(a4)
e0003ffc:	e4ed                	bnez	s1,e00040e6 <FLASH_AES_SMOKETEST_SIGNED+0x3b56>
e0003ffe:	c52c                	sw	a1,72(a0)
e0004000:	0000                	unimp
e0004002:	04a0                	addi	s0,sp,584
e0004004:	266c                	fld	fa1,200(a2)
e0004006:	e56c                	fsw	fa1,76(a0)
e0004008:	65ec                	flw	fa1,76(a1)
e000400a:	462c                	lw	a1,72(a2)
e000400c:	0000                	unimp
e000400e:	85a0                	0x85a0
e0004010:	4ae8                	lw	a0,84(a3)
e0004012:	fe48                	fsw	fa0,60(a2)
e0004014:	b3a8                	fsd	fa0,96(a5)
e0004016:	9b68                	0x9b68
e0004018:	0000                	unimp
e000401a:	abe0                	fsd	fs0,208(a5)
e000401c:	54a0                	lw	s0,104(s1)
e000401e:	66e8                	flw	fa0,76(a3)
e0004020:	9138                	0x9138
e0004022:	0261                	addi	tp,tp,24
e0004024:	0000                	unimp
e0004026:	a2a0                	fsd	fs0,64(a3)
e0004028:	c050                	sw	a2,4(s0)
e000402a:	14d1                	addi	s1,s1,-12
e000402c:	bfd2                	fsd	fs4,504(sp)
e000402e:	4635                	li	a2,13
e0004030:	0000                	unimp
e0004032:	57d0                	lw	a2,44(a5)
e0004034:	5450                	lw	a2,44(s0)
e0004036:	8ff2                	mv	t6,t3
e0004038:	5138                	lw	a4,96(a0)
e000403a:	4c00                	lw	s0,24(s0)
e000403c:	0000                	unimp
e000403e:	42a0                	lw	s0,64(a3)
e0004040:	533d                	li	t1,-17
e0004042:	a4d0                	fsd	fa2,136(s1)
e0004044:	c2ac                	sw	a1,64(a3)
e0004046:	9008                	0x9008
e0004048:	0000                	unimp
e000404a:	1210                	addi	a2,sp,288
e000404c:	601c                	flw	fa5,0(s0)
e000404e:	2c74                	fld	fa3,216(s0)
e0004050:	5710                	lw	a2,40(a4)
e0004052:	c8d1                	beqz	s1,e00040e6 <FLASH_AES_SMOKETEST_SIGNED+0x3b56>
e0004054:	0000                	unimp
e0004056:	0890                	addi	a2,sp,80
e0004058:	0c48                	addi	a0,sp,532
e000405a:	3560                	fld	fs0,232(a0)
e000405c:	34c0                	fld	fs0,168(s1)
e000405e:	6b30                	flw	fa2,80(a4)
e0004060:	0000                	unimp
e0004062:	5930                	lw	a2,112(a0)
e0004064:	0c58                	addi	a4,sp,532
e0004066:	a230                	fsd	fa2,64(a2)
e0004068:	0068                	addi	a0,sp,12
e000406a:	7b30                	flw	fa2,112(a4)
e000406c:	0000                	unimp
e000406e:	7030                	flw	fa2,96(s0)
e0004070:	006c                	addi	a1,sp,12
e0004072:	f380                	fsw	fs0,32(a5)
e0004074:	0e78                	addi	a4,sp,796
e0004076:	6830                	flw	fa2,80(s0)
e0004078:	0000                	unimp
e000407a:	0230                	addi	a2,sp,264
e000407c:	f160                	fsw	fs0,100(a0)
e000407e:	016bcdcf          	fnmadd.s	fs11,fs7,fs6,ft0,rmm
e0004082:	7130                	flw	fa2,96(a0)
e0004084:	0000                	unimp
e0004086:	6930                	flw	fa2,80(a0)
e0004088:	ed90                	fsw	fa2,24(a1)
e000408a:	cc78                	sw	a4,92(s0)
e000408c:	7130                	flw	fa2,96(a0)
e000408e:	00000173          	0x173
e0004092:	6050                	flw	fa2,4(s0)
e0004094:	0310                	addi	a2,sp,384
e0004096:	54da                	lw	s1,180(sp)
e0004098:	1a3d                	addi	s4,s4,-17
e000409a:	40c0                	lw	s0,4(s1)
e000409c:	0000                	unimp
e000409e:	ef10                	fsw	fa2,24(a4)
e00040a0:	a23a                	fsd	fa4,256(sp)
e00040a2:	e380                	fsw	fs0,0(a5)
e00040a4:	5cd8                	lw	a4,60(s1)
e00040a6:	aa52                	fsd	fs4,272(sp)
e00040a8:	0000                	unimp
e00040aa:	5220                	lw	s0,96(a2)
e00040ac:	fdcff057          	0xfdcff057
e00040b0:	5910                	lw	a2,48(a0)
e00040b2:	4934                	lw	a3,80(a0)
e00040b4:	0000                	unimp
e00040b6:	20c0                	fld	fs0,128(s1)
e00040b8:	6234                	flw	fa3,64(a2)
e00040ba:	6562                	flw	fa0,24(sp)
e00040bc:	0bb6                	slli	s7,s7,0xd
e00040be:	b110                	fsd	fa2,32(a0)
e00040c0:	0000                	unimp
e00040c2:	3630                	fld	fa2,104(a2)
e00040c4:	54a0                	lw	s0,104(s1)
e00040c6:	0ff8                	addi	a4,sp,988
e00040c8:	9130                	0x9130
e00040ca:	04c0                	addi	s0,sp,580
e00040cc:	0000                	unimp
e00040ce:	36c0                	fld	fs0,168(a3)
e00040d0:	d010                	sw	a2,32(s0)
e00040d2:	ac72                	fsd	ft8,24(sp)
e00040d4:	5132                	lw	sp,44(sp)
e00040d6:	18c0                	addi	s0,sp,116
e00040d8:	0000                	unimp
e00040da:	d190                	sw	a2,32(a1)
e00040dc:	5334                	lw	a3,96(a4)
e00040de:	3c70                	fld	fa2,248(s0)
e00040e0:	18c2                	slli	a7,a7,0x30
e00040e2:	5150                	lw	a2,36(a0)
e00040e4:	0000                	unimp
e00040e6:	8230                	0x8230
e00040e8:	2230                	fld	fa2,64(a2)
e00040ea:	1562                	slli	a0,a0,0x38
e00040ec:	c234                	sw	a3,64(a2)
e00040ee:	0ac2                	slli	s5,s5,0x10
e00040f0:	0000                	unimp
e00040f2:	1650                	addi	a2,sp,804
e00040f4:	4230                	lw	a2,64(a2)
e00040f6:	6dc0                	flw	fs0,28(a1)
e00040f8:	2230                	fld	fa2,64(a2)
e00040fa:	40c2                	lw	ra,16(sp)
e00040fc:	0000                	unimp
e00040fe:	38c0                	fld	fs0,176(s1)
e0004100:	64e8                	flw	fa0,76(s1)
e0004102:	ea98                	fsw	fa4,16(a3)
e0004104:	5260                	lw	s0,100(a2)
e0004106:	5d28                	lw	a0,120(a0)
e0004108:	0000                	unimp
e000410a:	40c0                	lw	s0,4(s1)
e000410c:	0ac2                	slli	s5,s5,0x10
e000410e:	e1b0                	fsw	fa2,64(a1)
e0004110:	f5fd                	bnez	a1,e00040fe <FLASH_AES_SMOKETEST_SIGNED+0x3b6e>
e0004112:	023d                	addi	tp,tp,15
e0004114:	0000                	unimp
e0004116:	0ef0                	addi	a2,sp,860
e0004118:	18aa                	slli	a7,a7,0x2a
e000411a:	f910                	fsw	fa2,48(a0)
e000411c:	00a8                	addi	a0,sp,72
e000411e:	0230                	addi	a2,sp,264
e0004120:	0000                	unimp
e0004122:	4630                	lw	a2,72(a2)
e0004124:	0000                	unimp
e0004126:	275f 0047 a973      	0xa9730047275f
e000412c:	0000                	unimp
e000412e:	0730                	addi	a2,sp,904
e0004130:	00aa                	slli	ra,ra,0xa
e0004132:	46e0                	lw	s0,76(a3)
e0004134:	b8a8                	fsd	fa0,112(s1)
e0004136:	5038                	lw	a4,96(s0)
e0004138:	0000                	unimp
e000413a:	a930                	fsd	fa2,80(a0)
e000413c:	98b0                	0x98b0
e000413e:	a568                	fsd	fa0,200(a0)
e0004140:	0000                	unimp
e0004142:	0000b13f 16c0b170 	0x16c0b1700000b13f
e000414a:	58a4                	lw	s1,112(s1)
e000414c:	503c                	lw	a5,96(s0)
e000414e:	00b2                	slli	ra,ra,0xc
e0004150:	0000                	unimp
e0004152:	9010                	0x9010
e0004154:	00b2                	slli	ra,ra,0xc
e0004156:	0000                	unimp
e0004158:	16c0                	addi	s0,sp,868
e000415a:	503c                	lw	a5,96(s0)
e000415c:	0000                	unimp
e000415e:	5850                	lw	a2,52(s0)
e0004160:	9050                	0x9050
e0004162:	0008                	addi	a0,sp,0
e0004164:	0000                	unimp
e0004166:	0000513f 583c5170 	0x583c51700000513f
e000416e:	5b22                	lw	s6,40(sp)
e0004170:	5854                	lw	a3,52(s0)
e0004172:	10c0                	addi	s0,sp,100
e0004174:	0000                	unimp
e0004176:	10c0                	addi	s0,sp,100
e0004178:	1e48c93f 0000c970 	0xc9701e48c93f
e0004180:	0000                	unimp
e0004182:	00b0                	addi	a2,sp,72
e0004184:	00aa                	slli	ra,ra,0xa
e0004186:	db20                	sw	s0,112(a4)
e0004188:	d918                	sw	a4,48(a0)
e000418a:	503c                	lw	a5,96(s0)
e000418c:	0000                	unimp
e000418e:	cac0                	sw	s0,20(a3)
e0004190:	5480                	lw	s0,40(s1)
e0004192:	9c75                	0x9c75
e0004194:	503e                	0x503e
e0004196:	00b2                	slli	ra,ra,0xc
e0004198:	0000                	unimp
e000419a:	1490                	addi	a2,sp,608
e000419c:	6a5e                	flw	fs4,212(sp)
e000419e:	1ff0                	addi	a2,sp,1020
e00041a0:	2cc2                	fld	fs9,16(sp)
e00041a2:	b630                	fsd	fa2,104(a2)
e00041a4:	0000                	unimp
e00041a6:	5830                	lw	a2,112(s0)
e00041a8:	023a                	slli	tp,tp,0xe
e00041aa:	b4d2                	fsd	fs4,104(sp)
e00041ac:	18b2                	slli	a7,a7,0x2c
e00041ae:	0bd0                	addi	a2,sp,468
e00041b0:	0000                	unimp
e00041b2:	0230                	addi	a2,sp,264
e00041b4:	2634                	fld	fa3,72(a2)
e00041b6:	6b21                	lui	s6,0x8
e00041b8:	1080                	addi	s0,sp,96
e00041ba:	5854                	lw	a3,52(s0)
e00041bc:	0000                	unimp
e00041be:	18b0                	addi	a2,sp,120
e00041c0:	6400                	flw	fs0,8(s0)
e00041c2:	1dc0                	addi	s0,sp,756
e00041c4:	4010                	lw	a2,0(s0)
e00041c6:	4934                	lw	a3,80(a0)
e00041c8:	0000                	unimp
e00041ca:	6b50                	flw	fa2,20(a4)
e00041cc:	4512                	lw	a0,4(sp)
e00041ce:	ae40                	fsd	fs0,152(a2)
e00041d0:	1940                	addi	s0,sp,180
e00041d2:	b990                	fsd	fa2,48(a1)
e00041d4:	0000                	unimp
e00041d6:	5330                	lw	a2,96(a4)
e00041d8:	0000                	unimp
e00041da:	e941f6ef          	jal	a3,dff2386e <tohost+0xdff03866>
e00041de:	997f                	0x997f
e00041e0:	0000                	unimp
e00041e2:	ce30                	sw	a2,88(a2)
e00041e4:	3918                	fld	fa4,48(a0)
e00041e6:	2752                	fld	fa4,272(sp)
e00041e8:	2898                	fld	fa4,16(s1)
e00041ea:	54e9                	li	s1,-6
e00041ec:	0000                	unimp
e00041ee:	9930                	0x9930
e00041f0:	30a0                	fld	fs0,96(s1)
e00041f2:	81b9                	srli	a1,a1,0xe
e00041f4:	0000                	unimp
e00041f6:	0000a13f 0000a170 	0xa1700000a13f
e00041fe:	591f b258 5172      	0x5172b258591f
e0004204:	0000                	unimp
e0004206:	5520                	lw	s0,104(a0)
e0004208:	5172                	lw	sp,60(sp)
e000420a:	16e0                	addi	s0,sp,876
e000420c:	fc50                	fsw	fa2,60(s0)
e000420e:	33d8                	fld	fa4,160(a5)
e0004210:	0000                	unimp
e0004212:	5130                	lw	a2,96(a0)
e0004214:	3158                	fld	fa4,160(a0)
e0004216:	1232                	slli	tp,tp,0x2c
e0004218:	ca50513f 00000000 	0xca50513f
e0004220:	d450                	sw	a2,44(s0)
e0004222:	fff8                	fsw	fa4,124(a5)
e0004224:	0000                	unimp
e0004226:	0000513f 513f5170 	0x513f51700000513f
e000422e:	b6e0                	fsd	fs0,232(a3)
e0004230:	5172                	lw	sp,60(sp)
e0004232:	0000                	unimp
e0004234:	0000                	unimp
e0004236:	b290                	fsd	fa2,32(a3)
e0004238:	5170                	lw	a2,100(a0)
e000423a:	f750                	fsw	fa2,44(a4)
e000423c:	0238                	addi	a4,sp,264
e000423e:	1352                	slli	t1,t1,0x34
e0004240:	0000                	unimp
e0004242:	0e50                	addi	a2,sp,788
e0004244:	0238                	addi	a4,sp,264
e0004246:	a1b2                	fsd	fa2,192(sp)
e0004248:	0650513f 00000000 	0x650513f
e0004250:	513e                	lw	sp,236(sp)
e0004252:	1910                	addi	a2,sp,176
e0004254:	5170                	lw	a2,100(a0)
e0004256:	ffff                	0xffff
e0004258:	0000                	unimp
e000425a:	1450                	addi	a2,sp,548
e000425c:	10c0                	addi	s0,sp,100
e000425e:	738c                	flw	fa1,32(a5)
e0004260:	585410c7          	fmsub.s	ft1,fs0,ft5,fa1,rtz
e0004264:	0000                	unimp
e0004266:	e650                	fsw	fa2,12(a2)
e0004268:	ffff                	0xffff
e000426a:	cb2e                	sw	a1,148(sp)
e000426c:	2cc2                	fld	fs9,16(sp)
e000426e:	5970                	lw	a2,116(a0)
e0004270:	0000                	unimp
e0004272:	5030                	lw	a2,96(s0)
e0004274:	b854                	fsd	fa3,176(s0)
e0004276:	b914                	fsd	fa3,48(a0)
e0004278:	d058                	sw	a4,36(s0)
e000427a:	00001907          	0x1907
e000427e:	5930                	lw	a2,112(a0)
e0004280:	1908                	addi	a0,sp,176
e0004282:	6c7c                	flw	fa5,92(s0)
e0004284:	0ab9                	addi	s5,s5,14
e0004286:	e550                	fsw	fa2,12(a0)
e0004288:	0000                	unimp
e000428a:	6b30                	flw	fa2,80(a4)
e000428c:	5660                	lw	s0,108(a2)
e000428e:	84d9                	srai	s1,s1,0x16
e0004290:	5334                	lw	a3,96(a4)
e0004292:	2b50                	fld	fa2,144(a4)
e0004294:	0000                	unimp
e0004296:	5d10                	lw	a2,56(a0)
e0004298:	5900                	lw	s0,48(a0)
e000429a:	d384                	sw	s1,32(a5)
e000429c:	4234                	lw	a3,64(a2)
e000429e:	0bc2                	slli	s7,s7,0x10
e00042a0:	0000                	unimp
e00042a2:	14c0                	addi	s0,sp,612
e00042a4:	2234                	fld	fa3,64(a2)
e00042a6:	4c72                	lw	s8,28(sp)
e00042a8:	0cc2                	slli	s9,s9,0x10
e00042aa:	5900                	lw	s0,48(a0)
e00042ac:	0000                	unimp
e00042ae:	6230                	flw	fa2,64(a2)
e00042b0:	a230                	fsd	fa2,64(a2)
e00042b2:	0e42                	slli	t3,t3,0x10
e00042b4:	4230                	lw	a2,64(a2)
e00042b6:	125a                	slli	tp,tp,0x36
e00042b8:	0000                	unimp
e00042ba:	1260                	addi	s0,sp,300
e00042bc:	10c0                	addi	s0,sp,100
e00042be:	76ec                	flw	fa1,108(a3)
e00042c0:	10c0                	addi	s0,sp,100
e00042c2:	5854                	lw	a3,52(s0)
e00042c4:	0000                	unimp
e00042c6:	0ac0                	addi	s0,sp,340
e00042c8:	1190                	addi	a2,sp,224
e00042ca:	28ac                	fld	fa1,80(s1)
e00042cc:	5032                	0x5032
e00042ce:	00aa                	slli	ra,ra,0xa
e00042d0:	0000                	unimp
e00042d2:	0250                	addi	a2,sp,260
e00042d4:	c928                	sw	a0,80(a0)
e00042d6:	f004                	fsw	fs1,32(s0)
e00042d8:	00b2                	slli	ra,ra,0xc
e00042da:	55e0                	lw	s0,108(a1)
e00042dc:	0000                	unimp
e00042de:	5030                	lw	a2,96(s0)
e00042e0:	ad24                	fsd	fs1,88(a0)
e00042e2:	1914                	addi	a3,sp,176
e00042e4:	bb24                	fsd	fs1,112(a4)
e00042e6:	b424                	fsd	fs1,104(s0)
e00042e8:	0000                	unimp
e00042ea:	c220                	sw	s0,64(a2)
e00042ec:	4925                	li	s2,9
e00042ee:	4ff5                	li	t6,29
e00042f0:	9f24                	0x9f24
e00042f2:	9024                	0x9024
e00042f4:	0000                	unimp
e00042f6:	a620                	fsd	fs0,72(a2)
e00042f8:	0826                	slli	a6,a6,0x9
e00042fa:	8c78                	0x8c78
e00042fc:	0b25                	addi	s6,s6,9
e00042fe:	1455                	addi	s0,s0,-11
e0004300:	0000                	unimp
e0004302:	4220                	lw	s0,64(a2)
e0004304:	7c50                	flw	fa2,60(s0)
e0004306:	ffffab27          	fsw	ft11,-10(t6) # 1cff6 <_stack_len+0x14ff6>
e000430a:	513e                	lw	sp,236(sp)
e000430c:	0000                	unimp
e000430e:	5170                	lw	a2,100(a0)
e0004310:	ffff                	0xffff
e0004312:	791e                	flw	fs2,228(sp)
e0004314:	d194                	sw	a3,32(a1)
e0004316:	517c                	lw	a5,100(a0)
e0004318:	0000                	unimp
e000431a:	1080                	addi	s0,sp,96
e000431c:	1ec4                	addi	s1,sp,884
e000431e:	c234                	sw	a3,64(a2)
e0004320:	5c50                	lw	a2,60(s0)
e0004322:	000010c7          	fmsub.s	ft1,ft0,ft0,ft0,rtz
e0004326:	5130                	lw	a2,96(a0)
e0004328:	67d4                	flw	fa3,12(a5)
e000432a:	7ff1                	lui	t6,0xffffc
e000432c:	10cc                	addi	a1,sp,100
e000432e:	1f04                	addi	s1,sp,944
e0004330:	0000                	unimp
e0004332:	9810                	0x9810
e0004334:	1114                	addi	a3,sp,160
e0004336:	aa9c                	fsd	fa5,16(a3)
e0004338:	108c                	addi	a1,sp,96
e000433a:	1684                	addi	s1,sp,864
e000433c:	0000                	unimp
e000433e:	1f00                	addi	s0,sp,944
e0004340:	26e80823          	sb	a4,624(a6) # ffff4270 <pulp__FC+0xffff4271>
e0004344:	0738                	addi	a4,sp,904
e0004346:	0046                	0x46
e0004348:	0000                	unimp
e000434a:	0820                	addi	s0,sp,24
e000434c:	517c                	lw	a5,100(a0)
e000434e:	6061623f 0000422c 	0x422c6061623f
e0004356:	1410                	addi	a2,sp,544
e0004358:	67541087          	0x67541087
e000435c:	513e                	lw	sp,236(sp)
e000435e:	5250                	lw	a2,36(a2)
e0004360:	0000                	unimp
e0004362:	fff0                	fsw	fa2,124(a5)
e0004364:	513e                	lw	sp,236(sp)
e0004366:	cdc0                	sw	s0,28(a1)
e0004368:	517c                	lw	a5,100(a0)
e000436a:	ffff                	0xffff
e000436c:	0000                	unimp
e000436e:	9010                	0x9010
e0004370:	0d9c                	addi	a5,sp,720
e0004372:	438a                	lw	t2,128(sp)
e0004374:	10c45857          	pv.avg.sc.b	a6,s0,a2
e0004378:	0000                	unimp
e000437a:	4a50                	lw	a2,20(a2)
e000437c:	3c50                	fld	fa2,184(s0)
e000437e:	ffff2007          	flw	ft0,-1(t5) # 9fff <_stack_len+0x1fff>
e0004382:	513e                	lw	sp,236(sp)
e0004384:	0000                	unimp
e0004386:	5170                	lw	a2,100(a0)
e0004388:	ffff                	0xffff
e000438a:	18ae                	slli	a7,a7,0x2b
e000438c:	0052                	0x52
e000438e:	4170                	lw	a2,68(a0)
e0004390:	0000                	unimp
e0004392:	0230                	addi	a2,sp,264
e0004394:	1084                	addi	s1,sp,96
e0004396:	ac74                	fsd	fa3,216(s0)
e0004398:	0c40                	addi	s0,sp,532
e000439a:	00000087          	0x87
e000439e:	4130                	lw	a2,64(a0)
e00043a0:	0a5e                	slli	s4,s4,0x17
e00043a2:	fe40                	fsw	fs0,60(a2)
e00043a4:	98c4                	0x98c4
e00043a6:	8635                	srai	a2,a2,0xd
e00043a8:	0000                	unimp
e00043aa:	00c0                	addi	s0,sp,68
e00043ac:	3458                	fld	fa4,168(s0)
e00043ae:	9380                	0x9380
e00043b0:	00c4                	addi	s1,sp,68
e00043b2:	5934                	lw	a3,112(a0)
e00043b4:	0000                	unimp
e00043b6:	0080                	addi	s0,sp,64
e00043b8:	ffff                	0xffff
e00043ba:	38ae                	fld	fa7,232(sp)
e00043bc:	49fe                	lw	s3,220(sp)
e00043be:	517d                	li	sp,-1
e00043c0:	0000                	unimp
e00043c2:	0ef0                	addi	a2,sp,860
e00043c4:	5934                	lw	a3,112(a0)
e00043c6:	4755                	li	a4,21
e00043c8:	f050                	fsw	fa2,36(s0)
e00043ca:	1086                	slli	ra,ra,0x21
e00043cc:	0000                	unimp
e00043ce:	5130                	lw	a2,96(a0)
e00043d0:	0255                	addi	tp,tp,21
e00043d2:	1dc0                	addi	s0,sp,756
e00043d4:	d4d0                	sw	a2,44(s1)
e00043d6:	5938                	lw	a4,112(a0)
e00043d8:	0000                	unimp
e00043da:	0150                	addi	a2,sp,132
e00043dc:	d4d0                	sw	a2,44(s1)
e00043de:	6238                	flw	fa4,64(a2)
e00043e0:	5938                	lw	a4,112(a0)
e00043e2:	0455                	addi	s0,s0,21
e00043e4:	0000                	unimp
e00043e6:	d4d0                	sw	a2,44(s1)
e00043e8:	5938                	lw	a4,112(a0)
e00043ea:	bb25                	j	e0004122 <FLASH_AES_SMOKETEST_SIGNED+0x3b92>
e00043ec:	0855                	addi	a6,a6,21
e00043ee:	d4d0                	sw	a2,44(s1)
e00043f0:	0000                	unimp
e00043f2:	5930                	lw	a2,112(a0)
e00043f4:	ff54                	fsw	fa3,60(a4)
e00043f6:	d4d08b2f          	0xd4d08b2f
e00043fa:	5138                	lw	a4,96(a0)
e00043fc:	0000                	unimp
e00043fe:	1050                	addi	a2,sp,36
e0004400:	5555                	li	a0,-11
e0004402:	0b25                	addi	s6,s6,9
e0004404:	0155                	addi	sp,sp,21
e0004406:	6370                	flw	fa2,68(a4)
e0004408:	0000                	unimp
e000440a:	5930                	lw	a2,112(a0)
e000440c:	d0d8                	sw	a4,36(s1)
e000440e:	c8a8                	sw	a0,80(s1)
e0004410:	5560                	lw	s0,108(a0)
e0004412:	df15                	beqz	a4,e000434e <FLASH_AES_SMOKETEST_SIGNED+0x3dbe>
e0004414:	0000                	unimp
e0004416:	6130                	flw	fa2,64(a0)
e0004418:	3358                	fld	fa4,160(a4)
e000441a:	333396e3          	bne	t2,s3,e0004f46 <FLASH_AES_SMOKETEST_SIGNED+0x49b6>
e000441e:	00005933          	srl	s2,zero,zero
e0004422:	5b70                	lw	a2,116(a4)
e0004424:	d6d8                	sw	a4,44(a3)
e0004426:	11b8                	addi	a4,sp,232
e0004428:	10900b57          	pv.avg.h	s6,zero,s1
e000442c:	0000                	unimp
e000442e:	6330                	flw	fa2,64(a4)
e0004430:	52e0                	lw	s0,100(a3)
e0004432:	6569                	lui	a0,0x1a
e0004434:	5939                	li	s2,-18
e0004436:	0455                	addi	s0,s0,21
e0004438:	0000                	unimp
e000443a:	5320                	lw	s0,96(a4)
e000443c:	0f58                	addi	a4,sp,916
e000443e:	b75f f0f1 5930      	0x5930f0f1b75f
e0004444:	0000                	unimp
e0004446:	5b70                	lw	a2,116(a4)
e0004448:	5930                	lw	a2,112(a0)
e000444a:	4c78                	lw	a4,92(s0)
e000444c:	5b78                	lw	a4,116(a4)
e000444e:	1010                	addi	a2,sp,32
e0004450:	0000                	unimp
e0004452:	d6d0                	sw	a2,44(a3)
e0004454:	1610                	addi	a2,sp,800
e0004456:	3388                	fld	fa0,32(a5)
e0004458:	5331                	li	t1,-20
e000445a:	2b50                	fld	fa2,144(a4)
e000445c:	0000                	unimp
e000445e:	0150                	addi	a2,sp,132
e0004460:	5334                	lw	a3,96(a4)
e0004462:	1380                	addi	s0,sp,480
e0004464:	1f54                	addi	a3,sp,948
e0004466:	5d10                	lw	a2,56(a0)
e0004468:	0000                	unimp
e000446a:	5130                	lw	a2,96(a0)
e000446c:	593e                	lw	s2,236(sp)
e000446e:	7b28                	flw	fa0,112(a4)
e0004470:	5970                	lw	a2,116(a0)
e0004472:	ffff                	0xffff
e0004474:	0000                	unimp
e0004476:	2b50                	fld	fa2,144(a4)
e0004478:	1484                	addi	s1,sp,608
e000447a:	2e44                	fld	fs1,152(a2)
e000447c:	5aa6                	lw	s5,104(sp)
e000447e:	1c89                	addi	s9,s9,-30
e0004480:	0000                	unimp
e0004482:	d250                	sw	a2,36(a2)
e0004484:	563c                	lw	a5,104(a2)
e0004486:	b8a1                	j	e0003cde <FLASH_AES_SMOKETEST_SIGNED+0x374e>
e0004488:	0858                	addi	a4,sp,20
e000448a:	1c80                	addi	s0,sp,624
e000448c:	0000                	unimp
e000448e:	6130                	flw	fa2,64(a0)
e0004490:	1880                	addi	s0,sp,112
e0004492:	b8ac                	fsd	fa1,112(s1)
e0004494:	1480                	addi	s0,sp,608
e0004496:	5914                	lw	a3,48(a0)
e0004498:	0000                	unimp
e000449a:	0c50                	addi	a2,sp,532
e000449c:	0b24                	addi	s1,sp,408
e000449e:	0c74                	addi	a3,sp,540
e00044a0:	0084                	addi	s1,sp,64
e00044a2:	422c                	lw	a1,64(a2)
e00044a4:	0000                	unimp
e00044a6:	5480                	lw	s0,40(s1)
e00044a8:	6061                	0x6061
e00044aa:	bdcc                	fsd	fa1,184(a1)
e00044ac:	0820                	addi	s0,sp,24
e00044ae:	1418                	addi	a4,sp,544
e00044b0:	0000                	unimp
e00044b2:	1410                	addi	a2,sp,544
e00044b4:	6450                	flw	fa2,12(s0)
e00044b6:	4910                	lw	a2,16(a0)
e00044b8:	0000                	unimp
e00044ba:	5130                	lw	a2,96(a0)
e00044bc:	0000                	unimp
e00044be:	5170                	lw	a2,100(a0)
e00044c0:	4458                	lw	a4,12(s0)
e00044c2:	0008                	addi	a0,sp,0
e00044c4:	0002                	0x2
e00044c6:	5930                	lw	a2,112(a0)
e00044c8:	0000                	unimp
e00044ca:	5970                	lw	a2,116(a0)
e00044cc:	6078                	flw	fa4,68(s0)
e00044ce:	4386                	lw	t2,64(sp)
e00044d0:	ffff                	0xffff
e00044d2:	793e                	flw	fs2,236(sp)
e00044d4:	0000                	unimp
e00044d6:	7970                	flw	fa2,116(a0)
e00044d8:	7014                	flw	fa3,32(s0)
e00044da:	94d4                	0x94d4
e00044dc:	0000                	unimp
e00044de:	6811                	lui	a6,0x4
e00044e0:	0000                	unimp
e00044e2:	6130                	flw	fa2,64(a0)
e00044e4:	7634                	flw	fa3,104(a2)
e00044e6:	84d1                	srai	s1,s1,0x14
e00044e8:	b1ff                	0xb1ff
e00044ea:	585c                	lw	a5,52(s0)
e00044ec:	0000                	unimp
e00044ee:	0ef0                	addi	a2,sp,860
e00044f0:	2e4f5173          	csrrwi	sp,0x2e4,30
e00044f4:	0730                	addi	a2,sp,904
e00044f6:	00000047          	fmsub.s	ft0,ft0,ft0,ft0,rne
e00044fa:	2b50                	fld	fa2,144(a4)
e00044fc:	67d6                	flw	fa5,84(sp)
e00044fe:	5385                	li	t2,-31
e0004500:	513e                	lw	sp,236(sp)
e0004502:	4650                	lw	a2,12(a2)
e0004504:	0000                	unimp
e0004506:	fff0                	fsw	fa2,124(a5)
e0004508:	513e                	lw	sp,236(sp)
e000450a:	1c70                	addi	a2,sp,572
e000450c:	517c                	lw	a5,100(a0)
e000450e:	ffff                	0xffff
e0004510:	0000                	unimp
e0004512:	1100                	addi	s0,sp,160
e0004514:	ffff                	0xffff
e0004516:	76ee                	flw	fa3,248(sp)
e0004518:	10c6                	slli	ra,ra,0x31
e000451a:	517c                	lw	a5,100(a0)
e000451c:	0000                	unimp
e000451e:	2250                	fld	fa2,128(a2)
e0004520:	0052                	0x52
e0004522:	0560                	addi	s0,sp,652
e0004524:	3450                	fld	fa2,168(s0)
e0004526:	0236                	slli	tp,tp,0xd
e0004528:	0000                	unimp
e000452a:	5130                	lw	a2,96(a0)
e000452c:	0001                	nop
e000452e:	d6e0                	sw	s0,108(a3)
e0004530:	89fe                	mv	s3,t6
e0004532:	517c                	lw	a5,100(a0)
e0004534:	0000                	unimp
e0004536:	0ef0                	addi	a2,sp,860
e0004538:	0b24                	addi	s1,sp,408
e000453a:	0384                	addi	s1,sp,448
e000453c:	f450                	fsw	fa2,44(s0)
e000453e:	00001087          	0x1087
e0004542:	5130                	lw	a2,96(a0)
e0004544:	e061                	bnez	s0,e0004604 <FLASH_AES_SMOKETEST_SIGNED+0x4074>
e0004546:	9b2c                	0x9b2c
e0004548:	0820                	addi	s0,sp,24
e000454a:	1018                	addi	a4,sp,32
e000454c:	0000                	unimp
e000454e:	1410                	addi	a2,sp,544
e0004550:	64ec                	flw	fa1,76(s1)
e0004552:	200c                	fld	fa1,0(s0)
e0004554:	a26c                	fsd	fa1,192(a2)
e0004556:	84ac                	0x84ac
e0004558:	0000                	unimp
e000455a:	c220                	sw	s0,64(a2)
e000455c:	ffff                	0xffff
e000455e:	3a9e                	fld	fs5,480(sp)
e0004560:	256c                	fld	fa1,200(a0)
e0004562:	497c                	lw	a5,84(a0)
e0004564:	0000                	unimp
e0004566:	4520                	lw	s0,72(a0)
e0004568:	ffff                	0xffff
e000456a:	3dce                	fld	fs11,240(sp)
e000456c:	e048                	fsw	fa0,4(s0)
e000456e:	9175                	srli	a0,a0,0x3d
e0004570:	0000                	unimp
e0004572:	4930                	lw	a2,80(a0)
e0004574:	ffff                	0xffff
e0004576:	0ffe                	slli	t6,t6,0x1f
e0004578:	e090                	fsw	fa2,0(s1)
e000457a:	9975                	andi	a0,a0,-3
e000457c:	0000                	unimp
e000457e:	9130                	0x9130
e0004580:	ffff                	0xffff
e0004582:	cb2e                	sw	a1,148(sp)
e0004584:	8498                	0x8498
e0004586:	a176                	fsd	ft9,128(sp)
e0004588:	0000                	unimp
e000458a:	9930                	0x9930
e000458c:	ffff                	0xffff
e000458e:	0dce                	slli	s11,s11,0x13
e0004590:	cca0                	sw	s0,88(s1)
e0004592:	a975                	j	e0004a4e <FLASH_AES_SMOKETEST_SIGNED+0x44be>
e0004594:	0000                	unimp
e0004596:	a130                	fsd	fa2,64(a0)
e0004598:	1294                	addi	a3,sp,352
e000459a:	000c                	addi	a1,sp,0
e000459c:	b4a8                	fsd	fa0,104(s1)
e000459e:	0885                	addi	a7,a7,1
e00045a0:	0000                	unimp
e00045a2:	a930                	fsd	fa2,80(a0)
e00045a4:	0092                	slli	ra,ra,0x4
e00045a6:	2dc0                	fld	fs0,152(a1)
e00045a8:	50330047          	fmsub.s	ft0,ft6,ft3,fa0,rne
e00045ac:	0000                	unimp
e00045ae:	0730                	addi	a2,sp,904
e00045b0:	16c0                	addi	s0,sp,868
e00045b2:	11b4                	addi	a3,sp,232
e00045b4:	503c                	lw	a5,96(s0)
e00045b6:	00aa                	slli	ra,ra,0xa
e00045b8:	0000                	unimp
e00045ba:	9010                	0x9010
e00045bc:	00aa                	slli	ra,ra,0xa
e00045be:	4910                	lw	a2,16(a0)
e00045c0:	16c0                	addi	s0,sp,868
e00045c2:	503c                	lw	a5,96(s0)
e00045c4:	0000                	unimp
e00045c6:	5850                	lw	a2,52(s0)
e00045c8:	5134                	lw	a3,96(a0)
e00045ca:	c230                	sw	a2,64(a2)
e00045cc:	0c9a                	slli	s9,s9,0x6
e00045ce:	5400                	lw	s0,40(s0)
e00045d0:	0000                	unimp
e00045d2:	5030                	lw	a2,96(s0)
e00045d4:	00a2                	slli	ra,ra,0x8
e00045d6:	6910                	flw	fa2,16(a0)
e00045d8:	4c90                	lw	a2,24(s1)
e00045da:	5032                	0x5032
e00045dc:	0000                	unimp
e00045de:	0440                	addi	s0,sp,516
e00045e0:	0880                	addi	s0,sp,80
e00045e2:	6564                	flw	fs1,76(a0)
e00045e4:	0231                	addi	tp,tp,12
e00045e6:	0aa2                	slli	s5,s5,0x8
e00045e8:	0000                	unimp
e00045ea:	57d0                	lw	a2,44(a5)
e00045ec:	5ff58083          	lb	ra,1535(a1) # 1b5ff <_stack_len+0x135ff>
e00045f0:	0881                	addi	a7,a7,0
e00045f2:	531c                	lw	a5,32(a4)
e00045f4:	0000                	unimp
e00045f6:	57d0                	lw	a2,44(a5)
e00045f8:	f7d2                	fsw	fs4,236(sp)
e00045fa:	52222a9b          	0x52222a9b
e00045fe:	e818                	fsw	fa4,16(s0)
e0004600:	0000                	unimp
e0004602:	e910                	fsw	fa2,16(a0)
e0004604:	ddcf517b          	lp.setupi	x2,-548,e0004640 <FLASH_AES_SMOKETEST_SIGNED+0x40b0>
e0004608:	0000                	unimp
e000460a:	f650                	fsw	fa2,44(a2)
e000460c:	0000                	unimp
e000460e:	0730                	addi	a2,sp,904
e0004610:	10c5                	addi	ra,ra,-15
e0004612:	0e44                	addi	s1,sp,788
e0004614:	513e                	lw	sp,236(sp)
e0004616:	8250                	0x8250
e0004618:	0000                	unimp
e000461a:	fff0                	fsw	fa2,124(a5)
e000461c:	1418                	addi	a4,sp,544
e000461e:	d561                	beqz	a0,e00045e6 <FLASH_AES_SMOKETEST_SIGNED+0x4056>
e0004620:	10c0                	addi	s0,sp,100
e0004622:	082c                	addi	a1,sp,24
e0004624:	0000                	unimp
e0004626:	5850                	lw	a2,52(s0)
e0004628:	04ac                	addi	a1,sp,584
e000462a:	c4dc                	sw	a5,12(s1)
e000462c:	422c                	lw	a1,64(a2)
e000462e:	226c                	fld	fa1,192(a2)
e0004630:	0000                	unimp
e0004632:	6060                	flw	fs0,68(s0)
e0004634:	ffff                	0xffff
e0004636:	a00e                	fsd	ft3,0(sp)
e0004638:	51730047          	fmsub.s	ft0,ft6,fs7,fa0,rne
e000463c:	0000                	unimp
e000463e:	0730                	addi	a2,sp,904
e0004640:	9114                	0x9114
e0004642:	e56c                	fsw	fa1,76(a0)
e0004644:	5850                	lw	a2,52(s0)
e0004646:	1085                	addi	ra,ra,-31
e0004648:	0000                	unimp
e000464a:	5130                	lw	a2,96(a0)
e000464c:	3850                	fld	fa2,176(s0)
e000464e:	9385                	srli	a5,a5,0x21
e0004650:	ffff                	0xffff
e0004652:	513e                	lw	sp,236(sp)
e0004654:	0000                	unimp
e0004656:	5170                	lw	a2,100(a0)
e0004658:	1f00                	addi	s0,sp,944
e000465a:	156c                	addi	a1,sp,684
e000465c:	1f04                	addi	s1,sp,944
e000465e:	6054                	flw	fa3,4(s0)
e0004660:	0000                	unimp
e0004662:	10c0                	addi	s0,sp,100
e0004664:	513e                	lw	sp,236(sp)
e0004666:	cdc0                	sw	s0,28(a1)
e0004668:	5174                	lw	a3,100(a0)
e000466a:	ffff                	0xffff
e000466c:	0000                	unimp
e000466e:	1080                	addi	s0,sp,96
e0004670:	10c1                	addi	ra,ra,-16
e0004672:	4c7c                	lw	a5,92(s0)
e0004674:	10c5                	addi	ra,ra,-15
e0004676:	5fd4                	lw	a3,60(a5)
e0004678:	0000                	unimp
e000467a:	4650                	lw	a2,12(a2)
e000467c:	ffff                	0xffff
e000467e:	0a9e                	slli	s5,s5,0x7
e0004680:	d654                	sw	a3,44(a2)
e0004682:	517e                	lw	sp,252(sp)
e0004684:	0000                	unimp
e0004686:	1080                	addi	s0,sp,96
e0004688:	5754                	lw	a3,44(a4)
e000468a:	36ec                	fld	fa1,232(a3)
e000468c:	2450                	fld	fa2,136(s0)
e000468e:	1085                	addi	ra,ra,-31
e0004690:	0000                	unimp
e0004692:	5130                	lw	a2,96(a0)
e0004694:	f050                	fsw	fa2,36(s0)
e0004696:	2c75                	jal	e0004952 <FLASH_AES_SMOKETEST_SIGNED+0x43c2>
e0004698:	ffff                	0xffff
e000469a:	513e                	lw	sp,236(sp)
e000469c:	0000                	unimp
e000469e:	5170                	lw	a2,100(a0)
e00046a0:	913e                	add	sp,sp,a5
e00046a2:	8380                	0x8380
e00046a4:	9174                	0x9174
e00046a6:	ffff                	0xffff
e00046a8:	0000                	unimp
e00046aa:	10c0                	addi	s0,sp,100
e00046ac:	6174                	flw	fa3,68(a0)
e00046ae:	f4df ddd5 885c      	0x885cddd5f4df
e00046b4:	0000                	unimp
e00046b6:	2290                	fld	fa2,0(a3)
e00046b8:	8514                	0x8514
e00046ba:	fe44                	fsw	fs1,60(a2)
e00046bc:	613e                	flw	ft2,204(sp)
e00046be:	f660                	fsw	fs0,108(a2)
e00046c0:	0000                	unimp
e00046c2:	fff0                	fsw	fa2,124(a5)
e00046c4:	4428                	lw	a0,72(s0)
e00046c6:	2c75                	jal	e0004982 <FLASH_AES_SMOKETEST_SIGNED+0x43f2>
e00046c8:	ffff                	0xffff
e00046ca:	293e                	fld	fs2,456(sp)
e00046cc:	0000                	unimp
e00046ce:	2970                	fld	fa2,208(a0)
e00046d0:	e030                	fsw	fa2,64(s0)
e00046d2:	54d4                	lw	a3,44(s1)
e00046d4:	ffff                	0xffff
e00046d6:	313e                	fld	ft2,488(sp)
e00046d8:	0000                	unimp
e00046da:	3170                	fld	fa2,224(a0)
e00046dc:	c585                	beqz	a1,e0004704 <FLASH_AES_SMOKETEST_SIGNED+0x4174>
e00046de:	7a94                	flw	fa3,48(a3)
e00046e0:	5c04                	lw	s1,56(s0)
e00046e2:	00c4                	addi	s1,sp,68
e00046e4:	0000                	unimp
e00046e6:	54c0                	lw	s0,44(s1)
e00046e8:	2d85                	jal	e0004d58 <FLASH_AES_SMOKETEST_SIGNED+0x47c8>
e00046ea:	a1bc                	fsd	fa5,64(a1)
e00046ec:	70c5                	lui	ra,0xffff1
e00046ee:	014c                	addi	a1,sp,132
e00046f0:	0000                	unimp
e00046f2:	4040                	lw	s0,4(s0)
e00046f4:	3630                	fld	fa2,104(a2)
e00046f6:	3b29                	jal	e0004410 <FLASH_AES_SMOKETEST_SIGNED+0x3e80>
e00046f8:	7134                	flw	fa3,96(a0)
e00046fa:	1840                	addi	s0,sp,52
e00046fc:	0000                	unimp
e00046fe:	0cc0                	addi	s0,sp,596
e0004700:	2042                	fld	ft0,16(sp)
e0004702:	5560                	lw	s0,108(a0)
e0004704:	0d40                	addi	s0,sp,660
e0004706:	423c                	lw	a5,64(a2)
e0004708:	0000                	unimp
e000470a:	0e50                	addi	a2,sp,788
e000470c:	44cc                	lw	a1,12(s1)
e000470e:	0564                	addi	s1,sp,652
e0004710:	5fd4                	lw	a3,60(a5)
e0004712:	08c1                	addi	a7,a7,16
e0004714:	0000                	unimp
e0004716:	08c0                	addi	s0,sp,84
e0004718:	44cc                	lw	a1,12(s1)
e000471a:	5384                	lw	s1,32(a5)
e000471c:	8544                	0x8544
e000471e:	70c4                	flw	fs1,36(s1)
e0004720:	0000                	unimp
e0004722:	4180                	lw	s0,0(a1)
e0004724:	0440                	addi	s0,sp,516
e0004726:	cb20                	sw	s0,80(a4)
e0004728:	2d8c                	fld	fa1,24(a1)
e000472a:	4934                	lw	a3,80(a0)
e000472c:	0000                	unimp
e000472e:	1d80                	addi	s0,sp,752
e0004730:	28cc                	fld	fa1,144(s1)
e0004732:	4914                	lw	a3,16(a0)
e0004734:	0971                	addi	s2,s2,28
e0004736:	2cc0                	fld	fs0,152(s1)
e0004738:	0000                	unimp
e000473a:	3630                	fld	fa2,104(a2)
e000473c:	2145                	jal	e0004bdc <FLASH_AES_SMOKETEST_SIGNED+0x464c>
e000473e:	88a4                	0x88a4
e0004740:	28c1                	jal	e0004810 <FLASH_AES_SMOKETEST_SIGNED+0x4280>
e0004742:	44cc                	lw	a1,12(s1)
e0004744:	0000                	unimp
e0004746:	5fd0                	lw	a2,60(a5)
e0004748:	2148                	fld	fa0,128(a0)
e000474a:	ea9c                	fsw	fa5,16(a3)
e000474c:	0b89                	addi	s7,s7,2
e000474e:	ed90                	fsw	fa2,24(a1)
e0004750:	0000                	unimp
e0004752:	7330                	flw	fa2,96(a4)
e0004754:	2d89                	jal	e0004da6 <FLASH_AES_SMOKETEST_SIGNED+0x4816>
e0004756:	dc74                	sw	a3,124(s0)
e0004758:	3058                	fld	fa4,160(s0)
e000475a:	6960                	flw	fs0,84(a0)
e000475c:	0000                	unimp
e000475e:	6b30                	flw	fa2,80(a4)
e0004760:	71cc                	flw	fa1,36(a1)
e0004762:	a1b4                	fsd	fa3,64(a1)
e0004764:	71cc                	flw	fa1,36(a1)
e0004766:	45c4                	lw	s1,12(a1)
e0004768:	0000                	unimp
e000476a:	4180                	lw	s0,0(a1)
e000476c:	298c                	fld	fa1,16(a1)
e000476e:	d6e4                	sw	s1,108(a3)
e0004770:	704c                	flw	fa1,36(s0)
e0004772:	854c                	0x854c
e0004774:	0000                	unimp
e0004776:	3c40                	fld	fs0,184(s0)
e0004778:	0032                	0x32
e000477a:	1000                	addi	s0,sp,32
e000477c:	2980                	fld	fs0,16(a1)
e000477e:	683c                	flw	fa5,80(s0)
e0004780:	0000                	unimp
e0004782:	7050                	flw	fa2,36(s0)
e0004784:	0230                	addi	a2,sp,264
e0004786:	dff2                	sw	t3,252(sp)
e0004788:	4635                	li	a2,13
e000478a:	0d5e                	slli	s10,s10,0x17
e000478c:	0000                	unimp
e000478e:	6d40                	flw	fs0,28(a0)
e0004790:	517f                	0x517f
e0004792:	10c0a6ef          	jal	a3,e000e89e <_stack+0x489e>
e0004796:	1d14                	addi	a3,sp,688
e0004798:	0000                	unimp
e000479a:	1190                	addi	a2,sp,224
e000479c:	10c4                	addi	s1,sp,100
e000479e:	21b4                	fld	fa3,64(a1)
e00047a0:	513e                	lw	sp,236(sp)
e00047a2:	7250                	flw	fa2,36(a2)
e00047a4:	0000                	unimp
e00047a6:	fff0                	fsw	fa2,124(a5)
e00047a8:	5484                	lw	s1,40(s1)
e00047aa:	3564                	fld	fs1,232(a0)
e00047ac:	5894                	lw	a3,48(s1)
e00047ae:	108c                	addi	a1,sp,96
e00047b0:	0000                	unimp
e00047b2:	18c0                	addi	s0,sp,116
e00047b4:	5975                	li	s2,-3
e00047b6:	0114838f          	0x114838f
e00047ba:	57da                	lw	a5,180(sp)
e00047bc:	0000                	unimp
e00047be:	1080                	addi	s0,sp,96
e00047c0:	1884                	addi	s1,sp,112
e00047c2:	3dcc                	fld	fa1,184(a1)
e00047c4:	593e                	lw	s2,236(sp)
e00047c6:	6e58                	flw	fa4,28(a2)
e00047c8:	0000                	unimp
e00047ca:	fff0                	fsw	fa2,124(a5)
e00047cc:	6c40                	flw	fs0,28(s0)
e00047ce:	ca94                	sw	a3,16(a3)
e00047d0:	ffff                	0xffff
e00047d2:	413e                	lw	sp,204(sp)
e00047d4:	0000                	unimp
e00047d6:	4170                	lw	a2,68(a0)
e00047d8:	4fd2                	lw	t6,20(sp)
e00047da:	64d1                	lui	s1,0x14
e00047dc:	4914                	lw	a3,16(a0)
e00047de:	005c                	addi	a5,sp,4
e00047e0:	0000                	unimp
e00047e2:	0040                	addi	s0,sp,4
e00047e4:	5030                	lw	a2,96(s0)
e00047e6:	3ff2                	fld	ft11,312(sp)
e00047e8:	0042023f cf500000 	0xcf5000000042023f
e00047f0:	501c                	lw	a5,32(s0)
e00047f2:	56e4                	lw	s1,108(a3)
e00047f4:	0ef0                	addi	a2,sp,860
e00047f6:	b7ff                	0xb7ff
e00047f8:	0000                	unimp
e00047fa:	0090                	addi	a2,sp,64
e00047fc:	0b24                	addi	s1,sp,408
e00047fe:	16e4                	addi	s1,sp,876
e0004800:	4924                	lw	s1,80(a0)
e0004802:	4224                	lw	s1,64(a2)
e0004804:	0000                	unimp
e0004806:	9020                	0x9020
e0004808:	ffff                	0xffff
e000480a:	44de                	lw	s1,212(sp)
e000480c:	0820                	addi	s0,sp,24
e000480e:	5178                	lw	a4,100(a0)
e0004810:	0000                	unimp
e0004812:	1410                	addi	a2,sp,544
e0004814:	9094                	0x9094
e0004816:	b38c                	fsd	fa1,32(a5)
e0004818:	2c50                	fld	fa2,152(s0)
e000481a:	1084                	addi	s1,sp,96
e000481c:	0000                	unimp
e000481e:	5130                	lw	a2,96(a0)
e0004820:	3450                	fld	fa2,168(s0)
e0004822:	9ff4                	0x9ff4
e0004824:	ffff                	0xffff
e0004826:	513e                	lw	sp,236(sp)
e0004828:	0000                	unimp
e000482a:	5170                	lw	a2,100(a0)
e000482c:	a01c                	fsd	fa5,0(s0)
e000482e:	adca                	fsd	fs2,216(sp)
e0004830:	5854                	lw	a3,52(s0)
e0004832:	10c0                	addi	s0,sp,100
e0004834:	0000                	unimp
e0004836:	10c0                	addi	s0,sp,100
e0004838:	2050                	fld	fa2,128(s0)
e000483a:	54d4                	lw	a3,44(s1)
e000483c:	ffff                	0xffff
e000483e:	513e                	lw	sp,236(sp)
e0004840:	0000                	unimp
e0004842:	5170                	lw	a2,100(a0)
e0004844:	0230                	addi	a2,sp,264
e0004846:	e8a2                	fsw	fs0,80(sp)
e0004848:	3934                	fld	fa3,112(a0)
e000484a:	0158                	addi	a4,sp,132
e000484c:	0000                	unimp
e000484e:	10c0                	addi	s0,sp,100
e0004850:	e13e                	fsw	fa5,128(sp)
e0004852:	0910                	addi	a2,sp,144
e0004854:	e170                	fsw	fa2,68(a0)
e0004856:	ffff                	0xffff
e0004858:	0000                	unimp
e000485a:	0750                	addi	a2,sp,900
e000485c:	813e                	mv	sp,a5
e000485e:	a380                	fsd	fs0,0(a5)
e0004860:	ffff8173          	0xffff8173
e0004864:	0000                	unimp
e0004866:	f6e0                	fsw	fs0,108(a3)
e0004868:	5030                	lw	a2,96(s0)
e000486a:	7382                	flw	ft7,32(sp)
e000486c:	f634                	fsw	fa3,104(a2)
e000486e:	00002b3f 593e0280 	0x593e028000002b3f
e0004876:	fb28                	fsw	fa0,112(a4)
e0004878:	5970                	lw	a2,116(a0)
e000487a:	ffff                	0xffff
e000487c:	0000                	unimp
e000487e:	00e0                	addi	s0,sp,76
e0004880:	0de2                	slli	s11,s11,0x18
e0004882:	66e0                	flw	fs0,76(a3)
e0004884:	02341943          	fmadd.d	fs2,fs0,ft3,ft0,rtz
e0004888:	0000                	unimp
e000488a:	e250                	fsw	fa2,4(a2)
e000488c:	513e                	lw	sp,236(sp)
e000488e:	5750                	lw	a2,44(a4)
e0004890:	517c                	lw	a5,100(a0)
e0004892:	ffff                	0xffff
e0004894:	0000                	unimp
e0004896:	1880                	addi	s0,sp,112
e0004898:	10c0                	addi	s0,sp,100
e000489a:	a00c                	fsd	fa1,0(s0)
e000489c:	585410c3          	fmadd.s	ft1,fs0,ft5,fa1,rtz
e00048a0:	0000                	unimp
e00048a2:	ee50                	fsw	fa2,28(a2)
e00048a4:	5114                	lw	a3,32(a0)
e00048a6:	091c                	addi	a5,sp,144
e00048a8:	00e2                	slli	ra,ra,0x18
e00048aa:	1080                	addi	s0,sp,96
e00048ac:	0000                	unimp
e00048ae:	5030                	lw	a2,96(s0)
e00048b0:	1084                	addi	s1,sp,96
e00048b2:	26e4                	fld	fs1,200(a3)
e00048b4:	00e2                	slli	ra,ra,0x18
e00048b6:	5480                	lw	s0,40(s1)
e00048b8:	0000                	unimp
e00048ba:	5030                	lw	a2,96(s0)
e00048bc:	0a82                	slli	s5,s5,0x0
e00048be:	1000                	addi	s0,sp,32
e00048c0:	57da                	lw	a5,180(sp)
e00048c2:	0235                	addi	tp,tp,13
e00048c4:	0000                	unimp
e00048c6:	0110                	addi	a2,sp,128
e00048c8:	aa3e                	fsd	fa5,272(sp)
e00048ca:	2560                	fld	fs0,200(a0)
e00048cc:	0082                	slli	ra,ra,0x0
e00048ce:	5630                	lw	a2,104(a2)
e00048d0:	0000                	unimp
e00048d2:	5030                	lw	a2,96(s0)
e00048d4:	d494                	sw	a3,40(s1)
e00048d6:	f6ec                	fsw	fa1,108(a3)
e00048d8:	00e2                	slli	ra,ra,0x18
e00048da:	1080                	addi	s0,sp,96
e00048dc:	0000                	unimp
e00048de:	5030                	lw	a2,96(s0)
e00048e0:	e93e                	fsw	fa5,144(sp)
e00048e2:	6e48                	flw	fa0,28(a2)
e00048e4:	e974                	fsw	fa3,84(a0)
e00048e6:	ffff                	0xffff
e00048e8:	0000                	unimp
e00048ea:	8850                	0x8850
e00048ec:	ffff                	0xffff
e00048ee:	8dce                	mv	s11,s3
e00048f0:	31742d13          	slti	s10,s0,791
e00048f4:	0000                	unimp
e00048f6:	82e0                	0x82e0
e00048f8:	00e2                	slli	ra,ra,0x18
e00048fa:	0a90                	addi	a2,sp,336
e00048fc:	d030                	sw	a2,96(s0)
e00048fe:	00005033          	srl	zero,zero,zero
e0004902:	3130                	fld	fa2,96(a0)
e0004904:	e634                	fsw	fa3,72(a2)
e0004906:	738e                	flw	ft7,224(sp)
e0004908:	5544                	lw	s1,44(a0)
e000490a:	2c84                	fld	fs1,24(s1)
e000490c:	0000                	unimp
e000490e:	5480                	lw	s0,40(s1)
e0004910:	ac84                	fsd	fs1,24(s1)
e0004912:	d754                	sw	a3,44(a4)
e0004914:	6cc0                	flw	fs0,28(s1)
e0004916:	69c4                	flw	fs1,20(a1)
e0004918:	0000                	unimp
e000491a:	6a30                	flw	fa2,80(a2)
e000491c:	150c                	addi	a1,sp,672
e000491e:	6234                	flw	fa3,64(a2)
e0004920:	6ccc                	flw	fa1,28(s1)
e0004922:	1dc4                	addi	s1,sp,756
e0004924:	0000                	unimp
e0004926:	78c0                	flw	fs0,52(s1)
e0004928:	0f61                	addi	t5,t5,24
e000492a:	e6e0                	fsw	fs0,76(a3)
e000492c:	0468                	addi	a0,sp,524
e000492e:	3630                	fld	fa2,104(a2)
e0004930:	0000                	unimp
e0004932:	7930                	flw	fa2,112(a0)
e0004934:	10c1                	addi	ra,ra,-16
e0004936:	0dcc                	addi	a1,sp,724
e0004938:	10cc                	addi	a1,sp,100
e000493a:	5fd4                	lw	a3,60(a5)
e000493c:	0000                	unimp
e000493e:	14c0                	addi	s0,sp,612
e0004940:	ed05                	bnez	a0,e0004978 <FLASH_AES_SMOKETEST_SIGNED+0x43e8>
e0004942:	a234                	fsd	fa3,64(a2)
e0004944:	10d5                	addi	ra,ra,-11
e0004946:	28cc                	fld	fa1,144(s1)
e0004948:	0000                	unimp
e000494a:	6880                	flw	fs0,16(s1)
e000494c:	150c                	addi	a1,sp,672
e000494e:	fff4                	fsw	fa3,124(a5)
e0004950:	28cc                	fld	fa1,144(s1)
e0004952:	1d05                	addi	s10,s10,-31
e0004954:	0000                	unimp
e0004956:	60c0                	flw	fs0,4(s1)
e0004958:	0e61                	addi	t3,t3,24
e000495a:	8560                	0x8560
e000495c:	1868                	addi	a0,sp,60
e000495e:	3630                	fld	fa2,104(a2)
e0004960:	0000                	unimp
e0004962:	7130                	flw	fa2,96(a0)
e0004964:	10c0                	addi	s0,sp,100
e0004966:	be44                	fsd	fs1,184(a2)
e0004968:	423c                	lw	a5,64(a2)
e000496a:	206a                	fld	ft0,152(sp)
e000496c:	0000                	unimp
e000496e:	14c0                	addi	s0,sp,612
e0004970:	5835                	li	a6,-19
e0004972:	68aa                	flw	fa7,136(sp)
e0004974:	10c1                	addi	ra,ra,-16
e0004976:	6c8c                	flw	fa1,24(s1)
e0004978:	0000                	unimp
e000497a:	5fd0                	lw	a2,60(a5)
e000497c:	dd10                	sw	a2,56(a0)
e000497e:	2918                	fld	fa4,16(a0)
e0004980:	6330                	flw	fa2,64(a4)
e0004982:	0a89                	addi	s5,s5,2
e0004984:	0000                	unimp
e0004986:	00e0                	addi	s0,sp,76
e0004988:	2550                	fld	fa2,136(a0)
e000498a:	5ff0                	lw	a2,124(a5)
e000498c:	0bea                	slli	s7,s7,0x1a
e000498e:	5330                	lw	a2,96(a4)
e0004990:	0000                	unimp
e0004992:	0230                	addi	a2,sp,264
e0004994:	590c                	lw	a1,48(a0)
e0004996:	3a94                	fld	fa3,48(a3)
e0004998:	14c9                	addi	s1,s1,-14
e000499a:	68c4                	flw	fs1,20(s1)
e000499c:	0000                	unimp
e000499e:	51a0                	lw	s0,96(a1)
e00049a0:	59cc                	lw	a1,52(a1)
e00049a2:	dffc                	sw	a5,124(a5)
e00049a4:	590c                	lw	a1,48(a0)
e00049a6:	25c4                	fld	fs1,136(a1)
e00049a8:	0000                	unimp
e00049aa:	6d00                	flw	fs0,24(a0)
e00049ac:	10c0                	addi	s0,sp,100
e00049ae:	6c7c                	flw	fa5,92(s0)
e00049b0:	10cc                	addi	a1,sp,100
e00049b2:	5854                	lw	a3,52(s0)
e00049b4:	0000                	unimp
e00049b6:	ac80                	fsd	fs0,24(s1)
e00049b8:	d3d4                	sw	a3,36(a5)
e00049ba:	00e23dcf          	fnmadd.s	fs11,ft4,fa4,ft0,rup
e00049be:	1080                	addi	s0,sp,96
e00049c0:	0000                	unimp
e00049c2:	5030                	lw	a2,96(s0)
e00049c4:	5010                	lw	a2,32(s0)
e00049c6:	de44                	sw	s1,60(a2)
e00049c8:	0235                	addi	tp,tp,13
e00049ca:	0a82                	slli	s5,s5,0x0
e00049cc:	0000                	unimp
e00049ce:	57d0                	lw	a2,44(a5)
e00049d0:	14c0                	addi	s0,sp,612
e00049d2:	875c                	0x875c
e00049d4:	5938                	lw	a4,112(a0)
e00049d6:	0850                	addi	a2,sp,20
e00049d8:	0000                	unimp
e00049da:	0820                	addi	s0,sp,24
e00049dc:	90cc                	0x90cc
e00049de:	656c                	flw	fa1,76(a0)
e00049e0:	5105                	li	sp,-31
e00049e2:	54cc                	lw	a1,44(s1)
e00049e4:	0000                	unimp
e00049e6:	67d0                	flw	fa2,12(a5)
e00049e8:	8238                	0x8238
e00049ea:	5e42                	lw	t3,48(sp)
e00049ec:	0052                	0x52
e00049ee:	0820                	addi	s0,sp,24
e00049f0:	0000                	unimp
e00049f2:	0230                	addi	a2,sp,264
e00049f4:	1544                	addi	s1,sp,676
e00049f6:	6ff4                	flw	fa3,92(a5)
e00049f8:	0820                	addi	s0,sp,24
e00049fa:	5108                	lw	a0,32(a0)
e00049fc:	0000                	unimp
e00049fe:	0050                	addi	a2,sp,4
e0004a00:	2544                	fld	fs1,136(a0)
e0004a02:	cdcc                	sw	a1,28(a1)
e0004a04:	6904                	flw	fs1,16(a0)
e0004a06:	510c                	lw	a1,32(a0)
e0004a08:	0000                	unimp
e0004a0a:	90c0                	0x90c0
e0004a0c:	1d00                	addi	s0,sp,688
e0004a0e:	956c                	0x956c
e0004a10:	3634                	fld	fa3,104(a2)
e0004a12:	0a69                	addi	s4,s4,26
e0004a14:	0000                	unimp
e0004a16:	1d40                	addi	s0,sp,692
e0004a18:	57d4                	lw	a3,44(a5)
e0004a1a:	aa91                	j	e0004b6e <FLASH_AES_SMOKETEST_SIGNED+0x45de>
e0004a1c:	0052                	0x52
e0004a1e:	1880                	addi	s0,sp,112
e0004a20:	0000                	unimp
e0004a22:	8230                	0x8230
e0004a24:	1418                	addi	a4,sp,544
e0004a26:	fa91                	bnez	a3,e000493a <FLASH_AES_SMOKETEST_SIGNED+0x43aa>
e0004a28:	188c                	addi	a1,sp,112
e0004a2a:	0824                	addi	s1,sp,24
e0004a2c:	0000                	unimp
e0004a2e:	1880                	addi	s0,sp,112
e0004a30:	04ac                	addi	a1,sp,584
e0004a32:	c4dc                	sw	a5,12(s1)
e0004a34:	422c                	lw	a1,64(a2)
e0004a36:	226c                	fld	fa1,192(a2)
e0004a38:	0000                	unimp
e0004a3a:	6060                	flw	fs0,68(s0)
e0004a3c:	5930                	lw	a2,112(a0)
e0004a3e:	94188757          	0x94188757
e0004a42:	5419                	li	s0,-26
e0004a44:	0000                	unimp
e0004a46:	42a0                	lw	s0,64(a3)
e0004a48:	5010                	lw	a2,32(s0)
e0004a4a:	2234                	fld	fa3,64(a2)
e0004a4c:	3630                	fld	fa2,104(a2)
e0004a4e:	0a46                	slli	s4,s4,0x11
e0004a50:	0000                	unimp
e0004a52:	0f40                	addi	s0,sp,916
e0004a54:	9e4f5173          	csrrwi	sp,0x9e4,30
e0004a58:	42ac                	lw	a1,64(a3)
e0004a5a:	30d8                	fld	fa4,160(s1)
e0004a5c:	0000                	unimp
e0004a5e:	1910                	addi	a2,sp,176
e0004a60:	1042                	0x1042
e0004a62:	5004                	lw	s1,32(s0)
e0004a64:	513e                	lw	sp,236(sp)
e0004a66:	be50                	fsd	fa2,184(a2)
e0004a68:	0000                	unimp
e0004a6a:	fff0                	fsw	fa2,124(a5)
e0004a6c:	597a                	lw	s2,188(sp)
e0004a6e:	7fff                	0x7fff
e0004a70:	819c                	0x819c
e0004a72:	089e                	slli	a7,a7,0x7
e0004a74:	0000                	unimp
e0004a76:	0990                	addi	a2,sp,208
e0004a78:	4ff05c13          	0x4ff05c13
e0004a7c:	593e                	lw	s2,236(sp)
e0004a7e:	9658                	0x9658
e0004a80:	0000                	unimp
e0004a82:	fff0                	fsw	fa2,124(a5)
e0004a84:	805c                	0x805c
e0004a86:	04dc                	addi	a5,sp,580
e0004a88:	f05f 104f 0000      	0x104ff05f
e0004a8e:	4930                	lw	a2,80(a0)
e0004a90:	a050                	fsd	fa2,128(s0)
e0004a92:	14d2                	slli	s1,s1,0x34
e0004a94:	ffff                	0xffff
e0004a96:	513e                	lw	sp,236(sp)
e0004a98:	0000                	unimp
e0004a9a:	5170                	lw	a2,100(a0)
e0004a9c:	0890                	addi	a2,sp,80
e0004a9e:	0dc0                	addi	s0,sp,724
e0004aa0:	0052                	0x52
e0004aa2:	5b30                	lw	a2,112(a4)
e0004aa4:	0000                	unimp
e0004aa6:	9030                	0x9030
e0004aa8:	1007ff63          	bleu	zero,a5,e0004bc6 <FLASH_AES_SMOKETEST_SIGNED+0x4636>
e0004aac:	045d                	addi	s0,s0,23
e0004aae:	6130                	flw	fa2,64(a0)
e0004ab0:	0000                	unimp
e0004ab2:	6130                	flw	fa2,64(a0)
e0004ab4:	a018                	fsd	fa4,0(s0)
e0004ab6:	0ffc                	addi	a5,sp,988
e0004ab8:	e7500b93          	li	s7,-395
e0004abc:	0000                	unimp
e0004abe:	6b30                	flw	fa2,80(a4)
e0004ac0:	491c                	lw	a5,16(a0)
e0004ac2:	f56c                	fsw	fa1,108(a0)
e0004ac4:	0efc                	addi	a5,sp,860
e0004ac6:	edff                	0xedff
e0004ac8:	0000                	unimp
e0004aca:	10c0                	addi	s0,sp,100
e0004acc:	0efa                	slli	t4,t4,0x1e
e0004ace:	1248d6ef          	jal	a3,e0091bf2 <fromhost+0x81be2>
e0004ad2:	0310                	addi	a2,sp,384
e0004ad4:	0000                	unimp
e0004ad6:	5330                	lw	a2,96(a4)
e0004ad8:	5018                	lw	a4,32(s0)
e0004ada:	e914                	fsw	fa3,16(a0)
e0004adc:	0efc                	addi	a5,sp,860
e0004ade:	4ffe                	lw	t6,220(sp)
e0004ae0:	0000                	unimp
e0004ae2:	e1f0                	fsw	fa2,68(a1)
e0004ae4:	0b24                	addi	s1,sp,408
e0004ae6:	16e4                	addi	s1,sp,876
e0004ae8:	4924                	lw	s1,80(a0)
e0004aea:	4224                	lw	s1,64(a2)
e0004aec:	0000                	unimp
e0004aee:	9020                	0x9020
e0004af0:	5058                	lw	a4,36(s0)
e0004af2:	2dc4                	fld	fs1,152(a1)
e0004af4:	0820                	addi	s0,sp,24
e0004af6:	0828                	addi	a0,sp,24
e0004af8:	0000                	unimp
e0004afa:	1410                	addi	a2,sp,544
e0004afc:	0008                	addi	a0,sp,0
e0004afe:	f380                	fsw	fs0,32(a5)
e0004b00:	5058                	lw	a4,36(s0)
e0004b02:	0824                	addi	s1,sp,24
e0004b04:	0000                	unimp
e0004b06:	0820                	addi	s0,sp,24
e0004b08:	dc773747          	fmsub.h	a4,a4,t2,s11,rup
e0004b0c:	365742f7          	0x365742f7
e0004b10:	0000                	unimp
e0004b12:	7730                	flw	fa2,104(a4)
e0004b14:	de474697          	auipc	a3,0xde474
e0004b18:	5706                	lw	a4,96(sp)
e0004b1a:	46e6                	lw	a3,88(sp)
e0004b1c:	0000                	unimp
e0004b1e:	f2f0                	fsw	fa2,100(a3)
e0004b20:	8736                	mv	a4,a3
e0004b22:	2386                	fld	ft7,64(sp)
e0004b24:	62f6                	flw	ft5,92(sp)
e0004b26:	16c6                	slli	a3,a3,0x31
e0004b28:	0000                	unimp
e0004b2a:	e610                	fsw	fa2,8(a2)
e0004b2c:	01b6f6d7          	pv.add.sci.b	a3,a3,-10
e0004b30:	3656                	fld	fa2,368(sp)
e0004b32:	000035f7          	0x35f7
e0004b36:	15f0                	addi	a2,sp,748
e0004b38:	638662f7          	0x638662f7
e0004b3c:	5746                	lw	a4,112(sp)
e0004b3e:	4736                	lw	a4,76(sp)
e0004b40:	0000                	unimp
e0004b42:	56b0                	lw	a2,104(a3)
e0004b44:	3656                	fld	fa2,368(sp)
e0004b46:	87366c77          	0x87366c77
e0004b4a:	15f6                	slli	a1,a1,0x3d
e0004b4c:	0000                	unimp
e0004b4e:	16c0                	addi	s0,sp,868
e0004b50:	5746                	lw	a4,112(sp)
e0004b52:	4566                	lw	a0,88(sp)
e0004b54:	56b6f6d7          	0x56b6f6d7
e0004b58:	0000                	unimp
e0004b5a:	35f0                	fld	fa2,232(a1)
e0004b5c:	6494                	flw	fa3,8(s1)
e0004b5e:	a384                	fsd	fs1,0(a5)
e0004b60:	400632e7          	0x400632e7
e0004b64:	0000                	unimp
e0004b66:	4730                	lw	a2,72(a4)
e0004b68:	93864203          	lbu	tp,-1736(a2) # fffdf938 <pulp__FC+0xfffdf939>
e0004b6c:	9616                	add	a2,a2,t0
e0004b6e:	a6c6                	fsd	fa7,328(sp)
e0004b70:	0000                	unimp
e0004b72:	62d0                	flw	fa2,4(a3)
e0004b74:	04d695f7          	0x4d695f7
e0004b78:	15f6                	slli	a1,a1,0x3d
e0004b7a:	3656                	fld	fa2,368(sp)
e0004b7c:	0000                	unimp
e0004b7e:	6690                	flw	fa2,8(a3)
e0004b80:	f696                	fsw	ft5,108(sp)
e0004b82:	6756                	flw	fa4,84(sp)
e0004b84:	8746                	mv	a4,a7
e0004b86:	d6d2                	sw	s4,108(sp)
e0004b88:	0000                	unimp
e0004b8a:	96e0                	0x96e0
e0004b8c:	f6e6                	fsw	fs9,108(sp)
e0004b8e:	6005                	0x6005
e0004b90:	f6967657          	0xf6967657
e0004b94:	0000                	unimp
e0004b96:	25f0                	fld	fa2,200(a1)
e0004b98:	4646                	lw	a2,80(sp)
e0004b9a:	5ff6                	lw	t6,124(sp)
e0004b9c:	15f6d6f7          	0x15f6d6f7
e0004ba0:	0000                	unimp
e0004ba2:	2660                	fld	fs0,200(a2)
e0004ba4:	1455                	addi	s0,s0,-11
e0004ba6:	e004                	fsw	fs1,0(s0)
e0004ba8:	f542                	fsw	fa6,168(sp)
e0004baa:	f504                	fsw	fs1,40(a0)
e0004bac:	0000                	unimp
e0004bae:	8720                	0x8720
e0004bb0:	15f5                	addi	a1,a1,-3
e0004bb2:	d8a4                	sw	s1,112(s1)
e0004bb4:	2474                	fld	fa3,200(s0)
e0004bb6:	9455                	srai	s0,s0,0x35
e0004bb8:	0000                	unimp
e0004bba:	c520                	sw	s0,72(a0)
e0004bbc:	f455                	bnez	s0,e0004b68 <FLASH_AES_SMOKETEST_SIGNED+0x45d8>
e0004bbe:	e8a5                	bnez	s1,e0004c2e <FLASH_AES_SMOKETEST_SIGNED+0x469e>
e0004bc0:	25f5                	jal	e00052ac <FLASH_AES_SMOKETEST_SIGNED+0x4d1c>
e0004bc2:	3414                	fld	fa3,40(s0)
e0004bc4:	0000                	unimp
e0004bc6:	3450                	fld	fa2,168(s0)
e0004bc8:	6202                	flw	ft4,0(sp)
e0004bca:	2b22                	fld	fs6,8(sp)
e0004bcc:	2444                	fld	fs1,136(s0)
e0004bce:	c295                	beqz	a3,e0004bf2 <FLASH_AES_SMOKETEST_SIGNED+0x4662>
e0004bd0:	0000                	unimp
e0004bd2:	4410                	lw	a2,8(s0)
e0004bd4:	ec774657          	0xec774657
e0004bd8:	9736                	add	a4,a4,a3
e0004bda:	2202                	fld	ft4,0(sp)
e0004bdc:	0000                	unimp
e0004bde:	5610                	lw	a2,40(a2)
e0004be0:	0642                	slli	a2,a2,0x10
e0004be2:	18a0                	addi	s0,sp,120
e0004be4:	520736e7          	0x520736e7
e0004be8:	0000                	unimp
e0004bea:	2750                	fld	fa2,136(a4)
e0004bec:	c696                	sw	t0,76(sp)
e0004bee:	8ff6                	mv	t6,t4
e0004bf0:	d464                	sw	s1,108(s0)
e0004bf2:	1662                	slli	a2,a2,0x38
e0004bf4:	0000                	unimp
e0004bf6:	9440                	0x9440
e0004bf8:	5615                	li	a2,-27
e0004bfa:	2b26                	fld	fs6,72(sp)
e0004bfc:	9642                	add	a2,a2,a6
e0004bfe:	f666                	fsw	fs9,44(sp)
e0004c00:	0000                	unimp
e0004c02:	03a0                	addi	s0,sp,456
e0004c04:	8746                	mv	a4,a7
e0004c06:	d6e2                	sw	s8,108(sp)
e0004c08:	5725                	li	a4,-23
e0004c0a:	5736                	lw	a4,108(sp)
e0004c0c:	0000                	unimp
e0004c0e:	f730                	fsw	fa2,104(a4)
e0004c10:	5722                	lw	a4,40(sp)
e0004c12:	4006                	0x4006
e0004c14:	3656                	fld	fa2,368(sp)
e0004c16:	00000297          	auipc	t0,0x0
e0004c1a:	1260                	addi	s0,sp,300
e0004c1c:	4252                	lw	tp,20(sp)
e0004c1e:	edc6                	fsw	fa7,216(sp)
e0004c20:	0736e727          	0x736e727
e0004c24:	0000                	unimp
e0004c26:	5740                	lw	s0,44(a4)
e0004c28:	9616                	add	a2,a2,t0
e0004c2a:	1b26                	slli	s6,s6,0x29
e0004c2c:	6494                	flw	fa3,8(s1)
e0004c2e:	62d4                	flw	fa3,4(a3)
e0004c30:	0000                	unimp
e0004c32:	4000                	lw	s0,0(s0)
e0004c34:	15f6                	slli	a1,a1,0x3d
e0004c36:	1ff6                	slli	t6,t6,0x3d
e0004c38:	66964203          	lbu	tp,1641(a2)
e0004c3c:	0000                	unimp
e0004c3e:	a6c0                	fsd	fs0,136(a3)
e0004c40:	4726                	lw	a4,72(sp)
e0004c42:	35f7d4d7          	pv.cmpgtu.sc.b	s1,a5,t6
e0004c46:	00001747          	fmsub.s	fa4,ft0,ft0,ft0,rtz
e0004c4a:	3650                	fld	fa2,168(a2)
e0004c4c:	6202                	flw	ft4,0(sp)
e0004c4e:	1382                	slli	t2,t2,0x20
e0004c50:	5612                	lw	a2,36(sp)
e0004c52:	c736                	sw	a3,140(sp)
e0004c54:	0000                	unimp
e0004c56:	6280                	flw	fs0,0(a3)
e0004c58:	4636                	lw	a2,76(sp)
e0004c5a:	e6179a97          	auipc	s5,0xe6179
e0004c5e:	1736                	slli	a4,a4,0x2d
e0004c60:	0000                	unimp
e0004c62:	2740                	fld	fs0,136(a4)
e0004c64:	56b2                	lw	a3,44(sp)
e0004c66:	f8a6                	fsw	fs1,112(sp)
e0004c68:	c6e6                	sw	s9,76(sp)
e0004c6a:	6202                	flw	ft4,0(sp)
e0004c6c:	0000                	unimp
e0004c6e:	f690                	fsw	fa2,40(a3)
e0004c70:	94c4                	0x94c4
e0004c72:	18a2                	slli	a7,a7,0x28
e0004c74:	e202                	fsw	ft0,4(sp)
e0004c76:	c554                	sw	a3,12(a0)
e0004c78:	0000                	unimp
e0004c7a:	c790                	sw	a2,8(a5)
e0004c7c:	76e736e7          	0x76e736e7
e0004c80:	27574657          	0x27574657
e0004c84:	0000                	unimp
e0004c86:	2200                	fld	fs0,0(a2)
e0004c88:	3454                	fld	fa3,168(s0)
e0004c8a:	28a4                	fld	fs1,80(s1)
e0004c8c:	0642                	slli	a2,a2,0x10
e0004c8e:	8430                	0x8430
e0004c90:	0000                	unimp
e0004c92:	5200                	lw	s0,32(a2)
e0004c94:	03a6                	slli	t2,t2,0x9
e0004c96:	d232                	sw	a2,36(sp)
e0004c98:	1662                	slli	a2,a2,0x38
e0004c9a:	c696                	sw	t0,76(sp)
e0004c9c:	0000                	unimp
e0004c9e:	d4b0                	sw	a2,104(s1)
e0004ca0:	56f2                	lw	a3,60(sp)
e0004ca2:	56d698a7          	0x56d698a7
e0004ca6:	0646                	slli	a2,a2,0x11
e0004ca8:	0000                	unimp
e0004caa:	9540                	0x9540
e0004cac:	0726                	slli	a4,a4,0x9
e0004cae:	a382                	fsd	ft0,448(sp)
e0004cb0:	6612                	flw	fa2,4(sp)
e0004cb2:	5746                	lw	a4,112(sp)
e0004cb4:	0000                	unimp
e0004cb6:	0740                	addi	s0,sp,900
e0004cb8:	0636                	slli	a2,a2,0xd
e0004cba:	f002                	fsw	ft0,32(sp)
e0004cbc:	5206                	lw	tp,96(sp)
e0004cbe:	00005737          	lui	a4,0x5
e0004cc2:	4250                	lw	a2,4(a2)
e0004cc4:	0555                	addi	a0,a0,21
e0004cc6:	06e2                	slli	a3,a3,0x18
e0004cc8:	0642                	slli	a2,a2,0x10
e0004cca:	0432                	slli	s0,s0,0xc
e0004ccc:	0000                	unimp
e0004cce:	5280                	lw	s0,32(a3)
e0004cd0:	ddc20297          	auipc	t0,0xddc20
e0004cd4:	3656c637          	lui	a2,0x3656c
e0004cd8:	0000                	unimp
e0004cda:	9630                	0x9630
e0004cdc:	0676                	slli	a2,a2,0x1d
e0004cde:	4752                	lw	a4,20(sp)
e0004ce0:	4696                	lw	a3,68(sp)
e0004ce2:	0000e697          	auipc	a3,0xe
e0004ce6:	1770                	addi	a2,sp,940
e0004ce8:	f736                	fsw	fa3,172(sp)
e0004cea:	0c75                	addi	s8,s8,29
e0004cec:	0726                	slli	a4,a4,0x9
e0004cee:	5612                	lw	a2,36(sp)
e0004cf0:	0000                	unimp
e0004cf2:	f660                	fsw	fs0,108(a2)
e0004cf4:	f4d6c697          	auipc	a3,0xf4d6c
e0004cf8:	4736                	lw	a4,76(sp)
e0004cfa:	00004757          	pv.add.sc.h	a4,zero,zero
e0004cfe:	5740                	lw	s0,44(a4)
e0004d00:	4735                	li	a4,13
e0004d02:	56759dc7          	0x56759dc7
e0004d06:	f746                	fsw	fa7,172(sp)
e0004d08:	0000                	unimp
e0004d0a:	f730                	fsw	fa2,104(a4)
e0004d0c:	1262                	slli	tp,tp,0x38
e0004d0e:	2a96                	fld	fs5,320(sp)
e0004d10:	82873757          	0x82873757
e0004d14:	0000                	unimp
e0004d16:	4610                	lw	a2,8(a2)
e0004d18:	46b2                	lw	a3,12(sp)
e0004d1a:	71b4                	flw	fa3,96(a1)
e0004d1c:	8202c297          	auipc	t0,0x8202c
e0004d20:	0000                	unimp
e0004d22:	3650                	fld	fa2,168(a2)
e0004d24:	1745                	addi	a4,a4,-15
e0004d26:	fe46                	fsw	fa7,60(sp)
e0004d28:	5416                	lw	s0,100(sp)
e0004d2a:	3736                	fld	fa4,360(sp)
e0004d2c:	0000                	unimp
e0004d2e:	6690                	flw	fa2,8(a3)
e0004d30:	b7574757          	0xb7574757
e0004d34:	06e49737          	lui	a4,0x6e49
e0004d38:	0000                	unimp
e0004d3a:	5740                	lw	s0,44(a4)
e0004d3c:	0292                	slli	t0,t0,0x4
e0004d3e:	4a92                	lw	s5,4(sp)
e0004d40:	4616                	lw	a2,68(sp)
e0004d42:	9796                	add	a5,a5,t0
e0004d44:	0000                	unimp
e0004d46:	5520                	lw	s0,104(a0)
e0004d48:	4002                	0x4002
e0004d4a:	0234                	addi	a3,sp,264
e0004d4c:	93128203          	lb	tp,-1743(t0) # 6203064d <tohost+0x62010645>
e0004d50:	0000                	unimp
e0004d52:	d3d0                	sw	a2,36(a5)
e0004d54:	a6c6                	fsd	fa7,328(sp)
e0004d56:	62d4db23          	0x62d4db23
e0004d5a:	9616                	add	a2,a2,t0
e0004d5c:	0000                	unimp
e0004d5e:	6490                	flw	fa2,8(s1)
e0004d60:	3656                	fld	fa2,368(sp)
e0004d62:	6696ec77          	0x6696ec77
e0004d66:	15f6                	slli	a1,a1,0x3d
e0004d68:	0000                	unimp
e0004d6a:	4200                	lw	s0,0(a2)
e0004d6c:	1645                	addi	a2,a2,-15
e0004d6e:	fb26                	fsw	fs1,180(sp)
e0004d70:	16f6                	slli	a3,a3,0x3d
e0004d72:	f646                	fsw	fa7,44(sp)
e0004d74:	0000                	unimp
e0004d76:	c5f0                	sw	a2,76(a1)
e0004d78:	c736                	sw	a3,140(sp)
e0004d7a:	1e42                	slli	t3,t3,0x30
e0004d7c:	6286                	flw	ft5,64(sp)
e0004d7e:	5612                	lw	a2,36(sp)
e0004d80:	0000                	unimp
e0004d82:	1740                	addi	s0,sp,932
e0004d84:	1746                	slli	a4,a4,0x31
e0004d86:	74d6                	flw	fs1,116(sp)
e0004d88:	f6e6                	fsw	fs9,108(sp)
e0004d8a:	1645                	addi	a2,a2,-15
e0004d8c:	0000                	unimp
e0004d8e:	9200                	0x9200
e0004d90:	0296                	slli	t0,t0,0x5
e0004d92:	c232                	sw	a2,4(sp)
e0004d94:	e69616c7          	0xe69616c7
e0004d98:	0000                	unimp
e0004d9a:	05f0                	addi	a2,sp,716
e0004d9c:	0736                	slli	a4,a4,0xd
e0004d9e:	5002                	0x5002
e0004da0:	5746                	lw	a4,112(sp)
e0004da2:	0000e727          	0xe727
e0004da6:	5720                	lw	s0,104(a4)
e0004da8:	b434                	fsd	fa3,104(s0)
e0004daa:	4564                	lw	s1,76(a0)
e0004dac:	3006                	fld	ft0,96(sp)
e0004dae:	5484                	lw	s1,40(s1)
e0004db0:	0000                	unimp
e0004db2:	4250                	lw	a2,4(a2)
e0004db4:	da954203          	lbu	tp,-599(a0) # 19da9 <_stack_len+0x11da9>
e0004db8:	9616                	add	a2,a2,t0
e0004dba:	a6c6                	fsd	fa7,328(sp)
e0004dbc:	0000                	unimp
e0004dbe:	62d0                	flw	fa2,4(a3)
e0004dc0:	4756                	lw	a4,84(sp)
e0004dc2:	46567387          	0x46567387
e0004dc6:	f206                	fsw	ft1,36(sp)
e0004dc8:	0000                	unimp
e0004dca:	d690                	sw	a2,40(a3)
e0004dcc:	cb225207          	0xcb225207
e0004dd0:	4666                	lw	a2,88(sp)
e0004dd2:	00002657          	pv.add.h.div2	a2,zero,zero
e0004dd6:	1200                	addi	s0,sp,288
e0004dd8:	8206                	mv	tp,ra
e0004dda:	8ff2                	mv	t6,t3
e0004ddc:	3752                	fld	fa4,304(sp)
e0004dde:	00003657          	pv.add.b.div2	a2,zero,zero
e0004de2:	0640                	addi	s0,sp,772
e0004de4:	3205                	jal	e0004704 <FLASH_AES_SMOKETEST_SIGNED+0x4174>
e0004de6:	ac76                	fsd	ft9,24(sp)
e0004de8:	3206                	fld	ft4,96(sp)
e0004dea:	5504                	lw	s1,40(a0)
e0004dec:	0000                	unimp
e0004dee:	4250                	lw	a2,4(a2)
e0004df0:	7202                	flw	ft4,32(sp)
e0004df2:	56c631b7          	lui	gp,0x56c63
e0004df6:	9736                	add	a4,a4,a3
e0004df8:	0000                	unimp
e0004dfa:	3790                	fld	fa2,40(a5)
e0004dfc:	6206                	flw	ft4,64(sp)
e0004dfe:	d386                	sw	ra,228(sp)
e0004e00:	9746                	add	a4,a4,a7
e0004e02:	76e6                	flw	fa3,120(sp)
e0004e04:	0000                	unimp
e0004e06:	9610                	0x9610
e0004e08:	7e4745f7          	0x7e4745f7
e0004e0c:	36561207          	0x36561207
e0004e10:	0000                	unimp
e0004e12:	26f0                	fld	fa2,200(a3)
e0004e14:	36c6                	fld	fa3,112(sp)
e0004e16:	574766e7          	0x574766e7
e0004e1a:	00009747          	fmsub.s	fa4,ft1,ft0,ft0,rtz
e0004e1e:	3650                	fld	fa2,168(a2)
e0004e20:	9dc61747          	fmsub.h	a4,a2,t3,s3,rtz
e0004e24:	4656                	lw	a2,84(sp)
e0004e26:	000035f7          	0x35f7
e0004e2a:	75f0                	flw	fa2,108(a1)
e0004e2c:	5612                	lw	a2,36(sp)
e0004e2e:	b386                	fsd	ft1,480(sp)
e0004e30:	62828737          	lui	a4,0x62828
e0004e34:	0000                	unimp
e0004e36:	5740                	lw	s0,44(a4)
e0004e38:	9446                	add	s0,s0,a7
e0004e3a:	a6e6                	fsd	fs9,328(sp)
e0004e3c:	02c2                	slli	t0,t0,0x10
e0004e3e:	b282                	fsd	ft0,352(sp)
e0004e40:	0000                	unimp
e0004e42:	9730                	0x9730
e0004e44:	43874617          	auipc	a2,0x43874
e0004e48:	3654                	fld	fa3,168(a2)
e0004e4a:	00004537          	lui	a0,0x4
e0004e4e:	1660                	addi	s0,sp,812
e0004e50:	18a74757          	pv.avgu.sc.h	a4,a4,a0
e0004e54:	074754f7          	0x74754f7
e0004e58:	0000                	unimp
e0004e5a:	3750                	fld	fa2,168(a4)
e0004e5c:	0292                	slli	t0,t0,0x4
e0004e5e:	c752                	sw	s4,140(sp)
e0004e60:	96c6                	add	a3,a3,a7
e0004e62:	9646                	add	a2,a2,a7
e0004e64:	0000                	unimp
e0004e66:	1560                	addi	s0,sp,684
e0004e68:	4002                	0x4002
e0004e6a:	0234                	addi	a3,sp,264
e0004e6c:	93128203          	lb	tp,-1743(t0)
e0004e70:	0000                	unimp
e0004e72:	d3d0                	sw	a2,36(a5)
e0004e74:	a6c6                	fsd	fa7,328(sp)
e0004e76:	62d4db23          	0x62d4db23
e0004e7a:	9616                	add	a2,a2,t0
e0004e7c:	0000                	unimp
e0004e7e:	6490                	flw	fa2,8(s1)
e0004e80:	3656                	fld	fa2,368(sp)
e0004e82:	6696ec77          	0x6696ec77
e0004e86:	15f6                	slli	a1,a1,0x3d
e0004e88:	0000                	unimp
e0004e8a:	4200                	lw	s0,0(a2)
e0004e8c:	56f5                	li	a3,-3
e0004e8e:	165744d7          	0x165744d7
e0004e92:	f646                	fsw	fa7,44(sp)
e0004e94:	0000                	unimp
e0004e96:	25f0                	fld	fa2,200(a1)
e0004e98:	5612                	lw	a2,36(sp)
e0004e9a:	f006                	fsw	ft1,32(sp)
e0004e9c:	62874757          	0x62874757
e0004ea0:	0000                	unimp
e0004ea2:	0740                	addi	s0,sp,900
e0004ea4:	14d5f747          	fmsub.h	a4,a1,a3,sp
e0004ea8:	6202                	flw	ft4,0(sp)
e0004eaa:	56f2                	lw	a3,60(sp)
e0004eac:	0000                	unimp
e0004eae:	c730                	sw	a2,72(a4)
e0004eb0:	5722                	lw	a4,40(sp)
e0004eb2:	36e6                	fld	fa3,120(sp)
e0004eb4:	1746                	slli	a4,a4,0x31
e0004eb6:	0296                	slli	t0,t0,0x5
e0004eb8:	0000                	unimp
e0004eba:	1640                	addi	s0,sp,804
e0004ebc:	4252                	lw	tp,20(sp)
e0004ebe:	edc6                	fsw	fa7,216(sp)
e0004ec0:	0736e727          	0x736e727
e0004ec4:	0000                	unimp
e0004ec6:	5740                	lw	s0,44(a4)
e0004ec8:	9616                	add	a2,a2,t0
e0004eca:	1b26                	slli	s6,s6,0x29
e0004ecc:	6494                	flw	fa3,8(s1)
e0004ece:	62d4                	flw	fa3,4(a3)
e0004ed0:	0000                	unimp
e0004ed2:	4000                	lw	s0,0(s0)
e0004ed4:	15f6                	slli	a1,a1,0x3d
e0004ed6:	1ff6                	slli	t6,t6,0x3d
e0004ed8:	66964203          	lbu	tp,1641(a2) # 238794ad <pulp__FC+0x238794ae>
e0004edc:	0000                	unimp
e0004ede:	a6c0                	fsd	fs0,136(a3)
e0004ee0:	6286                	flw	ft5,64(sp)
e0004ee2:	f002                	fsw	ft0,32(sp)
e0004ee4:	46e655f7          	0x46e655f7
e0004ee8:	0000                	unimp
e0004eea:	3650                	fld	fa2,168(a2)
e0004eec:	ec774657          	0xec774657
e0004ef0:	9736                	add	a4,a4,a3
e0004ef2:	2202                	fld	ft4,0(sp)
e0004ef4:	0000                	unimp
e0004ef6:	5610                	lw	a2,40(a2)
e0004ef8:	0642                	slli	a2,a2,0x10
e0004efa:	18a0                	addi	s0,sp,120
e0004efc:	520736e7          	0x520736e7
e0004f00:	0000                	unimp
e0004f02:	2750                	fld	fa2,136(a4)
e0004f04:	1662                	slli	a2,a2,0x38
e0004f06:	5b26                	lw	s6,104(sp)
e0004f08:	3454                	fld	fa3,168(s0)
e0004f0a:	d4b4                	sw	a3,104(s1)
e0004f0c:	0000                	unimp
e0004f0e:	8430                	0x8430
e0004f10:	1b26e697          	auipc	a3,0x1b26e
e0004f14:	03a6                	slli	t2,t2,0x9
e0004f16:	5282                	lw	t0,32(sp)
e0004f18:	0000                	unimp
e0004f1a:	c690                	sw	a2,8(a3)
e0004f1c:	f292                	fsw	ft4,100(sp)
e0004f1e:	4dc6                	lw	s11,80(sp)
e0004f20:	a20745f3          	0xa20745f3
e0004f24:	0000                	unimp
e0004f26:	8740                	0x8740
e0004f28:	ec72e617          	auipc	a2,0xec72e
e0004f2c:	461645f7          	0x461645f7
e0004f30:	0000                	unimp
e0004f32:	4750                	lw	a2,12(a4)
e0004f34:	56f6                	lw	a3,124(sp)
e0004f36:	3386                	fld	ft7,96(sp)
e0004f38:	1746                	slli	a4,a4,0x31
e0004f3a:	4206                	lw	tp,64(sp)
e0004f3c:	0000                	unimp
e0004f3e:	1640                	addi	s0,sp,804
e0004f40:	16d2                	slli	a3,a3,0x34
e0004f42:	7916                	flw	fs2,100(sp)
e0004f44:	f6e2                	fsw	fs8,108(sp)
e0004f46:	0746                	slli	a4,a4,0x11
e0004f48:	0000                	unimp
e0004f4a:	0730                	addi	a2,sp,904
e0004f4c:	3654                	fld	fa3,168(a2)
e0004f4e:	06867387          	0x6867387
e0004f52:	16b2                	slli	a3,a3,0x2c
e0004f54:	0000                	unimp
e0004f56:	3740                	fld	fs0,168(a4)
e0004f58:	0694                	addi	a3,sp,832
e0004f5a:	5646f567          	0x5646f567
e0004f5e:	3736                	fld	fa4,360(sp)
e0004f60:	0000                	unimp
e0004f62:	f4d0                	fsw	fa2,44(s1)
e0004f64:	1a945747          	fmsub.d	fa4,fs0,fs1,ft3,unknown
e0004f68:	4726                	lw	a4,72(sp)
e0004f6a:	8655                	srai	a2,a2,0x15
e0004f6c:	0000                	unimp
e0004f6e:	5680                	lw	s0,40(a3)
e0004f70:	8430                	0x8430
e0004f72:	5914                	lw	a3,48(a0)
e0004f74:	5326                	lw	t1,104(sp)
e0004f76:	00000363          	beqz	zero,e0004f7c <FLASH_AES_SMOKETEST_SIGNED+0x49ec>
e0004f7a:	2630                	fld	fa2,72(a2)
e0004f7c:	c696                	sw	t0,76(sp)
e0004f7e:	4e46                	lw	t3,80(sp)
e0004f80:	d4b4                	sw	a3,104(s1)
e0004f82:	1662                	slli	a2,a2,0x38
e0004f84:	0000                	unimp
e0004f86:	3450                	fld	fa2,168(s0)
e0004f88:	7205                	lui	tp,0xfffe1
e0004f8a:	1566                	slli	a0,a0,0x39
e0004f8c:	55b2                	lw	a1,44(sp)
e0004f8e:	d642                	sw	a6,44(sp)
e0004f90:	0000                	unimp
e0004f92:	03a0                	addi	s0,sp,456
e0004f94:	82330257          	0x82330257
e0004f98:	830203a7          	0x830203a7
e0004f9c:	0000                	unimp
e0004f9e:	46f0                	lw	a2,76(a3)
e0004fa0:	46e6                	lw	a3,88(sp)
e0004fa2:	03b7eb27          	0x3b7eb27
e0004fa6:	1772                	slli	a4,a4,0x3c
e0004fa8:	0000                	unimp
e0004faa:	8320                	0x8320
e0004fac:	44d78323          	sb	a3,1094(a5) # 14446 <_stack_len+0xc446>
e0004fb0:	8302                	jr	t1
e0004fb2:	00000257          	pv.add.h	tp,zero,zero
e0004fb6:	03a0                	addi	s0,sp,456
e0004fb8:	9616                	add	a2,a2,t0
e0004fba:	1b26                	slli	s6,s6,0x29
e0004fbc:	6494                	flw	fa3,8(s1)
e0004fbe:	62d4                	flw	fa3,4(a3)
e0004fc0:	0000                	unimp
e0004fc2:	4000                	lw	s0,0(s0)
e0004fc4:	15f6                	slli	a1,a1,0x3d
e0004fc6:	1ff6                	slli	t6,t6,0x3d
e0004fc8:	66964203          	lbu	tp,1641(a2) # cc733591 <tohost+0xcc713589>
e0004fcc:	0000                	unimp
e0004fce:	a6c0                	fsd	fs0,136(a3)
e0004fd0:	f646                	fsw	fa7,44(sp)
e0004fd2:	7005                	0x7005
e0004fd4:	16f6c5f7          	0x16f6c5f7
e0004fd8:	0000                	unimp
e0004fda:	3650                	fld	fa2,168(a2)
e0004fdc:	5612                	lw	a2,36(sp)
e0004fde:	6dc6                	flw	fs11,80(sp)
e0004fe0:	1746                	slli	a4,a4,0x31
e0004fe2:	6286                	flw	ft5,64(sp)
e0004fe4:	0000                	unimp
e0004fe6:	1640                	addi	s0,sp,804
e0004fe8:	3c7645f7          	0x3c7645f7
e0004fec:	f202                	fsw	ft0,36(sp)
e0004fee:	4756                	lw	a4,84(sp)
e0004ff0:	0000                	unimp
e0004ff2:	c730                	sw	a2,72(a4)
e0004ff4:	b7574657          	0xb7574657
e0004ff8:	22029617          	auipc	a2,0x22029
e0004ffc:	0000                	unimp
e0004ffe:	4610                	lw	a2,8(a2)
e0005000:	0642                	slli	a2,a2,0x10
e0005002:	18a0                	addi	s0,sp,120
e0005004:	520736e7          	0x520736e7
e0005008:	0000                	unimp
e000500a:	2750                	fld	fa2,136(a4)
e000500c:	1662                	slli	a2,a2,0x38
e000500e:	5b26                	lw	s6,104(sp)
e0005010:	3454                	fld	fa3,168(s0)
e0005012:	d4b4                	sw	a3,104(s1)
e0005014:	0000                	unimp
e0005016:	8430                	0x8430
e0005018:	1b26e697          	auipc	a3,0x1b26e
e000501c:	03a6                	slli	t2,t2,0x9
e000501e:	5282                	lw	t0,32(sp)
e0005020:	0000                	unimp
e0005022:	c690                	sw	a2,8(a3)
e0005024:	f292                	fsw	ft4,100(sp)
e0005026:	4dc6                	lw	s11,80(sp)
e0005028:	a20745f3          	0xa20745f3
e000502c:	0000                	unimp
e000502e:	8740                	0x8740
e0005030:	ec72e617          	auipc	a2,0xec72e
e0005034:	461645f7          	0x461645f7
e0005038:	0000                	unimp
e000503a:	4750                	lw	a2,12(a4)
e000503c:	56f6                	lw	a3,124(sp)
e000503e:	3386                	fld	ft7,96(sp)
e0005040:	1746                	slli	a4,a4,0x31
e0005042:	4206                	lw	tp,64(sp)
e0005044:	0000                	unimp
e0005046:	1640                	addi	s0,sp,804
e0005048:	16d2                	slli	a3,a3,0x34
e000504a:	7916                	flw	fs2,100(sp)
e000504c:	f6e2                	fsw	fs8,108(sp)
e000504e:	0746                	slli	a4,a4,0x11
e0005050:	0000                	unimp
e0005052:	0730                	addi	a2,sp,904
e0005054:	3654                	fld	fa3,168(a2)
e0005056:	06867387          	0x6867387
e000505a:	16b2                	slli	a3,a3,0x2c
e000505c:	0000                	unimp
e000505e:	3740                	fld	fs0,168(a4)
e0005060:	16c5                	addi	a3,a3,-15
e0005062:	2ff6                	fld	ft11,344(sp)
e0005064:	5646                	lw	a2,112(sp)
e0005066:	0736                	slli	a4,a4,0xd
e0005068:	0000                	unimp
e000506a:	f4d0                	fsw	fa2,44(s1)
e000506c:	fe42e007          	0xfe42e007
e0005070:	5546                	lw	a0,112(sp)
e0005072:	4786                	lw	a5,64(sp)
e0005074:	0000                	unimp
e0005076:	e690                	fsw	fa2,8(a3)
e0005078:	9766                	add	a4,a4,s9
e000507a:	c8a6                	sw	s1,80(sp)
e000507c:	5642f777          	0x5642f777
e0005080:	0000                	unimp
e0005082:	32f0                	fld	fa2,224(a3)
e0005084:	42f6                	lw	t0,92(sp)
e0005086:	c2f69237          	lui	tp,0xc2f69
e000508a:	2696                	fld	fa3,320(sp)
e000508c:	0000                	unimp
e000508e:	5630                	lw	a2,104(a2)
e0005090:	12f6                	slli	t0,t0,0x3d
e0005092:	a236                	fsd	fa3,256(sp)
e0005094:	76e69747          	0x76e69747
e0005098:	0000                	unimp
e000509a:	3650                	fld	fa2,168(a2)
e000509c:	0dc75747          	fmsub.ah	a4,a4,t3,ra
e00050a0:	365745f7          	0x365745f7
e00050a4:	0000                	unimp
e00050a6:	3650                	fld	fa2,168(a2)
e00050a8:	4006                	0x4006
e00050aa:	0004                	addi	s1,sp,0
e00050ac:	36c6                	fld	fa3,112(sp)
e00050ae:	000082e7          	jalr	t0,ra
e00050b2:	9740                	0x9740
e00050b4:	a6c6                	fsd	fa7,328(sp)
e00050b6:	62d4db23          	0x62d4db23
e00050ba:	9616                	add	a2,a2,t0
e00050bc:	0000                	unimp
e00050be:	6490                	flw	fa2,8(s1)
e00050c0:	3656                	fld	fa2,368(sp)
e00050c2:	6696ec77          	0x6696ec77
e00050c6:	15f6                	slli	a1,a1,0x3d
e00050c8:	0000                	unimp
e00050ca:	4200                	lw	s0,0(a2)
e00050cc:	9dc61747          	fmsub.h	a4,a2,t3,s3,rtz
e00050d0:	4656                	lw	a2,84(sp)
e00050d2:	000035f7          	0x35f7
e00050d6:	75f0                	flw	fa2,108(a1)
e00050d8:	c736                	sw	a3,140(sp)
e00050da:	81b2                	mv	gp,a2
e00050dc:	56128737          	lui	a4,0x56128
e00050e0:	0000                	unimp
e00050e2:	5740                	lw	s0,44(a4)
e00050e4:	6202                	flw	ft4,0(sp)
e00050e6:	fff2                	fsw	ft8,252(sp)
e00050e8:	16c6                	slli	a3,a3,0x31
e00050ea:	c676                	sw	t4,12(sp)
e00050ec:	0000                	unimp
e00050ee:	6200                	flw	fs0,0(a2)
e00050f0:	31b20297          	auipc	t0,0x31b20
e00050f4:	37574617          	auipc	a2,0x37574
e00050f8:	0000                	unimp
e00050fa:	4730                	lw	a2,72(a4)
e00050fc:	0736                	slli	a4,a4,0xd
e00050fe:	5002                	0x5002
e0005100:	5746                	lw	a4,112(sp)
e0005102:	0000e727          	0xe727
e0005106:	5720                	lw	s0,104(a4)
e0005108:	0000                	unimp
e000510a:	4c70                	lw	a2,92(s0)
e000510c:	0006                	0x6
e000510e:	0000                	unimp
e0005110:	0000                	unimp
e0005112:	4250                	lw	a2,4(a2)
e0005114:	0000                	unimp
e0005116:	e4d0                	fsw	fa2,12(s1)
e0005118:	0002                	0x2
e000511a:	0000002f          	0x2f
e000511e:	e500                	fsw	fs0,8(a0)
e0005120:	0000                	unimp
e0005122:	4910                	lw	a2,16(a0)
e0005124:	0002                	0x2
e0005126:	0000022f          	0x22f
e000512a:	e500                	fsw	fs0,8(a0)
e000512c:	0002                	0x2
e000512e:	0000c6ef          	jal	a3,e001112e <fromhost+0x111e>
e0005132:	e8d0                	fsw	fa2,20(s1)
e0005134:	0000                	unimp
e0005136:	0010                	addi	a2,sp,0
e0005138:	0002                	0x2
e000513a:	00004e4f          	fnmadd.s	ft8,ft0,ft0,ft0,rmm
e000513e:	e500                	fsw	fs0,8(a0)
e0005140:	0000                	unimp
e0005142:	0020                	addi	s0,sp,8
e0005144:	0000                	unimp
e0005146:	61b0                	flw	fa2,64(a1)
e0005148:	0000                	unimp
e000514a:	0010                	addi	a2,sp,0
e000514c:	0000                	unimp
e000514e:	0230                	addi	a2,sp,264
e0005150:	6a910eb3          	0x6a910eb3
e0005154:	0002                	0x2
e0005156:	0000d60f          	0xd60f
e000515a:	ee80                	fsw	fs0,24(a3)
e000515c:	ba9f0ae7          	jalr	s5,-1111(t5)
e0005160:	e71c                	fsw	fa5,8(a4)
e0005162:	000032bb          	0x32bb
e0005166:	a150                	fsd	fa2,128(a0)
e0005168:	46e072c3          	0x46e072c3
e000516c:	51f81777          	0x51f81777
e0005170:	0000                	unimp
e0005172:	d850                	sw	a2,52(s0)
e0005174:	3109                	jal	e0004d76 <FLASH_AES_SMOKETEST_SIGNED+0x47e6>
e0005176:	ea9a                	fsw	ft6,84(sp)
e0005178:	7086                	flw	ft1,96(sp)
e000517a:	82dd                	srli	a3,a3,0x17
e000517c:	0000                	unimp
e000517e:	13b0                	addi	a2,sp,488
e0005180:	f2f1                	bnez	a3,e0005144 <FLASH_AES_SMOKETEST_SIGNED+0x4bb4>
e0005182:	4df148a3          	0x4df148a3
e0005186:	f0ff                	0xf0ff
e0005188:	0000                	unimp
e000518a:	4090                	lw	a2,0(s1)
e000518c:	faf9                	bnez	a3,e0005162 <FLASH_AES_SMOKETEST_SIGNED+0x4bd2>
e000518e:	f6f5bdcb          	0xf6f5bdcb
e0005192:	0000f8f7          	0xf8f7
e0005196:	f4f0                	fsw	fa2,108(s1)
e0005198:	a2a1                	j	e00052e0 <FLASH_AES_SMOKETEST_SIGNED+0x4d50>
e000519a:	fefd1dc3          	0xfefd1dc3
e000519e:	0000a0af          	amoadd.w	ra,zero,(ra)
e00051a2:	fcf0                	fsw	fa2,124(s1)
e00051a4:	aaa9                	j	e00052fe <FLASH_AES_SMOKETEST_SIGNED+0x4d6e>
e00051a6:	a6a56a9b          	0xa6a56a9b
e00051aa:	0000a8a7          	fsw	ft0,17(ra) # ffff1011 <pulp__FC+0xffff1012>
e00051ae:	a4a0                	fsd	fs0,72(s1)
e00051b0:	0000                	unimp
e00051b2:	0230                	addi	a2,sp,264
e00051b4:	aead                	j	e000552e <FLASH_AES_SMOKETEST_SIGNED+0x4f9e>
e00051b6:	001f 0000 aca0      	0xaca00000001f
e00051bc:	0000                	unimp
e00051be:	28a0                	fld	fs0,80(s1)
e00051c0:	0000                	unimp
e00051c2:	0040                	addi	s0,sp,4
e00051c4:	0000                	unimp
e00051c6:	0010                	addi	a2,sp,0
	...
e00051d4:	0000                	unimp
e00051d6:	0230                	addi	a2,sp,264
e00051d8:	0000                	unimp
e00051da:	0000                	unimp
e00051dc:	0000                	unimp
e00051de:	0010                	addi	a2,sp,0
e00051e0:	0002                	0x2
e00051e2:	00004e4f          	fnmadd.s	ft8,ft0,ft0,ft0,rmm
e00051e6:	e500                	fsw	fs0,8(a0)
e00051e8:	0000                	unimp
e00051ea:	0020                	addi	s0,sp,8
e00051ec:	0000                	unimp
e00051ee:	a750                	fsd	fa2,136(a4)
e00051f0:	0000                	unimp
e00051f2:	0010                	addi	a2,sp,0
e00051f4:	0000                	unimp
e00051f6:	03c0                	addi	s0,sp,452
e00051f8:	2bec                	fld	fa1,208(a5)
e00051fa:	8ffe                	mv	t6,t6
e00051fc:	0002                	0x2
e00051fe:	000016bf 17e3f110 	0x17e3f110000016bf
e0005206:	5751                	li	a4,-12
e0005208:	69f4                	flw	fa3,84(a1)
e000520a:	de99                	beqz	a3,e0005128 <FLASH_AES_SMOKETEST_SIGNED+0x4b98>
e000520c:	0000                	unimp
e000520e:	02e0                	addi	s0,sp,332
e0005210:	78a2                	flw	fa7,40(sp)
e0005212:	a235                	j	e000533e <FLASH_AES_SMOKETEST_SIGNED+0x4dae>
e0005214:	a179                	j	e00056a2 <FLASH_AES_SMOKETEST_SIGNED+0x5112>
e0005216:	dae2                	sw	s8,116(sp)
e0005218:	0000                	unimp
e000521a:	3730                	fld	fa2,104(a4)
e000521c:	b00ac6fb          	lp.setup	x13,s5,e000481c <FLASH_AES_SMOKETEST_SIGNED+0x428c>
e0005220:	cac0                	sw	s0,20(a3)
e0005222:	79e9                	lui	s3,0xffffa
e0005224:	0000                	unimp
e0005226:	31e0                	fld	fs0,224(a1)
e0005228:	61cc                	flw	fa1,4(a1)
e000522a:	84d4                	0x84d4
e000522c:	18ea                	slli	a7,a7,0x3a
e000522e:	8305                	srli	a4,a4,0x1
e0005230:	0000                	unimp
e0005232:	f450                	fsw	fa2,44(s0)
e0005234:	9c1f 2231 1e45      	0x1e4522319c1f
e000523a:	be51                	j	e0004dce <FLASH_AES_SMOKETEST_SIGNED+0x483e>
e000523c:	0000                	unimp
e000523e:	ca30                	sw	a2,80(a2)
e0005240:	5249                	li	tp,-14
e0005242:	cb24                	sw	s1,80(a4)
e0005244:	f520                	fsw	fs0,104(a0)
e0005246:	ff6e                	fsw	fs11,188(sp)
e0005248:	0000                	unimp
e000524a:	a1a0                	fsd	fs0,64(a1)
e000524c:	b412                	fsd	ft4,40(sp)
e000524e:	79b4d237          	lui	tp,0x79b4d
e0005252:	bad1                	j	e0004c26 <FLASH_AES_SMOKETEST_SIGNED+0x4696>
e0005254:	0000                	unimp
e0005256:	fdf0                	fsw	fa2,124(a1)
e0005258:	0000                	unimp
e000525a:	ce40                	sw	s0,28(a2)
e000525c:	0376                	slli	t1,t1,0x1d
e000525e:	0021                	c.addi	zero,8
e0005260:	0000                	unimp
e0005262:	ce60                	sw	s0,92(a2)
e0005264:	0000                	unimp
e0005266:	6c70                	flw	fa2,92(s0)
e0005268:	0002                	0x2
e000526a:	0000043f 0002e500 	0x2e5000000043f
e0005272:	00004b2f          	0x4b2f
e0005276:	f540                	fsw	fs0,44(a0)
e0005278:	0000                	unimp
e000527a:	0020                	addi	s0,sp,8
e000527c:	0002                	0x2
e000527e:	00004e4f          	fnmadd.s	ft8,ft0,ft0,ft0,rmm
e0005282:	e500                	fsw	fs0,8(a0)
e0005284:	0000                	unimp
e0005286:	0020                	addi	s0,sp,8
e0005288:	0000                	unimp
e000528a:	a8a0                	fsd	fs0,80(s1)
e000528c:	0000                	unimp
e000528e:	0010                	addi	a2,sp,0
e0005290:	0000                	unimp
e0005292:	0440                	addi	s0,sp,516
e0005294:	0000                	unimp
e0005296:	2dc0                	fld	fs0,152(a1)
e0005298:	0002                	0x2
e000529a:	0000002f          	0x2f
e000529e:	fd70                	fsw	fa2,124(a0)
e00052a0:	0000                	unimp
e00052a2:	a750                	fsd	fa2,136(a4)
e00052a4:	0002                	0x2
e00052a6:	049f 0000 e500      	0xe5000000049f
e00052ac:	a56f0003          	lb	zero,-1450(t5)
e00052b0:	0000                	unimp
e00052b2:	0130                	addi	a2,sp,136
e00052b4:	0000                	unimp
e00052b6:	0020                	addi	s0,sp,8
e00052b8:	0002                	0x2
e00052ba:	00004e4f          	fnmadd.s	ft8,ft0,ft0,ft0,rmm
e00052be:	e500                	fsw	fs0,8(a0)
e00052c0:	0000                	unimp
e00052c2:	0020                	addi	s0,sp,8
e00052c4:	0000                	unimp
e00052c6:	e4d0                	fsw	fa2,12(s1)
e00052c8:	0000                	unimp
e00052ca:	0010                	addi	a2,sp,0
e00052cc:	0000                	unimp
e00052ce:	04b0                	addi	a2,sp,584
e00052d0:	0000                	unimp
e00052d2:	e380                	fsw	fs0,0(a5)
e00052d4:	002f0003          	lb	zero,2(t5)
e00052d8:	0000                	unimp
e00052da:	0970                	addi	a2,sp,156
e00052dc:	0000                	unimp
e00052de:	8230                	0x8230
e00052e0:	0002                	0x2
e00052e2:	000004ef          	jal	s1,e00052e2 <FLASH_AES_SMOKETEST_SIGNED+0x4d52>
e00052e6:	e500                	fsw	fs0,8(a0)
e00052e8:	41bf0003          	lb	zero,1051(t5)
e00052ec:	0000                	unimp
e00052ee:	0d10                	addi	a2,sp,656
e00052f0:	0000                	unimp
e00052f2:	0010                	addi	a2,sp,0
e00052f4:	ca0d                	beqz	a2,e0005326 <FLASH_AES_SMOKETEST_SIGNED+0x4d96>
e00052f6:	dd1ede43          	fmadd.ah	t3,t4,a7,s11
e00052fa:	00002b5b          	p.addn	s6,zero,zero,0
e00052fe:	ef30                	fsw	fa2,88(a4)
e0005300:	0e4f881b          	0xe4f881b
e0005304:	e5a4                	fsw	fs1,72(a1)
e0005306:	000013d7          	pv.add.b	t2,zero,zero
e000530a:	b060                	fsd	fs0,224(s0)
e000530c:	6ed1                	lui	t4,0x14
e000530e:	4ff2                	lw	t6,28(sp)
e0005310:	0cb1                	addi	s9,s9,12
e0005312:	0d41                	addi	s10,s10,16
e0005314:	0000                	unimp
e0005316:	c590                	sw	a2,8(a1)
e0005318:	31b70283          	lb	t0,795(a4) # 5612831b <tohost+0x56108313>
e000531c:	aa75                	j	e00054d8 <FLASH_AES_SMOKETEST_SIGNED+0x4f48>
e000531e:	6314                	flw	fa3,0(a4)
e0005320:	0000                	unimp
e0005322:	bdc0                	fsd	fs0,184(a1)
e0005324:	9f4a                	add	t5,t5,s2
e0005326:	da9f 921e 69cb      	0x69cb921eda9f
e000532c:	0000                	unimp
e000532e:	db60                	sw	s0,116(a4)
e0005330:	deda                	sw	s6,124(sp)
e0005332:	5231                	li	tp,-20
e0005334:	1e75                	addi	t3,t3,-3
e0005336:	0000fbeb          	0xfbeb
e000533a:	3f10                	fld	fa2,56(a4)
e000533c:	b91fff3f 9397a4b3 	0x9397a4b3b91fff3f
e0005344:	0000                	unimp
e0005346:	0230                	addi	a2,sp,264
e0005348:	7ec2                	flw	ft9,48(sp)
e000534a:	491c                	lw	a5,16(a0)
e000534c:	49e8f8d7          	pv.sra.sci.b	a7,a7,12
e0005350:	0000                	unimp
e0005352:	d060                	sw	s0,100(s0)
e0005354:	0002                	0x2
e0005356:	00004e4f          	fnmadd.s	ft8,ft0,ft0,ft0,rmm
e000535a:	e500                	fsw	fs0,8(a0)
e000535c:	0000                	unimp
e000535e:	0020                	addi	s0,sp,8
e0005360:	0000                	unimp
e0005362:	c910                	sw	a2,16(a0)
e0005364:	0000                	unimp
e0005366:	0000                	unimp
e0005368:	0000                	unimp
e000536a:	0510                	addi	a2,sp,640
e000536c:	0000                	unimp
e000536e:	e6e0                	fsw	fs0,76(a3)
e0005370:	002f0003          	lb	zero,2(t5)
e0005374:	0000                	unimp
e0005376:	0f80                	addi	s0,sp,976
e0005378:	0000                	unimp
e000537a:	ee40                	fsw	fs0,28(a2)
e000537c:	0002                	0x2
e000537e:	051f 0000 e500      	0xe5000000051f
e0005384:	cb2f0003          	lb	zero,-846(t5)
e0005388:	0000                	unimp
e000538a:	1460                	addi	s0,sp,556
e000538c:	0000                	unimp
e000538e:	0030                	addi	a2,sp,8
e0005390:	0002                	0x2
e0005392:	00004e4f          	fnmadd.s	ft8,ft0,ft0,ft0,rmm
e0005396:	e500                	fsw	fs0,8(a0)
e0005398:	0000                	unimp
e000539a:	0020                	addi	s0,sp,8
e000539c:	0000                	unimp
e000539e:	2000                	fld	fs0,0(s0)
e00053a0:	0000                	unimp
e00053a2:	0010                	addi	a2,sp,0
e00053a4:	0000                	unimp
e00053a6:	0550                	addi	a2,sp,644
e00053a8:	0000                	unimp
e00053aa:	e380                	fsw	fs0,0(a5)
e00053ac:	0002                	0x2
e00053ae:	0000002f          	0x2f
e00053b2:	f110                	fsw	fa2,32(a0)
e00053b4:	0000                	unimp
e00053b6:	2a90                	fld	fa2,16(a3)
e00053b8:	0002                	0x2
e00053ba:	0000058f          	0x58f
e00053be:	e500                	fsw	fs0,8(a0)
e00053c0:	0002                	0x2
e00053c2:	00004b2f          	0x4b2f
e00053c6:	f540                	fsw	fs0,44(a0)
e00053c8:	0000                	unimp
e00053ca:	0020                	addi	s0,sp,8
e00053cc:	0002                	0x2
e00053ce:	00004e4f          	fnmadd.s	ft8,ft0,ft0,ft0,rmm
e00053d2:	e500                	fsw	fs0,8(a0)
e00053d4:	0000                	unimp
e00053d6:	0020                	addi	s0,sp,8
e00053d8:	0000                	unimp
e00053da:	6910                	flw	fa2,16(a0)
e00053dc:	0000                	unimp
e00053de:	0010                	addi	a2,sp,0
e00053e0:	0000                	unimp
e00053e2:	0590                	addi	a2,sp,704
e00053e4:	0000                	unimp
e00053e6:	61b0                	flw	fa2,64(a1)
e00053e8:	002f0003          	lb	zero,2(t5)
e00053ec:	0000                	unimp
e00053ee:	1710                	addi	a2,sp,928
e00053f0:	0000                	unimp
e00053f2:	0000                	unimp
e00053f4:	0002                	0x2
e00053f6:	000005cf          	fnmadd.s	fa1,ft0,ft0,ft0,rne
e00053fa:	e500                	fsw	fs0,8(a0)
e00053fc:	a56f0003          	lb	zero,-1450(t5)
e0005400:	0000                	unimp
e0005402:	0130                	addi	a2,sp,136
e0005404:	0000                	unimp
e0005406:	0020                	addi	s0,sp,8
e0005408:	0002                	0x2
e000540a:	00004e4f          	fnmadd.s	ft8,ft0,ft0,ft0,rmm
e000540e:	e500                	fsw	fs0,8(a0)
e0005410:	0000                	unimp
e0005412:	0020                	addi	s0,sp,8
e0005414:	0000                	unimp
e0005416:	ec70                	fsw	fa2,92(s0)
e0005418:	0000                	unimp
e000541a:	0010                	addi	a2,sp,0
e000541c:	0000                	unimp
e000541e:	05d0                	addi	a2,sp,708
e0005420:	0000                	unimp
e0005422:	e380                	fsw	fs0,0(a5)
e0005424:	002f0003          	lb	zero,2(t5)
e0005428:	0000                	unimp
e000542a:	0970                	addi	a2,sp,156
e000542c:	0000                	unimp
e000542e:	ce40                	sw	s0,28(a2)
e0005430:	0002                	0x2
e0005432:	0000060f          	0x60f
e0005436:	e500                	fsw	fs0,8(a0)
e0005438:	41bf0003          	lb	zero,1051(t5)
e000543c:	0000                	unimp
e000543e:	0d10                	addi	a2,sp,656
e0005440:	0000                	unimp
e0005442:	0010                	addi	a2,sp,0
e0005444:	0002                	0x2
e0005446:	00004e4f          	fnmadd.s	ft8,ft0,ft0,ft0,rmm
e000544a:	e500                	fsw	fs0,8(a0)
e000544c:	0000                	unimp
e000544e:	0020                	addi	s0,sp,8
e0005450:	0000                	unimp
e0005452:	4c70                	lw	a2,92(s0)
e0005454:	0000                	unimp
e0005456:	0000                	unimp
e0005458:	0000                	unimp
e000545a:	0630                	addi	a2,sp,776
e000545c:	0000                	unimp
e000545e:	6910                	flw	fa2,16(a0)
e0005460:	002f0003          	lb	zero,2(t5)
e0005464:	0000                	unimp
e0005466:	1a80                	addi	s0,sp,368
e0005468:	0000                	unimp
e000546a:	c1b0                	sw	a2,64(a1)
e000546c:	0002                	0x2
e000546e:	0000063f 0003e500 	0x3e5000000063f
e0005476:	0000cb2f          	0xcb2f
e000547a:	1460                	addi	s0,sp,556
e000547c:	0000                	unimp
e000547e:	0030                	addi	a2,sp,8
e0005480:	c6ef0003          	lb	zero,-914(t5)
e0005484:	0000                	unimp
e0005486:	1ef0                	addi	a2,sp,892
e0005488:	0000                	unimp
e000548a:	0020                	addi	s0,sp,8
e000548c:	0000                	unimp
e000548e:	6380                	flw	fs0,0(a5)
e0005490:	0000                	unimp
e0005492:	0010                	addi	a2,sp,0
e0005494:	0000                	unimp
e0005496:	0140                	addi	s0,sp,132
e0005498:	0001                	nop
e000549a:	0003800f          	0x3800f
e000549e:	000034cf          	fnmadd.s	fs1,ft0,ft0,ft0,rup
e00054a2:	2170                	fld	fa2,192(a0)
e00054a4:	0001                	nop
e00054a6:	175f 0001 362f      	0x362f0001175f
e00054ac:	0000                	unimp
e00054ae:	3580                	fld	fs0,40(a1)
e00054b0:	0001                	nop
e00054b2:	0001db2f          	0x1db2f
e00054b6:	0000376f          	jal	a4,e00084b6 <_bss_end+0x1a5a>
e00054ba:	36c0                	fld	fs0,168(a3)
e00054bc:	0001                	nop
e00054be:	9a9f 0001 38af      	0x38af00019a9f
e00054c4:	0000                	unimp
e00054c6:	3800                	fld	fs0,48(s0)
e00054c8:	29163697          	auipc	a3,0x29163
e00054cc:	665642f7          	0x665642f7
e00054d0:	0000                	unimp
e00054d2:	7730                	flw	fa2,104(a4)
e00054d4:	5742                	lw	a4,48(sp)
e00054d6:	84d6                	mv	s1,s5
e00054d8:	96c2                	add	a3,a3,a6
e00054da:	f626                	fsw	fs1,44(sp)
e00054dc:	0000                	unimp
e00054de:	f650                	fsw	fa2,44(a2)
e00054e0:	5742                	lw	a4,48(sp)
e00054e2:	7236                	flw	ft4,108(sp)
e00054e4:	f676e697          	auipc	a3,0xf676e
e00054e8:	0000                	unimp
e00054ea:	4730                	lw	a2,72(a4)
e00054ec:	56d6                	lw	a3,116(sp)
e00054ee:	c8a6                	sw	s1,80(sp)
e00054f0:	172665f7          	0x172665f7
e00054f4:	0000                	unimp
e00054f6:	4730                	lw	a2,72(a4)
e00054f8:	4746                	lw	a4,80(sp)
e00054fa:	b7264917          	auipc	s2,0xb7264
e00054fe:	f2f6                	fsw	ft9,100(sp)
e0005500:	0000                	unimp
e0005502:	f770                	fsw	fa2,108(a4)
e0005504:	32e6                	fld	ft5,120(sp)
e0005506:	1b26                	slli	s6,s6,0x29
e0005508:	16d5                	addi	a3,a3,-11
e000550a:	e696                	fsw	ft5,76(sp)
e000550c:	0000                	unimp
e000550e:	f660                	fsw	fs0,108(a2)
e0005510:	5632                	lw	a2,44(sp)
e0005512:	45441dc7          	fmsub.h	s11,s0,s4,s0,rtz
e0005516:	0465                	addi	s0,s0,25
e0005518:	0000                	unimp
e000551a:	f000                	fsw	fs0,32(s0)
e000551c:	0796                	slli	a5,a5,0x5
e000551e:	3912                	fld	fs2,288(sp)
e0005520:	c746e657          	0xc746e657
e0005524:	0000                	unimp
e0005526:	2720                	fld	fs0,72(a4)
e0005528:	31b70757          	pv.max.h	a4,a4,s11
e000552c:	96c6                	add	a3,a3,a7
e000552e:	00003207          	fld	ft4,0(zero) # 0 <_min_stack-0x2000>
e0005532:	e6f0                	fsw	fa2,76(a3)
e0005534:	3752                	fld	fa4,304(sp)
e0005536:	4726cc77          	0x4726cc77
e000553a:	00000737          	lui	a4,0x0
e000553e:	f700                	fsw	fs0,40(a4)
e0005540:	3616                	fld	fa2,352(sp)
e0005542:	e756                	fsw	fs5,140(sp)
e0005544:	66f2                	flw	fa3,28(sp)
e0005546:	d206                	sw	ra,36(sp)
e0005548:	0000                	unimp
e000554a:	0650                	addi	a2,sp,772
e000554c:	46f6                	lw	a3,92(sp)
e000554e:	91b6                	add	gp,gp,a3
e0005550:	56e6                	lw	a3,120(sp)
e0005552:	d2d6                	sw	s5,100(sp)
e0005554:	0000                	unimp
e0005556:	9680                	0x9680
e0005558:	06c6                	slli	a3,a3,0x11
e000555a:	b4d2                	fsd	fs4,104(sp)
e000555c:	3652                	fld	fa2,304(sp)
e000555e:	c616                	sw	t0,12(sp)
e0005560:	0000                	unimp
e0005562:	0650                	addi	a2,sp,772
e0005564:	6a965657          	0x6a965657
e0005568:	0726                	slli	a4,a4,0x9
e000556a:	2462                	fld	fs0,24(sp)
e000556c:	0000                	unimp
e000556e:	f660                	fsw	fs0,108(a2)
e0005570:	e6f6                	fsw	ft9,76(sp)
e0005572:	ea96                	fsw	ft5,84(sp)
e0005574:	34f5                	jal	e0005060 <FLASH_AES_SMOKETEST_SIGNED+0x4ad0>
e0005576:	3205                	jal	e0004e96 <FLASH_AES_SMOKETEST_SIGNED+0x4906>
e0005578:	0000                	unimp
e000557a:	4520                	lw	s0,72(a0)
e000557c:	b6e69777          	0xb6e69777
e0005580:	4786                	lw	a5,64(sp)
e0005582:	00003207          	fld	ft4,0(zero) # 0 <_min_stack-0x2000>
e0005586:	5740                	lw	s0,44(a4)
e0005588:	02e6                	slli	t0,t0,0x19
e000558a:	e1b0                	fsw	fa2,64(a1)
e000558c:	9686                	add	a3,a3,ra
e000558e:	76e6                	flw	fa3,120(sp)
e0005590:	0000                	unimp
e0005592:	3740                	fld	fs0,168(a4)
e0005594:	0676                	slli	a2,a2,0x1d
e0005596:	d002                	sw	zero,32(sp)
e0005598:	e696e6e7          	0xe696e6e7
e000559c:	0000                	unimp
e000559e:	5520                	lw	s0,104(a0)
e00055a0:	62d4                	flw	fa3,4(a3)
e00055a2:	4916                	lw	s2,68(sp)
e00055a4:	64944007          	0x64944007
e00055a8:	0000                	unimp
e00055aa:	3250                	fld	fa2,160(a2)
e00055ac:	6696                	flw	fa3,68(sp)
e00055ae:	3756                	fld	fa4,368(sp)
e00055b0:	a6c6                	fsd	fa7,328(sp)
e00055b2:	00004203          	lbu	tp,0(zero) # 0 <_min_stack-0x2000>
e00055b6:	9610                	0x9610
e00055b8:	5726                	lw	a4,104(sp)
e00055ba:	ac76                	fsd	ft9,24(sp)
e00055bc:	f635f767          	0xf635f767
e00055c0:	0000                	unimp
e00055c2:	25f0                	fld	fa2,200(a1)
e00055c4:	e695                	bnez	a3,e00055f0 <FLASH_AES_SMOKETEST_SIGNED+0x5060>
e00055c6:	e756                	fsw	fs5,140(sp)
e00055c8:	5626                	lw	a2,104(sp)
e00055ca:	f786                	fsw	ft1,236(sp)
e00055cc:	0000                	unimp
e00055ce:	95f0                	0x95f0
e00055d0:	f696                	fsw	ft5,108(sp)
e00055d2:	0916                	slli	s2,s2,0x5
e00055d4:	d6d20287          	0xd6d20287
e00055d8:	0000                	unimp
e00055da:	4690                	lw	a2,8(a3)
e00055dc:	f6e6                	fsw	fs9,108(sp)
e00055de:	6005                	0x6005
e00055e0:	f6967657          	0xf6967657
e00055e4:	0000                	unimp
e00055e6:	25f0                	fld	fa2,200(a1)
e00055e8:	4646                	lw	a2,80(sp)
e00055ea:	5ff6                	lw	t6,124(sp)
e00055ec:	15f6d6f7          	0x15f6d6f7
e00055f0:	0000                	unimp
e00055f2:	2660                	fld	fs0,200(a2)
e00055f4:	1455                	addi	s0,s0,-11
e00055f6:	e004                	fsw	fs1,0(s0)
e00055f8:	f542                	fsw	fa6,168(sp)
e00055fa:	f504                	fsw	fs1,40(a0)
e00055fc:	0000                	unimp
e00055fe:	8720                	0x8720
e0005600:	25f5                	jal	e0005cec <FLASH_AES_SMOKETEST_SIGNED+0x575c>
e0005602:	e005                	bnez	s0,e0005622 <FLASH_AES_SMOKETEST_SIGNED+0x5092>
e0005604:	2474                	fld	fa3,200(s0)
e0005606:	9455                	srai	s0,s0,0x35
e0005608:	0000                	unimp
e000560a:	c520                	sw	s0,72(a0)
e000560c:	95f4                	0x95f4
e000560e:	9754                	0x9754
e0005610:	f435                	bnez	s0,e000557c <FLASH_AES_SMOKETEST_SIGNED+0x4fec>
e0005612:	5524                	lw	s1,104(a0)
e0005614:	0000                	unimp
e0005616:	f560                	fsw	fs0,108(a0)
e0005618:	f474                	fsw	fa3,108(s0)
e000561a:	e235                	bnez	a2,e000567e <FLASH_AES_SMOKETEST_SIGNED+0x50ee>
e000561c:	f584                	fsw	fs1,40(a1)
e000561e:	6435                	lui	s0,0xd
e0005620:	0000                	unimp
e0005622:	5420                	lw	s0,104(s0)
e0005624:	4444                	lw	s1,12(s0)
e0005626:	98a4                	0x98a4
e0005628:	5534                	lw	a3,104(a0)
e000562a:	15f4                	addi	a3,sp,748
e000562c:	0000                	unimp
e000562e:	1420                	addi	s0,sp,552
e0005630:	5ff5f767          	0x5ff5f767
e0005634:	02c2                	slli	t0,t0,0x10
e0005636:	2262                	fld	ft4,24(sp)
e0005638:	0000                	unimp
e000563a:	9520                	0x9520
e000563c:	5626                	lw	a2,104(sp)
e000563e:	3386                	fld	ft7,96(sp)
e0005640:	5726                	lw	a4,104(sp)
e0005642:	95f6                	add	a1,a1,t4
e0005644:	0000                	unimp
e0005646:	f630                	fsw	fa2,104(a2)
e0005648:	53872757          	0x53872757
e000564c:	2202                	fld	ft4,0(sp)
e000564e:	00004657          	pv.add.sc.h	a2,zero,zero
e0005652:	9780                	0x9780
e0005654:	5740                	lw	s0,44(a4)
e0005656:	4566                	lw	a0,88(sp)
e0005658:	06425207          	0x6425207
e000565c:	0000                	unimp
e000565e:	36e0                	fld	fs0,232(a3)
e0005660:	06e6                	slli	a3,a3,0x19
e0005662:	46e0                	lw	s0,76(a3)
e0005664:	9616d5f7          	0x9616d5f7
e0005668:	0000                	unimp
e000566a:	4730                	lw	a2,72(a4)
e000566c:	1662                	slli	a2,a2,0x38
e000566e:	5b26                	lw	s6,104(sp)
e0005670:	3454                	fld	fa3,168(s0)
e0005672:	d4b4                	sw	a3,104(s1)
e0005674:	0000                	unimp
e0005676:	8430                	0x8430
e0005678:	36c6                	fld	fa3,112(sp)
e000567a:	03a6eb27          	0x3a6eb27
e000567e:	1662                	slli	a2,a2,0x38
e0005680:	0000                	unimp
e0005682:	c690                	sw	a2,8(a3)
e0005684:	1662                	slli	a2,a2,0x38
e0005686:	5916                	lw	s2,100(sp)
e0005688:	9440                	0x9440
e000568a:	d464                	sw	s1,108(s0)
e000568c:	0000                	unimp
e000568e:	0650                	addi	a2,sp,772
e0005690:	f666                	fsw	fs9,44(sp)
e0005692:	b6e5                	j	e000527a <FLASH_AES_SMOKETEST_SIGNED+0x4cea>
e0005694:	03a6                	slli	t2,t2,0x9
e0005696:	9642                	add	a2,a2,a6
e0005698:	0000                	unimp
e000569a:	c690                	sw	a2,8(a3)
e000569c:	96e6                	add	a3,a3,s9
e000569e:	14d6                	slli	s1,s1,0x35
e00056a0:	4726                	lw	a4,72(sp)
e00056a2:	000095f7          	0x95f7
e00056a6:	1750                	addi	a2,sp,932
e00056a8:	f6f6                	fsw	ft9,108(sp)
e00056aa:	8b25                	andi	a4,a4,9
e00056ac:	d202                	sw	zero,36(sp)
e00056ae:	96d6                	add	a3,a3,s5
e00056b0:	0000                	unimp
e00056b2:	8740                	0x8740
e00056b4:	65f6                	flw	fa1,92(sp)
e00056b6:	d6e6                	sw	s9,108(sp)
e00056b8:	9676                	add	a2,a2,t4
e00056ba:	e6f6                	fsw	ft9,76(sp)
e00056bc:	0000                	unimp
e00056be:	5720                	lw	s0,104(a4)
e00056c0:	2646                	fld	fa2,80(sp)
e00056c2:	f6d661b7          	lui	gp,0xf6d66
e00056c6:	4615                	li	a2,5
e00056c8:	0000                	unimp
e00056ca:	f720                	fsw	fs0,104(a4)
e00056cc:	2414                	fld	fa3,8(s0)
e00056ce:	f565                	bnez	a0,e00056b6 <FLASH_AES_SMOKETEST_SIGNED+0x5126>
e00056d0:	04f5                	addi	s1,s1,29
e00056d2:	55f5                	li	a1,-3
e00056d4:	0000                	unimp
e00056d6:	4280                	lw	s0,0(a3)
e00056d8:	1555                	addi	a0,a0,-11
e00056da:	7a94                	flw	fa3,48(a3)
e00056dc:	5524                	lw	s1,104(a0)
e00056de:	f594                	fsw	fa3,40(a1)
e00056e0:	0000                	unimp
e00056e2:	74c0                	flw	fs0,44(s1)
e00056e4:	5534                	lw	a3,104(a0)
e00056e6:	2564                	fld	fs1,200(a0)
e00056e8:	f305                	bnez	a4,e0005608 <FLASH_AES_SMOKETEST_SIGNED+0x5078>
e00056ea:	1425                	addi	s0,s0,-23
e00056ec:	0000                	unimp
e00056ee:	4520                	lw	s0,72(a0)
e00056f0:	02c2                	slli	t0,t0,0x10
e00056f2:	2912                	fld	fs2,256(sp)
e00056f4:	4444                	lw	s1,12(s0)
e00056f6:	9524                	0x9524
e00056f8:	0000                	unimp
e00056fa:	15f0                	addi	a2,sp,748
e00056fc:	8b220293          	addi	t0,tp,-1870 # 79b4c8b2 <tohost+0x79b2c8aa>
e0005700:	07472617          	auipc	a2,0x7472
e0005704:	0000                	unimp
e0005706:	5260                	lw	s0,100(a2)
e0005708:	0736                	slli	a4,a4,0xd
e000570a:	5002                	0x5002
e000570c:	5746                	lw	a4,112(sp)
e000570e:	0000e727          	0xe727
e0005712:	5720                	lw	s0,104(a4)
e0005714:	62d4                	flw	fa3,4(a3)
e0005716:	9ff6                	add	t6,t6,t4
e0005718:	4006                	0x4006
e000571a:	6494                	flw	fa3,8(s1)
e000571c:	0000                	unimp
e000571e:	4250                	lw	a2,4(a2)
e0005720:	6696                	flw	fa3,68(sp)
e0005722:	3756                	fld	fa4,368(sp)
e0005724:	a6c6                	fsd	fa7,328(sp)
e0005726:	00004203          	lbu	tp,0(zero) # 0 <_min_stack-0x2000>
e000572a:	9610                	0x9610
e000572c:	f635                	bnez	a2,e0005698 <FLASH_AES_SMOKETEST_SIGNED+0x5108>
e000572e:	d756                	sw	s5,172(sp)
e0005730:	f7472617          	auipc	a2,0xf7472
e0005734:	0000                	unimp
e0005736:	55f0                	lw	a2,108(a1)
e0005738:	07528657          	0x7528657
e000573c:	7696                	flw	fa3,100(sp)
e000573e:	2756                	fld	fa4,336(sp)
e0005740:	0000                	unimp
e0005742:	66e0                	flw	fs0,76(a3)
e0005744:	cdc202c3          	fmadd.h	t0,tp,t3,s9,rne
e0005748:	07472617          	auipc	a2,0x7472
e000574c:	0000                	unimp
e000574e:	5260                	lw	s0,100(a2)
e0005750:	ee472617          	auipc	a2,0xee472
e0005754:	6696                	flw	fa3,68(sp)
e0005756:	55f6                	lw	a1,124(sp)
e0005758:	0000                	unimp
e000575a:	4280                	lw	s0,0(a3)
e000575c:	7696                	flw	fa3,100(sp)
e000575e:	0a96                	slli	s5,s5,0x5
e0005760:	f635                	bnez	a2,e00056cc <FLASH_AES_SMOKETEST_SIGNED+0x513c>
e0005762:	66e6                	flw	fa3,88(sp)
e0005764:	0000                	unimp
e0005766:	f740                	fsw	fs0,44(a4)
e0005768:	1622                	slli	a2,a2,0x28
e000576a:	6e46                	flw	ft8,80(sp)
e000576c:	e207b297          	auipc	t0,0xe207b
e0005770:	0000                	unimp
e0005772:	45f0                	lw	a2,76(a1)
e0005774:	d206                	sw	ra,36(sp)
e0005776:	17268ff3          	0x17268ff3
e000577a:	5746                	lw	a4,112(sp)
e000577c:	0000                	unimp
e000577e:	4750                	lw	a2,12(a4)
e0005780:	30061427          	0x30061427
e0005784:	1556                	slli	a0,a0,0x35
e0005786:	4726                	lw	a4,72(sp)
e0005788:	0000                	unimp
e000578a:	b200                	fsd	fs0,32(a2)
e000578c:	02c6                	slli	t0,t0,0x11
e000578e:	7562                	flw	fa0,56(sp)
e0005790:	1726                	slli	a4,a4,0x29
e0005792:	5746                	lw	a4,112(sp)
e0005794:	0000                	unimp
e0005796:	4750                	lw	a2,12(a4)
e0005798:	5726                	lw	a4,104(sp)
e000579a:	9386                	add	t2,t2,ra
e000579c:	b6c6                	fsd	fa7,360(sp)
e000579e:	65f6                	flw	fa1,92(sp)
e00057a0:	0000                	unimp
e00057a2:	32e0                	fld	fs0,224(a3)
e00057a4:	5e46b203          	0x5e46b203
e00057a8:	a685                	j	e0005b08 <FLASH_AES_SMOKETEST_SIGNED+0x5578>
e00057aa:	0000d207          	0xd207
e00057ae:	f710                	fsw	fa2,40(a4)
e00057b0:	5724                	lw	s1,104(a4)
e00057b2:	7ff6                	flw	ft11,124(sp)
e00057b4:	36f6                	fld	fa3,376(sp)
e00057b6:	66b6                	flw	fa3,76(sp)
e00057b8:	0000                	unimp
e00057ba:	c430                	sw	a2,72(s0)
e00057bc:	0b265687          	0xb265687
e00057c0:	2655                	jal	e0005b64 <FLASH_AES_SMOKETEST_SIGNED+0x55d4>
e00057c2:	00000697          	auipc	a3,0x0
e00057c6:	0710                	addi	a2,sp,896
e00057c8:	e202                	fsw	ft0,4(sp)
e00057ca:	a002                	fsd	ft0,0(sp)
e00057cc:	86c6                	mv	a3,a7
e00057ce:	c7a4                	sw	s1,72(a5)
e00057d0:	0000                	unimp
e00057d2:	1720                	addi	s0,sp,936
e00057d4:	24d655f7          	0x24d655f7
e00057d8:	9726                	add	a4,a4,s1
e00057da:	9746                	add	a4,a4,a7
e00057dc:	0000                	unimp
e00057de:	1700                	addi	s0,sp,928
e00057e0:	03d2                	slli	t2,t2,0x14
e00057e2:	5002                	0x5002
e00057e4:	c626                	sw	s1,12(sp)
e00057e6:	0656                	slli	a2,a2,0x15
e00057e8:	0000                	unimp
e00057ea:	16e0                	addi	s0,sp,876
e00057ec:	7676                	flw	fa2,124(sp)
e00057ee:	9566                	add	a0,a0,s9
e00057f0:	6694                	flw	fa3,8(a3)
e00057f2:	f546                	fsw	fa7,168(sp)
e00057f4:	0000                	unimp
e00057f6:	46b0                	lw	a2,72(a3)
e00057f8:	c626                	sw	s1,12(sp)
e00057fa:	0dc6                	slli	s11,s11,0x11
e00057fc:	9446                	add	s0,s0,a7
e00057fe:	1736                	slli	a4,a4,0x2d
e0005800:	0000                	unimp
e0005802:	56c0                	lw	s0,44(a3)
e0005804:	fc772617          	auipc	a2,0xfc772
e0005808:	02c6                	slli	t0,t0,0x11
e000580a:	02e2                	slli	t0,t0,0x18
e000580c:	0000                	unimp
e000580e:	4650                	lw	a2,12(a2)
e0005810:	46b2                	lw	a3,12(sp)
e0005812:	c6e4                	sw	s1,76(a3)
e0005814:	03d20797          	auipc	a5,0x3d20
e0005818:	0000                	unimp
e000581a:	4690                	lw	a2,8(a3)
e000581c:	aff61507          	0xaff61507
e0005820:	1556                	slli	a0,a0,0x35
e0005822:	4726                	lw	a4,72(sp)
e0005824:	0000                	unimp
e0005826:	6690                	flw	fa2,8(a3)
e0005828:	1916e657          	pv.avgu.sci.h	a2,a3,2
e000582c:	9746                	add	a4,a4,a7
e000582e:	00006457          	pv.add.sci.h	s0,zero,0
e0005832:	9720                	0x9720
e0005834:	e6e74657          	0xe6e74657
e0005838:	97d2                	add	a5,a5,s4
e000583a:	2202                	fld	ft4,0(sp)
e000583c:	0000                	unimp
e000583e:	02c0                	addi	s0,sp,324
e0005840:	0642                	slli	a2,a2,0x10
e0005842:	18a0                	addi	s0,sp,120
e0005844:	520736e7          	0x520736e7
e0005848:	0000                	unimp
e000584a:	2750                	fld	fa2,136(a4)
e000584c:	4656                	lw	a2,84(sp)
e000584e:	ac76                	fsd	ft9,24(sp)
e0005850:	96e6                	add	a3,a3,s9
e0005852:	8736                	mv	a4,a3
e0005854:	0000                	unimp
e0005856:	9460                	0x9460
e0005858:	0000                	unimp
e000585a:	aff0                	fsd	fa2,216(a5)
e000585c:	0732                	slli	a4,a4,0xc
e000585e:	0020                	addi	s0,sp,8
e0005860:	0000                	unimp
e0005862:	5200                	lw	s0,32(a2)
e0005864:	0000                	unimp
e0005866:	2560                	fld	fs0,200(a0)
e0005868:	03bf0003          	lb	zero,59(t5)
e000586c:	0000                	unimp
e000586e:	4d00                	lw	s0,24(a0)
e0005870:	f6ef0003          	lb	zero,-146(t5)
e0005874:	0000                	unimp
e0005876:	5010                	lw	a2,32(s0)
e0005878:	0000                	unimp
e000587a:	0000                	unimp
e000587c:	d6ef0003          	lb	zero,-658(t5)
e0005880:	0000                	unimp
e0005882:	4d00                	lw	s0,24(a0)
e0005884:	0000                	unimp
e0005886:	0000                	unimp
e0005888:	0000                	unimp
e000588a:	e1b0                	fsw	fa2,64(a1)
e000588c:	0000                	unimp
e000588e:	0010                	addi	a2,sp,0
e0005890:	0000                	unimp
e0005892:	07e0                	addi	s0,sp,972
e0005894:	0000                	unimp
e0005896:	28a0                	fld	fs0,80(s1)
e0005898:	002f0003          	lb	zero,2(t5)
e000589c:	0000                	unimp
e000589e:	5580                	lw	s0,40(a1)
e00058a0:	0000                	unimp
e00058a2:	e1b0                	fsw	fa2,64(a1)
e00058a4:	086f0003          	lb	zero,134(t5)
e00058a8:	0000                	unimp
e00058aa:	4d00                	lw	s0,24(a0)
e00058ac:	de4f0003          	lb	zero,-540(t5)
e00058b0:	0000                	unimp
e00058b2:	5630                	lw	a2,104(a2)
e00058b4:	0000                	unimp
e00058b6:	0010                	addi	a2,sp,0
e00058b8:	d1bf0003          	lb	zero,-741(t5)
e00058bc:	0000                	unimp
e00058be:	4d00                	lw	s0,24(a0)
e00058c0:	0000                	unimp
e00058c2:	0020                	addi	s0,sp,8
e00058c4:	0000                	unimp
e00058c6:	0560                	addi	s0,sp,652
e00058c8:	0000                	unimp
e00058ca:	0000                	unimp
e00058cc:	0000                	unimp
e00058ce:	0960                	addi	s0,sp,156
e00058d0:	0000                	unimp
e00058d2:	a750                	fsd	fa2,136(a4)
e00058d4:	002f0003          	lb	zero,2(t5)
e00058d8:	0000                	unimp
e00058da:	5e80                	lw	s0,56(a3)
e00058dc:	0000                	unimp
e00058de:	c4d0                	sw	a2,12(s1)
e00058e0:	053f0003          	lb	zero,83(t5)
e00058e4:	0000                	unimp
e00058e6:	4d00                	lw	s0,24(a0)
e00058e8:	9dcf0003          	lb	zero,-1572(t5)
e00058ec:	0000                	unimp
e00058ee:	5fa0                	lw	s0,120(a5)
e00058f0:	0000                	unimp
e00058f2:	0010                	addi	a2,sp,0
e00058f4:	d1bf0003          	lb	zero,-741(t5)
e00058f8:	0000                	unimp
e00058fa:	4d00                	lw	s0,24(a0)
e00058fc:	0000                	unimp
e00058fe:	0020                	addi	s0,sp,8
e0005900:	0000                	unimp
e0005902:	6c70                	flw	fa2,92(s0)
e0005904:	0000                	unimp
e0005906:	0010                	addi	a2,sp,0
e0005908:	0000                	unimp
e000590a:	05a0                	addi	s0,sp,712
e000590c:	0000                	unimp
e000590e:	cc70                	sw	a2,92(s0)
e0005910:	000f0003          	lb	zero,0(t5)
e0005914:	0000                	unimp
e0005916:	65b0                	flw	fa2,72(a1)
e0005918:	0000                	unimp
e000591a:	adc0                	fsd	fs0,152(a1)
e000591c:	064f0003          	lb	zero,100(t5)
e0005920:	0000                	unimp
e0005922:	4d00                	lw	s0,24(a0)
e0005924:	2dcf0003          	lb	zero,732(t5)
e0005928:	0000                	unimp
e000592a:	7280                	flw	fs0,32(a3)
e000592c:	0000                	unimp
e000592e:	0010                	addi	a2,sp,0
e0005930:	29163697          	auipc	a3,0x29163
e0005934:	665642f7          	0x665642f7
e0005938:	0000                	unimp
e000593a:	7730                	flw	fa2,104(a4)
e000593c:	5742                	lw	a4,48(sp)
e000593e:	84d6                	mv	s1,s5
e0005940:	96c2                	add	a3,a3,a6
e0005942:	f626                	fsw	fs1,44(sp)
e0005944:	0000                	unimp
e0005946:	f650                	fsw	fa2,44(a2)
e0005948:	5742                	lw	a4,48(sp)
e000594a:	7236                	flw	ft4,108(sp)
e000594c:	f676e697          	auipc	a3,0xf676e
e0005950:	0000                	unimp
e0005952:	4730                	lw	a2,72(a4)
e0005954:	56d6                	lw	a3,116(sp)
e0005956:	c8a6                	sw	s1,80(sp)
e0005958:	172665f7          	0x172665f7
e000595c:	0000                	unimp
e000595e:	4730                	lw	a2,72(a4)
e0005960:	5726                	lw	a4,104(sp)
e0005962:	6566                	flw	fa0,88(sp)
e0005964:	b726                	fsd	fs1,424(sp)
e0005966:	62f6                	flw	ft5,92(sp)
e0005968:	0000                	unimp
e000596a:	f770                	fsw	fa2,108(a4)
e000596c:	f685                	bnez	a3,e0005894 <FLASH_AES_SMOKETEST_SIGNED+0x5304>
e000596e:	2916                	fld	fs2,320(sp)
e0005970:	f736f747          	0xf736f747
e0005974:	0000                	unimp
e0005976:	2650                	fld	fa2,136(a2)
e0005978:	2460                	fld	fs0,200(s0)
e000597a:	e7360237          	lui	tp,0xe7360
e000597e:	0632                	slli	a2,a2,0xc
e0005980:	0000                	unimp
e0005982:	b6f0                	fsd	fa2,232(a3)
e0005984:	d205                	beqz	a2,e00058a4 <FLASH_AES_SMOKETEST_SIGNED+0x5314>
e0005986:	c6e6                	sw	s9,76(sp)
e0005988:	4526                	lw	a0,72(sp)
e000598a:	34f5                	jal	e0005476 <FLASH_AES_SMOKETEST_SIGNED+0x4ee6>
e000598c:	0000                	unimp
e000598e:	5650                	lw	a2,44(a2)
e0005990:	1662                	slli	a2,a2,0x38
e0005992:	5386                	lw	t2,96(sp)
e0005994:	f6c6                	fsw	fa7,108(sp)
e0005996:	0636                	slli	a2,a2,0xd
e0005998:	0000                	unimp
e000599a:	c610                	sw	a2,8(a2)
e000599c:	e492                	fsw	ft4,72(sp)
e000599e:	7756                	flw	fa4,116(sp)
e00059a0:	4656                	lw	a2,84(sp)
e00059a2:	02e6                	slli	t0,t0,0x19
e00059a4:	0000                	unimp
e00059a6:	c690                	sw	a2,8(a3)
e00059a8:	8206                	mv	tp,ra
e00059aa:	4dc6                	lw	s11,80(sp)
e00059ac:	57361657          	0x57361657
e00059b0:	0000                	unimp
e00059b2:	2630                	fld	fa2,72(a2)
e00059b4:	57a6                	lw	a5,104(sp)
e00059b6:	0386                	slli	t2,t2,0x1
e00059b8:	0706                	slli	a4,a4,0x1
e00059ba:	9732                	add	a4,a4,a2
e00059bc:	0000                	unimp
e00059be:	1650                	addi	a2,sp,804
e00059c0:	31b65657          	pv.max.sc.b	a2,a2,s11
e00059c4:	06e6                	slli	a3,a3,0x19
e00059c6:	2462                	fld	fs0,24(sp)
e00059c8:	0000                	unimp
e00059ca:	9200                	0x9200
e00059cc:	66e6                	flw	fa3,88(sp)
e00059ce:	1006                	0x1006
e00059d0:	34f5                	jal	e00054bc <FLASH_AES_SMOKETEST_SIGNED+0x4f2c>
e00059d2:	f435                	bnez	s0,e000593e <FLASH_AES_SMOKETEST_SIGNED+0x53ae>
e00059d4:	0000                	unimp
e00059d6:	4520                	lw	s0,72(a0)
e00059d8:	5724                	lw	s1,104(a4)
e00059da:	a386                	fsd	ft1,448(sp)
e00059dc:	82e6                	mv	t0,s9
e00059de:	6006                	flw	ft0,64(sp)
e00059e0:	0000                	unimp
e00059e2:	7690                	flw	fa2,40(a3)
e00059e4:	4732                	lw	a4,12(sp)
e00059e6:	f545f387          	0xf545f387
e00059ea:	0534                	addi	a3,sp,648
e00059ec:	0000                	unimp
e00059ee:	2650                	fld	fa2,136(a2)
e00059f0:	88a72657          	0x88a72657
e00059f4:	06b6                	slli	a3,a3,0xd
e00059f6:	66f2                	flw	fa3,28(sp)
e00059f8:	0000                	unimp
e00059fa:	3610                	fld	fa2,40(a2)
e00059fc:	e492                	fsw	ft4,72(sp)
e00059fe:	96e6                	add	a3,a3,s9
e0005a00:	76f6                	flw	fa3,124(sp)
e0005a02:	000002e7          	jalr	t0,zero
e0005a06:	c660                	sw	s0,76(a2)
e0005a08:	3206                	fld	ft4,96(sp)
e0005a0a:	1657b757          	0x1657b757
e0005a0e:	5736                	lw	a4,108(sp)
e0005a10:	0000                	unimp
e0005a12:	2630                	fld	fa2,72(a2)
e0005a14:	a387a697          	auipc	a3,0xa387a
e0005a18:	b636                	fsd	fa3,296(sp)
e0005a1a:	3206                	fld	ft4,96(sp)
e0005a1c:	0000                	unimp
e0005a1e:	1740                	addi	s0,sp,932
e0005a20:	0ff73617          	auipc	a2,0xff73
e0005a24:	66f2                	flw	fa3,28(sp)
e0005a26:	4206                	lw	tp,64(sp)
e0005a28:	0000                	unimp
e0005a2a:	0650                	addi	a2,sp,772
e0005a2c:	0000                	unimp
e0005a2e:	f1b0                	fsw	fa2,96(a1)
e0005a30:	07325203          	lhu	tp,115(tp) # e7360073 <pulp__FC+0xe7360074>
e0005a34:	0000                	unimp
e0005a36:	a6b0                	fsd	fa2,72(a3)
e0005a38:	a8af0003          	lb	zero,-1398(t5)
e0005a3c:	0000                	unimp
e0005a3e:	7c00                	flw	fs0,56(s0)
e0005a40:	0000                	unimp
e0005a42:	0000                	unimp
e0005a44:	0000                	unimp
e0005a46:	8ff0                	0x8ff0
e0005a48:	0000                	unimp
e0005a4a:	0000                	unimp
e0005a4c:	0000                	unimp
e0005a4e:	0130                	addi	a2,sp,136
e0005a50:	0000                	unimp
e0005a52:	c6e0                	sw	s0,76(a3)
e0005a54:	000f0003          	lb	zero,0(t5)
e0005a58:	0000                	unimp
e0005a5a:	7f60                	flw	fs0,124(a4)
e0005a5c:	0000                	unimp
e0005a5e:	c910                	sw	a2,16(a0)
e0005a60:	01df0003          	lb	zero,29(t5)
e0005a64:	0000                	unimp
e0005a66:	7c00                	flw	fs0,56(s0)
e0005a68:	3dcf0003          	lb	zero,988(t5)
e0005a6c:	0000                	unimp
e0005a6e:	8350                	0x8350
e0005a70:	0000                	unimp
e0005a72:	0000                	unimp
e0005a74:	0001                	nop
e0005a76:	0001e38f          	0x1e38f
e0005a7a:	00007f8f          	0x7f8f
e0005a7e:	7f20                	flw	fs0,120(a4)
e0005a80:	0001                	nop
e0005a82:	0001fb2f          	0x1fb2f
e0005a86:	0000804f          	fnmadd.s	ft0,ft1,ft0,ft0,rne
e0005a8a:	7fe0                	flw	fs0,124(a5)
e0005a8c:	0001                	nop
e0005a8e:	0001bdcf          	fnmadd.s	fs11,ft3,ft0,ft0,rup
e0005a92:	00007ecf          	fnmadd.s	ft9,ft0,ft0,ft0
e0005a96:	8160                	0x8160
e0005a98:	0001                	nop
e0005a9a:	0001bdcf          	fnmadd.s	fs11,ft3,ft0,ft0,rup
e0005a9e:	00007ecf          	fnmadd.s	ft9,ft0,ft0,ft0
e0005aa2:	8160                	0x8160
e0005aa4:	0001                	nop
e0005aa6:	000166ef          	jal	a3,e001baa6 <fromhost+0xba96>
e0005aaa:	0000816f          	jal	sp,e000daaa <_stack+0x3aaa>
e0005aae:	80a0                	0x80a0
e0005ab0:	0001                	nop
e0005ab2:	ec7f                	0xec7f
e0005ab4:	0001                	nop
e0005ab6:	0000810f          	0x810f
e0005aba:	8160                	0x8160
e0005abc:	29163697          	auipc	a3,0x29163
e0005ac0:	665642f7          	0x665642f7
e0005ac4:	0000                	unimp
e0005ac6:	7730                	flw	fa2,104(a4)
e0005ac8:	5742                	lw	a4,48(sp)
e0005aca:	84d6                	mv	s1,s5
e0005acc:	96c2                	add	a3,a3,a6
e0005ace:	f626                	fsw	fs1,44(sp)
e0005ad0:	0000                	unimp
e0005ad2:	f650                	fsw	fa2,44(a2)
e0005ad4:	5742                	lw	a4,48(sp)
e0005ad6:	7236                	flw	ft4,108(sp)
e0005ad8:	f676e697          	auipc	a3,0xf676e
e0005adc:	0000                	unimp
e0005ade:	4730                	lw	a2,72(a4)
e0005ae0:	56d6                	lw	a3,116(sp)
e0005ae2:	c8a6                	sw	s1,80(sp)
e0005ae4:	172665f7          	0x172665f7
e0005ae8:	0000                	unimp
e0005aea:	4730                	lw	a2,72(a4)
e0005aec:	4746                	lw	a4,80(sp)
e0005aee:	b7264917          	auipc	s2,0xb7264
e0005af2:	f2f6                	fsw	ft9,100(sp)
e0005af4:	0000                	unimp
e0005af6:	f770                	fsw	fa2,108(a4)
e0005af8:	2c7632e7          	0x2c7632e7
e0005afc:	3695                	jal	e0005660 <FLASH_AES_SMOKETEST_SIGNED+0x50d0>
e0005afe:	00003727          	fsd	ft0,14(zero) # e <_min_stack-0x1ff2>
e0005b02:	f660                	fsw	fs0,108(a2)
e0005b04:	03a5                	addi	t2,t2,9
e0005b06:	fff2                	fsw	ft8,252(sp)
e0005b08:	5414                	lw	a3,40(s0)
e0005b0a:	44c5                	li	s1,17
e0005b0c:	0000                	unimp
e0005b0e:	6000                	flw	fs0,0(s0)
e0005b10:	5414                	lw	a3,40(s0)
e0005b12:	6565                	lui	a0,0x19
e0005b14:	34d202e7          	jalr	t0,845(tp) # 34d <_min_stack-0x1cb3>
e0005b18:	0000                	unimp
e0005b1a:	3250                	fld	fa2,160(a2)
e0005b1c:	a3820783          	lb	a5,-1480(tp) # fffffa38 <pulp__FC+0xfffffa39>
e0005b20:	53d4                	lw	a3,36(a5)
e0005b22:	8302                	jr	t1
e0005b24:	0000                	unimp
e0005b26:	5530                	lw	a2,104(a0)
e0005b28:	8302                	jr	t1
e0005b2a:	35043913          	sltiu	s2,s0,848
e0005b2e:	53d4                	lw	a3,36(a5)
e0005b30:	0000                	unimp
e0005b32:	54d0                	lw	a2,44(s1)
e0005b34:	d4c4                	sw	s1,44(s1)
e0005b36:	44d22dc3          	fmadd.h	s11,tp,a3,s0,rdn
e0005b3a:	1565                	addi	a0,a0,-7
e0005b3c:	0000                	unimp
e0005b3e:	0780                	addi	s0,sp,960
e0005b40:	66f5                	lui	a3,0x1d
e0005b42:	cb26                	sw	s1,148(sp)
e0005b44:	30078383          	lb	t2,768(a5) # e3d25b14 <fromhost+0x3d15b04>
e0005b48:	0000                	unimp
e0005b4a:	0250                	addi	a2,sp,260
e0005b4c:	2492                	fld	fs1,256(sp)
e0005b4e:	7235                	lui	tp,0xfffed
e0005b50:	06572617          	auipc	a2,0x6572
e0005b54:	0000                	unimp
e0005b56:	7740                	flw	fs0,44(a4)
e0005b58:	0726                	slli	a4,a4,0x9
e0005b5a:	5ff2                	lw	t6,60(sp)
e0005b5c:	9540                	0x9540
e0005b5e:	56d6                	lw	a3,116(sp)
e0005b60:	0000                	unimp
e0005b62:	0510                	addi	a2,sp,640
e0005b64:	d464                	sw	s1,108(s0)
e0005b66:	fdc2                	fsw	fa6,248(sp)
e0005b68:	0515                	addi	a0,a0,5
e0005b6a:	9440                	0x9440
e0005b6c:	0000                	unimp
e0005b6e:	2490                	fld	fa2,8(s1)
e0005b70:	9642                	add	a2,a2,a6
e0005b72:	be46                	fsd	fa7,312(sp)
e0005b74:	c696                	sw	t0,76(sp)
e0005b76:	03a6                	slli	t2,t2,0x9
e0005b78:	0000                	unimp
e0005b7a:	1660                	addi	s0,sp,812
e0005b7c:	48a696c7          	fmsub.s	fa3,fa3,fa0,fs1,rtz
e0005b80:	6725                	lui	a4,0x9
e0005b82:	000005f7          	0x5f7
e0005b86:	f660                	fsw	fs0,108(a2)
e0005b88:	c635                	beqz	a2,e0005bf4 <FLASH_AES_SMOKETEST_SIGNED+0x5664>
e0005b8a:	fb26                	fsw	fs1,180(sp)
e0005b8c:	2695                	jal	e0005ef0 <FLASH_AES_SMOKETEST_SIGNED+0x5960>
e0005b8e:	0000f717          	auipc	a4,0xf
e0005b92:	f630                	fsw	fa2,104(a2)
e0005b94:	4746                	lw	a4,80(sp)
e0005b96:	86d6ba97          	auipc	s5,0x86d6b
e0005b9a:	f262                	fsw	fs8,36(sp)
e0005b9c:	0000                	unimp
e0005b9e:	9610                	0x9610
e0005ba0:	02c6                	slli	t0,t0,0x11
e0005ba2:	a6e2                	fsd	fs8,328(sp)
e0005ba4:	c705                	beqz	a4,e0005bcc <FLASH_AES_SMOKETEST_SIGNED+0x563c>
e0005ba6:	3696                	fld	fa3,352(sp)
e0005ba8:	0000                	unimp
e0005baa:	f660                	fsw	fs0,108(a2)
e0005bac:	2615                	jal	e0005ed0 <FLASH_AES_SMOKETEST_SIGNED+0x5940>
e0005bae:	96c57e47          	0x96c57e47
e0005bb2:	4636                	lw	a2,76(sp)
e0005bb4:	0000                	unimp
e0005bb6:	06b0                	addi	a2,sp,840
e0005bb8:	c702                	sw	zero,140(sp)
e0005bba:	cc76                	sw	t4,24(sp)
e0005bbc:	c746                	sw	a7,140(sp)
e0005bbe:	6202                	flw	ft4,0(sp)
e0005bc0:	0000                	unimp
e0005bc2:	5670                	lw	a2,108(a2)
e0005bc4:	500695f7          	0x500695f7
e0005bc8:	95f6                	add	a1,a1,t4
e0005bca:	1726                	slli	a4,a4,0x29
e0005bcc:	0000                	unimp
e0005bce:	3690                	fld	fa2,40(a3)
e0005bd0:	90072757          	0x90072757
e0005bd4:	2202                	fld	ft4,0(sp)
e0005bd6:	00004657          	pv.add.sc.h	a2,zero,zero
e0005bda:	9640                	0x9640
e0005bdc:	9440                	0x9440
e0005bde:	8754                	0x8754
e0005be0:	06425207          	0x6425207
e0005be4:	0000                	unimp
e0005be6:	36e0                	fld	fs0,232(a3)
e0005be8:	03a6                	slli	t2,t2,0x9
e0005bea:	9912                	add	s2,s2,tp
e0005bec:	1662                	slli	a2,a2,0x38
e0005bee:	c696                	sw	t0,76(sp)
e0005bf0:	0000                	unimp
e0005bf2:	d460                	sw	s0,108(s0)
e0005bf4:	6dc705f7          	0x6dc705f7
e0005bf8:	f666                	fsw	fs9,44(sp)
e0005bfa:	6725                	lui	a4,0x9
e0005bfc:	0000                	unimp
e0005bfe:	9640                	0x9640
e0005c00:	2c75f717          	auipc	a4,0x2c75f
e0005c04:	f636                	fsw	fa3,44(sp)
e0005c06:	2695                	jal	e0005f6a <FLASH_AES_SMOKETEST_SIGNED+0x59da>
e0005c08:	0000                	unimp
e0005c0a:	96c0                	0x96c0
e0005c0c:	5746                	lw	a4,112(sp)
e0005c0e:	cff6                	sw	t4,220(sp)
e0005c10:	06d6                	slli	a3,a3,0x15
e0005c12:	000056c7          	fmsub.s	fa3,ft0,ft0,ft0,unknown
e0005c16:	f630                	fsw	fa2,104(a2)
e0005c18:	05f6                	slli	a1,a1,0x1d
e0005c1a:	46f2d757          	0x46f2d757
e0005c1e:	00006747          	fmsub.s	fa4,ft0,ft0,ft0,unknown
e0005c22:	6280                	flw	fs0,0(a3)
e0005c24:	c506                	sw	ra,136(sp)
e0005c26:	f6e6                	fsw	fs9,108(sp)
e0005c28:	c636                	sw	a3,12(sp)
e0005c2a:	b202                	fsd	ft0,288(sp)
e0005c2c:	0000                	unimp
e0005c2e:	96c0                	0x96c0
e0005c30:	4656                	lw	a2,84(sp)
e0005c32:	15466c77          	0x15466c77
e0005c36:	7726                	flw	fa4,104(sp)
e0005c38:	0000                	unimp
e0005c3a:	3690                	fld	fa2,40(a3)
e0005c3c:	95f6                	add	a1,a1,t4
e0005c3e:	e006                	fsw	ft1,0(sp)
e0005c40:	c702                	sw	zero,140(sp)
e0005c42:	3696                	fld	fa3,352(sp)
e0005c44:	0000                	unimp
e0005c46:	02c0                	addi	s0,sp,324
e0005c48:	2202                	fld	ft4,0(sp)
e0005c4a:	95f79757          	0x95f79757
e0005c4e:	9646                	add	a2,a2,a7
e0005c50:	0000                	unimp
e0005c52:	1720                	addi	s0,sp,936
e0005c54:	32325207          	0x32325207
e0005c58:	36e72757          	0x36e72757
e0005c5c:	0000                	unimp
e0005c5e:	4650                	lw	a2,12(a2)
e0005c60:	e726                	fsw	fs1,140(sp)
e0005c62:	0386                	slli	t2,t2,0x1
e0005c64:	8450                	0x8450
e0005c66:	00005747          	fmsub.s	fa4,ft0,ft0,ft0,unknown
e0005c6a:	0640                	addi	s0,sp,772
e0005c6c:	9005                	srli	s0,s0,0x21
e0005c6e:	6e44                	flw	fs1,28(a2)
e0005c70:	9206                	add	tp,tp,ra
e0005c72:	1524                	addi	s1,sp,680
e0005c74:	0000                	unimp
e0005c76:	c610                	sw	a2,8(a2)
e0005c78:	9746                	add	a4,a4,a7
e0005c7a:	24d6                	fld	fs1,336(sp)
e0005c7c:	37572747          	0x37572747
e0005c80:	0000                	unimp
e0005c82:	36e0                	fld	fs0,232(a3)
e0005c84:	ec76c617          	auipc	a2,0xec76c
e0005c88:	d206                	sw	ra,36(sp)
e0005c8a:	3694                	fld	fa3,40(a3)
e0005c8c:	0000                	unimp
e0005c8e:	e6f0                	fsw	fa2,76(a3)
e0005c90:	e490                	fsw	fa2,8(s1)
e0005c92:	f8a6                	fsw	fs1,112(sp)
e0005c94:	56e6                	lw	a3,120(sp)
e0005c96:	0646                	slli	a2,a2,0x11
e0005c98:	0000                	unimp
e0005c9a:	7690                	flw	fa2,40(a3)
e0005c9c:	b6e6f697          	auipc	a3,0xb6e6f
e0005ca0:	46375727          	0x46375727
e0005ca4:	0000                	unimp
e0005ca6:	4730                	lw	a2,72(a4)
e0005ca8:	3736                	fld	fa4,360(sp)
e0005caa:	34124917          	auipc	s2,0x34124
e0005cae:	5636                	lw	a2,108(sp)
e0005cb0:	0000                	unimp
e0005cb2:	06e0                	addi	s0,sp,844
e0005cb4:	c616                	sw	t0,12(sp)
e0005cb6:	5386                	lw	t2,96(sp)
e0005cb8:	c6c4                	sw	s1,12(a3)
e0005cba:	7656                	flw	fa2,116(sp)
e0005cbc:	0000                	unimp
e0005cbe:	9000                	0x9000
e0005cc0:	33863757          	0x33863757
e0005cc4:	36e4                	fld	fs1,232(a3)
e0005cc6:	00002747          	fmsub.s	fa4,ft0,ft0,ft0,rdn
e0005cca:	9200                	0x9200
e0005ccc:	5724                	lw	s1,104(a4)
e0005cce:	7566                	flw	fa0,120(sp)
e0005cd0:	e6f6                	fsw	ft9,76(sp)
e0005cd2:	2006                	fld	ft0,64(sp)
e0005cd4:	0000                	unimp
e0005cd6:	9740                	0x9740
e0005cd8:	0746                	slli	a4,a4,0x11
e0005cda:	fe40                	fsw	fs0,60(a2)
e0005cdc:	f706                	fsw	ft1,172(sp)
e0005cde:	e696                	fsw	ft5,76(sp)
e0005ce0:	0000                	unimp
e0005ce2:	b610                	fsd	fa2,40(a2)
e0005ce4:	4644                	lw	s1,12(a2)
e0005ce6:	26e6                	fld	fa3,88(sp)
e0005ce8:	4616                	lw	a2,68(sp)
e0005cea:	1206                	slli	tp,tp,0x21
e0005cec:	0000                	unimp
e0005cee:	f4c0                	fsw	fs0,44(s1)
e0005cf0:	3694                	fld	fa3,40(a3)
e0005cf2:	37367c77          	0x37367c77
e0005cf6:	0000d207          	0xd207
e0005cfa:	5720                	lw	s0,104(a4)
e0005cfc:	0646                	slli	a2,a2,0x11
e0005cfe:	3ff0                	fld	fa2,248(a5)
e0005d00:	7696                	flw	fa3,100(sp)
e0005d02:	56e6                	lw	a3,120(sp)
e0005d04:	0000                	unimp
e0005d06:	c610                	sw	a2,8(a2)
e0005d08:	3634                	fld	fa3,104(a2)
e0005d0a:	ae46                	fsd	fa7,280(sp)
e0005d0c:	4616                	lw	a2,68(sp)
e0005d0e:	1206                	slli	tp,tp,0x21
e0005d10:	0000                	unimp
e0005d12:	f4c0                	fsw	fs0,44(s1)
e0005d14:	c756                	sw	s5,140(sp)
e0005d16:	d6e6                	sw	s9,108(sp)
e0005d18:	14620737          	lui	a4,0x14620
e0005d1c:	0000                	unimp
e0005d1e:	3650                	fld	fa2,168(a2)
e0005d20:	4ff20657          	0x4ff20657
e0005d24:	4530                	lw	a2,72(a0)
e0005d26:	000026f7          	0x26f7
e0005d2a:	0740                	addi	s0,sp,900
e0005d2c:	70020737          	lui	a4,0x70020
e0005d30:	2646                	fld	fa2,80(sp)
e0005d32:	00003657          	pv.add.b.div2	a2,zero,zero
e0005d36:	4410                	lw	a2,8(s0)
e0005d38:	e676                	fsw	ft9,12(sp)
e0005d3a:	31b6                	fld	ft3,360(sp)
e0005d3c:	1736                	slli	a4,a4,0x2d
e0005d3e:	96c6                	add	a3,a3,a7
e0005d40:	0000                	unimp
e0005d42:	94d0                	0x94d0
e0005d44:	5726                	lw	a4,104(sp)
e0005d46:	ea96                	fsw	ft5,84(sp)
e0005d48:	3006                	fld	ft0,96(sp)
e0005d4a:	f745                	bnez	a4,e0005cf2 <FLASH_AES_SMOKETEST_SIGNED+0x5762>
e0005d4c:	0000                	unimp
e0005d4e:	4650                	lw	a2,12(a2)
e0005d50:	8c720737          	lui	a4,0x8c720
e0005d54:	3634                	fld	fa3,104(a2)
e0005d56:	3656                	fld	fa2,368(sp)
e0005d58:	0000                	unimp
e0005d5a:	1200                	addi	s0,sp,288
e0005d5c:	d550                	sw	a2,44(a0)
e0005d5e:	6232                	flw	ft4,12(sp)
e0005d60:	c756                	sw	s5,140(sp)
e0005d62:	0746                	slli	a4,a4,0x11
e0005d64:	0000                	unimp
e0005d66:	1460                	addi	s0,sp,556
e0005d68:	1634                	addi	a3,sp,808
e0005d6a:	44d6                	lw	s1,84(sp)
e0005d6c:	5646                	lw	a2,112(sp)
e0005d6e:	5206                	lw	tp,96(sp)
e0005d70:	0000                	unimp
e0005d72:	f6d0                	fsw	fa2,44(a3)
e0005d74:	46f6                	lw	a3,92(sp)
e0005d76:	bc76                	fsd	ft9,56(sp)
e0005d78:	3006                	fld	ft0,96(sp)
e0005d7a:	d2d5                	beqz	a3,e0005d1e <FLASH_AES_SMOKETEST_SIGNED+0x578e>
e0005d7c:	0000                	unimp
e0005d7e:	c6c0                	sw	s0,12(a3)
e0005d80:	06c6                	slli	a3,a3,0x11
e0005d82:	a230                	fsd	fa2,64(a2)
e0005d84:	3452                	fld	fs0,304(sp)
e0005d86:	c616                	sw	t0,12(sp)
e0005d88:	0000                	unimp
e0005d8a:	0650                	addi	a2,sp,772
e0005d8c:	5ff64657          	0x5ff64657
e0005d90:	5736                	lw	a4,108(sp)
e0005d92:	6726                	flw	fa4,72(sp)
e0005d94:	0000                	unimp
e0005d96:	5520                	lw	s0,104(a0)
e0005d98:	0656                	slli	a2,a2,0x15
e0005d9a:	e002                	fsw	ft0,0(sp)
e0005d9c:	d2d4                	sw	a3,36(a3)
e0005d9e:	46f6                	lw	a3,92(sp)
e0005da0:	0000                	unimp
e0005da2:	d000                	sw	s0,32(s0)
e0005da4:	e490                	fsw	fa2,8(s1)
e0005da6:	2386                	fld	ft7,64(sp)
e0005da8:	c616                	sw	t0,12(sp)
e0005daa:	06c6                	slli	a3,a3,0x11
e0005dac:	0000                	unimp
e0005dae:	3450                	fld	fa2,168(s0)
e0005db0:	b6e6f697          	auipc	a3,0xb6e6f
e0005db4:	46375727          	0x46375727
e0005db8:	0000                	unimp
e0005dba:	4730                	lw	a2,72(a4)
e0005dbc:	6206                	flw	ft4,64(sp)
e0005dbe:	86e4                	0x86e4
e0005dc0:	1502                	slli	a0,a0,0x20
e0005dc2:	5676                	lw	a2,124(sp)
e0005dc4:	0000                	unimp
e0005dc6:	06e0                	addi	s0,sp,844
e0005dc8:	16f4                	addi	a3,sp,876
e0005dca:	dc76                	sw	t4,56(sp)
e0005dcc:	c00746c7          	fmsub.s	fa3,fa4,ft0,fs8,rmm
e0005dd0:	0000                	unimp
e0005dd2:	5610                	lw	a2,40(a2)
e0005dd4:	6206                	flw	ft4,64(sp)
e0005dd6:	4dc4                	lw	s1,28(a1)
e0005dd8:	1502                	slli	a0,a0,0x20
e0005dda:	5676                	lw	a2,124(sp)
e0005ddc:	0000                	unimp
e0005dde:	0640                	addi	s0,sp,772
e0005de0:	f745                	bnez	a4,e0005d88 <FLASH_AES_SMOKETEST_SIGNED+0x57f8>
e0005de2:	f566                	fsw	fs9,168(sp)
e0005de4:	300746c7          	fmsub.s	fa3,fa4,ft0,ft6,rmm
e0005de8:	0000                	unimp
e0005dea:	5610                	lw	a2,40(a2)
e0005dec:	0656                	slli	a2,a2,0x15
e0005dee:	5562                	lw	a0,56(sp)
e0005df0:	0206                	slli	tp,tp,0x1
e0005df2:	7615                	lui	a2,0xfffe5
e0005df4:	0000                	unimp
e0005df6:	5720                	lw	s0,104(a4)
e0005df8:	e490                	fsw	fa2,8(s1)
e0005dfa:	6236                	flw	ft4,76(sp)
e0005dfc:	c756                	sw	s5,140(sp)
e0005dfe:	0746                	slli	a4,a4,0x11
e0005e00:	0000                	unimp
e0005e02:	1460                	addi	s0,sp,556
e0005e04:	9206                	add	tp,tp,ra
e0005e06:	76e4                	flw	fs1,108(a3)
e0005e08:	e726                	fsw	fs1,140(sp)
e0005e0a:	c616                	sw	t0,12(sp)
e0005e0c:	0000                	unimp
e0005e0e:	5740                	lw	s0,44(a4)
e0005e10:	0000                	unimp
e0005e12:	ee40                	fsw	fs0,28(a2)
e0005e14:	0005                	c.addi	zero,1
e0005e16:	0020                	addi	s0,sp,8
e0005e18:	0000                	unimp
e0005e1a:	1520                	addi	s0,sp,680
e0005e1c:	0000                	unimp
e0005e1e:	9000                	0x9000
e0005e20:	03cf0003          	lb	zero,60(t5)
e0005e24:	0000                	unimp
e0005e26:	8c80                	0x8c80
e0005e28:	b8af0003          	lb	zero,-1142(t5)
e0005e2c:	0000                	unimp
e0005e2e:	8f90                	0x8f90
e0005e30:	0000                	unimp
e0005e32:	0040                	addi	s0,sp,4
e0005e34:	1a9f0003          	lb	zero,425(t5)
e0005e38:	0000                	unimp
e0005e3a:	8c80                	0x8c80
e0005e3c:	0000                	unimp
e0005e3e:	0020                	addi	s0,sp,8
e0005e40:	0000                	unimp
e0005e42:	a750                	fsd	fa2,136(a4)
e0005e44:	0000                	unimp
e0005e46:	0010                	addi	a2,sp,0
e0005e48:	0000                	unimp
e0005e4a:	09f0                	addi	a2,sp,220
e0005e4c:	0000                	unimp
e0005e4e:	3230                	fld	fa2,96(a2)
e0005e50:	002f0003          	lb	zero,2(t5)
e0005e54:	0000                	unimp
e0005e56:	93c0                	0x93c0
e0005e58:	0000                	unimp
e0005e5a:	3dc0                	fld	fs0,184(a1)
e0005e5c:	0a8f0003          	lb	zero,168(t5)
e0005e60:	0000                	unimp
e0005e62:	8c80                	0x8c80
e0005e64:	9dcf0003          	lb	zero,-1572(t5)
e0005e68:	0000                	unimp
e0005e6a:	98e0                	0x98e0
e0005e6c:	0000                	unimp
e0005e6e:	0010                	addi	a2,sp,0
e0005e70:	5c7f0003          	lb	zero,1479(t5)
e0005e74:	a06f0003          	lb	zero,-1530(t5)
e0005e78:	0000                	unimp
e0005e7a:	9ef0                	0x9ef0
e0005e7c:	98af0003          	lb	zero,-1654(t5)
e0005e80:	a2df0003          	lb	zero,-1491(t5)
e0005e84:	0000                	unimp
e0005e86:	a190                	fsd	fa2,0(a1)
e0005e88:	d4df0003          	lb	zero,-691(t5)
e0005e8c:	a50f0003          	lb	zero,-1456(t5)
e0005e90:	0000                	unimp
e0005e92:	a380                	fsd	fs0,0(a5)
e0005e94:	de4f0003          	lb	zero,-540(t5)
e0005e98:	a7bf0003          	lb	zero,-1413(t5)
e0005e9c:	0000                	unimp
e0005e9e:	a620                	fsd	fs0,72(a2)
e0005ea0:	fc7f0003          	lb	zero,-57(t5)
e0005ea4:	a9bf0003          	lb	zero,-1381(t5)
e0005ea8:	0000                	unimp
e0005eaa:	a8e0                	fsd	fs0,208(s1)
e0005eac:	100f0003          	lb	zero,256(t5)
e0005eb0:	ab1f0003          	lb	zero,-1359(t5)
e0005eb4:	0000                	unimp
e0005eb6:	aa80                	fsd	fs0,16(a3)
e0005eb8:	7b2f0003          	lb	zero,1970(t5)
e0005ebc:	ad5f0003          	lb	zero,-1323(t5)
e0005ec0:	0000                	unimp
e0005ec2:	abe0                	fsd	fs0,208(a5)
e0005ec4:	3fff0003          	lb	zero,1023(t5)
e0005ec8:	ae5f0003          	lb	zero,-1307(t5)
e0005ecc:	0000                	unimp
e0005ece:	aa80                	fsd	fs0,16(a3)
e0005ed0:	356f0003          	lb	zero,854(t5)
e0005ed4:	aa8f0003          	lb	zero,-1368(t5)
e0005ed8:	0000                	unimp
e0005eda:	aa80                	fsd	fs0,16(a3)
e0005edc:	356f0003          	lb	zero,854(t5)
e0005ee0:	aa8f0003          	lb	zero,-1368(t5)
e0005ee4:	0000                	unimp
e0005ee6:	aa80                	fsd	fs0,16(a3)
e0005ee8:	356f0003          	lb	zero,854(t5)
e0005eec:	aa8f0003          	lb	zero,-1368(t5)
e0005ef0:	0000                	unimp
e0005ef2:	aa80                	fsd	fs0,16(a3)
e0005ef4:	356f0003          	lb	zero,854(t5)
e0005ef8:	aa8f0003          	lb	zero,-1368(t5)
e0005efc:	0000                	unimp
e0005efe:	aa80                	fsd	fs0,16(a3)
e0005f00:	356f0003          	lb	zero,854(t5)
e0005f04:	aa8f0003          	lb	zero,-1368(t5)
e0005f08:	0000                	unimp
e0005f0a:	aa80                	fsd	fs0,16(a3)
e0005f0c:	356f0003          	lb	zero,854(t5)
e0005f10:	aa8f0003          	lb	zero,-1368(t5)
e0005f14:	0000                	unimp
e0005f16:	aa80                	fsd	fs0,16(a3)
e0005f18:	356f0003          	lb	zero,854(t5)
e0005f1c:	aa8f0003          	lb	zero,-1368(t5)
e0005f20:	0000                	unimp
e0005f22:	aa80                	fsd	fs0,16(a3)
e0005f24:	356f0003          	lb	zero,854(t5)
e0005f28:	aa8f0003          	lb	zero,-1368(t5)
e0005f2c:	0000                	unimp
e0005f2e:	aa80                	fsd	fs0,16(a3)
e0005f30:	29163697          	auipc	a3,0x29163
e0005f34:	665642f7          	0x665642f7
e0005f38:	0000                	unimp
e0005f3a:	7730                	flw	fa2,104(a4)
e0005f3c:	5742                	lw	a4,48(sp)
e0005f3e:	84d6                	mv	s1,s5
e0005f40:	96c2                	add	a3,a3,a6
e0005f42:	f626                	fsw	fs1,44(sp)
e0005f44:	0000                	unimp
e0005f46:	f650                	fsw	fa2,44(a2)
e0005f48:	1722                	slli	a4,a4,0x28
e0005f4a:	b006                	fsd	ft1,32(sp)
e0005f4c:	f676e697          	auipc	a3,0xf676e
e0005f50:	0000                	unimp
e0005f52:	4730                	lw	a2,72(a4)
e0005f54:	12375747          	fmsub.d	fa4,fa4,ft3,ft2,unknown
e0005f58:	45f6                	lw	a1,92(sp)
e0005f5a:	00003657          	pv.add.b.div2	a2,zero,zero
e0005f5e:	46e0                	lw	s0,76(a3)
e0005f60:	3006                	fld	ft0,96(sp)
e0005f62:	d914                	sw	a3,48(a0)
e0005f64:	36c6                	fld	fa3,112(sp)
e0005f66:	000032e7          	0x32e7
e0005f6a:	9740                	0x9740
e0005f6c:	9616                	add	a2,a2,t0
e0005f6e:	4006                	0x4006
e0005f70:	b434                	fsd	fa3,104(s0)
e0005f72:	62d4                	flw	fa3,4(a3)
e0005f74:	0000                	unimp
e0005f76:	5480                	lw	s0,40(s1)
e0005f78:	f635                	bnez	a2,e0005ee4 <FLASH_AES_SMOKETEST_SIGNED+0x5954>
e0005f7a:	31b6                	fld	ft3,360(sp)
e0005f7c:	f7672203          	lw	tp,-138(a4) # 8c71ff76 <pulp__FC+0x8c71ff77>
e0005f80:	0000                	unimp
e0005f82:	a6c0                	fsd	fs0,136(a3)
e0005f84:	0786                	slli	a5,a5,0x1
e0005f86:	c002                	sw	zero,0(sp)
e0005f88:	95f6                	add	a1,a1,t4
e0005f8a:	5626                	lw	a2,104(sp)
e0005f8c:	0000                	unimp
e0005f8e:	5720                	lw	s0,104(a4)
e0005f90:	04c4                	addi	s1,sp,580
e0005f92:	3a90                	fld	fa2,48(a3)
e0005f94:	c554e203          	p.elw	tp,-939(s1) # 13c55 <_stack_len+0xbc55>
e0005f98:	0000                	unimp
e0005f9a:	d210                	sw	a2,32(a2)
e0005f9c:	1662                	slli	a2,a2,0x38
e0005f9e:	5b26                	lw	s6,104(sp)
e0005fa0:	3454                	fld	fa3,168(s0)
e0005fa2:	d4b4                	sw	a3,104(s1)
e0005fa4:	0000                	unimp
e0005fa6:	8430                	0x8430
e0005fa8:	0786                	slli	a5,a5,0x1
e0005faa:	fa92                	fsw	ft4,116(sp)
e0005fac:	03a6                	slli	t2,t2,0x9
e0005fae:	16d2                	slli	a3,a3,0x34
e0005fb0:	0000                	unimp
e0005fb2:	c690                	sw	a2,8(a3)
e0005fb4:	3006                	fld	ft0,96(sp)
e0005fb6:	5e44                	lw	s1,60(a2)
e0005fb8:	e696d203          	lhu	tp,-407(a3) # d6773db5 <tohost+0xd6753dad>
e0005fbc:	0000                	unimp
e0005fbe:	d3e0                	sw	s0,100(a5)
e0005fc0:	9616                	add	a2,a2,t0
e0005fc2:	4006                	0x4006
e0005fc4:	b434                	fsd	fa3,104(s0)
e0005fc6:	62d4                	flw	fa3,4(a3)
e0005fc8:	0000                	unimp
e0005fca:	5480                	lw	s0,40(s1)
e0005fcc:	adc6c757          	0xadc6c757
e0005fd0:	36572203          	lw	tp,869(a4)
e0005fd4:	0000                	unimp
e0005fd6:	a6c0                	fsd	fs0,136(a3)
e0005fd8:	e696                	fsw	ft5,76(sp)
e0005fda:	16e6                	slli	a3,a3,0x39
e0005fdc:	d3e2                	sw	s8,228(sp)
e0005fde:	0000d203          	lhu	tp,0(ra)
e0005fe2:	0740                	addi	s0,sp,900
e0005fe4:	5736                	lw	a4,108(sp)
e0005fe6:	0262b8a7          	fsd	ft6,49(t0) # c208079d <tohost+0xc2060795>
e0005fea:	5722                	lw	a4,40(sp)
e0005fec:	0000                	unimp
e0005fee:	6200                	flw	fs0,0(a2)
e0005ff0:	16d2                	slli	a3,a3,0x34
e0005ff2:	d1b6                	sw	a3,224(sp)
e0005ff4:	03d3c207          	0x3d3c207
e0005ff8:	0000                	unimp
e0005ffa:	46c0                	lw	s0,12(a3)
e0005ffc:	0000                	unimp
e0005ffe:	6c70                	flw	fa2,92(s0)
e0006000:	0000                	unimp
e0006002:	0020                	addi	s0,sp,8
e0006004:	0000                	unimp
e0006006:	0780                	addi	s0,sp,960
e0006008:	0000                	unimp
e000600a:	bdc0                	fsd	fs0,184(a1)
e000600c:	020f0003          	lb	zero,32(t5)
e0006010:	0000                	unimp
e0006012:	bc00                	fsd	fs0,56(s0)
e0006014:	a23f0003          	lb	zero,-1501(t5)
e0006018:	0000                	unimp
e000601a:	be70                	fsd	fa2,248(a2)
e000601c:	0000                	unimp
e000601e:	0000                	unimp
e0006020:	0000                	unimp
e0006022:	6c70                	flw	fa2,92(s0)
e0006024:	0000                	unimp
e0006026:	0010                	addi	a2,sp,0
e0006028:	0000                	unimp
e000602a:	0000                	unimp
e000602c:	0000                	unimp
e000602e:	6e40                	flw	fs0,28(a2)
e0006030:	0000                	unimp
e0006032:	0010                	addi	a2,sp,0
e0006034:	0000                	unimp
e0006036:	0010                	addi	a2,sp,0
e0006038:	0000                	unimp
e000603a:	6e40                	flw	fs0,28(a2)
e000603c:	0000                	unimp
e000603e:	0010                	addi	a2,sp,0
e0006040:	0000                	unimp
e0006042:	0010                	addi	a2,sp,0
e0006044:	0000                	unimp
e0006046:	6e40                	flw	fs0,28(a2)
e0006048:	0000                	unimp
e000604a:	0010                	addi	a2,sp,0
e000604c:	0000                	unimp
e000604e:	0010                	addi	a2,sp,0
e0006050:	0000                	unimp
e0006052:	61b0                	flw	fa2,64(a1)
e0006054:	0000                	unimp
e0006056:	0020                	addi	s0,sp,8
e0006058:	0000                	unimp
e000605a:	0010                	addi	a2,sp,0
e000605c:	0000                	unimp
e000605e:	64d0                	flw	fa2,12(s1)
e0006060:	0000                	unimp
e0006062:	0020                	addi	s0,sp,8
e0006064:	0000                	unimp
e0006066:	0020                	addi	s0,sp,8
e0006068:	0000                	unimp
e000606a:	64d0                	flw	fa2,12(s1)
e000606c:	0000                	unimp
e000606e:	0020                	addi	s0,sp,8
e0006070:	0000                	unimp
e0006072:	0020                	addi	s0,sp,8
e0006074:	0000                	unimp
e0006076:	64d0                	flw	fa2,12(s1)
e0006078:	0000                	unimp
e000607a:	0020                	addi	s0,sp,8
e000607c:	0000                	unimp
e000607e:	0020                	addi	s0,sp,8
e0006080:	0000                	unimp
e0006082:	08a0                	addi	s0,sp,88
e0006084:	0000                	unimp
e0006086:	0030                	addi	a2,sp,8
e0006088:	0000                	unimp
e000608a:	0020                	addi	s0,sp,8
e000608c:	0000                	unimp
e000608e:	0a90                	addi	a2,sp,336
e0006090:	0000                	unimp
e0006092:	0030                	addi	a2,sp,8
e0006094:	0000                	unimp
e0006096:	0030                	addi	a2,sp,8
e0006098:	0000                	unimp
e000609a:	0a90                	addi	a2,sp,336
e000609c:	0000                	unimp
e000609e:	0030                	addi	a2,sp,8
e00060a0:	0000                	unimp
e00060a2:	0030                	addi	a2,sp,8
e00060a4:	0000                	unimp
e00060a6:	0a90                	addi	a2,sp,336
e00060a8:	0000                	unimp
e00060aa:	0030                	addi	a2,sp,8
e00060ac:	0000                	unimp
e00060ae:	0030                	addi	a2,sp,8
e00060b0:	0000                	unimp
e00060b2:	2ff0                	fld	fa2,216(a5)
e00060b4:	0000                	unimp
e00060b6:	0040                	addi	s0,sp,4
e00060b8:	0000                	unimp
e00060ba:	0030                	addi	a2,sp,8
e00060bc:	0000                	unimp
e00060be:	aff0                	fsd	fa2,216(a5)
e00060c0:	0000                	unimp
e00060c2:	0040                	addi	s0,sp,4
e00060c4:	0000                	unimp
e00060c6:	0040                	addi	s0,sp,4
e00060c8:	0000                	unimp
e00060ca:	aff0                	fsd	fa2,216(a5)
e00060cc:	0000                	unimp
e00060ce:	0040                	addi	s0,sp,4
e00060d0:	0000                	unimp
e00060d2:	0040                	addi	s0,sp,4
e00060d4:	0000                	unimp
e00060d6:	aff0                	fsd	fa2,216(a5)
e00060d8:	0000                	unimp
e00060da:	0040                	addi	s0,sp,4
e00060dc:	0000                	unimp
e00060de:	0040                	addi	s0,sp,4
e00060e0:	0000                	unimp
e00060e2:	c380                	sw	s0,0(a5)
e00060e4:	0000                	unimp
e00060e6:	0050                	addi	a2,sp,4
e00060e8:	0000                	unimp
e00060ea:	0040                	addi	s0,sp,4
e00060ec:	0000                	unimp
e00060ee:	c1b0                	sw	a2,64(a1)
e00060f0:	0000                	unimp
e00060f2:	0050                	addi	a2,sp,4
e00060f4:	0000                	unimp
e00060f6:	0050                	addi	a2,sp,4
e00060f8:	0000                	unimp
e00060fa:	c1b0                	sw	a2,64(a1)
e00060fc:	0000                	unimp
e00060fe:	0050                	addi	a2,sp,4
e0006100:	0000                	unimp
e0006102:	0050                	addi	a2,sp,4
e0006104:	0000                	unimp
e0006106:	c1b0                	sw	a2,64(a1)
e0006108:	0000                	unimp
e000610a:	0050                	addi	a2,sp,4
e000610c:	0000                	unimp
e000610e:	0050                	addi	a2,sp,4
e0006110:	0000                	unimp
e0006112:	c1b0                	sw	a2,64(a1)
e0006114:	0000                	unimp
e0006116:	0050                	addi	a2,sp,4
e0006118:	0000                	unimp
e000611a:	0050                	addi	a2,sp,4
e000611c:	0000                	unimp
e000611e:	c1b0                	sw	a2,64(a1)
e0006120:	0000                	unimp
e0006122:	0050                	addi	a2,sp,4
e0006124:	0000                	unimp
e0006126:	0050                	addi	a2,sp,4
e0006128:	0000                	unimp
e000612a:	c1b0                	sw	a2,64(a1)
e000612c:	0000                	unimp
e000612e:	0050                	addi	a2,sp,4
e0006130:	0000                	unimp
e0006132:	0050                	addi	a2,sp,4
e0006134:	0000                	unimp
e0006136:	c1b0                	sw	a2,64(a1)
e0006138:	0000                	unimp
e000613a:	0050                	addi	a2,sp,4
e000613c:	0000                	unimp
e000613e:	0050                	addi	a2,sp,4
e0006140:	0000                	unimp
e0006142:	c1b0                	sw	a2,64(a1)
e0006144:	0000                	unimp
e0006146:	0050                	addi	a2,sp,4
e0006148:	0000                	unimp
e000614a:	0050                	addi	a2,sp,4
e000614c:	0000                	unimp
e000614e:	c1b0                	sw	a2,64(a1)
e0006150:	0000                	unimp
e0006152:	0050                	addi	a2,sp,4
e0006154:	0000                	unimp
e0006156:	0050                	addi	a2,sp,4
e0006158:	0000                	unimp
e000615a:	c1b0                	sw	a2,64(a1)
e000615c:	0000                	unimp
e000615e:	0050                	addi	a2,sp,4
e0006160:	0000                	unimp
e0006162:	0050                	addi	a2,sp,4
e0006164:	0000                	unimp
e0006166:	c1b0                	sw	a2,64(a1)
e0006168:	0000                	unimp
e000616a:	0050                	addi	a2,sp,4
e000616c:	0000                	unimp
e000616e:	0050                	addi	a2,sp,4
e0006170:	0000                	unimp
e0006172:	c1b0                	sw	a2,64(a1)
e0006174:	0000                	unimp
e0006176:	0050                	addi	a2,sp,4
e0006178:	0000                	unimp
e000617a:	0050                	addi	a2,sp,4
e000617c:	0000                	unimp
e000617e:	c1b0                	sw	a2,64(a1)
e0006180:	0000                	unimp
e0006182:	0050                	addi	a2,sp,4
e0006184:	0000                	unimp
e0006186:	0050                	addi	a2,sp,4
e0006188:	0000                	unimp
e000618a:	c1b0                	sw	a2,64(a1)
e000618c:	0000                	unimp
e000618e:	0050                	addi	a2,sp,4
e0006190:	0000                	unimp
e0006192:	0050                	addi	a2,sp,4
e0006194:	0000                	unimp
e0006196:	c1b0                	sw	a2,64(a1)
e0006198:	0000                	unimp
e000619a:	0050                	addi	a2,sp,4
e000619c:	0000                	unimp
e000619e:	0050                	addi	a2,sp,4
e00061a0:	0000                	unimp
e00061a2:	ce40                	sw	s0,28(a2)
e00061a4:	0000                	unimp
e00061a6:	0060                	addi	s0,sp,12
e00061a8:	0000                	unimp
e00061aa:	0050                	addi	a2,sp,4
e00061ac:	0000                	unimp
e00061ae:	cb20                	sw	s0,80(a4)
e00061b0:	0000                	unimp
e00061b2:	0060                	addi	s0,sp,12
e00061b4:	0000                	unimp
e00061b6:	0060                	addi	s0,sp,12
e00061b8:	0000                	unimp
e00061ba:	cb20                	sw	s0,80(a4)
e00061bc:	0000                	unimp
e00061be:	0060                	addi	s0,sp,12
e00061c0:	0000                	unimp
e00061c2:	0060                	addi	s0,sp,12
e00061c4:	0000                	unimp
e00061c6:	cb20                	sw	s0,80(a4)
e00061c8:	0000                	unimp
e00061ca:	0060                	addi	s0,sp,12
e00061cc:	0000                	unimp
e00061ce:	0060                	addi	s0,sp,12
e00061d0:	0000                	unimp
e00061d2:	cb20                	sw	s0,80(a4)
e00061d4:	0000                	unimp
e00061d6:	0060                	addi	s0,sp,12
e00061d8:	0000                	unimp
e00061da:	0060                	addi	s0,sp,12
e00061dc:	0000                	unimp
e00061de:	cb20                	sw	s0,80(a4)
e00061e0:	0000                	unimp
e00061e2:	0060                	addi	s0,sp,12
e00061e4:	0000                	unimp
e00061e6:	0060                	addi	s0,sp,12
e00061e8:	0000                	unimp
e00061ea:	a750                	fsd	fa2,136(a4)
e00061ec:	0000                	unimp
e00061ee:	0070                	addi	a2,sp,12
e00061f0:	0000                	unimp
e00061f2:	0060                	addi	s0,sp,12
e00061f4:	0000                	unimp
e00061f6:	a560                	fsd	fs0,200(a0)
e00061f8:	0000                	unimp
e00061fa:	0070                	addi	a2,sp,12
e00061fc:	0000                	unimp
e00061fe:	0070                	addi	a2,sp,12
e0006200:	0000                	unimp
e0006202:	a560                	fsd	fs0,200(a0)
e0006204:	0000                	unimp
e0006206:	0070                	addi	a2,sp,12
e0006208:	0000                	unimp
e000620a:	0070                	addi	a2,sp,12
e000620c:	0000                	unimp
e000620e:	a560                	fsd	fs0,200(a0)
e0006210:	0000                	unimp
e0006212:	0070                	addi	a2,sp,12
e0006214:	0000                	unimp
e0006216:	0070                	addi	a2,sp,12
e0006218:	0000                	unimp
e000621a:	a560                	fsd	fs0,200(a0)
e000621c:	0000                	unimp
e000621e:	0070                	addi	a2,sp,12
e0006220:	0000                	unimp
e0006222:	0070                	addi	a2,sp,12
e0006224:	0000                	unimp
e0006226:	a560                	fsd	fs0,200(a0)
e0006228:	0000                	unimp
e000622a:	0070                	addi	a2,sp,12
e000622c:	0000                	unimp
e000622e:	0070                	addi	a2,sp,12
e0006230:	0000                	unimp
e0006232:	a560                	fsd	fs0,200(a0)
e0006234:	0000                	unimp
e0006236:	0070                	addi	a2,sp,12
e0006238:	0000                	unimp
e000623a:	0070                	addi	a2,sp,12
e000623c:	0000                	unimp
e000623e:	a560                	fsd	fs0,200(a0)
e0006240:	0000                	unimp
e0006242:	0070                	addi	a2,sp,12
e0006244:	0000                	unimp
e0006246:	0070                	addi	a2,sp,12
e0006248:	0000                	unimp
e000624a:	64d0                	flw	fa2,12(s1)
e000624c:	0000                	unimp
e000624e:	0080                	addi	s0,sp,64
e0006250:	0000                	unimp
e0006252:	0080                	addi	s0,sp,64
e0006254:	0000                	unimp
e0006256:	64d0                	flw	fa2,12(s1)
e0006258:	0000                	unimp
e000625a:	0080                	addi	s0,sp,64
e000625c:	0000                	unimp
e000625e:	0080                	addi	s0,sp,64
e0006260:	0000                	unimp
e0006262:	64d0                	flw	fa2,12(s1)
e0006264:	0000                	unimp
e0006266:	0080                	addi	s0,sp,64
e0006268:	0000                	unimp
e000626a:	0080                	addi	s0,sp,64
e000626c:	0000                	unimp
e000626e:	64d0                	flw	fa2,12(s1)
e0006270:	0000                	unimp
e0006272:	0080                	addi	s0,sp,64
e0006274:	0000                	unimp
e0006276:	0080                	addi	s0,sp,64
e0006278:	0000                	unimp
e000627a:	64d0                	flw	fa2,12(s1)
e000627c:	0000                	unimp
e000627e:	0080                	addi	s0,sp,64
e0006280:	0000                	unimp
e0006282:	0080                	addi	s0,sp,64
e0006284:	0000                	unimp
e0006286:	64d0                	flw	fa2,12(s1)
e0006288:	0000                	unimp
e000628a:	0080                	addi	s0,sp,64
e000628c:	0000                	unimp
e000628e:	0080                	addi	s0,sp,64
e0006290:	0000                	unimp
e0006292:	64d0                	flw	fa2,12(s1)
e0006294:	0000                	unimp
e0006296:	0080                	addi	s0,sp,64
e0006298:	0000                	unimp
e000629a:	0080                	addi	s0,sp,64
e000629c:	0000                	unimp
e000629e:	08a0                	addi	s0,sp,88
e00062a0:	0000                	unimp
e00062a2:	0090                	addi	a2,sp,64
e00062a4:	0000                	unimp
e00062a6:	0080                	addi	s0,sp,64
e00062a8:	0000                	unimp
e00062aa:	0a90                	addi	a2,sp,336
e00062ac:	0000                	unimp
e00062ae:	0090                	addi	a2,sp,64
e00062b0:	0000                	unimp
e00062b2:	0090                	addi	a2,sp,64
e00062b4:	0000                	unimp
e00062b6:	0a90                	addi	a2,sp,336
e00062b8:	0000                	unimp
e00062ba:	0090                	addi	a2,sp,64
e00062bc:	0000                	unimp
e00062be:	0090                	addi	a2,sp,64
e00062c0:	0000                	unimp
e00062c2:	0a90                	addi	a2,sp,336
e00062c4:	0000                	unimp
e00062c6:	0090                	addi	a2,sp,64
e00062c8:	0000                	unimp
e00062ca:	0090                	addi	a2,sp,64
e00062cc:	0000                	unimp
e00062ce:	0a90                	addi	a2,sp,336
e00062d0:	0000                	unimp
e00062d2:	0090                	addi	a2,sp,64
e00062d4:	0000                	unimp
e00062d6:	0090                	addi	a2,sp,64
e00062d8:	0000                	unimp
e00062da:	0a90                	addi	a2,sp,336
e00062dc:	0000                	unimp
e00062de:	0090                	addi	a2,sp,64
e00062e0:	0000                	unimp
e00062e2:	0090                	addi	a2,sp,64
e00062e4:	0000                	unimp
e00062e6:	0a90                	addi	a2,sp,336
e00062e8:	0000                	unimp
e00062ea:	0090                	addi	a2,sp,64
e00062ec:	0000                	unimp
e00062ee:	0090                	addi	a2,sp,64
e00062f0:	0000                	unimp
e00062f2:	0a90                	addi	a2,sp,336
e00062f4:	0000                	unimp
e00062f6:	0090                	addi	a2,sp,64
e00062f8:	0000                	unimp
e00062fa:	0090                	addi	a2,sp,64
e00062fc:	0000                	unimp
e00062fe:	0000                	unimp
e0006300:	0000                	unimp
e0006302:	00a0                	addi	s0,sp,72
e0006304:	0000                	unimp
e0006306:	00a0                	addi	s0,sp,72
e0006308:	0000                	unimp
e000630a:	4b20                	lw	s0,80(a4)
e000630c:	0000                	unimp
e000630e:	00c0                	addi	s0,sp,68
e0006310:	0000                	unimp
e0006312:	00b0                	addi	a2,sp,72
e0006314:	0000                	unimp
e0006316:	a750                	fsd	fa2,136(a4)
e0006318:	0000                	unimp
e000631a:	00d0                	addi	a2,sp,68
e000631c:	0000                	unimp
e000631e:	00c0                	addi	s0,sp,68
e0006320:	0000                	unimp
e0006322:	a560                	fsd	fs0,200(a0)
e0006324:	0000                	unimp
e0006326:	00d0                	addi	a2,sp,68
e0006328:	0000                	unimp
e000632a:	00d0                	addi	a2,sp,68
e000632c:	0000                	unimp
e000632e:	aa90                	fsd	fa2,16(a3)
e0006330:	0000                	unimp
e0006332:	00e0                	addi	s0,sp,76
e0006334:	0000                	unimp
e0006336:	00d0                	addi	a2,sp,68
e0006338:	0000                	unimp
e000633a:	c380                	sw	s0,0(a5)
e000633c:	0000                	unimp
e000633e:	00f0                	addi	a2,sp,76
e0006340:	0000                	unimp
e0006342:	00e0                	addi	s0,sp,76
e0006344:	0000                	unimp
e0006346:	adc0                	fsd	fs0,152(a1)
e0006348:	0000                	unimp
e000634a:	0100                	addi	s0,sp,128
e000634c:	0000                	unimp
e000634e:	00f0                	addi	a2,sp,76
e0006350:	0000                	unimp
e0006352:	6b20                	flw	fs0,80(a4)
e0006354:	0000                	unimp
e0006356:	0100                	addi	s0,sp,128
e0006358:	0000                	unimp
e000635a:	0100                	addi	s0,sp,128
e000635c:	0000                	unimp
e000635e:	6b20                	flw	fs0,80(a4)
e0006360:	0000                	unimp
e0006362:	0100                	addi	s0,sp,128
e0006364:	0000                	unimp
e0006366:	0100                	addi	s0,sp,128
e0006368:	0000                	unimp
e000636a:	6b20                	flw	fs0,80(a4)
e000636c:	0000                	unimp
e000636e:	0100                	addi	s0,sp,128
e0006370:	0000                	unimp
e0006372:	0100                	addi	s0,sp,128
e0006374:	0000                	unimp
e0006376:	6b20                	flw	fs0,80(a4)
e0006378:	0000                	unimp
e000637a:	0100                	addi	s0,sp,128
e000637c:	0000                	unimp
e000637e:	0100                	addi	s0,sp,128
e0006380:	0000                	unimp
e0006382:	6b20                	flw	fs0,80(a4)
e0006384:	0000                	unimp
e0006386:	0100                	addi	s0,sp,128
e0006388:	0000                	unimp
e000638a:	0100                	addi	s0,sp,128
e000638c:	0000                	unimp
e000638e:	6b20                	flw	fs0,80(a4)
e0006390:	0000                	unimp
e0006392:	0100                	addi	s0,sp,128
e0006394:	0000                	unimp
e0006396:	0100                	addi	s0,sp,128
e0006398:	0000                	unimp
e000639a:	6b20                	flw	fs0,80(a4)
e000639c:	0000                	unimp
e000639e:	0100                	addi	s0,sp,128
e00063a0:	0000                	unimp
e00063a2:	0100                	addi	s0,sp,128
e00063a4:	0000                	unimp
e00063a6:	6b20                	flw	fs0,80(a4)
e00063a8:	0000                	unimp
e00063aa:	0100                	addi	s0,sp,128
e00063ac:	0000                	unimp
e00063ae:	0100                	addi	s0,sp,128
e00063b0:	0000                	unimp
e00063b2:	0a90                	addi	a2,sp,336
e00063b4:	0000                	unimp
e00063b6:	0120                	addi	s0,sp,136
e00063b8:	0000                	unimp
e00063ba:	0110                	addi	a2,sp,128
e00063bc:	0000                	unimp
e00063be:	44d0                	lw	a2,12(s1)
e00063c0:	0000                	unimp
e00063c2:	0140                	addi	s0,sp,132
e00063c4:	0000                	unimp
e00063c6:	0130                	addi	a2,sp,136
e00063c8:	0000                	unimp
e00063ca:	a8a0                	fsd	fs0,80(s1)
e00063cc:	0000                	unimp
e00063ce:	0150                	addi	a2,sp,132
e00063d0:	0000                	unimp
e00063d2:	0140                	addi	s0,sp,132
e00063d4:	0000                	unimp
e00063d6:	a560                	fsd	fs0,200(a0)
e00063d8:	0000                	unimp
e00063da:	0160                	addi	s0,sp,140
e00063dc:	0000                	unimp
e00063de:	0150                	addi	a2,sp,132
e00063e0:	0000                	unimp
e00063e2:	ce40                	sw	s0,28(a2)
e00063e4:	0000                	unimp
e00063e6:	0170                	addi	a2,sp,140
e00063e8:	0000                	unimp
e00063ea:	0170                	addi	a2,sp,140
e00063ec:	0000                	unimp
e00063ee:	ce40                	sw	s0,28(a2)
e00063f0:	0000                	unimp
e00063f2:	0170                	addi	a2,sp,140
e00063f4:	0000                	unimp
e00063f6:	0170                	addi	a2,sp,140
e00063f8:	0000                	unimp
e00063fa:	ce40                	sw	s0,28(a2)
e00063fc:	0000                	unimp
e00063fe:	0170                	addi	a2,sp,140
e0006400:	0000                	unimp
e0006402:	0170                	addi	a2,sp,140
e0006404:	0000                	unimp
e0006406:	0ff0                	addi	a2,sp,988
e0006408:	0000                	unimp
e000640a:	0180                	addi	s0,sp,192
e000640c:	0000                	unimp
e000640e:	0180                	addi	s0,sp,192
e0006410:	0000                	unimp
e0006412:	6380                	flw	fs0,0(a5)
e0006414:	0000                	unimp
e0006416:	0190                	addi	a2,sp,192
e0006418:	0000                	unimp
e000641a:	0180                	addi	s0,sp,192
e000641c:	0000                	unimp
e000641e:	61b0                	flw	fa2,64(a1)
e0006420:	0000                	unimp
e0006422:	0190                	addi	a2,sp,192
e0006424:	0000                	unimp
e0006426:	0190                	addi	a2,sp,192
e0006428:	0000                	unimp
e000642a:	0750                	addi	a2,sp,900
e000642c:	0000                	unimp
e000642e:	01b0                	addi	a2,sp,200
e0006430:	0000                	unimp
e0006432:	01a0                	addi	s0,sp,200
e0006434:	0000                	unimp
e0006436:	a000                	fsd	fs0,0(s0)
e0006438:	0000                	unimp
e000643a:	01c0                	addi	s0,sp,196
e000643c:	0000                	unimp
e000643e:	01c0                	addi	s0,sp,196
e0006440:	0000                	unimp
e0006442:	a000                	fsd	fs0,0(s0)
e0006444:	0000                	unimp
e0006446:	01c0                	addi	s0,sp,196
e0006448:	0000                	unimp
e000644a:	01c0                	addi	s0,sp,196
e000644c:	0000                	unimp
e000644e:	ce40                	sw	s0,28(a2)
e0006450:	0000                	unimp
e0006452:	01d0                	addi	a2,sp,196
e0006454:	0000                	unimp
e0006456:	01d0                	addi	a2,sp,196
e0006458:	0000                	unimp
e000645a:	ce40                	sw	s0,28(a2)
e000645c:	0000                	unimp
e000645e:	01d0                	addi	a2,sp,196
e0006460:	0000                	unimp
e0006462:	01d0                	addi	a2,sp,196
e0006464:	0000                	unimp
e0006466:	c4d0                	sw	a2,12(s1)
e0006468:	0000                	unimp
e000646a:	01e0                	addi	s0,sp,204
e000646c:	0000                	unimp
e000646e:	01e0                	addi	s0,sp,204
e0006470:	0000                	unimp
e0006472:	aa90                	fsd	fa2,16(a3)
e0006474:	0000                	unimp
e0006476:	01f0                	addi	a2,sp,204
e0006478:	0000                	unimp
e000647a:	01f0                	addi	a2,sp,204
e000647c:	29163697          	auipc	a3,0x29163
e0006480:	665642f7          	0x665642f7
e0006484:	0000                	unimp
e0006486:	7730                	flw	fa2,104(a4)
e0006488:	5742                	lw	a4,48(sp)
e000648a:	84d6                	mv	s1,s5
e000648c:	96c2                	add	a3,a3,a6
e000648e:	f626                	fsw	fs1,44(sp)
e0006490:	0000                	unimp
e0006492:	f650                	fsw	fa2,44(a2)
e0006494:	5742                	lw	a4,48(sp)
e0006496:	7236                	flw	ft4,108(sp)
e0006498:	f676e697          	auipc	a3,0xf676e
e000649c:	0000                	unimp
e000649e:	4730                	lw	a2,72(a4)
e00064a0:	56d6                	lw	a3,116(sp)
e00064a2:	c8a6                	sw	s1,80(sp)
e00064a4:	172665f7          	0x172665f7
e00064a8:	0000                	unimp
e00064aa:	4730                	lw	a2,72(a4)
e00064ac:	43861747          	fmsub.d	fa4,fa2,fs8,fs0,rtz
e00064b0:	b726                	fsd	fs1,424(sp)
e00064b2:	32f6                	fld	ft5,376(sp)
e00064b4:	0000                	unimp
e00064b6:	f770                	fsw	fa2,108(a4)
e00064b8:	1500                	addi	s0,sp,672
e00064ba:	4dc4                	lw	s1,28(a1)
e00064bc:	0632e737          	lui	a4,0x632e
e00064c0:	0000                	unimp
e00064c2:	5740                	lw	s0,44(a4)
e00064c4:	c494                	sw	a3,8(s1)
e00064c6:	84d4                	0x84d4
e00064c8:	0215                	addi	tp,tp,5
e00064ca:	1460                	addi	s0,sp,556
e00064cc:	0000                	unimp
e00064ce:	3530                	fld	fa2,104(a0)
e00064d0:	0000                	unimp
e00064d2:	0a90                	addi	a2,sp,336
e00064d4:	0000                	unimp
e00064d6:	0000                	unimp
e00064d8:	0000                	unimp
e00064da:	0210                	addi	a2,sp,256
e00064dc:	0000                	unimp
e00064de:	3dc0                	fld	fs0,184(a1)
e00064e0:	01cf0003          	lb	zero,28(t5)
e00064e4:	0000                	unimp
e00064e6:	f480                	fsw	fs0,40(s1)
e00064e8:	b00f0003          	lb	zero,-1280(t5)
e00064ec:	0000                	unimp
e00064ee:	f760                	fsw	fs0,108(a4)
e00064f0:	0000                	unimp
e00064f2:	0000                	unimp
e00064f4:	1dcf0003          	lb	zero,476(t5)
e00064f8:	0000                	unimp
e00064fa:	f480                	fsw	fs0,40(s1)
e00064fc:	0000                	unimp
e00064fe:	0000                	unimp
e0006500:	0000                	unimp
e0006502:	0ff0                	addi	a2,sp,988
e0006504:	0000                	unimp
e0006506:	0000                	unimp
e0006508:	0000                	unimp
e000650a:	0220                	addi	s0,sp,264
e000650c:	64d30257          	pv.vitop.sel	tp,t1,a3
e0006510:	325f0003          	lb	zero,805(t5)
e0006514:	0000                	unimp
e0006516:	f7c0                	fsw	fs0,44(a5)
e0006518:	94d64253          	0x94d64253
e000651c:	5206                	lw	tp,96(sp)
e000651e:	a732                	fsd	fa2,392(sp)
e0006520:	0000                	unimp
e0006522:	4350                	lw	a2,4(a4)
e0006524:	0490                	addi	a2,sp,576
e0006526:	bdc0                	fsd	fs0,184(a1)
e0006528:	d002                	sw	zero,32(sp)
e000652a:	00a0                	addi	s0,sp,72
e000652c:	0000                	unimp
e000652e:	05d0                	addi	a2,sp,708
e0006530:	0000                	unimp
e0006532:	18a0                	addi	s0,sp,120
e0006534:	0460                	addi	s0,sp,524
e0006536:	03f0                	addi	a2,sp,460
e0006538:	0000                	unimp
e000653a:	0570                	addi	a2,sp,652
e000653c:	c1bf0003          	lb	zero,-997(t5)
e0006540:	fc0f0003          	lb	zero,-64(t5)
e0006544:	0000                	unimp
e0006546:	fbe0                	fsw	fs0,116(a5)
e0006548:	afff0003          	lb	zero,-1281(t5)
e000654c:	0004                	addi	s1,sp,0
e000654e:	0000fc2f          	0xfc2f
e0006552:	2670                	fld	fa2,200(a2)
e0006554:	0001                	nop
e0006556:	64df 0001 e40f      	0xe40f000164df
e000655c:	0000                	unimp
e000655e:	e040                	fsw	fs0,4(s0)
e0006560:	0002                	0x2
e0006562:	00028dcf          	fnmadd.s	fs11,ft5,ft0,ft0,rne
e0006566:	0000064f          	fnmadd.s	fa2,ft0,ft0,ft0,rne
e000656a:	0640                	addi	s0,sp,772
e000656c:	0002                	0x2
e000656e:	00028dcf          	fnmadd.s	fs11,ft5,ft0,ft0,rne
e0006572:	0000064f          	fnmadd.s	fa2,ft0,ft0,ft0,rne
e0006576:	0640                	addi	s0,sp,772
e0006578:	0002                	0x2
e000657a:	00028dcf          	fnmadd.s	fs11,ft5,ft0,ft0,rne
e000657e:	0000064f          	fnmadd.s	fa2,ft0,ft0,ft0,rne
e0006582:	0640                	addi	s0,sp,772
e0006584:	0002                	0x2
e0006586:	00028dcf          	fnmadd.s	fs11,ft5,ft0,ft0,rne
e000658a:	0000064f          	fnmadd.s	fa2,ft0,ft0,ft0,rne
e000658e:	0640                	addi	s0,sp,772
e0006590:	0001                	nop
e0006592:	cc7f                	0xcc7f
e0006594:	0001                	nop
e0006596:	0000e82f          	0xe82f
e000659a:	e640                	fsw	fs0,12(a2)
e000659c:	0002                	0x2
e000659e:	0001d6ef          	jal	a3,e002359e <fromhost+0x1358e>
e00065a2:	0000064f          	fnmadd.s	fa2,ft0,ft0,ft0,rne
e00065a6:	dac0                	sw	s0,52(a3)
e00065a8:	0002                	0x2
e00065aa:	00028dcf          	fnmadd.s	fs11,ft5,ft0,ft0,rne
e00065ae:	0000064f          	fnmadd.s	fa2,ft0,ft0,ft0,rne
e00065b2:	0640                	addi	s0,sp,772
e00065b4:	0001                	nop
e00065b6:	0002856f          	jal	a0,e002e5b6 <fromhost+0x1e5a6>
e00065ba:	0000dacf          	fnmadd.s	fs5,ft1,ft0,ft0,unknown
e00065be:	0140                	addi	s0,sp,132
e00065c0:	0002                	0x2
e00065c2:	00028dcf          	fnmadd.s	fs11,ft5,ft0,ft0,rne
e00065c6:	0000064f          	fnmadd.s	fa2,ft0,ft0,ft0,rne
e00065ca:	0640                	addi	s0,sp,772
e00065cc:	0002                	0x2
e00065ce:	00028dcf          	fnmadd.s	fs11,ft5,ft0,ft0,rne
e00065d2:	0000064f          	fnmadd.s	fa2,ft0,ft0,ft0,rne
e00065d6:	0640                	addi	s0,sp,772
e00065d8:	0001                	nop
e00065da:	dc7f                	0xdc7f
e00065dc:	0002                	0x2
e00065de:	0000e9af          	0xe9af
e00065e2:	0640                	addi	s0,sp,772
e00065e4:	0002                	0x2
e00065e6:	00015b2f          	0x15b2f
e00065ea:	0000064f          	fnmadd.s	fa2,ft0,ft0,ft0,rne
e00065ee:	eb80                	fsw	fs0,16(a5)
e00065f0:	0001                	nop
e00065f2:	000128af          	amoadd.w	a7,zero,(sp)
e00065f6:	0000fb2f          	0xfb2f
e00065fa:	ef40                	fsw	fs0,28(a4)
e00065fc:	0001                	nop
e00065fe:	0002f6ef          	jal	a3,e00355fe <fromhost+0x255ee>
e0006602:	0000fcaf          	0xfcaf
e0006606:	0640                	addi	s0,sp,772
e0006608:	0002                	0x2
e000660a:	00028dcf          	fnmadd.s	fs11,ft5,ft0,ft0,rne
e000660e:	0000064f          	fnmadd.s	fa2,ft0,ft0,ft0,rne
e0006612:	0640                	addi	s0,sp,772
e0006614:	0002                	0x2
e0006616:	0001b23f 0000036f 	0x36f0001b23f
e000661e:	fe80                	fsw	fs0,56(a3)
e0006620:	1250                	addi	a2,sp,292
e0006622:	11b2                	slli	gp,gp,0x2c
e0006624:	03a78383          	lb	t2,58(a5)
e0006628:	0000                	unimp
e000662a:	0250                	addi	a2,sp,260
e000662c:	d002                	sw	zero,32(sp)
e000662e:	6002                	flw	ft0,0(sp)
e0006630:	0200                	addi	s0,sp,256
e0006632:	5002                	0x5002
e0006634:	0000                	unimp
e0006636:	0730                	addi	a2,sp,904
e0006638:	06e65757          	0x6e65757
e000663c:	27400783          	lb	a5,628(zero) # 274 <_min_stack-0x1d8c>
e0006640:	0000                	unimp
e0006642:	0000                	unimp
e0006644:	05d0                	addi	a2,sp,708
e0006646:	18a0                	addi	s0,sp,120
e0006648:	05b00227          	0x5b00227
e000664c:	0000                	unimp
e000664e:	b000                	fsd	fs0,32(s0)
e0006650:	ac735343          	fmadd.ah	t1,t1,t2,s5
e0006654:	1300                	addi	s0,sp,416
e0006656:	00003323          	0x3323
e000665a:	07d0                	addi	a2,sp,964
e000665c:	4636                	lw	a2,76(sp)
e000665e:	7566                	flw	fa0,120(sp)
e0006660:	26139383          	lh	t2,609(t2) # fffe0261 <pulp__FC+0xfffe0262>
e0006664:	0000                	unimp
e0006666:	7360                	flw	fs0,100(a4)
e0006668:	8656                	mv	a2,s5
e000666a:	c256c6e7          	0xc256c6e7
e000666e:	0000e753          	fadd.s	fa4,ft1,ft0,unknown
e0006672:	6650                	flw	fa2,12(a2)
e0006674:	e206                	fsw	ft1,4(sp)
e0006676:	8386                	mv	t2,ra
e0006678:	4636                	lw	a2,76(sp)
e000667a:	00004657          	pv.add.sc.h	a2,zero,zero
e000667e:	5700                	lw	s0,40(a4)
e0006680:	4616                	lw	a2,68(sp)
e0006682:	d8a6                	sw	s1,112(sp)
e0006684:	53e6                	lw	t2,120(sp)
e0006686:	23c2                	fld	ft7,16(sp)
e0006688:	0000                	unimp
e000668a:	c750                	sw	a2,12(a4)
e000668c:	03e6                	slli	t2,t2,0x19
e000668e:	46973563          	p.bneimm	a4,9,e0006af8 <_bss_end+0x9c>
e0006692:	8746                	mv	a4,a7
e0006694:	0000                	unimp
e0006696:	7200                	flw	fs0,32(a2)
e0006698:	57538373          	0x57538373
e000669c:	63534333          	0x63534333
e00066a0:	0000                	unimp
e00066a2:	2310                	fld	fa2,0(a4)
e00066a4:	5464                	lw	s1,108(s0)
e00066a6:	18a2                	slli	a7,a7,0x28
e00066a8:	3424                	fld	fs1,104(s0)
e00066aa:	5444                	lw	s1,44(s0)
e00066ac:	0000                	unimp
e00066ae:	1390                	addi	a2,sp,480
e00066b0:	e776                	fsw	ft9,140(sp)
e00066b2:	96e6                	add	a3,a3,s9
e00066b4:	f6e6b6e7          	0xf6e6b6e7
e00066b8:	0000                	unimp
e00066ba:	53c0                	lw	s0,36(a5)
e00066bc:	88a6b4f3          	csrrc	s1,0x88a,a3
e00066c0:	e6365707          	0xe6365707
e00066c4:	0000                	unimp
e00066c6:	3200                	fld	fs0,32(a2)
e00066c8:	c6c6                	sw	a7,76(sp)
e00066ca:	08a6                	slli	a7,a7,0x9
e00066cc:	e614                	fsw	fa3,8(a2)
e00066ce:	5636                	lw	a2,108(sp)
e00066d0:	0000                	unimp
e00066d2:	3000                	fld	fs0,32(s0)
e00066d4:	f6e6                	fsw	fs9,108(sp)
e00066d6:	7756                	flw	fa4,116(sp)
e00066d8:	5006                	0x5006
e00066da:	b6e5                	j	e00062c2 <FLASH_AES_SMOKETEST_SIGNED+0x5d32>
e00066dc:	0000                	unimp
e00066de:	4650                	lw	a2,12(a2)
e00066e0:	e1b6c617          	auipc	a2,0xe1b6c
e00066e4:	9006                	0x9006
e00066e6:	66e4                	flw	fs1,76(a3)
e00066e8:	0000                	unimp
e00066ea:	e770                	fsw	fa2,76(a4)
e00066ec:	78a656d7          	0x78a656d7
e00066f0:	2416                	fld	fs0,320(sp)
e00066f2:	00005677          	0x5677
e00066f6:	4690                	lw	a2,8(a3)
e00066f8:	c646                	sw	a7,12(sp)
e00066fa:	8006                	0x8006
e00066fc:	16544007          	0x16544007
e0006700:	0000                	unimp
e0006702:	46e0                	lw	s0,76(a3)
e0006704:	5656                	lw	a2,116(sp)
e0006706:	26e6                	fld	fa3,88(sp)
e0006708:	5656                	lw	a2,116(sp)
e000670a:	3784                	fld	fs1,40(a5)
e000670c:	0000                	unimp
e000670e:	e690                	fsw	fa2,8(a3)
e0006710:	6746                	flw	fa4,80(sp)
e0006712:	4004                	lw	s1,0(s0)
e0006714:	0646                	slli	a2,a2,0x11
e0006716:	f4e0                	fsw	fs0,108(s1)
e0006718:	0000                	unimp
e000671a:	5640                	lw	s0,44(a2)
e000671c:	26c4                	fld	fs1,136(a3)
e000671e:	46e7f6e7          	0x46e7f6e7
e0006722:	1006                	0x1006
e0006724:	0000                	unimp
e0006726:	56f0                	lw	a2,108(a3)
e0006728:	1a973697          	auipc	a3,0x1a973
e000672c:	9646                	add	a2,a2,a7
e000672e:	00008457          	pv.add.h	s0,ra,zero
e0006732:	1650                	addi	a2,sp,804
e0006734:	5a9696d7          	0x5a9696d7
e0006738:	26550007          	0x26550007
e000673c:	0000                	unimp
e000673e:	3740                	fld	fs0,168(a4)
e0006740:	e654                	fsw	fa3,12(a2)
e0006742:	b916                	fsd	ft5,176(sp)
e0006744:	46e6f697          	auipc	a3,0x46e6f
e0006748:	0000                	unimp
e000674a:	3730                	fld	fa2,104(a4)
e000674c:	f736                	fsw	fa3,172(sp)
e000674e:	ac76                	fsd	ft9,24(sp)
e0006750:	0646                	slli	a2,a2,0x11
e0006752:	5520                	lw	s0,104(a0)
e0006754:	0000                	unimp
e0006756:	5690                	lw	a2,40(a3)
e0006758:	88a61687          	0x88a61687
e000675c:	84565637          	lui	a2,0x84565
e0006760:	0000                	unimp
e0006762:	2750                	fld	fa2,136(a4)
e0006764:	1460                	addi	s0,sp,556
e0006766:	c386                	sw	ra,196(sp)
e0006768:	06465747          	0x6465747
e000676c:	0000                	unimp
e000676e:	3750                	fld	fa2,168(a4)
e0006770:	c2363657          	0xc2363657
e0006774:	4656                	lw	a2,84(sp)
e0006776:	2506                	fld	fa0,64(sp)
e0006778:	0000                	unimp
e000677a:	c690                	sw	a2,8(a3)
e000677c:	e6f6                	fsw	ft9,76(sp)
e000677e:	2b26                	fld	fs6,72(sp)
e0006780:	9646                	add	a2,a2,a7
e0006782:	9746                	add	a4,a4,a7
e0006784:	0000                	unimp
e0006786:	e6f0                	fsw	fa2,76(a3)
e0006788:	47564657          	0x47564657
e000678c:	f624                	fsw	fs1,104(a2)
e000678e:	4726                	lw	a4,72(sp)
e0006790:	0000                	unimp
e0006792:	1000                	addi	s0,sp,32
e0006794:	1526                	slli	a0,a0,0x29
e0006796:	38a6                	fld	fa7,104(sp)
e0006798:	4754                	lw	a3,12(a4)
e000679a:	000064f7          	0x64f7
e000679e:	f000                	fsw	fs0,32(s0)
e00067a0:	d696                	sw	t0,108(sp)
e00067a2:	8dc6                	mv	s11,a7
e00067a4:	0656                	slli	a2,a2,0x15
e00067a6:	e550                	fsw	fa2,12(a0)
e00067a8:	0000                	unimp
e00067aa:	76e0                	flw	fs0,108(a3)
e00067ac:	5746                	lw	a4,112(sp)
e00067ae:	8e46                	mv	t3,a7
e00067b0:	d656                	sw	s5,44(sp)
e00067b2:	e656                	fsw	fs5,12(sp)
e00067b4:	0000                	unimp
e00067b6:	c700                	sw	s0,8(a4)
e00067b8:	e726                	fsw	fs1,140(sp)
e00067ba:	9e46                	add	t3,t3,a7
e00067bc:	e490                	fsw	fa2,8(s1)
e00067be:	5746                	lw	a4,112(sp)
e00067c0:	0000                	unimp
e00067c2:	0640                	addi	s0,sp,772
e00067c4:	1766                	slli	a4,a4,0x39
e00067c6:	6916                	flw	fs2,68(sp)
e00067c8:	5006                	0x5006
e00067ca:	16e5                	addi	a3,a3,-7
e00067cc:	0000                	unimp
e00067ce:	c610                	sw	a2,8(a2)
e00067d0:	4006                	0x4006
e00067d2:	88a4                	0x88a4
e00067d4:	2616                	fld	fa2,320(sp)
e00067d6:	56c6                	lw	a3,112(sp)
e00067d8:	0000                	unimp
e00067da:	c690                	sw	a2,8(a3)
e00067dc:	38a00737          	lui	a4,0x38a00
e00067e0:	36f4c617          	auipc	a2,0x36f4c
e00067e4:	0000                	unimp
e00067e6:	4610                	lw	a2,8(a2)
e00067e8:	e656                	fsw	fs5,12(sp)
e00067ea:	e006                	fsw	ft1,0(sp)
e00067ec:	5616                	lw	a2,100(sp)
e00067ee:	00008747          	fmsub.s	fa4,ft1,ft0,ft0,rne
e00067f2:	e550                	fsw	fa2,12(a0)
e00067f4:	0646                	slli	a2,a2,0x11
e00067f6:	e380                	fsw	fs0,0(a5)
e00067f8:	1636                	slli	a2,a2,0x2d
e00067fa:	5746                	lw	a4,112(sp)
e00067fc:	0000                	unimp
e00067fe:	9740                	0x9740
e0006800:	56e6                	lw	a3,120(sp)
e0006802:	ea96                	fsw	ft5,84(sp)
e0006804:	5646                	lw	a2,112(sp)
e0006806:	9666                	add	a2,a2,s9
e0006808:	0000                	unimp
e000680a:	e550                	fsw	fa2,12(a0)
e000680c:	5646                	lw	a2,112(sp)
e000680e:	eff6                	fsw	ft9,220(sp)
e0006810:	e5500373          	0xe5500373
e0006814:	0000                	unimp
e0006816:	1640                	addi	s0,sp,804
e0006818:	c1b00383          	lb	t2,-997(zero) # fffffc1b <pulp__FC+0xfffffc1c>
e000681c:	56e6                	lw	a3,120(sp)
e000681e:	1646                	slli	a2,a2,0x31
e0006820:	0000                	unimp
e0006822:	9660                	0x9660
e0006824:	56e6                	lw	a3,120(sp)
e0006826:	ea96                	fsw	ft5,84(sp)
e0006828:	5646                	lw	a2,112(sp)
e000682a:	9666                	add	a2,a2,s9
e000682c:	0000                	unimp
e000682e:	e550                	fsw	fa2,12(a0)
e0006830:	5646                	lw	a2,112(sp)
e0006832:	fa96                	fsw	ft5,116(sp)
e0006834:	e5500393          	li	t2,-427
e0006838:	0000                	unimp
e000683a:	1640                	addi	s0,sp,804
e000683c:	66e00303          	lb	t1,1646(zero) # 66e <_min_stack-0x1992>
e0006840:	56e6                	lw	a3,120(sp)
e0006842:	2646                	fld	fa2,80(sp)
e0006844:	0000                	unimp
e0006846:	9660                	0x9660
e0006848:	56e6                	lw	a3,120(sp)
e000684a:	ea96                	fsw	ft5,84(sp)
e000684c:	5646                	lw	a2,112(sp)
e000684e:	9666                	add	a2,a2,s9
e0006850:	0000                	unimp
e0006852:	e550                	fsw	fa2,12(a0)
e0006854:	5646                	lw	a2,112(sp)
e0006856:	6236                	flw	ft4,76(sp)
e0006858:	e5500313          	li	t1,-427
e000685c:	0000                	unimp
e000685e:	2640                	fld	fs0,136(a2)
e0006860:	95600323          	sb	s6,-1722(zero) # fffff946 <pulp__FC+0xfffff947>
e0006864:	56e6                	lw	a3,120(sp)
e0006866:	2646                	fld	fa2,80(sp)
e0006868:	0000                	unimp
e000686a:	9660                	0x9660
e000686c:	56e6                	lw	a3,120(sp)
e000686e:	ea96                	fsw	ft5,84(sp)
e0006870:	5646                	lw	a2,112(sp)
e0006872:	9666                	add	a2,a2,s9
e0006874:	0000                	unimp
e0006876:	e550                	fsw	fa2,12(a0)
e0006878:	5646                	lw	a2,112(sp)
e000687a:	3e46                	fld	ft8,112(sp)
e000687c:	e5500333          	p.extract	t1,zero,18,21
e0006880:	0000                	unimp
e0006882:	2640                	fld	fs0,136(a2)
e0006884:	dc700343          	fmadd.h	t1,zero,t2,s11,rne
e0006888:	56e6                	lw	a3,120(sp)
e000688a:	2646                	fld	fa2,80(sp)
e000688c:	0000                	unimp
e000688e:	9660                	0x9660
e0006890:	56e6                	lw	a3,120(sp)
e0006892:	ea96                	fsw	ft5,84(sp)
e0006894:	5646                	lw	a2,112(sp)
e0006896:	9666                	add	a2,a2,s9
e0006898:	0000                	unimp
e000689a:	e550                	fsw	fa2,12(a0)
e000689c:	5646                	lw	a2,112(sp)
e000689e:	31b6                	fld	ft3,360(sp)
e00068a0:	e5500353          	0xe5500353
e00068a4:	0000                	unimp
e00068a6:	2640                	fld	fs0,136(a2)
e00068a8:	2ff00363          	beq	zero,t6,e0006b8e <_bss_end+0x132>
e00068ac:	56e6                	lw	a3,120(sp)
e00068ae:	2646                	fld	fa2,80(sp)
e00068b0:	0000                	unimp
e00068b2:	9660                	0x9660
e00068b4:	56e6                	lw	a3,120(sp)
e00068b6:	ea96                	fsw	ft5,84(sp)
e00068b8:	5646                	lw	a2,112(sp)
e00068ba:	9666                	add	a2,a2,s9
e00068bc:	0000                	unimp
e00068be:	e550                	fsw	fa2,12(a0)
e00068c0:	5646                	lw	a2,112(sp)
e00068c2:	6dc6                	flw	fs11,80(sp)
e00068c4:	e5500373          	0xe5500373
e00068c8:	0000                	unimp
e00068ca:	2640                	fld	fs0,136(a2)
e00068cc:	5e400383          	lb	t2,1508(zero) # 5e4 <_min_stack-0x1a1c>
e00068d0:	56e6                	lw	a3,120(sp)
e00068d2:	2646                	fld	fa2,80(sp)
e00068d4:	0000                	unimp
e00068d6:	9660                	0x9660
e00068d8:	56e6                	lw	a3,120(sp)
e00068da:	ea96                	fsw	ft5,84(sp)
e00068dc:	5646                	lw	a2,112(sp)
e00068de:	9666                	add	a2,a2,s9
e00068e0:	0000                	unimp
e00068e2:	e550                	fsw	fa2,12(a0)
e00068e4:	5646                	lw	a2,112(sp)
e00068e6:	78a6                	flw	fa7,104(sp)
e00068e8:	e5500393          	li	t2,-427
e00068ec:	0000                	unimp
e00068ee:	2640                	fld	fs0,136(a2)
e00068f0:	49100303          	lb	t1,1169(zero) # 491 <_min_stack-0x1b6f>
e00068f4:	56e6                	lw	a3,120(sp)
e00068f6:	3646                	fld	fa2,112(sp)
e00068f8:	0000                	unimp
e00068fa:	9660                	0x9660
e00068fc:	56e6                	lw	a3,120(sp)
e00068fe:	ea96                	fsw	ft5,84(sp)
e0006900:	5646                	lw	a2,112(sp)
e0006902:	9666                	add	a2,a2,s9
e0006904:	0000                	unimp
e0006906:	e550                	fsw	fa2,12(a0)
e0006908:	84d6f727          	0x84d6f727
e000690c:	24500313          	li	t1,581
e0006910:	0000                	unimp
e0006912:	3640                	fld	fs0,168(a2)
e0006914:	a2300007          	0xa2300007
e0006918:	2724                	fld	fs1,72(a4)
e000691a:	000026f7          	0x26f7
e000691e:	5720                	lw	s0,104(a4)
e0006920:	54c4                	lw	s1,44(s1)
e0006922:	ec74                	fsw	fa3,92(s0)
e0006924:	0000                	unimp
e0006926:	4490                	lw	a2,8(s1)
e0006928:	0000                	unimp
e000692a:	0040                	addi	s0,sp,4
e000692c:	0000                	unimp
e000692e:	6c70                	flw	fa2,92(s0)
e0006930:	0000                	unimp
e0006932:	0010                	addi	a2,sp,0
e0006934:	0000                	unimp
e0006936:	0000                	unimp
e0006938:	0000                	unimp
e000693a:	5380                	lw	s0,32(a5)
e000693c:	007a                	0x7a
e000693e:	0000                	unimp
e0006940:	0000                	unimp
e0006942:	1200                	addi	s0,sp,288
e0006944:	0000                	unimp
e0006946:	1a90                	addi	a2,sp,368
e0006948:	001e                	0x1e
e000694a:	0000                	unimp
e000694c:	0000                	unimp
e000694e:	8480                	0x8480
e0006950:	0000                	unimp
e0006952:	0560                	addi	s0,sp,652
e0006954:	0001                	nop
e0006956:	0000                	unimp
e0006958:	0000                	unimp
e000695a:	c200                	sw	s0,0(a2)
e000695c:	0000                	unimp
e000695e:	2000                	fld	fs0,0(s0)
e0006960:	c000                	sw	s0,0(s0)
e0006962:	0001                	nop
e0006964:	0000                	unimp
e0006966:	0000                	unimp
e0006968:	0004                	addi	s1,sp,0
e000696a:	2a9f 0004 0d1f      	0xd1f00042a9f
e0006970:	0000                	unimp
e0006972:	0ce0                	addi	s0,sp,604
e0006974:	0004                	addi	s1,sp,0
e0006976:	000408af          	0x408af
e000697a:	00000e3f 00040db0 	0x40db000000e3f
e0006982:	e91f 0004 104f      	0x104f0004e91f
e0006988:	0000                	unimp
e000698a:	0f30                	addi	a2,sp,920
e000698c:	0004                	addi	s1,sp,0
e000698e:	000441bf 000011bf 	0x11bf000441bf
e0006996:	10d0                	addi	a2,sp,100
e0006998:	0004                	addi	s1,sp,0
e000699a:	0004a00f          	0x4a00f
e000699e:	000013ef          	jal	t2,e000799e <_bss_end+0xf42>
e00069a2:	12c0                	addi	s0,sp,356
e00069a4:	0004                	addi	s1,sp,0
e00069a6:	44df 0004 159f      	0x159f000444df
e00069ac:	0000                	unimp
e00069ae:	1510                	addi	a2,sp,672
e00069b0:	0004                	addi	s1,sp,0
e00069b2:	00044b2f          	0x44b2f
e00069b6:	0000172f          	0x172f
e00069ba:	1640                	addi	s0,sp,804
e00069bc:	0004                	addi	s1,sp,0
e00069be:	0004056f          	jal	a0,e00469be <fromhost+0x369ae>
e00069c2:	187f                	0x187f
e00069c4:	0000                	unimp
e00069c6:	17b0                	addi	a2,sp,1000
e00069c8:	0004                	addi	s1,sp,0
e00069ca:	0004000f          	0x4000f
e00069ce:	00001a0f          	0x1a0f
e00069d2:	1900                	addi	s0,sp,176
e00069d4:	0004                	addi	s1,sp,0
e00069d6:	0004823f 00001b8f 	0x1b8f0004823f
e00069de:	1ac0                	addi	s0,sp,372
e00069e0:	0004                	addi	s1,sp,0
e00069e2:	0004e6ef          	jal	a3,e00549e2 <fromhost+0x449d2>
e00069e6:	00001d0f          	0x1d0f
e00069ea:	1c40                	addi	s0,sp,564
e00069ec:	0004                	addi	s1,sp,0
e00069ee:	44df 0004 1e8f      	0x1e8f000444df
e00069f4:	0000                	unimp
e00069f6:	1dc0                	addi	s0,sp,756
e00069f8:	0004                	addi	s1,sp,0
e00069fa:	000498af          	0x498af
e00069fe:	0000200f          	0x200f
e0006a02:	1f40                	addi	s0,sp,948
e0006a04:	0004                	addi	s1,sp,0
e0006a06:	000451bf 0000218f 	0x218f000451bf
e0006a0e:	20c0                	fld	fs0,128(s1)
e0006a10:	0004                	addi	s1,sp,0
e0006a12:	0004900f          	0x4900f
e0006a16:	0000230f          	0x230f
e0006a1a:	2240                	fld	fs0,128(a2)
e0006a1c:	0004                	addi	s1,sp,0
e0006a1e:	0004d6ef          	jal	a3,e0053a1e <fromhost+0x43a0e>
e0006a22:	0000248f          	0x248f
e0006a26:	23c0                	fld	fs0,128(a5)
e0006a28:	ffff                	0xffff
e0006a2a:	b4df 0004 ffff      	0xffff0004b4df
e0006a30:	0000                	unimp
e0006a32:	2540                	fld	fs0,136(a0)
e0006a34:	6e28                	flw	fa0,88(a2)
e0006a36:	6c75                	lui	s8,0x1d
e0006a38:	296c                	fld	fa1,208(a0)
e0006a3a:	0000                	unimp
e0006a3c:	5845                	li	a6,-15
e0006a3e:	54504543          	fmadd.h	a0,zero,t0,a0,rmm
e0006a42:	4f49                	li	t5,18
e0006a44:	214e                	fld	ft2,208(sp)
e0006a46:	2121                	jal	e0006e4e <_bss_end+0x3f2>
e0006a48:	0a0d                	addi	s4,s4,3
	...

Disassembly of section .data:

e0006a4c <remu10_table>:
e0006a4c:	0100                	addi	s0,sp,128
e0006a4e:	0202                	slli	tp,tp,0x0
e0006a50:	05040303          	lb	t1,80(s0) # d050 <_stack_len+0x5050>
e0006a54:	0605                	addi	a2,a2,1
e0006a56:	08080707          	0x8080707
e0006a5a:	0009                	c.addi	zero,2

Disassembly of section .stack:

e0008000 <_stack-0x2000>:
	...

Disassembly of section .debug_frame:

00000000 <.debug_frame>:
   0:	000c                	addi	a1,sp,0
   2:	0000                	unimp
   4:	ffff                	0xffff
   6:	ffff                	0xffff
   8:	7c010003          	lb	zero,1984(sp)
   c:	0c01                	addi	s8,s8,0
   e:	0002                	0x2
  10:	000c                	addi	a1,sp,0
  12:	0000                	unimp
  14:	0000                	unimp
  16:	0000                	unimp
  18:	0084                	addi	s1,sp,64
  1a:	e000                	fsw	fs0,0(s0)
  1c:	002e                	0x2e
  1e:	0000                	unimp
  20:	000c                	addi	a1,sp,0
  22:	0000                	unimp
  24:	0000                	unimp
  26:	0000                	unimp
  28:	00b2                	slli	ra,ra,0xc
  2a:	e000                	fsw	fs0,0(s0)
  2c:	0026                	0x26
  2e:	0000                	unimp
  30:	000c                	addi	a1,sp,0
  32:	0000                	unimp
  34:	0000                	unimp
  36:	0000                	unimp
  38:	00d8                	addi	a4,sp,68
  3a:	e000                	fsw	fs0,0(s0)
  3c:	0012                	0x12
  3e:	0000                	unimp
  40:	000c                	addi	a1,sp,0
  42:	0000                	unimp
  44:	0000                	unimp
  46:	0000                	unimp
  48:	00ea                	slli	ra,ra,0x1a
  4a:	e000                	fsw	fs0,0(s0)
  4c:	0010                	addi	a2,sp,0
  4e:	0000                	unimp
  50:	0058                	addi	a4,sp,4
  52:	0000                	unimp
  54:	0000                	unimp
  56:	0000                	unimp
  58:	00fa                	slli	ra,ra,0x1e
  5a:	e000                	fsw	fs0,0(s0)
  5c:	00a6                	slli	ra,ra,0x9
  5e:	0000                	unimp
  60:	0204                	addi	s1,sp,256
  62:	0000                	unimp
  64:	0e00                	addi	s0,sp,784
  66:	0420                	addi	s0,sp,520
  68:	000c                	addi	a1,sp,0
  6a:	0000                	unimp
  6c:	0288                	addi	a0,sp,320
  6e:	0389                	addi	t2,t2,2
  70:	0492                	slli	s1,s1,0x4
  72:	0181                	addi	gp,gp,0
  74:	06940593          	addi	a1,s0,105
  78:	5a04                	lw	s1,48(a2)
  7a:	0000                	unimp
  7c:	0a00                	addi	s0,sp,272
  7e:	04c1                	addi	s1,s1,16
  80:	0002                	0x2
  82:	0000                	unimp
  84:	04c8                	addi	a0,sp,580
  86:	0002                	0x2
  88:	0000                	unimp
  8a:	04c9                	addi	s1,s1,18
  8c:	0002                	0x2
  8e:	0000                	unimp
  90:	04d2                	slli	s1,s1,0x14
  92:	0002                	0x2
  94:	0000                	unimp
  96:	000204d3          	fadd.s	fs1,ft4,ft0,rne
  9a:	0000                	unimp
  9c:	04d4                	addi	a3,sp,580
  9e:	0002                	0x2
  a0:	0000                	unimp
  a2:	000e                	0xe
  a4:	0204                	addi	s1,sp,256
  a6:	0000                	unimp
  a8:	0b00                	addi	s0,sp,400
  aa:	0000                	unimp
  ac:	0040                	addi	s0,sp,4
  ae:	0000                	unimp
  b0:	0000                	unimp
  b2:	0000                	unimp
  b4:	01a0                	addi	s0,sp,200
  b6:	e000                	fsw	fs0,0(s0)
  b8:	00fa                	slli	ra,ra,0x1e
  ba:	0000                	unimp
  bc:	0204                	addi	s1,sp,256
  be:	0000                	unimp
  c0:	0e00                	addi	s0,sp,784
  c2:	0440                	addi	s0,sp,516
  c4:	0006                	0x6
  c6:	0000                	unimp
  c8:	0389                	addi	t2,t2,2
  ca:	0181                	addi	gp,gp,0
  cc:	0288                	addi	a0,sp,320
  ce:	1604                	addi	s1,sp,800
  d0:	0000                	unimp
  d2:	0a00                	addi	s0,sp,272
  d4:	04c1                	addi	s1,s1,16
  d6:	0002                	0x2
  d8:	0000                	unimp
  da:	04c8                	addi	a0,sp,580
  dc:	0002                	0x2
  de:	0000                	unimp
  e0:	04c9                	addi	s1,s1,18
  e2:	0002                	0x2
  e4:	0000                	unimp
  e6:	000e                	0xe
  e8:	0204                	addi	s1,sp,256
  ea:	0000                	unimp
  ec:	0b00                	addi	s0,sp,400
  ee:	0000                	unimp
  f0:	000c                	addi	a1,sp,0
  f2:	0000                	unimp
  f4:	0000                	unimp
  f6:	0000                	unimp
  f8:	029a                	slli	t0,t0,0x6
  fa:	e000                	fsw	fs0,0(s0)
  fc:	000e                	0xe
  fe:	0000                	unimp
 100:	0034                	addi	a3,sp,8
 102:	0000                	unimp
 104:	0000                	unimp
 106:	0000                	unimp
 108:	02a8                	addi	a0,sp,328
 10a:	e000                	fsw	fs0,0(s0)
 10c:	0018                	addi	a4,sp,0
 10e:	0000                	unimp
 110:	0204                	addi	s1,sp,256
 112:	0000                	unimp
 114:	0e00                	addi	s0,sp,784
 116:	0410                	addi	a2,sp,512
 118:	0002                	0x2
 11a:	0000                	unimp
 11c:	0288                	addi	a0,sp,320
 11e:	0804                	addi	s1,sp,16
 120:	0000                	unimp
 122:	8100                	0x8100
 124:	0401                	addi	s0,s0,0
 126:	0006                	0x6
 128:	0000                	unimp
 12a:	04c1                	addi	s1,s1,16
 12c:	0002                	0x2
 12e:	0000                	unimp
 130:	04c8                	addi	a0,sp,580
 132:	0002                	0x2
 134:	0000                	unimp
 136:	000e                	0xe
 138:	007c                	addi	a5,sp,12
 13a:	0000                	unimp
 13c:	0000                	unimp
 13e:	0000                	unimp
 140:	02c0                	addi	s0,sp,324
 142:	e000                	fsw	fs0,0(s0)
 144:	0158                	addi	a4,sp,132
 146:	0000                	unimp
 148:	0204                	addi	s1,sp,256
 14a:	0000                	unimp
 14c:	0e00                	addi	s0,sp,784
 14e:	0460                	addi	s0,sp,524
 150:	0002                	0x2
 152:	0000                	unimp
 154:	0a88                	addi	a0,sp,336
 156:	1404                	addi	s1,sp,544
 158:	0000                	unimp
 15a:	8900                	0x8900
 15c:	930c920b          	p.lh	tp,-1744(s9!)
 160:	940d                	srai	s0,s0,0x23
 162:	950e                	add	a0,a0,gp
 164:	9710960f          	0x9710960f
 168:	8111                	srli	a0,a0,0x4
 16a:	9809                	andi	s0,s0,-30
 16c:	0412                	slli	s0,s0,0x4
 16e:	0032                	0x32
 170:	0000                	unimp
 172:	c10a                	sw	sp,128(sp)
 174:	0204                	addi	s1,sp,256
 176:	0000                	unimp
 178:	c800                	sw	s0,16(s0)
 17a:	0404                	addi	s1,sp,512
 17c:	0000                	unimp
 17e:	c900                	sw	s0,16(a0)
 180:	0204                	addi	s1,sp,256
 182:	0000                	unimp
 184:	d200                	sw	s0,32(a2)
 186:	0204                	addi	s1,sp,256
 188:	0000                	unimp
 18a:	d300                	sw	s0,32(a4)
 18c:	0204                	addi	s1,sp,256
 18e:	0000                	unimp
 190:	d400                	sw	s0,40(s0)
 192:	0204                	addi	s1,sp,256
 194:	0000                	unimp
 196:	d500                	sw	s0,40(a0)
 198:	0204                	addi	s1,sp,256
 19a:	0000                	unimp
 19c:	d600                	sw	s0,40(a2)
 19e:	0204                	addi	s1,sp,256
 1a0:	0000                	unimp
 1a2:	d700                	sw	s0,40(a4)
 1a4:	0204                	addi	s1,sp,256
 1a6:	0000                	unimp
 1a8:	d800                	sw	s0,48(s0)
 1aa:	0204                	addi	s1,sp,256
 1ac:	0000                	unimp
 1ae:	0e00                	addi	s0,sp,784
 1b0:	0400                	addi	s0,sp,512
 1b2:	0002                	0x2
 1b4:	0000                	unimp
 1b6:	000c000b          	p.lb	zero,0(s8!) # 1d000 <_stack_len+0x15000>
 1ba:	0000                	unimp
 1bc:	0000                	unimp
 1be:	0000                	unimp
 1c0:	0418                	addi	a4,sp,512
 1c2:	e000                	fsw	fs0,0(s0)
 1c4:	000a                	0xa
 1c6:	0000                	unimp
 1c8:	0048                	addi	a0,sp,4
 1ca:	0000                	unimp
 1cc:	0000                	unimp
 1ce:	0000                	unimp
 1d0:	0422                	slli	s0,s0,0x8
 1d2:	e000                	fsw	fs0,0(s0)
 1d4:	0030                	addi	a2,sp,8
 1d6:	0000                	unimp
 1d8:	0204                	addi	s1,sp,256
 1da:	0000                	unimp
 1dc:	0e00                	addi	s0,sp,784
 1de:	0410                	addi	a2,sp,512
 1e0:	0008                	addi	a0,sp,0
 1e2:	0000                	unimp
 1e4:	0288                	addi	a0,sp,320
 1e6:	0389                	addi	t2,t2,2
 1e8:	0181                	addi	gp,gp,0
 1ea:	0492                	slli	s1,s1,0x4
 1ec:	1604                	addi	s1,sp,800
 1ee:	0000                	unimp
 1f0:	0a00                	addi	s0,sp,272
 1f2:	04c1                	addi	s1,s1,16
 1f4:	0002                	0x2
 1f6:	0000                	unimp
 1f8:	04c8                	addi	a0,sp,580
 1fa:	0004                	addi	s1,sp,0
 1fc:	0000                	unimp
 1fe:	04c9                	addi	s1,s1,18
 200:	0002                	0x2
 202:	0000                	unimp
 204:	04d2                	slli	s1,s1,0x14
 206:	0002                	0x2
 208:	0000                	unimp
 20a:	000e                	0xe
 20c:	0204                	addi	s1,sp,256
 20e:	0000                	unimp
 210:	0b00                	addi	s0,sp,400
 212:	0000                	unimp
 214:	0058                	addi	a4,sp,4
 216:	0000                	unimp
 218:	0000                	unimp
 21a:	0000                	unimp
 21c:	0452                	slli	s0,s0,0x14
 21e:	e000                	fsw	fs0,0(s0)
 220:	006c                	addi	a1,sp,12
 222:	0000                	unimp
 224:	0204                	addi	s1,sp,256
 226:	0000                	unimp
 228:	0e00                	addi	s0,sp,784
 22a:	0420                	addi	s0,sp,520
 22c:	000e                	0xe
 22e:	0000                	unimp
 230:	058e                	slli	a1,a1,0x3
 232:	018a068f          	0x18a068f
 236:	038c028b          	p.lb	t0,56(s8!)
 23a:	048d                	addi	s1,s1,3
 23c:	0790                	addi	a2,sp,960
 23e:	4a04                	lw	s1,16(a2)
 240:	0000                	unimp
 242:	ca00                	sw	s0,16(a2)
 244:	0204                	addi	s1,sp,256
 246:	0000                	unimp
 248:	cb00                	sw	s0,16(a4)
 24a:	0204                	addi	s1,sp,256
 24c:	0000                	unimp
 24e:	cc00                	sw	s0,24(s0)
 250:	0204                	addi	s1,sp,256
 252:	0000                	unimp
 254:	cd00                	sw	s0,24(a0)
 256:	0204                	addi	s1,sp,256
 258:	0000                	unimp
 25a:	ce00                	sw	s0,24(a2)
 25c:	0204                	addi	s1,sp,256
 25e:	0000                	unimp
 260:	cf00                	sw	s0,24(a4)
 262:	0204                	addi	s1,sp,256
 264:	0000                	unimp
 266:	d000                	sw	s0,32(s0)
 268:	0204                	addi	s1,sp,256
 26a:	0000                	unimp
 26c:	0e00                	addi	s0,sp,784
 26e:	0000                	unimp
 270:	000c                	addi	a1,sp,0
 272:	0000                	unimp
 274:	ffff                	0xffff
 276:	ffff                	0xffff
 278:	7c010003          	lb	zero,1984(sp)
 27c:	0c01                	addi	s8,s8,0
 27e:	0002                	0x2
 280:	000c                	addi	a1,sp,0
 282:	0000                	unimp
 284:	0270                	addi	a2,sp,268
 286:	0000                	unimp
 288:	053a                	slli	a0,a0,0xe
 28a:	e000                	fsw	fs0,0(s0)
 28c:	0056                	0x56
	...

Disassembly of section .debug_info:

00000000 <.debug_info>:
   0:	0924                	addi	s1,sp,152
   2:	0000                	unimp
   4:	0004                	addi	s1,sp,0
   6:	0000                	unimp
   8:	0000                	unimp
   a:	0104                	addi	s1,sp,128
   c:	0000012b          	p.sb	zero,2(zero!) # 2 <_min_stack-0x1ffe>
  10:	080c                	addi	a1,sp,16
  12:	0000                	unimp
  14:	1800                	addi	s0,sp,48
  16:	0002                	0x2
  18:	8400                	0x8400
  1a:	0000                	unimp
  1c:	3ae0                	fld	fs0,240(a3)
  1e:	0004                	addi	s1,sp,0
  20:	0000                	unimp
  22:	0000                	unimp
  24:	0200                	addi	s0,sp,256
  26:	026d                	addi	tp,tp,27
  28:	0000                	unimp
  2a:	2802                	fld	fa6,0(sp)
  2c:	0030                	addi	a2,sp,8
  2e:	0000                	unimp
  30:	01f10403          	lb	s0,31(sp)
  34:	0000                	unimp
  36:	7402                	flw	fs0,32(sp)
  38:	0002                	0x2
  3a:	0200                	addi	s0,sp,256
  3c:	00002563          	p.beqimm	zero,0,46 <_min_stack-0x1fba>
  40:	0400                	addi	s0,sp,512
  42:	0504                	addi	s1,sp,640
  44:	6e69                	lui	t3,0x1a
  46:	0074                	addi	a3,sp,12
  48:	4105                	li	sp,1
  4a:	0000                	unimp
  4c:	0600                	addi	s0,sp,768
  4e:	0704                	addi	s1,sp,896
  50:	01a1                	addi	gp,gp,8
  52:	0000                	unimp
  54:	0806                	slli	a6,a6,0x1
  56:	8f05                	sub	a4,a4,s1
  58:	0000                	unimp
  5a:	0600                	addi	s0,sp,768
  5c:	0410                	addi	a2,sp,512
  5e:	00ff                	0xff
  60:	0000                	unimp
  62:	0106                	slli	sp,sp,0x1
  64:	0d06                	slli	s10,s10,0x1
  66:	0001                	nop
  68:	0600                	addi	s0,sp,768
  6a:	0502                	slli	a0,a0,0x0
  6c:	0044                	addi	s1,sp,4
  6e:	0000                	unimp
  70:	0406                	slli	s0,s0,0x1
  72:	9405                	srai	s0,s0,0x21
  74:	0000                	unimp
  76:	0600                	addi	s0,sp,768
  78:	0801                	addi	a6,a6,0
  7a:	0000010b          	p.lb	sp,0(zero!) # 0 <_min_stack-0x2000>
  7e:	b502                	fsd	ft0,168(sp)
  80:	0001                	nop
  82:	0300                	addi	s0,sp,384
  84:	8931                	andi	a0,a0,12
  86:	0000                	unimp
  88:	0600                	addi	s0,sp,768
  8a:	0702                	slli	a4,a4,0x0
  8c:	01c9                	addi	gp,gp,18
  8e:	0000                	unimp
  90:	0406                	slli	s0,s0,0x1
  92:	00019c07          	0x19c07
  96:	0600                	addi	s0,sp,768
  98:	0708                	addi	a0,sp,896
  9a:	00000197          	auipc	gp,0x0
  9e:	0000ae07          	flw	ft8,0(ra)
  a2:	ae00                	fsd	fs0,24(a2)
  a4:	0000                	unimp
  a6:	0800                	addi	s0,sp,16
  a8:	004d                	c.addi	zero,19
  aa:	0000                	unimp
  ac:	0106000f          	0x106000f
  b0:	1408                	addi	a0,sp,544
  b2:	0001                	nop
  b4:	0900                	addi	s0,sp,144
  b6:	00ae                	slli	ra,ra,0xb
  b8:	0000                	unimp
  ba:	9d0a                	add	s10,s10,sp
  bc:	0000                	unimp
  be:	0100                	addi	s0,sp,128
  c0:	9e80                	0x9e80
  c2:	0000                	unimp
  c4:	0500                	addi	s0,sp,640
  c6:	006a4c03          	lbu	s8,6(s4) # fffe4006 <pulp__FC+0xfffe4007>
  ca:	0be0                	addi	s0,sp,476
  cc:	027c                	addi	a5,sp,268
  ce:	0000                	unimp
  d0:	5201                	li	tp,-32
  d2:	5201                	li	tp,-32
  d4:	0004                	addi	s1,sp,0
  d6:	6ce0                	flw	fs0,92(s1)
  d8:	0000                	unimp
  da:	0100                	addi	s0,sp,128
  dc:	a69c                	fsd	fa5,8(a3)
  de:	0001                	nop
  e0:	0c00                	addi	s0,sp,528
  e2:	0000029b          	0x29b
  e6:	5401                	li	s0,-32
  e8:	4101                	li	sp,0
  ea:	0000                	unimp
  ec:	9f00                	0x9f00
  ee:	610d                	addi	sp,sp,160
  f0:	0100                	addi	s0,sp,128
  f2:	0155                	addi	sp,sp,21
  f4:	0041                	c.addi	zero,16
  f6:	0000                	unimp
  f8:	0000                	unimp
  fa:	0000                	unimp
  fc:	620d                	lui	tp,0x3
  fe:	0100                	addi	s0,sp,128
 100:	0155                	addi	sp,sp,21
 102:	0041                	c.addi	zero,16
 104:	0000                	unimp
 106:	00000013          	nop
 10a:	630d                	lui	t1,0x3
 10c:	0100                	addi	s0,sp,128
 10e:	0155                	addi	sp,sp,21
 110:	0041                	c.addi	zero,16
 112:	0000                	unimp
 114:	0026                	0x26
 116:	0000                	unimp
 118:	650d                	lui	a0,0x3
 11a:	0100                	addi	s0,sp,128
 11c:	0155                	addi	sp,sp,21
 11e:	0041                	c.addi	zero,16
 120:	0000                	unimp
 122:	0039                	c.addi	zero,14
 124:	0000                	unimp
 126:	640d                	lui	s0,0x3
 128:	0100                	addi	s0,sp,128
 12a:	0155                	addi	sp,sp,21
 12c:	0041                	c.addi	zero,16
 12e:	0000                	unimp
 130:	004c                	addi	a1,sp,4
 132:	0000                	unimp
 134:	4e0e                	lw	t3,192(sp)
 136:	0000                	unimp
 138:	0100                	addi	s0,sp,128
 13a:	0156                	slli	sp,sp,0x15
 13c:	01a6                	slli	gp,gp,0x9
 13e:	0000                	unimp
 140:	005f 0000 e30f      	0xe30f0000005f
 146:	0000                	unimp
 148:	0100                	addi	s0,sp,128
 14a:	0156                	slli	sp,sp,0x15
 14c:	01a6                	slli	gp,gp,0x9
 14e:	0000                	unimp
 150:	4008                	lw	a0,0(s0)
 152:	1040                	addi	s0,sp,36
 154:	be10                	fsd	fa2,56(a2)
 156:	0001                	nop
 158:	0100                	addi	s0,sp,128
 15a:	0156                	slli	sp,sp,0x15
 15c:	01a6                	slli	gp,gp,0x9
 15e:	0000                	unimp
 160:	8084                	0x8084
 162:	c180                	sw	s0,0(a1)
 164:	0f7c                	addi	a5,sp,924
 166:	00ea                	slli	ra,ra,0x1a
 168:	0000                	unimp
 16a:	5601                	li	a2,-32
 16c:	a601                	j	46c <_min_stack-0x1b94>
 16e:	0001                	nop
 170:	1000                	addi	s0,sp,32
 172:	4040                	lw	s0,4(s0)
 174:	0f10                	addi	a2,sp,912
 176:	00f1                	addi	ra,ra,28
 178:	0000                	unimp
 17a:	5601                	li	a2,-32
 17c:	a601                	j	47c <_min_stack-0x1b84>
 17e:	0001                	nop
 180:	1400                	addi	s0,sp,544
 182:	4040                	lw	s0,4(s0)
 184:	0f10                	addi	a2,sp,912
 186:	00f8                	addi	a4,sp,76
 188:	0000                	unimp
 18a:	5601                	li	a2,-32
 18c:	a601                	j	48c <_min_stack-0x1b74>
 18e:	0001                	nop
 190:	1800                	addi	s0,sp,48
 192:	4040                	lw	s0,4(s0)
 194:	0f10                	addi	a2,sp,912
 196:	02aa                	slli	t0,t0,0xa
 198:	0000                	unimp
 19a:	5601                	li	a2,-32
 19c:	a601                	j	49c <_min_stack-0x1b64>
 19e:	0001                	nop
 1a0:	1c00                	addi	s0,sp,560
 1a2:	4040                	lw	s0,4(s0)
 1a4:	0010                	addi	a2,sp,0
 1a6:	0411                	addi	s0,s0,4
 1a8:	0048                	addi	a0,sp,4
 1aa:	0000                	unimp
 1ac:	7112                	flw	ft2,36(sp)
 1ae:	0000                	unimp
 1b0:	0100                	addi	s0,sp,128
 1b2:	0146                	slli	sp,sp,0x11
 1b4:	0041                	c.addi	zero,16
 1b6:	0000                	unimp
 1b8:	0422                	slli	s0,s0,0x8
 1ba:	e000                	fsw	fs0,0(s0)
 1bc:	0030                	addi	a2,sp,8
 1be:	0000                	unimp
 1c0:	9c01                	0x9c01
 1c2:	00000233          	add	tp,zero,zero
 1c6:	01007313          	andi	t1,zero,16
 1ca:	0146                	slli	sp,sp,0x11
 1cc:	00000233          	add	tp,zero,zero
 1d0:	00000087          	0x87
 1d4:	690d                	lui	s2,0x3
 1d6:	0100                	addi	s0,sp,128
 1d8:	0148                	addi	a0,sp,132
 1da:	0041                	c.addi	zero,16
 1dc:	0000                	unimp
 1de:	00be                	slli	ra,ra,0xf
 1e0:	0000                	unimp
 1e2:	1114                	addi	a3,sp,160
 1e4:	0005                	c.addi	zero,1
 1e6:	3c00                	fld	fs0,56(s0)
 1e8:	0004                	addi	s1,sp,0
 1ea:	04e0                	addi	s0,sp,588
 1ec:	0000                	unimp
 1ee:	0100                	addi	s0,sp,128
 1f0:	014d                	addi	sp,sp,19
 1f2:	0000020f          	0x20f
 1f6:	2115                	jal	61a <_min_stack-0x19e6>
 1f8:	0005                	c.addi	zero,1
 1fa:	f800                	fsw	fs0,48(s0)
 1fc:	0000                	unimp
 1fe:	1600                	addi	s0,sp,800
 200:	0440                	addi	s0,sp,516
 202:	e000                	fsw	fs0,0(s0)
 204:	0582                	slli	a1,a1,0x0
 206:	0000                	unimp
 208:	015a0117          	auipc	sp,0x15a0
 20c:	003a                	0x3a
 20e:	1800                	addi	s0,sp,48
 210:	0511                	addi	a0,a0,4
 212:	0000                	unimp
 214:	044e                	slli	s0,s0,0x13
 216:	e000                	fsw	fs0,0(s0)
 218:	0004                	addi	s1,sp,0
 21a:	0000                	unimp
 21c:	4b01                	li	s6,0
 21e:	1501                	addi	a0,a0,-32
 220:	0521                	addi	a0,a0,8
 222:	0000                	unimp
 224:	010c                	addi	a1,sp,128
 226:	0000                	unimp
 228:	5019                	0x5019
 22a:	0004                	addi	s1,sp,0
 22c:	82e0                	0x82e0
 22e:	0005                	c.addi	zero,1
 230:	0000                	unimp
 232:	1100                	addi	s0,sp,160
 234:	b504                	fsd	fs1,40(a0)
 236:	0000                	unimp
 238:	1200                	addi	s0,sp,288
 23a:	00cd                	addi	ra,ra,19
 23c:	0000                	unimp
 23e:	3701                	jal	13e <_min_stack-0x1ec2>
 240:	4101                	li	sp,0
 242:	0000                	unimp
 244:	c000                	sw	s0,0(s0)
 246:	0002                	0x2
 248:	58e0                	lw	s0,116(s1)
 24a:	0001                	nop
 24c:	0100                	addi	s0,sp,128
 24e:	4b9c                	lw	a5,16(a5)
 250:	1a000003          	lb	zero,416(zero) # 1a0 <_min_stack-0x1e60>
 254:	000002a3          	sb	zero,5(zero) # 5 <_min_stack-0x1ffb>
 258:	3701                	jal	158 <_min_stack-0x1ea8>
 25a:	3301                	jal	ffffff5a <pulp__FC+0xffffff5b>
 25c:	0002                	0x2
 25e:	2400                	fld	fs0,8(s0)
 260:	0001                	nop
 262:	1b00                	addi	s0,sp,432
 264:	701c                	flw	fa5,32(s0)
 266:	39010063          	beq	sp,a6,5e6 <_min_stack-0x1a1a>
 26a:	4101                	li	sp,0
 26c:	0000                	unimp
 26e:	1d00                	addi	s0,sp,688
 270:	6176                	flw	ft2,92(sp)
 272:	0100                	addi	s0,sp,128
 274:	013a                	slli	sp,sp,0xe
 276:	0036                	0x36
 278:	0000                	unimp
 27a:	7fac9103          	lh	sp,2042(s9)
 27e:	4b1e                	lw	s6,196(sp)
 280:	ea000003          	lb	zero,-352(zero) # fffffea0 <pulp__FC+0xfffffea1>
 284:	0002                	0x2
 286:	d8e0                	sw	s0,116(s1)
 288:	0000                	unimp
 28a:	0100                	addi	s0,sp,128
 28c:	013e                	slli	sp,sp,0xf
 28e:	5b1f 0003 0000      	0x35b1f
 294:	7115                	addi	sp,sp,-224
 296:	45000003          	lb	zero,1104(zero) # 450 <_min_stack-0x1bb0>
 29a:	0001                	nop
 29c:	1500                	addi	s0,sp,672
 29e:	0366                	slli	t1,t1,0x19
 2a0:	0000                	unimp
 2a2:	000001e7          	jalr	gp,zero
 2a6:	d820                	sw	s0,112(s0)
 2a8:	0000                	unimp
 2aa:	2100                	fld	fs0,0(a0)
 2ac:	0000037b          	lp.starti	x6,2ac <_min_stack-0x1d54>
 2b0:	02ad                	addi	t0,t0,11
 2b2:	0000                	unimp
 2b4:	8621                	srai	a2,a2,0x8
 2b6:	05000003          	lb	zero,80(zero) # 50 <_min_stack-0x1fb0>
 2ba:	21000003          	lb	zero,528(zero) # 210 <_min_stack-0x1df0>
 2be:	0391                	addi	t2,t2,4
 2c0:	0000                	unimp
 2c2:	035d                	addi	t1,t1,23
 2c4:	0000                	unimp
 2c6:	9b22                	add	s6,s6,s0
 2c8:	03000003          	lb	zero,48(zero) # 30 <_min_stack-0x1fd0>
 2cc:	a891                	j	320 <_min_stack-0x1ce0>
 2ce:	237f                	0x237f
 2d0:	03a6                	slli	t2,t2,0x9
 2d2:	0000                	unimp
 2d4:	040e                	slli	s0,s0,0x3
 2d6:	e000                	fsw	fs0,0(s0)
 2d8:	ae24                	fsd	fs1,88(a2)
 2da:	f0000003          	lb	zero,-256(zero) # ffffff00 <pulp__FC+0xffffff01>
 2de:	0000                	unimp
 2e0:	ed00                	fsw	fs0,24(a0)
 2e2:	0002                	0x2
 2e4:	2200                	fld	fs0,0(a2)
 2e6:	000003af          	0x3af
 2ea:	5a01                	li	s4,-32
 2ec:	2500                	fld	fs0,8(a0)
 2ee:	04f0                	addi	a2,sp,588
 2f0:	0000                	unimp
 2f2:	040e                	slli	s0,s0,0x3
 2f4:	e000                	fsw	fs0,0(s0)
 2f6:	0108                	addi	a0,sp,128
 2f8:	0000                	unimp
 2fa:	2e01                	jal	60a <_min_stack-0x19f6>
 2fc:	3601                	jal	fffffdfc <pulp__FC+0xfffffdfd>
 2fe:	15000003          	lb	zero,336(zero) # 150 <_min_stack-0x1eb0>
 302:	04fc                	addi	a5,sp,588
 304:	0000                	unimp
 306:	039e                	slli	t2,t2,0x7
 308:	0000                	unimp
 30a:	0715                	addi	a4,a4,5
 30c:	0005                	c.addi	zero,1
 30e:	b200                	fsd	fs0,32(a2)
 310:	26000003          	lb	zero,608(zero) # 260 <_min_stack-0x1da0>
 314:	0511                	addi	a0,a0,4
 316:	0000                	unimp
 318:	040e                	slli	s0,s0,0x3
 31a:	e000                	fsw	fs0,0(s0)
 31c:	0108                	addi	a0,sp,128
 31e:	0000                	unimp
 320:	9801                	andi	s0,s0,-32
 322:	2115                	jal	746 <_min_stack-0x18ba>
 324:	0005                	c.addi	zero,1
 326:	b200                	fsd	fs0,32(a2)
 328:	19000003          	lb	zero,400(zero) # 190 <_min_stack-0x1e70>
 32c:	0416                	slli	s0,s0,0x5
 32e:	e000                	fsw	fs0,0(s0)
 330:	0582                	slli	a1,a1,0x0
 332:	0000                	unimp
 334:	0000                	unimp
 336:	7e19                	lui	t3,0xfffe6
 338:	5ae00003          	lb	zero,1454(zero) # 5ae <_min_stack-0x1a52>
 33c:	0006                	0x6
 33e:	1900                	addi	s0,sp,176
 340:	03aa                	slli	t2,t2,0xa
 342:	e000                	fsw	fs0,0(s0)
 344:	00000793          	li	a5,0
 348:	0000                	unimp
 34a:	2700                	fld	fs0,8(a4)
 34c:	01ae                	slli	gp,gp,0xb
 34e:	0000                	unimp
 350:	f301                	bnez	a4,250 <_min_stack-0x1db0>
 352:	0041                	c.addi	zero,16
 354:	0000                	unimp
 356:	bb01                	j	66 <_min_stack-0x1f9a>
 358:	28000003          	lb	zero,640(zero) # 280 <_min_stack-0x1d80>
 35c:	0074756f          	jal	a0,47b62 <tohost+0x27b5a>
 360:	f301                	bnez	a4,260 <_min_stack-0x1da0>
 362:	000003bb          	0x3bb
 366:	a329                	j	870 <_min_stack-0x1790>
 368:	0002                	0x2
 36a:	0100                	addi	s0,sp,128
 36c:	000233f3          	csrrc	t2,0x0,tp
 370:	2800                	fld	fs0,16(s0)
 372:	6176                	flw	ft2,92(sp)
 374:	0100                	addi	s0,sp,128
 376:	000036f3          	csrrc	a3,0x0,zero
 37a:	2a00                	fld	fs0,16(a2)
 37c:	0076                	0x76
 37e:	0000                	unimp
 380:	f501                	bnez	a0,288 <_min_stack-0x1d78>
 382:	0041                	c.addi	zero,16
 384:	0000                	unimp
 386:	6461702b          	0x6461702b
 38a:	0100                	addi	s0,sp,128
 38c:	41f5                	li	gp,29
 38e:	0000                	unimp
 390:	2b00                	fld	fs0,16(a4)
 392:	6370                	flw	fa2,68(a4)
 394:	0100                	addi	s0,sp,128
 396:	41f6                	lw	gp,92(sp)
 398:	0000                	unimp
 39a:	2b00                	fld	fs0,16(a4)
 39c:	00726373          	csrrsi	t1,0x7,4
 3a0:	f701                	bnez	a4,2a8 <_min_stack-0x1d58>
 3a2:	000003c7          	fmsub.s	ft7,ft0,ft0,ft0,rne
 3a6:	6f2c                	flw	fa1,88(a4)
 3a8:	7475                	lui	s0,0xffffd
 3aa:	0100                	addi	s0,sp,128
 3ac:	012d                	addi	sp,sp,11
 3ae:	1c2d                	addi	s8,s8,-21
 3b0:	10010073          	0x10010073
 3b4:	c101                	beqz	a0,3b4 <_min_stack-0x1c4c>
 3b6:	00000003          	lb	zero,0(zero) # 0 <_min_stack-0x2000>
 3ba:	1100                	addi	s0,sp,160
 3bc:	c104                	sw	s1,0(a0)
 3be:	11000003          	lb	zero,272(zero) # 110 <_min_stack-0x1ef0>
 3c2:	ae04                	fsd	fs1,24(a2)
 3c4:	0000                	unimp
 3c6:	0700                	addi	s0,sp,896
 3c8:	00ae                	slli	ra,ra,0xb
 3ca:	0000                	unimp
 3cc:	000003d7          	pv.add.h	t2,zero,zero
 3d0:	4d08                	lw	a0,24(a0)
 3d2:	0000                	unimp
 3d4:	0100                	addi	s0,sp,128
 3d6:	2700                	fld	fs0,8(a4)
 3d8:	00d4                	addi	a3,sp,68
 3da:	0000                	unimp
 3dc:	b901                	j	ffffffec <pulp__FC+0xffffffed>
 3de:	0041                	c.addi	zero,16
 3e0:	0000                	unimp
 3e2:	7601                	lui	a2,0xfffe0
 3e4:	0004                	addi	s1,sp,0
 3e6:	2800                	fld	fs0,16(s0)
 3e8:	0074756f          	jal	a0,47bee <tohost+0x27be6>
 3ec:	b901                	j	fffffffc <pulp__FC+0xfffffffd>
 3ee:	000003bb          	0x3bb
 3f2:	6928                	flw	fa0,80(a0)
 3f4:	0100                	addi	s0,sp,128
 3f6:	41b9                	li	gp,14
 3f8:	0000                	unimp
 3fa:	2800                	fld	fs0,16(s0)
 3fc:	0062                	0x62
 3fe:	b901                	j	e <_min_stack-0x1ff2>
 400:	0041                	c.addi	zero,16
 402:	0000                	unimp
 404:	7328                	flw	fa0,96(a4)
 406:	b9010067          	jr	-1136(sp) # 159fd98 <tohost+0x157fd90>
 40a:	0041                	c.addi	zero,16
 40c:	0000                	unimp
 40e:	7629                	lui	a2,0xfffea
 410:	0000                	unimp
 412:	0100                	addi	s0,sp,128
 414:	41b9                	li	gp,14
 416:	0000                	unimp
 418:	2800                	fld	fs0,16(s0)
 41a:	6170                	flw	fa2,68(a0)
 41c:	0064                	addi	s1,sp,12
 41e:	b901                	j	2e <_min_stack-0x1fd2>
 420:	0041                	c.addi	zero,16
 422:	0000                	unimp
 424:	be29                	j	ffffff3e <pulp__FC+0xffffff3f>
 426:	0000                	unimp
 428:	0100                	addi	s0,sp,128
 42a:	aeb9                	j	788 <_min_stack-0x1878>
 42c:	0000                	unimp
 42e:	2a00                	fld	fs0,16(a2)
 430:	01dc                	addi	a5,sp,196
 432:	0000                	unimp
 434:	bb01                	j	144 <_min_stack-0x1ebc>
 436:	0476                	slli	s0,s0,0x1d
 438:	0000                	unimp
 43a:	0100732b          	0x100732b
 43e:	c1bc                	sw	a5,64(a1)
 440:	2b000003          	lb	zero,688(zero) # 2b0 <_min_stack-0x1d50>
 444:	656e                	flw	fa0,216(sp)
 446:	bd010067          	jr	-1072(sp)
 44a:	0041                	c.addi	zero,16
 44c:	0000                	unimp
 44e:	0063702b          	0x63702b
 452:	bd01                	j	262 <_min_stack-0x1d9e>
 454:	0041                	c.addi	zero,16
 456:	0000                	unimp
 458:	0100742b          	0x100742b
 45c:	4dbe                	lw	s11,204(sp)
 45e:	0000                	unimp
 460:	2b00                	fld	fs0,16(a4)
 462:	0075                	c.addi	zero,29
 464:	be01                	j	ffffff74 <pulp__FC+0xffffff75>
 466:	004d                	c.addi	zero,19
 468:	0000                	unimp
 46a:	2b2d                	jal	9a4 <_min_stack-0x165c>
 46c:	0074                	addi	a3,sp,12
 46e:	d401                	beqz	s0,376 <_min_stack-0x1c8a>
 470:	0041                	c.addi	zero,16
 472:	0000                	unimp
 474:	0000                	unimp
 476:	0000ae07          	flw	ft8,0(ra)
 47a:	8600                	0x8600
 47c:	0004                	addi	s1,sp,0
 47e:	0800                	addi	s0,sp,16
 480:	004d                	c.addi	zero,19
 482:	0000                	unimp
 484:	001f 0027 0000      	0x27001f
 48a:	0100                	addi	s0,sp,128
 48c:	0000419b          	0x419b
 490:	0100                	addi	s0,sp,128
 492:	04f0                	addi	a2,sp,588
 494:	0000                	unimp
 496:	6f28                	flw	fa0,88(a4)
 498:	7475                	lui	s0,0xffffd
 49a:	0100                	addi	s0,sp,128
 49c:	0003bb9b          	0x3bb9b
 4a0:	2900                	fld	fs0,16(a0)
 4a2:	00c6                	slli	ra,ra,0x11
 4a4:	0000                	unimp
 4a6:	9b01                	andi	a4,a4,-32
 4a8:	00000233          	add	tp,zero,zero
 4ac:	7629                	lui	a2,0xfffea
 4ae:	0000                	unimp
 4b0:	0100                	addi	s0,sp,128
 4b2:	0000419b          	0x419b
 4b6:	2800                	fld	fs0,16(s0)
 4b8:	6170                	flw	fa2,68(a0)
 4ba:	0064                	addi	s1,sp,12
 4bc:	9b01                	andi	a4,a4,-32
 4be:	0041                	c.addi	zero,16
 4c0:	0000                	unimp
 4c2:	0063702b          	0x63702b
 4c6:	9d01                	0x9d01
 4c8:	0041                	c.addi	zero,16
 4ca:	0000                	unimp
 4cc:	5c2a                	lw	s8,168(sp)
 4ce:	0000                	unimp
 4d0:	0100                	addi	s0,sp,128
 4d2:	419d                	li	gp,7
 4d4:	0000                	unimp
 4d6:	2d00                	fld	fs0,24(a0)
 4d8:	6e656c2b          	0x6e656c2b
 4dc:	0100                	addi	s0,sp,128
 4de:	41a0                	lw	s0,64(a1)
 4e0:	0000                	unimp
 4e2:	2b00                	fld	fs0,16(a4)
 4e4:	7470                	flw	fa2,108(s0)
 4e6:	0072                	0x72
 4e8:	a101                	j	8e8 <_min_stack-0x1718>
 4ea:	00000233          	add	tp,zero,zero
 4ee:	0000                	unimp
 4f0:	e62e                	fsw	fa1,12(sp)
 4f2:	0001                	nop
 4f4:	0100                	addi	s0,sp,128
 4f6:	0190                	addi	a2,sp,192
 4f8:	0511                	addi	a0,a0,4
 4fa:	0000                	unimp
 4fc:	7328                	flw	fa0,96(a4)
 4fe:	7274                	flw	fa3,100(a2)
 500:	0100                	addi	s0,sp,128
 502:	bb90                	fsd	fa2,48(a5)
 504:	28000003          	lb	zero,640(zero) # 280 <_min_stack-0x1d80>
 508:	90010063          	beqz	sp,fffff608 <pulp__FC+0xfffff609>
 50c:	0041                	c.addi	zero,16
 50e:	0000                	unimp
 510:	2f00                	fld	fs0,24(a4)
 512:	0054                	addi	a3,sp,4
 514:	0000                	unimp
 516:	8a01                	andi	a2,a2,0
 518:	0041                	c.addi	zero,16
 51a:	0000                	unimp
 51c:	2b01                	jal	a2c <_min_stack-0x15d4>
 51e:	0005                	c.addi	zero,1
 520:	2800                	fld	fs0,16(s0)
 522:	8a010073          	0x8a010073
 526:	0041                	c.addi	zero,16
 528:	0000                	unimp
 52a:	2700                	fld	fs0,8(a4)
 52c:	000000b7          	lui	ra,0x0
 530:	8501                	srai	a0,a0,0x0
 532:	004d                	c.addi	zero,19
 534:	0000                	unimp
 536:	4501                	li	a0,0
 538:	0005                	c.addi	zero,1
 53a:	2800                	fld	fs0,16(s0)
 53c:	006e                	0x6e
 53e:	8501                	srai	a0,a0,0x0
 540:	004d                	c.addi	zero,19
 542:	0000                	unimp
 544:	2700                	fld	fs0,8(a4)
 546:	00000203          	lb	tp,0(zero) # 0 <_min_stack-0x2000>
 54a:	7301                	lui	t1,0xfffe0
 54c:	004d                	c.addi	zero,19
 54e:	0000                	unimp
 550:	7101                	addi	sp,sp,-512
 552:	0005                	c.addi	zero,1
 554:	2800                	fld	fs0,16(s0)
 556:	006e                	0x6e
 558:	7301                	lui	t1,0xfffe0
 55a:	004d                	c.addi	zero,19
 55c:	0000                	unimp
 55e:	0100712b          	0x100712b
 562:	4d74                	lw	a3,92(a0)
 564:	0000                	unimp
 566:	2b00                	fld	fs0,16(a4)
 568:	0072                	0x72
 56a:	7401                	lui	s0,0xfffe0
 56c:	004d                	c.addi	zero,19
 56e:	0000                	unimp
 570:	3000                	fld	fs0,32(s0)
 572:	0119                	addi	sp,sp,6
 574:	0000                	unimp
 576:	5501                	li	a0,-32
 578:	029a                	slli	t0,t0,0x6
 57a:	e000                	fsw	fs0,0(s0)
 57c:	000e                	0xe
 57e:	0000                	unimp
 580:	9c01                	0x9c01
 582:	0a31                	addi	s4,s4,12
 584:	0002                	0x2
 586:	0100                	addi	s0,sp,128
 588:	ea4d                	bnez	a2,63a <_min_stack-0x19c6>
 58a:	0000                	unimp
 58c:	10e0                	addi	s0,sp,108
 58e:	0000                	unimp
 590:	0100                	addi	s0,sp,128
 592:	a39c                	fsd	fa5,0(a5)
 594:	0005                	c.addi	zero,1
 596:	3200                	fld	fs0,32(a2)
 598:	4d010063          	beq	sp,a6,a58 <_min_stack-0x15a8>
 59c:	00b5                	addi	ra,ra,13
 59e:	0000                	unimp
 5a0:	5a01                	li	s4,-32
 5a2:	3300                	fld	fs0,32(a4)
 5a4:	00aa                	slli	ra,ra,0xa
 5a6:	0000                	unimp
 5a8:	4701                	li	a4,0
 5aa:	00ae                	slli	ra,ra,0xb
 5ac:	0000                	unimp
 5ae:	00d8                	addi	a4,sp,68
 5b0:	e000                	fsw	fs0,0(s0)
 5b2:	0012                	0x12
 5b4:	0000                	unimp
 5b6:	9c01                	0x9c01
 5b8:	9131                	srli	a0,a0,0x2c
 5ba:	0002                	0x2
 5bc:	0100                	addi	s0,sp,128
 5be:	b235                	j	fffffeea <pulp__FC+0xfffffeeb>
 5c0:	0000                	unimp
 5c2:	26e0                	fld	fs0,200(a3)
 5c4:	0000                	unimp
 5c6:	0100                	addi	s0,sp,128
 5c8:	f69c                	fsw	fa5,40(a3)
 5ca:	0005                	c.addi	zero,1
 5cc:	3400                	fld	fs0,40(s0)
 5ce:	00727473          	csrrci	s0,0x7,4
 5d2:	3501                	jal	3d2 <_min_stack-0x1c2e>
 5d4:	00000233          	add	tp,zero,zero
 5d8:	03cc                	addi	a1,sp,452
 5da:	0000                	unimp
 5dc:	6c34                	flw	fa3,88(s0)
 5de:	6e65                	lui	t3,0x19
 5e0:	0100                	addi	s0,sp,128
 5e2:	4d35                	li	s10,13
 5e4:	0000                	unimp
 5e6:	ea00                	fsw	fs0,16(a2)
 5e8:	35000003          	lb	zero,848(zero) # 350 <_min_stack-0x1cb0>
 5ec:	0069                	c.addi	zero,26
 5ee:	3601                	jal	ee <_min_stack-0x1f12>
 5f0:	004d                	c.addi	zero,19
 5f2:	0000                	unimp
 5f4:	0000                	unimp
 5f6:	6431                	lui	s0,0xc
 5f8:	0000                	unimp
 5fa:	0100                	addi	s0,sp,128
 5fc:	842a                	mv	s0,a0
 5fe:	0000                	unimp
 600:	2ee0                	fld	fs0,216(a3)
 602:	0000                	unimp
 604:	0100                	addi	s0,sp,128
 606:	319c                	fld	fa5,32(a1)
 608:	0006                	0x6
 60a:	3600                	fld	fs0,40(a2)
 60c:	00dc                	addi	a5,sp,68
 60e:	0000                	unimp
 610:	2a01                	jal	720 <_min_stack-0x18e0>
 612:	0041                	c.addi	zero,16
 614:	0000                	unimp
 616:	5a01                	li	s4,-32
 618:	00026137          	lui	sp,0x26
 61c:	0100                	addi	s0,sp,128
 61e:	7e2a                	flw	ft8,168(sp)
 620:	0000                	unimp
 622:	0800                	addi	s0,sp,16
 624:	0004                	addi	s1,sp,0
 626:	2b00                	fld	fs0,16(a4)
 628:	0069                	c.addi	zero,26
 62a:	2b01                	jal	b3a <_min_stack-0x14c6>
 62c:	004d                	c.addi	zero,19
 62e:	0000                	unimp
 630:	3100                	fld	fs0,32(a0)
 632:	007c                	addi	a5,sp,12
 634:	0000                	unimp
 636:	1b01                	addi	s6,s6,-32
 638:	0418                	addi	a4,sp,512
 63a:	e000                	fsw	fs0,0(s0)
 63c:	000a                	0xa
 63e:	0000                	unimp
 640:	9c01                	0x9c01
 642:	065a                	slli	a2,a2,0x16
 644:	0000                	unimp
 646:	2238                	fld	fa4,64(a2)
 648:	0004                	addi	s1,sp,0
 64a:	39e0                	fld	fs0,240(a1)
 64c:	0002                	0x2
 64e:	1700                	addi	s0,sp,928
 650:	5a01                	li	s4,-32
 652:	0305                	addi	t1,t1,1
 654:	6a3c                	flw	fa5,80(a2)
 656:	e000                	fsw	fs0,0(s0)
 658:	0000                	unimp
 65a:	8639                	srai	a2,a2,0xe
 65c:	0004                	addi	s1,sp,0
 65e:	fa00                	fsw	fs0,48(a2)
 660:	0000                	unimp
 662:	a6e0                	fsd	fs0,200(a3)
 664:	0000                	unimp
 666:	0100                	addi	s0,sp,128
 668:	939c                	0x939c
 66a:	15000007          	0x15000007
 66e:	04a1                	addi	s1,s1,8
 670:	0000                	unimp
 672:	0429                	addi	s0,s0,10
 674:	0000                	unimp
 676:	ac15                	j	8aa <_min_stack-0x1756>
 678:	0004                	addi	s1,sp,0
 67a:	5200                	lw	s0,32(a2)
 67c:	0004                	addi	s1,sp,0
 67e:	1500                	addi	s0,sp,672
 680:	000004b7          	lui	s1,0x0
 684:	04ca                	slli	s1,s1,0x12
 686:	0000                	unimp
 688:	c221                	beqz	a2,6c8 <_min_stack-0x1938>
 68a:	0004                	addi	s1,sp,0
 68c:	0400                	addi	s0,sp,512
 68e:	0005                	c.addi	zero,1
 690:	2100                	fld	fs0,0(a0)
 692:	04cc                	addi	a1,sp,580
 694:	0000                	unimp
 696:	0546                	slli	a0,a0,0x11
 698:	0000                	unimp
 69a:	961f 0004 0000      	0x4961f
 6a0:	d724                	sw	s1,104(a4)
 6a2:	0004                	addi	s1,sp,0
 6a4:	0000                	unimp
 6a6:	0000                	unimp
 6a8:	c000                	sw	s0,0(s0)
 6aa:	0006                	0x6
 6ac:	2100                	fld	fs0,0(a0)
 6ae:	04d8                	addi	a4,sp,580
 6b0:	0000                	unimp
 6b2:	057e                	slli	a0,a0,0x1f
 6b4:	0000                	unimp
 6b6:	e321                	bnez	a4,6f6 <_min_stack-0x190a>
 6b8:	0004                	addi	s1,sp,0
 6ba:	9c00                	0x9c00
 6bc:	0005                	c.addi	zero,1
 6be:	0000                	unimp
 6c0:	f03a                	fsw	fa4,32(sp)
 6c2:	0004                	addi	s1,sp,0
 6c4:	4e00                	lw	s0,24(a2)
 6c6:	0001                	nop
 6c8:	20e0                	fld	fs0,192(s1)
 6ca:	0000                	unimp
 6cc:	0100                	addi	s0,sp,128
 6ce:	07b2                	slli	a5,a5,0xc
 6d0:	15000007          	0x15000007
 6d4:	04fc                	addi	a5,sp,588
 6d6:	0000                	unimp
 6d8:	05c5                	addi	a1,a1,17
 6da:	0000                	unimp
 6dc:	0005073b          	0x5073b
 6e0:	2600                	fld	fs0,8(a2)
 6e2:	0511                	addi	a0,a0,4
 6e4:	0000                	unimp
 6e6:	014e                	slli	sp,sp,0x13
 6e8:	e000                	fsw	fs0,0(s0)
 6ea:	0038                	addi	a4,sp,8
 6ec:	0000                	unimp
 6ee:	9801                	andi	s0,s0,-32
 6f0:	0005213b          	0x5213b
 6f4:	1600                	addi	s0,sp,800
 6f6:	019c                	addi	a5,sp,192
 6f8:	e000                	fsw	fs0,0(s0)
 6fa:	0582                	slli	a1,a1,0x0
 6fc:	0000                	unimp
 6fe:	025a0117          	auipc	sp,0x25a0
 702:	0082                	slli	ra,ra,0x0
 704:	0000                	unimp
 706:	3a00                	fld	fs0,48(a2)
 708:	04f0                	addi	a2,sp,588
 70a:	0000                	unimp
 70c:	0174                	addi	a3,sp,140
 70e:	e000                	fsw	fs0,0(s0)
 710:	0050                	addi	a2,sp,4
 712:	0000                	unimp
 714:	a901                	j	b24 <_min_stack-0x14dc>
 716:	074e                	slli	a4,a4,0x13
 718:	0000                	unimp
 71a:	fc15                	bnez	s0,656 <_min_stack-0x19aa>
 71c:	0004                	addi	s1,sp,0
 71e:	d900                	sw	s0,48(a0)
 720:	0005                	c.addi	zero,1
 722:	3b00                	fld	fs0,48(a4)
 724:	00000507          	0x507
 728:	1126                	slli	sp,sp,0x29
 72a:	0005                	c.addi	zero,1
 72c:	7400                	flw	fs0,40(s0)
 72e:	0001                	nop
 730:	68e0                	flw	fs0,84(s1)
 732:	0000                	unimp
 734:	0100                	addi	s0,sp,128
 736:	3b98                	fld	fa4,48(a5)
 738:	0521                	addi	a0,a0,8
 73a:	0000                	unimp
 73c:	7816                	flw	fa6,100(sp)
 73e:	0001                	nop
 740:	82e0                	0x82e0
 742:	0005                	c.addi	zero,1
 744:	1700                	addi	s0,sp,928
 746:	5a01                	li	s4,-32
 748:	8402                	jr	s0
 74a:	0000                	unimp
 74c:	0000                	unimp
 74e:	f03c                	fsw	fa5,96(s0)
 750:	0004                	addi	s1,sp,0
 752:	9200                	0x9200
 754:	0001                	nop
 756:	02e0                	addi	s0,sp,332
 758:	0000                	unimp
 75a:	0100                	addi	s0,sp,128
 75c:	15ae                	slli	a1,a1,0x2b
 75e:	04fc                	addi	a5,sp,588
 760:	0000                	unimp
 762:	05ed                	addi	a1,a1,27
 764:	0000                	unimp
 766:	0715                	addi	a4,a4,5
 768:	0005                	c.addi	zero,1
 76a:	0100                	addi	s0,sp,128
 76c:	0006                	0x6
 76e:	3c00                	fld	fs0,56(s0)
 770:	0511                	addi	a0,a0,4
 772:	0000                	unimp
 774:	0192                	slli	gp,gp,0x4
 776:	e000                	fsw	fs0,0(s0)
 778:	0002                	0x2
 77a:	0000                	unimp
 77c:	9801                	andi	s0,s0,-32
 77e:	2115                	jal	ba2 <_min_stack-0x145e>
 780:	0005                	c.addi	zero,1
 782:	0100                	addi	s0,sp,128
 784:	0006                	0x6
 786:	1900                	addi	s0,sp,176
 788:	0194                	addi	a3,sp,192
 78a:	e000                	fsw	fs0,0(s0)
 78c:	0582                	slli	a1,a1,0x0
 78e:	0000                	unimp
 790:	0000                	unimp
 792:	3900                	fld	fs0,48(a0)
 794:	000003d7          	pv.add.h	t2,zero,zero
 798:	01a0                	addi	s0,sp,200
 79a:	e000                	fsw	fs0,0(s0)
 79c:	00fa                	slli	ra,ra,0x1e
 79e:	0000                	unimp
 7a0:	9c01                	0x9c01
 7a2:	08fe                	slli	a7,a7,0x1f
 7a4:	0000                	unimp
 7a6:	f215                	bnez	a2,6ca <_min_stack-0x1936>
 7a8:	19000003          	lb	zero,400(zero) # 190 <_min_stack-0x1e70>
 7ac:	0006                	0x6
 7ae:	1500                	addi	s0,sp,672
 7b0:	000003fb          	lp.starti	x7,7b0 <_min_stack-0x1850>
 7b4:	066c                	addi	a1,sp,780
 7b6:	0000                	unimp
 7b8:	0415                	addi	s0,s0,5
 7ba:	0004                	addi	s1,sp,0
 7bc:	d800                	sw	s0,48(s0)
 7be:	0006                	0x6
 7c0:	1500                	addi	s0,sp,672
 7c2:	040e                	slli	s0,s0,0x3
 7c4:	0000                	unimp
 7c6:	0736                	slli	a4,a4,0xd
 7c8:	0000                	unimp
 7ca:	1915                	addi	s2,s2,-27
 7cc:	0004                	addi	s1,sp,0
 7ce:	8600                	0x8600
 7d0:	15000007          	0x15000007
 7d4:	0424                	addi	s1,sp,520
 7d6:	0000                	unimp
 7d8:	000007cb          	fnmsub.s	fa5,ft0,ft0,ft0,rne
 7dc:	2f22                	fld	ft10,8(sp)
 7de:	0004                	addi	s1,sp,0
 7e0:	0200                	addi	s0,sp,256
 7e2:	5091                	li	ra,-28
 7e4:	3a21                	jal	fc <_min_stack-0x1f04>
 7e6:	0004                	addi	s1,sp,0
 7e8:	3700                	fld	fs0,40(a4)
 7ea:	0008                	addi	a0,sp,0
 7ec:	2100                	fld	fs0,0(a0)
 7ee:	00000443          	fmadd.s	fs0,ft0,ft0,ft0,rne
 7f2:	087a                	slli	a6,a6,0x1e
 7f4:	0000                	unimp
 7f6:	4e21                	li	t3,8
 7f8:	0004                	addi	s1,sp,0
 7fa:	d300                	sw	s0,32(a4)
 7fc:	0008                	addi	a0,sp,0
 7fe:	3d00                	fld	fs0,56(a0)
 800:	0458                	addi	a4,sp,516
 802:	0000                	unimp
 804:	6121                	addi	sp,sp,64
 806:	0004                	addi	s1,sp,0
 808:	1600                	addi	s0,sp,800
 80a:	0009                	c.addi	zero,2
 80c:	1f00                	addi	s0,sp,944
 80e:	000003e7          	jalr	t2,zero
 812:	3a00                	fld	fs0,48(a2)
 814:	0000052b          	p.sb	zero,10(zero!) # a <_min_stack-0x1ff6>
 818:	01e4                	addi	s1,sp,204
 81a:	e000                	fsw	fs0,0(s0)
 81c:	0080                	addi	s0,sp,64
 81e:	0000                	unimp
 820:	df01                	beqz	a4,738 <_min_stack-0x18c8>
 822:	0830                	addi	a2,sp,24
 824:	0000                	unimp
 826:	3b15                	jal	55a <_min_stack-0x1aa6>
 828:	0005                	c.addi	zero,1
 82a:	6500                	flw	fs0,8(a0)
 82c:	0009                	c.addi	zero,2
 82e:	0000                	unimp
 830:	453a                	lw	a0,140(sp)
 832:	0005                	c.addi	zero,1
 834:	f400                	fsw	fs0,40(s0)
 836:	0001                	nop
 838:	a0e0                	fsd	fs0,192(s1)
 83a:	0000                	unimp
 83c:	0100                	addi	s0,sp,128
 83e:	65e0                	flw	fs0,76(a1)
 840:	0008                	addi	a0,sp,0
 842:	1500                	addi	s0,sp,672
 844:	0555                	addi	a0,a0,21
 846:	0000                	unimp
 848:	0978                	addi	a4,sp,156
 84a:	0000                	unimp
 84c:	a020                	fsd	fs0,64(s0)
 84e:	0000                	unimp
 850:	2100                	fld	fs0,0(a0)
 852:	055e                	slli	a0,a0,0x17
 854:	0000                	unimp
 856:	0998                	addi	a4,sp,208
 858:	0000                	unimp
 85a:	6721                	lui	a4,0x8
 85c:	0005                	c.addi	zero,1
 85e:	ab00                	fsd	fs0,16(a4)
 860:	0009                	c.addi	zero,2
 862:	0000                	unimp
 864:	2400                	fld	fs0,8(s0)
 866:	046a                	slli	s0,s0,0x1a
 868:	0000                	unimp
 86a:	00c0                	addi	s0,sp,68
 86c:	0000                	unimp
 86e:	087c                	addi	a5,sp,28
 870:	0000                	unimp
 872:	6b21                	lui	s6,0x8
 874:	0004                	addi	s1,sp,0
 876:	db00                	sw	s0,48(a4)
 878:	0009                	c.addi	zero,2
 87a:	0000                	unimp
 87c:	f03e                	fsw	fa5,32(sp)
 87e:	0004                	addi	s1,sp,0
 880:	6a00                	flw	fs0,16(a2)
 882:	0002                	0x2
 884:	0ae0                	addi	s0,sp,348
 886:	0000                	unimp
 888:	0100                	addi	s0,sp,128
 88a:	0008cbe7          	0x8cbe7
 88e:	1500                	addi	s0,sp,672
 890:	04fc                	addi	a5,sp,588
 892:	0000                	unimp
 894:	000009fb          	lp.starti	x19,894 <_min_stack-0x176c>
 898:	0715                	addi	a4,a4,5
 89a:	0005                	c.addi	zero,1
 89c:	0f00                	addi	s0,sp,912
 89e:	000a                	0xa
 8a0:	3c00                	fld	fs0,56(s0)
 8a2:	0511                	addi	a0,a0,4
 8a4:	0000                	unimp
 8a6:	026a                	slli	tp,tp,0x1a
 8a8:	e000                	fsw	fs0,0(s0)
 8aa:	000a                	0xa
 8ac:	0000                	unimp
 8ae:	9801                	andi	s0,s0,-32
 8b0:	2115                	jal	cd4 <_min_stack-0x132c>
 8b2:	0005                	c.addi	zero,1
 8b4:	2400                	fld	fs0,8(s0)
 8b6:	000a                	0xa
 8b8:	1600                	addi	s0,sp,800
 8ba:	0274                	addi	a3,sp,268
 8bc:	e000                	fsw	fs0,0(s0)
 8be:	0582                	slli	a1,a1,0x0
 8c0:	0000                	unimp
 8c2:	025a0117          	auipc	sp,0x25a0
 8c6:	2d08                	fld	fa0,24(a0)
 8c8:	0000                	unimp
 8ca:	3f00                	fld	fs0,56(a4)
 8cc:	01bc                	addi	a5,sp,200
 8ce:	e000                	fsw	fs0,0(s0)
 8d0:	065a                	slli	a2,a2,0x16
 8d2:	0000                	unimp
 8d4:	08ed                	addi	a7,a7,27
 8d6:	0000                	unimp
 8d8:	025a0117          	auipc	sp,0x25a0
 8dc:	5091                	li	ra,-28
 8de:	035b0117          	auipc	sp,0x35b0
 8e2:	175d01f3          	0x175d01f3
 8e6:	5c01                	li	s8,-32
 8e8:	5e01f303          	0x5e01f303
 8ec:	1600                	addi	s0,sp,800
 8ee:	0280                	addi	s0,sp,320
 8f0:	e000                	fsw	fs0,0(s0)
 8f2:	065a                	slli	a2,a2,0x16
 8f4:	0000                	unimp
 8f6:	025a0117          	auipc	sp,0x25a0
 8fa:	0078                	addi	a4,sp,12
 8fc:	0000                	unimp
 8fe:	1140                	addi	s0,sp,164
 900:	0005                	c.addi	zero,1
 902:	a800                	fsd	fs0,16(s0)
 904:	0002                	0x2
 906:	18e0                	addi	s0,sp,124
 908:	0000                	unimp
 90a:	0100                	addi	s0,sp,128
 90c:	159c                	addi	a5,sp,736
 90e:	0521                	addi	a0,a0,8
 910:	0000                	unimp
 912:	0a39                	addi	s4,s4,14
 914:	0000                	unimp
 916:	b616                	fsd	ft5,296(sp)
 918:	0002                	0x2
 91a:	82e0                	0x82e0
 91c:	0005                	c.addi	zero,1
 91e:	1700                	addi	s0,sp,928
 920:	5a01                	li	s4,-32
 922:	7802                	flw	fa6,32(sp)
 924:	0000                	unimp
 926:	0000                	unimp
 928:	0000019b          	0x19b
 92c:	0004                	addi	s1,sp,0
 92e:	0378                	addi	a4,sp,396
 930:	0000                	unimp
 932:	0104                	addi	s1,sp,128
 934:	0000012b          	p.sb	zero,2(zero!) # 2 <_min_stack-0x1ffe>
 938:	fc0c                	fsw	fa1,56(s0)
 93a:	0002                	0x2
 93c:	1800                	addi	s0,sp,48
 93e:	0002                	0x2
 940:	3800                	fld	fs0,48(s0)
 942:	0001                	nop
 944:	0000                	unimp
 946:	0000                	unimp
 948:	c400                	sw	s0,8(s0)
 94a:	0005                	c.addi	zero,1
 94c:	0200                	addi	s0,sp,256
 94e:	0601                	addi	a2,a2,0
 950:	010d                	addi	sp,sp,3
 952:	0000                	unimp
 954:	0202                	slli	tp,tp,0x0
 956:	4405                	li	s0,1
 958:	0000                	unimp
 95a:	0200                	addi	s0,sp,256
 95c:	0504                	addi	s1,sp,640
 95e:	0094                	addi	a3,sp,64
 960:	0000                	unimp
 962:	0802                	slli	a6,a6,0x0
 964:	8f05                	sub	a4,a4,s1
 966:	0000                	unimp
 968:	0200                	addi	s0,sp,256
 96a:	0801                	addi	a6,a6,0
 96c:	0000010b          	p.lb	sp,0(zero!) # 0 <_min_stack-0x2000>
 970:	0202                	slli	tp,tp,0x0
 972:	0001c907          	0x1c907
 976:	0300                	addi	s0,sp,384
 978:	0338                	addi	a4,sp,392
 97a:	0000                	unimp
 97c:	005f3403          	0x5f3403
 980:	0000                	unimp
 982:	4f04                	lw	s1,24(a4)
 984:	0000                	unimp
 986:	0200                	addi	s0,sp,256
 988:	0704                	addi	s1,sp,896
 98a:	019c                	addi	a5,sp,192
 98c:	0000                	unimp
 98e:	0802                	slli	a6,a6,0x0
 990:	00019707          	0x19707
 994:	0500                	addi	s0,sp,640
 996:	0504                	addi	s1,sp,640
 998:	6e69                	lui	t3,0x1a
 99a:	0074                	addi	a3,sp,12
 99c:	6d06                	flw	fs10,64(sp)
 99e:	0000                	unimp
 9a0:	0200                	addi	s0,sp,256
 9a2:	0704                	addi	s1,sp,896
 9a4:	01a1                	addi	gp,gp,8
 9a6:	0000                	unimp
 9a8:	0002b107          	fld	ft2,0(t0)
 9ac:	0200                	addi	s0,sp,256
 9ae:	5a06                	lw	s4,96(sp)
 9b0:	0000                	unimp
 9b2:	2900                	fld	fs0,16(a0)
 9b4:	0819                	addi	a6,a6,6
 9b6:	005a                	0x5a
 9b8:	0000                	unimp
 9ba:	009e                	slli	ra,ra,0x7
 9bc:	0000                	unimp
 9be:	7909                	lui	s2,0xfffe2
 9c0:	0000                	unimp
 9c2:	2800                	fld	fs0,16(s0)
 9c4:	0019                	c.addi	zero,6
 9c6:	8d04                	0x8d04
 9c8:	0000                	unimp
 9ca:	0a00                	addi	s0,sp,272
 9cc:	02cd                	addi	t0,t0,19
 9ce:	0000                	unimp
 9d0:	0702                	slli	a4,a4,0x0
 9d2:	009e                	slli	ra,ra,0x7
 9d4:	0000                	unimp
 9d6:	0305                	addi	t1,t1,1
 9d8:	0590                	addi	a2,sp,704
 9da:	e000                	fsw	fs0,0(s0)
 9dc:	1002                	0x1002
 9de:	ff04                	fsw	fs1,56(a4)
 9e0:	0000                	unimp
 9e2:	0b00                	addi	s0,sp,400
 9e4:	02e8                	addi	a0,sp,332
 9e6:	0000                	unimp
 9e8:	1301                	addi	t1,t1,-32
 9ea:	006d                	c.addi	zero,27
 9ec:	0000                	unimp
 9ee:	053a                	slli	a0,a0,0xe
 9f0:	e000                	fsw	fs0,0(s0)
 9f2:	0056                	0x56
 9f4:	0000                	unimp
 9f6:	9c01                	0x9c01
 9f8:	0185                	addi	gp,gp,1
 9fa:	0000                	unimp
 9fc:	2e0c                	fld	fa1,24(a2)
 9fe:	01000003          	lb	zero,16(zero) # 10 <_min_stack-0x1ff0>
 a02:	00006d13          	ori	s10,zero,0
 a06:	6200                	flw	fs0,0(a2)
 a08:	000a                	0xa
 a0a:	0c00                	addi	s0,sp,528
 a0c:	00000333          	add	t1,zero,zero
 a10:	1301                	addi	t1,t1,-32
 a12:	0185                	addi	gp,gp,1
 a14:	0000                	unimp
 a16:	00000a83          	lb	s5,0(zero) # 0 <_min_stack-0x2000>
 a1a:	410d                	li	sp,3
 a1c:	01000003          	lb	zero,16(zero) # 10 <_min_stack-0x1ff0>
 a20:	9815                	andi	s0,s0,-27
 a22:	0001                	nop
 a24:	9c00                	0x9c00
 a26:	8080                	0x8080
 a28:	0d78                	addi	a4,sp,668
 a2a:	034a                	slli	t1,t1,0x12
 a2c:	0000                	unimp
 a2e:	1501                	addi	a0,a0,-32
 a30:	0198                	addi	a4,sp,192
 a32:	0000                	unimp
 a34:	8098                	0x8098
 a36:	7880                	flw	fs0,48(s1)
 a38:	1a0d                	addi	s4,s4,-29
 a3a:	01000003          	lb	zero,16(zero) # 10 <_min_stack-0x1ff0>
 a3e:	9816                	add	a6,a6,t0
 a40:	0001                	nop
 a42:	8000                	0x8000
 a44:	8080                	0x8080
 a46:	0d78                	addi	a4,sp,668
 a48:	000002c3          	fmadd.s	ft5,ft0,ft0,ft0,rne
 a4c:	1601                	addi	a2,a2,-32
 a4e:	0198                	addi	a4,sp,192
 a50:	0000                	unimp
 a52:	8084                	0x8084
 a54:	7880                	flw	fs0,48(s1)
 a56:	240d                	jal	c78 <_min_stack-0x1388>
 a58:	01000003          	lb	zero,16(zero) # 10 <_min_stack-0x1ff0>
 a5c:	9816                	add	a6,a6,t0
 a5e:	0001                	nop
 a60:	8800                	0x8800
 a62:	8080                	0x8080
 a64:	0d78                	addi	a4,sp,668
 a66:	02f4                	addi	a3,sp,332
 a68:	0000                	unimp
 a6a:	1601                	addi	a2,a2,-32
 a6c:	0198                	addi	a4,sp,192
 a6e:	0000                	unimp
 a70:	808c                	0x808c
 a72:	7880                	flw	fs0,48(s1)
 a74:	bd0d                	j	8a6 <_min_stack-0x175a>
 a76:	0002                	0x2
 a78:	0100                	addi	s0,sp,128
 a7a:	9816                	add	a6,a6,t0
 a7c:	0001                	nop
 a7e:	9000                	0x9000
 a80:	8080                	0x8080
 a82:	0e78                	addi	a4,sp,796
 a84:	02ed                	addi	t0,t0,27
 a86:	0000                	unimp
 a88:	1801                	addi	a6,a6,-32
 a8a:	006d                	c.addi	zero,27
 a8c:	0000                	unimp
 a8e:	0f00                	addi	s0,sp,912
 a90:	0069                	c.addi	zero,26
 a92:	1901                	addi	s2,s2,-32
 a94:	006d                	c.addi	zero,27
 a96:	0000                	unimp
 a98:	1000                	addi	s0,sp,32
 a9a:	0120                	addi	s0,sp,136
 a9c:	0000                	unimp
 a9e:	6911                	lui	s2,0x4
 aa0:	0100                	addi	s0,sp,128
 aa2:	6d25                	lui	s10,0x9
 aa4:	0000                	unimp
 aa6:	a400                	fsd	fs0,8(s0)
 aa8:	000a                	0xa
 aaa:	0000                	unimp
 aac:	1200                	addi	s0,sp,288
 aae:	8b04                	0x8b04
 ab0:	0001                	nop
 ab2:	1200                	addi	s0,sp,288
 ab4:	9104                	0x9104
 ab6:	0001                	nop
 ab8:	0200                	addi	s0,sp,256
 aba:	0801                	addi	a6,a6,0
 abc:	0114                	addi	a3,sp,128
 abe:	0000                	unimp
 ac0:	0412                	slli	s0,s0,0x4
 ac2:	0074                	addi	a3,sp,12
 ac4:	0000                	unimp
 ac6:	a400                	fsd	fs0,8(s0)
 ac8:	0000                	unimp
 aca:	0200                	addi	s0,sp,256
 acc:	6400                	flw	fs0,8(s0)
 ace:	0004                	addi	s1,sp,0
 ad0:	0400                	addi	s0,sp,512
 ad2:	4c01                	li	s8,0
 ad4:	48000007          	0x48000007
 ad8:	0001                	nop
 ada:	2f00                	fld	fs0,24(a4)
 adc:	61726373          	csrrsi	t1,0x617,4
 ae0:	6374                	flw	fa3,68(a4)
 ae2:	2f68                	fld	fa0,216(a4)
 ae4:	636d                	lui	t1,0x1b
 ae6:	6169                	addi	sp,sp,208
 ae8:	696e                	flw	fs2,216(sp)
 aea:	65706f2f          	0x65706f2f
 aee:	746e                	flw	fs0,248(sp)
 af0:	7469                	lui	s0,0xffffa
 af2:	6e61                	lui	t3,0x18
 af4:	2f77732f          	0x2f77732f
 af8:	6574                	flw	fa3,76(a0)
 afa:	2f737473          	csrrci	s0,0x2f7,6
 afe:	6e65706f          	j	581e4 <tohost+0x381dc>
 b02:	6974                	flw	fa3,84(a0)
 b04:	6174                	flw	fa3,68(a0)
 b06:	2f6e                	fld	ft10,216(sp)
 b08:	6d6d6f63          	bltu	s10,s6,11e6 <_min_stack-0xe1a>
 b0c:	632f6e6f          	jal	t3,f713e <tohost+0xd7136>
 b10:	7472                	flw	fs0,60(sp)
 b12:	2e30                	fld	fa2,88(a2)
 b14:	732f0053          	0x732f0053
 b18:	74617263          	bleu	t1,sp,125c <_min_stack-0xda4>
 b1c:	6d2f6863          	bltu	t5,s2,11ec <_min_stack-0xe14>
 b20:	6e616963          	bltu	sp,t1,1212 <_min_stack-0xdee>
 b24:	2f69                	jal	12be <_min_stack-0xd42>
 b26:	6e65706f          	j	5820c <tohost+0x38204>
 b2a:	6974                	flw	fa3,84(a0)
 b2c:	6174                	flw	fa3,68(a0)
 b2e:	2f6e                	fld	ft10,216(sp)
 b30:	742f7773          	csrrci	a4,0x742,30
 b34:	7365                	lui	t1,0xffff9
 b36:	7374                	flw	fa3,100(a4)
 b38:	65706f2f          	0x65706f2f
 b3c:	746e                	flw	fs0,248(sp)
 b3e:	7469                	lui	s0,0xffffa
 b40:	6e61                	lui	t3,0x18
 b42:	616c662f          	0x616c662f
 b46:	705f6873          	csrrsi	a6,0x705,30
 b4a:	6572                	flw	fa0,28(sp)
 b4c:	6f6c                	flw	fa1,92(a4)
 b4e:	6461                	lui	s0,0x18
 b50:	615f 7365 735f      	0x735f7365615f
 b56:	6f6d                	lui	t5,0x1b
 b58:	6574656b          	0x6574656b
 b5c:	47007473          	csrrci	s0,0x470,0
 b60:	554e                	lw	a0,240(sp)
 b62:	4120                	lw	s0,64(a0)
 b64:	2e322053          	0x2e322053
 b68:	3832                	fld	fa6,296(sp)
 b6a:	302e                	fld	ft0,232(sp)
 b6c:	0100                	addi	s0,sp,128
 b6e:	80 00 00 00 00          	Address 0x0000000000000b6e is out of bounds.


Disassembly of section .debug_abbrev:

00000000 <.debug_abbrev>:
   0:	1101                	addi	sp,sp,-32
   2:	2501                	jal	602 <_min_stack-0x19fe>
   4:	130e                	slli	t1,t1,0x23
   6:	1b0e030b          	p.lb	t1,432(t3!) # 181b0 <_stack_len+0x101b0>
   a:	110e                	slli	sp,sp,0x23
   c:	1201                	addi	tp,tp,-32
   e:	1006                	0x1006
  10:	02000017          	auipc	zero,0x2000
  14:	0016                	0x16
  16:	0b3a0e03          	lb	t3,179(s4)
  1a:	13490b3b          	0x13490b3b
  1e:	0000                	unimp
  20:	0b000f03          	lb	t5,176(zero) # b0 <_min_stack-0x1f50>
  24:	000e030b          	p.lb	t1,0(t3!)
  28:	0400                	addi	s0,sp,512
  2a:	0024                	addi	s1,sp,8
  2c:	0b3e0b0b          	p.lb	s6,179(t3!)
  30:	00000803          	lb	a6,0(zero) # 0 <_min_stack-0x2000>
  34:	3505                	jal	fffffe54 <pulp__FC+0xfffffe55>
  36:	4900                	lw	s0,16(a0)
  38:	06000013          	li	zero,96
  3c:	0024                	addi	s1,sp,8
  3e:	0b3e0b0b          	p.lb	s6,179(t3!)
  42:	00000e03          	lb	t3,0(zero) # 0 <_min_stack-0x2000>
  46:	49010107          	0x49010107
  4a:	00130113          	addi	sp,t1,1 # ffff9001 <pulp__FC+0xffff9002>
  4e:	0800                	addi	s0,sp,16
  50:	0021                	c.addi	zero,8
  52:	1349                	addi	t1,t1,-14
  54:	00000b2f          	0xb2f
  58:	2609                	jal	35a <_min_stack-0x1ca6>
  5a:	4900                	lw	s0,16(a0)
  5c:	0a000013          	li	zero,160
  60:	0034                	addi	a3,sp,8
  62:	0b3a0e03          	lb	t3,179(s4)
  66:	13490b3b          	0x13490b3b
  6a:	1802193f 2e0b0000 	0x2e0b00001802193f
  72:	3f01                	jal	ffffff82 <pulp__FC+0xffffff83>
  74:	0319                	addi	t1,t1,6
  76:	3a0e                	fld	fs4,224(sp)
  78:	27053b0b          	0x27053b0b
  7c:	1119                	addi	sp,sp,-26
  7e:	1201                	addi	tp,tp,-32
  80:	4006                	0x4006
  82:	9718                	0x9718
  84:	1942                	slli	s2,s2,0x30
  86:	1301                	addi	t1,t1,-32
  88:	0000                	unimp
  8a:	340c                	fld	fa1,40(s0)
  8c:	0300                	addi	s0,sp,384
  8e:	3a0e                	fld	fs4,224(sp)
  90:	49053b0b          	0x49053b0b
  94:	000b1c13          	slli	s8,s6,0x0
  98:	0d00                	addi	s0,sp,656
  9a:	0034                	addi	a3,sp,8
  9c:	0b3a0803          	lb	a6,179(s4)
  a0:	1349053b          	0x1349053b
  a4:	1702                	slli	a4,a4,0x20
  a6:	0000                	unimp
  a8:	340e                	fld	fs0,224(sp)
  aa:	0300                	addi	s0,sp,384
  ac:	3a0e                	fld	fs4,224(sp)
  ae:	49053b0b          	0x49053b0b
  b2:	00170213          	addi	tp,a4,1 # 8001 <_stack_len+0x1>
  b6:	0f00                	addi	s0,sp,912
  b8:	0034                	addi	a3,sp,8
  ba:	0b3a0e03          	lb	t3,179(s4)
  be:	1349053b          	0x1349053b
  c2:	061c                	addi	a5,sp,768
  c4:	0000                	unimp
  c6:	3410                	fld	fa2,40(s0)
  c8:	0300                	addi	s0,sp,384
  ca:	3a0e                	fld	fs4,224(sp)
  cc:	49053b0b          	0x49053b0b
  d0:	000d1c13          	slli	s8,s10,0x0
  d4:	1100                	addi	s0,sp,160
  d6:	0b0b000f          	0xb0b000f
  da:	1349                	addi	t1,t1,-14
  dc:	0000                	unimp
  de:	2e12                	fld	ft8,256(sp)
  e0:	3f01                	jal	fffffff0 <pulp__FC+0xfffffff1>
  e2:	0319                	addi	t1,t1,6
  e4:	3a0e                	fld	fs4,224(sp)
  e6:	27053b0b          	0x27053b0b
  ea:	4919                	li	s2,6
  ec:	12011113          	0x12011113
  f0:	4006                	0x4006
  f2:	9718                	0x9718
  f4:	1942                	slli	s2,s2,0x30
  f6:	1301                	addi	t1,t1,-32
  f8:	0000                	unimp
  fa:	03000513          	li	a0,48
  fe:	3a08                	fld	fa0,48(a2)
 100:	49053b0b          	0x49053b0b
 104:	00170213          	addi	tp,a4,1
 108:	1400                	addi	s0,sp,544
 10a:	011d                	addi	sp,sp,7
 10c:	1331                	addi	t1,t1,-20
 10e:	0111                	addi	sp,sp,4
 110:	0612                	slli	a2,a2,0x4
 112:	0b58                	addi	a4,sp,404
 114:	0559                	addi	a0,a0,22
 116:	1301                	addi	t1,t1,-32
 118:	0000                	unimp
 11a:	0515                	addi	a0,a0,5
 11c:	3100                	fld	fs0,32(a0)
 11e:	00170213          	addi	tp,a4,1
 122:	1600                	addi	s0,sp,800
 124:	8289                	srli	a3,a3,0x2
 126:	0101                	addi	sp,sp,0
 128:	0111                	addi	sp,sp,4
 12a:	1331                	addi	t1,t1,-20
 12c:	0000                	unimp
 12e:	01828a17          	auipc	s4,0x1828
 132:	0200                	addi	s0,sp,256
 134:	9118                	0x9118
 136:	1842                	slli	a6,a6,0x30
 138:	0000                	unimp
 13a:	1d18                	addi	a4,sp,688
 13c:	3101                	jal	fffffd3c <pulp__FC+0xfffffd3d>
 13e:	12011113          	0x12011113
 142:	5806                	lw	a6,96(sp)
 144:	0005590b          	p.lhu	s2,0(a0!) # 3000 <_min_stack+0x1000>
 148:	1900                	addi	s0,sp,176
 14a:	8289                	srli	a3,a3,0x2
 14c:	0001                	nop
 14e:	0111                	addi	sp,sp,4
 150:	1331                	addi	t1,t1,-20
 152:	0000                	unimp
 154:	051a                	slli	a0,a0,0x6
 156:	0300                	addi	s0,sp,384
 158:	3a0e                	fld	fs4,224(sp)
 15a:	49053b0b          	0x49053b0b
 15e:	00170213          	addi	tp,a4,1
 162:	1b00                	addi	s0,sp,432
 164:	0018                	addi	a4,sp,0
 166:	0000                	unimp
 168:	341c                	fld	fa5,40(s0)
 16a:	0300                	addi	s0,sp,384
 16c:	3a08                	fld	fa0,48(a2)
 16e:	49053b0b          	0x49053b0b
 172:	1d000013          	li	zero,464
 176:	0034                	addi	a3,sp,8
 178:	0b3a0803          	lb	a6,179(s4) # 18281e1 <tohost+0x18081d9>
 17c:	1349053b          	0x1349053b
 180:	1802                	slli	a6,a6,0x20
 182:	0000                	unimp
 184:	1d1e                	slli	s10,s10,0x27
 186:	3101                	jal	fffffd86 <pulp__FC+0xfffffd87>
 188:	55015213          	0x55015213
 18c:	590b5817          	auipc	a6,0x590b5
 190:	0005                	c.addi	zero,1
 192:	1f00                	addi	s0,sp,944
 194:	0005                	c.addi	zero,1
 196:	1331                	addi	t1,t1,-20
 198:	0b1c                	addi	a5,sp,400
 19a:	0000                	unimp
 19c:	0b20                	addi	s0,sp,408
 19e:	5501                	li	a0,-32
 1a0:	21000017          	auipc	zero,0x21000
 1a4:	0034                	addi	a3,sp,8
 1a6:	1331                	addi	t1,t1,-20
 1a8:	1702                	slli	a4,a4,0x20
 1aa:	0000                	unimp
 1ac:	3422                	fld	fs0,40(sp)
 1ae:	3100                	fld	fs0,32(a0)
 1b0:	00180213          	addi	tp,a6,1 # 590b518d <tohost+0x59095185>
 1b4:	2300                	fld	fs0,0(a4)
 1b6:	000a                	0xa
 1b8:	1331                	addi	t1,t1,-20
 1ba:	0111                	addi	sp,sp,4
 1bc:	0000                	unimp
 1be:	0b24                	addi	s1,sp,408
 1c0:	3101                	jal	fffffdc0 <pulp__FC+0xfffffdc1>
 1c2:	01175513          	srli	a0,a4,0x11
 1c6:	25000013          	li	zero,592
 1ca:	011d                	addi	sp,sp,7
 1cc:	1331                	addi	t1,t1,-20
 1ce:	0152                	slli	sp,sp,0x14
 1d0:	1755                	addi	a4,a4,-11
 1d2:	0b58                	addi	a4,sp,404
 1d4:	0559                	addi	a0,a0,22
 1d6:	1301                	addi	t1,t1,-32
 1d8:	0000                	unimp
 1da:	1d26                	slli	s10,s10,0x29
 1dc:	3101                	jal	fffffddc <pulp__FC+0xfffffddd>
 1de:	55015213          	0x55015213
 1e2:	590b5817          	auipc	a6,0x590b5
 1e6:	2700000b          	p.lb	zero,624(zero!) # 270 <_min_stack-0x1d90>
 1ea:	012e                	slli	sp,sp,0xb
 1ec:	0b3a0e03          	lb	t3,179(s4)
 1f0:	19270b3b          	0x19270b3b
 1f4:	1349                	addi	t1,t1,-14
 1f6:	0b20                	addi	s0,sp,408
 1f8:	1301                	addi	t1,t1,-32
 1fa:	0000                	unimp
 1fc:	0528                	addi	a0,sp,648
 1fe:	0300                	addi	s0,sp,384
 200:	3a08                	fld	fa0,48(a2)
 202:	490b3b0b          	0x490b3b0b
 206:	29000013          	li	zero,656
 20a:	0005                	c.addi	zero,1
 20c:	0b3a0e03          	lb	t3,179(s4)
 210:	13490b3b          	0x13490b3b
 214:	0000                	unimp
 216:	342a                	fld	fs0,168(sp)
 218:	0300                	addi	s0,sp,384
 21a:	3a0e                	fld	fs4,224(sp)
 21c:	490b3b0b          	0x490b3b0b
 220:	2b000013          	li	zero,688
 224:	0034                	addi	a3,sp,8
 226:	0b3a0803          	lb	a6,179(s4)
 22a:	13490b3b          	0x13490b3b
 22e:	0000                	unimp
 230:	0a2c                	addi	a1,sp,280
 232:	0300                	addi	s0,sp,384
 234:	3a08                	fld	fa0,48(a2)
 236:	00053b0b          	0x53b0b
 23a:	2d00                	fld	fs0,24(a0)
 23c:	0000010b          	p.lb	sp,0(zero!) # 0 <_min_stack-0x2000>
 240:	2e2e                	fld	ft8,200(sp)
 242:	0301                	addi	t1,t1,0
 244:	3a0e                	fld	fs4,224(sp)
 246:	270b3b0b          	0x270b3b0b
 24a:	2019                	jal	250 <_min_stack-0x1db0>
 24c:	0013010b          	p.lb	sp,1(t1!)
 250:	2f00                	fld	fs0,24(a4)
 252:	012e                	slli	sp,sp,0xb
 254:	0e03193f 0b3b0b3a 	0xb3b0b3a0e03193f
 25c:	13491927          	0x13491927
 260:	0b20                	addi	s0,sp,408
 262:	1301                	addi	t1,t1,-32
 264:	0000                	unimp
 266:	2e30                	fld	fa2,88(a2)
 268:	3f00                	fld	fs0,56(a4)
 26a:	0319                	addi	t1,t1,6
 26c:	3a0e                	fld	fs4,224(sp)
 26e:	270b3b0b          	0x270b3b0b
 272:	1119                	addi	sp,sp,-26
 274:	1201                	addi	tp,tp,-32
 276:	4006                	0x4006
 278:	9718                	0x9718
 27a:	1942                	slli	s2,s2,0x30
 27c:	0000                	unimp
 27e:	2e31                	jal	59a <_min_stack-0x1a66>
 280:	3f01                	jal	190 <_min_stack-0x1e70>
 282:	0319                	addi	t1,t1,6
 284:	3a0e                	fld	fs4,224(sp)
 286:	270b3b0b          	0x270b3b0b
 28a:	1119                	addi	sp,sp,-26
 28c:	1201                	addi	tp,tp,-32
 28e:	4006                	0x4006
 290:	9718                	0x9718
 292:	1942                	slli	s2,s2,0x30
 294:	1301                	addi	t1,t1,-32
 296:	0000                	unimp
 298:	0532                	slli	a0,a0,0xc
 29a:	0300                	addi	s0,sp,384
 29c:	3a08                	fld	fa0,48(a2)
 29e:	490b3b0b          	0x490b3b0b
 2a2:	00180213          	addi	tp,a6,1 # 590b51e3 <tohost+0x590951db>
 2a6:	3300                	fld	fs0,32(a4)
 2a8:	002e                	0x2e
 2aa:	0e03193f 0b3b0b3a 	0xb3b0b3a0e03193f
 2b2:	1349                	addi	t1,t1,-14
 2b4:	0111                	addi	sp,sp,4
 2b6:	0612                	slli	a2,a2,0x4
 2b8:	1840                	addi	s0,sp,52
 2ba:	00194297          	auipc	t0,0x194
 2be:	3400                	fld	fs0,40(s0)
 2c0:	0005                	c.addi	zero,1
 2c2:	0b3a0803          	lb	a6,179(s4)
 2c6:	13490b3b          	0x13490b3b
 2ca:	1702                	slli	a4,a4,0x20
 2cc:	0000                	unimp
 2ce:	3435                	jal	fffffcfa <pulp__FC+0xfffffcfb>
 2d0:	0300                	addi	s0,sp,384
 2d2:	3a08                	fld	fa0,48(a2)
 2d4:	490b3b0b          	0x490b3b0b
 2d8:	000b1c13          	slli	s8,s6,0x0
 2dc:	3600                	fld	fs0,40(a2)
 2de:	0005                	c.addi	zero,1
 2e0:	0b3a0e03          	lb	t3,179(s4)
 2e4:	13490b3b          	0x13490b3b
 2e8:	1802                	slli	a6,a6,0x20
 2ea:	0000                	unimp
 2ec:	03000537          	lui	a0,0x3000
 2f0:	3a0e                	fld	fs4,224(sp)
 2f2:	490b3b0b          	0x490b3b0b
 2f6:	00170213          	addi	tp,a4,1
 2fa:	3800                	fld	fs0,48(s0)
 2fc:	8289                	srli	a3,a3,0x2
 2fe:	0101                	addi	sp,sp,0
 300:	0111                	addi	sp,sp,4
 302:	4295                	li	t0,5
 304:	3119                	jal	ffffff0a <pulp__FC+0xffffff0b>
 306:	39000013          	li	zero,912
 30a:	012e                	slli	sp,sp,0xb
 30c:	1331                	addi	t1,t1,-20
 30e:	0111                	addi	sp,sp,4
 310:	0612                	slli	a2,a2,0x4
 312:	1840                	addi	s0,sp,52
 314:	01194297          	auipc	t0,0x1194
 318:	3a000013          	li	zero,928
 31c:	011d                	addi	sp,sp,7
 31e:	1331                	addi	t1,t1,-20
 320:	0152                	slli	sp,sp,0x14
 322:	1755                	addi	a4,a4,-11
 324:	0b58                	addi	a4,sp,404
 326:	0b59                	addi	s6,s6,22
 328:	1301                	addi	t1,t1,-32
 32a:	0000                	unimp
 32c:	3100053b          	0x3100053b
 330:	3c000013          	li	zero,960
 334:	011d                	addi	sp,sp,7
 336:	1331                	addi	t1,t1,-20
 338:	0111                	addi	sp,sp,4
 33a:	0612                	slli	a2,a2,0x4
 33c:	0b58                	addi	a4,sp,404
 33e:	0b59                	addi	s6,s6,22
 340:	0000                	unimp
 342:	343d                	jal	fffffd70 <pulp__FC+0xfffffd71>
 344:	3100                	fld	fs0,32(a0)
 346:	3e000013          	li	zero,992
 34a:	011d                	addi	sp,sp,7
 34c:	1331                	addi	t1,t1,-20
 34e:	0111                	addi	sp,sp,4
 350:	0612                	slli	a2,a2,0x4
 352:	0b58                	addi	a4,sp,404
 354:	0b59                	addi	s6,s6,22
 356:	1301                	addi	t1,t1,-32
 358:	0000                	unimp
 35a:	0182893f 31011101 	0x310111010182893f
 362:	00130113          	addi	sp,t1,1
 366:	4000                	lw	s0,0(s0)
 368:	012e                	slli	sp,sp,0xb
 36a:	1331                	addi	t1,t1,-20
 36c:	0111                	addi	sp,sp,4
 36e:	0612                	slli	a2,a2,0x4
 370:	1840                	addi	s0,sp,52
 372:	00194297          	auipc	t0,0x194
 376:	0000                	unimp
 378:	1101                	addi	sp,sp,-32
 37a:	2501                	jal	97a <_min_stack-0x1686>
 37c:	130e                	slli	t1,t1,0x23
 37e:	1b0e030b          	p.lb	t1,432(t3!)
 382:	550e                	lw	a0,224(sp)
 384:	10011117          	auipc	sp,0x10011
 388:	02000017          	auipc	zero,0x2000
 38c:	0024                	addi	s1,sp,8
 38e:	0b3e0b0b          	p.lb	s6,179(t3!)
 392:	00000e03          	lb	t3,0(zero) # 0 <_min_stack-0x2000>
 396:	03001603          	lh	a2,48(zero) # 30 <_min_stack-0x1fd0>
 39a:	3a0e                	fld	fs4,224(sp)
 39c:	490b3b0b          	0x490b3b0b
 3a0:	04000013          	li	zero,64
 3a4:	0026                	0x26
 3a6:	1349                	addi	t1,t1,-14
 3a8:	0000                	unimp
 3aa:	2405                	jal	5ca <_min_stack-0x1a36>
 3ac:	0b00                	addi	s0,sp,400
 3ae:	030b3e0b          	0x30b3e0b
 3b2:	0008                	addi	a0,sp,0
 3b4:	0600                	addi	s0,sp,768
 3b6:	0035                	c.addi	zero,13
 3b8:	1349                	addi	t1,t1,-14
 3ba:	0000                	unimp
 3bc:	03003407          	fld	fs0,48(zero) # 30 <_min_stack-0x1fd0>
 3c0:	3a0e                	fld	fs4,224(sp)
 3c2:	490b3b0b          	0x490b3b0b
 3c6:	00051c13          	slli	s8,a0,0x0
 3ca:	0800                	addi	s0,sp,16
 3cc:	0101                	addi	sp,sp,0
 3ce:	1349                	addi	t1,t1,-14
 3d0:	1301                	addi	t1,t1,-32
 3d2:	0000                	unimp
 3d4:	2109                	jal	7d6 <_min_stack-0x182a>
 3d6:	4900                	lw	s0,16(a0)
 3d8:	00052f13          	slti	t5,a0,0
 3dc:	0a00                	addi	s0,sp,272
 3de:	0034                	addi	a3,sp,8
 3e0:	0b3a0e03          	lb	t3,179(s4)
 3e4:	13490b3b          	0x13490b3b
 3e8:	1802                	slli	a6,a6,0x20
 3ea:	0000                	unimp
 3ec:	3f012e0b          	p.lw	t3,1008(sp!) # 10011774 <tohost+0xfff176c>
 3f0:	0319                	addi	t1,t1,6
 3f2:	3a0e                	fld	fs4,224(sp)
 3f4:	270b3b0b          	0x270b3b0b
 3f8:	4919                	li	s2,6
 3fa:	12011113          	0x12011113
 3fe:	4006                	0x4006
 400:	9718                	0x9718
 402:	1942                	slli	s2,s2,0x30
 404:	1301                	addi	t1,t1,-32
 406:	0000                	unimp
 408:	050c                	addi	a1,sp,640
 40a:	0300                	addi	s0,sp,384
 40c:	3a0e                	fld	fs4,224(sp)
 40e:	490b3b0b          	0x490b3b0b
 412:	00170213          	addi	tp,a4,1
 416:	0d00                	addi	s0,sp,656
 418:	0034                	addi	a3,sp,8
 41a:	0b3a0e03          	lb	t3,179(s4)
 41e:	13490b3b          	0x13490b3b
 422:	0d1c                	addi	a5,sp,656
 424:	0000                	unimp
 426:	340e                	fld	fs0,224(sp)
 428:	0300                	addi	s0,sp,384
 42a:	3a0e                	fld	fs4,224(sp)
 42c:	490b3b0b          	0x490b3b0b
 430:	000b1c13          	slli	s8,s6,0x0
 434:	0f00                	addi	s0,sp,912
 436:	0034                	addi	a3,sp,8
 438:	0b3a0803          	lb	a6,179(s4)
 43c:	13490b3b          	0x13490b3b
 440:	0b1c                	addi	a5,sp,400
 442:	0000                	unimp
 444:	0b10                	addi	a2,sp,400
 446:	5501                	li	a0,-32
 448:	11000017          	auipc	zero,0x11000
 44c:	0034                	addi	a3,sp,8
 44e:	0b3a0803          	lb	a6,179(s4)
 452:	13490b3b          	0x13490b3b
 456:	1702                	slli	a4,a4,0x20
 458:	0000                	unimp
 45a:	0f12                	slli	t5,t5,0x4
 45c:	0b00                	addi	s0,sp,400
 45e:	0013490b          	p.lbu	s2,1(t1!)
 462:	0000                	unimp
 464:	1101                	addi	sp,sp,-32
 466:	1000                	addi	s0,sp,32
 468:	5506                	lw	a0,96(sp)
 46a:	0306                	slli	t1,t1,0x1
 46c:	1b08                	addi	a0,sp,432
 46e:	2508                	fld	fa0,8(a0)
 470:	1308                	addi	a0,sp,416
 472:	0005                	c.addi	zero,1
	...

Disassembly of section .debug_loc:

00000000 <.debug_loc>:
   0:	03fc                	addi	a5,sp,460
   2:	0000                	unimp
   4:	0428                	addi	a0,sp,520
   6:	0000                	unimp
   8:	0001                	nop
   a:	005a                	0x5a
   c:	0000                	unimp
   e:	0000                	unimp
  10:	0000                	unimp
  12:	0200                	addi	s0,sp,256
  14:	0004                	addi	s1,sp,0
  16:	2a00                	fld	fs0,16(a2)
  18:	0004                	addi	s1,sp,0
  1a:	0100                	addi	s0,sp,128
  1c:	5b00                	lw	s0,48(a4)
	...
  26:	0404                	addi	s1,sp,512
  28:	0000                	unimp
  2a:	042c                	addi	a1,sp,520
  2c:	0000                	unimp
  2e:	0001                	nop
  30:	005c                	addi	a5,sp,4
  32:	0000                	unimp
  34:	0000                	unimp
  36:	0000                	unimp
  38:	0a00                	addi	s0,sp,272
  3a:	0004                	addi	s1,sp,0
  3c:	3400                	fld	fs0,40(s0)
  3e:	0004                	addi	s1,sp,0
  40:	0100                	addi	s0,sp,128
  42:	6000                	flw	fs0,0(s0)
	...
  4c:	0406                	slli	s0,s0,0x1
  4e:	0000                	unimp
  50:	042e                	slli	s0,s0,0xb
  52:	0000                	unimp
  54:	0001                	nop
  56:	005d                	c.addi	zero,23
  58:	0000                	unimp
  5a:	0000                	unimp
  5c:	0000                	unimp
  5e:	f000                	fsw	fs0,32(s0)
  60:	22000003          	lb	zero,544(zero) # 220 <_min_stack-0x1de0>
  64:	0004                	addi	s1,sp,0
  66:	0600                	addi	s0,sp,768
  68:	0c00                	addi	s0,sp,528
  6a:	4020                	lw	s0,64(s0)
  6c:	1040                	addi	s0,sp,36
  6e:	229f 0004 2600      	0x26000004229f
  74:	0004                	addi	s1,sp,0
  76:	0600                	addi	s0,sp,768
  78:	0c00                	addi	s0,sp,528
  7a:	4024                	lw	s1,64(s0)
  7c:	1040                	addi	s0,sp,36
  7e:	009f 0000 0000      	0x9f
  84:	0000                	unimp
  86:	9e00                	0x9e00
  88:	ac000003          	lb	zero,-1344(zero) # fffffac0 <pulp__FC+0xfffffac1>
  8c:	01000003          	lb	zero,16(zero) # 10 <_min_stack-0x1ff0>
  90:	5a00                	lw	s0,48(a2)
  92:	03ac                	addi	a1,sp,456
  94:	0000                	unimp
  96:	03c4                	addi	s1,sp,452
  98:	0000                	unimp
  9a:	0001                	nop
  9c:	c459                	beqz	s0,12a <_min_stack-0x1ed6>
  9e:	ca000003          	lb	zero,-864(zero) # fffffca0 <pulp__FC+0xfffffca1>
  a2:	04000003          	lb	zero,64(zero) # 40 <_min_stack-0x1fc0>
  a6:	f300                	fsw	fs0,32(a4)
  a8:	5a01                	li	s4,-32
  aa:	ca9f 0003 ce00      	0xce000003ca9f
  b0:	01000003          	lb	zero,16(zero) # 10 <_min_stack-0x1ff0>
  b4:	5900                	lw	s0,48(a0)
	...
  be:	039e                	slli	t2,t2,0x7
  c0:	0000                	unimp
  c2:	03ac                	addi	a1,sp,456
  c4:	0000                	unimp
  c6:	0002                	0x2
  c8:	9f30                	0x9f30
  ca:	03b0                	addi	a2,sp,456
  cc:	0000                	unimp
  ce:	03c6                	slli	t2,t2,0x11
  d0:	0000                	unimp
  d2:	0001                	nop
  d4:	c662                	sw	s8,12(sp)
  d6:	ca000003          	lb	zero,-864(zero) # fffffca0 <pulp__FC+0xfffffca1>
  da:	01000003          	lb	zero,16(zero) # 10 <_min_stack-0x1ff0>
  de:	5a00                	lw	s0,48(a2)
  e0:	03ca                	slli	t2,t2,0x12
  e2:	0000                	unimp
  e4:	03ce                	slli	t2,t2,0x13
  e6:	0000                	unimp
  e8:	0006                	0x6
  ea:	0078                	addi	a4,sp,12
  ec:	0079                	c.addi	zero,30
  ee:	9f1c                	0x9f1c
	...
  f8:	03b8                	addi	a4,sp,456
  fa:	0000                	unimp
  fc:	03bc                	addi	a5,sp,456
  fe:	0000                	unimp
 100:	0002                	0x2
 102:	9f3a                	add	t5,t5,a4
	...
 10c:	03ca                	slli	t2,t2,0x12
 10e:	0000                	unimp
 110:	000003cb          	fnmsub.s	ft7,ft0,ft0,ft0,rne
 114:	0006                	0x6
 116:	007a                	0x7a
 118:	ff08                	fsw	fa0,56(a4)
 11a:	9f1a                	add	t5,t5,t1
	...
 124:	023c                	addi	a5,sp,264
 126:	0000                	unimp
 128:	027e                	slli	tp,tp,0x1f
 12a:	0000                	unimp
 12c:	0001                	nop
 12e:	7e5a                	flw	ft8,180(sp)
 130:	0002                	0x2
 132:	9400                	0x9400
 134:	04000003          	lb	zero,64(zero) # 40 <_min_stack-0x1fc0>
 138:	f300                	fsw	fs0,32(a4)
 13a:	5a01                	li	s4,-32
 13c:	009f 0000 0000      	0x9f
 142:	0000                	unimp
 144:	6600                	flw	fs0,8(a2)
 146:	0002                	0x2
 148:	8800                	0x8800
 14a:	0002                	0x2
 14c:	0100                	addi	s0,sp,128
 14e:	5800                	lw	s0,48(s0)
 150:	029e                	slli	t0,t0,0x7
 152:	0000                	unimp
 154:	02f0                	addi	a2,sp,332
 156:	0000                	unimp
 158:	0001                	nop
 15a:	f058                	fsw	fa4,36(s0)
 15c:	0002                	0x2
 15e:	fc00                	fsw	fs0,56(s0)
 160:	0002                	0x2
 162:	0100                	addi	s0,sp,128
 164:	6800                	flw	fs0,16(s0)
 166:	02fc                	addi	a5,sp,332
 168:	0000                	unimp
 16a:	031a                	slli	t1,t1,0x6
 16c:	0000                	unimp
 16e:	0001                	nop
 170:	1a58                	addi	a4,sp,308
 172:	2a000003          	lb	zero,672(zero) # 2a0 <_min_stack-0x1d60>
 176:	01000003          	lb	zero,16(zero) # 10 <_min_stack-0x1ff0>
 17a:	6800                	flw	fs0,16(s0)
 17c:	032a                	slli	t1,t1,0xa
 17e:	0000                	unimp
 180:	033a                	slli	t1,t1,0xe
 182:	0000                	unimp
 184:	0001                	nop
 186:	3a58                	fld	fa4,176(a2)
 188:	42000003          	lb	zero,1056(zero) # 420 <_min_stack-0x1be0>
 18c:	01000003          	lb	zero,16(zero) # 10 <_min_stack-0x1ff0>
 190:	6800                	flw	fs0,16(s0)
 192:	0342                	slli	t1,t1,0x10
 194:	0000                	unimp
 196:	034e                	slli	t1,t1,0x13
 198:	0000                	unimp
 19a:	0001                	nop
 19c:	4e58                	lw	a4,28(a2)
 19e:	58000003          	lb	zero,1408(zero) # 580 <_min_stack-0x1a80>
 1a2:	01000003          	lb	zero,16(zero) # 10 <_min_stack-0x1ff0>
 1a6:	6800                	flw	fs0,16(s0)
 1a8:	0358                	addi	a4,sp,388
 1aa:	0000                	unimp
 1ac:	0364                	addi	s1,sp,396
 1ae:	0000                	unimp
 1b0:	0001                	nop
 1b2:	6458                	flw	fa4,12(s0)
 1b4:	6a000003          	lb	zero,1696(zero) # 6a0 <_min_stack-0x1960>
 1b8:	01000003          	lb	zero,16(zero) # 10 <_min_stack-0x1ff0>
 1bc:	6800                	flw	fs0,16(s0)
 1be:	036a                	slli	t1,t1,0x1a
 1c0:	0000                	unimp
 1c2:	0378                	addi	a4,sp,396
 1c4:	0000                	unimp
 1c6:	0001                	nop
 1c8:	7858                	flw	fa4,52(s0)
 1ca:	88000003          	lb	zero,-1920(zero) # fffff880 <pulp__FC+0xfffff881>
 1ce:	01000003          	lb	zero,16(zero) # 10 <_min_stack-0x1ff0>
 1d2:	6800                	flw	fs0,16(s0)
 1d4:	0388                	addi	a0,sp,448
 1d6:	0000                	unimp
 1d8:	0394                	addi	a3,sp,448
 1da:	0000                	unimp
 1dc:	0001                	nop
 1de:	0058                	addi	a4,sp,4
 1e0:	0000                	unimp
 1e2:	0000                	unimp
 1e4:	0000                	unimp
 1e6:	6600                	flw	fs0,8(a2)
 1e8:	0002                	0x2
 1ea:	7e00                	flw	fs0,56(a2)
 1ec:	0002                	0x2
 1ee:	0100                	addi	s0,sp,128
 1f0:	5a00                	lw	s0,48(a2)
 1f2:	027e                	slli	tp,tp,0x1f
 1f4:	0000                	unimp
 1f6:	0284                	addi	s1,sp,320
 1f8:	0000                	unimp
 1fa:	0001                	nop
 1fc:	00029e67          	0x29e67
 200:	a200                	fsd	fs0,0(a2)
 202:	0002                	0x2
 204:	0100                	addi	s0,sp,128
 206:	6700                	flw	fs0,8(a4)
 208:	02a2                	slli	t0,t0,0x8
 20a:	0000                	unimp
 20c:	02ba                	slli	t0,t0,0xe
 20e:	0000                	unimp
 210:	01870003          	lb	zero,24(a4)
 214:	ba9f 0002 bc00      	0xbc000002ba9f
 21a:	0002                	0x2
 21c:	0100                	addi	s0,sp,128
 21e:	5f00                	lw	s0,56(a4)
 220:	02be                	slli	t0,t0,0xf
 222:	0000                	unimp
 224:	02fc                	addi	a5,sp,332
 226:	0000                	unimp
 228:	0001                	nop
 22a:	0002fc67          	0x2fc67
 22e:	0000                	unimp
 230:	03000003          	lb	zero,48(zero) # 30 <_min_stack-0x1fd0>
 234:	8700                	0x8700
 236:	9f01                	0x9f01
 238:	0300                	addi	s0,sp,384
 23a:	0000                	unimp
 23c:	0304                	addi	s1,sp,384
 23e:	0000                	unimp
 240:	017d0003          	lb	zero,23(s10) # 9017 <_stack_len+0x1017>
 244:	049f 0003 0a00      	0xa000003049f
 24a:	01000003          	lb	zero,16(zero) # 10 <_min_stack-0x1ff0>
 24e:	6700                	flw	fs0,8(a4)
 250:	030a                	slli	t1,t1,0x2
 252:	0000                	unimp
 254:	030c                	addi	a1,sp,384
 256:	0000                	unimp
 258:	7f800003          	lb	zero,2040(zero) # 7f8 <_min_stack-0x1808>
 25c:	0c9f 0003 0e00      	0xe0000030c9f
 262:	03000003          	lb	zero,48(zero) # 30 <_min_stack-0x1fd0>
 266:	8700                	0x8700
 268:	9f01                	0x9f01
 26a:	030e                	slli	t1,t1,0x3
 26c:	0000                	unimp
 26e:	032a                	slli	t1,t1,0xa
 270:	0000                	unimp
 272:	0001                	nop
 274:	00032a67          	0x32a67
 278:	2c00                	fld	fs0,24(s0)
 27a:	03000003          	lb	zero,48(zero) # 30 <_min_stack-0x1fd0>
 27e:	8700                	0x8700
 280:	9f01                	0x9f01
 282:	032c                	addi	a1,sp,392
 284:	0000                	unimp
 286:	0388                	addi	a0,sp,448
 288:	0000                	unimp
 28a:	0001                	nop
 28c:	00038867          	jalr	a6,t2
 290:	8a00                	0x8a00
 292:	03000003          	lb	zero,48(zero) # 30 <_min_stack-0x1fd0>
 296:	7f00                	flw	fs0,56(a4)
 298:	9f01                	0x9f01
 29a:	038a                	slli	t2,t2,0x2
 29c:	0000                	unimp
 29e:	0394                	addi	a3,sp,448
 2a0:	0000                	unimp
 2a2:	0001                	nop
 2a4:	00000067          	jr	zero
 2a8:	0000                	unimp
 2aa:	0000                	unimp
 2ac:	a200                	fsd	fs0,0(a2)
 2ae:	0002                	0x2
 2b0:	ce00                	sw	s0,24(a2)
 2b2:	0002                	0x2
 2b4:	0200                	addi	s0,sp,256
 2b6:	3000                	fld	fs0,32(s0)
 2b8:	ce9f 0002 f800      	0xf8000002ce9f
 2be:	0002                	0x2
 2c0:	0100                	addi	s0,sp,128
 2c2:	5d00                	lw	s0,56(a0)
 2c4:	02f8                	addi	a4,sp,332
 2c6:	0000                	unimp
 2c8:	02f9                	addi	t0,t0,30
 2ca:	0000                	unimp
 2cc:	0001                	nop
 2ce:	0002fc5b          	p.mac.zh.zh	s8,t0,zero,zero
 2d2:	0400                	addi	s0,sp,512
 2d4:	02000003          	lb	zero,32(zero) # 20 <_min_stack-0x1fe0>
 2d8:	3000                	fld	fs0,32(s0)
 2da:	049f 0003 2500      	0x25000003049f
 2e0:	01000003          	lb	zero,16(zero) # 10 <_min_stack-0x1ff0>
 2e4:	5d00                	lw	s0,56(a0)
 2e6:	032e                	slli	t1,t1,0xb
 2e8:	0000                	unimp
 2ea:	0388                	addi	a0,sp,448
 2ec:	0000                	unimp
 2ee:	0001                	nop
 2f0:	885d                	andi	s0,s0,23
 2f2:	8a000003          	lb	zero,-1888(zero) # fffff8a0 <pulp__FC+0xfffff8a1>
 2f6:	02000003          	lb	zero,32(zero) # 20 <_min_stack-0x1fe0>
 2fa:	3000                	fld	fs0,32(s0)
 2fc:	009f 0000 0000      	0x9f
 302:	0000                	unimp
 304:	a200                	fsd	fs0,0(a2)
 306:	0002                	0x2
 308:	ba00                	fsd	fs0,48(a2)
 30a:	0002                	0x2
 30c:	0200                	addi	s0,sp,256
 30e:	3000                	fld	fs0,32(s0)
 310:	ba9f 0002 bc00      	0xbc000002ba9f
 316:	0002                	0x2
 318:	0200                	addi	s0,sp,256
 31a:	3100                	fld	fs0,32(a0)
 31c:	be9f 0002 f800      	0xf8000002be9f
 322:	0002                	0x2
 324:	0100                	addi	s0,sp,128
 326:	5e00                	lw	s0,56(a2)
 328:	02f8                	addi	a4,sp,332
 32a:	0000                	unimp
 32c:	02f9                	addi	t0,t0,30
 32e:	0000                	unimp
 330:	0001                	nop
 332:	fc5c                	fsw	fa5,60(s0)
 334:	0002                	0x2
 336:	2500                	fld	fs0,8(a0)
 338:	01000003          	lb	zero,16(zero) # 10 <_min_stack-0x1ff0>
 33c:	5e00                	lw	s0,56(a2)
 33e:	032e                	slli	t1,t1,0xb
 340:	0000                	unimp
 342:	0388                	addi	a0,sp,448
 344:	0000                	unimp
 346:	0001                	nop
 348:	885e                	mv	a6,s7
 34a:	8a000003          	lb	zero,-1888(zero) # fffff8a0 <pulp__FC+0xfffff8a1>
 34e:	02000003          	lb	zero,32(zero) # 20 <_min_stack-0x1fe0>
 352:	3000                	fld	fs0,32(s0)
 354:	009f 0000 0000      	0x9f
 35a:	0000                	unimp
 35c:	7e00                	flw	fs0,56(a2)
 35e:	0002                	0x2
 360:	9600                	0x9600
 362:	0002                	0x2
 364:	0100                	addi	s0,sp,128
 366:	6600                	flw	fs0,8(a2)
 368:	0296                	slli	t0,t0,0x5
 36a:	0000                	unimp
 36c:	029e                	slli	t0,t0,0x7
 36e:	0000                	unimp
 370:	0001                	nop
 372:	9e5a                	add	t3,t3,s6
 374:	0002                	0x2
 376:	9000                	0x9000
 378:	01000003          	lb	zero,16(zero) # 10 <_min_stack-0x1ff0>
 37c:	6600                	flw	fs0,8(a2)
 37e:	0390                	addi	a2,sp,448
 380:	0000                	unimp
 382:	0392                	slli	t2,t2,0x4
 384:	0000                	unimp
 386:	7f860003          	lb	zero,2040(a2) # fffea7f8 <pulp__FC+0xfffea7f9>
 38a:	929f 0003 9400      	0x94000003929f
 390:	01000003          	lb	zero,16(zero) # 10 <_min_stack-0x1ff0>
 394:	6600                	flw	fs0,8(a2)
	...
 39e:	038a                	slli	t2,t2,0x2
 3a0:	0000                	unimp
 3a2:	0392                	slli	t2,t2,0x4
 3a4:	0000                	unimp
 3a6:	0002                	0x2
 3a8:	9f30                	0x9f30
	...
 3b2:	038a                	slli	t2,t2,0x2
 3b4:	0000                	unimp
 3b6:	0391                	addi	t2,t2,4
 3b8:	0000                	unimp
 3ba:	0008                	addi	a0,sp,0
 3bc:	01940087          	0x1940087
 3c0:	ff08                	fsw	fa0,56(a4)
 3c2:	9f1a                	add	t5,t5,t1
	...
 3cc:	002e                	0x2e
 3ce:	0000                	unimp
 3d0:	0044                	addi	s1,sp,4
 3d2:	0000                	unimp
 3d4:	0001                	nop
 3d6:	445a                	lw	s0,148(sp)
 3d8:	0000                	unimp
 3da:	5400                	lw	s0,40(s0)
 3dc:	0000                	unimp
 3de:	0100                	addi	s0,sp,128
 3e0:	5a00                	lw	s0,48(a2)
	...
 3ea:	002e                	0x2e
 3ec:	0000                	unimp
 3ee:	004a                	0x4a
 3f0:	0000                	unimp
 3f2:	0001                	nop
 3f4:	00004a5b          	p.mac.zl.zl	s4,zero,zero,zero
 3f8:	5400                	lw	s0,40(s0)
 3fa:	0000                	unimp
 3fc:	0100                	addi	s0,sp,128
 3fe:	5b00                	lw	s0,48(a4)
	...
 40c:	0014                	addi	a3,sp,0
 40e:	0000                	unimp
 410:	0001                	nop
 412:	0000145b          	p.macu	s0,zero,zero
 416:	2e00                	fld	fs0,24(a2)
 418:	0000                	unimp
 41a:	0400                	addi	s0,sp,512
 41c:	f300                	fsw	fs0,32(a4)
 41e:	5b01                	li	s6,-32
 420:	009f 0000 0000      	0x9f
 426:	0000                	unimp
 428:	7600                	flw	fs0,40(a2)
 42a:	0000                	unimp
 42c:	9400                	0x9400
 42e:	0000                	unimp
 430:	0100                	addi	s0,sp,128
 432:	5a00                	lw	s0,48(a2)
 434:	0094                	addi	a3,sp,64
 436:	0000                	unimp
 438:	00ca                	slli	ra,ra,0x12
 43a:	0000                	unimp
 43c:	0001                	nop
 43e:	ec59                	bnez	s0,4dc <_min_stack-0x1b24>
 440:	0000                	unimp
 442:	1400                	addi	s0,sp,544
 444:	0001                	nop
 446:	0100                	addi	s0,sp,128
 448:	5900                	lw	s0,48(a0)
	...
 452:	0076                	0x76
 454:	0000                	unimp
 456:	00a6                	slli	ra,ra,0x9
 458:	0000                	unimp
 45a:	0001                	nop
 45c:	0000a65b          	p.addn	a2,ra,zero,0
 460:	ba00                	fsd	fs0,48(a2)
 462:	0000                	unimp
 464:	0100                	addi	s0,sp,128
 466:	5800                	lw	s0,48(s0)
 468:	00ce                	slli	ra,ra,0x13
 46a:	0000                	unimp
 46c:	00e2                	slli	ra,ra,0x18
 46e:	0000                	unimp
 470:	0001                	nop
 472:	ec59                	bnez	s0,510 <_min_stack-0x1af0>
 474:	0000                	unimp
 476:	ee00                	fsw	fs0,24(a2)
 478:	0000                	unimp
 47a:	0100                	addi	s0,sp,128
 47c:	5800                	lw	s0,48(s0)
 47e:	00ee                	slli	ra,ra,0x1b
 480:	0000                	unimp
 482:	00f0                	addi	a2,sp,76
 484:	0000                	unimp
 486:	0001                	nop
 488:	0000f05b          	p.mac.zh.zh	zero,ra,zero,zero
 48c:	f400                	fsw	fs0,40(s0)
 48e:	0000                	unimp
 490:	0100                	addi	s0,sp,128
 492:	6300                	flw	fs0,0(a4)
 494:	00f4                	addi	a3,sp,76
 496:	0000                	unimp
 498:	00f6                	slli	ra,ra,0x1d
 49a:	0000                	unimp
 49c:	7f830003          	lb	zero,2040(t1)
 4a0:	f69f 0000 0600      	0x6000000f69f
 4a6:	0001                	nop
 4a8:	0100                	addi	s0,sp,128
 4aa:	6300                	flw	fs0,0(a4)
 4ac:	0106                	slli	sp,sp,0x1
 4ae:	0000                	unimp
 4b0:	010e                	slli	sp,sp,0x3
 4b2:	0000                	unimp
 4b4:	0001                	nop
 4b6:	1458                	addi	a4,sp,548
 4b8:	0001                	nop
 4ba:	1c00                	addi	s0,sp,560
 4bc:	0001                	nop
 4be:	0100                	addi	s0,sp,128
 4c0:	5900                	lw	s0,48(a0)
	...
 4ca:	0076                	0x76
 4cc:	0000                	unimp
 4ce:	00b6                	slli	ra,ra,0xd
 4d0:	0000                	unimp
 4d2:	0001                	nop
 4d4:	b65c                	fsd	fa5,168(a2)
 4d6:	0000                	unimp
 4d8:	ec00                	fsw	fs0,24(s0)
 4da:	0000                	unimp
 4dc:	0400                	addi	s0,sp,512
 4de:	f300                	fsw	fs0,32(a4)
 4e0:	5c01                	li	s8,-32
 4e2:	ec9f 0000 f000      	0xf0000000ec9f
 4e8:	0000                	unimp
 4ea:	0100                	addi	s0,sp,128
 4ec:	5c00                	lw	s0,56(s0)
 4ee:	00f0                	addi	a2,sp,76
 4f0:	0000                	unimp
 4f2:	011c                	addi	a5,sp,128
 4f4:	0000                	unimp
 4f6:	0004                	addi	s1,sp,0
 4f8:	9f5c01f3          	0x9f5c01f3
	...
 504:	0076                	0x76
 506:	0000                	unimp
 508:	00ba                	slli	ra,ra,0xe
 50a:	0000                	unimp
 50c:	0002                	0x2
 50e:	9f30                	0x9f30
 510:	00c6                	slli	ra,ra,0x11
 512:	0000                	unimp
 514:	00ce                	slli	ra,ra,0x13
 516:	0000                	unimp
 518:	0001                	nop
 51a:	ec64                	fsw	fs1,92(s0)
 51c:	0000                	unimp
 51e:	f000                	fsw	fs0,32(s0)
 520:	0000                	unimp
 522:	0200                	addi	s0,sp,256
 524:	3000                	fld	fs0,32(s0)
 526:	069f 0001 0e00      	0xe000001069f
 52c:	0001                	nop
 52e:	0200                	addi	s0,sp,256
 530:	3000                	fld	fs0,32(s0)
 532:	0e9f 0001 1000      	0x100000010e9f
 538:	0001                	nop
 53a:	0100                	addi	s0,sp,128
 53c:	6400                	flw	fs0,8(s0)
	...
 546:	0076                	0x76
 548:	0000                	unimp
 54a:	00b4                	addi	a3,sp,72
 54c:	0000                	unimp
 54e:	20080003          	lb	zero,512(a6)
 552:	b49f 0000 ce00      	0xce000000b49f
 558:	0000                	unimp
 55a:	0100                	addi	s0,sp,128
 55c:	6200                	flw	fs0,0(a2)
 55e:	00ec                	addi	a1,sp,76
 560:	0000                	unimp
 562:	00f0                	addi	a2,sp,76
 564:	0000                	unimp
 566:	20080003          	lb	zero,512(a6)
 56a:	f09f 0000 1400      	0x14000000f09f
 570:	0001                	nop
 572:	0100                	addi	s0,sp,128
 574:	6200                	flw	fs0,0(a2)
	...
 57e:	009e                	slli	ra,ra,0x7
 580:	0000                	unimp
 582:	00b4                	addi	a3,sp,72
 584:	0000                	unimp
 586:	0001                	nop
 588:	ec5e                	fsw	fs7,24(sp)
 58a:	0000                	unimp
 58c:	f000                	fsw	fs0,32(s0)
 58e:	0000                	unimp
 590:	0100                	addi	s0,sp,128
 592:	5e00                	lw	s0,56(a2)
	...
 59c:	0094                	addi	a3,sp,64
 59e:	0000                	unimp
 5a0:	0096                	slli	ra,ra,0x5
 5a2:	0000                	unimp
 5a4:	0001                	nop
 5a6:	9e5f 0000 aa00      	0xaa0000009e5f
 5ac:	0000                	unimp
 5ae:	0100                	addi	s0,sp,128
 5b0:	5f00                	lw	s0,56(a4)
 5b2:	00ec                	addi	a1,sp,76
 5b4:	0000                	unimp
 5b6:	00f0                	addi	a2,sp,76
 5b8:	0000                	unimp
 5ba:	0001                	nop
 5bc:	005f 0000 0000      	0x5f
 5c2:	0000                	unimp
 5c4:	1400                	addi	s0,sp,544
 5c6:	0001                	nop
 5c8:	1800                	addi	s0,sp,48
 5ca:	0001                	nop
 5cc:	0200                	addi	s0,sp,256
 5ce:	3000                	fld	fs0,32(s0)
 5d0:	009f 0000 0000      	0x9f
 5d6:	0000                	unimp
 5d8:	f000                	fsw	fs0,32(s0)
 5da:	0000                	unimp
 5dc:	f400                	fsw	fs0,40(s0)
 5de:	0000                	unimp
 5e0:	0200                	addi	s0,sp,256
 5e2:	3000                	fld	fs0,32(s0)
 5e4:	009f 0000 0000      	0x9f
 5ea:	0000                	unimp
 5ec:	0e00                	addi	s0,sp,784
 5ee:	0001                	nop
 5f0:	1000                	addi	s0,sp,32
 5f2:	0001                	nop
 5f4:	0200                	addi	s0,sp,256
 5f6:	3000                	fld	fs0,32(s0)
 5f8:	009f 0000 0000      	0x9f
 5fe:	0000                	unimp
 600:	0e00                	addi	s0,sp,784
 602:	0001                	nop
 604:	0f00                	addi	s0,sp,912
 606:	0001                	nop
 608:	0600                	addi	s0,sp,768
 60a:	7a00                	flw	fs0,48(a2)
 60c:	0800                	addi	s0,sp,16
 60e:	1aff                	0x1aff
 610:	009f 0000 0000      	0x9f
 616:	0000                	unimp
 618:	1c00                	addi	s0,sp,560
 61a:	0001                	nop
 61c:	3200                	fld	fs0,32(a2)
 61e:	0001                	nop
 620:	0100                	addi	s0,sp,128
 622:	5a00                	lw	s0,48(a2)
 624:	0132                	slli	sp,sp,0xc
 626:	0000                	unimp
 628:	0142                	slli	sp,sp,0x10
 62a:	0000                	unimp
 62c:	0004                	addi	s1,sp,0
 62e:	9f5a01f3          	0x9f5a01f3
 632:	0142                	slli	sp,sp,0x10
 634:	0000                	unimp
 636:	0152                	slli	sp,sp,0x14
 638:	0000                	unimp
 63a:	0001                	nop
 63c:	525a                	lw	tp,180(sp)
 63e:	0001                	nop
 640:	c000                	sw	s0,0(s0)
 642:	0001                	nop
 644:	0400                	addi	s0,sp,512
 646:	f300                	fsw	fs0,32(a4)
 648:	5a01                	li	s4,-32
 64a:	c09f 0001 c400      	0xc4000001c09f
 650:	0001                	nop
 652:	0100                	addi	s0,sp,128
 654:	5a00                	lw	s0,48(a2)
 656:	01c4                	addi	s1,sp,196
 658:	0000                	unimp
 65a:	0216                	slli	tp,tp,0x5
 65c:	0000                	unimp
 65e:	0004                	addi	s1,sp,0
 660:	9f5a01f3          	0x9f5a01f3
	...
 66c:	011c                	addi	a5,sp,128
 66e:	0000                	unimp
 670:	0130                	addi	a2,sp,136
 672:	0000                	unimp
 674:	0001                	nop
 676:	0001305b          	p.subn	zero,sp,zero,0
 67a:	4200                	lw	s0,0(a2)
 67c:	0001                	nop
 67e:	0400                	addi	s0,sp,512
 680:	f300                	fsw	fs0,32(a4)
 682:	5b01                	li	s6,-32
 684:	429f 0001 7200      	0x72000001429f
 68a:	0001                	nop
 68c:	0100                	addi	s0,sp,128
 68e:	5b00                	lw	s0,48(a4)
 690:	0172                	slli	sp,sp,0x1c
 692:	0000                	unimp
 694:	01c0                	addi	s0,sp,196
 696:	0000                	unimp
 698:	0004                	addi	s1,sp,0
 69a:	9f5b01f3          	0x9f5b01f3
 69e:	01c0                	addi	s0,sp,196
 6a0:	0000                	unimp
 6a2:	01dc                	addi	a5,sp,196
 6a4:	0000                	unimp
 6a6:	0001                	nop
 6a8:	0001dc5b          	p.mac.zl.zh	s8,gp,zero,zero
 6ac:	0000                	unimp
 6ae:	0002                	0x2
 6b0:	0400                	addi	s0,sp,512
 6b2:	f300                	fsw	fs0,32(a4)
 6b4:	5b01                	li	s6,-32
 6b6:	009f 0002 0800      	0x8000002009f
 6bc:	0002                	0x2
 6be:	0100                	addi	s0,sp,128
 6c0:	5b00                	lw	s0,48(a4)
 6c2:	0208                	addi	a0,sp,256
 6c4:	0000                	unimp
 6c6:	0216                	slli	tp,tp,0x5
 6c8:	0000                	unimp
 6ca:	0004                	addi	s1,sp,0
 6cc:	9f5b01f3          	0x9f5b01f3
	...
 6d8:	011c                	addi	a5,sp,128
 6da:	0000                	unimp
 6dc:	0128                	addi	a0,sp,136
 6de:	0000                	unimp
 6e0:	0001                	nop
 6e2:	285c                	fld	fa5,144(s0)
 6e4:	0001                	nop
 6e6:	3800                	fld	fs0,48(s0)
 6e8:	0001                	nop
 6ea:	0100                	addi	s0,sp,128
 6ec:	5900                	lw	s0,48(a0)
 6ee:	0138                	addi	a4,sp,136
 6f0:	0000                	unimp
 6f2:	0142                	slli	sp,sp,0x10
 6f4:	0000                	unimp
 6f6:	0004                	addi	s1,sp,0
 6f8:	9f5c01f3          	0x9f5c01f3
 6fc:	0142                	slli	sp,sp,0x10
 6fe:	0000                	unimp
 700:	0152                	slli	sp,sp,0x14
 702:	0000                	unimp
 704:	0001                	nop
 706:	5259                	li	tp,-10
 708:	0001                	nop
 70a:	c000                	sw	s0,0(s0)
 70c:	0001                	nop
 70e:	0400                	addi	s0,sp,512
 710:	f300                	fsw	fs0,32(a4)
 712:	5c01                	li	s8,-32
 714:	c09f 0001 c200      	0xc2000001c09f
 71a:	0001                	nop
 71c:	0100                	addi	s0,sp,128
 71e:	5900                	lw	s0,48(a0)
 720:	01c2                	slli	gp,gp,0x10
 722:	0000                	unimp
 724:	0216                	slli	tp,tp,0x5
 726:	0000                	unimp
 728:	0004                	addi	s1,sp,0
 72a:	9f5c01f3          	0x9f5c01f3
	...
 736:	011c                	addi	a5,sp,128
 738:	0000                	unimp
 73a:	00000137          	lui	sp,0x0
 73e:	0001                	nop
 740:	375d                	jal	6e6 <_min_stack-0x191a>
 742:	0001                	nop
 744:	3800                	fld	fs0,48(s0)
 746:	0001                	nop
 748:	0400                	addi	s0,sp,512
 74a:	f300                	fsw	fs0,32(a4)
 74c:	5d01                	li	s10,-32
 74e:	429f 0001 ef00      	0xef000001429f
 754:	0001                	nop
 756:	0100                	addi	s0,sp,128
 758:	5d00                	lw	s0,56(a0)
 75a:	000001ef          	jal	gp,75a <_min_stack-0x18a6>
 75e:	01f6                	slli	gp,gp,0x1d
 760:	0000                	unimp
 762:	0004                	addi	s1,sp,0
 764:	9f5d01f3          	0x9f5d01f3
 768:	01f6                	slli	gp,gp,0x1d
 76a:	0000                	unimp
 76c:	000001fb          	lp.starti	x3,76c <_min_stack-0x1894>
 770:	0001                	nop
 772:	005d                	c.addi	zero,23
 774:	0002                	0x2
 776:	1600                	addi	s0,sp,800
 778:	0002                	0x2
 77a:	0100                	addi	s0,sp,128
 77c:	5d00                	lw	s0,56(a0)
	...
 786:	011c                	addi	a5,sp,128
 788:	0000                	unimp
 78a:	00000137          	lui	sp,0x0
 78e:	0001                	nop
 790:	375e                	fld	fa4,496(sp)
 792:	0001                	nop
 794:	4200                	lw	s0,0(a2)
 796:	0001                	nop
 798:	0400                	addi	s0,sp,512
 79a:	f300                	fsw	fs0,32(a4)
 79c:	5e01                	li	t3,-32
 79e:	429f 0001 ef00      	0xef000001429f
 7a4:	0001                	nop
 7a6:	0100                	addi	s0,sp,128
 7a8:	5c00                	lw	s0,56(s0)
 7aa:	000001ef          	jal	gp,7aa <_min_stack-0x1856>
 7ae:	0200                	addi	s0,sp,256
 7b0:	0000                	unimp
 7b2:	0004                	addi	s1,sp,0
 7b4:	9f5e01f3          	0x9f5e01f3
 7b8:	0200                	addi	s0,sp,256
 7ba:	0000                	unimp
 7bc:	0216                	slli	tp,tp,0x5
 7be:	0000                	unimp
 7c0:	0001                	nop
 7c2:	005c                	addi	a5,sp,4
 7c4:	0000                	unimp
 7c6:	0000                	unimp
 7c8:	0000                	unimp
 7ca:	1c00                	addi	s0,sp,560
 7cc:	0001                	nop
 7ce:	2e00                	fld	fs0,24(a2)
 7d0:	0001                	nop
 7d2:	0100                	addi	s0,sp,128
 7d4:	5f00                	lw	s0,56(a4)
 7d6:	012e                	slli	sp,sp,0xb
 7d8:	0000                	unimp
 7da:	0142                	slli	sp,sp,0x10
 7dc:	0000                	unimp
 7de:	0004                	addi	s1,sp,0
 7e0:	9f5f01f3          	0x9f5f01f3
 7e4:	0142                	slli	sp,sp,0x10
 7e6:	0000                	unimp
 7e8:	0172                	slli	sp,sp,0x1c
 7ea:	0000                	unimp
 7ec:	0001                	nop
 7ee:	725f 0001 c000      	0xc0000001725f
 7f4:	0001                	nop
 7f6:	0400                	addi	s0,sp,512
 7f8:	f300                	fsw	fs0,32(a4)
 7fa:	5f01                	li	t5,-32
 7fc:	c09f 0001 c400      	0xc4000001c09f
 802:	0001                	nop
 804:	0100                	addi	s0,sp,128
 806:	5f00                	lw	s0,56(a4)
 808:	01c4                	addi	s1,sp,196
 80a:	0000                	unimp
 80c:	0200                	addi	s0,sp,256
 80e:	0000                	unimp
 810:	0004                	addi	s1,sp,0
 812:	9f5f01f3          	0x9f5f01f3
 816:	0200                	addi	s0,sp,256
 818:	0000                	unimp
 81a:	0206                	slli	tp,tp,0x1
 81c:	0000                	unimp
 81e:	0001                	nop
 820:	065f 0002 1600      	0x16000002065f
 826:	0002                	0x2
 828:	0400                	addi	s0,sp,512
 82a:	f300                	fsw	fs0,32(a4)
 82c:	5f01                	li	t5,-32
 82e:	009f 0000 0000      	0x9f
 834:	0000                	unimp
 836:	5200                	lw	s0,32(a2)
 838:	0001                	nop
 83a:	5c00                	lw	s0,56(s0)
 83c:	0001                	nop
 83e:	0300                	addi	s0,sp,384
 840:	9100                	0x9100
 842:	015c9f6f          	jal	t5,ca056 <tohost+0xaa04e>
 846:	0000                	unimp
 848:	01c0                	addi	s0,sp,196
 84a:	0000                	unimp
 84c:	0001                	nop
 84e:	c458                	sw	a4,12(s0)
 850:	0001                	nop
 852:	0800                	addi	s0,sp,16
 854:	0002                	0x2
 856:	0100                	addi	s0,sp,128
 858:	5800                	lw	s0,48(s0)
 85a:	0208                	addi	a0,sp,256
 85c:	0000                	unimp
 85e:	0214                	addi	a3,sp,256
 860:	0000                	unimp
 862:	7f780003          	lb	zero,2039(a6)
 866:	149f 0002 1600      	0x16000002149f
 86c:	0002                	0x2
 86e:	0100                	addi	s0,sp,128
 870:	5800                	lw	s0,48(s0)
	...
 87a:	011c                	addi	a5,sp,128
 87c:	0000                	unimp
 87e:	0138                	addi	a4,sp,136
 880:	0000                	unimp
 882:	0002                	0x2
 884:	9f30                	0x9f30
 886:	0142                	slli	sp,sp,0x10
 888:	0000                	unimp
 88a:	014e                	slli	sp,sp,0x13
 88c:	0000                	unimp
 88e:	0002                	0x2
 890:	9f30                	0x9f30
 892:	014e                	slli	sp,sp,0x13
 894:	0000                	unimp
 896:	0152                	slli	sp,sp,0x14
 898:	0000                	unimp
 89a:	0002                	0x2
 89c:	9f31                	0x9f31
 89e:	0152                	slli	sp,sp,0x14
 8a0:	0000                	unimp
 8a2:	01c0                	addi	s0,sp,196
 8a4:	0000                	unimp
 8a6:	0001                	nop
 8a8:	c059                	beqz	s0,92e <_min_stack-0x16d2>
 8aa:	0001                	nop
 8ac:	c400                	sw	s0,8(s0)
 8ae:	0001                	nop
 8b0:	0200                	addi	s0,sp,256
 8b2:	3000                	fld	fs0,32(s0)
 8b4:	c49f 0001 f600      	0xf6000001c49f
 8ba:	0001                	nop
 8bc:	0100                	addi	s0,sp,128
 8be:	5900                	lw	s0,48(a0)
 8c0:	0200                	addi	s0,sp,256
 8c2:	0000                	unimp
 8c4:	0212                	slli	tp,tp,0x4
 8c6:	0000                	unimp
 8c8:	0001                	nop
 8ca:	0059                	c.addi	zero,22
 8cc:	0000                	unimp
 8ce:	0000                	unimp
 8d0:	0000                	unimp
 8d2:	1c00                	addi	s0,sp,560
 8d4:	0001                	nop
 8d6:	3800                	fld	fs0,48(s0)
 8d8:	0001                	nop
 8da:	0200                	addi	s0,sp,256
 8dc:	3000                	fld	fs0,32(s0)
 8de:	429f 0001 f000      	0xf0000001429f
 8e4:	0001                	nop
 8e6:	0200                	addi	s0,sp,256
 8e8:	3000                	fld	fs0,32(s0)
 8ea:	f09f 0001 f600      	0xf6000001f09f
 8f0:	0001                	nop
 8f2:	0200                	addi	s0,sp,256
 8f4:	3100                	fld	fs0,32(a0)
 8f6:	f69f 0001 0000      	0x1f69f
 8fc:	0002                	0x2
 8fe:	0100                	addi	s0,sp,128
 900:	5900                	lw	s0,48(a0)
 902:	0200                	addi	s0,sp,256
 904:	0000                	unimp
 906:	0216                	slli	tp,tp,0x5
 908:	0000                	unimp
 90a:	0002                	0x2
 90c:	9f30                	0x9f30
	...
 916:	011c                	addi	a5,sp,128
 918:	0000                	unimp
 91a:	0132                	slli	sp,sp,0xc
 91c:	0000                	unimp
 91e:	0001                	nop
 920:	325a                	fld	ft4,432(sp)
 922:	0001                	nop
 924:	3800                	fld	fs0,48(s0)
 926:	0001                	nop
 928:	0400                	addi	s0,sp,512
 92a:	f300                	fsw	fs0,32(a4)
 92c:	5a01                	li	s4,-32
 92e:	429f 0001 b800      	0xb8000001429f
 934:	0001                	nop
 936:	0100                	addi	s0,sp,128
 938:	5a00                	lw	s0,48(a2)
 93a:	01b8                	addi	a4,sp,200
 93c:	0000                	unimp
 93e:	01ba                	slli	gp,gp,0xe
 940:	0000                	unimp
 942:	7a7a0003          	lb	zero,1959(s4)
 946:	c09f 0001 ea00      	0xea000001c09f
 94c:	0001                	nop
 94e:	0100                	addi	s0,sp,128
 950:	5a00                	lw	s0,48(a2)
 952:	0200                	addi	s0,sp,256
 954:	0000                	unimp
 956:	0216                	slli	tp,tp,0x5
 958:	0000                	unimp
 95a:	0001                	nop
 95c:	005a                	0x5a
 95e:	0000                	unimp
 960:	0000                	unimp
 962:	0000                	unimp
 964:	7400                	flw	fs0,40(s0)
 966:	0001                	nop
 968:	7c00                	flw	fs0,56(s0)
 96a:	0001                	nop
 96c:	0100                	addi	s0,sp,128
 96e:	5a00                	lw	s0,48(a2)
	...
 978:	019e                	slli	gp,gp,0x7
 97a:	0000                	unimp
 97c:	01b8                	addi	a4,sp,200
 97e:	0000                	unimp
 980:	0001                	nop
 982:	b85a                	fsd	fs6,48(sp)
 984:	0001                	nop
 986:	ba00                	fsd	fs0,48(a2)
 988:	0001                	nop
 98a:	0300                	addi	s0,sp,384
 98c:	7a00                	flw	fs0,48(a2)
 98e:	9f7a                	add	t5,t5,t5
	...
 998:	019e                	slli	gp,gp,0x7
 99a:	0000                	unimp
 99c:	01be                	slli	gp,gp,0xf
 99e:	0000                	unimp
 9a0:	0001                	nop
 9a2:	005f 0000 0000      	0x5f
 9a8:	0000                	unimp
 9aa:	b200                	fsd	fs0,32(a2)
 9ac:	0001                	nop
 9ae:	b800                	fsd	fs0,48(s0)
 9b0:	0001                	nop
 9b2:	0900                	addi	s0,sp,144
 9b4:	7f00                	flw	fs0,56(a4)
 9b6:	0900                	addi	s0,sp,144
 9b8:	1ef6                	slli	t4,t4,0x3d
 9ba:	007a                	0x7a
 9bc:	9f22                	add	t5,t5,s0
 9be:	01b8                	addi	a4,sp,200
 9c0:	0000                	unimp
 9c2:	01ba                	slli	gp,gp,0xe
 9c4:	0000                	unimp
 9c6:	007f000b          	p.lb	zero,7(t5!) # 1b007 <_stack_len+0x13007>
 9ca:	f609                	bnez	a2,8d4 <_min_stack-0x172c>
 9cc:	7a1e                	flw	fs4,228(sp)
 9ce:	2200                	fld	fs0,0(a2)
 9d0:	1c36                	slli	s8,s8,0x2d
 9d2:	009f 0000 0000      	0x9f
 9d8:	0000                	unimp
 9da:	c800                	sw	s0,16(s0)
 9dc:	0001                	nop
 9de:	d400                	sw	s0,40(s0)
 9e0:	0001                	nop
 9e2:	0100                	addi	s0,sp,128
 9e4:	6000                	flw	fs0,0(s0)
 9e6:	01d4                	addi	a3,sp,196
 9e8:	0000                	unimp
 9ea:	01da                	slli	gp,gp,0x16
 9ec:	0000                	unimp
 9ee:	50800003          	lb	zero,1288(zero) # 508 <_min_stack-0x1af8>
 9f2:	009f 0000 0000      	0x9f
 9f8:	0000                	unimp
 9fa:	e600                	fsw	fs0,8(a2)
 9fc:	0001                	nop
 9fe:	f000                	fsw	fs0,32(s0)
 a00:	0001                	nop
 a02:	0200                	addi	s0,sp,256
 a04:	3000                	fld	fs0,32(s0)
 a06:	009f 0000 0000      	0x9f
 a0c:	0000                	unimp
 a0e:	e600                	fsw	fs0,8(a2)
 a10:	0001                	nop
 a12:	f000                	fsw	fs0,32(s0)
 a14:	0001                	nop
 a16:	0300                	addi	s0,sp,384
 a18:	0800                	addi	s0,sp,16
 a1a:	9f2d                	0x9f2d
	...
 a24:	01e6                	slli	gp,gp,0x19
 a26:	0000                	unimp
 a28:	01f6                	slli	gp,gp,0x1d
 a2a:	0000                	unimp
 a2c:	2d080003          	lb	zero,720(a6)
 a30:	009f 0000 0000      	0x9f
 a36:	0000                	unimp
 a38:	2400                	fld	fs0,8(s0)
 a3a:	0002                	0x2
 a3c:	2e00                	fld	fs0,24(a2)
 a3e:	0002                	0x2
 a40:	0100                	addi	s0,sp,128
 a42:	5a00                	lw	s0,48(a2)
 a44:	022e                	slli	tp,tp,0xb
 a46:	0000                	unimp
 a48:	0238                	addi	a4,sp,264
 a4a:	0000                	unimp
 a4c:	0001                	nop
 a4e:	3858                	fld	fa4,176(s0)
 a50:	0002                	0x2
 a52:	3c00                	fld	fs0,56(s0)
 a54:	0002                	0x2
 a56:	0100                	addi	s0,sp,128
 a58:	5a00                	lw	s0,48(a2)
	...
 a62:	053a                	slli	a0,a0,0xe
 a64:	e000                	fsw	fs0,0(s0)
 a66:	0556                	slli	a0,a0,0x15
 a68:	e000                	fsw	fs0,0(s0)
 a6a:	0001                	nop
 a6c:	565a                	lw	a2,180(sp)
 a6e:	0005                	c.addi	zero,1
 a70:	90e0                	0x90e0
 a72:	0005                	c.addi	zero,1
 a74:	04e0                	addi	s0,sp,588
 a76:	f300                	fsw	fs0,32(a4)
 a78:	5a01                	li	s4,-32
 a7a:	009f 0000 0000      	0x9f
 a80:	0000                	unimp
 a82:	3a00                	fld	fs0,48(a2)
 a84:	0005                	c.addi	zero,1
 a86:	54e0                	lw	s0,108(s1)
 a88:	0005                	c.addi	zero,1
 a8a:	01e0                	addi	s0,sp,204
 a8c:	5b00                	lw	s0,48(a4)
 a8e:	0554                	addi	a3,sp,644
 a90:	e000                	fsw	fs0,0(s0)
 a92:	0590                	addi	a2,sp,704
 a94:	e000                	fsw	fs0,0(s0)
 a96:	0004                	addi	s1,sp,0
 a98:	9f5b01f3          	0x9f5b01f3
	...
 aa4:	0544                	addi	s1,sp,644
 aa6:	e000                	fsw	fs0,0(s0)
 aa8:	055a                	slli	a0,a0,0x16
 aaa:	e000                	fsw	fs0,0(s0)
 aac:	0002                	0x2
 aae:	9f30                	0x9f30
 ab0:	055a                	slli	a0,a0,0x16
 ab2:	e000                	fsw	fs0,0(s0)
 ab4:	0590                	addi	a2,sp,704
 ab6:	e000                	fsw	fs0,0(s0)
 ab8:	0001                	nop
 aba:	005d                	c.addi	zero,23
 abc:	0000                	unimp
 abe:	0000                	unimp
 ac0:	0000                	unimp
	...

Disassembly of section .debug_aranges:

00000000 <.debug_aranges>:
   0:	001c                	addi	a5,sp,0
   2:	0000                	unimp
   4:	0002                	0x2
   6:	0000                	unimp
   8:	0000                	unimp
   a:	0004                	addi	s1,sp,0
   c:	0000                	unimp
   e:	0000                	unimp
  10:	0084                	addi	s1,sp,64
  12:	e000                	fsw	fs0,0(s0)
  14:	043a                	slli	s0,s0,0xe
	...
  1e:	0000                	unimp
  20:	001c                	addi	a5,sp,0
  22:	0000                	unimp
  24:	0002                	0x2
  26:	0928                	addi	a0,sp,152
  28:	0000                	unimp
  2a:	0004                	addi	s1,sp,0
  2c:	0000                	unimp
  2e:	0000                	unimp
  30:	053a                	slli	a0,a0,0xe
  32:	e000                	fsw	fs0,0(s0)
  34:	0056                	0x56
	...
  3e:	0000                	unimp
  40:	0024                	addi	s1,sp,8
  42:	0000                	unimp
  44:	0002                	0x2
  46:	00000ac7          	fmsub.s	fs5,ft0,ft0,ft0,rne
  4a:	0004                	addi	s1,sp,0
  4c:	0000                	unimp
  4e:	0000                	unimp
  50:	04be                	slli	s1,s1,0xf
  52:	e000                	fsw	fs0,0(s0)
  54:	007c                	addi	a5,sp,12
  56:	0000                	unimp
  58:	0000                	unimp
  5a:	e000                	fsw	fs0,0(s0)
  5c:	0084                	addi	s1,sp,64
	...

Disassembly of section .debug_ranges:

00000000 <.debug_ranges>:
   0:	0094                	addi	a3,sp,64
   2:	0000                	unimp
   4:	00aa                	slli	ra,ra,0xa
   6:	0000                	unimp
   8:	00ae                	slli	ra,ra,0xb
   a:	0000                	unimp
   c:	00b4                	addi	a3,sp,72
   e:	0000                	unimp
  10:	00ec                	addi	a1,sp,76
  12:	0000                	unimp
  14:	00f0                	addi	a2,sp,76
	...
  1e:	0000                	unimp
  20:	00ca                	slli	ra,ra,0x12
  22:	0000                	unimp
  24:	00ce                	slli	ra,ra,0x13
  26:	0000                	unimp
  28:	0114                	addi	a3,sp,128
  2a:	0000                	unimp
  2c:	0118                	addi	a4,sp,128
	...
  36:	0000                	unimp
  38:	00ca                	slli	ra,ra,0x12
  3a:	0000                	unimp
  3c:	00ce                	slli	ra,ra,0x13
  3e:	0000                	unimp
  40:	0114                	addi	a3,sp,128
  42:	0000                	unimp
  44:	0118                	addi	a4,sp,128
	...
  4e:	0000                	unimp
  50:	00f0                	addi	a2,sp,76
  52:	0000                	unimp
  54:	00f4                	addi	a3,sp,76
  56:	0000                	unimp
  58:	0108                	addi	a0,sp,128
  5a:	0000                	unimp
  5c:	010e                	slli	sp,sp,0x3
	...
  66:	0000                	unimp
  68:	00f0                	addi	a2,sp,76
  6a:	0000                	unimp
  6c:	00f4                	addi	a3,sp,76
  6e:	0000                	unimp
  70:	0108                	addi	a0,sp,128
  72:	0000                	unimp
  74:	010e                	slli	sp,sp,0x3
	...
  7e:	0000                	unimp
  80:	0160                	addi	s0,sp,140
  82:	0000                	unimp
  84:	0170                	addi	a2,sp,140
  86:	0000                	unimp
  88:	0174                	addi	a3,sp,140
  8a:	0000                	unimp
  8c:	0180                	addi	s0,sp,192
  8e:	0000                	unimp
  90:	0182                	slli	gp,gp,0x0
  92:	0000                	unimp
  94:	018c                	addi	a1,sp,192
	...
  9e:	0000                	unimp
  a0:	0170                	addi	a2,sp,140
  a2:	0000                	unimp
  a4:	0172                	slli	sp,sp,0x1c
  a6:	0000                	unimp
  a8:	0190                	addi	a2,sp,192
  aa:	0000                	unimp
  ac:	0196                	slli	gp,gp,0x5
  ae:	0000                	unimp
  b0:	019e                	slli	gp,gp,0x7
  b2:	0000                	unimp
  b4:	01c0                	addi	s0,sp,196
	...
  be:	0000                	unimp
  c0:	01c4                	addi	s1,sp,196
  c2:	0000                	unimp
  c4:	01da                	slli	gp,gp,0x16
  c6:	0000                	unimp
  c8:	0200                	addi	s0,sp,256
  ca:	0000                	unimp
  cc:	0208                	addi	a0,sp,256
	...
  d6:	0000                	unimp
  d8:	0266                	slli	tp,tp,0x19
  da:	0000                	unimp
  dc:	0284                	addi	s1,sp,320
  de:	0000                	unimp
  e0:	029e                	slli	t0,t0,0x7
  e2:	0000                	unimp
  e4:	0394                	addi	a3,sp,448
	...
  ee:	0000                	unimp
  f0:	0276                	slli	tp,tp,0x1d
  f2:	0000                	unimp
  f4:	027e                	slli	tp,tp,0x1f
  f6:	0000                	unimp
  f8:	02ea                	slli	t0,t0,0x1a
  fa:	0000                	unimp
  fc:	02f8                	addi	a4,sp,332
	...
 106:	0000                	unimp
 108:	038a                	slli	t2,t2,0x2
 10a:	0000                	unimp
 10c:	038e                	slli	t2,t2,0x3
 10e:	0000                	unimp
 110:	0390                	addi	a2,sp,448
 112:	0000                	unimp
 114:	0394                	addi	a3,sp,448
	...
 11e:	0000                	unimp
 120:	0540                	addi	s0,sp,644
 122:	e000                	fsw	fs0,0(s0)
 124:	0542                	slli	a0,a0,0x10
 126:	e000                	fsw	fs0,0(s0)
 128:	0544                	addi	s1,sp,644
 12a:	e000                	fsw	fs0,0(s0)
 12c:	0584                	addi	s1,sp,704
 12e:	e000                	fsw	fs0,0(s0)
	...
 138:	053a                	slli	a0,a0,0xe
 13a:	e000                	fsw	fs0,0(s0)
 13c:	0590                	addi	a2,sp,704
 13e:	e000                	fsw	fs0,0(s0)
	...
 148:	ffff                	0xffff
 14a:	ffff                	0xffff
 14c:	0000                	unimp
 14e:	0000                	unimp
 150:	04be                	slli	s1,s1,0xf
 152:	e000                	fsw	fs0,0(s0)
 154:	053a                	slli	a0,a0,0xe
 156:	e000                	fsw	fs0,0(s0)
 158:	0000                	unimp
 15a:	e000                	fsw	fs0,0(s0)
 15c:	0084                	addi	s1,sp,64
 15e:	e000                	fsw	fs0,0(s0)
	...

Disassembly of section .debug_line:

00000000 <.debug_line>:
   0:	05c0                	addi	s0,sp,708
   2:	0000                	unimp
   4:	0002                	0x2
   6:	00e9                	addi	ra,ra,26
   8:	0000                	unimp
   a:	0101                	addi	sp,sp,0
   c:	000d0efb          	0xd0efb
  10:	0101                	addi	sp,sp,0
  12:	0101                	addi	sp,sp,0
  14:	0000                	unimp
  16:	0100                	addi	s0,sp,128
  18:	0000                	unimp
  1a:	2f01                	jal	72a <_min_stack-0x18d6>
  1c:	61726373          	csrrsi	t1,0x617,4
  20:	6374                	flw	fa3,68(a4)
  22:	2f68                	fld	fa0,216(a4)
  24:	636d                	lui	t1,0x1b
  26:	6169                	addi	sp,sp,208
  28:	696e                	flw	fs2,216(sp)
  2a:	65706f2f          	0x65706f2f
  2e:	746e                	flw	fs0,248(sp)
  30:	7469                	lui	s0,0xffffa
  32:	6e61                	lui	t3,0x18
  34:	2f77732f          	0x2f77732f
  38:	6574                	flw	fa3,76(a0)
  3a:	2f737473          	csrrci	s0,0x2f7,6
  3e:	6e65706f          	j	57724 <tohost+0x3771c>
  42:	6974                	flw	fa3,84(a0)
  44:	6174                	flw	fa3,68(a0)
  46:	2f6e                	fld	ft10,216(sp)
  48:	6d6d6f63          	bltu	s10,s6,726 <_min_stack-0x18da>
  4c:	2f006e6f          	jal	t3,633c <_min_stack+0x433c>
  50:	7375                	lui	t1,0xffffd
  52:	2f72                	fld	ft10,280(sp)
  54:	6170                	flw	fa2,68(a0)
  56:	702f6b63          	bltu	t5,sp,76c <_min_stack-0x1894>
  5a:	6c75                	lui	s8,0x1d
  5c:	7370                	flw	fa2,100(a4)
  5e:	6b64                	flw	fs1,84(a4)
  60:	312d                	jal	fffffc8a <pulp__FC+0xfffffc8b>
  62:	302e                	fld	ft0,232(sp)
  64:	6b2d                	lui	s6,0xb
  66:	612f6667          	0x612f6667
  6a:	7472                	flw	fs0,60(sp)
  6c:	6669                	lui	a2,0x1a
  6e:	6361                	lui	t1,0x18
  70:	6f74                	flw	fa3,92(a4)
  72:	7972                	flw	fs2,60(sp)
  74:	6c75702f          	0x6c75702f
  78:	2d70                	fld	fa2,216(a0)
  7a:	2d6b6473          	csrrsi	s0,0x2d6,22
  7e:	6572                	flw	fa0,28(sp)
  80:	656c                	flw	fa1,76(a0)
  82:	7361                	lui	t1,0xffff8
  84:	2f65                	jal	83c <_min_stack-0x17c4>
  86:	6b70                	flw	fa2,84(a4)
  88:	75702f67          	0x75702f67
  8c:	706c                	flw	fa1,100(s0)
  8e:	725f 7369 7663      	0x76637369725f
  94:	675f 6363 312f      	0x312f6363675f
  9a:	302e                	fld	ft0,232(sp)
  9c:	312e                	fld	ft2,232(sp)
  9e:	2f36                	fld	ft10,328(sp)
  a0:	696c                	flw	fa1,84(a0)
  a2:	2f62                	fld	ft10,24(sp)
  a4:	2f636367          	0x2f636367
  a8:	6972                	flw	fs2,28(sp)
  aa:	33766373          	csrrsi	t1,0x337,12
  ae:	2d32                	fld	fs10,264(sp)
  b0:	6e75                	lui	t3,0x1d
  b2:	776f6e6b          	0x776f6e6b
  b6:	2d6e                	fld	fs10,216(sp)
  b8:	6c65                	lui	s8,0x19
  ba:	2f66                	fld	ft10,88(sp)
  bc:	2e312e37          	lui	t3,0x2e312
  c0:	2f31                	jal	7dc <_min_stack-0x1824>
  c2:	6e69                	lui	t3,0x1a
  c4:	64756c63          	bltu	a0,t2,71c <_min_stack-0x18e4>
  c8:	0065                	c.addi	zero,25
  ca:	7500                	flw	fs0,40(a0)
  cc:	6974                	flw	fa3,84(a0)
  ce:	736c                	flw	fa1,100(a4)
  d0:	632e                	flw	ft6,200(sp)
  d2:	0100                	addi	s0,sp,128
  d4:	0000                	unimp
  d6:	61647473          	csrrci	s0,0x616,8
  da:	6772                	flw	fa4,28(sp)
  dc:	682e                	flw	fa6,200(sp)
  de:	0200                	addi	s0,sp,256
  e0:	0000                	unimp
  e2:	69647473          	csrrci	s0,0x696,8
  e6:	746e                	flw	fs0,248(sp)
  e8:	672d                	lui	a4,0xb
  ea:	682e6363          	bltu	t3,sp,770 <_min_stack-0x1890>
  ee:	0200                	addi	s0,sp,256
  f0:	0000                	unimp
  f2:	0000                	unimp
  f4:	0205                	addi	tp,tp,1
  f6:	0084                	addi	s1,sp,64
  f8:	e000                	fsw	fs0,0(s0)
  fa:	03012903          	lw	s2,48(sp) # 30 <_min_stack-0x1fd0>
  fe:	0902                	slli	s2,s2,0x0
 100:	0000                	unimp
 102:	0301                	addi	t1,t1,0
 104:	0901                	addi	s2,s2,0
 106:	000a                	0xa
 108:	0301                	addi	t1,t1,0
 10a:	0901                	addi	s2,s2,0
 10c:	0006                	0x6
 10e:	0301                	addi	t1,t1,0
 110:	0901                	addi	s2,s2,0
 112:	0006                	0x6
 114:	0301                	addi	t1,t1,0
 116:	0901                	addi	s2,s2,0
 118:	0006                	0x6
 11a:	0301                	addi	t1,t1,0
 11c:	0902                	slli	s2,s2,0x0
 11e:	0004                	addi	s1,sp,0
 120:	0301                	addi	t1,t1,0
 122:	0901                	addi	s2,s2,0
 124:	000c                	addi	a1,sp,0
 126:	0301                	addi	t1,t1,0
 128:	0902                	slli	s2,s2,0x0
 12a:	0002                	0x2
 12c:	0301                	addi	t1,t1,0
 12e:	00000907          	0x907
 132:	0301                	addi	t1,t1,0
 134:	097c                	addi	a5,sp,156
 136:	0004                	addi	s1,sp,0
 138:	0301                	addi	t1,t1,0
 13a:	090d                	addi	s2,s2,3
 13c:	0002                	0x2
 13e:	0001                	nop
 140:	0402                	slli	s0,s0,0x0
 142:	0301                	addi	t1,t1,0
 144:	00020977          	0x20977
 148:	0001                	nop
 14a:	0402                	slli	s0,s0,0x0
 14c:	0304                	addi	s1,sp,384
 14e:	0904                	addi	s1,sp,144
 150:	000c                	addi	a1,sp,0
 152:	0001                	nop
 154:	0402                	slli	s0,s0,0x0
 156:	0304                	addi	s1,sp,384
 158:	0902                	slli	s2,s2,0x0
 15a:	0006                	0x6
 15c:	0001                	nop
 15e:	0402                	slli	s0,s0,0x0
 160:	0304                	addi	s1,sp,384
 162:	097e                	slli	s2,s2,0x1f
 164:	0002                	0x2
 166:	0001                	nop
 168:	0402                	slli	s0,s0,0x0
 16a:	0304                	addi	s1,sp,384
 16c:	097e                	slli	s2,s2,0x1f
 16e:	0002                	0x2
 170:	0001                	nop
 172:	0402                	slli	s0,s0,0x0
 174:	00030603          	lb	a2,0(t1) # ffff8000 <pulp__FC+0xffff8001>
 178:	0409                	addi	s0,s0,2
 17a:	0100                	addi	s0,sp,128
 17c:	0306                	slli	t1,t1,0x1
 17e:	0909                	addi	s2,s2,2
 180:	0004                	addi	s1,sp,0
 182:	0301                	addi	t1,t1,0
 184:	0901                	addi	s2,s2,0
 186:	0000                	unimp
 188:	0001                	nop
 18a:	0402                	slli	s0,s0,0x0
 18c:	0601                	addi	a2,a2,0
 18e:	04090003          	lb	zero,64(s2) # 4040 <_min_stack+0x2040>
 192:	0100                	addi	s0,sp,128
 194:	0306                	slli	t1,t1,0x1
 196:	0902                	slli	s2,s2,0x0
 198:	0006                	0x6
 19a:	0301                	addi	t1,t1,0
 19c:	0901                	addi	s2,s2,0
 19e:	0002                	0x2
 1a0:	0301                	addi	t1,t1,0
 1a2:	0902                	slli	s2,s2,0x0
 1a4:	0006                	0x6
 1a6:	0301                	addi	t1,t1,0
 1a8:	0902                	slli	s2,s2,0x0
 1aa:	0000                	unimp
 1ac:	0001                	nop
 1ae:	0402                	slli	s0,s0,0x0
 1b0:	0601                	addi	a2,a2,0
 1b2:	04090003          	lb	zero,64(s2)
 1b6:	0100                	addi	s0,sp,128
 1b8:	0306                	slli	t1,t1,0x1
 1ba:	00080903          	lb	s2,0(a6)
 1be:	0301                	addi	t1,t1,0
 1c0:	0901                	addi	s2,s2,0
 1c2:	0002                	0x2
 1c4:	0301                	addi	t1,t1,0
 1c6:	00c8                	addi	a0,sp,68
 1c8:	0209                	addi	tp,tp,2
 1ca:	0100                	addi	s0,sp,128
 1cc:	0e090003          	lb	zero,224(s2)
 1d0:	0100                	addi	s0,sp,128
 1d2:	04090203          	lb	tp,64(s2)
 1d6:	0100                	addi	s0,sp,128
 1d8:	04090203          	lb	tp,64(s2)
 1dc:	0100                	addi	s0,sp,128
 1de:	08090303          	lb	t1,128(s2)
 1e2:	0100                	addi	s0,sp,128
 1e4:	0c090103          	lb	sp,192(s2)
 1e8:	0100                	addi	s0,sp,128
 1ea:	04090103          	lb	sp,64(s2)
 1ee:	0100                	addi	s0,sp,128
 1f0:	02090103          	lb	sp,32(s2)
 1f4:	0100                	addi	s0,sp,128
 1f6:	04097803          	0x4097803
 1fa:	0100                	addi	s0,sp,128
 1fc:	04090803          	lb	a6,64(s2)
 200:	0100                	addi	s0,sp,128
 202:	06090203          	lb	tp,96(s2)
 206:	0100                	addi	s0,sp,128
 208:	04097603          	0x4097603
 20c:	0100                	addi	s0,sp,128
 20e:	06091003          	lh	zero,96(s2)
 212:	0100                	addi	s0,sp,128
 214:	0c095f03          	lhu	t5,192(s2)
 218:	0100                	addi	s0,sp,128
 21a:	04092503          	lw	a0,64(s2)
 21e:	0100                	addi	s0,sp,128
 220:	04090503          	lb	a0,64(s2)
 224:	0100                	addi	s0,sp,128
 226:	06090103          	lb	sp,96(s2)
 22a:	0100                	addi	s0,sp,128
 22c:	14096c03          	p.elw	s8,320(s2)
 230:	0100                	addi	s0,sp,128
 232:	04096903          	p.elw	s2,64(s2)
 236:	0100                	addi	s0,sp,128
 238:	04091c03          	lh	s8,64(s2)
 23c:	0100                	addi	s0,sp,128
 23e:	12097f03          	0x12097f03
 242:	0100                	addi	s0,sp,128
 244:	02096503          	p.elw	a0,32(s2)
 248:	0100                	addi	s0,sp,128
 24a:	08092103          	lw	sp,128(s2)
 24e:	0100                	addi	s0,sp,128
 250:	04095f03          	lhu	t5,64(s2)
 254:	0100                	addi	s0,sp,128
 256:	04092503          	lw	a0,64(s2)
 25a:	0100                	addi	s0,sp,128
 25c:	04090803          	lb	a6,64(s2)
 260:	0100                	addi	s0,sp,128
 262:	08090003          	lb	zero,128(s2)
 266:	0100                	addi	s0,sp,128
 268:	04090703          	lb	a4,64(s2)
 26c:	0100                	addi	s0,sp,128
 26e:	02090203          	lb	tp,32(s2)
 272:	0100                	addi	s0,sp,128
 274:	04090203          	lb	tp,64(s2)
 278:	0100                	addi	s0,sp,128
 27a:	04097e03          	0x4097e03
 27e:	0100                	addi	s0,sp,128
 280:	04090203          	lb	tp,64(s2)
 284:	0100                	addi	s0,sp,128
 286:	02092d03          	lw	s10,32(s2)
 28a:	0100                	addi	s0,sp,128
 28c:	0a095603          	lhu	a2,160(s2)
 290:	0100                	addi	s0,sp,128
 292:	0c090303          	lb	t1,192(s2)
 296:	0100                	addi	s0,sp,128
 298:	04090403          	lb	s0,64(s2)
 29c:	0100                	addi	s0,sp,128
 29e:	04090303          	lb	t1,64(s2)
 2a2:	0100                	addi	s0,sp,128
 2a4:	02097c03          	0x2097c03
 2a8:	0100                	addi	s0,sp,128
 2aa:	04090403          	lb	s0,64(s2)
 2ae:	0100                	addi	s0,sp,128
 2b0:	097fb503          	0x97fb503
 2b4:	0004                	addi	s1,sp,0
 2b6:	0301                	addi	t1,t1,0
 2b8:	0901                	addi	s2,s2,0
 2ba:	0004                	addi	s1,sp,0
 2bc:	0301                	addi	t1,t1,0
 2be:	097f                	0x97f
 2c0:	0008                	addi	a0,sp,0
 2c2:	0301                	addi	t1,t1,0
 2c4:	0975                	addi	s2,s2,29
 2c6:	0004                	addi	s1,sp,0
 2c8:	0301                	addi	t1,t1,0
 2ca:	020900e3          	beqz	s2,aea <_min_stack-0x1516>
 2ce:	0100                	addi	s0,sp,128
 2d0:	097fa803          	lw	a6,151(t6) # ffffc097 <pulp__FC+0xffffc098>
 2d4:	0002                	0x2
 2d6:	0301                	addi	t1,t1,0
 2d8:	00d9                	addi	ra,ra,22
 2da:	0c09                	addi	s8,s8,2
 2dc:	0100                	addi	s0,sp,128
 2de:	097fa703          	lw	a4,151(t6)
 2e2:	0002                	0x2
 2e4:	0301                	addi	t1,t1,0
 2e6:	0901                	addi	s2,s2,0
 2e8:	0008                	addi	a0,sp,0
 2ea:	0301                	addi	t1,t1,0
 2ec:	00d8                	addi	a4,sp,68
 2ee:	0209                	addi	tp,tp,2
 2f0:	0100                	addi	s0,sp,128
 2f2:	097f9703          	lh	a4,151(t6)
 2f6:	0004                	addi	s1,sp,0
 2f8:	0301                	addi	t1,t1,0
 2fa:	00e9                	addi	ra,ra,26
 2fc:	0609                	addi	a2,a2,2
 2fe:	0100                	addi	s0,sp,128
 300:	097f9803          	lh	a6,151(t6)
 304:	0008                	addi	a0,sp,0
 306:	0301                	addi	t1,t1,0
 308:	0901                	addi	s2,s2,0
 30a:	0006                	0x6
 30c:	0301                	addi	t1,t1,0
 30e:	0901                	addi	s2,s2,0
 310:	0006                	0x6
 312:	0301                	addi	t1,t1,0
 314:	0901                	addi	s2,s2,0
 316:	0006                	0x6
 318:	0301                	addi	t1,t1,0
 31a:	0901                	addi	s2,s2,0
 31c:	0002                	0x2
 31e:	0301                	addi	t1,t1,0
 320:	0902                	slli	s2,s2,0x0
 322:	0004                	addi	s1,sp,0
 324:	0301                	addi	t1,t1,0
 326:	00c0                	addi	s0,sp,68
 328:	0a09                	addi	s4,s4,2
 32a:	0100                	addi	s0,sp,128
 32c:	04091703          	lh	a4,64(s2)
 330:	0100                	addi	s0,sp,128
 332:	04090203          	lb	tp,64(s2)
 336:	0100                	addi	s0,sp,128
 338:	04090103          	lb	sp,64(s2)
 33c:	0100                	addi	s0,sp,128
 33e:	02090203          	lb	tp,32(s2)
 342:	0100                	addi	s0,sp,128
 344:	0a090103          	lb	sp,160(s2)
 348:	0100                	addi	s0,sp,128
 34a:	02097903          	0x2097903
 34e:	0100                	addi	s0,sp,128
 350:	02091103          	lh	sp,32(s2)
 354:	0100                	addi	s0,sp,128
 356:	02090103          	lb	sp,32(s2)
 35a:	0100                	addi	s0,sp,128
 35c:	097fa703          	lw	a4,151(t6)
 360:	0008                	addi	a0,sp,0
 362:	0301                	addi	t1,t1,0
 364:	00dd                	addi	ra,ra,23
 366:	0a09                	addi	s4,s4,2
 368:	0100                	addi	s0,sp,128
 36a:	06090703          	lb	a4,96(s2)
 36e:	0100                	addi	s0,sp,128
 370:	0a096603          	p.elw	a2,160(s2)
 374:	0100                	addi	s0,sp,128
 376:	02090103          	lb	sp,32(s2)
 37a:	0100                	addi	s0,sp,128
 37c:	06091603          	lh	a2,96(s2)
 380:	0100                	addi	s0,sp,128
 382:	08095003          	lhu	zero,128(s2)
 386:	0100                	addi	s0,sp,128
 388:	02093003          	0x2093003
 38c:	0100                	addi	s0,sp,128
 38e:	097ee803          	p.elw	a6,151(t4) # 14097 <_stack_len+0xc097>
 392:	0004                	addi	s1,sp,0
 394:	0301                	addi	t1,t1,0
 396:	0902                	slli	s2,s2,0x0
 398:	0000                	unimp
 39a:	0001                	nop
 39c:	0402                	slli	s0,s0,0x0
 39e:	0601                	addi	a2,a2,0
 3a0:	04090003          	lb	zero,64(s2)
 3a4:	0100                	addi	s0,sp,128
 3a6:	0306                	slli	t1,t1,0x1
 3a8:	0901                	addi	s2,s2,0
 3aa:	0008                	addi	a0,sp,0
 3ac:	0301                	addi	t1,t1,0
 3ae:	00020933          	add	s2,tp,zero
 3b2:	0301                	addi	t1,t1,0
 3b4:	0901                	addi	s2,s2,0
 3b6:	0006                	0x6
 3b8:	0301                	addi	t1,t1,0
 3ba:	097f                	0x97f
 3bc:	0004                	addi	s1,sp,0
 3be:	0301                	addi	t1,t1,0
 3c0:	0901                	addi	s2,s2,0
 3c2:	0002                	0x2
 3c4:	0301                	addi	t1,t1,0
 3c6:	0902                	slli	s2,s2,0x0
 3c8:	0002                	0x2
 3ca:	0301                	addi	t1,t1,0
 3cc:	01aa                	slli	gp,gp,0xa
 3ce:	0a09                	addi	s4,s4,2
 3d0:	0100                	addi	s0,sp,128
 3d2:	04090403          	lb	s0,64(s2)
 3d6:	0100                	addi	s0,sp,128
 3d8:	02097c03          	0x2097c03
 3dc:	0100                	addi	s0,sp,128
 3de:	12090003          	lb	zero,288(s2)
 3e2:	0100                	addi	s0,sp,128
 3e4:	10090403          	lb	s0,256(s2)
 3e8:	0100                	addi	s0,sp,128
 3ea:	097fba03          	0x97fba03
 3ee:	0002                	0x2
 3f0:	0301                	addi	t1,t1,0
 3f2:	0905                	addi	s2,s2,1
 3f4:	0002                	0x2
 3f6:	0301                	addi	t1,t1,0
 3f8:	0906                	slli	s2,s2,0x1
 3fa:	0004                	addi	s1,sp,0
 3fc:	0301                	addi	t1,t1,0
 3fe:	0905                	addi	s2,s2,1
 400:	0004                	addi	s1,sp,0
 402:	0301                	addi	t1,t1,0
 404:	0906                	slli	s2,s2,0x1
 406:	0004                	addi	s1,sp,0
 408:	0301                	addi	t1,t1,0
 40a:	0905                	addi	s2,s2,1
 40c:	0002                	0x2
 40e:	0301                	addi	t1,t1,0
 410:	0968                	addi	a0,sp,156
 412:	0008                	addi	a0,sp,0
 414:	0301                	addi	t1,t1,0
 416:	060900cb          	0x60900cb
 41a:	0100                	addi	s0,sp,128
 41c:	097fb703          	0x97fb703
 420:	001a                	0x1a
 422:	0301                	addi	t1,t1,0
 424:	0904                	addi	s1,sp,144
 426:	0004                	addi	s1,sp,0
 428:	0301                	addi	t1,t1,0
 42a:	0901                	addi	s2,s2,0
 42c:	000a                	0xa
 42e:	0301                	addi	t1,t1,0
 430:	097e                	slli	s2,s2,0x1f
 432:	0004                	addi	s1,sp,0
 434:	0301                	addi	t1,t1,0
 436:	00020903          	lb	s2,0(tp) # 3000 <_min_stack+0x1000>
 43a:	0301                	addi	t1,t1,0
 43c:	0902                	slli	s2,s2,0x0
 43e:	0004                	addi	s1,sp,0
 440:	0301                	addi	t1,t1,0
 442:	0901                	addi	s2,s2,0
 444:	0004                	addi	s1,sp,0
 446:	0301                	addi	t1,t1,0
 448:	0902                	slli	s2,s2,0x0
 44a:	0004                	addi	s1,sp,0
 44c:	0301                	addi	t1,t1,0
 44e:	0978                	addi	a4,sp,156
 450:	000c                	addi	a1,sp,0
 452:	0301                	addi	t1,t1,0
 454:	090d                	addi	s2,s2,3
 456:	0002                	0x2
 458:	0301                	addi	t1,t1,0
 45a:	0904                	addi	s1,sp,144
 45c:	0016                	0x16
 45e:	0301                	addi	t1,t1,0
 460:	0901                	addi	s2,s2,0
 462:	0008                	addi	a0,sp,0
 464:	0301                	addi	t1,t1,0
 466:	0901                	addi	s2,s2,0
 468:	0006                	0x6
 46a:	0301                	addi	t1,t1,0
 46c:	0916                	slli	s2,s2,0x5
 46e:	0008                	addi	a0,sp,0
 470:	0301                	addi	t1,t1,0
 472:	0962                	slli	s2,s2,0x18
 474:	0004                	addi	s1,sp,0
 476:	0301                	addi	t1,t1,0
 478:	097f                	0x97f
 47a:	0004                	addi	s1,sp,0
 47c:	0301                	addi	t1,t1,0
 47e:	0904                	addi	s1,sp,144
 480:	0004                	addi	s1,sp,0
 482:	0301                	addi	t1,t1,0
 484:	097f                	0x97f
 486:	0004                	addi	s1,sp,0
 488:	0301                	addi	t1,t1,0
 48a:	0902                	slli	s2,s2,0x0
 48c:	0002                	0x2
 48e:	0301                	addi	t1,t1,0
 490:	00040907          	0x40907
 494:	0301                	addi	t1,t1,0
 496:	0901                	addi	s2,s2,0
 498:	0008                	addi	a0,sp,0
 49a:	0301                	addi	t1,t1,0
 49c:	0964                	addi	s1,sp,156
 49e:	0014                	addi	a3,sp,0
 4a0:	0301                	addi	t1,t1,0
 4a2:	091f 0004 0301      	0x3010004091f
 4a8:	0901                	addi	s2,s2,0
 4aa:	0008                	addi	a0,sp,0
 4ac:	0301                	addi	t1,t1,0
 4ae:	000c0903          	lb	s2,0(s8) # 19000 <_stack_len+0x11000>
 4b2:	0301                	addi	t1,t1,0
 4b4:	0901                	addi	s2,s2,0
 4b6:	0008                	addi	a0,sp,0
 4b8:	0301                	addi	t1,t1,0
 4ba:	0904                	addi	s1,sp,144
 4bc:	0008                	addi	a0,sp,0
 4be:	0301                	addi	t1,t1,0
 4c0:	097f                	0x97f
 4c2:	0006                	0x6
 4c4:	0301                	addi	t1,t1,0
 4c6:	0901                	addi	s2,s2,0
 4c8:	0008                	addi	a0,sp,0
 4ca:	0301                	addi	t1,t1,0
 4cc:	000a0903          	lb	s2,0(s4)
 4d0:	0301                	addi	t1,t1,0
 4d2:	0901                	addi	s2,s2,0
 4d4:	0008                	addi	a0,sp,0
 4d6:	0301                	addi	t1,t1,0
 4d8:	0901                	addi	s2,s2,0
 4da:	0006                	0x6
 4dc:	0301                	addi	t1,t1,0
 4de:	097f                	0x97f
 4e0:	0004                	addi	s1,sp,0
 4e2:	0301                	addi	t1,t1,0
 4e4:	0902                	slli	s2,s2,0x0
 4e6:	0004                	addi	s1,sp,0
 4e8:	0301                	addi	t1,t1,0
 4ea:	0956                	slli	s2,s2,0x15
 4ec:	0008                	addi	a0,sp,0
 4ee:	0301                	addi	t1,t1,0
 4f0:	02097f8f          	0x2097f8f
 4f4:	0100                	addi	s0,sp,128
 4f6:	0901a303          	lw	t1,144(gp) # 12a <_min_stack-0x1ed6>
 4fa:	0004                	addi	s1,sp,0
 4fc:	0301                	addi	t1,t1,0
 4fe:	7edd                	lui	t4,0xffff7
 500:	0209                	addi	tp,tp,2
 502:	0100                	addi	s0,sp,128
 504:	097f8f03          	lb	t5,151(t6)
 508:	0004                	addi	s1,sp,0
 50a:	0301                	addi	t1,t1,0
 50c:	0901                	addi	s2,s2,0
 50e:	0000                	unimp
 510:	0301                	addi	t1,t1,0
 512:	0a0902ab          	p.sb	zero,165(s2!)
 516:	0100                	addi	s0,sp,128
 518:	0a090003          	lb	zero,160(s2)
 51c:	0100                	addi	s0,sp,128
 51e:	02090303          	lb	t1,32(s2)
 522:	0100                	addi	s0,sp,128
 524:	097ec203          	lbu	tp,151(t4) # ffff7097 <pulp__FC+0xffff7098>
 528:	000e                	0xe
 52a:	0301                	addi	t1,t1,0
 52c:	01c4                	addi	s1,sp,196
 52e:	0409                	addi	s0,s0,2
 530:	0100                	addi	s0,sp,128
 532:	097ebc03          	0x97ebc03
 536:	000e                	0xe
 538:	0301                	addi	t1,t1,0
 53a:	01c6                	slli	gp,gp,0x11
 53c:	0409                	addi	s0,s0,2
 53e:	0100                	addi	s0,sp,128
 540:	10091103          	lh	sp,256(s2)
 544:	0100                	addi	s0,sp,128
 546:	0200                	addi	s0,sp,256
 548:	0104                	addi	s1,sp,128
 54a:	0306                	slli	t1,t1,0x1
 54c:	0900                	addi	s0,sp,144
 54e:	0008                	addi	a0,sp,0
 550:	0601                	addi	a2,a2,0
 552:	0a090303          	lb	t1,160(s2)
 556:	0100                	addi	s0,sp,128
 558:	08090203          	lb	tp,128(s2)
 55c:	0100                	addi	s0,sp,128
 55e:	02090203          	lb	tp,32(s2)
 562:	0100                	addi	s0,sp,128
 564:	02090703          	lb	a4,32(s2)
 568:	0100                	addi	s0,sp,128
 56a:	04097a03          	0x4097a03
 56e:	0100                	addi	s0,sp,128
 570:	02090103          	lb	sp,32(s2)
 574:	0100                	addi	s0,sp,128
 576:	02090103          	lb	sp,32(s2)
 57a:	0100                	addi	s0,sp,128
 57c:	02090103          	lb	sp,32(s2)
 580:	0100                	addi	s0,sp,128
 582:	04090303          	lb	t1,64(s2)
 586:	0100                	addi	s0,sp,128
 588:	0200                	addi	s0,sp,256
 58a:	0104                	addi	s1,sp,128
 58c:	0306                	slli	t1,t1,0x1
 58e:	0900                	addi	s0,sp,144
 590:	0008                	addi	a0,sp,0
 592:	0001                	nop
 594:	0402                	slli	s0,s0,0x0
 596:	0302                	slli	t1,t1,0x0
 598:	0900                	addi	s0,sp,144
 59a:	0004                	addi	s1,sp,0
 59c:	0001                	nop
 59e:	0402                	slli	s0,s0,0x0
 5a0:	09000303          	lb	t1,144(zero) # 90 <_min_stack-0x1f70>
 5a4:	0004                	addi	s1,sp,0
 5a6:	0001                	nop
 5a8:	0402                	slli	s0,s0,0x0
 5aa:	0304                	addi	s1,sp,384
 5ac:	0900                	addi	s0,sp,144
 5ae:	0004                	addi	s1,sp,0
 5b0:	0601                	addi	a2,a2,0
 5b2:	04090203          	lb	tp,64(s2)
 5b6:	0100                	addi	s0,sp,128
 5b8:	04090403          	lb	s0,64(s2)
 5bc:	0100                	addi	s0,sp,128
 5be:	1409                	addi	s0,s0,-30
 5c0:	0000                	unimp
 5c2:	0101                	addi	sp,sp,0
 5c4:	0184                	addi	s1,sp,192
 5c6:	0000                	unimp
 5c8:	0002                	0x2
 5ca:	0102                	slli	sp,sp,0x0
 5cc:	0000                	unimp
 5ce:	0101                	addi	sp,sp,0
 5d0:	000d0efb          	0xd0efb
 5d4:	0101                	addi	sp,sp,0
 5d6:	0101                	addi	sp,sp,0
 5d8:	0000                	unimp
 5da:	0100                	addi	s0,sp,128
 5dc:	0000                	unimp
 5de:	2e01                	jal	8ee <_min_stack-0x1712>
 5e0:	2f2e                	fld	ft10,200(sp)
 5e2:	6c66                	flw	fs8,88(sp)
 5e4:	7361                	lui	t1,0xffff8
 5e6:	5f68                	lw	a0,124(a4)
 5e8:	6561                	lui	a0,0x18
 5ea:	6d735f73          	csrrwi	t5,0x6d7,6
 5ee:	74656b6f          	jal	s6,56d34 <tohost+0x36d2c>
 5f2:	7365                	lui	t1,0xffff9
 5f4:	2f74                	fld	fa3,216(a4)
 5f6:	6162                	flw	ft2,24(sp)
 5f8:	657a                	flw	fa0,156(sp)
 5fa:	2d6c                	fld	fa1,216(a0)
 5fc:	0074756f          	jal	a0,47e02 <tohost+0x27dfa>
 600:	7273752f          	0x7273752f
 604:	6361702f          	0x6361702f
 608:	75702f6b          	0x75702f6b
 60c:	706c                	flw	fa1,100(s0)
 60e:	2d6b6473          	csrrsi	s0,0x2d6,22
 612:	2e31                	jal	92e <_min_stack-0x16d2>
 614:	2d30                	fld	fa2,88(a0)
 616:	2f66676b          	0x2f66676b
 61a:	7261                	lui	tp,0xffff8
 61c:	6974                	flw	fa3,84(a0)
 61e:	6166                	flw	ft2,88(sp)
 620:	726f7463          	bleu	t1,t5,d48 <_min_stack-0x12b8>
 624:	2f79                	jal	dc2 <_min_stack-0x123e>
 626:	7570                	flw	fa2,108(a0)
 628:	706c                	flw	fa1,100(s0)
 62a:	732d                	lui	t1,0xfffeb
 62c:	6b64                	flw	fs1,84(a4)
 62e:	722d                	lui	tp,0xfffeb
 630:	6c65                	lui	s8,0x19
 632:	6165                	addi	sp,sp,112
 634:	702f6573          	csrrsi	a0,0x702,30
 638:	702f676b          	0x702f676b
 63c:	6c75                	lui	s8,0x1d
 63e:	5f70                	lw	a2,124(a4)
 640:	6972                	flw	fs2,28(sp)
 642:	5f766373          	csrrsi	t1,0x5f7,12
 646:	2f636367          	0x2f636367
 64a:	2e31                	jal	966 <_min_stack-0x169a>
 64c:	2e30                	fld	fa2,88(a2)
 64e:	3631                	jal	15a <_min_stack-0x1ea6>
 650:	62696c2f          	0x62696c2f
 654:	6363672f          	0x6363672f
 658:	7369722f          	0x7369722f
 65c:	32337663          	bleu	gp,t1,988 <_min_stack-0x1678>
 660:	752d                	lui	a0,0xfffeb
 662:	6b6e                	flw	fs6,216(sp)
 664:	6f6e                	flw	ft10,216(sp)
 666:	652d6e77          	0x652d6e77
 66a:	666c                	flw	fa1,76(a2)
 66c:	312e372f          	0x312e372f
 670:	312e                	fld	ft2,232(sp)
 672:	636e692f          	0x636e692f
 676:	756c                	flw	fa1,108(a0)
 678:	6564                	flw	fs1,76(a0)
 67a:	0000                	unimp
 67c:	6c66                	flw	fs8,88(sp)
 67e:	7361                	lui	t1,0xffff8
 680:	5f68                	lw	a0,124(a4)
 682:	7270                	flw	fa2,100(a2)
 684:	6c65                	lui	s8,0x19
 686:	5f64616f          	jal	sp,46c7c <tohost+0x26c74>
 68a:	6561                	lui	a0,0x18
 68c:	6d735f73          	csrrwi	t5,0x6d7,6
 690:	74656b6f          	jal	s6,56dd6 <tohost+0x36dce>
 694:	7365                	lui	t1,0xffff9
 696:	2e74                	fld	fa3,216(a2)
 698:	00000063          	beqz	zero,698 <_min_stack-0x1968>
 69c:	6600                	flw	fs0,8(a2)
 69e:	616c                	flw	fa1,68(a0)
 6a0:	615f6873          	csrrsi	a6,0x615,30
 6a4:	7365                	lui	t1,0xffff9
 6a6:	735f 6f6d 656b      	0x656b6f6d735f
 6ac:	6574                	flw	fa3,76(a0)
 6ae:	735f7473          	csrrci	s0,0x735,30
 6b2:	6769                	lui	a4,0x1a
 6b4:	656e                	flw	fa0,216(sp)
 6b6:	3364                	fld	fs1,224(a4)
 6b8:	2e32                	fld	ft8,264(sp)
 6ba:	0068                	addi	a0,sp,12
 6bc:	0001                	nop
 6be:	7300                	flw	fs0,32(a4)
 6c0:	6474                	flw	fa3,76(s0)
 6c2:	6e69                	lui	t3,0x1a
 6c4:	2d74                	fld	fa3,216(a0)
 6c6:	2e636367          	0x2e636367
 6ca:	0068                	addi	a0,sp,12
 6cc:	0002                	0x2
 6ce:	0000                	unimp
 6d0:	0500                	addi	s0,sp,640
 6d2:	3a02                	fld	fs4,32(sp)
 6d4:	0005                	c.addi	zero,1
 6d6:	03e0                	addi	s0,sp,460
 6d8:	0112                	slli	sp,sp,0x4
 6da:	00091003          	lh	zero,0(s2)
 6de:	0100                	addi	s0,sp,128
 6e0:	06090203          	lb	tp,96(s2)
 6e4:	0100                	addi	s0,sp,128
 6e6:	02097e03          	0x2097e03
 6ea:	0100                	addi	s0,sp,128
 6ec:	02090203          	lb	tp,32(s2)
 6f0:	0100                	addi	s0,sp,128
 6f2:	0a090503          	lb	a0,160(s2)
 6f6:	0100                	addi	s0,sp,128
 6f8:	02090103          	lb	sp,32(s2)
 6fc:	0100                	addi	s0,sp,128
 6fe:	06097a03          	0x6097a03
 702:	0100                	addi	s0,sp,128
 704:	04090203          	lb	tp,64(s2)
 708:	0100                	addi	s0,sp,128
 70a:	0a090103          	lb	sp,160(s2)
 70e:	0100                	addi	s0,sp,128
 710:	08090103          	lb	sp,128(s2)
 714:	0100                	addi	s0,sp,128
 716:	08090103          	lb	sp,128(s2)
 71a:	0100                	addi	s0,sp,128
 71c:	04097b03          	0x4097b03
 720:	0100                	addi	s0,sp,128
 722:	02090503          	lb	a0,32(s2)
 726:	0100                	addi	s0,sp,128
 728:	04090103          	lb	sp,64(s2)
 72c:	0100                	addi	s0,sp,128
 72e:	02097a03          	0x2097a03
 732:	0100                	addi	s0,sp,128
 734:	04090a03          	lb	s4,64(s2)
 738:	0100                	addi	s0,sp,128
 73a:	04090103          	lb	sp,64(s2)
 73e:	0100                	addi	s0,sp,128
 740:	04090403          	lb	s0,64(s2)
 744:	0100                	addi	s0,sp,128
 746:	0409                	addi	s0,s0,2
 748:	0000                	unimp
 74a:	0101                	addi	sp,sp,0
 74c:	019c                	addi	a5,sp,192
 74e:	0000                	unimp
 750:	0002                	0x2
 752:	0051                	c.addi	zero,20
 754:	0000                	unimp
 756:	0101                	addi	sp,sp,0
 758:	000d0efb          	0xd0efb
 75c:	0101                	addi	sp,sp,0
 75e:	0101                	addi	sp,sp,0
 760:	0000                	unimp
 762:	0100                	addi	s0,sp,128
 764:	0000                	unimp
 766:	2f01                	jal	e76 <_min_stack-0x118a>
 768:	61726373          	csrrsi	t1,0x617,4
 76c:	6374                	flw	fa3,68(a4)
 76e:	2f68                	fld	fa0,216(a4)
 770:	636d                	lui	t1,0x1b
 772:	6169                	addi	sp,sp,208
 774:	696e                	flw	fs2,216(sp)
 776:	65706f2f          	0x65706f2f
 77a:	746e                	flw	fs0,248(sp)
 77c:	7469                	lui	s0,0xffffa
 77e:	6e61                	lui	t3,0x18
 780:	2f77732f          	0x2f77732f
 784:	6574                	flw	fa3,76(a0)
 786:	2f737473          	csrrci	s0,0x2f7,6
 78a:	6e65706f          	j	57e70 <tohost+0x37e68>
 78e:	6974                	flw	fa3,84(a0)
 790:	6174                	flw	fa3,68(a0)
 792:	2f6e                	fld	ft10,216(sp)
 794:	6d6d6f63          	bltu	s10,s6,e72 <_min_stack-0x118e>
 798:	00006e6f          	jal	t3,6798 <_min_stack+0x4798>
 79c:	30747263          	bleu	t2,s0,aa0 <_min_stack-0x1560>
 7a0:	532e                	lw	t1,232(sp)
 7a2:	0100                	addi	s0,sp,128
 7a4:	0000                	unimp
 7a6:	0000                	unimp
 7a8:	0205                	addi	tp,tp,1
 7aa:	04be                	slli	s1,s1,0xf
 7ac:	e000                	fsw	fs0,0(s0)
 7ae:	031a                	slli	t1,t1,0x6
 7b0:	0904                	addi	s1,sp,144
 7b2:	0004                	addi	s1,sp,0
 7b4:	0301                	addi	t1,t1,0
 7b6:	0901                	addi	s2,s2,0
 7b8:	0004                	addi	s1,sp,0
 7ba:	0301                	addi	t1,t1,0
 7bc:	0901                	addi	s2,s2,0
 7be:	0002                	0x2
 7c0:	0301                	addi	t1,t1,0
 7c2:	0901                	addi	s2,s2,0
 7c4:	0002                	0x2
 7c6:	0301                	addi	t1,t1,0
 7c8:	0901                	addi	s2,s2,0
 7ca:	0002                	0x2
 7cc:	0301                	addi	t1,t1,0
 7ce:	0901                	addi	s2,s2,0
 7d0:	0002                	0x2
 7d2:	0301                	addi	t1,t1,0
 7d4:	0901                	addi	s2,s2,0
 7d6:	0002                	0x2
 7d8:	0301                	addi	t1,t1,0
 7da:	0901                	addi	s2,s2,0
 7dc:	0002                	0x2
 7de:	0301                	addi	t1,t1,0
 7e0:	0901                	addi	s2,s2,0
 7e2:	0002                	0x2
 7e4:	0301                	addi	t1,t1,0
 7e6:	0901                	addi	s2,s2,0
 7e8:	0002                	0x2
 7ea:	0301                	addi	t1,t1,0
 7ec:	0901                	addi	s2,s2,0
 7ee:	0002                	0x2
 7f0:	0301                	addi	t1,t1,0
 7f2:	0901                	addi	s2,s2,0
 7f4:	0002                	0x2
 7f6:	0301                	addi	t1,t1,0
 7f8:	0901                	addi	s2,s2,0
 7fa:	0002                	0x2
 7fc:	0301                	addi	t1,t1,0
 7fe:	0901                	addi	s2,s2,0
 800:	0002                	0x2
 802:	0301                	addi	t1,t1,0
 804:	0901                	addi	s2,s2,0
 806:	0002                	0x2
 808:	0301                	addi	t1,t1,0
 80a:	0901                	addi	s2,s2,0
 80c:	0002                	0x2
 80e:	0301                	addi	t1,t1,0
 810:	0901                	addi	s2,s2,0
 812:	0002                	0x2
 814:	0301                	addi	t1,t1,0
 816:	0901                	addi	s2,s2,0
 818:	0002                	0x2
 81a:	0301                	addi	t1,t1,0
 81c:	0901                	addi	s2,s2,0
 81e:	0002                	0x2
 820:	0301                	addi	t1,t1,0
 822:	0901                	addi	s2,s2,0
 824:	0002                	0x2
 826:	0301                	addi	t1,t1,0
 828:	0901                	addi	s2,s2,0
 82a:	0002                	0x2
 82c:	0301                	addi	t1,t1,0
 82e:	0901                	addi	s2,s2,0
 830:	0002                	0x2
 832:	0301                	addi	t1,t1,0
 834:	0901                	addi	s2,s2,0
 836:	0002                	0x2
 838:	0301                	addi	t1,t1,0
 83a:	0901                	addi	s2,s2,0
 83c:	0002                	0x2
 83e:	0301                	addi	t1,t1,0
 840:	0901                	addi	s2,s2,0
 842:	0002                	0x2
 844:	0301                	addi	t1,t1,0
 846:	0901                	addi	s2,s2,0
 848:	0002                	0x2
 84a:	0301                	addi	t1,t1,0
 84c:	0901                	addi	s2,s2,0
 84e:	0002                	0x2
 850:	0301                	addi	t1,t1,0
 852:	0901                	addi	s2,s2,0
 854:	0002                	0x2
 856:	0301                	addi	t1,t1,0
 858:	0901                	addi	s2,s2,0
 85a:	0002                	0x2
 85c:	0301                	addi	t1,t1,0
 85e:	0901                	addi	s2,s2,0
 860:	0002                	0x2
 862:	0301                	addi	t1,t1,0
 864:	0901                	addi	s2,s2,0
 866:	0002                	0x2
 868:	0301                	addi	t1,t1,0
 86a:	00020903          	lb	s2,0(tp) # fffeb000 <pulp__FC+0xfffeb001>
 86e:	0301                	addi	t1,t1,0
 870:	00080907          	0x80907
 874:	0301                	addi	t1,t1,0
 876:	0901                	addi	s2,s2,0
 878:	0008                	addi	a0,sp,0
 87a:	0301                	addi	t1,t1,0
 87c:	0901                	addi	s2,s2,0
 87e:	0008                	addi	a0,sp,0
 880:	0301                	addi	t1,t1,0
 882:	0904                	addi	s1,sp,144
 884:	0004                	addi	s1,sp,0
 886:	0301                	addi	t1,t1,0
 888:	0901                	addi	s2,s2,0
 88a:	0004                	addi	s1,sp,0
 88c:	0301                	addi	t1,t1,0
 88e:	0901                	addi	s2,s2,0
 890:	0002                	0x2
 892:	0301                	addi	t1,t1,0
 894:	0906                	slli	s2,s2,0x1
 896:	0004                	addi	s1,sp,0
 898:	0301                	addi	t1,t1,0
 89a:	0901                	addi	s2,s2,0
 89c:	0004                	addi	s1,sp,0
 89e:	0301                	addi	t1,t1,0
 8a0:	0901                	addi	s2,s2,0
 8a2:	0004                	addi	s1,sp,0
 8a4:	0301                	addi	t1,t1,0
 8a6:	00040903          	lb	s2,0(s0) # ffffa000 <pulp__FC+0xffffa001>
 8aa:	0301                	addi	t1,t1,0
 8ac:	0901                	addi	s2,s2,0
 8ae:	0004                	addi	s1,sp,0
 8b0:	0901                	addi	s2,s2,0
 8b2:	0002                	0x2
 8b4:	0100                	addi	s0,sp,128
 8b6:	0001                	nop
 8b8:	0205                	addi	tp,tp,1
 8ba:	0000                	unimp
 8bc:	e000                	fsw	fs0,0(s0)
 8be:	0100d403          	lhu	s0,16(ra) # 10 <_min_stack-0x1ff0>
 8c2:	28090203          	lb	tp,640(s2)
 8c6:	0100                	addi	s0,sp,128
 8c8:	04090203          	lb	tp,64(s2)
 8cc:	0100                	addi	s0,sp,128
 8ce:	04090503          	lb	a0,64(s2)
 8d2:	0100                	addi	s0,sp,128
 8d4:	48090103          	lb	sp,1152(s2)
 8d8:	0100                	addi	s0,sp,128
 8da:	04090103          	lb	sp,64(s2)
 8de:	0100                	addi	s0,sp,128
 8e0:	04090503          	lb	a0,64(s2)
 8e4:	0100                	addi	s0,sp,128
 8e6:	0409                	addi	s0,s0,2
 8e8:	0000                	unimp
 8ea:	0101                	addi	sp,sp,0

Disassembly of section .debug_str:

00000000 <.debug_str>:
   0:	7071                	0x7071
   2:	6972                	flw	fs2,28(sp)
   4:	746e                	flw	fs0,248(sp)
   6:	732f0073          	0x732f0073
   a:	74617263          	bleu	t1,sp,74e <_min_stack-0x18b2>
   e:	6d2f6863          	bltu	t5,s2,6de <_min_stack-0x1922>
  12:	6e616963          	bltu	sp,t1,704 <_min_stack-0x18fc>
  16:	2f69                	jal	7b0 <_min_stack-0x1850>
  18:	6e65706f          	j	576fe <tohost+0x376f6>
  1c:	6974                	flw	fa3,84(a0)
  1e:	6174                	flw	fa3,68(a0)
  20:	2f6e                	fld	ft10,216(sp)
  22:	742f7773          	csrrci	a4,0x742,30
  26:	7365                	lui	t1,0xffff9
  28:	7374                	flw	fa3,100(a4)
  2a:	65706f2f          	0x65706f2f
  2e:	746e                	flw	fs0,248(sp)
  30:	7469                	lui	s0,0xffffa
  32:	6e61                	lui	t3,0x18
  34:	6d6f632f          	0x6d6f632f
  38:	6f6d                	lui	t5,0x1b
  3a:	2f6e                	fld	ft10,216(sp)
  3c:	7475                	lui	s0,0xffffd
  3e:	6c69                	lui	s8,0x1a
  40:	00632e73          	csrrs	t3,0x6,t1
  44:	726f6873          	csrrsi	a6,0x726,30
  48:	2074                	fld	fa3,192(s0)
  4a:	6e69                	lui	t3,0x1a
  4c:	0074                	addi	a3,sp,12
  4e:	5f70                	lw	a2,124(a4)
  50:	6572                	flw	fa0,28(sp)
  52:	75700067          	jr	1879(zero) # 757 <_min_stack-0x18a9>
  56:	6374                	flw	fa3,68(a4)
  58:	6168                	flw	fa0,68(a0)
  5a:	0072                	0x72
  5c:	6170                	flw	fa2,68(a0)
  5e:	6364                	flw	fs1,68(a4)
  60:	6168                	flw	fa0,68(a0)
  62:	0072                	0x72
  64:	6175                	addi	sp,sp,368
  66:	7472                	flw	fs0,60(sp)
  68:	735f 7465 635f      	0x635f7465735f
  6e:	6766                	flw	fa4,88(sp)
  70:	7000                	flw	fs0,32(s0)
  72:	7475                	lui	s0,0xffffd
  74:	69770073          	0x69770073
  78:	7464                	flw	fs1,108(s0)
  7a:	0068                	addi	a0,sp,12
  7c:	706d6973          	csrrsi	s2,0x706,26
  80:	656c                	flw	fa1,76(a0)
  82:	655f 6378 685f      	0x685f6378655f
  88:	6e61                	lui	t3,0x18
  8a:	6c64                	flw	fs1,92(s0)
  8c:	7265                	lui	tp,0xffff9
  8e:	6c00                	flw	fs0,24(s0)
  90:	20676e6f          	jal	t3,76296 <tohost+0x5628e>
  94:	6f6c                	flw	fa1,92(a4)
  96:	676e                	flw	fa4,216(sp)
  98:	6920                	flw	fs0,80(a0)
  9a:	746e                	flw	fs0,248(sp)
  9c:	7200                	flw	fs0,32(a2)
  9e:	6d65                	lui	s10,0x19
  a0:	3175                	jal	fffffd4c <pulp__FC+0xfffffd4d>
  a2:	5f30                	lw	a2,120(a4)
  a4:	6174                	flw	fa3,68(a0)
  a6:	6c62                	flw	fs8,24(sp)
  a8:	0065                	c.addi	zero,25
  aa:	6175                	addi	sp,sp,368
  ac:	7472                	flw	fs0,60(sp)
  ae:	675f 7465 6863      	0x68637465675f
  b4:	7261                	lui	tp,0xffff8
  b6:	7200                	flw	fs0,32(a2)
  b8:	6d65                	lui	s10,0x19
  ba:	3175                	jal	fffffd66 <pulp__FC+0xfffffd67>
  bc:	0030                	addi	a2,sp,8
  be:	656c                	flw	fa1,76(a0)
  c0:	6274                	flw	fa3,68(a2)
  c2:	7361                	lui	t1,0xffff8
  c4:	0065                	c.addi	zero,25
  c6:	69727473          	csrrci	s0,0x697,4
  ca:	676e                	flw	fa4,216(sp)
  cc:	7000                	flw	fs0,32(s0)
  ce:	6972                	flw	fs2,28(sp)
  d0:	746e                	flw	fs0,248(sp)
  d2:	0066                	0x66
  d4:	7071                	0x7071
  d6:	6972                	flw	fs2,28(sp)
  d8:	746e                	flw	fs0,248(sp)
  da:	0069                	c.addi	zero,26
  dc:	6170                	flw	fa2,68(a0)
  de:	6972                	flw	fs2,28(sp)
  e0:	7974                	flw	fa3,116(a0)
  e2:	7000                	flw	fs0,32(s0)
  e4:	725f 6765 0031      	0x316765725f
  ea:	5f70                	lw	a2,124(a4)
  ec:	6572                	flw	fa0,28(sp)
  ee:	70003267          	0x70003267
  f2:	725f 6765 0033      	0x336765725f
  f8:	5f70                	lw	a2,124(a4)
  fa:	6572                	flw	fa0,28(sp)
  fc:	6c003467          	0x6c003467
 100:	20676e6f          	jal	t3,76306 <tohost+0x562fe>
 104:	6f64                	flw	fs1,92(a4)
 106:	6275                	lui	tp,0x1d
 108:	656c                	flw	fa1,76(a0)
 10a:	7500                	flw	fs0,40(a0)
 10c:	736e                	flw	ft6,248(sp)
 10e:	6769                	lui	a4,0x1a
 110:	656e                	flw	fa0,216(sp)
 112:	2064                	fld	fs1,192(s0)
 114:	72616863          	bltu	sp,t1,844 <_min_stack-0x17bc>
 118:	7500                	flw	fs0,40(a0)
 11a:	7261                	lui	tp,0xffff8
 11c:	5f74                	lw	a3,124(a4)
 11e:	74696177          	0x74696177
 122:	745f 5f78 6f64      	0x6f645f78745f
 128:	656e                	flw	fa0,216(sp)
 12a:	4700                	lw	s0,8(a4)
 12c:	554e                	lw	a0,240(sp)
 12e:	4320                	lw	s0,64(a4)
 130:	3131                	jal	fffffd3c <pulp__FC+0xfffffd3d>
 132:	3720                	fld	fs0,104(a4)
 134:	312e                	fld	ft2,232(sp)
 136:	312e                	fld	ft2,232(sp)
 138:	3220                	fld	fs0,96(a2)
 13a:	3130                	fld	fa2,96(a0)
 13c:	30353037          	lui	zero,0x30353
 140:	2039                	jal	14e <_min_stack-0x1eb2>
 142:	6d2d                	lui	s10,0xb
 144:	7261                	lui	tp,0xffff8
 146:	723d6863          	bltu	s10,gp,876 <_min_stack-0x178a>
 14a:	3376                	fld	ft6,376(sp)
 14c:	6932                	flw	fs2,12(sp)
 14e:	636d                	lui	t1,0x1b
 150:	2d20                	fld	fs0,88(a0)
 152:	616d                	addi	sp,sp,240
 154:	6962                	flw	fs2,24(sp)
 156:	693d                	lui	s2,0xf
 158:	706c                	flw	fa1,100(s0)
 15a:	2d203233          	0x2d203233
 15e:	636d                	lui	t1,0x1b
 160:	6f6d                	lui	t5,0x1b
 162:	6564                	flw	fs1,76(a0)
 164:	3d6c                	fld	fa1,248(a0)
 166:	656d                	lui	a0,0x1b
 168:	6164                	flw	fs1,68(a0)
 16a:	796e                	flw	fs2,248(sp)
 16c:	2d20                	fld	fs0,88(a0)
 16e:	4f2d2067          	0x4f2d2067
 172:	662d2073          	csrs	0x662,s10
 176:	6976                	flw	fs2,92(sp)
 178:	69626973          	csrrsi	s2,0x696,4
 17c:	696c                	flw	fa1,84(a0)
 17e:	7974                	flw	fa3,116(a0)
 180:	683d                	lui	a6,0xf
 182:	6469                	lui	s0,0x1a
 184:	6564                	flw	fs1,76(a0)
 186:	206e                	fld	ft0,216(sp)
 188:	662d                	lui	a2,0xb
 18a:	7266                	flw	ft4,120(sp)
 18c:	6565                	lui	a0,0x19
 18e:	6e617473          	csrrci	s0,0x6e6,2
 192:	6964                	flw	fs1,84(a0)
 194:	676e                	flw	fa4,216(sp)
 196:	6c00                	flw	fs0,24(s0)
 198:	20676e6f          	jal	t3,7639e <tohost+0x56396>
 19c:	6f6c                	flw	fa1,92(a4)
 19e:	676e                	flw	fa4,216(sp)
 1a0:	7520                	flw	fs0,104(a0)
 1a2:	736e                	flw	ft6,248(sp)
 1a4:	6769                	lui	a4,0x1a
 1a6:	656e                	flw	fa0,216(sp)
 1a8:	2064                	fld	fs1,192(s0)
 1aa:	6e69                	lui	t3,0x1a
 1ac:	0074                	addi	a3,sp,12
 1ae:	7071                	0x7071
 1b0:	6972                	flw	fs2,28(sp)
 1b2:	746e                	flw	fs0,248(sp)
 1b4:	7500                	flw	fs0,40(a0)
 1b6:	6e69                	lui	t3,0x1a
 1b8:	3174                	fld	fa3,224(a0)
 1ba:	5f36                	lw	t5,108(sp)
 1bc:	0074                	addi	a3,sp,12
 1be:	6c70                	flw	fa2,92(s0)
 1c0:	6369                	lui	t1,0x1a
 1c2:	635f 6568 6b63      	0x6b636568635f
 1c8:	7300                	flw	fs0,32(a4)
 1ca:	6f68                	flw	fa0,92(a4)
 1cc:	7472                	flw	fs0,60(sp)
 1ce:	7520                	flw	fs0,104(a0)
 1d0:	736e                	flw	ft6,248(sp)
 1d2:	6769                	lui	a4,0x1a
 1d4:	656e                	flw	fa0,216(sp)
 1d6:	2064                	fld	fs1,192(s0)
 1d8:	6e69                	lui	t3,0x1a
 1da:	0074                	addi	a3,sp,12
 1dc:	7270                	flw	fa2,100(a2)
 1de:	6e69                	lui	t3,0x1a
 1e0:	5f74                	lw	a3,124(a4)
 1e2:	7562                	flw	fa0,56(sp)
 1e4:	0066                	0x66
 1e6:	7071                	0x7071
 1e8:	6972                	flw	fs2,28(sp)
 1ea:	746e                	flw	fs0,248(sp)
 1ec:	72616863          	bltu	sp,t1,91c <_min_stack-0x16e4>
 1f0:	5f00                	lw	s0,56(a4)
 1f2:	625f 6975 746c      	0x746c6975625f
 1f8:	6e69                	lui	t3,0x1a
 1fa:	765f 5f61 696c      	0x696c5f61765f
 200:	64007473          	csrrci	s0,0x640,0
 204:	7669                	lui	a2,0xffffa
 206:	3175                	jal	fffffeb2 <pulp__FC+0xfffffeb3>
 208:	0030                	addi	a2,sp,8
 20a:	6175                	addi	sp,sp,368
 20c:	7472                	flw	fs0,60(sp)
 20e:	735f 6e65 6364      	0x63646e65735f
 214:	6168                	flw	fa0,68(a0)
 216:	0072                	0x72
 218:	7263732f          	0x7263732f
 21c:	7461                	lui	s0,0xffff8
 21e:	6d2f6863          	bltu	t5,s2,8ee <_min_stack-0x1712>
 222:	6e616963          	bltu	sp,t1,914 <_min_stack-0x16ec>
 226:	2f69                	jal	9c0 <_min_stack-0x1640>
 228:	6e65706f          	j	5790e <tohost+0x37906>
 22c:	6974                	flw	fa3,84(a0)
 22e:	6174                	flw	fa3,68(a0)
 230:	2f6e                	fld	ft10,216(sp)
 232:	742f7773          	csrrci	a4,0x742,30
 236:	7365                	lui	t1,0xffff9
 238:	7374                	flw	fa3,100(a4)
 23a:	65706f2f          	0x65706f2f
 23e:	746e                	flw	fs0,248(sp)
 240:	7469                	lui	s0,0xffffa
 242:	6e61                	lui	t3,0x18
 244:	616c662f          	0x616c662f
 248:	705f6873          	csrrsi	a6,0x705,30
 24c:	6572                	flw	fa0,28(sp)
 24e:	6f6c                	flw	fa1,92(a4)
 250:	6461                	lui	s0,0x18
 252:	615f 7365 735f      	0x735f7365615f
 258:	6f6d                	lui	t5,0x1b
 25a:	6574656b          	0x6574656b
 25e:	63007473          	csrrci	s0,0x630,0
 262:	6b6c                	flw	fa1,84(a4)
 264:	635f 756f 746e      	0x746e756f635f
 26a:	7265                	lui	tp,0xffff9
 26c:	5f00                	lw	s0,56(a4)
 26e:	675f 756e 5f63      	0x5f63756e675f
 274:	6176                	flw	ft2,92(sp)
 276:	6c5f 7369 0074      	0x7473696c5f
 27c:	7865                	lui	a6,0xffff9
 27e:	6574                	flw	fa3,76(a0)
 280:	6e72                	flw	ft8,28(sp)
 282:	6c61                	lui	s8,0x18
 284:	695f 7172 685f      	0x685f7172695f
 28a:	6e61                	lui	t3,0x18
 28c:	6c64                	flw	fs1,92(s0)
 28e:	7265                	lui	tp,0xffff9
 290:	7500                	flw	fs0,40(a0)
 292:	7261                	lui	tp,0xffff8
 294:	5f74                	lw	a3,124(a4)
 296:	646e6573          	csrrsi	a0,0x646,28
 29a:	6d00                	flw	fs0,24(a0)
 29c:	6f62                	flw	ft10,24(sp)
 29e:	5f78                	lw	a4,124(a4)
 2a0:	6469                	lui	s0,0x1a
 2a2:	6600                	flw	fs0,8(a2)
 2a4:	616d726f          	jal	tp,d78ba <tohost+0xb78b2>
 2a8:	0074                	addi	a3,sp,12
 2aa:	5f70                	lw	a2,124(a4)
 2ac:	6572                	flw	fa0,28(sp)
 2ae:	62003567          	0x62003567
 2b2:	6675                	lui	a2,0x1d
 2b4:	6566                	flw	fa0,88(sp)
 2b6:	5f72                	lw	t5,60(sp)
 2b8:	657a6973          	csrrsi	s2,0x657,20
 2bc:	7300                	flw	fs0,32(a4)
 2be:	6174                	flw	fa3,68(a0)
 2c0:	7472                	flw	fs0,60(sp)
 2c2:	7000                	flw	fs0,32(s0)
 2c4:	7961                	lui	s2,0xffff8
 2c6:	6f6c                	flw	fa1,92(a4)
 2c8:	6461                	lui	s0,0x18
 2ca:	325f 4600 414c      	0x414c4600325f
 2d0:	415f4853          	0x415f4853
 2d4:	5345                	li	t1,-15
 2d6:	535f 4f4d 454b      	0x454b4f4d535f
 2dc:	4554                	lw	a3,12(a0)
 2de:	535f5453          	0x535f5453
 2e2:	4749                	li	a4,18
 2e4:	454e                	lw	a0,208(sp)
 2e6:	0044                	addi	s1,sp,4
 2e8:	616d                	addi	sp,sp,240
 2ea:	6e69                	lui	t3,0x1a
 2ec:	6500                	flw	fs0,8(a0)
 2ee:	7272                	flw	ft4,60(sp)
 2f0:	0073726f          	jal	tp,37af6 <tohost+0x17aee>
 2f4:	6461                	lui	s0,0x18
 2f6:	7264                	flw	fs1,100(a2)
 2f8:	7365                	lui	t1,0xffff9
 2fa:	6c660073          	0x6c660073
 2fe:	7361                	lui	t1,0xffff8
 300:	5f68                	lw	a0,124(a4)
 302:	7270                	flw	fa2,100(a2)
 304:	6c65                	lui	s8,0x19
 306:	5f64616f          	jal	sp,468fc <tohost+0x268f4>
 30a:	6561                	lui	a0,0x18
 30c:	6d735f73          	csrrwi	t5,0x6d7,6
 310:	74656b6f          	jal	s6,56a56 <tohost+0x36a4e>
 314:	7365                	lui	t1,0xffff9
 316:	2e74                	fld	fa3,216(a2)
 318:	61700063          	beq	zero,s7,918 <_min_stack-0x16e8>
 31c:	6c79                	lui	s8,0x1e
 31e:	5f64616f          	jal	sp,46914 <tohost+0x2690c>
 322:	0031                	c.addi	zero,12
 324:	6170                	flw	fa2,68(a0)
 326:	6c79                	lui	s8,0x1e
 328:	5f64616f          	jal	sp,4691e <tohost+0x26916>
 32c:	72610033          	0x72610033
 330:	61006367          	0x61006367
 334:	6772                	flw	fa4,28(sp)
 336:	0076                	0x76
 338:	6975                	lui	s2,0x1d
 33a:	746e                	flw	fs0,248(sp)
 33c:	745f3233          	0x745f3233
 340:	6400                	flw	fs0,8(s0)
 342:	7461                	lui	s0,0xffff8
 344:	7061                	0x7061
 346:	7461                	lui	s0,0xffff8
 348:	0068                	addi	a0,sp,12
 34a:	625f7773          	csrrci	a4,0x625,30
 34e:	6d746f6f          	jal	t5,47224 <tohost+0x2721c>
 352:	0065646f          	jal	s0,56358 <tohost+0x36350>

Disassembly of section .comment:

00000000 <.comment>:
   0:	3a434347          	fmsub.d	ft6,ft6,ft4,ft7,rmm
   4:	2820                	fld	fs0,80(s0)
   6:	29554e47          	fmsub.s	ft8,fa0,fs5,ft5,rmm
   a:	3720                	fld	fs0,104(a4)
   c:	312e                	fld	ft2,232(sp)
   e:	312e                	fld	ft2,232(sp)
  10:	3220                	fld	fs0,96(a2)
  12:	3130                	fld	fa2,96(a0)
  14:	30353037          	lui	zero,0x30353
  18:	0039                	c.addi	zero,14

Disassembly of section .Pulp_Chip.Info:

00000000 <.Pulp_Chip.Info>:
   0:	000a                	0xa
   2:	0000                	unimp
   4:	0038                	addi	a4,sp,8
   6:	0000                	unimp
   8:	0001                	nop
   a:	0000                	unimp
   c:	7550                	flw	fa2,44(a0)
   e:	706c                	flw	fa1,100(s0)
  10:	495f 666e 006f      	0x6f666e495f
  16:	70696863          	bltu	s2,t1,726 <_min_stack-0x18da>
  1a:	6e3d                	lui	t3,0xf
  1c:	20656e6f          	jal	t3,56222 <tohost+0x3621a>
  20:	3d757063          	bleu	s7,a0,3e0 <_min_stack-0x1c20>
  24:	6f6e                	flw	ft10,216(sp)
  26:	656e                	flw	fa0,216(sp)
  28:	7020                	flw	fs0,96(s0)
  2a:	3d65                	jal	fffffee2 <pulp__FC+0xfffffee3>
  2c:	312d                	jal	fffffc56 <pulp__FC+0xfffffc57>
  2e:	6620                	flw	fs0,72(a2)
  30:	312d3d63          	p.bneimm	s10,-14,34a <_min_stack-0x1cb6>
  34:	6c20                	flw	fs0,88(s0)
  36:	3d32                	fld	fs10,296(sp)
  38:	312d                	jal	fffffc62 <pulp__FC+0xfffffc63>
  3a:	6c20                	flw	fs0,88(s0)
  3c:	6331                	lui	t1,0xc
  3e:	3d6c                	fld	fa1,248(a0)
  40:	312d                	jal	fffffc6a <pulp__FC+0xfffffc6b>
  42:	6c20                	flw	fs0,88(s0)
  44:	6631                	lui	a2,0xc
  46:	312d3d63          	p.bneimm	s10,-14,360 <_min_stack-0x1ca0>
  4a:	0000                	unimp
	...
