
flash_alsaqr_boot_preload.elf:     file format elf32-littleriscv
architecture: riscv:rv32, flags 0x00000112:
EXEC_P, HAS_SYMS, D_PAGED
start address 0xe0000080

Sections:
Idx Name          Size      VMA       LMA       File off  Algn
  0 .vectors      00000084  e0000000  e0000000  00001000  2**0
                  CONTENTS, ALLOC, LOAD, READONLY, CODE
  1 .text         000004c2  e0000084  e0000084  00001084  2**1
                  CONTENTS, ALLOC, LOAD, READONLY, CODE
  2 .rodata       00004cdf  e0000548  e0000548  00001548  2**2
                  CONTENTS, ALLOC, LOAD, READONLY, DATA
  3 .data         00000010  e0005228  e0005228  00006228  2**2
                  CONTENTS, ALLOC, LOAD, DATA
  4 .bss          00000000  e0005238  e0005238  00006238  2**0
                  ALLOC
  5 .logs.fields  00000000  e0005238  e0005238  00006238  2**0
                  CONTENTS
  6 .stack        00002000  e0008000  e0008000  00007000  2**0
                  ALLOC
  7 .debug_info   00000a28  00000000  00000000  00006238  2**0
                  CONTENTS, READONLY, DEBUGGING, OCTETS
  8 .debug_abbrev 0000047d  00000000  00000000  00006c60  2**0
                  CONTENTS, READONLY, DEBUGGING, OCTETS
  9 .debug_loclists 000008f8  00000000  00000000  000070dd  2**0
                  CONTENTS, READONLY, DEBUGGING, OCTETS
 10 .debug_aranges 00000068  00000000  00000000  000079d8  2**3
                  CONTENTS, READONLY, DEBUGGING, OCTETS
 11 .debug_rnglists 00000133  00000000  00000000  00007a40  2**0
                  CONTENTS, READONLY, DEBUGGING, OCTETS
 12 .debug_line   00000fdc  00000000  00000000  00007b73  2**0
                  CONTENTS, READONLY, DEBUGGING, OCTETS
 13 .debug_str    000002fd  00000000  00000000  00008b4f  2**0
                  CONTENTS, READONLY, DEBUGGING, OCTETS
 14 .debug_line_str 00000189  00000000  00000000  00008e4c  2**0
                  CONTENTS, READONLY, DEBUGGING, OCTETS
 15 .comment      00000026  00000000  00000000  00008fd5  2**0
                  CONTENTS, READONLY
 16 .riscv.attributes 0000003f  00000000  00000000  00008ffb  2**0
                  CONTENTS, READONLY
 17 .debug_frame  00000188  00000000  00000000  0000903c  2**2
                  CONTENTS, READONLY, DEBUGGING, OCTETS

Disassembly of section .vectors:

e0000000 <_vectors_start>:
  .option norvc;
  
  .org 0x00
  .rept 10
  jal x0, default_exc_handler
  .endr
e0000000:	45a0006f          	j	e000045a <default_exc_handler>
e0000004:	4560006f          	j	e000045a <default_exc_handler>
e0000008:	4520006f          	j	e000045a <default_exc_handler>
e000000c:	44e0006f          	j	e000045a <default_exc_handler>
e0000010:	44a0006f          	j	e000045a <default_exc_handler>
e0000014:	4460006f          	j	e000045a <default_exc_handler>
e0000018:	4420006f          	j	e000045a <default_exc_handler>
e000001c:	43e0006f          	j	e000045a <default_exc_handler>
e0000020:	43a0006f          	j	e000045a <default_exc_handler>
e0000024:	4360006f          	j	e000045a <default_exc_handler>
  
  jal x0, default_exc_handler
e0000028:	4320006f          	j	e000045a <default_exc_handler>
  
  jal x0, external_irq_handler
e000002c:	42a0006f          	j	e0000456 <external_irq_handler>

  .org 0x30
  .rept 18
  jal x0, default_exc_handler
  .endr
e0000030:	42a0006f          	j	e000045a <default_exc_handler>
e0000034:	4260006f          	j	e000045a <default_exc_handler>
e0000038:	4220006f          	j	e000045a <default_exc_handler>
e000003c:	41e0006f          	j	e000045a <default_exc_handler>
e0000040:	41a0006f          	j	e000045a <default_exc_handler>
e0000044:	4160006f          	j	e000045a <default_exc_handler>
e0000048:	4120006f          	j	e000045a <default_exc_handler>
e000004c:	40e0006f          	j	e000045a <default_exc_handler>
e0000050:	40a0006f          	j	e000045a <default_exc_handler>
e0000054:	4060006f          	j	e000045a <default_exc_handler>
e0000058:	4020006f          	j	e000045a <default_exc_handler>
e000005c:	3fe0006f          	j	e000045a <default_exc_handler>
e0000060:	3fa0006f          	j	e000045a <default_exc_handler>
e0000064:	3f60006f          	j	e000045a <default_exc_handler>
e0000068:	3f20006f          	j	e000045a <default_exc_handler>
e000006c:	3ee0006f          	j	e000045a <default_exc_handler>
e0000070:	3ea0006f          	j	e000045a <default_exc_handler>
e0000074:	3e60006f          	j	e000045a <default_exc_handler>
  jal x0, default_exc_handler
e0000078:	3e20006f          	j	e000045a <default_exc_handler>
  jal x0, default_exc_handler
e000007c:	3de0006f          	j	e000045a <default_exc_handler>


  // reset vector
  .org 0x80
  jal x0, reset_handler
e0000080:	3de0006f          	j	e000045e <reset_handler>

Disassembly of section .text:

e0000084 <uart_set_cfg>:
}


void uart_set_cfg(int parity, uint16_t clk_counter) {
  unsigned int i;
  *(volatile unsigned int*)(UART_REG_LCR) = 0x83; //sets 8N1 and set DLAB to 1
e0000084:	400007b7          	lui	a5,0x40000
e0000088:	08300713          	li	a4,131
e000008c:	c7d8                	sw	a4,12(a5)
  *(volatile unsigned int*)(UART_REG_DLM) = (clk_counter >> 8) & 0xFF;
e000008e:	0085d713          	srli	a4,a1,0x8
e0000092:	c3d8                	sw	a4,4(a5)
  *(volatile unsigned int*)(UART_REG_DLL) =  clk_counter       & 0xFF;
e0000094:	0ff5f593          	zext.b	a1,a1
e0000098:	c38c                	sw	a1,0(a5)
  *(volatile unsigned int*)(UART_REG_FCR) = 0xA7; //enables 16byte FIFO and clear FIFOs
e000009a:	0a700713          	li	a4,167
e000009e:	c798                	sw	a4,8(a5)
  *(volatile unsigned int*)(UART_REG_LCR) = 0x03; //sets 8N1 and set DLAB to 0
e00000a0:	470d                	li	a4,3
e00000a2:	c7d8                	sw	a4,12(a5)

  *(volatile unsigned int*)(UART_REG_IER) = ((*(volatile unsigned int*)(UART_REG_IER)) & 0xF0) | 0x02; // set IER (interrupt enable register) on UART
e00000a4:	43d8                	lw	a4,4(a5)
e00000a6:	0f077713          	andi	a4,a4,240
e00000aa:	00276713          	ori	a4,a4,2
e00000ae:	c3d8                	sw	a4,4(a5)
}
e00000b0:	8082                	ret

e00000b2 <uart_send>:

  while(len > 0) {
    // process this in batches of 16 bytes to actually use the FIFO in the UART

    // wait until there is space in the fifo
    while( (*(volatile unsigned int*)(UART_REG_LSR) & 0x20) == 0);
e00000b2:	40000737          	lui	a4,0x40000
  while(len > 0) {
e00000b6:	e191                	bnez	a1,e00000ba <uart_send+0x8>
      *(volatile unsigned int*)(UART_REG_THR) = *str++;

      len--;
    }
  }
}
e00000b8:	8082                	ret
    while( (*(volatile unsigned int*)(UART_REG_LSR) & 0x20) == 0);
e00000ba:	4b5c                	lw	a5,20(a4)
e00000bc:	0207f793          	andi	a5,a5,32
e00000c0:	dfed                	beqz	a5,e00000ba <uart_send+0x8>
e00000c2:	04050793          	addi	a5,a0,64
      *(volatile unsigned int*)(UART_REG_THR) = *str++;
e00000c6:	00054683          	lbu	a3,0(a0)
e00000ca:	0505                	addi	a0,a0,1
      len--;
e00000cc:	15fd                	addi	a1,a1,-1
      *(volatile unsigned int*)(UART_REG_THR) = *str++;
e00000ce:	c314                	sw	a3,0(a4)
    for(i = 0; (i < UART_FIFO_DEPTH) && (len > 0); i++) {
e00000d0:	fea783e3          	beq	a5,a0,e00000b6 <uart_send+0x4>
e00000d4:	f9ed                	bnez	a1,e00000c6 <uart_send+0x14>
e00000d6:	8082                	ret

e00000d8 <uart_getchar>:

char uart_getchar() {
  while((*((volatile int*)UART_REG_LSR) & 0x1) != 0x1);
e00000d8:	40000737          	lui	a4,0x40000
e00000dc:	4b5c                	lw	a5,20(a4)
e00000de:	8b85                	andi	a5,a5,1
e00000e0:	dff5                	beqz	a5,e00000dc <uart_getchar+0x4>

  return *(volatile int*)UART_REG_RBR;
e00000e2:	4308                	lw	a0,0(a4)
}
e00000e4:	0ff57513          	zext.b	a0,a0
e00000e8:	8082                	ret

e00000ea <uart_sendchar>:

void uart_sendchar(const char c) {
  // wait until there is space in the fifo
  while( (*(volatile unsigned int*)(UART_REG_LSR) & 0x20) == 0);
e00000ea:	40000737          	lui	a4,0x40000
e00000ee:	4b5c                	lw	a5,20(a4)
e00000f0:	0207f793          	andi	a5,a5,32
e00000f4:	dfed                	beqz	a5,e00000ee <uart_sendchar+0x4>

  // load FIFO
  *(volatile unsigned int*)(UART_REG_THR) = c;
e00000f6:	c308                	sw	a0,0(a4)
}
e00000f8:	8082                	ret

e00000fa <qprints.constprop.0>:
  }
  else
    putchar((char)c);
}

static int qprints(char **out, const char *string, int width, int pad)
e00000fa:	1101                	addi	sp,sp,-32
e00000fc:	cc22                	sw	s0,24(sp)
e00000fe:	ca26                	sw	s1,20(sp)
e0000100:	c452                	sw	s4,8(sp)
e0000102:	ce06                	sw	ra,28(sp)
e0000104:	c84a                	sw	s2,16(sp)
e0000106:	c64e                	sw	s3,12(sp)
e0000108:	8a2a                	mv	s4,a0
e000010a:	842e                	mv	s0,a1
{
  register int pc = 0, padchar = ' ';
e000010c:	02000493          	li	s1,32

  if (width > 0) {
e0000110:	02b05463          	blez	a1,e0000138 <qprints.constprop.0+0x3e>
e0000114:	4781                	li	a5,0
e0000116:	a011                	j	e000011a <qprints.constprop.0+0x20>
    register int len = 0;
    register const char *ptr;
    for (ptr = string; *ptr; ++ptr) ++len;
e0000118:	0785                	addi	a5,a5,1 # 40000001 <tohost+0x3ffdfff9>
e000011a:	00fa0733          	add	a4,s4,a5
e000011e:	00074703          	lbu	a4,0(a4) # 40000000 <tohost+0x3ffdfff8>
e0000122:	fb7d                	bnez	a4,e0000118 <qprints.constprop.0+0x1e>
    if (len >= width) width = 0;
e0000124:	0287d163          	bge	a5,s0,e0000146 <qprints.constprop.0+0x4c>
    else width -= len;
e0000128:	8c1d                	sub	s0,s0,a5
    if (pad & PAD_ZERO) padchar = '0';
e000012a:	00267793          	andi	a5,a2,2
  register int pc = 0, padchar = ' ';
e000012e:	02000493          	li	s1,32
    if (pad & PAD_ZERO) padchar = '0';
e0000132:	c399                	beqz	a5,e0000138 <qprints.constprop.0+0x3e>
e0000134:	03000493          	li	s1,48
  }
  if (!(pad & PAD_RIGHT)) {
e0000138:	8a05                	andi	a2,a2,1
  register int pc = 0, padchar = ' ';
e000013a:	4901                	li	s2,0
  if (!(pad & PAD_RIGHT)) {
e000013c:	e215                	bnez	a2,e0000160 <qprints.constprop.0+0x66>
e000013e:	8922                	mv	s2,s0
  uart_sendchar(s);
e0000140:	0ff4f993          	zext.b	s3,s1
e0000144:	a031                	j	e0000150 <qprints.constprop.0+0x56>
    if (len >= width) width = 0;
e0000146:	4401                	li	s0,0
e0000148:	b7cd                	j	e000012a <qprints.constprop.0+0x30>
  uart_sendchar(s);
e000014a:	854e                	mv	a0,s3
e000014c:	3f79                	jal	e00000ea <uart_sendchar>
    for ( ; width > 0; --width) {
e000014e:	197d                	addi	s2,s2,-1
e0000150:	ff204de3          	bgtz	s2,e000014a <qprints.constprop.0+0x50>
e0000154:	8922                	mv	s2,s0
e0000156:	00045363          	bgez	s0,e000015c <qprints.constprop.0+0x62>
e000015a:	4901                	li	s2,0
e000015c:	41240433          	sub	s0,s0,s2
  register int pc = 0, padchar = ' ';
e0000160:	89ca                	mv	s3,s2
e0000162:	a019                	j	e0000168 <qprints.constprop.0+0x6e>
  uart_sendchar(s);
e0000164:	3759                	jal	e00000ea <uart_sendchar>
      ++pc;
    }
  }
  for ( ; *string ; ++string) {
    qprintchar (out, *string);
    ++pc;
e0000166:	0985                	addi	s3,s3,1
  for ( ; *string ; ++string) {
e0000168:	412987b3          	sub	a5,s3,s2
e000016c:	97d2                	add	a5,a5,s4
e000016e:	0007c503          	lbu	a0,0(a5)
e0000172:	f96d                	bnez	a0,e0000164 <qprints.constprop.0+0x6a>
e0000174:	8922                	mv	s2,s0
  uart_sendchar(s);
e0000176:	0ff4f493          	zext.b	s1,s1
  }
  for ( ; width > 0; --width) {
e000017a:	01204f63          	bgtz	s2,e0000198 <qprints.constprop.0+0x9e>
    qprintchar (out, padchar);
    ++pc;
  }

  return pc;
e000017e:	00045363          	bgez	s0,e0000184 <qprints.constprop.0+0x8a>
e0000182:	4401                	li	s0,0
}
e0000184:	01340533          	add	a0,s0,s3
e0000188:	40f2                	lw	ra,28(sp)
e000018a:	4462                	lw	s0,24(sp)
e000018c:	44d2                	lw	s1,20(sp)
e000018e:	4942                	lw	s2,16(sp)
e0000190:	49b2                	lw	s3,12(sp)
e0000192:	4a22                	lw	s4,8(sp)
e0000194:	6105                	addi	sp,sp,32
e0000196:	8082                	ret
  uart_sendchar(s);
e0000198:	8526                	mv	a0,s1
e000019a:	3f81                	jal	e00000ea <uart_sendchar>
  for ( ; width > 0; --width) {
e000019c:	197d                	addi	s2,s2,-1
e000019e:	bff1                	j	e000017a <qprints.constprop.0+0x80>

e00001a0 <qprinti.constprop.0>:

static int qprinti(char **out, int i, int b, int sg, int width, int pad, char letbase)
e00001a0:	7139                	addi	sp,sp,-64
e00001a2:	da26                	sw	s1,52(sp)
e00001a4:	de06                	sw	ra,60(sp)
e00001a6:	dc22                	sw	s0,56(sp)
e00001a8:	88ae                	mv	a7,a1
e00001aa:	84b2                	mv	s1,a2
e00001ac:	85b6                	mv	a1,a3
e00001ae:	863a                	mv	a2,a4
  char print_buf[PRINT_BUF_LEN];
  register char *s;
  register int neg = 0, pc = 0;
  unsigned int t,u = i;

  if (i == 0)
e00001b0:	ed01                	bnez	a0,e00001c8 <qprinti.constprop.0+0x28>
  {
    print_buf[0] = '0';
e00001b2:	03000793          	li	a5,48
    print_buf[1] = '\0';
    return qprints (out, print_buf, width, pad);
e00001b6:	0808                	addi	a0,sp,16
    print_buf[0] = '0';
e00001b8:	00f11823          	sh	a5,16(sp)
    return qprints (out, print_buf, width, pad);
e00001bc:	3f3d                	jal	e00000fa <qprints.constprop.0>
    {
      *--s = '-';
    }
  }
  return pc + qprints (out, s, width, pad);
}
e00001be:	50f2                	lw	ra,60(sp)
e00001c0:	5462                	lw	s0,56(sp)
e00001c2:	54d2                	lw	s1,52(sp)
e00001c4:	6121                	addi	sp,sp,64
e00001c6:	8082                	ret
e00001c8:	882a                	mv	a6,a0
  if (sg && b == 10 && i < 0)
e00001ca:	c881                	beqz	s1,e00001da <qprinti.constprop.0+0x3a>
e00001cc:	4729                	li	a4,10
e00001ce:	06e89f63          	bne	a7,a4,e000024c <qprinti.constprop.0+0xac>
e00001d2:	06055d63          	bgez	a0,e000024c <qprinti.constprop.0+0xac>
    u = -i;
e00001d6:	40a00833          	neg	a6,a0
  *s = '\0';
e00001da:	020107a3          	sb	zero,47(sp)
  if(b == 16) {
e00001de:	4741                	li	a4,16
e00001e0:	02f10413          	addi	s0,sp,47
e00001e4:	06e88663          	beq	a7,a4,e0000250 <qprinti.constprop.0+0xb0>
  n = (0x19999999 * n + (n >> 1) + (n >> 3)) >> 28;
e00001e8:	1999a737          	lui	a4,0x1999a
  return remu10_table[n];
e00001ec:	00005897          	auipc	a7,0x5
e00001f0:	03c88893          	addi	a7,a7,60 # e0005228 <remu10_table>
  n = (0x19999999 * n + (n >> 1) + (n >> 3)) >> 28;
e00001f4:	99970713          	addi	a4,a4,-1639 # 19999999 <tohost+0x19979991>
  r = n - q * 10;
e00001f8:	4529                	li	a0,10
  n = (0x19999999 * n + (n >> 1) + (n >> 3)) >> 28;
e00001fa:	02e807b3          	mul	a5,a6,a4
e00001fe:	00185693          	srli	a3,a6,0x1
e0000202:	00385313          	srli	t1,a6,0x3
      *--s = remu10(u) + '0';
e0000206:	147d                	addi	s0,s0,-1
  n = (0x19999999 * n + (n >> 1) + (n >> 3)) >> 28;
e0000208:	97b6                	add	a5,a5,a3
e000020a:	979a                	add	a5,a5,t1
e000020c:	83f1                	srli	a5,a5,0x1c
  return remu10_table[n];
e000020e:	97c6                	add	a5,a5,a7
      *--s = remu10(u) + '0';
e0000210:	0007c783          	lbu	a5,0(a5)
e0000214:	03078793          	addi	a5,a5,48
e0000218:	00f40023          	sb	a5,0(s0)
  q = (n >> 1) + (n >> 2);
e000021c:	00285793          	srli	a5,a6,0x2
e0000220:	97b6                	add	a5,a5,a3
  q = q + (q >> 4);
e0000222:	0047d693          	srli	a3,a5,0x4
e0000226:	97b6                	add	a5,a5,a3
  q = q + (q >> 8);
e0000228:	0087d693          	srli	a3,a5,0x8
e000022c:	97b6                	add	a5,a5,a3
  q = q + (q >> 16);
e000022e:	0107d693          	srli	a3,a5,0x10
e0000232:	97b6                	add	a5,a5,a3
  q = q >> 3;
e0000234:	838d                	srli	a5,a5,0x3
  r = n - q * 10;
e0000236:	02a786b3          	mul	a3,a5,a0
  return q + ((r + 6) >> 4);
e000023a:	0819                	addi	a6,a6,6
e000023c:	40d80833          	sub	a6,a6,a3
e0000240:	00485813          	srli	a6,a6,0x4
e0000244:	983e                	add	a6,a6,a5
    while (u) {
e0000246:	fa081ae3          	bnez	a6,e00001fa <qprinti.constprop.0+0x5a>
e000024a:	a025                	j	e0000272 <qprinti.constprop.0+0xd2>
  register int neg = 0, pc = 0;
e000024c:	4481                	li	s1,0
e000024e:	b771                	j	e00001da <qprinti.constprop.0+0x3a>
      if (t >= 10)
e0000250:	4725                	li	a4,9
        t += letbase - '0' - 10;
e0000252:	fc678793          	addi	a5,a5,-58
      int t = u & 0xF;
e0000256:	00f87513          	andi	a0,a6,15
      if (t >= 10)
e000025a:	00a75363          	bge	a4,a0,e0000260 <qprinti.constprop.0+0xc0>
        t += letbase - '0' - 10;
e000025e:	953e                	add	a0,a0,a5
      *--s = t + '0';
e0000260:	147d                	addi	s0,s0,-1
e0000262:	03050513          	addi	a0,a0,48
e0000266:	00a40023          	sb	a0,0(s0)
      u >>= 4;
e000026a:	00485813          	srli	a6,a6,0x4
    while (u) {
e000026e:	fe0814e3          	bnez	a6,e0000256 <qprinti.constprop.0+0xb6>
  if (neg) {
e0000272:	cc89                	beqz	s1,e000028c <qprinti.constprop.0+0xec>
    if( width && (pad & PAD_ZERO) )
e0000274:	c185                	beqz	a1,e0000294 <qprinti.constprop.0+0xf4>
e0000276:	00267793          	andi	a5,a2,2
e000027a:	cf89                	beqz	a5,e0000294 <qprinti.constprop.0+0xf4>
  uart_sendchar(s);
e000027c:	02d00513          	li	a0,45
e0000280:	c632                	sw	a2,12(sp)
e0000282:	c42e                	sw	a1,8(sp)
e0000284:	359d                	jal	e00000ea <uart_sendchar>
      --width;
e0000286:	45a2                	lw	a1,8(sp)
e0000288:	4632                	lw	a2,12(sp)
e000028a:	15fd                	addi	a1,a1,-1
  return pc + qprints (out, s, width, pad);
e000028c:	8522                	mv	a0,s0
e000028e:	35b5                	jal	e00000fa <qprints.constprop.0>
e0000290:	9526                	add	a0,a0,s1
e0000292:	b735                	j	e00001be <qprinti.constprop.0+0x1e>
      *--s = '-';
e0000294:	02d00793          	li	a5,45
e0000298:	fef40fa3          	sb	a5,-1(s0)
  register int neg = 0, pc = 0;
e000029c:	4481                	li	s1,0
      *--s = '-';
e000029e:	147d                	addi	s0,s0,-1
e00002a0:	b7f5                	j	e000028c <qprinti.constprop.0+0xec>

e00002a2 <uart_wait_tx_done>:
  while( (*(volatile unsigned int*)(UART_REG_LSR) & 0x40) == 0);
e00002a2:	40000737          	lui	a4,0x40000
e00002a6:	4b5c                	lw	a5,20(a4)
e00002a8:	0407f793          	andi	a5,a5,64
e00002ac:	dfed                	beqz	a5,e00002a6 <uart_wait_tx_done+0x4>
}
e00002ae:	8082                	ret

e00002b0 <putchar>:
{
e00002b0:	1141                	addi	sp,sp,-16
e00002b2:	c422                	sw	s0,8(sp)
e00002b4:	842a                	mv	s0,a0
  uart_sendchar(s);
e00002b6:	0ff57513          	zext.b	a0,a0
{
e00002ba:	c606                	sw	ra,12(sp)
  uart_sendchar(s);
e00002bc:	353d                	jal	e00000ea <uart_sendchar>
}
e00002be:	40b2                	lw	ra,12(sp)
e00002c0:	8522                	mv	a0,s0
e00002c2:	4422                	lw	s0,8(sp)
e00002c4:	0141                	addi	sp,sp,16
e00002c6:	8082                	ret

e00002c8 <printf>:

  return pc;
}

int printf(const char *format, ...)
{
e00002c8:	711d                	addi	sp,sp,-96
e00002ca:	dc22                	sw	s0,56(sp)
  int pc;
  va_list va;

  va_start(va, format);
e00002cc:	00c0                	addi	s0,sp,68
{
e00002ce:	da26                	sw	s1,52(sp)
e00002d0:	d84a                	sw	s2,48(sp)
e00002d2:	d64e                	sw	s3,44(sp)
e00002d4:	d452                	sw	s4,40(sp)
e00002d6:	d256                	sw	s5,36(sp)
e00002d8:	d05a                	sw	s6,32(sp)
e00002da:	ce5e                	sw	s7,28(sp)
e00002dc:	de06                	sw	ra,60(sp)
e00002de:	cc62                	sw	s8,24(sp)
e00002e0:	8b2a                	mv	s6,a0
e00002e2:	c2ae                	sw	a1,68(sp)
e00002e4:	c4b2                	sw	a2,72(sp)
e00002e6:	c6b6                	sw	a3,76(sp)
e00002e8:	c8ba                	sw	a4,80(sp)
e00002ea:	cabe                	sw	a5,84(sp)
e00002ec:	ccc2                	sw	a6,88(sp)
e00002ee:	cec6                	sw	a7,92(sp)
  va_start(va, format);
e00002f0:	c622                	sw	s0,12(sp)
  register int pc = 0;
e00002f2:	4b81                	li	s7,0
    if (*format == '%')
e00002f4:	02500493          	li	s1,37
      if (*format == '-')
e00002f8:	02d00913          	li	s2,45
      while (*format == '0')
e00002fc:	03000993          	li	s3,48
        width *= 10;
e0000300:	4a29                	li	s4,10
        pc += qprints (out, s?s:"(null)", width, pad);
e0000302:	00005a97          	auipc	s5,0x5
e0000306:	f0ea8a93          	addi	s5,s5,-242 # e0005210 <FLASH_ALSAQR_BOOT_SIGNED+0x4cc8>
  for (; *format != 0; ++format)
e000030a:	000b4783          	lbu	a5,0(s6)
e000030e:	ef91                	bnez	a5,e000032a <printf+0x62>

  va_end(va);

  return pc;

}
e0000310:	50f2                	lw	ra,60(sp)
e0000312:	5462                	lw	s0,56(sp)
e0000314:	54d2                	lw	s1,52(sp)
e0000316:	5942                	lw	s2,48(sp)
e0000318:	59b2                	lw	s3,44(sp)
e000031a:	5a22                	lw	s4,40(sp)
e000031c:	5a92                	lw	s5,36(sp)
e000031e:	5b02                	lw	s6,32(sp)
e0000320:	4c62                	lw	s8,24(sp)
e0000322:	855e                	mv	a0,s7
e0000324:	4bf2                	lw	s7,28(sp)
e0000326:	6125                	addi	sp,sp,96
e0000328:	8082                	ret
    if (*format == '%')
e000032a:	0e979663          	bne	a5,s1,e0000416 <printf+0x14e>
      if (*format == '\0') break;
e000032e:	001b4683          	lbu	a3,1(s6)
e0000332:	def9                	beqz	a3,e0000310 <printf+0x48>
      ++format;
e0000334:	001b0793          	addi	a5,s6,1
      if (*format == '%') goto out;
e0000338:	0c968e63          	beq	a3,s1,e0000414 <printf+0x14c>
      width = pad = 0;
e000033c:	4701                	li	a4,0
      if (*format == '-')
e000033e:	01269563          	bne	a3,s2,e0000348 <printf+0x80>
        ++format;
e0000342:	002b0793          	addi	a5,s6,2
        pad = PAD_RIGHT;
e0000346:	4705                	li	a4,1
e0000348:	8b3e                	mv	s6,a5
      while (*format == '0')
e000034a:	000b4783          	lbu	a5,0(s6)
        ++format;
e000034e:	001b0693          	addi	a3,s6,1
      while (*format == '0')
e0000352:	03378b63          	beq	a5,s3,e0000388 <printf+0xc0>
      width = pad = 0;
e0000356:	4681                	li	a3,0
      for ( ; *format >= '0' && *format <= '9'; ++format) {
e0000358:	45a5                	li	a1,9
e000035a:	000b4783          	lbu	a5,0(s6)
e000035e:	001b0813          	addi	a6,s6,1
e0000362:	fd078613          	addi	a2,a5,-48
e0000366:	0ff67513          	zext.b	a0,a2
e000036a:	02a5f363          	bgeu	a1,a0,e0000390 <printf+0xc8>
      if( *format == 's' ) {
e000036e:	07300613          	li	a2,115
e0000372:	02c79463          	bne	a5,a2,e000039a <printf+0xd2>
        register char *s = va_arg(va, char*);
e0000376:	4008                	lw	a0,0(s0)
e0000378:	00440c13          	addi	s8,s0,4
        pc += qprints (out, s?s:"(null)", width, pad);
e000037c:	e111                	bnez	a0,e0000380 <printf+0xb8>
e000037e:	8556                	mv	a0,s5
e0000380:	863a                	mv	a2,a4
e0000382:	85b6                	mv	a1,a3
        pc += qprints (out, scr, width, pad);
e0000384:	3b9d                	jal	e00000fa <qprints.constprop.0>
e0000386:	a035                	j	e00003b2 <printf+0xea>
        pad |= PAD_ZERO;
e0000388:	00276713          	ori	a4,a4,2
        ++format;
e000038c:	8b36                	mv	s6,a3
e000038e:	bf75                	j	e000034a <printf+0x82>
        width *= 10;
e0000390:	034686b3          	mul	a3,a3,s4
      for ( ; *format >= '0' && *format <= '9'; ++format) {
e0000394:	8b42                	mv	s6,a6
        width += *format - '0';
e0000396:	96b2                	add	a3,a3,a2
      for ( ; *format >= '0' && *format <= '9'; ++format) {
e0000398:	b7c9                	j	e000035a <printf+0x92>
      if( *format == 'd' ) {
e000039a:	06400613          	li	a2,100
e000039e:	00c79e63          	bne	a5,a2,e00003ba <printf+0xf2>
        pc += qprinti (out, va_arg(va, int), 10, 1, width, pad, 'a');
e00003a2:	00440c13          	addi	s8,s0,4
e00003a6:	06100793          	li	a5,97
e00003aa:	4605                	li	a2,1
e00003ac:	45a9                	li	a1,10
e00003ae:	4008                	lw	a0,0(s0)
e00003b0:	3bc5                	jal	e00001a0 <qprinti.constprop.0>
e00003b2:	9baa                	add	s7,s7,a0
e00003b4:	8462                	mv	s0,s8
  for (; *format != 0; ++format)
e00003b6:	0b05                	addi	s6,s6,1
e00003b8:	bf89                	j	e000030a <printf+0x42>
      if( *format == 'u' ) {
e00003ba:	07500613          	li	a2,117
e00003be:	00c79863          	bne	a5,a2,e00003ce <printf+0x106>
        pc += qprinti (out, va_arg(va, unsigned int), 10, 0, width, pad, 'a');
e00003c2:	00440c13          	addi	s8,s0,4
e00003c6:	06100793          	li	a5,97
e00003ca:	4601                	li	a2,0
e00003cc:	b7c5                	j	e00003ac <printf+0xe4>
      if( *format == 'x' ) {
e00003ce:	07800613          	li	a2,120
e00003d2:	00c79963          	bne	a5,a2,e00003e4 <printf+0x11c>
        pc += qprinti (out, va_arg(va, uint32_t), 16, 0, width, pad, 'a');
e00003d6:	00440c13          	addi	s8,s0,4
e00003da:	06100793          	li	a5,97
        pc += qprinti (out, va_arg(va, uint32_t), 16, 0, width, pad, 'A');
e00003de:	4601                	li	a2,0
e00003e0:	45c1                	li	a1,16
e00003e2:	b7f1                	j	e00003ae <printf+0xe6>
      if( *format == 'X' ) {
e00003e4:	05800613          	li	a2,88
e00003e8:	00c79763          	bne	a5,a2,e00003f6 <printf+0x12e>
        pc += qprinti (out, va_arg(va, uint32_t), 16, 0, width, pad, 'A');
e00003ec:	00440c13          	addi	s8,s0,4
e00003f0:	04100793          	li	a5,65
e00003f4:	b7ed                	j	e00003de <printf+0x116>
      if( *format == 'c' ) {
e00003f6:	06300613          	li	a2,99
e00003fa:	fac79ee3          	bne	a5,a2,e00003b6 <printf+0xee>
        scr[0] = va_arg(va, int);
e00003fe:	401c                	lw	a5,0(s0)
e0000400:	00440c13          	addi	s8,s0,4
        scr[1] = '\0';
e0000404:	000104a3          	sb	zero,9(sp)
        scr[0] = va_arg(va, int);
e0000408:	00f10423          	sb	a5,8(sp)
        pc += qprints (out, scr, width, pad);
e000040c:	863a                	mv	a2,a4
e000040e:	85b6                	mv	a1,a3
e0000410:	0028                	addi	a0,sp,8
e0000412:	bf8d                	j	e0000384 <printf+0xbc>
      ++format;
e0000414:	8b3e                	mv	s6,a5
  uart_sendchar(s);
e0000416:	000b4503          	lbu	a0,0(s6)
      ++pc;
e000041a:	0b85                	addi	s7,s7,1
  uart_sendchar(s);
e000041c:	31f9                	jal	e00000ea <uart_sendchar>
      ++pc;
e000041e:	bf61                	j	e00003b6 <printf+0xee>

e0000420 <simple_exc_handler>:
  printf("EXCEPTION!!!\r\n");
e0000420:	00005517          	auipc	a0,0x5
e0000424:	df850513          	addi	a0,a0,-520 # e0005218 <FLASH_ALSAQR_BOOT_SIGNED+0x4cd0>
e0000428:	b545                	j	e00002c8 <printf>

e000042a <puts>:

int puts(const char *s)
{
e000042a:	1141                	addi	sp,sp,-16
e000042c:	c422                	sw	s0,8(sp)
e000042e:	c226                	sw	s1,4(sp)
e0000430:	c606                	sw	ra,12(sp)
e0000432:	84aa                	mv	s1,a0
  int i=0;
e0000434:	4401                	li	s0,0

  while(s[i] != '\0')
e0000436:	008487b3          	add	a5,s1,s0
e000043a:	0007c503          	lbu	a0,0(a5)
e000043e:	e909                	bnez	a0,e0000450 <puts+0x26>
  uart_sendchar(s);
e0000440:	4529                	li	a0,10
e0000442:	3165                	jal	e00000ea <uart_sendchar>
    putchar(s[i++]);

  putchar('\n');

  return i;
}
e0000444:	40b2                	lw	ra,12(sp)
e0000446:	8522                	mv	a0,s0
e0000448:	4422                	lw	s0,8(sp)
e000044a:	4492                	lw	s1,4(sp)
e000044c:	0141                	addi	sp,sp,16
e000044e:	8082                	ret
    putchar(s[i++]);
e0000450:	0405                	addi	s0,s0,1
  uart_sendchar(s);
e0000452:	3961                	jal	e00000ea <uart_sendchar>
  return s;
e0000454:	b7cd                	j	e0000436 <puts+0xc>

e0000456 <external_irq_handler>:

void __attribute__((weak)) external_irq_handler(void)  {
}
e0000456:	30200073          	mret

e000045a <default_exc_handler>:
  jal x0, sleep_loop //exc handler
e000045a:	0900006f          	j	e00004ea <sleep_loop>

e000045e <reset_handler>:
  mv  x1, x0
e000045e:	00000093          	li	ra,0
  mv  x2, x1
e0000462:	8106                	mv	sp,ra
  mv  x3, x1
e0000464:	8186                	mv	gp,ra
  mv  x4, x1
e0000466:	8206                	mv	tp,ra
  mv  x5, x1
e0000468:	8286                	mv	t0,ra
  mv  x6, x1
e000046a:	8306                	mv	t1,ra
  mv  x7, x1
e000046c:	8386                	mv	t2,ra
  mv  x8, x1
e000046e:	8406                	mv	s0,ra
  mv  x9, x1
e0000470:	8486                	mv	s1,ra
  mv x10, x1
e0000472:	8506                	mv	a0,ra
  mv x11, x1
e0000474:	8586                	mv	a1,ra
  mv x12, x1
e0000476:	8606                	mv	a2,ra
  mv x13, x1
e0000478:	8686                	mv	a3,ra
  mv x14, x1
e000047a:	8706                	mv	a4,ra
  mv x15, x1
e000047c:	8786                	mv	a5,ra
  mv x16, x1
e000047e:	8806                	mv	a6,ra
  mv x17, x1
e0000480:	8886                	mv	a7,ra
  mv x18, x1
e0000482:	8906                	mv	s2,ra
  mv x19, x1
e0000484:	8986                	mv	s3,ra
  mv x20, x1
e0000486:	8a06                	mv	s4,ra
  mv x21, x1
e0000488:	8a86                	mv	s5,ra
  mv x22, x1
e000048a:	8b06                	mv	s6,ra
  mv x23, x1
e000048c:	8b86                	mv	s7,ra
  mv x24, x1
e000048e:	8c06                	mv	s8,ra
  mv x25, x1
e0000490:	8c86                	mv	s9,ra
  mv x26, x1
e0000492:	8d06                	mv	s10,ra
  mv x27, x1
e0000494:	8d86                	mv	s11,ra
  mv x28, x1
e0000496:	8e06                	mv	t3,ra
  mv x29, x1
e0000498:	8e86                	mv	t4,ra
  mv x30, x1
e000049a:	8f06                	mv	t5,ra
  mv x31, x1
e000049c:	8f86                	mv	t6,ra
  la   x2, _stack_start
e000049e:	00010117          	auipc	sp,0x10
e00004a2:	b6210113          	addi	sp,sp,-1182 # e0010000 <_stack_start>

e00004a6 <_start>:
  la x26, _bss_start
e00004a6:	00005d17          	auipc	s10,0x5
e00004aa:	d92d0d13          	addi	s10,s10,-622 # e0005238 <_bss_end>
  la x27, _bss_end
e00004ae:	00005d97          	auipc	s11,0x5
e00004b2:	d8ad8d93          	addi	s11,s11,-630 # e0005238 <_bss_end>
  bge x26, x27, zero_loop_end
e00004b6:	01bd5763          	bge	s10,s11,e00004c4 <main_entry>

e00004ba <zero_loop>:
  sw x0, 0(x26)
e00004ba:	000d2023          	sw	zero,0(s10)
  addi x26, x26, 4
e00004be:	0d11                	addi	s10,s10,4
  ble x26, x27, zero_loop
e00004c0:	ffaddde3          	bge	s11,s10,e00004ba <zero_loop>

e00004c4 <main_entry>:
  addi x10, x0, 0
e00004c4:	4501                	li	a0,0
  addi x11, x0, 0
e00004c6:	4581                	li	a1,0
  jal x1, main
e00004c8:	028000ef          	jal	ra,e00004f0 <main>
  beq x10, x0, success
e00004cc:	c909                	beqz	a0,e00004de <success>
  li a0, 0xc11c0018
e00004ce:	c11c0537          	lui	a0,0xc11c0
e00004d2:	0561                	addi	a0,a0,24 # c11c0018 <fromhost+0xe11b0008>
  li t0, 0xFFFFFFFF
e00004d4:	fff00293          	li	t0,-1
  sw t0, 0(a0)
e00004d8:	00552023          	sw	t0,0(a0)
  j sleep_loop
e00004dc:	a039                	j	e00004ea <sleep_loop>

e00004de <success>:
  li a0, 0xc11c0018
e00004de:	c11c0537          	lui	a0,0xc11c0
e00004e2:	0561                	addi	a0,a0,24 # c11c0018 <fromhost+0xe11b0008>
  li t0, 0x1
e00004e4:	4285                	li	t0,1
  sw t0, 0(a0)
e00004e6:	00552023          	sw	t0,0(a0)

e00004ea <sleep_loop>:
  wfi
e00004ea:	10500073          	wfi
  j sleep_loop
e00004ee:	bff5                	j	e00004ea <sleep_loop>

e00004f0 <main>:
  address    = (int *) 0xff00000C;
  start      = (int *) 0xff000010;
  debug_mode = (int *) 0xff00001C;
  sw_bootmode = (int *) 0xff000018;
  
  *debug_mode = 0x00000001;
e00004f0:	ff0007b7          	lui	a5,0xff000
e00004f4:	4705                	li	a4,1
  
  for(int i = 0; i < buffer_size; i += 3) {
e00004f6:	6605                	lui	a2,0x1
  *debug_mode = 0x00000001;
e00004f8:	cfd8                	sw	a4,28(a5)
  for(int i = 0; i < buffer_size; i += 3) {
e00004fa:	4681                	li	a3,0
e00004fc:	00000717          	auipc	a4,0x0
e0000500:	04c70713          	addi	a4,a4,76 # e0000548 <FLASH_ALSAQR_BOOT_SIGNED>
     if(i + 2 < buffer_size) {
        *payload_1 = FLASH_ALSAQR_BOOT_SIGNED[i];
        *payload_2 = FLASH_ALSAQR_BOOT_SIGNED[i+1];
        *payload_3 = FLASH_ALSAQR_BOOT_SIGNED[i+2];
        *address = i/3;
e0000504:	488d                	li	a7,3
        *start = 0x1;
e0000506:	01078593          	addi	a1,a5,16 # ff000010 <fromhost+0x1eff0000>
e000050a:	4505                	li	a0,1
  for(int i = 0; i < buffer_size; i += 3) {
e000050c:	33260613          	addi	a2,a2,818 # 1332 <_min_stack-0xcce>
        *payload_1 = FLASH_ALSAQR_BOOT_SIGNED[i];
e0000510:	00072803          	lw	a6,0(a4)
e0000514:	0107a023          	sw	a6,0(a5)
        *payload_2 = FLASH_ALSAQR_BOOT_SIGNED[i+1];
e0000518:	00472803          	lw	a6,4(a4)
e000051c:	0107a223          	sw	a6,4(a5)
        *payload_3 = FLASH_ALSAQR_BOOT_SIGNED[i+2];
e0000520:	00872803          	lw	a6,8(a4)
  for(int i = 0; i < buffer_size; i += 3) {
e0000524:	0731                	addi	a4,a4,12
        *payload_3 = FLASH_ALSAQR_BOOT_SIGNED[i+2];
e0000526:	0107a423          	sw	a6,8(a5)
        *address = i/3;
e000052a:	0316c833          	div	a6,a3,a7
  for(int i = 0; i < buffer_size; i += 3) {
e000052e:	068d                	addi	a3,a3,3
        *address = i/3;
e0000530:	0107a623          	sw	a6,12(a5)
        *start = 0x1;
e0000534:	c188                	sw	a0,0(a1)
  for(int i = 0; i < buffer_size; i += 3) {
e0000536:	fcc69de3          	bne	a3,a2,e0000510 <main+0x20>
     }
  }

  *debug_mode = 0x0;
e000053a:	0007ae23          	sw	zero,28(a5)
  *sw_bootmode = 0x1;
e000053e:	4705                	li	a4,1
e0000540:	cf98                	sw	a4,24(a5)
  
  return 0;
  
}
e0000542:	4501                	li	a0,0
e0000544:	8082                	ret

Disassembly of section .rodata:

e0000548 <FLASH_ALSAQR_BOOT_SIGNED>:
#define FLASH_ALSAQR_BOOT_SIGNED_H_

#include <stdint.h>

static const uint32_t buffer_size = 4914;
static const uint32_t FLASH_ALSAQR_BOOT_SIGNED[4914] = {
e0000548:	83b0                	.2byte	0x83b0
e000054a:	6005                	c.lui	zero,0x1
e000054c:	5fc9                	li	t6,-14
e000054e:	cef5                	beqz	a3,e000064a <FLASH_ALSAQR_BOOT_SIGNED+0x102>
e0000550:	0000                	unimp
e0000552:	4060                	lw	s0,68(s0)
e0000554:	c7ed                	beqz	a5,e000063e <FLASH_ALSAQR_BOOT_SIGNED+0xf6>
e0000556:	db2a                	sw	a0,180(sp)
e0000558:	3273736b          	.4byte	0x3273736b
e000055c:	0000                	unimp
e000055e:	2fd0                	.2byte	0x2fd0
e0000560:	5026                	.2byte	0x5026
e0000562:	ae4c                	.2byte	0xae4c
e0000564:	d611                	beqz	a2,e0000470 <reset_handler+0x12>
e0000566:	95da                	add	a1,a1,s6
e0000568:	0000                	unimp
e000056a:	6940                	.2byte	0x6940
e000056c:	f18e                	.2byte	0xf18e
e000056e:	3754                	.2byte	0x3754
e0000570:	5eb3885b          	.4byte	0x5eb3885b
e0000574:	0000                	unimp
e0000576:	0240                	addi	s0,sp,260
e0000578:	2025                	jal	e00005a0 <FLASH_ALSAQR_BOOT_SIGNED+0x58>
e000057a:	9e49                	.2byte	0x9e49
e000057c:	82fd                	srli	a3,a3,0x1f
e000057e:	00009113          	slli	sp,ra,0x0
e0000582:	e090                	.2byte	0xe090
e0000584:	2a90df73          	csrrwi	t5,0x2a9,1
e0000588:	1af8                	addi	a4,sp,380
e000058a:	000066c7          	.4byte	0x66c7
e000058e:	5480                	lw	s0,40(s1)
e0000590:	a6d5                	j	e0000974 <FLASH_ALSAQR_BOOT_SIGNED+0x42c>
e0000592:	24de                	.2byte	0x24de
e0000594:	1188                	addi	a0,sp,224
e0000596:	8c08                	.2byte	0x8c08
e0000598:	0000                	unimp
e000059a:	3ad0                	.2byte	0x3ad0
e000059c:	9ace                	add	s5,s5,s3
e000059e:	66ed                	lui	a3,0x1b
e00005a0:	2694                	.2byte	0x2694
e00005a2:	5aea                	lw	s5,184(sp)
e00005a4:	0000                	unimp
e00005a6:	91d0                	.2byte	0x91d0
e00005a8:	3efc                	.2byte	0x3efc
e00005aa:	da6246eb          	.4byte	0xda6246eb
e00005ae:	e484                	.2byte	0xe484
e00005b0:	0000                	unimp
e00005b2:	f720                	.2byte	0xf720
e00005b4:	5872                	lw	a6,60(sp)
e00005b6:	b8a1                	j	dffffe0e <tohost+0xdffdfe06>
e00005b8:	b462e937          	lui	s2,0xb462e
e00005bc:	0000                	unimp
e00005be:	97c0                	.2byte	0x97c0
e00005c0:	dc70                	sw	a2,124(s0)
e00005c2:	ae48                	.2byte	0xae48
e00005c4:	a8713ea3          	.4byte	0xa8713ea3
e00005c8:	0000                	unimp
e00005ca:	d960                	sw	s0,116(a0)
e00005cc:	3dc575d3          	.4byte	0x3dc575d3
e00005d0:	bba2                	.2byte	0xbba2
e00005d2:	2c46                	.2byte	0x2c46
e00005d4:	0000                	unimp
e00005d6:	15b0                	addi	a2,sp,744
e00005d8:	ee9f d382 8689      	.byte	0x9f, 0xee, 0x82, 0xd3, 0x89, 0x86
e00005de:	00002383          	lw	t2,0(zero) # 0 <_min_stack-0x2000>
e00005e2:	7960                	.2byte	0x7960
e00005e4:	50b2                	lw	ra,44(sp)
e00005e6:	b568                	.2byte	0xb568
e00005e8:	3995                	jal	e000025c <qprinti.constprop.0+0xbc>
e00005ea:	de06                	sw	ra,60(sp)
e00005ec:	0000                	unimp
e00005ee:	7800                	.2byte	0x7800
e00005f0:	5ec6                	lw	t4,112(sp)
e00005f2:	d750                	sw	a2,44(a4)
e00005f4:	ab8a                	.2byte	0xab8a
e00005f6:	0000d9cf          	.4byte	0xd9cf
e00005fa:	1890                	addi	a2,sp,112
e00005fc:	b3e4                	.2byte	0xb3e4
e00005fe:	a57c1ff3          	csrrw	t6,0xa57,s8
e0000602:	6fe1                	lui	t6,0x18
e0000604:	0000                	unimp
e0000606:	6580                	.2byte	0x6580
e0000608:	11f0                	addi	a2,sp,236
e000060a:	8236                	mv	tp,a3
e000060c:	fb49                	bnez	a4,e000059e <FLASH_ALSAQR_BOOT_SIGNED+0x56>
e000060e:	0000769b          	.4byte	0x769b
e0000612:	4020                	lw	s0,64(s0)
e0000614:	2d9f 0568 714a      	.byte	0x9f, 0x2d, 0x68, 0x05, 0x4a, 0x71
e000061a:	d546                	sw	a7,168(sp)
e000061c:	0000                	unimp
e000061e:	a770                	.2byte	0xa770
e0000620:	815c                	.2byte	0x815c
e0000622:	6dca                	.2byte	0x6dca
e0000624:	3cff0553          	.4byte	0x3cff0553
e0000628:	0000                	unimp
e000062a:	2e20                	.2byte	0x2e20
e000062c:	9adf 4ffc 3c04      	.byte	0xdf, 0x9a, 0xfc, 0x4f, 0x04, 0x3c
e0000632:	c90c                	sw	a1,16(a0)
e0000634:	0000                	unimp
e0000636:	92f0                	.2byte	0x92f0
e0000638:	549f de42 50af      	.byte	0x9f, 0x54, 0x42, 0xde, 0xaf, 0x50
e000063e:	9002                	ebreak
e0000640:	0000                	unimp
e0000642:	f720                	.2byte	0xf720
e0000644:	b5d2                	.2byte	0xb5d2
e0000646:	8c72                	mv	s8,t3
e0000648:	e8b1                	bnez	s1,e000069c <FLASH_ALSAQR_BOOT_SIGNED+0x154>
e000064a:	d725                	beqz	a4,e00005b2 <FLASH_ALSAQR_BOOT_SIGNED+0x6a>
e000064c:	0000                	unimp
e000064e:	a340                	.2byte	0xa340
e0000650:	94de7823          	.4byte	0x94de7823
e0000654:	8e30                	.2byte	0x8e30
e0000656:	aad2                	.2byte	0xaad2
e0000658:	0000                	unimp
e000065a:	8da0                	.2byte	0x8da0
e000065c:	481e                	lw	a6,196(sp)
e000065e:	e0bbb757          	.4byte	0xe0bbb757
e0000662:	11fc                	addi	a5,sp,236
e0000664:	0000                	unimp
e0000666:	ecd0                	.2byte	0xecd0
e0000668:	c822                	sw	s0,16(sp)
e000066a:	991d                	andi	a0,a0,-25
e000066c:	1bd4                	addi	a3,sp,500
e000066e:	0000039b          	.4byte	0x39b
e0000672:	5140                	lw	s0,36(a0)
e0000674:	10fd                	addi	ra,ra,-1
e0000676:	ee49                	bnez	a2,e0000710 <FLASH_ALSAQR_BOOT_SIGNED+0x1c8>
e0000678:	962d                	srai	a2,a2,0x2b
e000067a:	00003ff3          	csrrc	t6,ustatus,zero
e000067e:	0760                	addi	s0,sp,908
e0000680:	9746                	add	a4,a4,a7
e0000682:	fda9cb2b          	.4byte	0xfda9cb2b
e0000686:	00003187          	.4byte	0x3187
e000068a:	fe30                	.2byte	0xfe30
e000068c:	37e8                	.2byte	0x37e8
e000068e:	2231                	jal	e000079a <FLASH_ALSAQR_BOOT_SIGNED+0x252>
e0000690:	e1e8                	.2byte	0xe1e8
e0000692:	6f10                	.2byte	0x6f10
e0000694:	0000                	unimp
e0000696:	1090                	addi	a2,sp,96
e0000698:	075b8a53          	.4byte	0x75b8a53
e000069c:	65fe                	.2byte	0x65fe
e000069e:	c8d4                	sw	a3,20(s1)
e00006a0:	0000                	unimp
e00006a2:	40a0                	lw	s0,64(s1)
e00006a4:	0d62                	slli	s10,s10,0x18
e00006a6:	2c1c94db          	.4byte	0x2c1c94db
e00006aa:	b84d                	j	dfffff5c <tohost+0xdffdff54>
e00006ac:	0000                	unimp
e00006ae:	ea60                	.2byte	0xea60
e00006b0:	5cb6                	lw	s9,108(sp)
e00006b2:	e6e2                	.2byte	0xe6e2
e00006b4:	09a0                	addi	s0,sp,216
e00006b6:	0000401b          	.4byte	0x401b
e00006ba:	f570                	.2byte	0xf570
e00006bc:	82fd                	srli	a3,a3,0x1f
e00006be:	bff33b23          	.4byte	0xbff33b23
e00006c2:	54a4                	lw	s1,104(s1)
e00006c4:	0000                	unimp
e00006c6:	0a00                	addi	s0,sp,272
e00006c8:	c730                	sw	a2,72(a4)
e00006ca:	6a94                	.2byte	0x6a94
e00006cc:	e9b1                	bnez	a1,e0000720 <FLASH_ALSAQR_BOOT_SIGNED+0x1d8>
e00006ce:	b55d                	j	e0000574 <FLASH_ALSAQR_BOOT_SIGNED+0x2c>
e00006d0:	0000                	unimp
e00006d2:	4000                	lw	s0,0(s0)
e00006d4:	79d2                	.2byte	0x79d2
e00006d6:	81be                	mv	gp,a5
e00006d8:	59c36333          	.4byte	0x59c36333
e00006dc:	0000                	unimp
e00006de:	fd50                	.2byte	0xfd50
e00006e0:	4a11                	li	s4,4
e00006e2:	f0380a97          	auipc	s5,0xf0380
e00006e6:	be50                	.2byte	0xbe50
e00006e8:	0000                	unimp
e00006ea:	9da0                	.2byte	0x9da0
e00006ec:	e54c                	.2byte	0xe54c
e00006ee:	1910                	addi	a2,sp,176
e00006f0:	3cfa914f          	.4byte	0x3cfa914f
e00006f4:	0000                	unimp
e00006f6:	0990                	addi	a2,sp,208
e00006f8:	6225                	lui	tp,0x9
e00006fa:	ca9e                	sw	t2,84(sp)
e00006fc:	0c44                	addi	s1,sp,532
e00006fe:	bfb9                	j	e000065c <FLASH_ALSAQR_BOOT_SIGNED+0x114>
e0000700:	0000                	unimp
e0000702:	2590                	.2byte	0x2590
e0000704:	3f70                	.2byte	0x3f70
e0000706:	14d9                	addi	s1,s1,-10
e0000708:	caf9                	beqz	a3,e00007de <FLASH_ALSAQR_BOOT_SIGNED+0x296>
e000070a:	41d1                	li	gp,20
e000070c:	0000                	unimp
e000070e:	2940                	.2byte	0x2940
e0000710:	191e                	slli	s2,s2,0x27
e0000712:	8000                	.2byte	0x8000
e0000714:	040c                	addi	a1,sp,512
e0000716:	0379                	addi	t1,t1,30
e0000718:	0000                	unimp
e000071a:	1bc0                	addi	s0,sp,500
e000071c:	912a                	add	sp,sp,a0
e000071e:	3a63b757          	.4byte	0x3a63b757
e0000722:	b205                	j	e0000042 <_vectors_start+0x42>
e0000724:	0000                	unimp
e0000726:	4d70                	lw	a2,92(a0)
e0000728:	23b6                	.2byte	0x23b6
e000072a:	529c58af          	.4byte	0x529c58af
e000072e:	ee55                	bnez	a2,e00007ea <FLASH_ALSAQR_BOOT_SIGNED+0x2a2>
e0000730:	0000                	unimp
e0000732:	ce20                	sw	s0,88(a2)
e0000734:	7fa2                	.2byte	0x7fa2
e0000736:	7758                	.2byte	0x7758
e0000738:	0bda                	slli	s7,s7,0x16
e000073a:	8251                	srli	a2,a2,0x14
e000073c:	0000                	unimp
e000073e:	1dc0                	addi	s0,sp,756
e0000740:	45f9                	li	a1,30
e0000742:	2c79                	jal	e00009e0 <FLASH_ALSAQR_BOOT_SIGNED+0x498>
e0000744:	53c1                	li	t2,-16
e0000746:	3792                	.2byte	0x3792
e0000748:	0000                	unimp
e000074a:	b160                	.2byte	0xb160
e000074c:	6829                	lui	a6,0xa
e000074e:	2ffc                	.2byte	0x2ffc
e0000750:	6035                	c.lui	zero,0xd
e0000752:	7299                	lui	t0,0xfffe6
e0000754:	0000                	unimp
e0000756:	a980                	.2byte	0xa980
e0000758:	a23d                	j	e0000886 <FLASH_ALSAQR_BOOT_SIGNED+0x33e>
e000075a:	d6e9                	beqz	a3,e0000724 <FLASH_ALSAQR_BOOT_SIGNED+0x1dc>
e000075c:	7e6c                	.2byte	0x7e6c
e000075e:	0000afef          	jal	t6,e000a75e <_stack+0x75e>
e0000762:	3c20                	.2byte	0x3c20
e0000764:	4c24                	lw	s1,88(s0)
e0000766:	700c                	.2byte	0x700c
e0000768:	ec56fd77          	.4byte	0xec56fd77
e000076c:	0000                	unimp
e000076e:	c7b0                	sw	a2,72(a5)
e0000770:	bfbe                	.2byte	0xbfbe
e0000772:	24d8                	.2byte	0x24d8
e0000774:	21dc                	.2byte	0x21dc
e0000776:	a5a0                	.2byte	0xa5a0
e0000778:	0000                	unimp
e000077a:	7890                	.2byte	0x7890
e000077c:	1dbd                	addi	s11,s11,-17
e000077e:	04e0e6e3          	bltu	ra,a4,e0000fca <FLASH_ALSAQR_BOOT_SIGNED+0xa82>
e0000782:	c054                	sw	a3,4(s0)
e0000784:	0000                	unimp
e0000786:	5750                	lw	a2,44(a4)
e0000788:	5a5a                	lw	s4,180(sp)
e000078a:	e23a                	.2byte	0xe23a
e000078c:	0000                	unimp
e000078e:	5a50                	lw	a2,52(a2)
e0000790:	0000                	unimp
e0000792:	0000                	unimp
e0000794:	5a5a                	lw	s4,180(sp)
e0000796:	191a                	slli	s2,s2,0x26
e0000798:	5a5a                	lw	s4,180(sp)
e000079a:	5a5a                	lw	s4,180(sp)
e000079c:	0000                	unimp
e000079e:	5a50                	lw	a2,52(a2)
e00007a0:	5a5a                	lw	s4,180(sp)
e00007a2:	191a                	slli	s2,s2,0x26
e00007a4:	5a5a                	lw	s4,180(sp)
e00007a6:	5a5a                	lw	s4,180(sp)
e00007a8:	0000                	unimp
e00007aa:	5a50                	lw	a2,52(a2)
e00007ac:	5a5a                	lw	s4,180(sp)
e00007ae:	191a                	slli	s2,s2,0x26
e00007b0:	5a5a                	lw	s4,180(sp)
e00007b2:	5a5a                	lw	s4,180(sp)
e00007b4:	0000                	unimp
e00007b6:	5a50                	lw	a2,52(a2)
e00007b8:	5a5a                	lw	s4,180(sp)
e00007ba:	191a                	slli	s2,s2,0x26
e00007bc:	5a5a                	lw	s4,180(sp)
e00007be:	5a5a                	lw	s4,180(sp)
e00007c0:	0000                	unimp
e00007c2:	5a50                	lw	a2,52(a2)
e00007c4:	5a5a                	lw	s4,180(sp)
e00007c6:	191a                	slli	s2,s2,0x26
e00007c8:	5a5a                	lw	s4,180(sp)
e00007ca:	5a5a                	lw	s4,180(sp)
e00007cc:	0000                	unimp
e00007ce:	5a50                	lw	a2,52(a2)
e00007d0:	ff64                	.2byte	0xff64
e00007d2:	5b2e                	lw	s6,232(sp)
e00007d4:	801a                	c.mv	zero,t1
e00007d6:	a465                	j	e0000a7e <FLASH_ALSAQR_BOOT_SIGNED+0x536>
e00007d8:	0000                	unimp
e00007da:	2bd0                	.2byte	0x2bd0
e00007dc:	7cd6                	.2byte	0x7cd6
e00007de:	6b2a                	.2byte	0x6b2a
e00007e0:	8cf2                	mv	s9,t3
e00007e2:	2cbc                	.2byte	0x2cbc
e00007e4:	0000                	unimp
e00007e6:	2510                	.2byte	0x2510
e00007e8:	14d55c93          	.4byte	0x14d55c93
e00007ec:	6d3634a3          	.4byte	0x6d3634a3
e00007f0:	0000                	unimp
e00007f2:	9c20                	.2byte	0x9c20
e00007f4:	94d762eb          	.4byte	0x94d762eb
e00007f8:	63d6                	.2byte	0x63d6
e00007fa:	baa4                	.2byte	0xbaa4
e00007fc:	0000                	unimp
e00007fe:	1fc0                	addi	s0,sp,1012
e0000800:	3da1                	jal	e0000658 <FLASH_ALSAQR_BOOT_SIGNED+0x110>
e0000802:	f912                	.2byte	0xf912
e0000804:	1aad                	addi	s5,s5,-21 # d03806cd <tohost+0xd03606c5>
e0000806:	5d10                	lw	a2,56(a0)
e0000808:	0000                	unimp
e000080a:	fb20                	.2byte	0xfb20
e000080c:	dc74ec67          	.4byte	0xdc74ec67
e0000810:	475f b7b8 0000      	.byte	0x5f, 0x47, 0xb8, 0xb7, 0x00, 0x00
e0000816:	dc60                	sw	s0,124(s0)
e0000818:	23ec                	.2byte	0x23ec
e000081a:	f1bd                	bnez	a1,e0000780 <FLASH_ALSAQR_BOOT_SIGNED+0x238>
e000081c:	9364                	.2byte	0x9364
e000081e:	7c7e                	.2byte	0x7c7e
e0000820:	0000                	unimp
e0000822:	5700                	lw	s0,40(a4)
e0000824:	688a                	.2byte	0x688a
e0000826:	18a5                	addi	a7,a7,-23
e0000828:	8038                	.2byte	0x8038
e000082a:	56b9                	li	a3,-18
e000082c:	0000                	unimp
e000082e:	d630                	sw	a2,104(a2)
e0000830:	20ff                	.2byte	0x20ff
e0000832:	8037738b          	.4byte	0x8037738b
e0000836:	2896                	.2byte	0x2896
e0000838:	0000                	unimp
e000083a:	add0                	.2byte	0xadd0
e000083c:	fdcbac0b          	.4byte	0xfdcbac0b
e0000840:	d96c                	sw	a1,116(a0)
e0000842:	8cd9                	or	s1,s1,a4
e0000844:	0000                	unimp
e0000846:	1ce0                	addi	s0,sp,636
e0000848:	95f8                	.2byte	0x95f8
e000084a:	a231                	j	e0000956 <FLASH_ALSAQR_BOOT_SIGNED+0x40e>
e000084c:	9c8ead33          	.4byte	0x9c8ead33
e0000850:	0000                	unimp
e0000852:	d0b0                	sw	a2,96(s1)
e0000854:	5bcc                	lw	a1,52(a5)
e0000856:	c75f 7dc1 c12d      	.byte	0x5f, 0xc7, 0xc1, 0x7d, 0x2d, 0xc1
e000085c:	0000                	unimp
e000085e:	10e0                	addi	s0,sp,108
e0000860:	dc40                	sw	s0,60(s0)
e0000862:	4a9e                	lw	s5,196(sp)
e0000864:	4d28dfa3          	.4byte	0x4d28dfa3
e0000868:	0000                	unimp
e000086a:	3dc0                	.2byte	0x3dc0
e000086c:	197c                	addi	a5,sp,188
e000086e:	6c79                	lui	s8,0x1e
e0000870:	4ef8                	lw	a4,92(a3)
e0000872:	00000c87          	.4byte	0xc87
e0000876:	5240                	lw	s0,36(a2)
e0000878:	c9c5                	beqz	a1,e0000928 <FLASH_ALSAQR_BOOT_SIGNED+0x3e0>
e000087a:	a384                	.2byte	0xa384
e000087c:	9cc4                	.2byte	0x9cc4
e000087e:	000005d7          	.4byte	0x5d7
e0000882:	48e0                	lw	s0,84(s1)
e0000884:	a75e2d0f          	.4byte	0xa75e2d0f
e0000888:	a586                	.2byte	0xa586
e000088a:	0714                	addi	a3,sp,896
e000088c:	0000                	unimp
e000088e:	ad70                	.2byte	0xad70
e0000890:	ca7f                	.2byte	0xca7f
e0000892:	5002                	.2byte	0x5002
e0000894:	89f2                	mv	s3,t3
e0000896:	c225                	beqz	a2,e00008f6 <FLASH_ALSAQR_BOOT_SIGNED+0x3ae>
e0000898:	0000                	unimp
e000089a:	8c20                	.2byte	0x8c20
e000089c:	66eefb63          	bgeu	t4,a4,e0000f12 <FLASH_ALSAQR_BOOT_SIGNED+0x9ca>
e00008a0:	b440354b          	.4byte	0xb440354b
e00008a4:	0000                	unimp
e00008a6:	0e20                	addi	s0,sp,792
e00008a8:	e194                	.2byte	0xe194
e00008aa:	d759                	beqz	a4,e0000838 <FLASH_ALSAQR_BOOT_SIGNED+0x2f0>
e00008ac:	3a75                	jal	e0000268 <qprinti.constprop.0+0xc8>
e00008ae:	00004543          	.4byte	0x4543
e00008b2:	b040                	.2byte	0xb040
e00008b4:	a008e3f7          	.4byte	0xa008e3f7
e00008b8:	b4b2                	.2byte	0xb4b2
e00008ba:	8e01                	sub	a2,a2,s0
e00008bc:	0000                	unimp
e00008be:	cde0                	sw	s0,92(a1)
e00008c0:	5685                	li	a3,-31
e00008c2:	2910                	.2byte	0x2910
e00008c4:	2608                	.2byte	0x2608
e00008c6:	b725                	j	e00007ee <FLASH_ALSAQR_BOOT_SIGNED+0x2a6>
e00008c8:	0000                	unimp
e00008ca:	77c0                	.2byte	0x77c0
e00008cc:	81b10303          	lb	t1,-2021(sp)
e00008d0:	868a                	mv	a3,sp
e00008d2:	ac94                	.2byte	0xac94
e00008d4:	0000                	unimp
e00008d6:	d4e0                	sw	s0,108(s1)
e00008d8:	7ff5e797          	auipc	a5,0x7ff5e
e00008dc:	5ac2                	lw	s5,48(sp)
e00008de:	3810                	.2byte	0x3810
e00008e0:	0000                	unimp
e00008e2:	4110                	lw	a2,0(a0)
e00008e4:	3522                	.2byte	0x3522
e00008e6:	ba9e                	.2byte	0xba9e
e00008e8:	348d5407          	.4byte	0x348d5407
e00008ec:	0000                	unimp
e00008ee:	6680                	.2byte	0x6680
e00008f0:	8f7a                	mv	t5,t5
e00008f2:	33137ff3          	csrrci	t6,mhpmevent17,6
e00008f6:	953a                	add	a0,a0,a4
e00008f8:	0000                	unimp
e00008fa:	4f80                	lw	s0,24(a5)
e00008fc:	36f6                	.2byte	0x36f6
e00008fe:	1751                	addi	a4,a4,-12
e0000900:	753d926f          	jal	tp,e00da852 <fromhost+0xca842>
e0000904:	0000                	unimp
e0000906:	6720                	.2byte	0x6720
e0000908:	3dc5ccab          	.4byte	0x3dc5ccab
e000090c:	586b186b          	.4byte	0x586b186b
e0000910:	0000                	unimp
e0000912:	0ab0                	addi	a2,sp,344
e0000914:	fc0e                	.2byte	0xfc0e
e0000916:	b1b9                	j	e0000564 <FLASH_ALSAQR_BOOT_SIGNED+0x1c>
e0000918:	ebb61e5b          	.4byte	0xebb61e5b
e000091c:	0000                	unimp
e000091e:	f2e0                	.2byte	0xf2e0
e0000920:	7b5f f754 88ed      	.byte	0x5f, 0x7b, 0x54, 0xf7, 0xed, 0x88
e0000926:	0000c707          	.4byte	0xc707
e000092a:	0bd0                	addi	a2,sp,468
e000092c:	b40d                	j	e000034e <printf+0x86>
e000092e:	97122753          	.4byte	0x97122753
e0000932:	000099bf e3c962a0 	.8byte	0xe3c962a0000099bf
e000093a:	96ec                	.2byte	0x96ec
e000093c:	b9fd                	j	e000063a <FLASH_ALSAQR_BOOT_SIGNED+0xf2>
e000093e:	3bf5                	jal	e000073a <FLASH_ALSAQR_BOOT_SIGNED+0x1f2>
e0000940:	0000                	unimp
e0000942:	9260                	.2byte	0x9260
e0000944:	2b9e                	.2byte	0x2b9e
e0000946:	4060d1b7          	lui	gp,0x4060d
e000094a:	555d                	li	a0,-9
e000094c:	0000                	unimp
e000094e:	05e0                	addi	s0,sp,716
e0000950:	223fcef7          	.4byte	0x223fcef7
e0000954:	9b92                	add	s7,s7,tp
e0000956:	47fc                	lw	a5,76(a5)
e0000958:	0000                	unimp
e000095a:	73e0                	.2byte	0x73e0
e000095c:	761e                	.2byte	0x761e
e000095e:	48a2                	lw	a7,8(sp)
e0000960:	0a35                	addi	s4,s4,13
e0000962:	00008f6f          	jal	t5,e0008962 <_bss_end+0x372a>
e0000966:	5980                	lw	s0,48(a1)
e0000968:	62bc                	.2byte	0x62bc
e000096a:	6dc4                	.2byte	0x6dc4
e000096c:	c179                	beqz	a0,e0000a32 <FLASH_ALSAQR_BOOT_SIGNED+0x4ea>
e000096e:	52de                	lw	t0,244(sp)
e0000970:	0000                	unimp
e0000972:	9df0                	.2byte	0x9df0
e0000974:	29cc                	.2byte	0x29cc
e0000976:	61b4                	.2byte	0x61b4
e0000978:	e472                	.2byte	0xe472
e000097a:	dae8                	sw	a0,116(a3)
e000097c:	0000                	unimp
e000097e:	18b0                	addi	a2,sp,120
e0000980:	0c70                	addi	a2,sp,540
e0000982:	7e7dc567          	.4byte	0x7e7dc567
e0000986:	b03e                	.2byte	0xb03e
e0000988:	0000                	unimp
e000098a:	66c0                	.2byte	0x66c0
e000098c:	cb3e                	sw	a5,148(sp)
e000098e:	356c6913          	ori	s2,s8,854
e0000992:	7d10                	.2byte	0x7d10
e0000994:	0000                	unimp
e0000996:	3d20                	.2byte	0x3d20
e0000998:	3c52                	.2byte	0x3c52
e000099a:	56e8                	lw	a0,108(a3)
e000099c:	42d0                	lw	a2,4(a3)
e000099e:	9a3d                	andi	a2,a2,-17
e00009a0:	0000                	unimp
e00009a2:	35d0                	.2byte	0x35d0
e00009a4:	082e                	slli	a6,a6,0xb
e00009a6:	df99238b          	.4byte	0xdf99238b
e00009aa:	1f08                	addi	a0,sp,944
e00009ac:	0000                	unimp
e00009ae:	30e0                	.2byte	0x30e0
e00009b0:	c33a                	sw	a4,132(sp)
e00009b2:	adc5                	j	e00010a2 <FLASH_ALSAQR_BOOT_SIGNED+0xb5a>
e00009b4:	7509                	lui	a0,0xfffe2
e00009b6:	3500                	.2byte	0x3500
e00009b8:	0000                	unimp
e00009ba:	c300                	sw	s0,0(a4)
e00009bc:	b9d2                	.2byte	0xb9d2
e00009be:	f6881e47          	.4byte	0xf6881e47
e00009c2:	de04                	sw	s1,56(a2)
e00009c4:	0000                	unimp
e00009c6:	4b90                	lw	a2,16(a5)
e00009c8:	8dbc                	.2byte	0x8dbc
e00009ca:	f1d184d3          	.4byte	0xf1d184d3
e00009ce:	f550                	.2byte	0xf550
e00009d0:	0000                	unimp
e00009d2:	6b30                	.2byte	0x6b30
e00009d4:	2f2a                	.2byte	0x2f2a
e00009d6:	8b2c                	.2byte	0x8b2c
e00009d8:	6858                	.2byte	0x6858
e00009da:	ca41                	beqz	a2,e0000a6a <FLASH_ALSAQR_BOOT_SIGNED+0x522>
e00009dc:	0000                	unimp
e00009de:	0ea0                	addi	s0,sp,856
e00009e0:	27dd                	jal	e00011c6 <FLASH_ALSAQR_BOOT_SIGNED+0xc7e>
e00009e2:	fb22                	.2byte	0xfb22
e00009e4:	3f0a                	.2byte	0x3f0a
e00009e6:	2ed4                	.2byte	0x2ed4
e00009e8:	0000                	unimp
e00009ea:	e600                	.2byte	0xe600
e00009ec:	404e                	.2byte	0x404e
e00009ee:	8c79                	and	s0,s0,a4
e00009f0:	8dc6                	mv	s11,a7
e00009f2:	8bcd                	andi	a5,a5,19
e00009f4:	0000                	unimp
e00009f6:	1f40                	addi	s0,sp,948
e00009f8:	491d                	li	s2,7
e00009fa:	db76b6e3          	.4byte	0xdb76b6e3
e00009fe:	3b00                	.2byte	0x3b00
e0000a00:	0000                	unimp
e0000a02:	fe30                	.2byte	0xfe30
e0000a04:	e91cda63          	bge	s9,a7,e0000098 <uart_set_cfg+0x14>
e0000a08:	ca44                	sw	s1,20(a2)
e0000a0a:	7196                	.2byte	0x7196
e0000a0c:	0000                	unimp
e0000a0e:	e270                	.2byte	0xe270
e0000a10:	5525                	li	a0,-23
e0000a12:	1564                	addi	s1,sp,684
e0000a14:	0000                	unimp
e0000a16:	44f0                	lw	a2,76(s1)
e0000a18:	0000                	unimp
e0000a1a:	1d40                	addi	s0,sp,692
e0000a1c:	0000                	unimp
e0000a1e:	8a90                	.2byte	0x8a90
e0000a20:	00000003          	lb	zero,0(zero) # 0 <_min_stack-0x2000>
e0000a24:	0000                	unimp
e0000a26:	32c0                	.2byte	0x32c0
	...
e0000a70:	0000                	unimp
e0000a72:	f910                	.2byte	0xf910
e0000a74:	0000                	unimp
e0000a76:	4000                	lw	s0,0(s0)
e0000a78:	0000                	unimp
e0000a7a:	0000                	unimp
e0000a7c:	0000                	unimp
e0000a7e:	0dc0                	addi	s0,sp,724
e0000a80:	0002                	c.slli64	zero
e0000a82:	4800                	lw	s0,16(s0)
e0000a84:	0000                	unimp
e0000a86:	4b00                	lw	s0,16(a4)
	...
e0000b48:	0001                	nop
e0000b4a:	e38c                	.2byte	0xe38c
e0000b4c:	0800                	addi	s0,sp,16
e0000b4e:	0732                	slli	a4,a4,0xc
e0000b50:	0000                	unimp
e0000b52:	06f0                	addi	a2,sp,844
e0000b54:	4c00                	lw	s0,24(s0)
e0000b56:	9562                	add	a0,a0,s8
e0000b58:	0001                	nop
e0000b5a:	06fc                	addi	a5,sp,844
e0000b5c:	0000                	unimp
e0000b5e:	0730                	addi	a2,sp,904
e0000b60:	0001                	nop
e0000b62:	438c                	lw	a1,0(a5)
e0000b64:	0001                	nop
e0000b66:	073c                	addi	a5,sp,904
e0000b68:	0000                	unimp
e0000b6a:	0730                	addi	a2,sp,904
e0000b6c:	9000                	.2byte	0x9000
e0000b6e:	e1b2                	.2byte	0xe1b2
e0000b70:	0001                	nop
e0000b72:	06fc                	addi	a5,sp,844
e0000b74:	0000                	unimp
e0000b76:	0730                	addi	a2,sp,904
e0000b78:	0001                	nop
e0000b7a:	438c                	lw	a1,0(a5)
e0000b7c:	0001                	nop
e0000b7e:	073c                	addi	a5,sp,904
e0000b80:	0000                	unimp
e0000b82:	0730                	addi	a2,sp,904
e0000b84:	d400                	sw	s0,40(s0)
e0000b86:	1e42                	slli	t3,t3,0x30
e0000b88:	0001                	nop
e0000b8a:	06fc                	addi	a5,sp,844
e0000b8c:	0000                	unimp
e0000b8e:	0730                	addi	a2,sp,904
e0000b90:	0001                	nop
e0000b92:	438c                	lw	a1,0(a5)
e0000b94:	0001                	nop
e0000b96:	073c                	addi	a5,sp,904
e0000b98:	0000                	unimp
e0000b9a:	0730                	addi	a2,sp,904
e0000b9c:	0001                	nop
e0000b9e:	438c                	lw	a1,0(a5)
e0000ba0:	0001                	nop
e0000ba2:	073c                	addi	a5,sp,904
e0000ba4:	0000                	unimp
e0000ba6:	0730                	addi	a2,sp,904
e0000ba8:	0001                	nop
e0000baa:	438c                	lw	a1,0(a5)
e0000bac:	0001                	nop
e0000bae:	073c                	addi	a5,sp,904
e0000bb0:	0000                	unimp
e0000bb2:	0730                	addi	a2,sp,904
e0000bb4:	0001                	nop
e0000bb6:	438c                	lw	a1,0(a5)
e0000bb8:	0001                	nop
e0000bba:	073c                	addi	a5,sp,904
e0000bbc:	0000                	unimp
e0000bbe:	0730                	addi	a2,sp,904
e0000bc0:	0001                	nop
e0000bc2:	438c                	lw	a1,0(a5)
e0000bc4:	0001                	nop
e0000bc6:	073c                	addi	a5,sp,904
e0000bc8:	0000                	unimp
e0000bca:	0730                	addi	a2,sp,904
e0000bcc:	0001                	nop
e0000bce:	438c                	lw	a1,0(a5)
e0000bd0:	0001                	nop
e0000bd2:	073c                	addi	a5,sp,904
e0000bd4:	0000                	unimp
e0000bd6:	0730                	addi	a2,sp,904
e0000bd8:	0001                	nop
e0000bda:	438c                	lw	a1,0(a5)
e0000bdc:	0001                	nop
e0000bde:	073c                	addi	a5,sp,904
e0000be0:	0000                	unimp
e0000be2:	0730                	addi	a2,sp,904
e0000be4:	0001                	nop
e0000be6:	438c                	lw	a1,0(a5)
e0000be8:	0001                	nop
e0000bea:	073c                	addi	a5,sp,904
e0000bec:	0000                	unimp
e0000bee:	0730                	addi	a2,sp,904
e0000bf0:	0001                	nop
e0000bf2:	438c                	lw	a1,0(a5)
e0000bf4:	0001                	nop
e0000bf6:	073c                	addi	a5,sp,904
e0000bf8:	0000                	unimp
e0000bfa:	0730                	addi	a2,sp,904
e0000bfc:	d800                	sw	s0,48(s0)
e0000bfe:	9c72                	add	s8,s8,t3
e0000c00:	0001                	nop
e0000c02:	06fc                	addi	a5,sp,844
e0000c04:	0000                	unimp
e0000c06:	0730                	addi	a2,sp,904
e0000c08:	4418                	lw	a4,8(s0)
e0000c0a:	00024753          	.4byte	0x24753
e0000c0e:	0000193f 68101970 	.8byte	0x681019700000193f
e0000c16:	0020d00b          	.4byte	0x20d00b
e0000c1a:	0000113f 71281170 	.8byte	0x712811700000113f
e0000c22:	0000f38f          	.4byte	0xf38f
e0000c26:	2930                	.2byte	0x2930
e0000c28:	0000                	unimp
e0000c2a:	2970                	.2byte	0x2970
e0000c2c:	0002                	c.slli64	zero
e0000c2e:	0529f38f          	.4byte	0x529f38f
e0000c32:	00005173          	csrrwi	sp,ustatus,0
e0000c36:	0730                	addi	a2,sp,904
e0000c38:	8418                	.2byte	0x8418
e0000c3a:	0dc8                	addi	a0,sp,724
e0000c3c:	2850                	.2byte	0x2850
e0000c3e:	0000593b          	.4byte	0x593b
e0000c42:	5130                	lw	a2,96(a0)
e0000c44:	0060                	addi	s0,sp,12
e0000c46:	6a9e                	.2byte	0x6a9e
e0000c48:	61300003          	lb	zero,1555(zero) # 613 <_min_stack-0x19ed>
e0000c4c:	0000                	unimp
e0000c4e:	6170                	.2byte	0x6170
e0000c50:	91b0513f 00025172 	.8byte	0x2517291b0513f
e0000c58:	0000                	unimp
e0000c5a:	8b10                	.2byte	0x8b10
e0000c5c:	f4d8593f 0002597b 	.8byte	0x2597bf4d8593f
e0000c64:	0000                	unimp
e0000c66:	9650                	.2byte	0x9650
e0000c68:	0000                	unimp
e0000c6a:	0a90                	addi	a2,sp,336
e0000c6c:	01dc                	addi	a5,sp,196
e0000c6e:	4172                	lw	sp,28(sp)
e0000c70:	0000                	unimp
e0000c72:	ca50                	sw	a2,20(a2)
e0000c74:	0000                	unimp
e0000c76:	7e40                	.2byte	0x7e40
e0000c78:	8440                	.2byte	0x8440
e0000c7a:	4970                	lw	a2,84(a0)
e0000c7c:	0000                	unimp
e0000c7e:	4130                	lw	a2,64(a0)
e0000c80:	db200947          	.4byte	0xdb200947
e0000c84:	7c48                	.2byte	0x7c48
e0000c86:	8630                	.2byte	0x8630
e0000c88:	0000                	unimp
e0000c8a:	4930                	lw	a2,80(a0)
e0000c8c:	4119                	li	sp,6
e0000c8e:	3b20                	.2byte	0x3b20
e0000c90:	0042                	c.slli	zero,0x10
e0000c92:	2820                	.2byte	0x2820
e0000c94:	0000                	unimp
e0000c96:	2830                	.2byte	0x2830
e0000c98:	1a00                	addi	s0,sp,304
e0000c9a:	6234                	.2byte	0x6234
e0000c9c:	e946                	.2byte	0xe946
e0000c9e:	06ff                	.2byte	0x6ff
e0000ca0:	0000                	unimp
e0000ca2:	ce30                	sw	a2,88(a2)
e0000ca4:	0b56                	slli	s6,s6,0x15
e0000ca6:	3000                	.2byte	0x3000
e0000ca8:	2b300b57          	.4byte	0x2b300b57
e0000cac:	0000                	unimp
e0000cae:	e630                	.2byte	0xe630
e0000cb0:	0029                	c.nop	10
e0000cb2:	8750                	.2byte	0x8750
e0000cb4:	b630032f          	.4byte	0xb630032f
e0000cb8:	0000                	unimp
e0000cba:	2930                	.2byte	0x2930
e0000cbc:	de30                	sw	a2,120(a2)
e0000cbe:	46e6                	lw	a3,88(sp)
e0000cc0:	0052                	c.slli	zero,0x14
e0000cc2:	5110                	lw	a2,32(a0)
e0000cc4:	0000                	unimp
e0000cc6:	0230                	addi	a2,sp,264
e0000cc8:	0b51                	addi	s6,s6,20
e0000cca:	a230                	.2byte	0xa230
e0000ccc:	3638082f          	.4byte	0x3638082f
e0000cd0:	0000                	unimp
e0000cd2:	eb50                	.2byte	0xeb50
e0000cd4:	01b02b57          	.4byte	0x1b02b57
e0000cd8:	0008                	.2byte	0x8
e0000cda:	9630                	.2byte	0x9630
e0000cdc:	0000                	unimp
e0000cde:	0820                	addi	s0,sp,24
e0000ce0:	0c2e                	slli	s8,s8,0xb
e0000ce2:	c380                	sw	s0,0(a5)
e0000ce4:	0b56                	slli	s6,s6,0x15
e0000ce6:	2b30                	.2byte	0x2b30
e0000ce8:	0000                	unimp
e0000cea:	2b30                	.2byte	0x2b30
e0000cec:	2029                	jal	e0000cf6 <FLASH_ALSAQR_BOOT_SIGNED+0x7ae>
e0000cee:	9380                	.2byte	0x9380
e0000cf0:	4630032f          	.4byte	0x4630032f
e0000cf4:	0000                	unimp
e0000cf6:	2930                	.2byte	0x2930
e0000cf8:	0a58                	addi	a4,sp,276
e0000cfa:	4564                	lw	s1,76(a0)
e0000cfc:	0c50                	addi	a2,sp,532
e0000cfe:	3334                	.2byte	0x3334
e0000d00:	0000                	unimp
e0000d02:	2b30                	.2byte	0x2b30
e0000d04:	0062                	c.slli	zero,0x18
e0000d06:	7910                	.2byte	0x7910
e0000d08:	062e                	slli	a2,a2,0xb
e0000d0a:	2830                	.2byte	0x2830
e0000d0c:	0000                	unimp
e0000d0e:	e630                	.2byte	0xe630
e0000d10:	5110                	lw	a2,32(a0)
e0000d12:	4dc0                	lw	s0,28(a1)
e0000d14:	0230                	addi	a2,sp,264
e0000d16:	0552                	slli	a0,a0,0x14
e0000d18:	0000                	unimp
e0000d1a:	6110                	.2byte	0x6110
e0000d1c:	3638                	.2byte	0x3638
e0000d1e:	d4d1                	beqz	s1,e0000caa <FLASH_ALSAQR_BOOT_SIGNED+0x762>
e0000d20:	eb56                	.2byte	0xeb56
e0000d22:	0000082f          	.4byte	0x82f
e0000d26:	ae30                	.2byte	0xae30
e0000d28:	0000                	unimp
e0000d2a:	a560                	.2byte	0xa560
e0000d2c:	0820                	addi	s0,sp,24
e0000d2e:	0008                	.2byte	0x8
e0000d30:	0000                	unimp
e0000d32:	0b50                	addi	a2,sp,404
e0000d34:	0c12                	slli	s8,s8,0x4
e0000d36:	0002775b          	.4byte	0x2775b
e0000d3a:	0000103f 3c241170 	.8byte	0x3c2411700000103f
e0000d42:	b754                	.2byte	0xb754
e0000d44:	0824                	addi	s1,sp,24
e0000d46:	3324                	.2byte	0x3324
e0000d48:	0000                	unimp
e0000d4a:	1020                	addi	s0,sp,40
e0000d4c:	5824                	lw	s1,112(s0)
e0000d4e:	4755                	li	a4,21
e0000d50:	4e24                	lw	s1,88(a2)
e0000d52:	5724                	lw	s1,104(a4)
e0000d54:	0000                	unimp
e0000d56:	4520                	lw	s0,72(a0)
e0000d58:	7c25                	lui	s8,0xfffe9
e0000d5a:	2005                	jal	e0000d7a <FLASH_ALSAQR_BOOT_SIGNED+0x832>
e0000d5c:	6a25                	lui	s4,0x9
e0000d5e:	7325                	lui	t1,0xfffe9
e0000d60:	0000                	unimp
e0000d62:	6120                	.2byte	0x6120
e0000d64:	9865                	andi	s0,s0,-7
e0000d66:	a754                	.2byte	0xa754
e0000d68:	8e25                	xor	a2,a2,s1
e0000d6a:	9725                	srai	a4,a4,0x29
e0000d6c:	0000                	unimp
e0000d6e:	8520                	.2byte	0x8520
e0000d70:	bc64                	.2byte	0xbc64
e0000d72:	3c74                	.2byte	0x3c74
e0000d74:	aa64                	.2byte	0xaa64
e0000d76:	b364                	.2byte	0xb364
e0000d78:	0000                	unimp
e0000d7a:	a160                	.2byte	0xa160
e0000d7c:	d864                	sw	s1,116(s0)
e0000d7e:	0a95                	addi	s5,s5,5
e0000d80:	ce64                	sw	s1,92(a2)
e0000d82:	d764                	sw	s1,108(a4)
e0000d84:	0000                	unimp
e0000d86:	c560                	sw	s0,76(a0)
e0000d88:	fc65                	bnez	s0,e0000d80 <FLASH_ALSAQR_BOOT_SIGNED+0x838>
e0000d8a:	6dc5                	lui	s11,0x11
e0000d8c:	ea65                	bnez	a2,e0000e7c <FLASH_ALSAQR_BOOT_SIGNED+0x934>
e0000d8e:	f365                	bnez	a4,e0000d6e <FLASH_ALSAQR_BOOT_SIGNED+0x826>
e0000d90:	0000                	unimp
e0000d92:	e160                	.2byte	0xe160
e0000d94:	0730                	addi	a2,sp,904
e0000d96:	41b9                	li	gp,14
e0000d98:	2935                	jal	e00011d4 <FLASH_ALSAQR_BOOT_SIGNED+0xc8c>
e0000d9a:	082e                	slli	a6,a6,0xb
e0000d9c:	0000                	unimp
e0000d9e:	2d60                	.2byte	0x2d60
e0000da0:	7810                	.2byte	0x7810
e0000da2:	5910                	lw	a2,48(a0)
e0000da4:	11342a23          	sw	s3,276(s0)
e0000da8:	0000                	unimp
e0000daa:	0020                	addi	s0,sp,8
e0000dac:	0002                	c.slli64	zero
e0000dae:	0018ce43          	.4byte	0x18ce43
e0000db2:	2f30                	.2byte	0x2f30
e0000db4:	0000                	unimp
e0000db6:	0820                	addi	s0,sp,24
e0000db8:	3136                	.2byte	0x3136
e0000dba:	1380                	addi	s0,sp,480
e0000dbc:	309ff72f          	.4byte	0x309ff72f
e0000dc0:	0000                	unimp
e0000dc2:	2930                	.2byte	0x2930
e0000dc4:	5130                	lw	a2,96(a0)
e0000dc6:	0c70                	addi	a2,sp,540
e0000dc8:	2b38                	.2byte	0x2b38
e0000dca:	062e                	slli	a2,a2,0xb
e0000dcc:	0000                	unimp
e0000dce:	8030                	.2byte	0x8030
e0000dd0:	d500                	sw	s0,40(a0)
e0000dd2:	e1bc                	.2byte	0xe1bc
e0000dd4:	6552a23f 88500000 	.8byte	0x885000006552a23f
e0000ddc:	082c                	addi	a1,sp,24
e0000dde:	3918                	.2byte	0x3918
e0000de0:	0052                	c.slli	zero,0x14
e0000de2:	10c0                	addi	s0,sp,100
e0000de4:	0000                	unimp
e0000de6:	2230                	.2byte	0x2230
e0000de8:	4202                	lw	tp,0(sp)
e0000dea:	41029b23          	sh	a6,1046(t0) # fffe6416 <fromhost+0x1ffd6406>
e0000dee:	00003733          	snez	a4,zero
e0000df2:	2f30                	.2byte	0x2f30
e0000df4:	0820                	addi	s0,sp,24
e0000df6:	96e8                	.2byte	0x96e8
e0000df8:	3634                	.2byte	0x3634
e0000dfa:	0731                	addi	a4,a4,12
e0000dfc:	0000                	unimp
e0000dfe:	3850                	.2byte	0x3850
e0000e00:	e334                	.2byte	0xe334
e0000e02:	dfff                	.2byte	0xdfff
e0000e04:	0029                	c.nop	10
e0000e06:	30d0                	.2byte	0x30d0
e0000e08:	0000                	unimp
e0000e0a:	3830                	.2byte	0x3830
e0000e0c:	2890                	.2byte	0x2890
e0000e0e:	b380                	.2byte	0xb380
e0000e10:	4630                	lw	a2,72(a2)
e0000e12:	06e0                	addi	s0,sp,844
e0000e14:	0000                	unimp
e0000e16:	0630                	addi	a2,sp,776
e0000e18:	0018                	.2byte	0x18
e0000e1a:	9750                	.2byte	0x9750
e0000e1c:	2918                	.2byte	0x2918
e0000e1e:	0820                	addi	s0,sp,24
e0000e20:	0000                	unimp
e0000e22:	0820                	addi	s0,sp,24
e0000e24:	0028                	addi	a0,sp,8
e0000e26:	00022dcf          	.4byte	0x22dcf
e0000e2a:	2930                	.2byte	0x2930
e0000e2c:	0000                	unimp
e0000e2e:	2970                	.2byte	0x2970
e0000e30:	0030                	addi	a2,sp,8
e0000e32:	7e40                	.2byte	0x7e40
e0000e34:	0028                	addi	a0,sp,8
e0000e36:	8630                	.2byte	0x8630
e0000e38:	0000                	unimp
e0000e3a:	3030                	.2byte	0x3030
e0000e3c:	5c3a                	lw	s8,172(sp)
e0000e3e:	96ea                	add	a3,a3,s10
e0000e40:	0002                	c.slli64	zero
e0000e42:	0000383f 00183970 	.8byte	0x1839700000383f
e0000e4a:	dc70                	sw	a2,124(s0)
e0000e4c:	023a                	slli	tp,tp,0xe
e0000e4e:	0820                	addi	s0,sp,24
e0000e50:	0000                	unimp
e0000e52:	0230                	addi	a2,sp,264
e0000e54:	416c                	lw	a1,68(a0)
e0000e56:	ae4c                	.2byte	0xae4c
e0000e58:	8810                	.2byte	0x8810
e0000e5a:	0000206f          	j	e0002e5a <FLASH_ALSAQR_BOOT_SIGNED+0x2912>
e0000e5e:	1130                	addi	a2,sp,168
e0000e60:	c26c                	sw	a1,68(a2)
e0000e62:	56ec                	lw	a1,108(a3)
e0000e64:	81ec                	.2byte	0x81ec
e0000e66:	a22c                	.2byte	0xa22c
e0000e68:	0000                	unimp
e0000e6a:	61a0                	.2byte	0x61a0
e0000e6c:	436d                	li	t1,27
e0000e6e:	18ad                	addi	a7,a7,-21
e0000e70:	02ec                	addi	a1,sp,332
e0000e72:	232d                	jal	e000139c <FLASH_ALSAQR_BOOT_SIGNED+0xe54>
e0000e74:	0000                	unimp
e0000e76:	e2a0                	.2byte	0xe2a0
e0000e78:	c46d                	beqz	s0,e0000f62 <FLASH_ALSAQR_BOOT_SIGNED+0xa1a>
e0000e7a:	4a9d                	li	s5,7
e0000e7c:	83ed                	srli	a5,a5,0x1b
e0000e7e:	a42d                	j	e00010a8 <FLASH_ALSAQR_BOOT_SIGNED+0xb60>
e0000e80:	0000                	unimp
e0000e82:	63a0                	.2byte	0x63a0
e0000e84:	4d6c                	lw	a1,92(a0)
e0000e86:	9c7c                	.2byte	0x9c7c
e0000e88:	0ced                	addi	s9,s9,27
e0000e8a:	2d2c                	.2byte	0x2d2c
e0000e8c:	0000                	unimp
e0000e8e:	e4a0                	.2byte	0xe4a0
e0000e90:	ce6c                	sw	a1,92(a2)
e0000e92:	538c                	lw	a1,32(a5)
e0000e94:	8dec                	.2byte	0x8dec
e0000e96:	ae2c                	.2byte	0xae2c
e0000e98:	0000                	unimp
e0000e9a:	6da0                	.2byte	0x6da0
e0000e9c:	4f6d                	li	t5,27
e0000e9e:	1dcd                	addi	s11,s11,-13 # 10ff3 <_stack_len+0x8ff3>
e0000ea0:	0eec                	addi	a1,sp,860
e0000ea2:	2f2d                	jal	e00015dc <FLASH_ALSAQR_BOOT_SIGNED+0x1094>
e0000ea4:	0000                	unimp
e0000ea6:	eea0                	.2byte	0xeea0
e0000ea8:	0002                	c.slli64	zero
e0000eaa:	8fed46e3          	blt	s10,t5,e0000796 <FLASH_ALSAQR_BOOT_SIGNED+0x24e>
e0000eae:	2f3d                	jal	e00015ec <FLASH_ALSAQR_BOOT_SIGNED+0x10a4>
e0000eb0:	0000                	unimp
e0000eb2:	6fa0                	.2byte	0x6fa0
e0000eb4:	f69c                	.2byte	0xf69c
e0000eb6:	f9dd8e43          	.4byte	0xf9dd8e43
e0000eba:	00000163          	beqz	zero,e0000ebc <FLASH_ALSAQR_BOOT_SIGNED+0x974>
e0000ebe:	a960                	.2byte	0xa960
e0000ec0:	5400                	lw	s0,40(s0)
e0000ec2:	e911                	bnez	a0,e0000ed6 <FLASH_ALSAQR_BOOT_SIGNED+0x98e>
e0000ec4:	b000                	.2byte	0xb000
e0000ec6:	06f6                	slli	a3,a3,0x1d
e0000ec8:	0000                	unimp
e0000eca:	0ef0                	addi	a2,sp,860
e0000ecc:	416c                	lw	a1,68(a0)
e0000ece:	ae4c                	.2byte	0xae4c
e0000ed0:	8810                	.2byte	0x8810
e0000ed2:	0000206f          	j	e0002ed2 <FLASH_ALSAQR_BOOT_SIGNED+0x298a>
e0000ed6:	1130                	addi	a2,sp,168
e0000ed8:	c26c                	sw	a1,68(a2)
e0000eda:	56ec                	lw	a1,108(a3)
e0000edc:	81ec                	.2byte	0x81ec
e0000ede:	a22c                	.2byte	0xa22c
e0000ee0:	0000                	unimp
e0000ee2:	61a0                	.2byte	0x61a0
e0000ee4:	436d                	li	t1,27
e0000ee6:	18ad                	addi	a7,a7,-21
e0000ee8:	02ec                	addi	a1,sp,332
e0000eea:	232d                	jal	e0001414 <FLASH_ALSAQR_BOOT_SIGNED+0xecc>
e0000eec:	0000                	unimp
e0000eee:	e2a0                	.2byte	0xe2a0
e0000ef0:	c46d                	beqz	s0,e0000fda <FLASH_ALSAQR_BOOT_SIGNED+0xa92>
e0000ef2:	4a9d                	li	s5,7
e0000ef4:	83ed                	srli	a5,a5,0x1b
e0000ef6:	a42d                	j	e0001120 <FLASH_ALSAQR_BOOT_SIGNED+0xbd8>
e0000ef8:	0000                	unimp
e0000efa:	63a0                	.2byte	0x63a0
e0000efc:	4d6c                	lw	a1,92(a0)
e0000efe:	9c7c                	.2byte	0x9c7c
e0000f00:	0ced                	addi	s9,s9,27
e0000f02:	2d2c                	.2byte	0x2d2c
e0000f04:	0000                	unimp
e0000f06:	e4a0                	.2byte	0xe4a0
e0000f08:	ce6c                	sw	a1,92(a2)
e0000f0a:	538c                	lw	a1,32(a5)
e0000f0c:	8dec                	.2byte	0x8dec
e0000f0e:	ae2c                	.2byte	0xae2c
e0000f10:	0000                	unimp
e0000f12:	6da0                	.2byte	0x6da0
e0000f14:	4f6d                	li	t5,27
e0000f16:	1dcd                	addi	s11,s11,-13
e0000f18:	0eec                	addi	a1,sp,860
e0000f1a:	2f2d                	jal	e0001654 <FLASH_ALSAQR_BOOT_SIGNED+0x110c>
e0000f1c:	0000                	unimp
e0000f1e:	eea0                	.2byte	0xeea0
e0000f20:	0002                	c.slli64	zero
e0000f22:	8fed46e3          	blt	s10,t5,e000080e <FLASH_ALSAQR_BOOT_SIGNED+0x2c6>
e0000f26:	2f3d                	jal	e0001664 <FLASH_ALSAQR_BOOT_SIGNED+0x111c>
e0000f28:	0000                	unimp
e0000f2a:	6fa0                	.2byte	0x6fa0
e0000f2c:	956c0163          	beq	s8,s6,e000006e <_vectors_start+0x6e>
e0000f30:	2f3d                	jal	e000166e <FLASH_ALSAQR_BOOT_SIGNED+0x1126>
e0000f32:	4102                	lw	sp,0(sp)
e0000f34:	0000                	unimp
e0000f36:	a960                	.2byte	0xa960
e0000f38:	06f6                	slli	a3,a3,0x1d
e0000f3a:	1ff0                	addi	a2,sp,1020
e0000f3c:	ca000ef3          	.4byte	0xca000ef3
e0000f40:	0000                	unimp
e0000f42:	7a10                	.2byte	0x7a10
e0000f44:	8810                	.2byte	0x8810
e0000f46:	cfff                	.2byte	0xcfff
e0000f48:	0011                	c.nop	4
e0000f4a:	1130                	addi	a2,sp,168
e0000f4c:	0000                	unimp
e0000f4e:	0200                	addi	s0,sp,256
e0000f50:	81ec                	.2byte	0x81ec
e0000f52:	1b2c                	addi	a1,sp,440
e0000f54:	416c                	lw	a1,68(a0)
e0000f56:	61ac                	.2byte	0x61ac
e0000f58:	0000                	unimp
e0000f5a:	2060                	.2byte	0x2060
e0000f5c:	02ec                	addi	a1,sp,332
e0000f5e:	5a9d                	li	s5,-25
e0000f60:	c26c                	sw	a1,68(a2)
e0000f62:	e2ac                	.2byte	0xe2ac
e0000f64:	0000                	unimp
e0000f66:	a220                	.2byte	0xa220
e0000f68:	83ed                	srli	a5,a5,0x1b
e0000f6a:	98ad                	andi	s1,s1,-21
e0000f6c:	436d                	li	t1,27
e0000f6e:	63ad                	lui	t2,0xb
e0000f70:	0000                	unimp
e0000f72:	2320                	.2byte	0x2320
e0000f74:	0ced                	addi	s9,s9,27
e0000f76:	6c7c                	.2byte	0x6c7c
e0000f78:	c46d                	beqz	s0,e0001062 <FLASH_ALSAQR_BOOT_SIGNED+0xb1a>
e0000f7a:	e4ad                	bnez	s1,e0000fe4 <FLASH_ALSAQR_BOOT_SIGNED+0xa9c>
e0000f7c:	0000                	unimp
e0000f7e:	a420                	.2byte	0xa420
e0000f80:	8dec                	.2byte	0x8dec
e0000f82:	11bc                	addi	a5,sp,232
e0000f84:	4d6c                	lw	a1,92(a0)
e0000f86:	6dac                	.2byte	0x6dac
e0000f88:	0000                	unimp
e0000f8a:	2d20                	.2byte	0x2d20
e0000f8c:	0eec                	addi	a1,sp,860
e0000f8e:	5ffd                	li	t6,-1
e0000f90:	ce6c                	sw	a1,92(a2)
e0000f92:	eeac                	.2byte	0xeeac
e0000f94:	0000                	unimp
e0000f96:	ae20                	.2byte	0xae20
e0000f98:	8fed                	and	a5,a5,a1
e0000f9a:	9dcd                	.2byte	0x9dcd
e0000f9c:	4f6d                	li	t5,27
e0000f9e:	6fad                	lui	t6,0xb
e0000fa0:	0000                	unimp
e0000fa2:	2f20                	.2byte	0x2f20
e0000fa4:	2f3d                	jal	e00016e2 <FLASH_ALSAQR_BOOT_SIGNED+0x119a>
e0000fa6:	6912                	.2byte	0x6912
e0000fa8:	0002                	c.slli64	zero
e0000faa:	0000a963          	.4byte	0xa963
e0000fae:	2f30                	.2byte	0x2f30
e0000fb0:	aff00ef3          	.4byte	0xaff00ef3
e0000fb4:	dd5c0163          	beq	s8,s5,e0000576 <FLASH_ALSAQR_BOOT_SIGNED+0x2e>
e0000fb8:	0000                	unimp
e0000fba:	4100                	lw	s0,0(a0)
e0000fbc:	0010                	.2byte	0x10
e0000fbe:	0560                	addi	s0,sp,652
e0000fc0:	06f6                	slli	a3,a3,0x1d
e0000fc2:	ae00                	.2byte	0xae00
e0000fc4:	0000                	unimp
e0000fc6:	8e00                	.2byte	0x8e00
e0000fc8:	416c                	lw	a1,68(a0)
e0000fca:	ae4c                	.2byte	0xae4c
e0000fcc:	8810                	.2byte	0x8810
e0000fce:	0000206f          	j	e0002fce <FLASH_ALSAQR_BOOT_SIGNED+0x2a86>
e0000fd2:	1130                	addi	a2,sp,168
e0000fd4:	c26c                	sw	a1,68(a2)
e0000fd6:	56ec                	lw	a1,108(a3)
e0000fd8:	81ec                	.2byte	0x81ec
e0000fda:	a22c                	.2byte	0xa22c
e0000fdc:	0000                	unimp
e0000fde:	61a0                	.2byte	0x61a0
e0000fe0:	436d                	li	t1,27
e0000fe2:	18ad                	addi	a7,a7,-21
e0000fe4:	02ec                	addi	a1,sp,332
e0000fe6:	232d                	jal	e0001510 <FLASH_ALSAQR_BOOT_SIGNED+0xfc8>
e0000fe8:	0000                	unimp
e0000fea:	e2a0                	.2byte	0xe2a0
e0000fec:	c46d                	beqz	s0,e00010d6 <FLASH_ALSAQR_BOOT_SIGNED+0xb8e>
e0000fee:	4a9d                	li	s5,7
e0000ff0:	83ed                	srli	a5,a5,0x1b
e0000ff2:	a42d                	j	e000121c <FLASH_ALSAQR_BOOT_SIGNED+0xcd4>
e0000ff4:	0000                	unimp
e0000ff6:	63a0                	.2byte	0x63a0
e0000ff8:	4d6c                	lw	a1,92(a0)
e0000ffa:	9c7c                	.2byte	0x9c7c
e0000ffc:	0ced                	addi	s9,s9,27
e0000ffe:	2d2c                	.2byte	0x2d2c
e0001000:	0000                	unimp
e0001002:	e4a0                	.2byte	0xe4a0
e0001004:	ce6c                	sw	a1,92(a2)
e0001006:	538c                	lw	a1,32(a5)
e0001008:	8dec                	.2byte	0x8dec
e000100a:	ae2c                	.2byte	0xae2c
e000100c:	0000                	unimp
e000100e:	6da0                	.2byte	0x6da0
e0001010:	4f6d                	li	t5,27
e0001012:	1dcd                	addi	s11,s11,-13
e0001014:	0eec                	addi	a1,sp,860
e0001016:	2f2d                	jal	e0001750 <FLASH_ALSAQR_BOOT_SIGNED+0x1208>
e0001018:	0000                	unimp
e000101a:	eea0                	.2byte	0xeea0
e000101c:	0002                	c.slli64	zero
e000101e:	8fed46e3          	blt	s10,t5,e000090a <FLASH_ALSAQR_BOOT_SIGNED+0x3c2>
e0001022:	2f3d                	jal	e0001760 <FLASH_ALSAQR_BOOT_SIGNED+0x1218>
e0001024:	0000                	unimp
e0001026:	6fa0                	.2byte	0x6fa0
e0001028:	956c0163          	beq	s8,s6,e000016a <qprints.constprop.0+0x70>
e000102c:	2f3d                	jal	e000176a <FLASH_ALSAQR_BOOT_SIGNED+0x1222>
e000102e:	4102                	lw	sp,0(sp)
e0001030:	0000                	unimp
e0001032:	a960                	.2byte	0xa960
e0001034:	06f6                	slli	a3,a3,0x1d
e0001036:	ce40                	sw	s0,28(a2)
e0001038:	56000ef3          	.4byte	0x56000ef3
e000103c:	0000                	unimp
e000103e:	5450                	lw	a2,44(s0)
e0001040:	8810                	.2byte	0x8810
e0001042:	0010d23f 00001130 	.8byte	0x11300010d23f
e000104a:	5a00                	lw	s0,48(a2)
e000104c:	81ec                	.2byte	0x81ec
e000104e:	1b2c                	addi	a1,sp,440
e0001050:	416c                	lw	a1,68(a0)
e0001052:	61ac                	.2byte	0x61ac
e0001054:	0000                	unimp
e0001056:	2060                	.2byte	0x2060
e0001058:	02ec                	addi	a1,sp,332
e000105a:	5a9d                	li	s5,-25
e000105c:	c26c                	sw	a1,68(a2)
e000105e:	e2ac                	.2byte	0xe2ac
e0001060:	0000                	unimp
e0001062:	a220                	.2byte	0xa220
e0001064:	83ed                	srli	a5,a5,0x1b
e0001066:	98ad                	andi	s1,s1,-21
e0001068:	436d                	li	t1,27
e000106a:	63ad                	lui	t2,0xb
e000106c:	0000                	unimp
e000106e:	2320                	.2byte	0x2320
e0001070:	0ced                	addi	s9,s9,27
e0001072:	6c7c                	.2byte	0x6c7c
e0001074:	c46d                	beqz	s0,e000115e <FLASH_ALSAQR_BOOT_SIGNED+0xc16>
e0001076:	e4ad                	bnez	s1,e00010e0 <FLASH_ALSAQR_BOOT_SIGNED+0xb98>
e0001078:	0000                	unimp
e000107a:	a420                	.2byte	0xa420
e000107c:	8dec                	.2byte	0x8dec
e000107e:	11bc                	addi	a5,sp,232
e0001080:	4d6c                	lw	a1,92(a0)
e0001082:	6dac                	.2byte	0x6dac
e0001084:	0000                	unimp
e0001086:	2d20                	.2byte	0x2d20
e0001088:	0eec                	addi	a1,sp,860
e000108a:	5ffd                	li	t6,-1
e000108c:	ce6c                	sw	a1,92(a2)
e000108e:	eeac                	.2byte	0xeeac
e0001090:	0000                	unimp
e0001092:	ae20                	.2byte	0xae20
e0001094:	8fed                	and	a5,a5,a1
e0001096:	9dcd                	.2byte	0x9dcd
e0001098:	4f6d                	li	t5,27
e000109a:	6fad                	lui	t6,0xb
e000109c:	0000                	unimp
e000109e:	2f20                	.2byte	0x2f20
e00010a0:	2f3d                	jal	e00017de <FLASH_ALSAQR_BOOT_SIGNED+0x1296>
e00010a2:	6912                	.2byte	0x6912
e00010a4:	0002                	c.slli64	zero
e00010a6:	0000a963          	.4byte	0xa963
e00010aa:	2f30                	.2byte	0x2f30
e00010ac:	b7500ef3          	.4byte	0xb7500ef3
e00010b0:	5b1c0163          	beq	s8,a7,e0001652 <FLASH_ALSAQR_BOOT_SIGNED+0x110a>
e00010b4:	0000                	unimp
e00010b6:	4100                	lw	s0,0(a0)
e00010b8:	0010                	.2byte	0x10
e00010ba:	a8a0                	.2byte	0xa8a0
e00010bc:	06f6                	slli	a3,a3,0x1d
e00010be:	0600                	addi	s0,sp,768
e00010c0:	0000                	unimp
e00010c2:	f600                	.2byte	0xf600
e00010c4:	4028                	lw	a0,64(s0)
e00010c6:	61bd                	lui	gp,0xf
e00010c8:	0002                	c.slli64	zero
e00010ca:	2930                	.2byte	0x2930
e00010cc:	0000                	unimp
e00010ce:	2970                	.2byte	0x2970
e00010d0:	0030                	addi	a2,sp,8
e00010d2:	7e40                	.2byte	0x7e40
e00010d4:	0028                	addi	a0,sp,8
e00010d6:	8630                	.2byte	0x8630
e00010d8:	0000                	unimp
e00010da:	3030                	.2byte	0x3030
e00010dc:	9c3a                	add	s8,s8,a4
e00010de:	18a8                	addi	a0,sp,120
e00010e0:	0002                	c.slli64	zero
e00010e2:	0000383f 07343970 	.8byte	0x73439700000383f
e00010ea:	3a99                	jal	e0000a40 <FLASH_ALSAQR_BOOT_SIGNED+0x4f8>
e00010ec:	003a                	c.slli	zero,0xe
e00010ee:	2820                	.2byte	0x2820
e00010f0:	0000                	unimp
e00010f2:	1030                	addi	a2,sp,40
e00010f4:	0029                	c.nop	10
e00010f6:	2d631563          	bne	t1,s6,e00013c0 <FLASH_ALSAQR_BOOT_SIGNED+0xe78>
e00010fa:	0735                	addi	a4,a4,13
e00010fc:	0000                	unimp
e00010fe:	4120                	lw	s0,64(a0)
e0001100:	3c24                	.2byte	0x3c24
e0001102:	ba94                	.2byte	0xba94
e0001104:	2a24                	.2byte	0x2a24
e0001106:	3324                	.2byte	0x3324
e0001108:	0000                	unimp
e000110a:	0920                	addi	s0,sp,152
e000110c:	5824                	lw	s1,112(s0)
e000110e:	4755                	li	a4,21
e0001110:	4e24                	lw	s1,88(a2)
e0001112:	5724                	lw	s1,104(a4)
e0001114:	0000                	unimp
e0001116:	4520                	lw	s0,72(a0)
e0001118:	7c25                	lui	s8,0xfffe9
e000111a:	2005                	jal	e000113a <FLASH_ALSAQR_BOOT_SIGNED+0xbf2>
e000111c:	6a25                	lui	s4,0x9
e000111e:	7325                	lui	t1,0xfffe9
e0001120:	0000                	unimp
e0001122:	6120                	.2byte	0x6120
e0001124:	9865                	andi	s0,s0,-7
e0001126:	a754                	.2byte	0xa754
e0001128:	8e25                	xor	a2,a2,s1
e000112a:	9725                	srai	a4,a4,0x29
e000112c:	0000                	unimp
e000112e:	8520                	.2byte	0x8520
e0001130:	bc64                	.2byte	0xbc64
e0001132:	3c74                	.2byte	0x3c74
e0001134:	aa64                	.2byte	0xaa64
e0001136:	b364                	.2byte	0xb364
e0001138:	0000                	unimp
e000113a:	a160                	.2byte	0xa160
e000113c:	d864                	sw	s1,116(s0)
e000113e:	0a95                	addi	s5,s5,5
e0001140:	ce64                	sw	s1,92(a2)
e0001142:	d764                	sw	s1,108(a4)
e0001144:	0000                	unimp
e0001146:	c560                	sw	s0,76(a0)
e0001148:	fc65                	bnez	s0,e0001140 <FLASH_ALSAQR_BOOT_SIGNED+0xbf8>
e000114a:	6dc5                	lui	s11,0x11
e000114c:	ea65                	bnez	a2,e000123c <FLASH_ALSAQR_BOOT_SIGNED+0xcf4>
e000114e:	f365                	bnez	a4,e000112e <FLASH_ALSAQR_BOOT_SIGNED+0xbe6>
e0001150:	0000                	unimp
e0001152:	e160                	.2byte	0xe160
e0001154:	0200                	addi	s0,sp,256
e0001156:	7810f913          	andi	s2,ra,1921
e000115a:	0730                	addi	a2,sp,904
e000115c:	0000                	unimp
e000115e:	1130                	addi	a2,sp,168
e0001160:	0000                	unimp
e0001162:	60618917          	auipc	s2,0x60618
e0001166:	0efc                	addi	a5,sp,860
e0001168:	0000                	unimp
e000116a:	1410                	addi	a2,sp,544
e000116c:	5850                	lw	a2,52(s0)
e000116e:	b8a4                	.2byte	0xb8a4
e0001170:	5372                	lw	t1,60(sp)
e0001172:	c000                	sw	s0,0(s0)
e0001174:	0000                	unimp
e0001176:	0350                	addi	a2,sp,388
e0001178:	6130                	.2byte	0x6130
e000117a:	ec70                	.2byte	0xec70
e000117c:	537d                	li	t1,-1
e000117e:	c002                	sw	zero,0(sp)
e0001180:	0000                	unimp
e0001182:	50c0                	lw	s0,36(s1)
e0001184:	5370                	lw	a2,100(a4)
e0001186:	9ff4                	.2byte	0x9ff4
e0001188:	0234                	addi	a3,sp,264
e000118a:	8c52                	mv	s8,s4
e000118c:	0000                	unimp
e000118e:	0000                	unimp
e0001190:	1108                	addi	a0,sp,160
e0001192:	8dcc                	.2byte	0x8dcc
e0001194:	6371                	lui	t1,0x1c
e0001196:	0000                	unimp
e0001198:	0000                	unimp
e000119a:	0400                	addi	s0,sp,512
e000119c:	073c                	addi	a5,sp,904
e000119e:	98a0                	.2byte	0x98a0
e00011a0:	2450                	.2byte	0x2450
e00011a2:	10c0                	addi	s0,sp,100
e00011a4:	0000                	unimp
e00011a6:	5130                	lw	a2,96(a0)
e00011a8:	6061                	c.lui	zero,0x18
e00011aa:	e38c                	.2byte	0xe38c
e00011ac:	ff51                	bnez	a4,e0001148 <FLASH_ALSAQR_BOOT_SIGNED+0xc00>
e00011ae:	0000141b          	.4byte	0x141b
e00011b2:	0500                	addi	s0,sp,640
e00011b4:	62a2                	.2byte	0x62a2
e00011b6:	ddc8                	sw	a0,60(a1)
e00011b8:	6400                	.2byte	0x6400
e00011ba:	00008993          	mv	s3,ra
e00011be:	5130                	lw	a2,96(a0)
e00011c0:	2b61                	jal	e0001758 <FLASH_ALSAQR_BOOT_SIGNED+0x1210>
e00011c2:	cdc0                	sw	s0,28(a1)
e00011c4:	3900                	.2byte	0x3900
e00011c6:	0000b637          	lui	a2,0xb
e00011ca:	5930                	lw	a2,112(a0)
e00011cc:	0000                	unimp
e00011ce:	de40                	sw	s0,60(a2)
e00011d0:	0b50                	addi	a2,sp,404
e00011d2:	0000                	unimp
e00011d4:	0000                	unimp
e00011d6:	6630                	.2byte	0x6630
e00011d8:	0460                	addi	s0,sp,524
e00011da:	cb2c                	sw	a1,80(a4)
e00011dc:	0000                	unimp
e00011de:	5370                	lw	a2,100(a4)
e00011e0:	0000                	unimp
e00011e2:	0000                	unimp
e00011e4:	e234                	.2byte	0xe234
e00011e6:	7382                	.2byte	0x7382
e00011e8:	c234                	sw	a3,64(a2)
e00011ea:	4b52                	lw	s6,20(sp)
e00011ec:	0000                	unimp
e00011ee:	5910                	lw	a2,48(a0)
e00011f0:	5e14                	lw	a3,56(a2)
e00011f2:	0ff4                	addi	a3,sp,988
e00011f4:	0234                	addi	a3,sp,264
e00011f6:	6b52                	.2byte	0x6b52
e00011f8:	0000                	unimp
e00011fa:	4b50                	lw	a2,20(a4)
e00011fc:	2234                	.2byte	0x2234
e00011fe:	fb22                	.2byte	0xfb22
e0001200:	4b52                	lw	s6,20(sp)
e0001202:	5e51                	li	t3,-12
e0001204:	0000                	unimp
e0001206:	0230                	addi	a2,sp,264
e0001208:	5e91                	li	t4,-28
e000120a:	5384                	lw	s1,32(a5)
e000120c:	5131                	li	sp,-20
e000120e:	4850                	lw	a2,20(s0)
e0001210:	0000                	unimp
e0001212:	4b50                	lw	a2,20(a4)
e0001214:	5edc                	lw	a5,60(a3)
e0001216:	b754                	.2byte	0xb754
e0001218:	537c                	lw	a5,100(a4)
e000121a:	0460                	addi	s0,sp,524
e000121c:	0000                	unimp
e000121e:	10c0                	addi	s0,sp,100
e0001220:	2d00                	.2byte	0x2d00
e0001222:	f000                	.2byte	0xf000
e0001224:	8b52                	mv	s6,s4
e0001226:	5931                	li	s2,-20
e0001228:	0000                	unimp
e000122a:	8230                	.2byte	0x8230
e000122c:	1414                	addi	a3,sp,544
e000122e:	2750                	.2byte	0x2750
e0001230:	eb52                	.2byte	0xeb52
e0001232:	0b22                	slli	s6,s6,0x8
e0001234:	0000                	unimp
e0001236:	8230                	.2byte	0x8230
e0001238:	52ec                	lw	a1,100(a3)
e000123a:	11b9                	addi	gp,gp,-18 # efee <_stack_len+0x6fee>
e000123c:	5b78                	lw	a4,116(a4)
e000123e:	0131                	addi	sp,sp,12
e0001240:	0000                	unimp
e0001242:	0820                	addi	s0,sp,24
e0001244:	e061                	bnez	s0,e0001304 <FLASH_ALSAQR_BOOT_SIGNED+0xdbc>
e0001246:	b38c                	.2byte	0xb38c
e0001248:	c600                	sw	s0,8(a2)
e000124a:	1016                	c.slli	zero,0x25
e000124c:	0000                	unimp
e000124e:	06f0                	addi	a2,sp,844
e0001250:	a450                	.2byte	0xa450
e0001252:	00011917          	auipc	s2,0x11
e0001256:	0000513f 10545170 	.8byte	0x105451700000513f
e000125e:	0566                	slli	a0,a0,0x19
e0001260:	5094                	lw	a3,32(s1)
e0001262:	0f2c                	addi	a1,sp,920
e0001264:	0000                	unimp
e0001266:	1080                	addi	s0,sp,96
e0001268:	44d00003          	lb	zero,1101(zero) # 44d <_min_stack-0x1bb3>
e000126c:	a300                	.2byte	0xa300
e000126e:	5171                	li	sp,-4
e0001270:	0000                	unimp
e0001272:	06f0                	addi	a2,sp,844
e0001274:	9114                	.2byte	0x9114
e0001276:	11bc                	addi	a5,sp,232
e0001278:	e050                	.2byte	0xe050
e000127a:	1089                	addi	ra,ra,-30
e000127c:	0000                	unimp
e000127e:	5130                	lw	a2,96(a0)
e0001280:	3050                	.2byte	0x3050
e0001282:	000fa757          	.4byte	0xfa757
e0001286:	5131                	li	sp,-20
e0001288:	0000                	unimp
e000128a:	5170                	lw	a2,100(a0)
e000128c:	06f6                	slli	a3,a3,0x1d
e000128e:	8b21                	andi	a4,a4,8
e0001290:	0f24                	addi	s1,sp,920
e0001292:	1054                	addi	a3,sp,36
e0001294:	0000                	unimp
e0001296:	5810                	lw	a2,48(s0)
e0001298:	5930                	lw	a2,112(a0)
e000129a:	a008                	.2byte	0xa008
e000129c:	5970                	lw	a2,116(a0)
e000129e:	0002                	c.slli64	zero
e00012a0:	0000                	unimp
e00012a2:	a200                	.2byte	0xa200
e00012a4:	0ef4                	addi	a3,sp,860
e00012a6:	3911                	jal	e0000eba <FLASH_ALSAQR_BOOT_SIGNED+0x972>
e00012a8:	028e                	slli	t0,t0,0x3
e00012aa:	6510                	.2byte	0x6510
e00012ac:	0000                	unimp
e00012ae:	7250                	.2byte	0x7250
e00012b0:	eb00                	.2byte	0xeb00
e00012b2:	02818a97          	auipc	s5,0x2818
e00012b6:	0ef0                	addi	a2,sp,860
e00012b8:	0000                	unimp
e00012ba:	6900                	.2byte	0x6900
e00012bc:	1798                	addi	a4,sp,992
e00012be:	1054b1b7          	lui	gp,0x1054b
e00012c2:	0826                	slli	a6,a6,0x9
e00012c4:	0000                	unimp
e00012c6:	0f20                	addi	s0,sp,920
e00012c8:	04ad                	addi	s1,s1,11
e00012ca:	01bd                	addi	gp,gp,15 # 1054b00f <tohost+0x1052b007>
e00012cc:	422d                	li	tp,11
e00012ce:	226d                	jal	e0001478 <FLASH_ALSAQR_BOOT_SIGNED+0xf30>
e00012d0:	0000                	unimp
e00012d2:	6060                	.2byte	0x6060
e00012d4:	eb200ef3          	.4byte	0xeb200ef3
e00012d8:	5136                	lw	sp,108(sp)
e00012da:	5450                	lw	a2,44(s0)
e00012dc:	0000                	unimp
e00012de:	5110                	lw	a2,32(a0)
e00012e0:	5130                	lw	a2,96(a0)
e00012e2:	a380                	.2byte	0xa380
e00012e4:	00035177          	.4byte	0x35177
e00012e8:	0000                	unimp
e00012ea:	0b00                	addi	s0,sp,400
e00012ec:	b8a00003          	lb	zero,-1142(zero) # fffffb8a <fromhost+0x1ffefb7a>
e00012f0:	1089                	addi	ra,ra,-30
e00012f2:	9174                	.2byte	0x9174
e00012f4:	0000                	unimp
e00012f6:	7650                	.2byte	0x7650
e00012f8:	0002                	c.slli64	zero
e00012fa:	0000                	unimp
e00012fc:	8890                	.2byte	0x8890
e00012fe:	4979                	li	s2,30
e0001300:	0000                	unimp
e0001302:	9130                	.2byte	0x9130
e0001304:	211c                	.2byte	0x211c
e0001306:	2562                	.2byte	0x2562
e0001308:	c448                	sw	a0,12(s0)
e000130a:	000091db          	.4byte	0x91db
e000130e:	4930                	lw	a2,80(a0)
e0001310:	9114                	.2byte	0x9114
e0001312:	5ffc                	lw	a5,124(a5)
e0001314:	0092                	slli	ra,ra,0x4
e0001316:	0c00                	addi	s0,sp,528
e0001318:	0000                	unimp
e000131a:	5030                	lw	a2,96(s0)
e000131c:	dc50                	sw	a2,60(s0)
e000131e:	eb26                	.2byte	0xeb26
e0001320:	5131000f          	.4byte	0x5131000f
e0001324:	0000                	unimp
e0001326:	5170                	lw	a2,100(a0)
e0001328:	3c01                	jal	e0000d38 <FLASH_ALSAQR_BOOT_SIGNED+0x7f0>
e000132a:	e560                	.2byte	0xe560
e000132c:	6224                	.2byte	0x6224
e000132e:	0ef8                	addi	a4,sp,860
e0001330:	0000                	unimp
e0001332:	5850                	lw	a2,52(s0)
e0001334:	5930                	lw	a2,112(a0)
e0001336:	adc8                	.2byte	0xadc8
e0001338:	597a                	lw	s2,188(sp)
e000133a:	0002                	c.slli64	zero
e000133c:	0000                	unimp
e000133e:	8290                	.2byte	0x8290
e0001340:	0ef4                	addi	a3,sp,860
e0001342:	ab21                	j	e000185a <FLASH_ALSAQR_BOOT_SIGNED+0x1312>
e0001344:	50ae                	lw	ra,232(sp)
e0001346:	6518                	.2byte	0x6518
e0001348:	0000                	unimp
e000134a:	1e50                	addi	a2,sp,820
e000134c:	0ef8                	addi	a4,sp,860
e000134e:	f4d0                	.2byte	0xf4d0
e0001350:	50a1                	li	ra,-24
e0001352:	5a28                	lw	a0,112(a2)
e0001354:	0000                	unimp
e0001356:	0100                	addi	s0,sp,128
e0001358:	82cc                	.2byte	0x82cc
e000135a:	94d0                	.2byte	0x94d0
e000135c:	11f05377          	.4byte	0x11f05377
e0001360:	0000                	unimp
e0001362:	8100                	.2byte	0x8100
e0001364:	42ac                	lw	a1,64(a3)
e0001366:	adc8                	.2byte	0xadc8
e0001368:	a300                	.2byte	0xa300
e000136a:	d1d6                	sw	s5,224(sp)
e000136c:	0000                	unimp
e000136e:	0ef0                	addi	a2,sp,860
e0001370:	517c                	lw	a5,100(a0)
e0001372:	0092f8af          	.4byte	0x92f8af
e0001376:	9110                	.2byte	0x9110
e0001378:	0000                	unimp
e000137a:	5030                	lw	a2,96(s0)
e000137c:	5856                	lw	a6,116(sp)
e000137e:	b234                	.2byte	0xb234
e0001380:	5131                	li	sp,-20
e0001382:	b250                	.2byte	0xb250
e0001384:	0000                	unimp
e0001386:	0000                	unimp
e0001388:	11ba8297          	auipc	t0,0x11ba8
e000138c:	0ef8                	addi	a4,sp,860
e000138e:	ff00                	.2byte	0xff00
e0001390:	0000                	unimp
e0001392:	6220                	.2byte	0x6220
e0001394:	f458                	.2byte	0xf458
e0001396:	bffd                	j	e0001394 <FLASH_ALSAQR_BOOT_SIGNED+0xe4c>
e0001398:	0002                	c.slli64	zero
e000139a:	5930                	lw	a2,112(a0)
e000139c:	0000                	unimp
e000139e:	5970                	lw	a2,116(a0)
e00013a0:	c301                	beqz	a4,e00013a0 <FLASH_ALSAQR_BOOT_SIGNED+0xe58>
e00013a2:	c380                	sw	s0,0(a5)
e00013a4:	6518                	.2byte	0x6518
e00013a6:	0ef4                	addi	a3,sp,860
e00013a8:	0000                	unimp
e00013aa:	50a0                	lw	s0,96(s1)
e00013ac:	4300                	lw	s0,0(a4)
e00013ae:	5a28bdc7          	.4byte	0x5a28bdc7
e00013b2:	0ef8                	addi	a4,sp,860
e00013b4:	0000                	unimp
e00013b6:	50a0                	lw	s0,96(s1)
e00013b8:	0efa                	slli	t4,t4,0x1e
e00013ba:	fe40                	.2byte	0xfe40
e00013bc:	5136                	lw	sp,108(sp)
e00013be:	ad50                	.2byte	0xad50
e00013c0:	0000                	unimp
e00013c2:	5310                	lw	a2,32(a4)
e00013c4:	0ef0                	addi	a2,sp,860
e00013c6:	f910                	.2byte	0xf910
e00013c8:	50a6                	lw	ra,104(sp)
e00013ca:	82c8                	.2byte	0x82c8
e00013cc:	0000                	unimp
e00013ce:	7300                	.2byte	0x7300
e00013d0:	8e40513f 00015175 	.8byte	0x151758e40513f
e00013d8:	0000                	unimp
e00013da:	d300                	sw	s0,32(a4)
e00013dc:	0ef4                	addi	a3,sp,860
e00013de:	f8a1                	bnez	s1,e000132e <FLASH_ALSAQR_BOOT_SIGNED+0xde6>
e00013e0:	58a6                	lw	a7,104(sp)
e00013e2:	6618                	.2byte	0x6618
e00013e4:	0000                	unimp
e00013e6:	f250                	.2byte	0xf250
e00013e8:	11d0                	addi	a2,sp,228
e00013ea:	bdcc                	.2byte	0xbdcc
e00013ec:	5030                	lw	a2,96(s0)
e00013ee:	004c                	addi	a1,sp,4
e00013f0:	0000                	unimp
e00013f2:	9900                	.2byte	0x9900
e00013f4:	4450                	lw	a2,12(s0)
e00013f6:	ce41                	beqz	a2,e000148e <FLASH_ALSAQR_BOOT_SIGNED+0xf46>
e00013f8:	0000                	unimp
e00013fa:	5130                	lw	a2,96(a0)
e00013fc:	0000                	unimp
e00013fe:	5170                	lw	a2,100(a0)
e0001400:	2e58                	.2byte	0x2e58
e0001402:	0c7c                	addi	a5,sp,540
e0001404:	0002                	c.slli64	zero
e0001406:	5930                	lw	a2,112(a0)
e0001408:	0000                	unimp
e000140a:	5970                	lw	a2,116(a0)
e000140c:	6814                	.2byte	0x6814
e000140e:	be44                	.2byte	0xbe44
e0001410:	0000                	unimp
e0001412:	7051                	c.lui	zero,0xffff4
e0001414:	0000                	unimp
e0001416:	6130                	.2byte	0x6130
e0001418:	0ef6                	slli	t4,t4,0x1d
e000141a:	c6e0                	sw	s0,76(a3)
e000141c:	0ef4                	addi	a3,sp,860
e000141e:	4000                	lw	s0,0(s0)
e0001420:	0000                	unimp
e0001422:	7810                	.2byte	0x7810
e0001424:	a394                	.2byte	0xa394
e0001426:	4002                	.2byte	0x4002
e0001428:	0191                	addi	gp,gp,4
e000142a:	501a                	.2byte	0x501a
e000142c:	0000                	unimp
e000142e:	6900                	.2byte	0x6900
e0001430:	517c                	lw	a5,100(a0)
e0001432:	0092b1bf 00009090 	.8byte	0x90900092b1bf
e000143a:	5030                	lw	a2,96(s0)
e000143c:	5816                	lw	a6,100(sp)
e000143e:	f1b4                	.2byte	0xf1b4
e0001440:	5131                	li	sp,-20
e0001442:	4650                	lw	a2,12(a2)
e0001444:	0000                	unimp
e0001446:	0000                	unimp
e0001448:	597a                	lw	s2,188(sp)
e000144a:	2002                	.2byte	0x2002
e000144c:	8100                	.2byte	0x8100
e000144e:	00008217          	auipc	tp,0x8
e0001452:	0ef0                	addi	a2,sp,860
e0001454:	50ad                	li	ra,-21
e0001456:	aa98                	.2byte	0xaa98
e0001458:	5930                	lw	a2,112(a0)
e000145a:	8a58                	.2byte	0x8a58
e000145c:	0000                	unimp
e000145e:	0000                	unimp
e0001460:	50a0                	lw	s0,96(s1)
e0001462:	6b28                	.2byte	0x6b28
e0001464:	0ef4                	addi	a3,sp,860
e0001466:	4501                	li	a0,0
e0001468:	0000                	unimp
e000146a:	6510                	.2byte	0x6510
e000146c:	5136                	lw	sp,108(sp)
e000146e:	e230                	.2byte	0xe230
e0001470:	c700                	sw	s0,8(a4)
e0001472:	5316                	lw	t1,100(sp)
e0001474:	0000                	unimp
e0001476:	0ef0                	addi	a2,sp,860
e0001478:	9025                	srli	s0,s0,0x29
e000147a:	b6e5                	j	e0001062 <FLASH_ALSAQR_BOOT_SIGNED+0xb1a>
e000147c:	0efa                	slli	t4,t4,0x1e
e000147e:	f700                	.2byte	0xf700
e0001480:	0000                	unimp
e0001482:	ad50                	.2byte	0xad50
e0001484:	1455                	addi	s0,s0,-11
e0001486:	a8a6                	.2byte	0xa8a6
e0001488:	4225                	li	tp,9
e000148a:	0b25                	addi	s6,s6,9
e000148c:	0000                	unimp
e000148e:	4920                	lw	s0,80(a0)
e0001490:	c22c                	sw	a1,64(a2)
e0001492:	4b2c                	lw	a1,80(a4)
e0001494:	1018                	addi	a4,sp,32
e0001496:	e061                	bnez	s0,e0001556 <FLASH_ALSAQR_BOOT_SIGNED+0x100e>
e0001498:	0000                	unimp
e000149a:	0820                	addi	s0,sp,24
e000149c:	e918593f 0001597c 	.8byte	0x1597ce918593f
e00014a4:	0000                	unimp
e00014a6:	a260                	.2byte	0xa260
e00014a8:	0efc                	addi	a5,sp,860
e00014aa:	ddc1                	beqz	a1,e0001442 <FLASH_ALSAQR_BOOT_SIGNED+0xefa>
e00014ac:	5376                	lw	t1,124(sp)
e00014ae:	0000                	unimp
e00014b0:	0000                	unimp
e00014b2:	0e50                	addi	a2,sp,788
e00014b4:	4930                	lw	a2,80(a0)
e00014b6:	74d8                	.2byte	0x74d8
e00014b8:	4976                	lw	s2,92(sp)
e00014ba:	00000003          	lb	zero,0(zero) # 0 <_min_stack-0x2000>
e00014be:	7600                	.2byte	0x7600
e00014c0:	0888                	addi	a0,sp,80
e00014c2:	f564                	.2byte	0xf564
e00014c4:	d158                	sw	a4,36(a0)
e00014c6:	42ac                	lw	a1,64(a3)
e00014c8:	0000                	unimp
e00014ca:	5a40                	lw	s0,52(a2)
e00014cc:	5131                	li	sp,-20
e00014ce:	d750                	sw	a2,44(a4)
e00014d0:	517c                	lw	a5,100(a0)
e00014d2:	0000000f          	fence	unknown,unknown
e00014d6:	9110                	.2byte	0x9110
e00014d8:	0ef8                	addi	a4,sp,860
e00014da:	9560                	.2byte	0x9560
e00014dc:	5855                	li	a6,-11
e00014de:	6224                	.2byte	0x6224
e00014e0:	0000                	unimp
e00014e2:	f650                	.2byte	0xf650
e00014e4:	0002                	c.slli64	zero
e00014e6:	a8a0                	.2byte	0xa8a0
e00014e8:	597a8297          	auipc	t0,0x597a8
e00014ec:	0000                	unimp
e00014ee:	1b00                	addi	s0,sp,432
e00014f0:	6518                	.2byte	0x6518
e00014f2:	b384                	.2byte	0xb384
e00014f4:	3858                	.2byte	0x3858
e00014f6:	50ad                	li	ra,-21
e00014f8:	0000                	unimp
e00014fa:	5930                	lw	a2,112(a0)
e00014fc:	5a28                	lw	a0,112(a2)
e00014fe:	dc78                	sw	a4,124(s0)
e0001500:	de01                	beqz	a2,e0001418 <FLASH_ALSAQR_BOOT_SIGNED+0xed0>
e0001502:	000050a7          	.4byte	0x50a7
e0001506:	0ef0                	addi	a2,sp,860
e0001508:	5136                	lw	sp,108(sp)
e000150a:	8b20                	.2byte	0x8b20
e000150c:	5f00                	lw	s0,56(a4)
e000150e:	5316                	lw	t1,100(sp)
e0001510:	0000                	unimp
e0001512:	0ef0                	addi	a2,sp,860
e0001514:	5175                	li	sp,-3
e0001516:	0efa4a93          	xori	s5,s4,239
e000151a:	8f00                	.2byte	0x8f00
e000151c:	0000                	unimp
e000151e:	ad50                	.2byte	0xad50
e0001520:	1088                	addi	a0,sp,96
e0001522:	14d4                	addi	a3,sp,612
e0001524:	5130                	lw	a2,96(a0)
e0001526:	0a50                	addi	a2,sp,276
e0001528:	0000                	unimp
e000152a:	0000                	unimp
e000152c:	f858                	.2byte	0xf858
e000152e:	0002f6e7          	.4byte	0x2f6e7
e0001532:	5930                	lw	a2,112(a0)
e0001534:	0000                	unimp
e0001536:	5970                	lw	a2,116(a0)
e0001538:	402c                	lw	a1,64(s0)
e000153a:	84dc                	.2byte	0x84dc
e000153c:	02a4                	addi	s1,sp,328
e000153e:	22ec                	.2byte	0x22ec
e0001540:	0000                	unimp
e0001542:	18c0                	addi	s0,sp,116
e0001544:	0001                	nop
e0001546:	62a4d1bf 0000517c 	.8byte	0x517c62a4d1bf
e000154e:	5050                	lw	a2,36(s0)
e0001550:	0ef8                	addi	a4,sp,860
e0001552:	81b1                	srli	a1,a1,0xc
e0001554:	9c50                	.2byte	0x9c50
e0001556:	58a5                	li	a7,-23
e0001558:	0000                	unimp
e000155a:	5130                	lw	a2,96(a0)
e000155c:	0888                	addi	a0,sp,80
e000155e:	6004                	.2byte	0x6004
e0001560:	d156                	sw	s5,160(sp)
e0001562:	42ac                	lw	a1,64(a3)
e0001564:	0000                	unimp
e0001566:	1400                	addi	s0,sp,544
e0001568:	5131                	li	sp,-20
e000156a:	d750                	sw	a2,44(a4)
e000156c:	517c                	lw	a5,100(a0)
e000156e:	0000000f          	fence	unknown,unknown
e0001572:	9110                	.2byte	0x9110
e0001574:	0ef8                	addi	a4,sp,860
e0001576:	1ff0                	addi	a2,sp,1020
e0001578:	5855                	li	a6,-11
e000157a:	6224                	.2byte	0x6224
e000157c:	0000                	unimp
e000157e:	a250                	.2byte	0xa250
e0001580:	0002                	c.slli64	zero
e0001582:	e1b0                	.2byte	0xe1b0
e0001584:	8296                	mv	t0,t0
e0001586:	597a                	lw	s2,188(sp)
e0001588:	0000                	unimp
e000158a:	b300                	.2byte	0xb300
e000158c:	6518                	.2byte	0x6518
e000158e:	8c74                	.2byte	0x8c74
e0001590:	e458                	.2byte	0xe458
e0001592:	50ac                	lw	a1,96(s1)
e0001594:	0000                	unimp
e0001596:	5930                	lw	a2,112(a0)
e0001598:	5a28                	lw	a0,112(a2)
e000159a:	fc78                	.2byte	0xfc78
e000159c:	7601                	lui	a2,0xfffe0
e000159e:	000050a7          	.4byte	0x50a7
e00015a2:	0ef0                	addi	a2,sp,860
e00015a4:	5136                	lw	sp,108(sp)
e00015a6:	e750                	.2byte	0xe750
e00015a8:	f700                	.2byte	0xf700
e00015aa:	5315                	li	t1,-27
e00015ac:	0000                	unimp
e00015ae:	0ef0                	addi	a2,sp,860
e00015b0:	5175                	li	sp,-3
e00015b2:	2001                	jal	e00015b2 <FLASH_ALSAQR_BOOT_SIGNED+0x106a>
e00015b4:	0efa                	slli	t4,t4,0x1e
e00015b6:	2700                	.2byte	0x2700
e00015b8:	0000                	unimp
e00015ba:	ad50                	.2byte	0xad50
e00015bc:	0ef5                	addi	t4,t4,29
e00015be:	e4d0                	.2byte	0xe4d0
e00015c0:	5250513f 00000000 	.8byte	0x5250513f
e00015c8:	0f24                	addi	s1,sp,920
e00015ca:	c754                	sw	a3,12(a4)
e00015cc:	4d26                	lw	s10,72(sp)
e00015ce:	4624                	lw	s1,72(a2)
e00015d0:	0000                	unimp
e00015d2:	bb00                	.2byte	0xbb00
e00015d4:	e061                	bnez	s0,e0001694 <FLASH_ALSAQR_BOOT_SIGNED+0x114c>
e00015d6:	138c                	addi	a1,sp,480
e00015d8:	0826                	slli	a6,a6,0x9
e00015da:	1018                	addi	a4,sp,32
e00015dc:	0000                	unimp
e00015de:	1050                	addi	a2,sp,36
e00015e0:	4136                	lw	sp,76(sp)
e00015e2:	7230                	.2byte	0x7230
e00015e4:	a26c                	.2byte	0xa26c
e00015e6:	531c                	lw	a5,32(a4)
e00015e8:	0000                	unimp
e00015ea:	c220                	sw	s0,64(a2)
e00015ec:	d094                	sw	a3,32(s1)
e00015ee:	175c                	addi	a5,sp,932
e00015f0:	0efa                	slli	t4,t4,0x1e
e00015f2:	5f00                	lw	s0,56(a4)
e00015f4:	0000                	unimp
e00015f6:	ad50                	.2byte	0xad50
e00015f8:	5900                	lw	s0,48(a0)
e00015fa:	6384                	.2byte	0x6384
e00015fc:	0efc9193          	.4byte	0xefc9193
e0001600:	0000                	unimp
e0001602:	9c50                	.2byte	0x9c50
e0001604:	ad50                	.2byte	0xad50
e0001606:	56ea                	lw	a3,184(sp)
e0001608:	531e                	lw	t1,228(sp)
e000160a:	4136                	lw	sp,76(sp)
e000160c:	0000                	unimp
e000160e:	5090                	lw	a2,32(s1)
e0001610:	0d50                	addi	a2,sp,660
e0001612:	4c70                	lw	a2,92(s0)
e0001614:	525a                	lw	tp,180(sp)
e0001616:	4136                	lw	sp,76(sp)
e0001618:	0000                	unimp
e000161a:	0210                	addi	a2,sp,256
e000161c:	5050                	lw	a2,36(s0)
e000161e:	00021567          	.4byte	0x21567
e0001622:	5130                	lw	a2,96(a0)
e0001624:	0000                	unimp
e0001626:	5170                	lw	a2,100(a0)
e0001628:	0002                	c.slli64	zero
e000162a:	9230                	.2byte	0x9230
e000162c:	5314                	lw	a3,32(a4)
e000162e:	497c                	lw	a5,84(a0)
e0001630:	0000                	unimp
e0001632:	1080                	addi	s0,sp,96
e0001634:	014c                	addi	a1,sp,132
e0001636:	b750                	.2byte	0xb750
e0001638:	a448                	.2byte	0xa448
e000163a:	5039                	c.li	zero,-18
e000163c:	0000                	unimp
e000163e:	4930                	lw	a2,80(a0)
e0001640:	0002                	c.slli64	zero
e0001642:	9560                	.2byte	0x9560
e0001644:	5c5c                	lw	a5,60(s0)
e0001646:	00005173          	csrrwi	sp,ustatus,0
e000164a:	1110                	addi	a2,sp,160
e000164c:	0c44                	addi	s1,sp,532
e000164e:	1b24                	addi	s1,sp,440
e0001650:	5050                	lw	a2,36(s0)
e0001652:	00001087          	.4byte	0x1087
e0001656:	5130                	lw	a2,96(a0)
e0001658:	5131                	li	sp,-20
e000165a:	d750                	sw	a2,44(a4)
e000165c:	517c                	lw	a5,100(a0)
e000165e:	0000000f          	fence	unknown,unknown
e0001662:	9110                	.2byte	0x9110
e0001664:	0ef8                	addi	a4,sp,860
e0001666:	aff0                	.2byte	0xaff0
e0001668:	5855                	li	a6,-11
e000166a:	6264                	.2byte	0x6264
e000166c:	0000                	unimp
e000166e:	1650                	addi	a2,sp,804
e0001670:	0002                	c.slli64	zero
e0001672:	7e40                	.2byte	0x7e40
e0001674:	8296                	mv	t0,t0
e0001676:	597a                	lw	s2,188(sp)
e0001678:	0000                	unimp
e000167a:	1300                	addi	s0,sp,416
e000167c:	6518                	.2byte	0x6518
e000167e:	6754                	.2byte	0x6754
e0001680:	5858                	lw	a4,52(s0)
e0001682:	50ac                	lw	a1,96(s1)
e0001684:	0000                	unimp
e0001686:	5930                	lw	a2,112(a0)
e0001688:	5a68                	lw	a0,116(a2)
e000168a:	1008                	addi	a0,sp,32
e000168c:	d601                	beqz	a2,e0001594 <FLASH_ALSAQR_BOOT_SIGNED+0x104c>
e000168e:	50a6                	lw	ra,104(sp)
e0001690:	0000                	unimp
e0001692:	0ef0                	addi	a2,sp,860
e0001694:	5222                	lw	tp,40(sp)
e0001696:	d1b8                	sw	a4,96(a1)
e0001698:	5700                	lw	s0,40(a4)
e000169a:	8095                	srli	s1,s1,0x5
e000169c:	0000                	unimp
e000169e:	0ef0                	addi	a2,sp,860
e00016a0:	4624                	lw	s1,72(a2)
e00016a2:	b234                	.2byte	0xb234
e00016a4:	8900                	.2byte	0x8900
e00016a6:	4d24                	lw	s1,88(a0)
e00016a8:	0000                	unimp
e00016aa:	0ef0                	addi	a2,sp,860
e00016ac:	0828                	addi	a0,sp,24
e00016ae:	f758                	.2byte	0xf758
e00016b0:	1054                	addi	a3,sp,36
e00016b2:	0826                	slli	a6,a6,0x9
e00016b4:	0000                	unimp
e00016b6:	0f20                	addi	s0,sp,920
e00016b8:	0002                	c.slli64	zero
e00016ba:	e1b0                	.2byte	0xe1b0
e00016bc:	e061                	bnez	s0,e000177c <FLASH_ALSAQR_BOOT_SIGNED+0x1234>
e00016be:	517c                	lw	a5,100(a0)
e00016c0:	0000                	unimp
e00016c2:	1010                	addi	a2,sp,32
e00016c4:	d094                	sw	a3,32(s1)
e00016c6:	e56e                	.2byte	0xe56e
e00016c8:	0050                	addi	a2,sp,4
e00016ca:	00001087          	.4byte	0x1087
e00016ce:	5130                	lw	a2,96(a0)
e00016d0:	e058                	.2byte	0xe058
e00016d2:	fa9c                	.2byte	0xfa9c
e00016d4:	0002                	c.slli64	zero
e00016d6:	5930                	lw	a2,112(a0)
e00016d8:	0000                	unimp
e00016da:	5970                	lw	a2,116(a0)
e00016dc:	9a01                	andi	a2,a2,-32
e00016de:	a1b6                	.2byte	0xa1b6
e00016e0:	6510                	.2byte	0x6510
e00016e2:	0ef4                	addi	a3,sp,860
e00016e4:	0000                	unimp
e00016e6:	0280                	addi	s0,sp,320
e00016e8:	8015                	srli	s0,s0,0x5
e00016ea:	e00a                	.2byte	0xe00a
e00016ec:	0ef0                	addi	a2,sp,860
e00016ee:	1d00                	addi	s0,sp,688
e00016f0:	0000                	unimp
e00016f2:	0280                	addi	s0,sp,320
e00016f4:	c450                	sw	a2,12(s0)
e00016f6:	6564                	.2byte	0x6564
e00016f8:	5131000f          	.4byte	0x5131000f
e00016fc:	0000                	unimp
e00016fe:	5170                	lw	a2,100(a0)
e0001700:	5015                	c.li	zero,-27
e0001702:	0ff4                	addi	a3,sp,988
e0001704:	0ef4                	addi	a3,sp,860
e0001706:	af00                	.2byte	0xaf00
e0001708:	0000                	unimp
e000170a:	5810                	lw	a2,48(s0)
e000170c:	1014                	addi	a3,sp,32
e000170e:	b911                	j	e0001322 <FLASH_ALSAQR_BOOT_SIGNED+0xdda>
e0001710:	0ef2                	slli	t4,t4,0x1c
e0001712:	ed00                	.2byte	0xed00
e0001714:	0000                	unimp
e0001716:	8b90                	.2byte	0x8b90
e0001718:	5130                	lw	a2,96(a0)
e000171a:	c230                	sw	a2,64(a2)
e000171c:	517c                	lw	a5,100(a0)
e000171e:	0002                	c.slli64	zero
e0001720:	0000                	unimp
e0001722:	e060                	.2byte	0xe060
e0001724:	597e                	lw	s2,252(sp)
e0001726:	aa92                	.2byte	0xaa92
e0001728:	1086                	slli	ra,ra,0x21
e000172a:	d094                	sw	a3,32(s1)
e000172c:	0000                	unimp
e000172e:	c250                	sw	a2,4(a2)
e0001730:	028c                	addi	a1,sp,320
e0001732:	7380                	.2byte	0x7380
e0001734:	5930                	lw	a2,112(a0)
e0001736:	b658                	.2byte	0xb658
e0001738:	0000                	unimp
e000173a:	0000                	unimp
e000173c:	0286                	slli	t0,t0,0x1
e000173e:	7c70                	.2byte	0x7c70
e0001740:	0ef4                	addi	a3,sp,860
e0001742:	5c01                	li	s8,-32
e0001744:	0000                	unimp
e0001746:	6510                	.2byte	0x6510
e0001748:	517a                	lw	sp,188(sp)
e000174a:	575f df00 8014      	.byte	0x5f, 0x57, 0x00, 0xdf, 0x14, 0x80
e0001750:	0000                	unimp
e0001752:	0ef0                	addi	a2,sp,860
e0001754:	5814                	lw	a3,48(s0)
e0001756:	a004                	.2byte	0xa004
e0001758:	5131                	li	sp,-20
e000175a:	9a50                	.2byte	0x9a50
e000175c:	0000                	unimp
e000175e:	0000                	unimp
e0001760:	0054                	addi	a3,sp,4
e0001762:	b912                	.2byte	0xb912
e0001764:	7100                	.2byte	0x7100
e0001766:	5015                	c.li	zero,-27
e0001768:	0000                	unimp
e000176a:	0ef0                	addi	a2,sp,860
e000176c:	6061                	c.lui	zero,0x18
e000176e:	4c7c                	lw	a5,92(s0)
e0001770:	af00                	.2byte	0xaf00
e0001772:	1414                	addi	a3,sp,544
e0001774:	0000                	unimp
e0001776:	0ef0                	addi	a2,sp,860
e0001778:	00d4                	addi	a3,sp,68
e000177a:	a382                	.2byte	0xa382
e000177c:	0814                	addi	a3,sp,16
e000177e:	5052                	.2byte	0x5052
e0001780:	0000                	unimp
e0001782:	5050                	lw	a2,36(s0)
e0001784:	c4d45013          	.4byte	0xc4d45013
e0001788:	0b94                	addi	a3,sp,464
e000178a:	a312                	.2byte	0xa312
e000178c:	0000                	unimp
e000178e:	5050                	lw	a2,36(s0)
e0001790:	5098                	lw	a4,32(s1)
e0001792:	81bc                	.2byte	0x81bc
e0001794:	1414                	addi	a3,sp,544
e0001796:	0820                	addi	s0,sp,24
e0001798:	0000                	unimp
e000179a:	0b20                	addi	s0,sp,408
e000179c:	6ff80823          	sb	t6,1776(a6) # a6f0 <_stack_len+0x26f0>
e00017a0:	0734                	addi	a3,sp,904
e00017a2:	0052                	c.slli	zero,0x14
e00017a4:	0000                	unimp
e00017a6:	5210                	lw	a2,32(a2)
e00017a8:	cdc80823          	sb	t3,-816(a6)
e00017ac:	0734                	addi	a3,sp,904
e00017ae:	00000053          	.4byte	0x53
e00017b2:	5210                	lw	a2,32(a2)
e00017b4:	0050                	addi	a2,sp,4
e00017b6:	84d8                	.2byte	0x84d8
e00017b8:	505c                	lw	a5,36(s0)
e00017ba:	5136                	lw	sp,108(sp)
e00017bc:	0000                	unimp
e00017be:	5190                	lw	a2,32(a1)
e00017c0:	5058                	lw	a4,36(s0)
e00017c2:	8386                	mv	t2,ra
e00017c4:	0452                	slli	s0,s0,0x14
e00017c6:	00000823          	sb	zero,16(zero) # 10 <_min_stack-0x1ff0>
e00017ca:	0730                	addi	a2,sp,904
e00017cc:	b7530453          	.4byte	0xb7530453
e00017d0:	0050                	addi	a2,sp,4
e00017d2:	0738                	addi	a4,sp,904
e00017d4:	0000                	unimp
e00017d6:	5130                	lw	a2,96(a0)
e00017d8:	8000                	.2byte	0x8000
e00017da:	5750                	lw	a2,44(a4)
e00017dc:	5118                	lw	a4,32(a0)
e00017de:	513c                	lw	a5,96(a0)
e00017e0:	0000                	unimp
e00017e2:	0820                	addi	s0,sp,24
e00017e4:	5138                	lw	a4,96(a0)
e00017e6:	3910                	.2byte	0x3910
e00017e8:	0452                	slli	s0,s0,0x14
e00017ea:	00000823          	sb	zero,16(zero) # 10 <_min_stack-0x1ff0>
e00017ee:	0730                	addi	a2,sp,904
e00017f0:	6ff80823          	sb	t6,1776(a6)
e00017f4:	0730                	addi	a2,sp,904
e00017f6:	00000453          	.4byte	0x453
e00017fa:	8000                	.2byte	0x8000
e00017fc:	0452                	slli	s0,s0,0x14
e00017fe:	521cb233          	.4byte	0x521cb233
e0001802:	0734                	addi	a3,sp,904
e0001804:	0000                	unimp
e0001806:	5090                	lw	a2,32(s1)
e0001808:	51b30453          	.4byte	0x51b30453
e000180c:	5218                	lw	a4,32(a2)
e000180e:	0734                	addi	a3,sp,904
e0001810:	0000                	unimp
e0001812:	0820                	addi	s0,sp,24
e0001814:	422d                	li	tp,11
e0001816:	c91d                	beqz	a0,e000184c <FLASH_ALSAQR_BOOT_SIGNED+0x1304>
e0001818:	1798                	addi	a4,sp,992
e000181a:	00006067          	.4byte	0x6067
e000181e:	0820                	addi	s0,sp,24
e0001820:	92ec                	.2byte	0x92ec
e0001822:	adc8                	.2byte	0xadc8
e0001824:	04ad                	addi	s1,s1,11
e0001826:	e4ed                	bnez	s1,e0001910 <FLASH_ALSAQR_BOOT_SIGNED+0x13c8>
e0001828:	0000                	unimp
e000182a:	2260                	.2byte	0x2260
e000182c:	4aa4                	lw	s1,80(a3)
e000182e:	3dc8                	.2byte	0x3dc8
e0001830:	0ef8                	addi	a4,sp,860
e0001832:	3f00                	.2byte	0x3f00
e0001834:	0000                	unimp
e0001836:	9aa0                	.2byte	0x9aa0
e0001838:	0002                	c.slli64	zero
e000183a:	a560                	.2byte	0xa560
e000183c:	3300                	.2byte	0x3300
e000183e:	5974                	lw	a3,116(a0)
e0001840:	0000                	unimp
e0001842:	0ef0                	addi	a2,sp,860
e0001844:	42a4                	lw	s1,64(a3)
e0001846:	5c78                	lw	a4,124(s0)
e0001848:	0058                	addi	a4,sp,4
e000184a:	18c6                	slli	a7,a7,0x31
e000184c:	0000                	unimp
e000184e:	5930                	lw	a2,112(a0)
e0001850:	5131                	li	sp,-20
e0001852:	06e0                	addi	s0,sp,844
e0001854:	517c                	lw	a5,100(a0)
e0001856:	0000000f          	fence	unknown,unknown
e000185a:	1950                	addi	a2,sp,180
e000185c:	6ca8                	.2byte	0x6ca8
e000185e:	ae48                	.2byte	0xae48
e0001860:	5914                	lw	a3,48(a0)
e0001862:	64e4                	.2byte	0x64e4
e0001864:	0000                	unimp
e0001866:	0250                	addi	a2,sp,260
e0001868:	9024                	.2byte	0x9024
e000186a:	c755                	beqz	a4,e0001916 <FLASH_ALSAQR_BOOT_SIGNED+0x13ce>
e000186c:	7a28                	.2byte	0x7a28
e000186e:	9f28                	.2byte	0x9f28
e0001870:	0000                	unimp
e0001872:	7260                	.2byte	0x7260
e0001874:	1455                	addi	s0,s0,-11
e0001876:	a8a6                	.2byte	0xa8a6
e0001878:	4225                	li	tp,9
e000187a:	0b25                	addi	s6,s6,9
e000187c:	0000                	unimp
e000187e:	4920                	lw	s0,80(a0)
e0001880:	0002                	c.slli64	zero
e0001882:	9230                	.2byte	0x9230
e0001884:	b100                	.2byte	0xb100
e0001886:	5974                	lw	a3,116(a0)
e0001888:	0000                	unimp
e000188a:	06f0                	addi	a2,sp,844
e000188c:	6510                	.2byte	0x6510
e000188e:	f004                	.2byte	0xf004
e0001890:	5058                	lw	a4,36(s0)
e0001892:	028e                	slli	t0,t0,0x3
e0001894:	0000                	unimp
e0001896:	5930                	lw	a2,112(a0)
e0001898:	5ce0                	lw	s0,124(s1)
e000189a:	74d8                	.2byte	0x74d8
e000189c:	7601                	lui	a2,0xfffe0
e000189e:	0285                	addi	t0,t0,1 # 397a94e9 <fromhost+0x597994d9>
e00018a0:	0000                	unimp
e00018a2:	0ef0                	addi	a2,sp,860
e00018a4:	0ef8                	addi	a4,sp,860
e00018a6:	2230                	.2byte	0x2230
e00018a8:	6a68                	.2byte	0x6a68
e00018aa:	7228                	.2byte	0x7228
e00018ac:	0000                	unimp
e00018ae:	64a0                	.2byte	0x64a0
e00018b0:	4925                	li	s2,9
e00018b2:	d755                	beqz	a4,e000185e <FLASH_ALSAQR_BOOT_SIGNED+0x1316>
e00018b4:	90249f23          	sh	sp,-1762(s1)
e00018b8:	0000                	unimp
e00018ba:	f100                	.2byte	0xf100
e00018bc:	0826                	slli	a6,a6,0x9
e00018be:	8c78                	.2byte	0x8c78
e00018c0:	0b25                	addi	s6,s6,9
e00018c2:	1455                	addi	s0,s0,-11
e00018c4:	0000                	unimp
e00018c6:	4220                	lw	s0,64(a2)
e00018c8:	c900                	sw	s0,16(a0)
e00018ca:	60610233          	.4byte	0x60610233
e00018ce:	0efc                	addi	a5,sp,860
e00018d0:	0000                	unimp
e00018d2:	1410                	addi	a2,sp,544
e00018d4:	2a5e                	.2byte	0x2a5e
e00018d6:	e000                	.2byte	0xe000
e00018d8:	5ad8                	lw	a4,52(a3)
e00018da:	f634                	.2byte	0xf634
e00018dc:	0000                	unimp
e00018de:	97d0                	.2byte	0x97d0
e00018e0:	5930                	lw	a2,112(a0)
e00018e2:	3758                	.2byte	0x3758
e00018e4:	5970                	lw	a2,116(a0)
e00018e6:	0002                	c.slli64	zero
e00018e8:	0000                	unimp
e00018ea:	50a0                	lw	s0,96(s1)
e00018ec:	5024                	lw	s1,96(s0)
e00018ee:	88a8                	.2byte	0x88a8
e00018f0:	108952eb          	.4byte	0x108952eb
e00018f4:	0000                	unimp
e00018f6:	a650                	.2byte	0xa650
e00018f8:	0b2a                	slli	s6,s6,0xa
e00018fa:	a4d4                	.2byte	0xa4d4
e00018fc:	1414                	addi	a3,sp,544
e00018fe:	0250                	addi	a2,sp,260
e0001900:	0000                	unimp
e0001902:	0b20                	addi	s0,sp,408
e0001904:	1414                	addi	a3,sp,544
e0001906:	d910                	sw	a2,48(a0)
e0001908:	00d0                	addi	a2,sp,68
e000190a:	0b2a                	slli	s6,s6,0xa
e000190c:	0000                	unimp
e000190e:	1410                	addi	a2,sp,544
e0001910:	8190                	.2byte	0x8190
e0001912:	a1ba                	.2byte	0xa1ba
e0001914:	0b2a                	slli	s6,s6,0xa
e0001916:	1414                	addi	a3,sp,544
e0001918:	0000                	unimp
e000191a:	8310                	.2byte	0x8310
e000191c:	0b2a                	slli	s6,s6,0xa
e000191e:	58a4                	lw	s1,112(s1)
e0001920:	1414                	addi	a3,sp,544
e0001922:	8010                	.2byte	0x8010
e0001924:	0000                	unimp
e0001926:	0b20                	addi	s0,sp,408
e0001928:	1414                	addi	a3,sp,544
e000192a:	5b20                	lw	s0,112(a4)
e000192c:	0290                	addi	a2,sp,320
e000192e:	0b2a                	slli	s6,s6,0xa
e0001930:	0000                	unimp
e0001932:	1410                	addi	a2,sp,544
e0001934:	6061                	c.lui	zero,0x18
e0001936:	61bc                	.2byte	0x61bc
e0001938:	1412009b          	.4byte	0x1412009b
e000193c:	0000                	unimp
e000193e:	6950                	.2byte	0x6950
e0001940:	97d8                	.2byte	0x97d8
e0001942:	e1b8                	.2byte	0xe1b8
e0001944:	7d00                	.2byte	0x7d00
e0001946:	00005aa3          	.4byte	0x5aa3
e000194a:	0ef0                	addi	a2,sp,860
e000194c:	6130                	.2byte	0x6130
e000194e:	e6e0                	.2byte	0xe6e0
e0001950:	6170                	.2byte	0x6170
e0001952:	0002                	c.slli64	zero
e0001954:	0000                	unimp
e0001956:	50a0                	lw	s0,96(s1)
e0001958:	7154                	.2byte	0x7154
e000195a:	532e4e43          	.4byte	0x532e4e43
e000195e:	1089                	addi	ra,ra,-30
e0001960:	0000                	unimp
e0001962:	0660                	addi	s0,sp,780
e0001964:	6061                	c.lui	zero,0x18
e0001966:	6c7c                	.2byte	0x6c7c
e0001968:	5f00                	lw	s0,56(a4)
e000196a:	00001413          	slli	s0,zero,0x0
e000196e:	0ef0                	addi	a2,sp,860
e0001970:	5178                	lw	a4,100(a0)
e0001972:	fe42                	.2byte	0xfe42
e0001974:	5d00                	lw	s0,56(a0)
e0001976:	00005aa3          	.4byte	0x5aa3
e000197a:	0ef0                	addi	a2,sp,860
e000197c:	d913731b          	.4byte	0xd913731b
e0001980:	5130                	lw	a2,96(a0)
e0001982:	cf50                	sw	a2,28(a4)
e0001984:	0000                	unimp
e0001986:	0000                	unimp
e0001988:	6061                	c.lui	zero,0x18
e000198a:	ee4c                	.2byte	0xee4c
e000198c:	4700                	lw	s0,8(a4)
e000198e:	00001413          	slli	s0,zero,0x0
e0001992:	0ef0                	addi	a2,sp,860
e0001994:	5178                	lw	a4,100(a0)
e0001996:	7c72                	.2byte	0x7c72
e0001998:	4500                	lw	s0,8(a0)
e000199a:	00005aa3          	.4byte	0x5aa3
e000199e:	0ef0                	addi	a2,sp,860
e00019a0:	3dc3dd5b          	.4byte	0x3dc3dd5b
e00019a4:	5130                	lw	a2,96(a0)
e00019a6:	c450                	sw	a2,12(s0)
e00019a8:	0000                	unimp
e00019aa:	0000                	unimp
e00019ac:	0824                	addi	s1,sp,24
e00019ae:	dff8                	sw	a4,124(a5)
e00019b0:	2f00                	.2byte	0x2f00
e00019b2:	00005013          	srli	zero,zero,0x0
e00019b6:	0ef0                	addi	a2,sp,860
e00019b8:	226d                	jal	e0001b62 <FLASH_ALSAQR_BOOT_SIGNED+0x161a>
e00019ba:	ba9d                	j	e0001330 <FLASH_ALSAQR_BOOT_SIGNED+0xde8>
e00019bc:	422d6067          	.4byte	0x422d6067
e00019c0:	0000                	unimp
e00019c2:	1790                	addi	a2,sp,992
e00019c4:	a850                	.2byte	0xa850
e00019c6:	5002                	.2byte	0x5002
e00019c8:	0001                	nop
e00019ca:	0000513f 49725170 	.8byte	0x497251700000513f
e00019d2:	0232                	slli	tp,tp,0xc
e00019d4:	5811                	li	a6,-28
e00019d6:	a214                	.2byte	0xa214
e00019d8:	0000                	unimp
e00019da:	0100                	addi	s0,sp,128
e00019dc:	d154                	sw	a3,36(a0)
e00019de:	c1bc                	sw	a5,64(a1)
e00019e0:	4930                	lw	a2,80(a0)
e00019e2:	ee48                	.2byte	0xee48
e00019e4:	0000                	unimp
e00019e6:	0000                	unimp
e00019e8:	517c                	lw	a5,100(a0)
e00019ea:	191f 0888 9114      	.byte	0x1f, 0x19, 0x88, 0x08, 0x14, 0x91
e00019f0:	0000                	unimp
e00019f2:	42a0                	lw	s0,64(a3)
e00019f4:	53845853          	.4byte	0x53845853
e00019f8:	5131                	li	sp,-20
e00019fa:	0250                	addi	a2,sp,260
e00019fc:	0000                	unimp
e00019fe:	0000                	unimp
e0001a00:	f00a8293          	addi	t0,s5,-256 # e28191b2 <fromhost+0x28091a2>
e0001a04:	0ef8                	addi	a4,sp,860
e0001a06:	af00                	.2byte	0xaf00
e0001a08:	0000                	unimp
e0001a0a:	6220                	.2byte	0x6220
e0001a0c:	6058                	.2byte	0x6058
e0001a0e:	b6ed                	j	e00015f8 <FLASH_ALSAQR_BOOT_SIGNED+0x10b0>
e0001a10:	0002                	c.slli64	zero
e0001a12:	5930                	lw	a2,112(a0)
e0001a14:	0000                	unimp
e0001a16:	5970                	lw	a2,116(a0)
e0001a18:	7201                	lui	tp,0xfffe0
e0001a1a:	d004                	sw	s1,32(s0)
e0001a1c:	6510                	.2byte	0x6510
e0001a1e:	0ef4                	addi	a3,sp,860
e0001a20:	0000                	unimp
e0001a22:	0280                	addi	s0,sp,320
e0001a24:	f300                	.2byte	0xf300
e0001a26:	51b2                	lw	gp,44(sp)
e0001a28:	5a20                	lw	s0,112(a2)
e0001a2a:	0ef8                	addi	a4,sp,860
e0001a2c:	0000                	unimp
e0001a2e:	0280                	addi	s0,sp,320
e0001a30:	0efa                	slli	t4,t4,0x1e
e0001a32:	fe40                	.2byte	0xfe40
e0001a34:	5136                	lw	sp,108(sp)
e0001a36:	ad50                	.2byte	0xad50
e0001a38:	0000                	unimp
e0001a3a:	5310                	lw	a2,32(a4)
e0001a3c:	5970                	lw	a2,116(a0)
e0001a3e:	6c72                	.2byte	0x6c72
e0001a40:	5022                	.2byte	0x5022
e0001a42:	50a5                	li	ra,-23
e0001a44:	0000                	unimp
e0001a46:	2300                	.2byte	0x2300
e0001a48:	52ee                	lw	t0,248(sp)
e0001a4a:	eff9                	bnez	a5,e0001b28 <FLASH_ALSAQR_BOOT_SIGNED+0x15e0>
e0001a4c:	5930                	lw	a2,112(a0)
e0001a4e:	8a58                	.2byte	0x8a58
e0001a50:	0000                	unimp
e0001a52:	0000                	unimp
e0001a54:	4b51                	li	s6,20
e0001a56:	6dc0                	.2byte	0x6dc0
e0001a58:	5854                	lw	a3,52(s0)
e0001a5a:	e634                	.2byte	0xe634
e0001a5c:	0000                	unimp
e0001a5e:	1080                	addi	s0,sp,96
e0001a60:	5175                	li	sp,-3
e0001a62:	adc1                	j	e0002132 <FLASH_ALSAQR_BOOT_SIGNED+0x1bea>
e0001a64:	602c9393          	.4byte	0x602c9393
e0001a68:	0000                	unimp
e0001a6a:	7710                	.2byte	0x7710
e0001a6c:	5812                	lw	a6,36(sp)
e0001a6e:	f914                	.2byte	0xf914
e0001a70:	3a50513f 00000000 	.8byte	0x3a50513f
e0001a78:	0888                	addi	a0,sp,80
e0001a7a:	26e4                	.2byte	0x26e4
e0001a7c:	d152                	sw	s4,160(sp)
e0001a7e:	42ac                	lw	a1,64(a3)
e0001a80:	0000                	unimp
e0001a82:	8d10                	.2byte	0x8d10
e0001a84:	5131                	li	sp,-20
e0001a86:	d750                	sw	a2,44(a4)
e0001a88:	517c                	lw	a5,100(a0)
e0001a8a:	0000000f          	fence	unknown,unknown
e0001a8e:	9110                	.2byte	0x9110
e0001a90:	0ef8                	addi	a4,sp,860
e0001a92:	cc70                	sw	a2,92(s0)
e0001a94:	5852                	lw	a6,52(sp)
e0001a96:	6224                	.2byte	0x6224
e0001a98:	0000                	unimp
e0001a9a:	b250                	.2byte	0xb250
e0001a9c:	0002                	c.slli64	zero
e0001a9e:	bdc0                	.2byte	0xbdc0
e0001aa0:	597a8293          	addi	t0,s5,1431
e0001aa4:	0000                	unimp
e0001aa6:	4b00                	lw	s0,16(a4)
e0001aa8:	6510                	.2byte	0x6510
e0001aaa:	d564                	sw	s1,108(a0)
e0001aac:	1058                	addi	a4,sp,36
e0001aae:	028d                	addi	t0,t0,3
e0001ab0:	0000                	unimp
e0001ab2:	5930                	lw	a2,112(a0)
e0001ab4:	5a20                	lw	s0,112(a2)
e0001ab6:	e918                	.2byte	0xe918
e0001ab8:	0e01                	addi	t3,t3,0
e0001aba:	0284                	addi	s1,sp,320
e0001abc:	0000                	unimp
e0001abe:	0ef0                	addi	a2,sp,860
e0001ac0:	5136                	lw	sp,108(sp)
e0001ac2:	f8a0                	.2byte	0xf8a0
e0001ac4:	8f00                	.2byte	0x8f00
e0001ac6:	5312                	lw	t1,36(sp)
e0001ac8:	0000                	unimp
e0001aca:	0ef0                	addi	a2,sp,860
e0001acc:	4921                	li	s2,8
e0001ace:	6ff5                	lui	t6,0x1d
e0001ad0:	0efa                	slli	t4,t4,0x1e
e0001ad2:	bf00                	.2byte	0xbf00
e0001ad4:	0000                	unimp
e0001ad6:	ad50                	.2byte	0xad50
e0001ad8:	0826                	slli	a6,a6,0x9
e0001ada:	8c78                	.2byte	0x8c78
e0001adc:	0b25                	addi	s6,s6,9
e0001ade:	1455                	addi	s0,s0,-11
e0001ae0:	0000                	unimp
e0001ae2:	4220                	lw	s0,64(a2)
e0001ae4:	5178                	lw	a4,100(a0)
e0001ae6:	c1b2                	sw	a2,192(sp)
e0001ae8:	6500                	.2byte	0x6500
e0001aea:	5aa2                	lw	s5,40(sp)
e0001aec:	0000                	unimp
e0001aee:	0ef0                	addi	a2,sp,860
e0001af0:	d383d11b          	.4byte	0xd383d11b
e0001af4:	5130                	lw	a2,96(a0)
e0001af6:	9450                	.2byte	0x9450
e0001af8:	0000                	unimp
e0001afa:	0000                	unimp
e0001afc:	6061                	c.lui	zero,0x18
e0001afe:	98ac                	.2byte	0x98ac
e0001b00:	4f00                	lw	s0,24(a4)
e0001b02:	1412                	slli	s0,s0,0x24
e0001b04:	0000                	unimp
e0001b06:	0ef0                	addi	a2,sp,860
e0001b08:	5178                	lw	a4,100(a0)
e0001b0a:	0a92                	slli	s5,s5,0x4
e0001b0c:	4d00                	lw	s0,24(a0)
e0001b0e:	5aa2                	lw	s5,40(sp)
e0001b10:	0000                	unimp
e0001b12:	0ef0                	addi	a2,sp,860
e0001b14:	bf5c                	.2byte	0xbf5c
e0001b16:	5130cb23          	.4byte	0x5130cb23
e0001b1a:	9050                	.2byte	0x9050
e0001b1c:	0000                	unimp
e0001b1e:	0000                	unimp
e0001b20:	6061                	c.lui	zero,0x18
e0001b22:	6c7c                	.2byte	0x6c7c
e0001b24:	3700                	.2byte	0x3700
e0001b26:	1412                	slli	s0,s0,0x24
e0001b28:	0000                	unimp
e0001b2a:	0ef0                	addi	a2,sp,860
e0001b2c:	0000                	unimp
e0001b2e:	7ff8                	.2byte	0x7ff8
e0001b30:	3500                	.2byte	0x3500
e0001b32:	5b72                	lw	s6,60(sp)
e0001b34:	0000                	unimp
e0001b36:	0ef0                	addi	a2,sp,860
e0001b38:	5810                	lw	a2,48(s0)
e0001b3a:	3915                	jal	e000176e <FLASH_ALSAQR_BOOT_SIGNED+0x1226>
e0001b3c:	8630                	.2byte	0x8630
e0001b3e:	0b50                	addi	a2,sp,404
e0001b40:	0000                	unimp
e0001b42:	5fd0                	lw	a2,60(a5)
e0001b44:	1414                	addi	a3,sp,544
e0001b46:	5c70                	lw	a2,124(s0)
e0001b48:	0b51                	addi	s6,s6,20
e0001b4a:	0b20                	addi	s0,sp,408
e0001b4c:	0000                	unimp
e0001b4e:	8630                	.2byte	0x8630
e0001b50:	7d90                	.2byte	0x7d90
e0001b52:	0b2b91bb          	.4byte	0xb2b91bb
e0001b56:	1414                	addi	a3,sp,544
e0001b58:	0000                	unimp
e0001b5a:	7f10                	.2byte	0x7f10
e0001b5c:	5178                	lw	a4,100(a0)
e0001b5e:	e1b2                	.2byte	0xe1b2
e0001b60:	1500                	addi	s0,sp,672
e0001b62:	5aa2                	lw	s5,40(sp)
e0001b64:	0000                	unimp
e0001b66:	0ef0                	addi	a2,sp,860
e0001b68:	3d1c                	.2byte	0x3d1c
e0001b6a:	51306a93          	ori	s5,zero,1299
e0001b6e:	5850                	lw	a2,52(s0)
e0001b70:	0000                	unimp
e0001b72:	0000                	unimp
e0001b74:	db200153          	.4byte	0xdb200153
e0001b78:	ff00                	.2byte	0xff00
e0001b7a:	6931                	lui	s2,0xc
e0001b7c:	0000                	unimp
e0001b7e:	0ef0                	addi	a2,sp,860
e0001b80:	6938                	.2byte	0x6938
e0001b82:	0b03eb23          	.4byte	0xb03eb23
e0001b86:	dd50                	sw	a2,60(a0)
e0001b88:	0000                	unimp
e0001b8a:	5b30                	lw	a2,112(a4)
e0001b8c:	a894                	.2byte	0xa894
e0001b8e:	bb2e                	.2byte	0xbb2e
e0001b90:	ecd0                	.2byte	0xecd0
e0001b92:	58d8                	lw	a4,52(s1)
e0001b94:	0000                	unimp
e0001b96:	0160                	addi	s0,sp,140
e0001b98:	5910                	lw	a2,48(a0)
e0001b9a:	0c70                	addi	a2,sp,540
e0001b9c:	5b74                	lw	a3,116(a4)
e0001b9e:	0200                	addi	s0,sp,256
e0001ba0:	0000                	unimp
e0001ba2:	1080                	addi	s0,sp,96
e0001ba4:	2084                	.2byte	0x2084
e0001ba6:	b91c                	.2byte	0xb91c
e0001ba8:	1089                	addi	ra,ra,-30
e0001baa:	5814                	lw	a3,48(s0)
e0001bac:	0000                	unimp
e0001bae:	52e0                	lw	s0,100(a3)
e0001bb0:	0dc00153          	.4byte	0xdc00153
e0001bb4:	0828                	addi	a0,sp,24
e0001bb6:	6938                	.2byte	0x6938
e0001bb8:	0000                	unimp
e0001bba:	52e0                	lw	s0,100(a3)
e0001bbc:	58d8                	lw	a4,52(s1)
e0001bbe:	8754                	.2byte	0x8754
e0001bc0:	ecd00b03          	lb	s6,-307(zero) # fffffecd <fromhost+0x1ffefebd>
e0001bc4:	0000                	unimp
e0001bc6:	5b30                	lw	a2,112(a4)
e0001bc8:	6b74                	.2byte	0x6b74
e0001bca:	c6e0                	sw	s0,76(a3)
e0001bcc:	108e                	slli	ra,ra,0x23
e0001bce:	5814                	lw	a3,48(s0)
e0001bd0:	0000                	unimp
e0001bd2:	a810                	.2byte	0xa810
e0001bd4:	1109                	addi	sp,sp,-30
e0001bd6:	f4dc                	.2byte	0xf4dc
e0001bd8:	6910                	.2byte	0x6910
e0001bda:	5360                	lw	s0,100(a4)
e0001bdc:	0000                	unimp
e0001bde:	0200                	addi	s0,sp,256
e0001be0:	6814                	.2byte	0x6814
e0001be2:	68a4                	.2byte	0x68a4
e0001be4:	0828                	addi	a0,sp,24
e0001be6:	6018                	.2byte	0x6018
e0001be8:	0000                	unimp
e0001bea:	52e0                	lw	s0,100(a3)
e0001bec:	ffff                	.2byte	0xffff
e0001bee:	d4de                	sw	s7,104(sp)
e0001bf0:	5014                	lw	a3,32(s0)
e0001bf2:	5974                	lw	a3,116(a0)
e0001bf4:	0000                	unimp
e0001bf6:	7010                	.2byte	0x7010
e0001bf8:	1d4c                	addi	a1,sp,692
e0001bfa:	44dc                	lw	a5,12(s1)
e0001bfc:	5858                	lw	a4,52(s0)
e0001bfe:	1901                	addi	s2,s2,-32 # bfe0 <_stack_len+0x3fe0>
e0001c00:	0000                	unimp
e0001c02:	5930                	lw	a2,112(a0)
e0001c04:	e800                	.2byte	0xe800
e0001c06:	588ca383          	lw	t2,1416(s9)
e0001c0a:	613c                	.2byte	0x613c
e0001c0c:	0000                	unimp
e0001c0e:	5d80                	lw	s0,56(a1)
e0001c10:	5752c237          	lui	tp,0x5752c
e0001c14:	7135                	addi	sp,sp,-160
e0001c16:	d858                	sw	a4,52(s0)
e0001c18:	0000                	unimp
e0001c1a:	6fd0                	.2byte	0x6fd0
e0001c1c:	5911                	li	s2,-28
e0001c1e:	5560                	lw	s0,108(a0)
e0001c20:	67dc9947          	.4byte	0x67dc9947
e0001c24:	0000                	unimp
e0001c26:	cd70                	sw	a2,92(a0)
e0001c28:	593e                	lw	s2,236(sp)
e0001c2a:	28a8                	.2byte	0x28a8
e0001c2c:	597f                	.2byte	0x597f
e0001c2e:	ffff                	.2byte	0xffff
e0001c30:	0000                	unimp
e0001c32:	a6d0                	.2byte	0xa6d0
e0001c34:	5cc4                	lw	s1,60(s1)
e0001c36:	4b24                	lw	s1,80(a4)
e0001c38:	1901                	addi	s2,s2,-32
e0001c3a:	1d44                	addi	s1,sp,692
e0001c3c:	0000                	unimp
e0001c3e:	3250                	.2byte	0x3250
e0001c40:	5b78                	lw	a4,116(a4)
e0001c42:	1919                	addi	s2,s2,-26
e0001c44:	db18                	sw	a4,48(a4)
e0001c46:	d2d8                	sw	a4,36(a3)
e0001c48:	0000                	unimp
e0001c4a:	e350                	.2byte	0xe350
e0001c4c:	d2d6                	sw	s5,100(sp)
e0001c4e:	a918                	.2byte	0xa918
e0001c50:	5a585933          	.4byte	0x5a585933
e0001c54:	0000                	unimp
e0001c56:	ca50                	sw	a2,20(a2)
e0001c58:	0000                	unimp
e0001c5a:	de40                	sw	s0,60(a2)
e0001c5c:	0b50                	addi	a2,sp,404
e0001c5e:	0000                	unimp
e0001c60:	0000                	unimp
e0001c62:	6630                	.2byte	0x6630
e0001c64:	1018                	addi	a4,sp,32
e0001c66:	7dc1                	lui	s11,0xffff0
e0001c68:	0000                	unimp
e0001c6a:	0820                	addi	s0,sp,24
e0001c6c:	0000                	unimp
e0001c6e:	0000                	unimp
e0001c70:	84ac                	.2byte	0x84ac
e0001c72:	cffc                	sw	a5,92(a5)
e0001c74:	c22c                	sw	a1,64(a2)
e0001c76:	a26c                	.2byte	0xa26c
e0001c78:	0000                	unimp
e0001c7a:	e060                	.2byte	0xe060
e0001c7c:	0052                	c.slli	zero,0x14
e0001c7e:	b750                	.2byte	0xb750
e0001c80:	42ac                	lw	a1,64(a3)
e0001c82:	9038                	.2byte	0x9038
e0001c84:	0000                	unimp
e0001c86:	64e0                	.2byte	0x64e0
e0001c88:	3650                	.2byte	0x3650
e0001c8a:	8004                	.2byte	0x8004
e0001c8c:	1692                	slli	a3,a3,0x24
e0001c8e:	9932                	add	s2,s2,a2
e0001c90:	0000                	unimp
e0001c92:	5370                	lw	a2,100(a4)
e0001c94:	5a68                	lw	a0,116(a2)
e0001c96:	dc78                	sw	a4,124(s0)
e0001c98:	1394                	addi	a3,sp,480
e0001c9a:	5220                	lw	s0,96(a2)
e0001c9c:	0000                	unimp
e0001c9e:	4b30                	lw	a2,80(a4)
e0001ca0:	1354                	addi	a3,sp,420
e0001ca2:	3560                	.2byte	0x3560
e0001ca4:	0082                	c.slli64	ra
e0001ca6:	5334                	lw	a3,96(a4)
e0001ca8:	0000                	unimp
e0001caa:	0150                	addi	a2,sp,132
e0001cac:	0000                	unimp
e0001cae:	0ff0                	addi	a2,sp,988
e0001cb0:	0950                	addi	a2,sp,148
e0001cb2:	0000                	unimp
e0001cb4:	0000                	unimp
e0001cb6:	6630                	.2byte	0x6630
e0001cb8:	9b28                	.2byte	0x9b28
e0001cba:	3dc4                	.2byte	0x3dc4
e0001cbc:	0000                	unimp
e0001cbe:	54a0                	lw	s0,104(s1)
e0001cc0:	0000                	unimp
e0001cc2:	0000                	unimp
e0001cc4:	0f24                	addi	s1,sp,920
e0001cc6:	5a94                	lw	a3,48(a3)
e0001cc8:	4d24                	lw	s1,88(a0)
e0001cca:	4624                	lw	s1,72(a2)
e0001ccc:	0000                	unimp
e0001cce:	9420                	.2byte	0x9420
e0001cd0:	ffff                	.2byte	0xffff
e0001cd2:	61be                	.2byte	0x61be
e0001cd4:	0826                	slli	a6,a6,0x9
e0001cd6:	8178                	.2byte	0x8178
e0001cd8:	0000                	unimp
e0001cda:	1050                	addi	a2,sp,36
e0001cdc:	0082                	c.slli64	ra
e0001cde:	61b0                	.2byte	0x61b0
e0001ce0:	c080                	sw	s0,0(s1)
e0001ce2:	7030                	.2byte	0x7030
e0001ce4:	0000                	unimp
e0001ce6:	8130                	.2byte	0x8130
e0001ce8:	2e7f                	.2byte	0x2e7f
e0001cea:	68a0                	.2byte	0x68a0
e0001cec:	6814                	.2byte	0x6814
e0001cee:	1634                	addi	a3,sp,808
e0001cf0:	0000                	unimp
e0001cf2:	7810                	.2byte	0x7810
e0001cf4:	d878                	sw	a4,116(s0)
e0001cf6:	7c242387          	.4byte	0x7c242387
e0001cfa:	6138                	.2byte	0x6138
e0001cfc:	0000                	unimp
e0001cfe:	6810                	.2byte	0x6810
e0001d00:	0a60                	addi	s0,sp,284
e0001d02:	8560                	.2byte	0x8560
e0001d04:	d862                	sw	s8,48(sp)
e0001d06:	00008637          	lui	a2,0x8
e0001d0a:	6030                	.2byte	0x6030
e0001d0c:	7e30                	.2byte	0x7e30
e0001d0e:	54d6                	lw	s1,116(sp)
e0001d10:	6360                	.2byte	0x6360
e0001d12:	7918                	.2byte	0x7918
e0001d14:	0000                	unimp
e0001d16:	6850                	.2byte	0x6850
e0001d18:	636c                	.2byte	0x636c
e0001d1a:	9918                	.2byte	0x9918
e0001d1c:	011f b8ca 0000      	.byte	0x1f, 0x01, 0xca, 0xb8, 0x00, 0x00
e0001d22:	ee60                	.2byte	0xee60
e0001d24:	7138                	.2byte	0x7138
e0001d26:	2a90                	.2byte	0x2a90
e0001d28:	2e61                	jal	e00020c0 <FLASH_ALSAQR_BOOT_SIGNED+0x1b78>
e0001d2a:	6360                	.2byte	0x6360
e0001d2c:	0000                	unimp
e0001d2e:	4630                	lw	a2,72(a2)
e0001d30:	6130                	.2byte	0x6130
e0001d32:	c4d9                	beqz	s1,e0001dc0 <FLASH_ALSAQR_BOOT_SIGNED+0x1878>
e0001d34:	0c76f633          	.4byte	0xc76f633
e0001d38:	0000                	unimp
e0001d3a:	e700                	.2byte	0xe700
e0001d3c:	d860                	sw	s0,116(s0)
e0001d3e:	64207757          	.4byte	0x64207757
e0001d42:	7139                	addi	sp,sp,-64
e0001d44:	0000                	unimp
e0001d46:	0260                	addi	s0,sp,268
e0001d48:	503c                	lw	a5,96(s0)
e0001d4a:	08a2                	slli	a7,a7,0x8
e0001d4c:	ca72                	sw	t3,20(sp)
e0001d4e:	0000a0c7          	.4byte	0xa0c7
e0001d52:	c230                	sw	a2,64(a2)
e0001d54:	0a82                	c.slli64	s5
e0001d56:	9a90                	.2byte	0x9a90
e0001d58:	5050                	lw	a2,36(s0)
e0001d5a:	0230                	addi	a2,sp,264
e0001d5c:	0000                	unimp
e0001d5e:	0080                	addi	s0,sp,64
e0001d60:	0a6e                	slli	s4,s4,0x1b
e0001d62:	3000                	.2byte	0x3000
e0001d64:	e800                	.2byte	0xe800
e0001d66:	00006633          	or	a2,zero,zero
e0001d6a:	5130                	lw	a2,96(a0)
	...
e0001d78:	422d                	li	tp,11
e0001d7a:	c91d                	beqz	a0,e0001db0 <FLASH_ALSAQR_BOOT_SIGNED+0x1868>
e0001d7c:	1798                	addi	a4,sp,992
e0001d7e:	00006067          	.4byte	0x6067
e0001d82:	0820                	addi	s0,sp,24
e0001d84:	c52c                	sw	a1,72(a0)
e0001d86:	66ec                	.2byte	0x66ec
e0001d88:	04ad                	addi	s1,s1,11
e0001d8a:	e4ed                	bnez	s1,e0001e74 <FLASH_ALSAQR_BOOT_SIGNED+0x192c>
e0001d8c:	0000                	unimp
e0001d8e:	2260                	.2byte	0x2260
e0001d90:	462c                	lw	a1,72(a2)
e0001d92:	e23c                	.2byte	0xe23c
e0001d94:	85ac                	.2byte	0x85ac
e0001d96:	65ec                	.2byte	0x65ec
e0001d98:	0000                	unimp
e0001d9a:	a560                	.2byte	0xa560
e0001d9c:	9b68                	.2byte	0x9b68
e0001d9e:	4918                	lw	a4,16(a0)
e0001da0:	abec                	.2byte	0xabec
e0001da2:	b3a8                	.2byte	0xb3a8
e0001da4:	0000                	unimp
e0001da6:	2660                	.2byte	0x2660
e0001da8:	0261                	addi	tp,tp,24 # 5752c018 <tohost+0x5750c010>
e0001daa:	e910                	.2byte	0xe910
e0001dac:	a2a8                	.2byte	0xa2a8
e0001dae:	9138                	.2byte	0x9138
e0001db0:	0000                	unimp
e0001db2:	4ae0                	lw	s0,84(a3)
e0001db4:	4635                	li	a2,13
e0001db6:	1b20                	addi	s0,sp,440
e0001db8:	56d8                	lw	a4,44(a3)
e0001dba:	bfd2                	.2byte	0xbfd2
e0001dbc:	0000                	unimp
e0001dbe:	54a0                	lw	s0,104(s1)
e0001dc0:	4c00                	lw	s0,24(s0)
e0001dc2:	6000                	.2byte	0x6000
e0001dc4:	42a1                	li	t0,8
e0001dc6:	5138                	lw	a4,96(a0)
e0001dc8:	0000                	unimp
e0001dca:	c050                	sw	a2,4(s0)
e0001dcc:	9008                	.2byte	0x9008
e0001dce:	3a9d                	jal	e0001744 <FLASH_ALSAQR_BOOT_SIGNED+0x11fc>
e0001dd0:	1212                	slli	tp,tp,0x24
e0001dd2:	c2ac                	sw	a1,64(a3)
e0001dd4:	0000                	unimp
e0001dd6:	d710                	sw	a2,40(a4)
e0001dd8:	c8d1                	beqz	s1,e0001e6c <FLASH_ALSAQR_BOOT_SIGNED+0x1924>
e0001dda:	3ffc                	.2byte	0x3ffc
e0001ddc:	0890                	addi	a2,sp,80
e0001dde:	5710                	lw	a2,40(a4)
e0001de0:	0000                	unimp
e0001de2:	5330                	lw	a2,96(a4)
e0001de4:	6b30                	.2byte	0x6b30
e0001de6:	6dc8                	.2byte	0x6dc8
e0001de8:	5934                	lw	a3,112(a0)
e0001dea:	34c0                	.2byte	0x34c0
e0001dec:	0000                	unimp
e0001dee:	6010                	.2byte	0x6010
e0001df0:	7b30                	.2byte	0x7b30
e0001df2:	48a8                	lw	a0,80(s1)
e0001df4:	7030                	.2byte	0x7030
e0001df6:	0068                	addi	a0,sp,12
e0001df8:	0000                	unimp
e0001dfa:	0c40                	addi	s0,sp,532
e0001dfc:	6830                	.2byte	0x6830
e0001dfe:	4e4c                	lw	a1,28(a2)
e0001e00:	0230                	addi	a2,sp,264
e0001e02:	0e78                	addi	a4,sp,796
e0001e04:	0000                	unimp
e0001e06:	0c50                	addi	a2,sp,532
e0001e08:	7130                	.2byte	0x7130
e0001e0a:	7380                	.2byte	0x7380
e0001e0c:	6930                	.2byte	0x6930
e0001e0e:	0000016b          	.4byte	0x16b
e0001e12:	0060                	addi	s0,sp,12
e0001e14:	6c700173          	.4byte	0x6c700173
e0001e18:	605f 7130 0000      	.byte	0x5f, 0x60, 0x30, 0x71, 0x00, 0x00
e0001e1e:	f160                	.2byte	0xf160
e0001e20:	40c0                	lw	s0,4(s1)
e0001e22:	c560                	sw	s0,76(a0)
e0001e24:	ef18                	.2byte	0xef18
e0001e26:	1a3d                	addi	s4,s4,-17 # 8fef <_stack_len+0xfef>
e0001e28:	0000                	unimp
e0001e2a:	ed90                	.2byte	0xed90
e0001e2c:	aa52                	.2byte	0xaa52
e0001e2e:	a75a                	.2byte	0xa75a
e0001e30:	522a                	lw	tp,168(sp)
e0001e32:	de98                	sw	a4,56(a3)
e0001e34:	0000                	unimp
e0001e36:	0310                	addi	a2,sp,384
e0001e38:	4934                	lw	a3,80(a0)
e0001e3a:	20c0c1b7          	lui	gp,0x20c0c
e0001e3e:	5910                	lw	a2,48(a0)
e0001e40:	0000                	unimp
e0001e42:	a230                	.2byte	0xa230
e0001e44:	b110                	.2byte	0xb110
e0001e46:	e754                	.2byte	0xe754
e0001e48:	0bb6363f f0500000 	.8byte	0xf05000000bb6363f
e0001e50:	04c0                	addi	s0,sp,580
e0001e52:	d6e0                	sw	s0,108(a3)
e0001e54:	36c2                	.2byte	0x36c2
e0001e56:	9130                	.2byte	0x9130
e0001e58:	0000                	unimp
e0001e5a:	6230                	.2byte	0x6230
e0001e5c:	18c0                	addi	s0,sp,116
e0001e5e:	1000                	addi	s0,sp,32
e0001e60:	d098                	sw	a4,32(s1)
e0001e62:	5132                	lw	sp,44(sp)
e0001e64:	0000                	unimp
e0001e66:	54a0                	lw	s0,104(s1)
e0001e68:	5150                	lw	a2,36(a0)
e0001e6a:	c914                	sw	a3,16(a0)
e0001e6c:	8232                	mv	tp,a2
e0001e6e:	18c2                	slli	a7,a7,0x30
e0001e70:	0000                	unimp
e0001e72:	5310                	lw	a2,32(a4)
e0001e74:	0ac2                	slli	s5,s5,0x10
e0001e76:	a000                	.2byte	0xa000
e0001e78:	1650                	addi	a2,sp,804
e0001e7a:	c234                	sw	a3,64(a2)
e0001e7c:	0000                	unimp
e0001e7e:	5330                	lw	a2,96(a4)
e0001e80:	40c2                	lw	ra,16(sp)
e0001e82:	e8a0                	.2byte	0xe8a0
e0001e84:	38c2                	.2byte	0x38c2
e0001e86:	2230                	.2byte	0x2230
e0001e88:	0000                	unimp
e0001e8a:	2230                	.2byte	0x2230
e0001e8c:	5d28                	lw	a0,120(a0)
e0001e8e:	1dc8                	addi	a0,sp,756
e0001e90:	40c0                	lw	s0,4(s1)
e0001e92:	5260                	lw	s0,100(a2)
e0001e94:	0000                	unimp
e0001e96:	4230                	lw	a2,64(a2)
e0001e98:	023c                	addi	a5,sp,264
e0001e9a:	5232                	lw	tp,44(sp)
e0001e9c:	0ef8                	addi	a4,sp,860
e0001e9e:	baff                	.2byte	0xbaff
e0001ea0:	0000                	unimp
e0001ea2:	64e0                	.2byte	0x64e0
e0001ea4:	0230                	addi	a2,sp,264
e0001ea6:	375a                	.2byte	0x375a
e0001ea8:	4630                	lw	a2,72(a2)
e0001eaa:	00a8                	addi	a0,sp,72
e0001eac:	0000                	unimp
e0001eae:	0ac0                	addi	s0,sp,340
e0001eb0:	e561a973          	csrrs	s2,0xe56,gp
e0001eb4:	0730                	addi	a2,sp,904
e0001eb6:	00000047          	.4byte	0x47
e0001eba:	18a0                	addi	s0,sp,120
e0001ebc:	ea9a503f 72a8a93f 	.8byte	0x72a8a93fea9a503f
e0001ec4:	0000                	unimp
e0001ec6:	0000                	unimp
e0001ec8:	8dc0b13f 0001b170 	.8byte	0x1b1708dc0b13f
e0001ed0:	0000                	unimp
e0001ed2:	00a0                	addi	s0,sp,72
e0001ed4:	00b2                	slli	ra,ra,0xc
e0001ed6:	b000                	.2byte	0xb000
e0001ed8:	901f 503c 0000      	.byte	0x1f, 0x90, 0x3c, 0x50, 0x00, 0x00
e0001ede:	52b0                	lw	a2,96(a3)
e0001ee0:	503c                	lw	a5,96(s0)
e0001ee2:	adc2                	.2byte	0xadc2
e0001ee4:	5854                	lw	a3,52(s0)
e0001ee6:	16c0                	addi	s0,sp,868
e0001ee8:	0000                	unimp
e0001eea:	16c0                	addi	s0,sp,868
e0001eec:	5230513f 00015170 	.8byte	0x151705230513f
e0001ef4:	0000                	unimp
e0001ef6:	00b0                	addi	a2,sp,72
e0001ef8:	10c0                	addi	s0,sp,100
e0001efa:	375c                	.2byte	0x375c
e0001efc:	585410cf          	.4byte	0x585410cf
e0001f00:	0000                	unimp
e0001f02:	4a50                	lw	a2,20(a2)
e0001f04:	0001                	nop
e0001f06:	00b2100f          	.4byte	0xb2100f
e0001f0a:	c970                	sw	a2,84(a0)
e0001f0c:	0000                	unimp
e0001f0e:	5830                	lw	a2,112(s0)
e0001f10:	503c                	lw	a5,96(s0)
e0001f12:	cdca                	sw	s2,216(sp)
e0001f14:	90c8                	.2byte	0x90c8
e0001f16:	d91f 0000 c930      	.byte	0x1f, 0xd9, 0x00, 0x00, 0x30, 0xc9
e0001f1c:	00b2                	slli	ra,ra,0xc
e0001f1e:	f380                	.2byte	0xf380
e0001f20:	1490                	addi	a2,sp,608
e0001f22:	503e                	.2byte	0x503e
e0001f24:	0000                	unimp
e0001f26:	00a0                	addi	s0,sp,72
e0001f28:	b630                	.2byte	0xb630
e0001f2a:	038e                	slli	t2,t2,0x3
e0001f2c:	5835                	li	a6,-19
e0001f2e:	2cc2                	.2byte	0x2cc2
e0001f30:	0000                	unimp
e0001f32:	5480                	lw	s0,40(s1)
e0001f34:	0bd0                	addi	a2,sp,468
e0001f36:	5c7a                	lw	s8,188(sp)
e0001f38:	0230                	addi	a2,sp,264
e0001f3a:	18b2                	slli	a7,a7,0x2c
e0001f3c:	0000                	unimp
e0001f3e:	6a50                	.2byte	0x6a50
e0001f40:	5854                	lw	a3,52(s0)
e0001f42:	3ff4                	.2byte	0x3ff4
e0001f44:	18b2                	slli	a7,a7,0x2c
e0001f46:	1080                	addi	s0,sp,96
e0001f48:	0000                	unimp
e0001f4a:	0230                	addi	a2,sp,264
e0001f4c:	4934                	lw	a3,80(a0)
e0001f4e:	5dc0                	lw	s0,60(a1)
e0001f50:	6b51                	lui	s6,0x14
e0001f52:	4010                	lw	a2,0(s0)
e0001f54:	0000                	unimp
e0001f56:	2630                	.2byte	0x2630
e0001f58:	b890                	.2byte	0xb890
e0001f5a:	34d2                	.2byte	0x34d2
e0001f5c:	5330                	lw	a2,96(a4)
e0001f5e:	1940                	addi	s0,sp,180
e0001f60:	0000                	unimp
e0001f62:	6400                	.2byte	0x6400
e0001f64:	997f                	.2byte	0x997f
e0001f66:	2751                	jal	e00026ea <FLASH_ALSAQR_BOOT_SIGNED+0x21a2>
e0001f68:	ce30                	sw	a2,88(a2)
e0001f6a:	e941                	bnez	a0,e0001ffa <FLASH_ALSAQR_BOOT_SIGNED+0x1ab2>
e0001f6c:	0000                	unimp
e0001f6e:	4510                	lw	a2,8(a0)
e0001f70:	b75854ef          	jal	s1,dff87ae4 <tohost+0xdff67adc>
e0001f74:	ee98993f 00000000 	.8byte	0xee98993f
e0001f7c:	b000a13f 0001a172 	.8byte	0x1a172b000a13f
e0001f84:	0000                	unimp
e0001f86:	3810                	.2byte	0x3810
e0001f88:	5172                	lw	sp,60(sp)
e0001f8a:	d6e1                	beqz	a3,e0001f52 <FLASH_ALSAQR_BOOT_SIGNED+0x1a0a>
e0001f8c:	b158552f          	.4byte	0xb158552f
e0001f90:	0000                	unimp
e0001f92:	f6a0                	.2byte	0xf6a0
e0001f94:	32df 7b22 513f      	.byte	0xdf, 0x32, 0x22, 0x7b, 0x3f, 0x51
e0001f9a:	c250                	sw	a2,4(a2)
e0001f9c:	0000                	unimp
e0001f9e:	0000                	unimp
e0001fa0:	9050                	.2byte	0x9050
e0001fa2:	d75f 0001 513f      	.byte	0x5f, 0xd7, 0x01, 0x00, 0x3f, 0x51
e0001fa8:	0000                	unimp
e0001faa:	5170                	lw	a2,100(a0)
e0001fac:	0c70513f 00015172 	.8byte	0x151720c70513f
e0001fb4:	0000                	unimp
e0001fb6:	3050                	.2byte	0x3050
e0001fb8:	0001                	nop
e0001fba:	64df b19f 5172      	.byte	0xdf, 0x64, 0x9f, 0xb1, 0x72, 0x51
e0001fc0:	0000                	unimp
e0001fc2:	9a50                	.2byte	0x9a50
e0001fc4:	1352                	slli	t1,t1,0x34
e0001fc6:	51b0                	lw	a2,96(a1)
e0001fc8:	c850                	sw	a2,20(s0)
e0001fca:	023e                	slli	tp,tp,0xf
e0001fcc:	0000                	unimp
e0001fce:	5130                	lw	a2,96(a0)
e0001fd0:	c050                	sw	a2,4(s0)
e0001fd2:	6dce                	.2byte	0x6dce
e0001fd4:	0001                	nop
e0001fd6:	0000513f 00015170 	.8byte	0x151700000513f
e0001fde:	1452323f 00005170 	.8byte	0x51701452323f
e0001fe6:	0230                	addi	a2,sp,264
e0001fe8:	5854                	lw	a3,52(s0)
e0001fea:	84d0                	.2byte	0x84d0
e0001fec:	a050                	.2byte	0xa050
e0001fee:	10ce                	slli	ra,ra,0x33
e0001ff0:	0000                	unimp
e0001ff2:	5130                	lw	a2,96(a0)
e0001ff4:	5970                	lw	a2,116(a0)
e0001ff6:	e4d1                	bnez	s1,e0002082 <FLASH_ALSAQR_BOOT_SIGNED+0x1b3a>
e0001ff8:	503c                	lw	a5,96(s0)
e0001ffa:	2cc2                	.2byte	0x2cc2
e0001ffc:	0000                	unimp
e0001ffe:	10c0                	addi	s0,sp,100
e0002000:	190e                	slli	s2,s2,0x23
e0002002:	68a4                	.2byte	0x68a4
e0002004:	8a58593f 00000000 	.8byte	0x8a58593f
e000200c:	e550                	.2byte	0xe550
e000200e:	c918                	sw	a4,16(a0)
e0002010:	6b34                	.2byte	0x6b34
e0002012:	0ab9                	addi	s5,s5,14
e0002014:	0000                	unimp
e0002016:	b850                	.2byte	0xb850
e0002018:	2b50                	.2byte	0x2b50
e000201a:	b6e0                	.2byte	0xb6e0
e000201c:	5d1c                	lw	a5,56(a0)
e000201e:	5334                	lw	a3,96(a4)
e0002020:	0000                	unimp
e0002022:	1900                	addi	s0,sp,176
e0002024:	0bc2                	slli	s7,s7,0x10
e0002026:	74d0                	.2byte	0x74d0
e0002028:	14c9                	addi	s1,s1,-14
e000202a:	4234                	lw	a3,64(a2)
e000202c:	0000                	unimp
e000202e:	5660                	lw	s0,108(a2)
e0002030:	5900                	lw	s0,48(a0)
e0002032:	64d4                	.2byte	0x64d4
e0002034:	6234                	.2byte	0x6234
e0002036:	0cc2                	slli	s9,s9,0x10
e0002038:	0000                	unimp
e000203a:	5900                	lw	s0,48(a0)
e000203c:	125a                	slli	tp,tp,0x36
e000203e:	8560                	.2byte	0x8560
e0002040:	1262                	slli	tp,tp,0x38
e0002042:	4230                	lw	a2,64(a2)
e0002044:	0000                	unimp
e0002046:	2230                	.2byte	0x2230
e0002048:	5854                	lw	a3,52(s0)
e000204a:	5230                	lw	a2,96(a2)
e000204c:	0ac2                	slli	s5,s5,0x10
e000204e:	10c0                	addi	s0,sp,100
e0002050:	0000                	unimp
e0002052:	a230                	.2byte	0xa230
e0002054:	00aa                	slli	ra,ra,0xa
e0002056:	e4d0                	.2byte	0xe4d0
e0002058:	025c                	addi	a5,sp,260
e000205a:	5032                	.2byte	0x5032
e000205c:	0000                	unimp
e000205e:	10c0                	addi	s0,sp,100
e0002060:	55e0                	lw	s0,108(a1)
e0002062:	3a98                	.2byte	0x3a98
e0002064:	503c                	lw	a5,96(s0)
e0002066:	00b2                	slli	ra,ra,0xc
e0002068:	0000                	unimp
e000206a:	1190                	addi	a2,sp,224
e000206c:	b424                	.2byte	0xb424
e000206e:	0c74                	addi	a3,sp,540
e0002070:	c224                	sw	s1,64(a2)
e0002072:	bb24                	.2byte	0xbb24
e0002074:	0000                	unimp
e0002076:	c920                	sw	s0,80(a0)
e0002078:	9024                	.2byte	0x9024
e000207a:	48a5                	li	a7,9
e000207c:	a624                	.2byte	0xa624
e000207e:	9f24                	.2byte	0x9f24
e0002080:	0000                	unimp
e0002082:	ad20                	.2byte	0xad20
e0002084:	1455                	addi	s0,s0,-11
e0002086:	a8a6                	.2byte	0xa8a6
e0002088:	4225                	li	tp,9
e000208a:	0b25                	addi	s6,s6,9 # 14009 <_stack_len+0xc009>
e000208c:	0000                	unimp
e000208e:	4920                	lw	s0,80(a0)
e0002090:	06e0513f 00015178 	.8byte	0x1517806e0513f
e0002098:	0000                	unimp
e000209a:	0820                	addi	s0,sp,24
e000209c:	517c                	lw	a5,100(a0)
e000209e:	08a1                	addi	a7,a7,8
e00020a0:	108e                	slli	ra,ra,0x23
e00020a2:	d194                	sw	a3,32(a1)
e00020a4:	0000                	unimp
e00020a6:	3650                	.2byte	0x3650
e00020a8:	10ce                	slli	ra,ra,0x33
e00020aa:	4a94                	lw	a3,16(a3)
e00020ac:	1650513f 00000000 	.8byte	0x1650513f
e00020b4:	1f04                	addi	s1,sp,944
e00020b6:	c754                	sw	a3,12(a4)
e00020b8:	9814                	.2byte	0x9814
e00020ba:	10cc                	addi	a1,sp,100
e00020bc:	0000                	unimp
e00020be:	1ec0                	addi	s0,sp,884
e00020c0:	1684                	addi	s1,sp,864
e00020c2:	f564                	.2byte	0xf564
e00020c4:	1f01                	addi	t5,t5,-32
e00020c6:	108c                	addi	a1,sp,96
e00020c8:	0000                	unimp
e00020ca:	67d0                	.2byte	0x67d0
e00020cc:	0046                	c.slli	zero,0x11
e00020ce:	082c3563          	.4byte	0x82c3563
e00020d2:	0738                	addi	a4,sp,904
e00020d4:	0000                	unimp
e00020d6:	1110                	addi	a2,sp,160
e00020d8:	422c                	lw	a1,64(a2)
e00020da:	6ffc                	.2byte	0x6ffc
e00020dc:	1418                	addi	a4,sp,544
e00020de:	6061                	c.lui	zero,0x18
e00020e0:	0000                	unimp
e00020e2:	0820                	addi	s0,sp,24
e00020e4:	0c50                	addi	a2,sp,532
e00020e6:	a6ee                	.2byte	0xa6ee
e00020e8:	0001                	nop
e00020ea:	0000513f 00015170 	.8byte	0x151700000513f
e00020f2:	5c7f                	.2byte	0x5c7f
e00020f4:	9014                	.2byte	0x9014
e00020f6:	517c                	lw	a5,100(a0)
e00020f8:	0000                	unimp
e00020fa:	1080                	addi	s0,sp,96
e00020fc:	10c4                	addi	s1,sp,100
e00020fe:	46ec                	lw	a1,76(a3)
e0002100:	0450                	addi	a2,sp,516
e0002102:	585e                	lw	a6,244(sp)
e0002104:	0000                	unimp
e0002106:	5130                	lw	a2,96(a0)
e0002108:	96e0513f 0001517a 	.8byte	0x1517a96e0513f
e0002110:	0000                	unimp
e0002112:	0d90                	addi	a2,sp,720
e0002114:	4170                	lw	a2,68(a0)
e0002116:	f911                	bnez	a0,e000202a <FLASH_ALSAQR_BOOT_SIGNED+0x1ae2>
e0002118:	023d                	addi	tp,tp,15 # f <_min_stack-0x1ff1>
e000211a:	0052                	c.slli	zero,0x14
e000211c:	0000                	unimp
e000211e:	f650                	.2byte	0xf650
e0002120:	008d                	addi	ra,ra,3
e0002122:	94d4                	.2byte	0x94d4
e0002124:	c640413f 00000000 	.8byte	0xc640413f
e000212c:	8635                	srai	a2,a2,0xd
e000212e:	075e                	slli	a4,a4,0x17
e0002130:	00c4                	addi	s1,sp,68
e0002132:	98c4                	.2byte	0x98c4
e0002134:	0000                	unimp
e0002136:	1080                	addi	s0,sp,96
e0002138:	5934                	lw	a3,112(a0)
e000213a:	3a98                	.2byte	0x3a98
e000213c:	0080                	addi	s0,sp,64
e000213e:	00c4                	addi	s1,sp,68
e0002140:	0000                	unimp
e0002142:	0a50                	addi	a2,sp,276
e0002144:	5179                	li	sp,-2
e0002146:	fc71                	bnez	s0,e0002122 <FLASH_ALSAQR_BOOT_SIGNED+0x1bda>
e0002148:	0ef0                	addi	a2,sp,860
e000214a:	35ff                	.2byte	0x35ff
e000214c:	0000                	unimp
e000214e:	3450                	.2byte	0x3450
e0002150:	108d                	addi	ra,ra,-29
e0002152:	da94                	sw	a3,48(a3)
e0002154:	aa50513f 00000000 	.8byte	0xaa50513f
e000215c:	5938                	lw	a4,112(a0)
e000215e:	f755                	bnez	a4,e000210a <FLASH_ALSAQR_BOOT_SIGNED+0x1bc2>
e0002160:	0155                	addi	sp,sp,21
e0002162:	d4d0                	sw	a2,44(s1)
e0002164:	0000                	unimp
e0002166:	5930                	lw	a2,112(a0)
e0002168:	0455                	addi	s0,s0,21
e000216a:	d6e0                	sw	s0,108(a3)
e000216c:	d4d0                	sw	a2,44(s1)
e000216e:	5938                	lw	a4,112(a0)
e0002170:	0000                	unimp
e0002172:	0250                	addi	a2,sp,260
e0002174:	d4d0                	sw	a2,44(s1)
e0002176:	e008                	.2byte	0xe008
e0002178:	5938                	lw	a4,112(a0)
e000217a:	0855                	addi	a6,a6,21
e000217c:	0000                	unimp
e000217e:	d4d0                	sw	a2,44(s1)
e0002180:	5138                	lw	a4,96(a0)
e0002182:	41b4                	lw	a3,64(a1)
e0002184:	1055                	c.nop	-11
e0002186:	d4d0                	sw	a2,44(s1)
e0002188:	0000                	unimp
e000218a:	5930                	lw	a2,112(a0)
e000218c:	6370                	.2byte	0x6370
e000218e:	3565                	jal	e0002036 <FLASH_ALSAQR_BOOT_SIGNED+0x1aee>
e0002190:	0155593f ff500000 	.8byte	0xff5000000155593f
e0002198:	df15                	beqz	a4,e00020d4 <FLASH_ALSAQR_BOOT_SIGNED+0x1b8c>
e000219a:	7238                	.2byte	0x7238
e000219c:	6135                	addi	sp,sp,352
e000219e:	5560                	lw	s0,108(a0)
e00021a0:	0000                	unimp
e00021a2:	5550                	lw	a2,44(a0)
e00021a4:	9a985933          	.4byte	0x9a985933
e00021a8:	5b78                	lw	a4,116(a4)
e00021aa:	00003333          	snez	t1,zero
e00021ae:	d0d0                	sw	a2,36(s1)
e00021b0:	1090                	addi	a2,sp,96
e00021b2:	48a8                	lw	a0,80(s1)
e00021b4:	0b576333          	.4byte	0xb576333
e00021b8:	0000                	unimp
e00021ba:	3350                	.2byte	0x3350
e00021bc:	0455                	addi	s0,s0,21
e00021be:	c380                	sw	s0,0(a5)
e00021c0:	5328                	lw	a0,96(a4)
e00021c2:	5939                	li	s2,-18
e00021c4:	0000                	unimp
e00021c6:	d6d0                	sw	a2,44(a3)
e00021c8:	5930                	lw	a2,112(a0)
e00021ca:	fb28                	.2byte	0xfb28
e00021cc:	5b79                	li	s6,-2
e00021ce:	f0f1                	bnez	s1,e0002192 <FLASH_ALSAQR_BOOT_SIGNED+0x1c4a>
e00021d0:	0000                	unimp
e00021d2:	52e0                	lw	s0,100(a3)
e00021d4:	1010                	addi	a2,sp,32
e00021d6:	3230                	.2byte	0x3230
e00021d8:	d6df 5b78 0000      	.byte	0xdf, 0xd6, 0x78, 0x5b, 0x00, 0x00
e00021de:	0f50                	addi	a2,sp,916
e00021e0:	2b50                	.2byte	0x2b50
e00021e2:	c230                	sw	a2,64(a2)
e00021e4:	0158                	addi	a4,sp,132
e00021e6:	5331                	li	t1,-20
e00021e8:	0000                	unimp
e00021ea:	5930                	lw	a2,112(a0)
e00021ec:	5d10                	lw	a2,56(a0)
e00021ee:	08a4                	addi	s1,sp,88
e00021f0:	5138                	lw	a4,96(a0)
e00021f2:	1f54                	addi	a3,sp,948
e00021f4:	0000                	unimp
e00021f6:	1610                	addi	a2,sp,800
e00021f8:	0001                	nop
e00021fa:	2b50ce4f          	.4byte	0x2b50ce4f
e00021fe:	5970                	lw	a2,116(a0)
e0002200:	0000                	unimp
e0002202:	5330                	lw	a2,96(a4)
e0002204:	1c89                	addi	s9,s9,-30
e0002206:	c004                	sw	s1,0(s0)
e0002208:	9858                	.2byte	0x9858
e000220a:	5aad                	li	s5,-21
e000220c:	0000                	unimp
e000220e:	5930                	lw	a2,112(a0)
e0002210:	1c80                	addi	s0,sp,624
e0002212:	f91c                	.2byte	0xf91c
e0002214:	6134                	.2byte	0x6134
e0002216:	0858                	addi	a4,sp,20
e0002218:	0000                	unimp
e000221a:	1480                	addi	s0,sp,608
e000221c:	5914                	lw	a3,48(a0)
e000221e:	48a0                	lw	s0,80(s1)
e0002220:	0c51                	addi	s8,s8,20 # fffe9014 <fromhost+0x1ffd9004>
e0002222:	1480                	addi	s0,sp,608
e0002224:	0000                	unimp
e0002226:	5630                	lw	a2,104(a2)
e0002228:	422c                	lw	a1,64(a2)
e000222a:	f914                	.2byte	0xf914
e000222c:	548c                	lw	a1,40(s1)
e000222e:	0084                	addi	s1,sp,64
e0002230:	0000                	unimp
e0002232:	1880                	addi	s0,sp,112
e0002234:	1418                	addi	a4,sp,544
e0002236:	81b1                	srli	a1,a1,0xc
e0002238:	1414                	addi	a3,sp,544
e000223a:	0820                	addi	s0,sp,24
e000223c:	0000                	unimp
e000223e:	0b20                	addi	s0,sp,408
e0002240:	5130                	lw	a2,96(a0)
e0002242:	7560                	.2byte	0x7560
e0002244:	517c                	lw	a5,100(a0)
e0002246:	0000                	unimp
e0002248:	0000                	unimp
e000224a:	6060                	.2byte	0x6060
e000224c:	5930                	lw	a2,112(a0)
e000224e:	f1b8                	.2byte	0xf1b8
e0002250:	5970                	lw	a2,116(a0)
e0002252:	0002                	c.slli64	zero
e0002254:	0000                	unimp
e0002256:	6250                	.2byte	0x6250
e0002258:	eff8793f 00017978 	.8byte	0x17978eff8793f
e0002260:	0000                	unimp
e0002262:	8a50                	.2byte	0x8a50
e0002264:	6811                	lui	a6,0x4
e0002266:	0b24                	addi	s1,sp,408
e0002268:	613d                	addi	sp,sp,480
e000226a:	0000                	unimp
e000226c:	0000                	unimp
e000226e:	1a70                	addi	a2,sp,316
e0002270:	7634                	.2byte	0x7634
e0002272:	cff1                	beqz	a5,e000234e <FLASH_ALSAQR_BOOT_SIGNED+0x1e06>
e0002274:	9454                	.2byte	0x9454
e0002276:	00005853          	.4byte	0x5853
e000227a:	7010                	.2byte	0x7010
e000227c:	a0015173          	csrrwi	sp,0xa00,2
e0002280:	0730                	addi	a2,sp,904
e0002282:	00000047          	.4byte	0x47
e0002286:	2b50                	.2byte	0x2b50
e0002288:	67dd                	lui	a5,0x17
e000228a:	ba95                	j	e0001bfe <FLASH_ALSAQR_BOOT_SIGNED+0x16b6>
e000228c:	0250513f 00000000 	.8byte	0x250513f
e0002294:	1c70513f 0001517c 	.8byte	0x1517c1c70513f
e000229c:	0000                	unimp
e000229e:	1100                	addi	s0,sp,160
e00022a0:	0001                	nop
e00022a2:	10cca56f          	jal	a0,e00cc3ae <fromhost+0xbc39e>
e00022a6:	517c                	lw	a5,100(a0)
e00022a8:	0000                	unimp
e00022aa:	de50                	sw	a2,60(a2)
e00022ac:	0052                	c.slli	zero,0x14
e00022ae:	d1b0                	sw	a2,96(a1)
e00022b0:	f050                	.2byte	0xf050
e00022b2:	023c                	addi	a5,sp,264
e00022b4:	0000                	unimp
e00022b6:	5130                	lw	a2,96(a0)
e00022b8:	0002                	c.slli64	zero
e00022ba:	b000                	.2byte	0xb000
e00022bc:	7dff                	.2byte	0x7dff
e00022be:	5178                	lw	a4,100(a0)
e00022c0:	0000                	unimp
e00022c2:	0ef0                	addi	a2,sp,860
e00022c4:	0b24                	addi	s1,sp,408
e00022c6:	9b24                	.2byte	0x9b24
e00022c8:	3c50                	.2byte	0x3c50
e00022ca:	1088                	addi	a0,sp,96
e00022cc:	0000                	unimp
e00022ce:	5130                	lw	a2,96(a0)
e00022d0:	e061                	bnez	s0,e0002390 <FLASH_ALSAQR_BOOT_SIGNED+0x1e48>
e00022d2:	9b2c                	.2byte	0x9b2c
e00022d4:	0820                	addi	s0,sp,24
e00022d6:	1018                	addi	a4,sp,32
e00022d8:	0000                	unimp
e00022da:	1410                	addi	a2,sp,544
e00022dc:	64ec                	.2byte	0x64ec
e00022de:	200c                	.2byte	0x200c
e00022e0:	a26c                	.2byte	0xa26c
e00022e2:	84ac                	.2byte	0x84ac
e00022e4:	0000                	unimp
e00022e6:	c220                	sw	s0,64(a2)
e00022e8:	0001                	nop
e00022ea:	f4df 256c 497c      	.byte	0xdf, 0xf4, 0x6c, 0x25, 0x7c, 0x49
e00022f0:	0000                	unimp
e00022f2:	4520                	lw	s0,72(a0)
e00022f4:	0001                	nop
e00022f6:	9c481dcf          	.4byte	0x9c481dcf
e00022fa:	917c                	.2byte	0x917c
e00022fc:	0000                	unimp
e00022fe:	4930                	lw	a2,80(a0)
e0002300:	0001                	nop
e0002302:	2fff                	.2byte	0x2fff
e0002304:	9c90                	.2byte	0x9c90
e0002306:	997c                	.2byte	0x997c
e0002308:	0000                	unimp
e000230a:	9130                	.2byte	0x9130
e000230c:	0001                	nop
e000230e:	3a9f 4c98 a17d      	.byte	0x9f, 0x3a, 0x98, 0x4c, 0x7d, 0xa1
e0002314:	0000                	unimp
e0002316:	9930                	.2byte	0x9930
e0002318:	0001                	nop
e000231a:	88a0b00f          	.4byte	0x88a0b00f
e000231e:	a97c                	.2byte	0xa97c
e0002320:	0000                	unimp
e0002322:	a130                	.2byte	0xa130
e0002324:	1294                	addi	a3,sp,352
e0002326:	98ac                	.2byte	0x98ac
e0002328:	70a8                	.2byte	0x70a8
e000232a:	088c                	addi	a1,sp,80
e000232c:	0000                	unimp
e000232e:	a930                	.2byte	0xa930
e0002330:	0092                	slli	ra,ra,0x4
e0002332:	2dc0                	.2byte	0x2dc0
e0002334:	50330047          	.4byte	0x50330047
e0002338:	0000                	unimp
e000233a:	0730                	addi	a2,sp,904
e000233c:	16c0                	addi	s0,sp,868
e000233e:	11b4                	addi	a3,sp,232
e0002340:	503c                	lw	a5,96(s0)
e0002342:	00aa                	slli	ra,ra,0xa
e0002344:	0000                	unimp
e0002346:	9010                	.2byte	0x9010
e0002348:	00aa                	slli	ra,ra,0xa
e000234a:	4910                	lw	a2,16(a0)
e000234c:	16c0                	addi	s0,sp,868
e000234e:	503c                	lw	a5,96(s0)
e0002350:	0000                	unimp
e0002352:	5850                	lw	a2,52(s0)
e0002354:	5134                	lw	a3,96(a0)
e0002356:	c230                	sw	a2,64(a2)
e0002358:	0c9a                	slli	s9,s9,0x6
e000235a:	5400                	lw	s0,40(s0)
e000235c:	0000                	unimp
e000235e:	5030                	lw	a2,96(s0)
e0002360:	00a2                	slli	ra,ra,0x8
e0002362:	7380                	.2byte	0x7380
e0002364:	4c10                	lw	a2,24(s0)
e0002366:	5032                	.2byte	0x5032
e0002368:	0000                	unimp
e000236a:	0440                	addi	s0,sp,516
e000236c:	0880                	addi	s0,sp,80
e000236e:	6564                	.2byte	0x6564
e0002370:	0231                	addi	tp,tp,12 # c <_min_stack-0x1ff4>
e0002372:	0aa2                	slli	s5,s5,0x8
e0002374:	0000                	unimp
e0002376:	57d0                	lw	a2,44(a5)
e0002378:	f7558083          	lb	ra,-139(a1)
e000237c:	0881                	addi	a7,a7,0
e000237e:	539c                	lw	a5,32(a5)
e0002380:	0000                	unimp
e0002382:	57d0                	lw	a2,44(a5)
e0002384:	f7d2                	.2byte	0xf7d2
e0002386:	5222c91b          	.4byte	0x5222c91b
e000238a:	6a98                	.2byte	0x6a98
e000238c:	0000                	unimp
e000238e:	6b90                	.2byte	0x6b90
e0002390:	5381517b          	.4byte	0x5381517b
e0002394:	0000                	unimp
e0002396:	f650                	.2byte	0xf650
e0002398:	0000                	unimp
e000239a:	0730                	addi	a2,sp,904
e000239c:	10cc                	addi	a1,sp,100
e000239e:	e234                	.2byte	0xe234
e00023a0:	3e50513f 00000000 	.8byte	0x3e50513f
e00023a8:	1418                	addi	a4,sp,544
e00023aa:	d561                	beqz	a0,e0002372 <FLASH_ALSAQR_BOOT_SIGNED+0x1e2a>
e00023ac:	10c0                	addi	s0,sp,100
e00023ae:	082c                	addi	a1,sp,24
e00023b0:	0000                	unimp
e00023b2:	5850                	lw	a2,52(s0)
e00023b4:	04ac                	addi	a1,sp,584
e00023b6:	c4dc                	sw	a5,12(s1)
e00023b8:	422c                	lw	a1,64(a2)
e00023ba:	226c                	.2byte	0x226c
e00023bc:	0000                	unimp
e00023be:	6060                	.2byte	0x6060
e00023c0:	0001                	nop
e00023c2:	00476e4f          	.4byte	0x476e4f
e00023c6:	00005173          	csrrwi	sp,ustatus,0
e00023ca:	0730                	addi	a2,sp,904
e00023cc:	9114                	.2byte	0x9114
e00023ce:	423c                	lw	a5,64(a2)
e00023d0:	1450                	addi	a2,sp,548
e00023d2:	108c                	addi	a1,sp,96
e00023d4:	0000                	unimp
e00023d6:	5130                	lw	a2,96(a0)
e00023d8:	f450                	.2byte	0xf450
e00023da:	000164db          	.4byte	0x164db
e00023de:	0000513f 1f005170 	.8byte	0x1f0051700000513f
e00023e6:	156c                	addi	a1,sp,684
e00023e8:	1f04                	addi	s1,sp,944
e00023ea:	6054                	.2byte	0x6054
e00023ec:	0000                	unimp
e00023ee:	10c0                	addi	s0,sp,100
e00023f0:	cdc0513f 00015174 	.8byte	0x15174cdc0513f
e00023f8:	0000                	unimp
e00023fa:	1080                	addi	s0,sp,96
e00023fc:	10c1                	addi	ra,ra,-16
e00023fe:	ce4c                	sw	a1,28(a2)
e0002400:	10cc                	addi	a1,sp,100
e0002402:	5fd4                	lw	a3,60(a5)
e0002404:	0000                	unimp
e0002406:	0250                	addi	a2,sp,260
e0002408:	0001                	nop
e000240a:	c4df d654 517e      	.byte	0xdf, 0xc4, 0x54, 0xd6, 0x7e, 0x51
e0002410:	0000                	unimp
e0002412:	1080                	addi	s0,sp,96
e0002414:	5754                	lw	a3,44(a4)
e0002416:	456c                	lw	a1,76(a0)
e0002418:	e050                	.2byte	0xe050
e000241a:	0000108b          	.4byte	0x108b
e000241e:	5130                	lw	a2,96(a0)
e0002420:	b850                	.2byte	0xb850
e0002422:	61bc                	.2byte	0x61bc
e0002424:	0001                	nop
e0002426:	0000513f 913f5170 	.8byte	0x913f51700000513f
e000242e:	8380                	.2byte	0x8380
e0002430:	9174                	.2byte	0x9174
e0002432:	0001                	nop
e0002434:	0000                	unimp
e0002436:	10c0                	addi	s0,sp,100
e0002438:	6174                	.2byte	0x6174
e000243a:	b911                	j	e000204e <FLASH_ALSAQR_BOOT_SIGNED+0x1b06>
e000243c:	885cdddb          	.4byte	0x885cdddb
e0002440:	0000                	unimp
e0002442:	de90                	sw	a2,56(a3)
e0002444:	2004851b          	.4byte	0x2004851b
e0002448:	b260613f 00000000 	.8byte	0xb260613f
e0002450:	0c28                	addi	a0,sp,536
e0002452:	61bc                	.2byte	0x61bc
e0002454:	0001                	nop
e0002456:	0000293f 9c302970 	.8byte	0x9c3029700000293f
e000245e:	0001591b          	.4byte	0x1591b
e0002462:	0000313f c5853170 	.8byte	0xc58531700000313f
e000246a:	7a94                	.2byte	0x7a94
e000246c:	5c04                	lw	s1,56(s0)
e000246e:	00c4                	addi	s1,sp,68
e0002470:	0000                	unimp
e0002472:	54c0                	lw	s0,44(s1)
e0002474:	2d85                	jal	e0002ae4 <FLASH_ALSAQR_BOOT_SIGNED+0x259c>
e0002476:	a1bc                	.2byte	0xa1bc
e0002478:	70c5                	lui	ra,0xffff1
e000247a:	014c                	addi	a1,sp,132
e000247c:	0000                	unimp
e000247e:	4040                	lw	s0,4(s0)
e0002480:	3630                	.2byte	0x3630
e0002482:	3b29                	jal	e000219c <FLASH_ALSAQR_BOOT_SIGNED+0x1c54>
e0002484:	7134                	.2byte	0x7134
e0002486:	1840                	addi	s0,sp,52
e0002488:	0000                	unimp
e000248a:	0cc0                	addi	s0,sp,596
e000248c:	2042                	.2byte	0x2042
e000248e:	5560                	lw	s0,108(a0)
e0002490:	0d40                	addi	s0,sp,660
e0002492:	423c                	lw	a5,64(a2)
e0002494:	0000                	unimp
e0002496:	0e50                	addi	a2,sp,788
e0002498:	44cc                	lw	a1,12(s1)
e000249a:	0564                	addi	s1,sp,652
e000249c:	5fd4                	lw	a3,60(a5)
e000249e:	08c1                	addi	a7,a7,16
e00024a0:	0000                	unimp
e00024a2:	08c0                	addi	s0,sp,84
e00024a4:	44cc                	lw	a1,12(s1)
e00024a6:	5384                	lw	s1,32(a5)
e00024a8:	8544                	.2byte	0x8544
e00024aa:	70c4                	.2byte	0x70c4
e00024ac:	0000                	unimp
e00024ae:	4180                	lw	s0,0(a1)
e00024b0:	0440                	addi	s0,sp,516
e00024b2:	cb20                	sw	s0,80(a4)
e00024b4:	2d8c                	.2byte	0x2d8c
e00024b6:	4934                	lw	a3,80(a0)
e00024b8:	0000                	unimp
e00024ba:	1d80                	addi	s0,sp,752
e00024bc:	28cc                	.2byte	0x28cc
e00024be:	4914                	lw	a3,16(a0)
e00024c0:	0971                	addi	s2,s2,28
e00024c2:	2cc0                	.2byte	0x2cc0
e00024c4:	0000                	unimp
e00024c6:	3630                	.2byte	0x3630
e00024c8:	2145                	jal	e0002968 <FLASH_ALSAQR_BOOT_SIGNED+0x2420>
e00024ca:	88a4                	.2byte	0x88a4
e00024cc:	28c1                	jal	e000259c <FLASH_ALSAQR_BOOT_SIGNED+0x2054>
e00024ce:	44cc                	lw	a1,12(s1)
e00024d0:	0000                	unimp
e00024d2:	5fd0                	lw	a2,60(a5)
e00024d4:	2148                	.2byte	0x2148
e00024d6:	ea9c                	.2byte	0xea9c
e00024d8:	0b89                	addi	s7,s7,2
e00024da:	ed90                	.2byte	0xed90
e00024dc:	0000                	unimp
e00024de:	7330                	.2byte	0x7330
e00024e0:	2d89                	jal	e0002b32 <FLASH_ALSAQR_BOOT_SIGNED+0x25ea>
e00024e2:	dc74                	sw	a3,124(s0)
e00024e4:	3058                	.2byte	0x3058
e00024e6:	6960                	.2byte	0x6960
e00024e8:	0000                	unimp
e00024ea:	6b30                	.2byte	0x6b30
e00024ec:	71cc                	.2byte	0x71cc
e00024ee:	a1b4                	.2byte	0xa1b4
e00024f0:	71cc                	.2byte	0x71cc
e00024f2:	45c4                	lw	s1,12(a1)
e00024f4:	0000                	unimp
e00024f6:	4180                	lw	s0,0(a1)
e00024f8:	298c                	.2byte	0x298c
e00024fa:	d6e4                	sw	s1,108(a3)
e00024fc:	704c                	.2byte	0x704c
e00024fe:	854c                	.2byte	0x854c
e0002500:	0000                	unimp
e0002502:	3c40                	.2byte	0x3c40
e0002504:	0032                	c.slli	zero,0xc
e0002506:	1000                	addi	s0,sp,32
e0002508:	2980                	.2byte	0x2980
e000250a:	683c                	.2byte	0x683c
e000250c:	0000                	unimp
e000250e:	7050                	.2byte	0x7050
e0002510:	0230                	addi	a2,sp,264
e0002512:	dff2                	sw	t3,252(sp)
e0002514:	4635                	li	a2,13
e0002516:	0d5e                	slli	s10,s10,0x17
e0002518:	0000                	unimp
e000251a:	6d40                	.2byte	0x6d40
e000251c:	517f                	.2byte	0x517f
e000251e:	28a1                	jal	e0002576 <FLASH_ALSAQR_BOOT_SIGNED+0x202e>
e0002520:	10c0                	addi	s0,sp,100
e0002522:	1d14                	addi	a3,sp,688
e0002524:	0000                	unimp
e0002526:	1190                	addi	a2,sp,224
e0002528:	b6e410cb          	.4byte	0xb6e410cb
e000252c:	2e50513f 00000000 	.8byte	0x2e50513f
e0002534:	5484                	lw	s1,40(s1)
e0002536:	3564                	.2byte	0x3564
e0002538:	5894                	lw	a3,48(s1)
e000253a:	108c                	addi	a1,sp,96
e000253c:	0000                	unimp
e000253e:	18c0                	addi	s0,sp,116
e0002540:	5975                	li	s2,-3
e0002542:	0dc1                	addi	s11,s11,16 # ffff0010 <fromhost+0x1ffe0000>
e0002544:	0114                	addi	a3,sp,128
e0002546:	57da                	lw	a5,180(sp)
e0002548:	0000                	unimp
e000254a:	1080                	addi	s0,sp,96
e000254c:	e38c188b          	.4byte	0xe38c188b
e0002550:	2a58593f 00000000 	.8byte	0x2a58593f
e0002558:	2840                	.2byte	0x2840
e000255a:	0001875b          	.4byte	0x1875b
e000255e:	0000413f 4fd24170 	.8byte	0x4fd241700000413f
e0002566:	d1b1                	beqz	a1,e00024aa <FLASH_ALSAQR_BOOT_SIGNED+0x1f62>
e0002568:	4914                	lw	a3,16(a0)
e000256a:	839c                	.2byte	0x839c
e000256c:	0000                	unimp
e000256e:	0040                	addi	s0,sp,4
e0002570:	5030                	lw	a2,96(s0)
e0002572:	3ff2                	.2byte	0x3ff2
e0002574:	0042023f cf500000 	.8byte	0xcf5000000042023f
e000257c:	9024                	.2byte	0x9024
e000257e:	7384                	.2byte	0x7384
e0002580:	9650                	.2byte	0x9650
e0002582:	00005013          	srli	zero,zero,0x0
e0002586:	0090                	addi	a2,sp,64
e0002588:	1414                	addi	a3,sp,544
e000258a:	db20                	sw	s0,112(a4)
e000258c:	4224                	lw	s1,64(a2)
e000258e:	0b24                	addi	s1,sp,408
e0002590:	0000                	unimp
e0002592:	4920                	lw	s0,80(a0)
e0002594:	06e0513f 00015178 	.8byte	0x1517806e0513f
e000259c:	0000                	unimp
e000259e:	0820                	addi	s0,sp,24
e00025a0:	517c                	lw	a5,100(a0)
e00025a2:	1001                	c.nop	-32
e00025a4:	108a                	slli	ra,ra,0x22
e00025a6:	9094                	.2byte	0x9094
e00025a8:	0000                	unimp
e00025aa:	ea50                	.2byte	0xea50
e00025ac:	10ca                	slli	ra,ra,0x32
e00025ae:	ab24                	.2byte	0xab24
e00025b0:	f250513f 00000000 	.8byte	0xf250513f
e00025b8:	517a                	lw	sp,188(sp)
e00025ba:	ce41                	beqz	a2,e0002652 <FLASH_ALSAQR_BOOT_SIGNED+0x210a>
e00025bc:	10c0                	addi	s0,sp,100
e00025be:	a01c                	.2byte	0xa01c
e00025c0:	0000                	unimp
e00025c2:	5850                	lw	a2,52(s0)
e00025c4:	10ca                	slli	ra,ra,0x32
e00025c6:	9914                	.2byte	0x9914
e00025c8:	de50513f 00000000 	.8byte	0xde50513f
e00025d0:	0752                	slli	a4,a4,0x14
e00025d2:	eb20                	.2byte	0xeb20
e00025d4:	0158                	addi	a4,sp,132
e00025d6:	0230                	addi	a2,sp,264
e00025d8:	0000                	unimp
e00025da:	3930                	.2byte	0x3930
e00025dc:	b4e0                	.2byte	0xb4e0
e00025de:	691a                	.2byte	0x691a
e00025e0:	0001                	nop
e00025e2:	0000e13f c080e170 	.8byte	0xc080e1700000e13f
e00025ea:	691a                	.2byte	0x691a
e00025ec:	0001                	nop
e00025ee:	0000813f 00e28170 	.8byte	0xe281700000813f
e00025f6:	0560                	addi	s0,sp,652
e00025f8:	50302b3f f6300000 	.8byte	0xf630000050302b3f
e0002600:	a058                	.2byte	0xa058
e0002602:	74da                	.2byte	0x74da
e0002604:	0001                	nop
e0002606:	0000593f 18805970 	.8byte	0x188059700000593f
e000260e:	54dc                	lw	a5,44(s1)
e0002610:	0234                	addi	a3,sp,264
e0002612:	0de2                	slli	s11,s11,0x18
e0002614:	0000                	unimp
e0002616:	1940                	addi	s0,sp,180
e0002618:	ac50                	.2byte	0xac50
e000261a:	28aa                	.2byte	0x28aa
e000261c:	0001                	nop
e000261e:	0000513f 503c5170 	.8byte	0x503c51700000513f
e0002626:	adc2                	.2byte	0xadc2
e0002628:	5854                	lw	a3,52(s0)
e000262a:	10c0                	addi	s0,sp,100
e000262c:	0000                	unimp
e000262e:	10c0                	addi	s0,sp,100
e0002630:	503c                	lw	a5,96(s0)
e0002632:	8002                	.2byte	0x8002
e0002634:	1080                	addi	s0,sp,96
e0002636:	5114                	lw	a3,32(a0)
e0002638:	0000                	unimp
e000263a:	00e0                	addi	s0,sp,76
e000263c:	0114                	addi	a3,sp,128
e000263e:	a75a                	.2byte	0xa75a
e0002640:	5480                	lw	s0,40(s1)
e0002642:	1084                	addi	s1,sp,96
e0002644:	0000                	unimp
e0002646:	00e0                	addi	s0,sp,76
e0002648:	5030                	lw	a2,96(s0)
e000264a:	aff2                	.2byte	0xaff2
e000264c:	0235                	addi	tp,tp,13 # d <_min_stack-0x1ff3>
e000264e:	0a82                	c.slli64	s5
e0002650:	0000                	unimp
e0002652:	57d0                	lw	a2,44(a5)
e0002654:	5030                	lw	a2,96(s0)
e0002656:	6912                	.2byte	0x6912
e0002658:	5630                	lw	a2,104(a2)
e000265a:	aa3e                	.2byte	0xaa3e
e000265c:	0000                	unimp
e000265e:	0080                	addi	s0,sp,64
e0002660:	885c                	.2byte	0x885c
e0002662:	9dc4                	.2byte	0x9dc4
e0002664:	1080                	addi	s0,sp,96
e0002666:	d494                	sw	a3,40(s1)
e0002668:	0000                	unimp
e000266a:	00e0                	addi	s0,sp,76
e000266c:	40e8                	lw	a0,68(s1)
e000266e:	3c7a                	.2byte	0x3c7a
e0002670:	0001                	nop
e0002672:	0000e93f 313fe970 	.8byte	0x313fe9700000e93f
e000267a:	b380                	.2byte	0xb380
e000267c:	3174                	.2byte	0x3174
e000267e:	0001                	nop
e0002680:	0000                	unimp
e0002682:	2d10                	.2byte	0x2d10
e0002684:	5480                	lw	s0,40(s1)
e0002686:	5c74                	lw	a3,124(s0)
e0002688:	503a                	.2byte	0x503a
e000268a:	00e2                	slli	ra,ra,0x18
e000268c:	0000                	unimp
e000268e:	9a30                	.2byte	0x9a30
e0002690:	6a3e                	.2byte	0x6a3e
e0002692:	7e40                	.2byte	0x7e40
e0002694:	2c84                	.2byte	0x2c84
e0002696:	e634                	.2byte	0xe634
e0002698:	0000                	unimp
e000269a:	5540                	lw	s0,44(a0)
e000269c:	78c4                	.2byte	0x78c4
e000269e:	900c                	.2byte	0x900c
e00026a0:	69c4                	.2byte	0x69c4
e00026a2:	ac84                	.2byte	0xac84
e00026a4:	0000                	unimp
e00026a6:	6cc0                	.2byte	0x6cc0
e00026a8:	7934                	.2byte	0x7934
e00026aa:	7a98                	.2byte	0x7a98
e00026ac:	1dc4                	addi	s1,sp,756
e00026ae:	150c                	addi	a1,sp,672
e00026b0:	0000                	unimp
e00026b2:	6cc0                	.2byte	0x6cc0
e00026b4:	14c0                	addi	s0,sp,612
e00026b6:	aa9c                	.2byte	0xaa9c
e00026b8:	3630                	.2byte	0x3630
e00026ba:	0f61                	addi	t5,t5,24
e00026bc:	0000                	unimp
e00026be:	0460                	addi	s0,sp,524
e00026c0:	688c                	.2byte	0x688c
e00026c2:	ba95                	j	e0002036 <FLASH_ALSAQR_BOOT_SIGNED+0x1aee>
e00026c4:	5fd4                	lw	a3,60(a5)
e00026c6:	10c1                	addi	ra,ra,-16 # ffff0ff0 <fromhost+0x1ffe0fe0>
e00026c8:	0000                	unimp
e00026ca:	10c0                	addi	s0,sp,100
e00026cc:	60c4                	.2byte	0x60c4
e00026ce:	ee4c                	.2byte	0xee4c
e00026d0:	28cc                	.2byte	0x28cc
e00026d2:	ed05                	bnez	a0,e000270a <FLASH_ALSAQR_BOOT_SIGNED+0x21c2>
e00026d4:	0000                	unimp
e00026d6:	10d0                	addi	a2,sp,100
e00026d8:	7134                	.2byte	0x7134
e00026da:	d008                	sw	a0,32(s0)
e00026dc:	1d05                	addi	s10,s10,-31
e00026de:	150c                	addi	a1,sp,672
e00026e0:	0000                	unimp
e00026e2:	28c0                	.2byte	0x28c0
e00026e4:	14c0                	addi	s0,sp,612
e00026e6:	438c                	lw	a1,0(a5)
e00026e8:	3630                	.2byte	0x3630
e00026ea:	0e61                	addi	t3,t3,24
e00026ec:	0000                	unimp
e00026ee:	1860                	addi	s0,sp,60
e00026f0:	5fd4                	lw	a3,60(a5)
e00026f2:	0751                	addi	a4,a4,20
e00026f4:	206a                	.2byte	0x206a
e00026f6:	10c0                	addi	s0,sp,100
e00026f8:	0000                	unimp
e00026fa:	4230                	lw	a2,64(a2)
e00026fc:	00ea                	slli	ra,ra,0x1a
e00026fe:	61b0                	.2byte	0x61b0
e0002700:	6c8c                	.2byte	0x6c8c
e0002702:	5835                	li	a6,-19
e0002704:	0000                	unimp
e0002706:	10c0                	addi	s0,sp,100
e0002708:	0238                	addi	a4,sp,264
e000270a:	738a                	.2byte	0x738a
e000270c:	0a89                	addi	s5,s5,2
e000270e:	dd10                	sw	a2,56(a0)
e0002710:	0000                	unimp
e0002712:	6330                	.2byte	0x6330
e0002714:	51a0                	lw	s0,96(a1)
e0002716:	01b9                	addi	gp,gp,14 # 20c0c00e <tohost+0x20bec006>
e0002718:	5330                	lw	a2,96(a4)
e000271a:	2550                	.2byte	0x2550
e000271c:	0000                	unimp
e000271e:	0be0                	addi	s0,sp,476
e0002720:	6d04                	.2byte	0x6d04
e0002722:	a56c                	.2byte	0xa56c
e0002724:	68c4                	.2byte	0x68c4
e0002726:	590c                	lw	a1,48(a0)
e0002728:	0000                	unimp
e000272a:	14c0                	addi	s0,sp,612
e000272c:	ac8c                	.2byte	0xac8c
e000272e:	2a9c                	.2byte	0x2a9c
e0002730:	25c4                	.2byte	0x25c4
e0002732:	59cc                	lw	a1,52(a1)
e0002734:	0000                	unimp
e0002736:	5900                	lw	s0,48(a0)
e0002738:	503c                	lw	a5,96(s0)
e000273a:	adc2                	.2byte	0xadc2
e000273c:	5854                	lw	a3,52(s0)
e000273e:	10c0                	addi	s0,sp,100
e0002740:	0000                	unimp
e0002742:	10c0                	addi	s0,sp,100
e0002744:	57df ddc5 1080      	.byte	0xdf, 0x57, 0xc5, 0xdd, 0x80, 0x10
e000274a:	d3d4                	sw	a3,36(a5)
e000274c:	0000                	unimp
e000274e:	00e0                	addi	s0,sp,76
e0002750:	0824                	addi	s1,sp,24
e0002752:	04d8                	addi	a4,sp,580
e0002754:	0a82                	c.slli64	s5
e0002756:	5010                	lw	a2,32(s0)
e0002758:	0000                	unimp
e000275a:	0230                	addi	a2,sp,264
e000275c:	67dc                	.2byte	0x67dc
e000275e:	1ff5                	addi	t6,t6,-3 # 1cffd <_stack_len+0x14ffd>
e0002760:	0850                	addi	a2,sp,20
e0002762:	14c0                	addi	s0,sp,612
e0002764:	0000                	unimp
e0002766:	5930                	lw	a2,112(a0)
e0002768:	023c                	addi	a5,sp,264
e000276a:	c002                	sw	zero,0(sp)
e000276c:	54cc                	lw	a1,44(s1)
e000276e:	90cc                	.2byte	0x90cc
e0002770:	0000                	unimp
e0002772:	5100                	lw	s0,32(a0)
e0002774:	0052                	c.slli	zero,0x14
e0002776:	cb20                	sw	s0,80(a4)
e0002778:	0820                	addi	s0,sp,24
e000277a:	8238                	.2byte	0x8238
e000277c:	0000                	unimp
e000277e:	0050                	addi	a2,sp,4
e0002780:	90c4                	.2byte	0x90c4
e0002782:	1004                	addi	s1,sp,32
e0002784:	5108                	lw	a0,32(a0)
e0002786:	1544                	addi	s1,sp,676
e0002788:	0000                	unimp
e000278a:	0820                	addi	s0,sp,24
e000278c:	1d4c                	addi	a1,sp,692
e000278e:	2914                	.2byte	0x2914
e0002790:	510c                	lw	a1,32(a0)
e0002792:	2544                	.2byte	0x2544
e0002794:	0000                	unimp
e0002796:	6900                	.2byte	0x6900
e0002798:	823c                	.2byte	0x823c
e000279a:	71b2                	.2byte	0x71b2
e000279c:	0a69                	addi	s4,s4,26
e000279e:	1d00                	addi	s0,sp,688
e00027a0:	0000                	unimp
e00027a2:	3630                	.2byte	0x3630
e00027a4:	1881                	addi	a7,a7,-32
e00027a6:	223c                	.2byte	0x223c
e00027a8:	1880                	addi	s0,sp,112
e00027aa:	57d4                	lw	a3,44(a5)
e00027ac:	0000                	unimp
e00027ae:	0050                	addi	a2,sp,4
e00027b0:	6061                	c.lui	zero,0x18
e00027b2:	e1bc                	.2byte	0xe1bc
e00027b4:	0824                	addi	s1,sp,24
e00027b6:	1418                	addi	a4,sp,544
e00027b8:	0000                	unimp
e00027ba:	1880                	addi	s0,sp,112
e00027bc:	42ac                	lw	a1,64(a3)
e00027be:	56e8                	lw	a0,108(a3)
e00027c0:	226c                	.2byte	0x226c
e00027c2:	04ac                	addi	a1,sp,584
e00027c4:	0000                	unimp
e00027c6:	4220                	lw	s0,64(a2)
e00027c8:	f4d00f47          	.4byte	0xf4d00f47
e00027cc:	5419                	li	s0,-26
e00027ce:	5930                	lw	a2,112(a0)
e00027d0:	0000                	unimp
e00027d2:	9410                	.2byte	0x9410
e00027d4:	1914                	addi	a3,sp,176
e00027d6:	d4dc                	sw	a5,44(s1)
e00027d8:	0a46                	slli	s4,s4,0x11
e00027da:	5010                	lw	a2,32(s0)
e00027dc:	0000                	unimp
e00027de:	3630                	.2byte	0x3630
e00027e0:	0001                	nop
e00027e2:	3158200f          	.4byte	0x3158200f
e00027e6:	00005173          	csrrwi	sp,ustatus,0
e00027ea:	42a0                	lw	s0,64(a3)
e00027ec:	0994                	addi	a3,sp,208
e00027ee:	d4dc                	sw	a5,44(s1)
e00027f0:	7c50                	.2byte	0x7c50
e00027f2:	1049                	c.nop	-14
e00027f4:	0000                	unimp
e00027f6:	5130                	lw	a2,96(a0)
e00027f8:	0001                	nop
e00027fa:	8a9f 081e 597a      	.byte	0x9f, 0x8a, 0x1e, 0x08, 0x7a, 0x59
e0002800:	0000                	unimp
e0002802:	8190                	.2byte	0x8190
e0002804:	4930                	lw	a2,80(a0)
e0002806:	60581e4f          	.4byte	0x60581e4f
e000280a:	5c1a                	lw	s8,164(sp)
e000280c:	0000                	unimp
e000280e:	5930                	lw	a2,112(a0)
e0002810:	517c                	lw	a5,100(a0)
e0002812:	5e41                	li	t3,-16
e0002814:	41dc104f          	.4byte	0x41dc104f
e0002818:	0000                	unimp
e000281a:	f050                	.2byte	0xf050
e000281c:	9039                	srli	s0,s0,0x2e
e000281e:	6382                	.2byte	0x6382
e0002820:	5e50513f 00000000 	.8byte	0x5e50513f
e0002828:	6130                	.2byte	0x6130
e000282a:	f56d                	bnez	a0,e0002814 <FLASH_ALSAQR_BOOT_SIGNED+0x22cc>
e000282c:	5b30                	lw	a2,112(a4)
e000282e:	0890                	addi	a2,sp,80
e0002830:	0000                	unimp
e0002832:	0050                	addi	a2,sp,4
e0002834:	b2336b37          	lui	s6,0xb2336
e0002838:	6130                	.2byte	0x6130
e000283a:	0000ff63          	bgeu	ra,zero,e0002858 <FLASH_ALSAQR_BOOT_SIGNED+0x2310>
e000283e:	0450                	addi	a2,sp,516
e0002840:	10cc                	addi	a1,sp,100
e0002842:	f1bc                	.2byte	0xf1bc
e0002844:	e750                	.2byte	0xe750
e0002846:	6198                	.2byte	0x6198
e0002848:	0000                	unimp
e000284a:	0b90                	addi	a2,sp,464
e000284c:	1248                	addi	a0,sp,292
e000284e:	a000                	.2byte	0xa000
e0002850:	533c4893          	xori	a7,s8,1331
e0002854:	0000                	unimp
e0002856:	1fd0                	addi	a2,sp,1012
e0002858:	3cff                	.2byte	0x3cff
e000285a:	d23c                	sw	a5,96(a2)
e000285c:	1d5a                	slli	s10,s10,0x36
e000285e:	00000ef3          	.4byte	0xef3
e0002862:	0290                	addi	a2,sp,320
e0002864:	4224                	lw	s1,64(a2)
e0002866:	7b24                	.2byte	0x7b24
e0002868:	9024                	.2byte	0x9024
e000286a:	4924                	lw	s1,80(a0)
e000286c:	0000                	unimp
e000286e:	5010                	lw	a2,32(s0)
e0002870:	0828                	addi	a0,sp,24
e0002872:	31b8                	.2byte	0x31b8
e0002874:	1414                	addi	a3,sp,544
e0002876:	0820                	addi	s0,sp,24
e0002878:	0000                	unimp
e000287a:	0b20                	addi	s0,sp,408
e000287c:	0824                	addi	s1,sp,24
e000287e:	91b8                	.2byte	0x91b8
e0002880:	0824                	addi	s1,sp,24
e0002882:	5058                	lw	a4,36(s0)
e0002884:	0000                	unimp
e0002886:	5050                	lw	a2,36(s0)
e0002888:	a26c                	.2byte	0xa26c
e000288a:	b56c                	.2byte	0xb56c
e000288c:	e061                	bnez	s0,e000294c <FLASH_ALSAQR_BOOT_SIGNED+0x2404>
e000288e:	c22c                	sw	a1,64(a2)
e0002890:	0000                	unimp
e0002892:	1010                	addi	a2,sp,32
e0002894:	517e                	lw	sp,252(sp)
e0002896:	ce42                	sw	a6,28(sp)
e0002898:	42a8                	lw	a0,64(a3)
e000289a:	d858                	sw	a4,52(s0)
e000289c:	0000                	unimp
e000289e:	4ae0                	lw	s0,84(a3)
e00028a0:	f564108b          	.4byte	0xf564108b
e00028a4:	5130                	lw	a2,96(a0)
e00028a6:	1650                	addi	a2,sp,804
e00028a8:	0000                	unimp
e00028aa:	0000                	unimp
e00028ac:	5131                	li	sp,-20
e00028ae:	5dc0                	lw	s0,60(a1)
e00028b0:	517c                	lw	a5,100(a0)
e00028b2:	0000000f          	fence	unknown,unknown
e00028b6:	9010                	.2byte	0x9010
e00028b8:	8192                	mv	gp,tp
e00028ba:	bb2a                	.2byte	0xbb2a
e00028bc:	5819                	li	a6,-26
e00028be:	af14                	.2byte	0xaf14
e00028c0:	0000                	unimp
e00028c2:	5650                	lw	a2,44(a2)
e00028c4:	cc58                	sw	a4,28(s0)
e00028c6:	34d4                	.2byte	0x34d4
e00028c8:	0001                	nop
e00028ca:	5930                	lw	a2,112(a0)
e00028cc:	0000                	unimp
e00028ce:	5970                	lw	a2,116(a0)
e00028d0:	a300                	.2byte	0xa300
e00028d2:	b4d2                	.2byte	0xb4d2
e00028d4:	6518                	.2byte	0x6518
e00028d6:	0ef4                	addi	a3,sp,860
e00028d8:	0000                	unimp
e00028da:	50a0                	lw	s0,96(s1)
e00028dc:	5136                	lw	sp,108(sp)
e00028de:	4dc0                	lw	s0,28(a1)
e00028e0:	2158                	.2byte	0x2158
e00028e2:	5312                	lw	t1,36(sp)
e00028e4:	0000                	unimp
e00028e6:	50a0                	lw	s0,96(s1)
e00028e8:	561c                	lw	a5,40(a2)
e00028ea:	36e6                	.2byte	0x36e6
e00028ec:	899a                	mv	s3,t1
e00028ee:	0042                	c.slli	zero,0x10
e00028f0:	0000                	unimp
e00028f2:	ad50                	.2byte	0xad50
e00028f4:	537c                	lw	a5,100(a4)
e00028f6:	f56c                	.2byte	0xf56c
e00028f8:	a050                	.2byte	0xa050
e00028fa:	0486                	slli	s1,s1,0x1
e00028fc:	0000                	unimp
e00028fe:	5130                	lw	a2,96(a0)
e0002900:	408e                	lw	ra,192(sp)
e0002902:	9e4c                	.2byte	0x9e4c
e0002904:	513d                	li	sp,-17
e0002906:	ef50                	.2byte	0xef50
e0002908:	0000                	unimp
e000290a:	ead0                	.2byte	0xead0
e000290c:	5750                	lw	a2,44(a4)
e000290e:	9e40                	.2byte	0x9e40
e0002910:	0000                	unimp
e0002912:	5138                	lw	a4,96(a0)
e0002914:	0000                	unimp
e0002916:	5370                	lw	a2,100(a4)
e0002918:	5971                	li	s2,-4
e000291a:	56e2                	lw	a3,56(sp)
e000291c:	513c                	lw	a5,96(a0)
e000291e:	0000                	unimp
e0002920:	0000                	unimp
e0002922:	4480                	lw	s0,8(s1)
e0002924:	18ca                	slli	a7,a7,0x32
e0002926:	7a94                	.2byte	0x7a94
e0002928:	5930                	lw	a2,112(a0)
e000292a:	a258                	.2byte	0xa258
e000292c:	0000                	unimp
e000292e:	0000                	unimp
e0002930:	8484                	.2byte	0x8484
e0002932:	138c                	addi	a1,sp,480
e0002934:	57dc                	lw	a5,44(a5)
e0002936:	6095                	lui	ra,0x5
e0002938:	0000                	unimp
e000293a:	8080                	.2byte	0x8080
e000293c:	0042                	c.slli	zero,0x10
e000293e:	0a90                	addi	a2,sp,336
e0002940:	0c5e                	slli	s8,s8,0x17
e0002942:	8230                	.2byte	0x8230
e0002944:	0000                	unimp
e0002946:	4630                	lw	a2,72(a2)
e0002948:	1054                	addi	a3,sp,36
e000294a:	aff6                	.2byte	0xaff6
e000294c:	4624                	lw	s1,72(a2)
e000294e:	0f24                	addi	s1,sp,920
e0002950:	0000                	unimp
e0002952:	4d20                	lw	s0,88(a0)
e0002954:	1884                	addi	s1,sp,112
e0002956:	cb2c                	sw	a1,80(a4)
e0002958:	5818                	lw	a4,48(s0)
e000295a:	601c                	.2byte	0x601c
e000295c:	0000                	unimp
e000295e:	0820                	addi	s0,sp,24
e0002960:	0828                	addi	a0,sp,24
e0002962:	4568                	lw	a0,76(a0)
e0002964:	60da                	.2byte	0x60da
e0002966:	5324                	lw	s1,96(a4)
e0002968:	0000                	unimp
e000296a:	0110                	addi	a2,sp,128
e000296c:	5936                	lw	s2,108(sp)
e000296e:	e4d8                	.2byte	0xe4d8
e0002970:	e061                	bnez	s0,e0002a30 <FLASH_ALSAQR_BOOT_SIGNED+0x24e8>
e0002972:	5b1c                	lw	a5,48(a4)
e0002974:	0000                	unimp
e0002976:	1010                	addi	a2,sp,32
e0002978:	5a50                	lw	a2,52(a2)
e000297a:	3916                	.2byte	0x3916
e000297c:	063a                	slli	a2,a2,0xe
e000297e:	2b50                	.2byte	0x2b50
e0002980:	0000                	unimp
e0002982:	ad50                	.2byte	0xad50
e0002984:	5970                	lw	a2,116(a0)
e0002986:	0ff2                	slli	t6,t6,0x1c
e0002988:	d630                	sw	a2,104(a2)
e000298a:	2b50                	.2byte	0x2b50
e000298c:	0000                	unimp
e000298e:	5b50                	lw	a2,52(a4)
e0002990:	18ca                	slli	a7,a7,0x32
e0002992:	d754                	sw	a3,44(a4)
e0002994:	5930                	lw	a2,112(a0)
e0002996:	7258                	.2byte	0x7258
e0002998:	0000                	unimp
e000299a:	0000                	unimp
e000299c:	1054                	addi	a3,sp,36
e000299e:	7386                	.2byte	0x7386
e00029a0:	188c                	addi	a1,sp,112
e00029a2:	0f2c                	addi	a1,sp,920
e00029a4:	0000                	unimp
e00029a6:	1910                	addi	a2,sp,176
e00029a8:	5130                	lw	a2,96(a0)
e00029aa:	84d0                	.2byte	0x84d0
e00029ac:	5178                	lw	a4,100(a0)
e00029ae:	0002                	c.slli64	zero
e00029b0:	0000                	unimp
e00029b2:	0820                	addi	s0,sp,24
e00029b4:	597e                	lw	s2,252(sp)
e00029b6:	1ff1                	addi	t6,t6,-4
e00029b8:	108a                	slli	ra,ra,0x22
e00029ba:	d0d4                	sw	a3,36(s1)
e00029bc:	0000                	unimp
e00029be:	6250                	.2byte	0x6250
e00029c0:	ec700287          	.4byte	0xec700287
e00029c4:	5930                	lw	a2,112(a0)
e00029c6:	7258                	.2byte	0x7258
e00029c8:	0000                	unimp
e00029ca:	0000                	unimp
e00029cc:	0281                	addi	t0,t0,0
e00029ce:	8ff0                	.2byte	0x8ff0
e00029d0:	0ef4                	addi	a3,sp,860
e00029d2:	fd00                	.2byte	0xfd00
e00029d4:	0000                	unimp
e00029d6:	6510                	.2byte	0x6510
e00029d8:	0002                	c.slli64	zero
e00029da:	0560                	addi	s0,sp,652
e00029dc:	8052                	c.mv	zero,s4
e00029de:	517a                	lw	sp,188(sp)
e00029e0:	0000                	unimp
e00029e2:	8bd0                	.2byte	0x8bd0
e00029e4:	d054                	sw	a3,36(s0)
e00029e6:	2e4e                	.2byte	0x2e4e
e00029e8:	4050                	lw	a2,4(s0)
e00029ea:	108a                	slli	ra,ra,0x22
e00029ec:	0000                	unimp
e00029ee:	5130                	lw	a2,96(a0)
e00029f0:	3c58                	.2byte	0x3c58
e00029f2:	00018237          	lui	tp,0x18
e00029f6:	5930                	lw	a2,112(a0)
e00029f8:	0000                	unimp
e00029fa:	5970                	lw	a2,116(a0)
e00029fc:	db00                	sw	s0,48(a4)
e00029fe:	6561                	lui	a0,0x18
e0002a00:	6510                	.2byte	0x6510
e0002a02:	0ef4                	addi	a3,sp,860
e0002a04:	0000                	unimp
e0002a06:	0280                	addi	s0,sp,320
e0002a08:	517a                	lw	sp,188(sp)
e0002a0a:	8b10d00f          	.4byte	0x8b10d00f
e0002a0e:	03d2                	slli	t2,t2,0x14
e0002a10:	0000                	unimp
e0002a12:	0280                	addi	s0,sp,320
e0002a14:	5818                	lw	a4,48(s0)
e0002a16:	9234                	.2byte	0x9234
e0002a18:	5131                	li	sp,-20
e0002a1a:	ba50                	.2byte	0xba50
e0002a1c:	0000                	unimp
e0002a1e:	0000                	unimp
e0002a20:	5130                	lw	a2,96(a0)
e0002a22:	1910                	addi	a2,sp,176
e0002a24:	5172                	lw	sp,60(sp)
e0002a26:	0002                	c.slli64	zero
e0002a28:	0000                	unimp
e0002a2a:	8c50                	.2byte	0x8c50
e0002a2c:	5b1c                	lw	a5,48(a4)
e0002a2e:	cff6                	sw	t4,220(sp)
e0002a30:	108a                	slli	ra,ra,0x22
e0002a32:	5054                	lw	a3,36(s0)
e0002a34:	0000                	unimp
e0002a36:	0e50                	addi	a2,sp,788
e0002a38:	517a                	lw	sp,188(sp)
e0002a3a:	ad58be4f          	.4byte	0xad58be4f
e0002a3e:	839a                	mv	t2,t1
e0002a40:	0000                	unimp
e0002a42:	5930                	lw	a2,112(a0)
e0002a44:	5818                	lw	a4,48(s0)
e0002a46:	8ff4                	.2byte	0x8ff4
e0002a48:	5131                	li	sp,-20
e0002a4a:	8650                	.2byte	0x8650
e0002a4c:	0000                	unimp
e0002a4e:	0000                	unimp
e0002a50:	5130                	lw	a2,96(a0)
e0002a52:	9c70                	.2byte	0x9c70
e0002a54:	5172                	lw	sp,60(sp)
e0002a56:	0002                	c.slli64	zero
e0002a58:	0000                	unimp
e0002a5a:	8c10                	.2byte	0x8c10
e0002a5c:	5a5c                	lw	a5,52(a2)
e0002a5e:	7756                	.2byte	0x7756
e0002a60:	1089                	addi	ra,ra,-30 # 4fe2 <_min_stack+0x2fe2>
e0002a62:	5014                	lw	a3,32(s0)
e0002a64:	0000                	unimp
e0002a66:	ee50                	.2byte	0xee50
e0002a68:	0732                	slli	a4,a4,0xc
e0002a6a:	d380                	sw	s0,32(a5)
e0002a6c:	10c0                	addi	s0,sp,100
e0002a6e:	009c                	addi	a5,sp,64
e0002a70:	0000                	unimp
e0002a72:	5b50                	lw	a2,52(a4)
e0002a74:	4202                	lw	tp,0(sp)
e0002a76:	ff5104d3          	.4byte	0xff5104d3
e0002a7a:	0000573b          	.4byte	0x573b
e0002a7e:	0500                	addi	s0,sp,640
e0002a80:	21b80823          	sb	s11,528(a6) # 4210 <_min_stack+0x2210>
e0002a84:	5738                	lw	a4,104(a4)
e0002a86:	4302                	lw	t1,0(sp)
e0002a88:	0000                	unimp
e0002a8a:	0820                	addi	s0,sp,24
e0002a8c:	1798                	addi	a4,sp,992
e0002a8e:	4102ddc7          	.4byte	0x4102ddc7
e0002a92:	00000823          	sb	zero,16(zero) # 10 <_min_stack-0x1ff0>
e0002a96:	5730                	lw	a2,104(a4)
e0002a98:	42ac                	lw	a1,64(a3)
e0002a9a:	4388                	lw	a0,0(a5)
e0002a9c:	422c                	lw	a1,64(a2)
e0002a9e:	226c                	.2byte	0x226c
e0002aa0:	0000                	unimp
e0002aa2:	6060                	.2byte	0x6060
e0002aa4:	03ad                	addi	t2,t2,11 # b00b <_stack_len+0x300b>
e0002aa6:	7dcd                	lui	s11,0xffff3
e0002aa8:	442d                	li	s0,11
e0002aaa:	23ed                	jal	e0003094 <FLASH_ALSAQR_BOOT_SIGNED+0x2b4c>
e0002aac:	0000                	unimp
e0002aae:	6460                	.2byte	0x6460
e0002ab0:	148c                	addi	a1,sp,608
e0002ab2:	fff4                	.2byte	0xfff4
e0002ab4:	c32c                	sw	a1,64(a4)
e0002ab6:	a2ec                	.2byte	0xa2ec
e0002ab8:	0000                	unimp
e0002aba:	e360                	.2byte	0xe360
e0002abc:	ff58                	.2byte	0xff58
e0002abe:	84df 0000 6138      	.byte	0xdf, 0x84, 0x00, 0x00, 0x38, 0x61
e0002ac4:	0000                	unimp
e0002ac6:	5b70                	lw	a2,116(a4)
e0002ac8:	0542                	slli	a0,a0,0x10
e0002aca:	5754                	lw	a3,44(a4)
e0002acc:	0ef4                	addi	a3,sp,860
e0002ace:	3f00                	.2byte	0x3f00
e0002ad0:	0000                	unimp
e0002ad2:	5810                	lw	a2,48(s0)
e0002ad4:	2f00                	.2byte	0x2f00
e0002ad6:	6750                	.2byte	0x6750
e0002ad8:	0d50                	addi	a2,sp,660
e0002ada:	5934                	lw	a3,112(a0)
e0002adc:	0000                	unimp
e0002ade:	6330                	.2byte	0x6330
e0002ae0:	5012                	.2byte	0x5012
e0002ae2:	f56c                	.2byte	0xf56c
e0002ae4:	0ef8                	addi	a4,sp,860
e0002ae6:	dd00                	sw	s0,56(a0)
e0002ae8:	0000                	unimp
e0002aea:	5360                	lw	s0,100(a4)
e0002aec:	054a                	slli	a0,a0,0x12
e0002aee:	a914                	.2byte	0xa914
e0002af0:	0150                	addi	a2,sp,132
e0002af2:	0110                	addi	a2,sp,128
e0002af4:	0000                	unimp
e0002af6:	6930                	.2byte	0x6930
e0002af8:	0a5e                	slli	s4,s4,0x17
e0002afa:	fe40                	.2byte	0xfe40
e0002afc:	58d4                	lw	a3,52(s1)
e0002afe:	a634                	.2byte	0xa634
e0002b00:	0000                	unimp
e0002b02:	0080                	addi	s0,sp,64
e0002b04:	5930                	lw	a2,112(a0)
e0002b06:	7b28                	.2byte	0x7b28
e0002b08:	5970                	lw	a2,116(a0)
e0002b0a:	0001                	nop
e0002b0c:	0000                	unimp
e0002b0e:	50a0                	lw	s0,96(s1)
e0002b10:	0294                	addi	a3,sp,320
e0002b12:	800a                	c.mv	zero,sp
e0002b14:	52e6                	lw	t0,120(sp)
e0002b16:	10c9                	addi	ra,ra,-14
e0002b18:	0000                	unimp
e0002b1a:	c650                	sw	a2,12(a2)
e0002b1c:	b458                	.2byte	0xb458
e0002b1e:	38a6                	.2byte	0x38a6
e0002b20:	0001                	nop
e0002b22:	5930                	lw	a2,112(a0)
e0002b24:	0000                	unimp
e0002b26:	5970                	lw	a2,116(a0)
e0002b28:	5848                	lw	a0,52(s0)
e0002b2a:	0000f6e7          	.4byte	0xf6e7
e0002b2e:	0000493f 51744970 	.8byte	0x517449700000493f
e0002b36:	74d1                	lui	s1,0xffff4
e0002b38:	004d                	c.nop	19
e0002b3a:	4180                	lw	s0,0(a1)
e0002b3c:	0000                	unimp
e0002b3e:	6030                	.2byte	0x6030
e0002b40:	8656                	mv	a2,s5
e0002b42:	d912                	sw	tp,176(sp)
e0002b44:	5130                	lw	a2,96(a0)
e0002b46:	8650                	.2byte	0x8650
e0002b48:	0000                	unimp
e0002b4a:	0000                	unimp
e0002b4c:	0230                	addi	a2,sp,264
e0002b4e:	f1b9                	bnez	a1,e0002a94 <FLASH_ALSAQR_BOOT_SIGNED+0x254c>
e0002b50:	0049                	c.nop	18
e0002b52:	5050                	lw	a2,36(s0)
e0002b54:	0000                	unimp
e0002b56:	5030                	lw	a2,96(s0)
e0002b58:	808c                	.2byte	0x808c
e0002b5a:	b754                	.2byte	0xb754
e0002b5c:	8480                	.2byte	0x8480
e0002b5e:	02a0                	addi	s0,sp,328
e0002b60:	0000                	unimp
e0002b62:	0a40                	addi	s0,sp,276
e0002b64:	0001                	nop
e0002b66:	aa90                	.2byte	0xaa90
e0002b68:	8d90                	.2byte	0x8d90
e0002b6a:	5172                	lw	sp,60(sp)
e0002b6c:	0000                	unimp
e0002b6e:	84c0                	.2byte	0x84c0
e0002b70:	4922                	lw	s2,8(sp)
e0002b72:	8dc4                	.2byte	0x8dc4
e0002b74:	7750                	.2byte	0x7750
e0002b76:	8696                	mv	a3,t0
e0002b78:	0000                	unimp
e0002b7a:	5130                	lw	a2,96(a0)
e0002b7c:	0826                	slli	a6,a6,0x9
e0002b7e:	f568                	.2byte	0xf568
e0002b80:	0b24                	addi	s1,sp,408
e0002b82:	1454                	addi	a3,sp,548
e0002b84:	0000                	unimp
e0002b86:	4220                	lw	s0,64(a2)
e0002b88:	a3ec                	.2byte	0xa3ec
e0002b8a:	28ac                	.2byte	0x28ac
e0002b8c:	e461                	bnez	s0,e0002c54 <FLASH_ALSAQR_BOOT_SIGNED+0x270c>
e0002b8e:	c42c                	sw	a1,72(s0)
e0002b90:	0000                	unimp
e0002b92:	1010                	addi	a2,sp,32
e0002b94:	1c78                	addi	a4,sp,572
e0002b96:	c919                	beqz	a0,e0002bac <FLASH_ALSAQR_BOOT_SIGNED+0x2664>
e0002b98:	0002                	c.slli64	zero
e0002b9a:	7930                	.2byte	0x7930
e0002b9c:	0000                	unimp
e0002b9e:	7970                	.2byte	0x7970
e0002ba0:	432c                	lw	a1,64(a4)
e0002ba2:	475c                	lw	a5,12(a4)
e0002ba4:	83a4                	.2byte	0x83a4
e0002ba6:	636c                	.2byte	0x636c
e0002ba8:	0000                	unimp
e0002baa:	39c0                	.2byte	0x39c0
e0002bac:	989c                	.2byte	0x989c
e0002bae:	938c                	.2byte	0x938c
e0002bb0:	028c                	addi	a1,sp,320
e0002bb2:	22a0                	.2byte	0x22a0
e0002bb4:	0000                	unimp
e0002bb6:	3880                	.2byte	0x3880
e0002bb8:	2320                	.2byte	0x2320
e0002bba:	623c                	.2byte	0x623c
e0002bbc:	6134                	.2byte	0x6134
e0002bbe:	0450                	addi	a2,sp,516
e0002bc0:	0000                	unimp
e0002bc2:	5120                	lw	s0,96(a0)
e0002bc4:	9edc                	.2byte	0x9edc
e0002bc6:	5fd4f8af          	.4byte	0x5fd4f8af
e0002bca:	3881                	jal	e000241a <FLASH_ALSAQR_BOOT_SIGNED+0x1ed2>
e0002bcc:	0000                	unimp
e0002bce:	1080                	addi	s0,sp,96
e0002bd0:	0828                	addi	a0,sp,24
e0002bd2:	6758                	.2byte	0x6758
e0002bd4:	0826                	slli	a6,a6,0x9
e0002bd6:	5328                	lw	a0,96(a4)
e0002bd8:	0000                	unimp
e0002bda:	1050                	addi	a2,sp,36
e0002bdc:	e458                	.2byte	0xe458
e0002bde:	1916                	slli	s2,s2,0x25
e0002be0:	0000                	unimp
e0002be2:	0000593f 51305970 	.8byte	0x513059700000593f
e0002bea:	3b20                	.2byte	0x3b20
e0002bec:	517c                	lw	a5,100(a0)
e0002bee:	0000                	unimp
e0002bf0:	0000                	unimp
e0002bf2:	1880                	addi	s0,sp,112
e0002bf4:	1018                	addi	a4,sp,32
e0002bf6:	31b1                	jal	e0002842 <FLASH_ALSAQR_BOOT_SIGNED+0x22fa>
e0002bf8:	1c80                	addi	s0,sp,624
e0002bfa:	082c                	addi	a1,sp,24
e0002bfc:	0000                	unimp
e0002bfe:	0c50                	addi	a2,sp,532
e0002c00:	84ac                	.2byte	0x84ac
e0002c02:	cffc                	sw	a5,92(a5)
e0002c04:	c22c                	sw	a1,64(a2)
e0002c06:	a26c                	.2byte	0xa26c
e0002c08:	0000                	unimp
e0002c0a:	e060                	.2byte	0xe060
e0002c0c:	92e8                	.2byte	0x92e8
e0002c0e:	9008                	.2byte	0x9008
e0002c10:	20dc                	.2byte	0x20dc
e0002c12:	432c                	lw	a1,64(a4)
e0002c14:	0000                	unimp
e0002c16:	64e0                	.2byte	0x64e0
e0002c18:	0990                	addi	a2,sp,208
e0002c1a:	9dc0                	.2byte	0x9dc0
e0002c1c:	4818                	lw	a4,16(s0)
e0002c1e:	5334                	lw	a3,96(a4)
e0002c20:	0000                	unimp
e0002c22:	9aa0                	.2byte	0x9aa0
e0002c24:	f598                	.2byte	0xf598
e0002c26:	c4d2                	sw	s4,72(sp)
e0002c28:	0054                	addi	a3,sp,4
e0002c2a:	54e0                	lw	s0,108(s1)
e0002c2c:	0000                	unimp
e0002c2e:	5830                	lw	a2,112(s0)
e0002c30:	e941                	bnez	a0,e0002cc0 <FLASH_ALSAQR_BOOT_SIGNED+0x2778>
e0002c32:	485ebb2f          	.4byte	0x485ebb2f
e0002c36:	8e30                	.2byte	0x8e30
e0002c38:	0000                	unimp
e0002c3a:	5190                	lw	a2,32(a1)
e0002c3c:	5264                	lw	s1,100(a2)
e0002c3e:	d4d8                	sw	a4,44(s1)
e0002c40:	0118                	addi	a4,sp,128
e0002c42:	481a                	lw	a6,132(sp)
e0002c44:	0000                	unimp
e0002c46:	4a20                	lw	s0,80(a2)
e0002c48:	4624                	lw	s1,72(a2)
e0002c4a:	2a94                	.2byte	0x2a94
e0002c4c:	9424                	.2byte	0x9424
e0002c4e:	4d24                	lw	s1,88(a0)
e0002c50:	0000                	unimp
e0002c52:	9b20                	.2byte	0x9b20
e0002c54:	1798                	addi	a4,sp,992
e0002c56:	1054b1b7          	lui	gp,0x1054b
e0002c5a:	0826                	slli	a6,a6,0x9
e0002c5c:	0000                	unimp
e0002c5e:	0f20                	addi	s0,sp,920
e0002c60:	23ed                	jal	e000324a <FLASH_ALSAQR_BOOT_SIGNED+0x2d02>
e0002c62:	7b2d                	lui	s6,0xfffeb
e0002c64:	646c                	.2byte	0x646c
e0002c66:	442d                	li	s0,11
e0002c68:	0000                	unimp
e0002c6a:	6060                	.2byte	0x6060
e0002c6c:	a2ec                	.2byte	0xa2ec
e0002c6e:	638c                	.2byte	0x638c
e0002c70:	e36d                	bnez	a4,e0002d52 <FLASH_ALSAQR_BOOT_SIGNED+0x280a>
e0002c72:	c32c                	sw	a1,64(a4)
e0002c74:	0000                	unimp
e0002c76:	03a0                	addi	s0,sp,456
e0002c78:	7c58                	.2byte	0x7c58
e0002c7a:	9236                	add	tp,tp,a3
e0002c7c:	0000                	unimp
e0002c7e:	0000593f 84885970 	.8byte	0x848859700000593f
e0002c86:	d750                	sw	a2,44(a4)
e0002c88:	1cc4                	addi	s1,sp,628
e0002c8a:	72a4                	.2byte	0x72a4
e0002c8c:	0000                	unimp
e0002c8e:	1900                	addi	s0,sp,176
e0002c90:	63a8                	.2byte	0x63a8
e0002c92:	fdc8                	.2byte	0xfdc8
e0002c94:	854c                	.2byte	0x854c
e0002c96:	5320                	lw	s0,96(a4)
e0002c98:	0000                	unimp
e0002c9a:	42a0                	lw	s0,64(a3)
e0002c9c:	0826                	slli	a6,a6,0x9
e0002c9e:	7238                	.2byte	0x7238
e0002ca0:	0b22                	slli	s6,s6,0x8
e0002ca2:	1454                	addi	a3,sp,548
e0002ca4:	0000                	unimp
e0002ca6:	00d0                	addi	a2,sp,68
e0002ca8:	5c68                	lw	a0,124(s0)
e0002caa:	8916                	mv	s2,t0
e0002cac:	0000                	unimp
e0002cae:	0000693f 7aa86970 	.8byte	0x7aa869700000693f
e0002cb6:	0b28                	addi	a0,sp,408
e0002cb8:	2d44                	.2byte	0x2d44
e0002cba:	72e4                	.2byte	0x72e4
e0002cbc:	0000                	unimp
e0002cbe:	2900                	.2byte	0x2900
e0002cc0:	6ba8                	.2byte	0x6ba8
e0002cc2:	fff8                	.2byte	0xfff8
e0002cc4:	5b68                	lw	a0,116(a4)
e0002cc6:	63e8                	.2byte	0x63e8
e0002cc8:	0000                	unimp
e0002cca:	5320                	lw	s0,96(a4)
e0002ccc:	4a2c                	lw	a1,80(a2)
e0002cce:	31bc                	.2byte	0x31bc
e0002cd0:	15da                	slli	a1,a1,0x36
e0002cd2:	00006867          	.4byte	0x6867
e0002cd6:	0090                	addi	a2,sp,64
e0002cd8:	c52d                	beqz	a0,e0002d42 <FLASH_ALSAQR_BOOT_SIGNED+0x27fa>
e0002cda:	7a9d                	lui	s5,0xfffe7
e0002cdc:	0cac                	addi	a1,sp,600
e0002cde:	e4ec                	.2byte	0xe4ec
e0002ce0:	0000                	unimp
e0002ce2:	2a60                	.2byte	0x2a60
e0002ce4:	462d                	li	a2,11
e0002ce6:	275d                	jal	e000348c <FLASH_ALSAQR_BOOT_SIGNED+0x2f44>
e0002ce8:	85ad                	srai	a1,a1,0xb
e0002cea:	65ed                	lui	a1,0x1b
e0002cec:	0000                	unimp
e0002cee:	a560                	.2byte	0xa560
e0002cf0:	cb2c                	sw	a1,80(a4)
e0002cf2:	a1b8                	.2byte	0xa1b8
e0002cf4:	06ad                	addi	a3,a3,11 # 1b00b <_stack_len+0x1300b>
e0002cf6:	e6ed                	bnez	a3,e0002de0 <FLASH_ALSAQR_BOOT_SIGNED+0x2898>
e0002cf8:	0000                	unimp
e0002cfa:	2660                	.2byte	0x2660
e0002cfc:	9aec                	.2byte	0x9aec
e0002cfe:	c1b8                	sw	a4,64(a1)
e0002d00:	4368                	lw	a0,68(a4)
e0002d02:	199c                	addi	a5,sp,240
e0002d04:	0000                	unimp
e0002d06:	92a0                	.2byte	0x92a0
e0002d08:	9930                	.2byte	0x9930
e0002d0a:	d1b8                	sw	a4,96(a1)
e0002d0c:	997a                	add	s2,s2,t5
e0002d0e:	0000                	unimp
e0002d10:	0000                	unimp
e0002d12:	0290                	addi	a2,sp,320
e0002d14:	00cc                	addi	a1,sp,68
e0002d16:	46e0                	lw	s0,76(a3)
e0002d18:	503c236f          	jal	t1,e00c5a1a <fromhost+0xb5a0a>
e0002d1c:	0000                	unimp
e0002d1e:	3290                	.2byte	0x3290
e0002d20:	c134                	sw	a3,64(a0)
e0002d22:	b8a0                	.2byte	0xb8a0
e0002d24:	2050                	.2byte	0x2050
e0002d26:	a814                	.2byte	0xa814
e0002d28:	0000                	unimp
e0002d2a:	5630                	lw	a2,104(a2)
e0002d2c:	58d4                	lw	a3,52(s1)
e0002d2e:	4236                	lw	tp,76(sp)
e0002d30:	d250                	sw	a2,36(a2)
e0002d32:	a294                	.2byte	0xa294
e0002d34:	0000                	unimp
e0002d36:	2500                	.2byte	0x2500
e0002d38:	481c                	lw	a5,16(s0)
e0002d3a:	de44                	sw	s1,60(a2)
e0002d3c:	2258                	.2byte	0x2258
e0002d3e:	02ec                	addi	a1,sp,332
e0002d40:	0000                	unimp
e0002d42:	5930                	lw	a2,112(a0)
e0002d44:	1840                	addi	s0,sp,52
e0002d46:	fb20                	.2byte	0xfb20
e0002d48:	9630ff57          	.4byte	0x9630ff57
e0002d4c:	0000                	unimp
e0002d4e:	4130                	lw	a2,64(a0)
e0002d50:	5030                	lw	a2,96(s0)
e0002d52:	e384                	.2byte	0xe384
e0002d54:	533c                	lw	a5,96(a4)
e0002d56:	09c8                	addi	a0,sp,212
e0002d58:	0000                	unimp
e0002d5a:	4190                	lw	a2,0(a1)
e0002d5c:	58ac491b          	.4byte	0x58ac491b
e0002d60:	4850                	lw	a2,20(s0)
e0002d62:	7f50                	.2byte	0x7f50
e0002d64:	0000                	unimp
e0002d66:	0150                	addi	a2,sp,132
e0002d68:	9828                	.2byte	0x9828
e0002d6a:	b919                	j	e0002980 <FLASH_ALSAQR_BOOT_SIGNED+0x2438>
e0002d6c:	5e68                	lw	a0,124(a2)
e0002d6e:	6268                	.2byte	0x6268
e0002d70:	0000                	unimp
e0002d72:	54a0                	lw	s0,104(s1)
e0002d74:	8a985333          	.4byte	0x8a985333
e0002d78:	9639                	srai	a2,a2,0x2e
e0002d7a:	e040                	.2byte	0xe040
e0002d7c:	0000                	unimp
e0002d7e:	aaa0                	.2byte	0xaaa0
e0002d80:	7130                	.2byte	0x7130
e0002d82:	b230                	.2byte	0xb230
e0002d84:	6030                	.2byte	0x6030
e0002d86:	0154                	addi	a3,sp,132
e0002d88:	0000                	unimp
e0002d8a:	09c0                	addi	s0,sp,212
e0002d8c:	5830                	lw	a2,112(s0)
e0002d8e:	ee44                	.2byte	0xee44
e0002d90:	8630                	.2byte	0x8630
e0002d92:	0e61                	addi	t3,t3,24
e0002d94:	0000                	unimp
e0002d96:	2100                	.2byte	0x2100
e0002d98:	b050                	.2byte	0xb050
e0002d9a:	6004                	.2byte	0x6004
e0002d9c:	6930                	.2byte	0x6930
e0002d9e:	0250                	addi	a2,sp,260
e0002da0:	0000                	unimp
e0002da2:	0250                	addi	a2,sp,260
e0002da4:	0150                	addi	a2,sp,132
e0002da6:	2560                	.2byte	0x2560
e0002da8:	b01a                	.2byte	0xb01a
e0002daa:	6934                	.2byte	0x6934
e0002dac:	0000                	unimp
e0002dae:	0290                	addi	a2,sp,320
e0002db0:	53844813          	xori	a6,s0,1336
e0002db4:	b638                	.2byte	0xb638
e0002db6:	a058                	.2byte	0xa058
e0002db8:	0000                	unimp
e0002dba:	5b20                	lw	s0,112(a4)
e0002dbc:	df60                	sw	s0,124(a4)
e0002dbe:	501451bf 00006134 	.8byte	0x6134501451bf
e0002dc6:	b810                	.2byte	0xb810
e0002dc8:	0168                	addi	a0,sp,140
e0002dca:	4910                	lw	a2,16(a0)
e0002dcc:	c9300163          	beq	zero,s3,e000224e <FLASH_ALSAQR_BOOT_SIGNED+0x1d06>
e0002dd0:	0000                	unimp
e0002dd2:	d930                	sw	a2,112(a0)
e0002dd4:	a910ff67          	.4byte	0xa910ff67
e0002dd8:	d058                	sw	a4,36(s0)
e0002dda:	0000613f 2cd66130 	.8byte	0x2cd661300000613f
e0002de2:	da90                	sw	a2,48(a3)
e0002de4:	ff5f b630 0000      	.byte	0x5f, 0xff, 0x30, 0xb6, 0x00, 0x00
e0002dea:	5930                	lw	a2,112(a0)
e0002dec:	633c                	.2byte	0x633c
e0002dee:	7dc8                	.2byte	0x7dc8
e0002df0:	a190ff57          	.4byte	0xa190ff57
e0002df4:	0000                	unimp
e0002df6:	6130                	.2byte	0x6130
e0002df8:	d058                	sw	a4,36(s0)
e0002dfa:	5b204b2f          	.4byte	0x5b204b2f
e0002dfe:	4939                	li	s2,14
e0002e00:	0000                	unimp
e0002e02:	3440                	.2byte	0x3440
e0002e04:	de90                	sw	a2,56(a3)
e0002e06:	ec7f                	.2byte	0xec7f
e0002e08:	00cc                	addi	a1,sp,68
e0002e0a:	c850                	sw	a2,20(s0)
e0002e0c:	0000                	unimp
e0002e0e:	5830                	lw	a2,112(s0)
e0002e10:	6130                	.2byte	0x6130
e0002e12:	7c70                	.2byte	0x7c70
e0002e14:	b93a                	.2byte	0xb93a
e0002e16:	2000                	.2byte	0x2000
e0002e18:	0000                	unimp
e0002e1a:	ea50                	.2byte	0xea50
e0002e1c:	0e30                	addi	a2,sp,792
e0002e1e:	ee49                	bnez	a2,e0002eb8 <FLASH_ALSAQR_BOOT_SIGNED+0x2970>
e0002e20:	5130                	lw	a2,96(a0)
e0002e22:	2000                	.2byte	0x2000
e0002e24:	0000                	unimp
e0002e26:	3000                	.2byte	0x3000
e0002e28:	bb20                	.2byte	0xbb20
e0002e2a:	9b28                	.2byte	0x9b28
e0002e2c:	3000513f ec500000 	.8byte	0xec5000003000513f
e0002e34:	0e4e                	slli	t3,t3,0x13
e0002e36:	eb20                	.2byte	0xeb20
e0002e38:	763c481b          	.4byte	0x763c481b
e0002e3c:	0000                	unimp
e0002e3e:	7c50                	.2byte	0x7c50
e0002e40:	3630                	.2byte	0x3630
e0002e42:	6381                	.2byte	0x6381
e0002e44:	513a                	lw	sp,172(sp)
e0002e46:	0000ff57          	.4byte	0xff57
e0002e4a:	6710                	.2byte	0x6710
e0002e4c:	c006963f a8585133 	.8byte	0xa8585133c006963f
e0002e54:	0000                	unimp
e0002e56:	8050                	.2byte	0x8050
e0002e58:	0001                	nop
e0002e5a:	3560                	.2byte	0x3560
e0002e5c:	50a0                	lw	s0,96(s1)
e0002e5e:	5970                	lw	a2,116(a0)
e0002e60:	0000                	unimp
e0002e62:	4a70                	lw	a2,84(a2)
e0002e64:	1089                	addi	ra,ra,-30
e0002e66:	14d4                	addi	a3,sp,612
e0002e68:	9c58                	.2byte	0x9c58
e0002e6a:	52e4                	lw	s1,100(a3)
e0002e6c:	0000                	unimp
e0002e6e:	5930                	lw	a2,112(a0)
e0002e70:	5122                	lw	sp,40(sp)
e0002e72:	f384                	.2byte	0xf384
e0002e74:	c638                	sw	a4,72(a2)
e0002e76:	a0d9                	j	e0002f3c <FLASH_ALSAQR_BOOT_SIGNED+0x29f4>
e0002e78:	0000                	unimp
e0002e7a:	5020                	lw	s0,96(s0)
e0002e7c:	b03c                	.2byte	0xb03c
e0002e7e:	5002                	.2byte	0x5002
e0002e80:	0450                	addi	a2,sp,516
e0002e82:	22e0                	.2byte	0x22e0
e0002e84:	0000                	unimp
e0002e86:	5930                	lw	a2,112(a0)
e0002e88:	5970                	lw	a2,116(a0)
e0002e8a:	2a91                	jal	e0002fde <FLASH_ALSAQR_BOOT_SIGNED+0x2a96>
e0002e8c:	c630                	sw	a2,72(a2)
e0002e8e:	00b5                	addi	ra,ra,13
e0002e90:	0000                	unimp
e0002e92:	0050                	addi	a2,sp,4
e0002e94:	6055                	c.lui	zero,0x15
e0002e96:	1384                	addi	s1,sp,480
e0002e98:	5930                	lw	a2,112(a0)
e0002e9a:	1158                	addi	a4,sp,164
e0002e9c:	0000                	unimp
e0002e9e:	0000                	unimp
e0002ea0:	b339                	j	e0002bae <FLASH_ALSAQR_BOOT_SIGNED+0x2666>
e0002ea2:	1ff0                	addi	a2,sp,1020
e0002ea4:	9828                	.2byte	0x9828
e0002ea6:	aaa9                	j	e0003000 <FLASH_ALSAQR_BOOT_SIGNED+0x2ab8>
e0002ea8:	0000                	unimp
e0002eaa:	54a0                	lw	s0,104(s1)
e0002eac:	8170                	.2byte	0x8170
e0002eae:	1001                	c.nop	-32
e0002eb0:	7134                	.2byte	0x7134
e0002eb2:	0000ffbf 7a951600 	.8byte	0x7a9516000000ffbf
e0002eba:	6234                	.2byte	0x6234
e0002ebc:	8130                	.2byte	0x8130
e0002ebe:	0c80                	addi	s0,sp,592
e0002ec0:	0000                	unimp
e0002ec2:	0000                	unimp
e0002ec4:	4a18                	lw	a4,16(a2)
e0002ec6:	d56a                	sw	s10,168(sp)
e0002ec8:	5ce8                	lw	a0,124(s1)
e0002eca:	65a8                	.2byte	0x65a8
e0002ecc:	0000                	unimp
e0002ece:	54a0                	lw	s0,104(s1)
e0002ed0:	2a58                	.2byte	0x2a58
e0002ed2:	2380                	.2byte	0x2380
e0002ed4:	4800                	lw	s0,16(s0)
e0002ed6:	d630                	sw	a2,104(a2)
e0002ed8:	0000                	unimp
e0002eda:	5130                	lw	a2,96(a0)
e0002edc:	60d9                	lui	ra,0x16
e0002ede:	ddc2                	sw	a6,248(sp)
e0002ee0:	7859                	lui	a6,0xffff6
e0002ee2:	7632                	.2byte	0x7632
e0002ee4:	0000                	unimp
e0002ee6:	9630                	.2byte	0x9630
e0002ee8:	d558                	sw	a4,44(a0)
e0002eea:	0c74                	addi	a3,sp,540
e0002eec:	0001                	nop
e0002eee:	5930                	lw	a2,112(a0)
e0002ef0:	0000                	unimp
e0002ef2:	5970                	lw	a2,116(a0)
e0002ef4:	5120                	lw	s0,96(a0)
e0002ef6:	0754                	addi	a3,sp,900
e0002ef8:	263a                	.2byte	0x263a
e0002efa:	20d8                	.2byte	0x20d8
e0002efc:	0000                	unimp
e0002efe:	8510                	.2byte	0x8510
e0002f00:	114c                	addi	a1,sp,164
e0002f02:	ddc4                	sw	s1,60(a1)
e0002f04:	0450                	addi	a2,sp,516
e0002f06:	22e0                	.2byte	0x22e0
e0002f08:	0000                	unimp
e0002f0a:	5930                	lw	a2,112(a0)
e0002f0c:	150c                	addi	a1,sp,672
e0002f0e:	5a94                	lw	a3,48(a3)
e0002f10:	0850                	addi	a2,sp,20
e0002f12:	22e0                	.2byte	0x22e0
e0002f14:	0000                	unimp
e0002f16:	5930                	lw	a2,112(a0)
e0002f18:	0001                	nop
e0002f1a:	fc70                	.2byte	0xfc70
e0002f1c:	8970ffbf 79300000 	.8byte	0x793000008970ffbf
e0002f24:	512a                	lw	sp,168(sp)
e0002f26:	de44                	sw	s1,60(a2)
e0002f28:	f388                	.2byte	0xf388
e0002f2a:	2d54                	.2byte	0x2d54
e0002f2c:	0000                	unimp
e0002f2e:	8930                	.2byte	0x8930
e0002f30:	110c                	addi	a1,sp,160
e0002f32:	6754                	.2byte	0x6754
e0002f34:	0450                	addi	a2,sp,516
e0002f36:	22e0                	.2byte	0x22e0
e0002f38:	0000                	unimp
e0002f3a:	5930                	lw	a2,112(a0)
e0002f3c:	0001                	nop
e0002f3e:	9750                	.2byte	0x9750
e0002f40:	8170ffbf 71300000 	.8byte	0x713000008170ffbf
e0002f48:	263a                	.2byte	0x263a
e0002f4a:	9238                	.2byte	0x9238
e0002f4c:	db80                	sw	s0,48(a5)
e0002f4e:	2f54                	.2byte	0x2f54
e0002f50:	0000                	unimp
e0002f52:	8130                	.2byte	0x8130
e0002f54:	0450                	addi	a2,sp,516
e0002f56:	2ff0                	.2byte	0x2ff0
e0002f58:	5122                	lw	sp,40(sp)
e0002f5a:	5934                	lw	a3,112(a0)
e0002f5c:	0000                	unimp
e0002f5e:	20d0                	.2byte	0x20d0
e0002f60:	0850                	addi	a2,sp,20
e0002f62:	1dc0                	addi	s0,sp,756
e0002f64:	114c                	addi	a1,sp,164
e0002f66:	5934                	lw	a3,112(a0)
e0002f68:	0000                	unimp
e0002f6a:	22e0                	.2byte	0x22e0
e0002f6c:	1b20ffbf 7934150c 	.8byte	0x7934150c1b20ffbf
e0002f74:	0000                	unimp
e0002f76:	22e0                	.2byte	0x22e0
e0002f78:	b788                	.2byte	0xb788
e0002f7a:	f234                	.2byte	0xf234
e0002f7c:	0001                	nop
e0002f7e:	8930                	.2byte	0x8930
e0002f80:	0000                	unimp
e0002f82:	8970                	.2byte	0x8970
e0002f84:	0450                	addi	a2,sp,516
e0002f86:	2750                	.2byte	0x2750
e0002f88:	512a                	lw	sp,168(sp)
e0002f8a:	5934                	lw	a3,112(a0)
e0002f8c:	0000                	unimp
e0002f8e:	add0                	.2byte	0xadd0
e0002f90:	00d8                	addi	a4,sp,68
e0002f92:	91b2                	add	gp,gp,a2
e0002f94:	110c                	addi	a1,sp,160
e0002f96:	8634                	.2byte	0x8634
e0002f98:	0000                	unimp
e0002f9a:	22e0                	.2byte	0x22e0
e0002f9c:	0001                	nop
e0002f9e:	5b20                	lw	s0,112(a4)
e0002fa0:	6060                	.2byte	0x6060
e0002fa2:	5972                	lw	s2,60(sp)
e0002fa4:	0000                	unimp
e0002fa6:	2630                	.2byte	0x2630
e0002fa8:	2fd4                	.2byte	0x2fd4
e0002faa:	c8aa                	sw	a0,80(sp)
e0002fac:	6058                	.2byte	0x6058
e0002fae:	6114                	.2byte	0x6114
e0002fb0:	0000                	unimp
e0002fb2:	5930                	lw	a2,112(a0)
e0002fb4:	5934                	lw	a3,112(a0)
e0002fb6:	f8a0                	.2byte	0xf8a0
e0002fb8:	e0d9                	bnez	s1,e000303e <FLASH_ALSAQR_BOOT_SIGNED+0x2af6>
e0002fba:	5121                	li	sp,-24
e0002fbc:	0000                	unimp
e0002fbe:	1630                	addi	a2,sp,808
e0002fc0:	a234                	.2byte	0xa234
e0002fc2:	d6e0                	sw	s0,108(a3)
e0002fc4:	22e0                	.2byte	0x22e0
e0002fc6:	108c                	addi	a1,sp,96
e0002fc8:	0000                	unimp
e0002fca:	0450                	addi	a2,sp,516
e0002fcc:	ad94                	.2byte	0xad94
e0002fce:	375a                	.2byte	0x375a
e0002fd0:	84c0                	.2byte	0x84c0
e0002fd2:	6050                	.2byte	0x6050
e0002fd4:	0000                	unimp
e0002fd6:	0a10                	addi	a2,sp,272
e0002fd8:	5934                	lw	a3,112(a0)
e0002fda:	68a0                	.2byte	0x68a0
e0002fdc:	c0d9                	beqz	s1,e0003062 <FLASH_ALSAQR_BOOT_SIGNED+0x2b1a>
e0002fde:	5121                	li	sp,-24
e0002fe0:	0000                	unimp
e0002fe2:	5630                	lw	a2,104(a2)
e0002fe4:	7134                	.2byte	0x7134
e0002fe6:	22e0256f          	jal	a0,e0005214 <FLASH_ALSAQR_BOOT_SIGNED+0x4ccc>
e0002fea:	110c                	addi	a1,sp,160
e0002fec:	0000                	unimp
e0002fee:	0450                	addi	a2,sp,516
e0002ff0:	8130                	.2byte	0x8130
e0002ff2:	24d0                	.2byte	0x24d0
e0002ff4:	8170                	.2byte	0x8170
e0002ff6:	0001                	nop
e0002ff8:	0000                	unimp
e0002ffa:	ffb0                	.2byte	0xffb0
e0002ffc:	663a                	.2byte	0x663a
e0002ffe:	2569                	jal	e0003688 <FLASH_ALSAQR_BOOT_SIGNED+0x3140>
e0003000:	7a14                	.2byte	0x7a14
e0003002:	a9d4                	.2byte	0xa9d4
e0003004:	0000                	unimp
e0003006:	3880                	.2byte	0x3880
e0003008:	5930                	lw	a2,112(a0)
e000300a:	74d8                	.2byte	0x74d8
e000300c:	5971                	li	s2,-4
e000300e:	0001                	nop
e0003010:	0000                	unimp
e0003012:	a0d0                	.2byte	0xa0d0
e0003014:	9828                	.2byte	0x9828
e0003016:	b6e9                	j	e0002be0 <FLASH_ALSAQR_BOOT_SIGNED+0x2698>
e0003018:	6094                	.2byte	0x6094
e000301a:	54a4                	lw	s1,104(s1)
e000301c:	0000                	unimp
e000301e:	1750                	addi	a2,sp,932
e0003020:	2320                	.2byte	0x2320
e0003022:	4a9c                	lw	a5,16(a3)
e0003024:	6134                	.2byte	0x6134
e0003026:	0458                	addi	a4,sp,516
e0003028:	0000                	unimp
e000302a:	5920                	lw	s0,112(a0)
e000302c:	8170                	.2byte	0x8170
e000302e:	9001                	srli	s0,s0,0x20
e0003030:	4334                	lw	a3,64(a4)
e0003032:	1550                	addi	a2,sp,676
e0003034:	0000                	unimp
e0003036:	1900                	addi	s0,sp,176
e0003038:	6a14                	.2byte	0x6a14
e000303a:	d754                	sw	a3,44(a4)
e000303c:	8130                	.2byte	0x8130
e000303e:	0c80                	addi	s0,sp,592
e0003040:	0000                	unimp
e0003042:	0000                	unimp
e0003044:	54a4                	lw	s1,104(s1)
e0003046:	f388                	.2byte	0xf388
e0003048:	3000                	.2byte	0x3000
e000304a:	7c10                	.2byte	0x7c10
e000304c:	0000                	unimp
e000304e:	7130                	.2byte	0x7130
e0003050:	0a40                	addi	s0,sp,276
e0003052:	6c70                	.2byte	0x6c70
e0003054:	e298                	.2byte	0xe298
e0003056:	ab32                	.2byte	0xab32
e0003058:	0000                	unimp
e000305a:	5ce0                	lw	s0,124(s1)
e000305c:	0450                	addi	a2,sp,516
e000305e:	7c70                	.2byte	0x7c70
e0003060:	512a                	lw	sp,168(sp)
e0003062:	5934                	lw	a3,112(a0)
e0003064:	0000                	unimp
e0003066:	2490                	.2byte	0x2490
e0003068:	c234                	sw	a3,64(a2)
e000306a:	3381                	jal	e0002daa <FLASH_ALSAQR_BOOT_SIGNED+0x2862>
e000306c:	108c                	addi	a1,sp,96
e000306e:	5824                	lw	s1,112(s0)
e0003070:	0000                	unimp
e0003072:	22e0                	.2byte	0x22e0
e0003074:	a2e0                	.2byte	0xa2e0
e0003076:	64dc                	.2byte	0x64dc
e0003078:	5930                	lw	a2,112(a0)
e000307a:	2200                	.2byte	0x2200
e000307c:	0000                	unimp
e000307e:	0b10                	addi	a2,sp,400
e0003080:	1510                	addi	a2,sp,672
e0003082:	f4d0                	.2byte	0xf4d0
e0003084:	8100                	.2byte	0x8100
e0003086:	6930                	.2byte	0x6930
e0003088:	0000                	unimp
e000308a:	06c0                	addi	s0,sp,836
e000308c:	4138                	lw	a4,64(a0)
e000308e:	3568                	.2byte	0x3568
e0003090:	5b22                	lw	s6,40(sp)
e0003092:	baa4                	.2byte	0xbaa4
e0003094:	0000                	unimp
e0003096:	e8d0                	.2byte	0xe8d0
e0003098:	5850                	lw	a2,52(s0)
e000309a:	2b20                	.2byte	0x2b20
e000309c:	005c503f ff500000 	.8byte	0xff500000005c503f
e00030a4:	01d9                	addi	gp,gp,22 # 1054b016 <tohost+0x1052b00e>
e00030a6:	3750                	.2byte	0x3750
e00030a8:	d650                	sw	a2,44(a2)
e00030aa:	0000613f b1584050 	.8byte	0xb15840500000613f
e00030b2:	0001f6e3          	bgeu	gp,zero,e00038be <FLASH_ALSAQR_BOOT_SIGNED+0x3376>
e00030b6:	5930                	lw	a2,112(a0)
e00030b8:	0000                	unimp
e00030ba:	5970                	lw	a2,116(a0)
e00030bc:	4aa4                	lw	s1,80(a3)
e00030be:	4b28                	lw	a0,80(a4)
e00030c0:	9828                	.2byte	0x9828
e00030c2:	5b29                	li	s6,-22
e00030c4:	0000                	unimp
e00030c6:	54a0                	lw	s0,104(s1)
e00030c8:	9828                	.2byte	0x9828
e00030ca:	11b9                	addi	gp,gp,-18
e00030cc:	0b40                	addi	s0,sp,404
e00030ce:	54a4                	lw	s1,104(s1)
e00030d0:	0000                	unimp
e00030d2:	6330                	.2byte	0x6330
e00030d4:	0001                	nop
e00030d6:	44d0                	lw	a2,12(s1)
e00030d8:	0950                	addi	a2,sp,148
e00030da:	5970                	lw	a2,116(a0)
e00030dc:	0000                	unimp
e00030de:	4330                	lw	a2,64(a4)
e00030e0:	65a8                	.2byte	0x65a8
e00030e2:	2918                	.2byte	0x2918
e00030e4:	9658                	.2byte	0x9658
e00030e6:	000054a3          	.4byte	0x54a3
e00030ea:	5930                	lw	a2,112(a0)
e00030ec:	0001                	nop
e00030ee:	64d0                	.2byte	0x64d0
e00030f0:	42a9                	li	t0,10
e00030f2:	5979                	li	s2,-2
e00030f4:	0000                	unimp
e00030f6:	9820                	.2byte	0x9820
e00030f8:	54a4                	lw	s1,104(s1)
e00030fa:	4b28                	lw	a0,80(a4)
e00030fc:	7058                	.2byte	0x7058
e00030fe:	00006053          	.4byte	0x6053
e0003102:	5930                	lw	a2,112(a0)
e0003104:	3630                	.2byte	0x3630
e0003106:	fb28                	.2byte	0xfb28
e0003108:	4b39                	li	s6,14
e000310a:	0a40                	addi	s0,sp,276
e000310c:	0000                	unimp
e000310e:	9820                	.2byte	0x9820
e0003110:	5930                	lw	a2,112(a0)
e0003112:	aff8                	.2byte	0xaff8
e0003114:	5971                	li	s2,-4
e0003116:	0001                	nop
e0003118:	0000                	unimp
e000311a:	20b0                	.2byte	0x20b0
e000311c:	9828                	.2byte	0x9828
e000311e:	ea99                	bnez	a3,e0003134 <FLASH_ALSAQR_BOOT_SIGNED+0x2bec>
e0003120:	54a46053          	.4byte	0x54a46053
e0003124:	0000                	unimp
e0003126:	7250                	.2byte	0x7250
e0003128:	6190                	.2byte	0x6190
e000312a:	6dc4                	.2byte	0x6dc4
e000312c:	0950                	addi	a2,sp,148
e000312e:	84c0                	.2byte	0x84c0
e0003130:	0000                	unimp
e0003132:	4330                	lw	a2,64(a4)
e0003134:	42a4                	lw	s1,64(a3)
e0003136:	6239                	lui	tp,0xe
e0003138:	9828                	.2byte	0x9828
e000313a:	6429                	lui	s0,0xa
e000313c:	0000                	unimp
e000313e:	54a0                	lw	s0,104(s1)
e0003140:	5a80                	lw	s0,48(a3)
e0003142:	00019383          	lh	t2,0(gp)
e0003146:	8130                	.2byte	0x8130
e0003148:	0000                	unimp
e000314a:	8170                	.2byte	0x8170
e000314c:	6818                	.2byte	0x6818
e000314e:	14d4                	addi	a3,sp,612
e0003150:	54a4                	lw	s1,104(s1)
e0003152:	5ce8                	lw	a0,124(s1)
e0003154:	0000                	unimp
e0003156:	7a90                	.2byte	0x7a90
e0003158:	5979                	li	s2,-2
e000315a:	9ff1                	.2byte	0x9ff1
e000315c:	4ad4                	lw	a3,20(a3)
e000315e:	42a2                	lw	t0,8(sp)
e0003160:	0000                	unimp
e0003162:	7010                	.2byte	0x7010
e0003164:	6dc46053          	.4byte	0x6dc46053
e0003168:	5930                	lw	a2,112(a0)
e000316a:	4058                	lw	a4,4(s0)
e000316c:	0000                	unimp
e000316e:	0000                	unimp
e0003170:	8e59                	or	a2,a2,a4
e0003172:	8c7a                	mv	s8,t5
e0003174:	9828                	.2byte	0x9828
e0003176:	42a9                	li	t0,10
e0003178:	0000                	unimp
e000317a:	54a0                	lw	s0,104(s1)
e000317c:	22e0                	.2byte	0x22e0
e000317e:	0c7c                	addi	a5,sp,540
e0003180:	5934                	lw	a3,112(a0)
e0003182:	0450                	addi	a2,sp,516
e0003184:	0000                	unimp
e0003186:	5120                	lw	s0,96(a0)
e0003188:	5934                	lw	a3,112(a0)
e000318a:	e230                	.2byte	0xe230
e000318c:	00d8                	addi	a4,sp,68
e000318e:	1101                	addi	sp,sp,-32
e0003190:	0000                	unimp
e0003192:	3630                	.2byte	0x3630
e0003194:	05d4                	addi	a3,sp,708
e0003196:	1dca                	slli	s11,s11,0x32
e0003198:	22e0                	.2byte	0x22e0
e000319a:	14cc                	addi	a1,sp,612
e000319c:	0000                	unimp
e000319e:	0850                	addi	a2,sp,20
e00031a0:	5934                	lw	a3,112(a0)
e00031a2:	fa90                	.2byte	0xfa90
e00031a4:	80d9                	srli	s1,s1,0x16
e00031a6:	5120                	lw	s0,96(a0)
e00031a8:	0000                	unimp
e00031aa:	d630                	sw	a2,104(a2)
e00031ac:	7134                	.2byte	0x7134
e00031ae:	22e0256f          	jal	a0,e00053dc <_bss_end+0x1a4>
e00031b2:	110c                	addi	a1,sp,160
e00031b4:	0000                	unimp
e00031b6:	0450                	addi	a2,sp,516
e00031b8:	8130                	.2byte	0x8130
e00031ba:	24d0                	.2byte	0x24d0
e00031bc:	8170                	.2byte	0x8170
e00031be:	0001                	nop
e00031c0:	0000                	unimp
e00031c2:	ffb0                	.2byte	0xffb0
e00031c4:	663a                	.2byte	0x663a
e00031c6:	4568                	lw	a0,76(a0)
e00031c8:	09947a93          	andi	s5,s0,153
e00031cc:	0000                	unimp
e00031ce:	0880                	addi	s0,sp,80
e00031d0:	0450                	addi	a2,sp,516
e00031d2:	bdc0                	.2byte	0xbdc0
e00031d4:	5120                	lw	s0,96(a0)
e00031d6:	5934                	lw	a3,112(a0)
e00031d8:	0000                	unimp
e00031da:	20d0                	.2byte	0x20d0
e00031dc:	0850                	addi	a2,sp,20
e00031de:	1dc0                	addi	s0,sp,756
e00031e0:	114c                	addi	a1,sp,164
e00031e2:	5934                	lw	a3,112(a0)
e00031e4:	0000                	unimp
e00031e6:	22e0                	.2byte	0x22e0
e00031e8:	1b20ffbf 7934150c 	.8byte	0x7934150c1b20ffbf
e00031f0:	0000                	unimp
e00031f2:	22e0                	.2byte	0x22e0
e00031f4:	e288                	.2byte	0xe288
e00031f6:	41b2                	lw	gp,12(sp)
e00031f8:	0001                	nop
e00031fa:	8930                	.2byte	0x8930
e00031fc:	0000                	unimp
e00031fe:	8970                	.2byte	0x8970
e0003200:	7268                	.2byte	0x7268
e0003202:	84d8                	.2byte	0x84d8
e0003204:	54a4                	lw	s1,104(s1)
e0003206:	5ce8                	lw	a0,124(s1)
e0003208:	0000                	unimp
e000320a:	8050                	.2byte	0x8050
e000320c:	0450                	addi	a2,sp,516
e000320e:	74d0                	.2byte	0x74d0
e0003210:	512a                	lw	sp,168(sp)
e0003212:	5934                	lw	a3,112(a0)
e0003214:	0000                	unimp
e0003216:	0b90                	addi	a2,sp,464
e0003218:	e000ffbf 7134110c 	.8byte	0x7134110ce000ffbf
e0003220:	0000                	unimp
e0003222:	22e0                	.2byte	0x22e0
e0003224:	c280                	sw	s0,0(a3)
e0003226:	96e2                	add	a3,a3,s8
e0003228:	0001                	nop
e000322a:	8130                	.2byte	0x8130
e000322c:	0000                	unimp
e000322e:	8170                	.2byte	0x8170
e0003230:	6a68                	.2byte	0x6a68
e0003232:	5008                	lw	a0,32(s0)
e0003234:	54a4                	lw	s1,104(s1)
e0003236:	5ce8                	lw	a0,124(s1)
e0003238:	0000                	unimp
e000323a:	7c10                	.2byte	0x7c10
e000323c:	20d8                	.2byte	0x20d8
e000323e:	1e40                	addi	s0,sp,820
e0003240:	83d2                	mv	t2,s4
e0003242:	763a                	.2byte	0x763a
e0003244:	0000                	unimp
e0003246:	ad10                	.2byte	0xad10
e0003248:	22e0                	.2byte	0x22e0
e000324a:	0c7c                	addi	a5,sp,540
e000324c:	5934                	lw	a3,112(a0)
e000324e:	0450                	addi	a2,sp,516
e0003250:	0000                	unimp
e0003252:	5120                	lw	s0,96(a0)
e0003254:	22e0                	.2byte	0x22e0
e0003256:	838c                	.2byte	0x838c
e0003258:	5934                	lw	a3,112(a0)
e000325a:	0850                	addi	a2,sp,20
e000325c:	0000                	unimp
e000325e:	1140                	addi	s0,sp,164
e0003260:	8970                	.2byte	0x8970
e0003262:	b001                	j	e0002a62 <FLASH_ALSAQR_BOOT_SIGNED+0x251a>
e0003264:	7934                	.2byte	0x7934
e0003266:	0000ffbf 54a21500 	.8byte	0x54a215000000ffbf
e000326e:	2a98                	.2byte	0x2a98
e0003270:	8930                	.2byte	0x8930
e0003272:	9488                	.2byte	0x9488
e0003274:	0000                	unimp
e0003276:	0000                	unimp
e0003278:	0c94                	addi	a3,sp,592
e000327a:	24d2                	.2byte	0x24d2
e000327c:	7268                	.2byte	0x7268
e000327e:	8018                	.2byte	0x8018
e0003280:	0000                	unimp
e0003282:	5ce0                	lw	s0,124(s1)
e0003284:	5930                	lw	a2,112(a0)
e0003286:	2568                	.2byte	0x2568
e0003288:	597a                	lw	s2,188(sp)
e000328a:	0001                	nop
e000328c:	0000                	unimp
e000328e:	8010                	.2byte	0x8010
e0003290:	9828                	.2byte	0x9828
e0003292:	7a99                	lui	s5,0xfffe6
e0003294:	63d2                	.2byte	0x63d2
e0003296:	54a4                	lw	s1,104(s1)
e0003298:	0000                	unimp
e000329a:	bd50                	.2byte	0xbd50
e000329c:	4e30                	lw	a2,88(a2)
e000329e:	de41                	beqz	a2,e0003236 <FLASH_ALSAQR_BOOT_SIGNED+0x2cee>
e00032a0:	5039                	c.li	zero,-18
e00032a2:	00cc                	addi	a1,sp,68
e00032a4:	0000                	unimp
e00032a6:	aaa0                	.2byte	0xaaa0
e00032a8:	be40ffbf 713a8adc 	.8byte	0x713a8adcbe40ffbf
e00032b0:	0000                	unimp
e00032b2:	6050                	.2byte	0x6050
e00032b4:	6280                	.2byte	0x6280
e00032b6:	5dc2                	lw	s11,48(sp)
e00032b8:	0001                	nop
e00032ba:	8130                	.2byte	0x8130
e00032bc:	0000                	unimp
e00032be:	8170                	.2byte	0x8170
e00032c0:	8174                	.2byte	0x8174
e00032c2:	f381                	bnez	a5,e00031c2 <FLASH_ALSAQR_BOOT_SIGNED+0x2c7a>
e00032c4:	7454                	.2byte	0x7454
e00032c6:	0000642b          	.4byte	0x642b
e00032ca:	7890                	.2byte	0x7890
e00032cc:	7a92                	.2byte	0x7a92
e00032ce:	a914                	.2byte	0xa914
e00032d0:	8130                	.2byte	0x8130
e00032d2:	5480                	lw	s0,40(s1)
e00032d4:	0000                	unimp
e00032d6:	0000                	unimp
e00032d8:	7014                	.2byte	0x7014
e00032da:	6004                	.2byte	0x6004
e00032dc:	5ce8                	lw	a0,124(s1)
e00032de:	6818                	.2byte	0x6818
e00032e0:	0000                	unimp
e00032e2:	54a0                	lw	s0,104(s1)
e00032e4:	5970                	lw	a2,116(a0)
e00032e6:	74d1                	lui	s1,0xffff4
e00032e8:	4332                	lw	t1,12(sp)
e00032ea:	0950                	addi	a2,sp,148
e00032ec:	0000                	unimp
e00032ee:	2950                	.2byte	0x2950
e00032f0:	54a2                	lw	s1,40(sp)
e00032f2:	f4d8                	.2byte	0xf4d8
e00032f4:	5930                	lw	a2,112(a0)
e00032f6:	3a58                	.2byte	0x3a58
e00032f8:	0000                	unimp
e00032fa:	0000                	unimp
e00032fc:	1540                	addi	s0,sp,676
e00032fe:	9ff0                	.2byte	0x9ff0
e0003300:	9828                	.2byte	0x9828
e0003302:	5b39                	li	s6,-18
e0003304:	0000                	unimp
e0003306:	65a0                	.2byte	0x65a0
e0003308:	b6e410cb          	.4byte	0xb6e410cb
e000330c:	0a58                	addi	a4,sp,276
e000330e:	f5d0                	.2byte	0xf5d0
e0003310:	0000                	unimp
e0003312:	ab30                	.2byte	0xab30
e0003314:	6030                	.2byte	0x6030
e0003316:	01b4                	addi	a3,sp,200
e0003318:	6334                	.2byte	0x6334
e000331a:	0a58                	addi	a4,sp,276
e000331c:	0000                	unimp
e000331e:	5010                	lw	a2,32(s0)
e0003320:	44d0613f a7d05050 	.8byte	0xa7d0505044d0613f
e0003328:	0000                	unimp
e000332a:	0060                	addi	s0,sp,12
e000332c:	0000                	unimp
e000332e:	88a0                	.2byte	0x88a0
e0003330:	f69f 597b 0000      	.byte	0x9f, 0xf6, 0x7b, 0x59, 0x00, 0x00
e0003336:	ff50                	.2byte	0xff50
e0003338:	7794                	.2byte	0x7794
e000333a:	7858da9b          	.4byte	0x7858da9b
e000333e:	00006157          	.4byte	0x6157
e0003342:	5930                	lw	a2,112(a0)
e0003344:	1258                	addi	a4,sp,292
e0003346:	fff2                	.2byte	0xfff2
e0003348:	0001                	nop
e000334a:	5930                	lw	a2,112(a0)
e000334c:	0000                	unimp
e000334e:	5970                	lw	a2,116(a0)
e0003350:	aaa9                	j	e00034aa <FLASH_ALSAQR_BOOT_SIGNED+0x2f62>
e0003352:	0ff9                	addi	t6,t6,30
e0003354:	54a4                	lw	s1,104(s1)
e0003356:	9828                	.2byte	0x9828
e0003358:	0000                	unimp
e000335a:	6450                	.2byte	0x6450
e000335c:	df28                	sw	a0,120(a4)
e000335e:	be44                	.2byte	0xbe44
e0003360:	a81a                	.2byte	0xa81a
e0003362:	5564                	lw	s1,108(a0)
e0003364:	0000                	unimp
e0003366:	0110                	addi	a2,sp,128
e0003368:	bb25                	j	e00030a0 <FLASH_ALSAQR_BOOT_SIGNED+0x2b58>
e000336a:	b8a5                	j	e0002be2 <FLASH_ALSAQR_BOOT_SIGNED+0x269a>
e000336c:	c925                	beqz	a0,e00033dc <FLASH_ALSAQR_BOOT_SIGNED+0x2e94>
e000336e:	c225                	beqz	a2,e00033ce <FLASH_ALSAQR_BOOT_SIGNED+0x2e86>
e0003370:	0000                	unimp
e0003372:	d020                	sw	s0,96(s0)
e0003374:	9f25                	.2byte	0x9f25
e0003376:	8b25                	andi	a4,a4,9
e0003378:	ad25                	j	e00039b0 <FLASH_ALSAQR_BOOT_SIGNED+0x3468>
e000337a:	a625                	j	e00036a2 <FLASH_ALSAQR_BOOT_SIGNED+0x315a>
e000337c:	0000                	unimp
e000337e:	b420                	.2byte	0xb420
e0003380:	0b64                	addi	s1,sp,412
e0003382:	5004                	lw	s1,32(s0)
e0003384:	4964                	lw	s1,84(a0)
e0003386:	4264                	lw	s1,68(a2)
e0003388:	0000                	unimp
e000338a:	9060                	.2byte	0x9060
e000338c:	0001                	nop
e000338e:	a8a0                	.2byte	0xa8a0
e0003390:	0826                	slli	a6,a6,0x9
e0003392:	5978                	lw	a4,116(a0)
e0003394:	0000                	unimp
e0003396:	1610                	addi	a2,sp,800
e0003398:	7f14                	.2byte	0x7f14
e000339a:	ef58b38b          	.4byte	0xef58b38b
e000339e:	6311                	lui	t1,0x4
e00033a0:	0000                	unimp
e00033a2:	5930                	lw	a2,112(a0)
e00033a4:	2a6c                	.2byte	0x2a6c
e00033a6:	6dcc                	.2byte	0x6dcc
e00033a8:	4a2c6867          	.4byte	0x4a2c6867
e00033ac:	0000                	unimp
e00033ae:	15d0                	addi	a2,sp,740
e00033b0:	a56d                	j	e0003a5a <FLASH_ALSAQR_BOOT_SIGNED+0x3512>
e00033b2:	effd                	bnez	a5,e00034b0 <FLASH_ALSAQR_BOOT_SIGNED+0x2f68>
e00033b4:	e4ec                	.2byte	0xe4ec
e00033b6:	c52d                	beqz	a0,e0003420 <FLASH_ALSAQR_BOOT_SIGNED+0x2ed8>
e00033b8:	0000                	unimp
e00033ba:	0ca0                	addi	s0,sp,600
e00033bc:	266d                	jal	e0003766 <FLASH_ALSAQR_BOOT_SIGNED+0x321e>
e00033be:	200d                	jal	e00033e0 <FLASH_ALSAQR_BOOT_SIGNED+0x2e98>
e00033c0:	65ed                	lui	a1,0x1b
e00033c2:	462d                	li	a2,11
e00033c4:	0000                	unimp
e00033c6:	85a0                	.2byte	0x85a0
e00033c8:	b368                	.2byte	0xb368
e00033ca:	5568                	lw	a0,108(a0)
e00033cc:	bc6d                	j	e0002e86 <FLASH_ALSAQR_BOOT_SIGNED+0x293e>
e00033ce:	a428                	.2byte	0xa428
e00033d0:	0000                	unimp
e00033d2:	06a0                	addi	s0,sp,840
e00033d4:	c638                	sw	a4,72(a2)
e00033d6:	92e8323f 00009aa8 	.8byte	0x9aa892e8323f
e00033de:	ab20                	.2byte	0xab20
e00033e0:	50a4                	lw	s1,96(s1)
e00033e2:	3a98                	.2byte	0x3a98
e00033e4:	4b30                	lw	a2,80(a4)
e00033e6:	1670                	addi	a2,sp,812
e00033e8:	0000                	unimp
e00033ea:	2e60                	.2byte	0x2e60
e00033ec:	6c18                	.2byte	0x6c18
e00033ee:	4a92                	lw	s5,4(sp)
e00033f0:	2000                	.2byte	0x2000
e00033f2:	5be0                	lw	s0,116(a5)
e00033f4:	0000                	unimp
e00033f6:	6130                	.2byte	0x6130
e00033f8:	2000                	.2byte	0x2000
e00033fa:	84d0                	.2byte	0x84d0
e00033fc:	c01c                	sw	a5,0(s0)
e00033fe:	5134                	lw	a3,96(a0)
e0003400:	0000                	unimp
e0003402:	09d0                	addi	a2,sp,212
e0003404:	4130                	lw	a2,64(a0)
e0003406:	86e0                	.2byte	0x86e0
e0003408:	4638                	lw	a4,72(a2)
e000340a:	0a4e                	slli	s4,s4,0x13
e000340c:	0000                	unimp
e000340e:	4260                	lw	s0,68(a2)
e0003410:	6228                	.2byte	0x6228
e0003412:	68a8                	.2byte	0x68a8
e0003414:	58a0                	lw	s0,112(s1)
e0003416:	54e8                	lw	a0,108(s1)
e0003418:	0000                	unimp
e000341a:	2000                	.2byte	0x2000
e000341c:	0fd9                	addi	t6,t6,22
e000341e:	c819e38f          	.4byte	0xc819e38f
e0003422:	c2a8                	sw	a0,64(a3)
e0003424:	0000                	unimp
e0003426:	9020                	.2byte	0x9020
e0003428:	c01a                	sw	t1,0(sp)
e000342a:	9384                	.2byte	0x9384
e000342c:	00b1                	addi	ra,ra,12 # 1600c <_stack_len+0xe00c>
e000342e:	0ad0                	addi	a2,sp,340
e0003430:	0000                	unimp
e0003432:	6630                	.2byte	0x6630
e0003434:	6014                	.2byte	0x6014
e0003436:	7234                	.2byte	0x7234
e0003438:	60b0                	.2byte	0x60b0
e000343a:	4010                	lw	a2,0(s0)
e000343c:	0000                	unimp
e000343e:	3630                	.2byte	0x3630
e0003440:	c938                	sw	a4,80(a0)
e0003442:	0000                	unimp
e0003444:	ffb0                	.2byte	0xffb0
e0003446:	0000b0af          	.4byte	0xb0af
e000344a:	4930                	lw	a2,80(a0)
e000344c:	3638                	.2byte	0x3638
e000344e:	66e1                	lui	a3,0x18
e0003450:	d7d0                	sw	a2,44(a5)
e0003452:	5265                	li	tp,-7
e0003454:	0000                	unimp
e0003456:	2000                	.2byte	0x2000
e0003458:	5039                	c.li	zero,-18
e000345a:	3ff4                	.2byte	0x3ff4
e000345c:	5220                	lw	s0,96(a2)
e000345e:	5568                	lw	a0,108(a0)
e0003460:	0000                	unimp
e0003462:	00a0                	addi	s0,sp,72
e0003464:	5de0                	lw	s0,124(a1)
e0003466:	2e49                	jal	e00037f8 <FLASH_ALSAQR_BOOT_SIGNED+0x32b0>
e0003468:	5930                	lw	a2,112(a0)
e000346a:	0455                	addi	s0,s0,21 # a015 <_stack_len+0x2015>
e000346c:	0000                	unimp
e000346e:	0050                	addi	a2,sp,4
e0003470:	0cb0                	addi	a2,sp,600
e0003472:	cb20                	sw	s0,80(a4)
e0003474:	0058                	addi	a4,sp,4
e0003476:	6b30                	.2byte	0x6b30
e0003478:	0000                	unimp
e000347a:	5830                	lw	a2,112(s0)
e000347c:	55e8                	lw	a0,108(a1)
e000347e:	8919                	andi	a0,a0,6
e0003480:	0b68                	addi	a0,sp,412
e0003482:	93d0                	.2byte	0x93d0
e0003484:	0000                	unimp
e0003486:	0230                	addi	a2,sp,264
e0003488:	0a30                	addi	a2,sp,280
e000348a:	cdc8                	sw	a0,28(a1)
e000348c:	0050                	addi	a2,sp,4
e000348e:	6090                	.2byte	0x6090
e0003490:	0000                	unimp
e0003492:	5030                	lw	a2,96(s0)
e0003494:	58a0                	lw	s0,112(s1)
e0003496:	7918                	.2byte	0x7918
e0003498:	9630                	.2byte	0x9630
e000349a:	1961                	addi	s2,s2,-8
e000349c:	0000                	unimp
e000349e:	0a60                	addi	s0,sp,284
e00034a0:	9028                	.2byte	0x9028
e00034a2:	b389                	j	e00031e4 <FLASH_ALSAQR_BOOT_SIGNED+0x2c9c>
e00034a4:	2000                	.2byte	0x2000
e00034a6:	54e0                	lw	s0,108(s1)
e00034a8:	0000                	unimp
e00034aa:	6130                	.2byte	0x6130
e00034ac:	4051                	c.li	zero,20
e00034ae:	21b0                	.2byte	0x21b0
e00034b0:	c2a4                	sw	s1,64(a3)
e00034b2:	4fd9                	li	t6,22
e00034b4:	0000                	unimp
e00034b6:	6010                	.2byte	0x6010
e00034b8:	58ac                	lw	a1,112(s1)
e00034ba:	2dc8                	.2byte	0x2dc8
e00034bc:	ba49                	j	e0002e4e <FLASH_ALSAQR_BOOT_SIGNED+0x2906>
e00034be:	609f 0000 ee30      	.byte	0x9f, 0x60, 0x00, 0x00, 0x30, 0xee
e00034c4:	5629                	li	a2,-22
e00034c6:	d4d8                	sw	a4,44(s1)
e00034c8:	9028                	.2byte	0x9028
e00034ca:	c2a9                	beqz	a3,e000350c <FLASH_ALSAQR_BOOT_SIGNED+0x2fc4>
e00034cc:	0000                	unimp
e00034ce:	54e0                	lw	s0,108(s1)
e00034d0:	bb25                	j	e0003208 <FLASH_ALSAQR_BOOT_SIGNED+0x2cc0>
e00034d2:	b8a5                	j	e0002d4a <FLASH_ALSAQR_BOOT_SIGNED+0x2802>
e00034d4:	c925                	beqz	a0,e0003544 <FLASH_ALSAQR_BOOT_SIGNED+0x2ffc>
e00034d6:	c225                	beqz	a2,e0003536 <FLASH_ALSAQR_BOOT_SIGNED+0x2fee>
e00034d8:	0000                	unimp
e00034da:	d020                	sw	s0,96(s0)
e00034dc:	9f25                	.2byte	0x9f25
e00034de:	8b25                	andi	a4,a4,9
e00034e0:	ad25                	j	e0003b18 <FLASH_ALSAQR_BOOT_SIGNED+0x35d0>
e00034e2:	a625                	j	e000380a <FLASH_ALSAQR_BOOT_SIGNED+0x32c2>
e00034e4:	0000                	unimp
e00034e6:	b420                	.2byte	0xb420
e00034e8:	0b64                	addi	s1,sp,412
e00034ea:	5004                	lw	s1,32(s0)
e00034ec:	4964                	lw	s1,84(a0)
e00034ee:	4264                	lw	s1,68(a2)
e00034f0:	0000                	unimp
e00034f2:	9060                	.2byte	0x9060
e00034f4:	da9d6067          	.4byte	0xda9d6067
e00034f8:	0826                	slli	a6,a6,0x9
e00034fa:	1798                	addi	a4,sp,992
e00034fc:	0000                	unimp
e00034fe:	1610                	addi	a2,sp,800
e0003500:	2934                	.2byte	0x2934
e0003502:	96e0                	.2byte	0x96e0
e0003504:	a058                	.2byte	0xa058
e0003506:	381c                	.2byte	0x381c
e0003508:	0000                	unimp
e000350a:	8ae0                	.2byte	0x8ae0
e000350c:	2f65                	jal	e0003cc4 <FLASH_ALSAQR_BOOT_SIGNED+0x377c>
e000350e:	b380                	.2byte	0xb380
e0003510:	3320                	.2byte	0x3320
e0003512:	6338                	.2byte	0x6338
e0003514:	0000                	unimp
e0003516:	2b10                	.2byte	0x2b10
e0003518:	0b30                	addi	a2,sp,408
e000351a:	5234                	lw	a3,96(a2)
e000351c:	2f60                	.2byte	0x2f60
e000351e:	5b30                	lw	a2,112(a4)
e0003520:	0000                	unimp
e0003522:	5b30                	lw	a2,112(a4)
e0003524:	5b30                	lw	a2,112(a4)
e0003526:	f6e8                	.2byte	0xf6e8
e0003528:	e039                	bnez	s0,e000356e <FLASH_ALSAQR_BOOT_SIGNED+0x3026>
e000352a:	0058                	addi	a4,sp,4
e000352c:	0000                	unimp
e000352e:	5c20                	lw	s0,120(s0)
e0003530:	3fd0                	.2byte	0x3fd0
e0003532:	1a91                	addi	s5,s5,-28 # fffe5fe4 <fromhost+0x1ffd5fd4>
e0003534:	0230                	addi	a2,sp,264
e0003536:	1c58                	addi	a4,sp,564
e0003538:	0000                	unimp
e000353a:	0720                	addi	s0,sp,904
e000353c:	0700                	addi	s0,sp,896
e000353e:	fff4                	.2byte	0xfff4
e0003540:	633fef37          	lui	t5,0x633fe
e0003544:	0000                	unimp
e0003546:	1e30                	addi	a2,sp,824
e0003548:	5a30                	lw	a2,112(a2)
e000354a:	7ff0                	.2byte	0x7ff0
e000354c:	583a                	lw	a6,172(sp)
e000354e:	0080                	addi	s0,sp,64
e0003550:	0000                	unimp
e0003552:	0310                	addi	a2,sp,384
e0003554:	2914                	.2byte	0x2914
e0003556:	26ec                	.2byte	0x26ec
e0003558:	6050                	.2byte	0x6050
e000355a:	5854                	lw	a3,52(s0)
e000355c:	0000                	unimp
e000355e:	2b10                	.2byte	0x2b10
e0003560:	4630                	lw	a2,72(a2)
e0003562:	d1be                	sw	a5,224(sp)
e0003564:	6938                	.2byte	0x6938
e0003566:	2000                	.2byte	0x2000
e0003568:	0000                	unimp
e000356a:	5b60                	lw	s0,116(a4)
e000356c:	e630                	.2byte	0xe630
e000356e:	5930c1b7          	lui	gp,0x5930c
e0003572:	2000                	.2byte	0x2000
e0003574:	0000                	unimp
e0003576:	0d50                	addi	a2,sp,660
e0003578:	07c4                	addi	s1,sp,964
e000357a:	c380                	sw	s0,0(a5)
e000357c:	6b30                	.2byte	0x6b30
e000357e:	0c58                	addi	a4,sp,532
e0003580:	0000                	unimp
e0003582:	0b60                	addi	s0,sp,412
e0003584:	0230                	addi	a2,sp,264
e0003586:	9000                	.2byte	0x9000
e0003588:	0c78                	addi	a4,sp,540
e000358a:	67d4                	.2byte	0x67d4
e000358c:	0000                	unimp
e000358e:	6330                	.2byte	0x6330
e0003590:	ee51                	bnez	a2,e000362c <FLASH_ALSAQR_BOOT_SIGNED+0x30e4>
e0003592:	ca9f 6fd0 67d1      	.byte	0x9f, 0xca, 0xd0, 0x6f, 0xd1, 0x67
e0003598:	0000                	unimp
e000359a:	0e60                	addi	s0,sp,796
e000359c:	5938                	lw	a4,112(a0)
e000359e:	de48                	sw	a0,60(a2)
e00035a0:	06c8                	addi	a0,sp,836
e00035a2:	d910                	sw	a2,48(a0)
e00035a4:	0000                	unimp
e00035a6:	62e0                	.2byte	0x62e0
e00035a8:	1455                	addi	s0,s0,-11
e00035aa:	e6e6                	.2byte	0xe6e6
e00035ac:	8820                	.2byte	0x8820
e00035ae:	0b29                	addi	s6,s6,10 # fffeb00a <fromhost+0x1ffdaffa>
e00035b0:	0000                	unimp
e00035b2:	2050                	.2byte	0x2050
e00035b4:	7930                	.2byte	0x7930
e00035b6:	71b5                	lui	gp,0xfffed
e00035b8:	8138                	.2byte	0x8138
e00035ba:	0052                	c.slli	zero,0x14
e00035bc:	0000                	unimp
e00035be:	0820                	addi	s0,sp,24
e00035c0:	7138                	.2byte	0x7138
e00035c2:	fe94ddcb          	.4byte	0xfe94ddcb
e00035c6:	bfd8                	.2byte	0xbfd8
e00035c8:	0000                	unimp
e00035ca:	1f50                	addi	a2,sp,948
e00035cc:	7130                	.2byte	0x7130
e00035ce:	ce40                	sw	s0,28(a2)
e00035d0:	8330                	.2byte	0x8330
e00035d2:	00000e87          	.4byte	0xe87
e00035d6:	0170                	addi	a2,sp,140
e00035d8:	73e0                	.2byte	0x73e0
e00035da:	8c78                	.2byte	0x8c78
e00035dc:	3630                	.2byte	0x3630
e00035de:	0081                	addi	ra,ra,0
e00035e0:	0000                	unimp
e00035e2:	2000                	.2byte	0x2000
e00035e4:	0000                	unimp
e00035e6:	0271023f 00007970 	.8byte	0x79700271023f
e00035ee:	8130                	.2byte	0x8130
e00035f0:	39c9                	jal	e00032c2 <FLASH_ALSAQR_BOOT_SIGNED+0x2d7a>
e00035f2:	d1b4                	sw	a3,96(a1)
e00035f4:	5878                	lw	a4,116(s0)
e00035f6:	00007c2f          	.4byte	0x7c2f
e00035fa:	7930                	.2byte	0x7930
e00035fc:	b1d0                	.2byte	0xb1d0
e00035fe:	438c                	lw	a1,0(a5)
e0003600:	593c                	lw	a5,112(a0)
e0003602:	00000173          	.4byte	0x173
e0003606:	19c0                	addi	s0,sp,244
e0003608:	bff7ff77          	.4byte	0xbff7ff77
e000360c:	0555                	addi	a0,a0,21 # 18015 <_stack_len+0x10015>
e000360e:	7130                	.2byte	0x7130
e0003610:	0000                	unimp
e0003612:	7130                	.2byte	0x7130
e0003614:	a7d0                	.2byte	0xa7d0
e0003616:	8388                	.2byte	0x8388
e0003618:	613c                	.2byte	0x613c
e000361a:	1055                	c.nop	-11
e000361c:	0000                	unimp
e000361e:	2180                	.2byte	0x2180
e0003620:	0c68                	addi	a0,sp,540
e0003622:	3000                	.2byte	0x3000
e0003624:	4066                	.2byte	0x4066
e0003626:	0230                	addi	a2,sp,264
e0003628:	0000                	unimp
e000362a:	6130                	.2byte	0x6130
e000362c:	6138                	.2byte	0x6138
e000362e:	9006                	c.add	zero,ra
e0003630:	1555                	addi	a0,a0,-11
e0003632:	a7d0                	.2byte	0xa7d0
e0003634:	0000                	unimp
e0003636:	6130                	.2byte	0x6130
e0003638:	1690                	addi	a2,sp,864
e000363a:	91b8                	.2byte	0x91b8
e000363c:	0a30                	addi	a2,sp,280
e000363e:	0c68                	addi	a0,sp,540
e0003640:	0000                	unimp
e0003642:	4060                	lw	s0,68(s0)
e0003644:	1230                	addi	a2,sp,296
e0003646:	9b28                	.2byte	0x9b28
e0003648:	5138                	lw	a4,96(a0)
e000364a:	4056                	.2byte	0x4056
e000364c:	0000                	unimp
e000364e:	97d0                	.2byte	0x97d0
e0003650:	513c                	lw	a5,96(a0)
e0003652:	58ac                	lw	a1,112(s1)
e0003654:	0110                	addi	a2,sp,128
e0003656:	208a                	.2byte	0x208a
e0003658:	0000                	unimp
e000365a:	0a60                	addi	s0,sp,284
e000365c:	601c                	.2byte	0x601c
e000365e:	c564                	sw	s1,76(a0)
e0003660:	0820                	addi	s0,sp,24
e0003662:	5818                	lw	a4,48(s0)
e0003664:	0000                	unimp
e0003666:	0150                	addi	a2,sp,132
e0003668:	5324                	lw	s1,96(a4)
e000366a:	9dc8                	.2byte	0x9dc8
e000366c:	011c                	addi	a5,sp,128
e000366e:	60da                	.2byte	0x60da
e0003670:	0000                	unimp
e0003672:	1880                	addi	s0,sp,112
e0003674:	c22c                	sw	a1,64(a2)
e0003676:	4b2c                	lw	a1,80(a4)
e0003678:	1018                	addi	a4,sp,32
e000367a:	e061                	bnez	s0,e000373a <FLASH_ALSAQR_BOOT_SIGNED+0x31f2>
e000367c:	0000                	unimp
e000367e:	0820                	addi	s0,sp,24
e0003680:	48dc                	lw	a5,20(s1)
e0003682:	66e4                	.2byte	0x66e4
e0003684:	84ac                	.2byte	0x84ac
e0003686:	64ec                	.2byte	0x64ec
e0003688:	0000                	unimp
e000368a:	a260                	.2byte	0xa260
e000368c:	ad94                	.2byte	0xad94
e000368e:	4e4c                	lw	a1,28(a2)
e0003690:	92ec                	.2byte	0x92ec
e0003692:	1948                	addi	a0,sp,180
e0003694:	0000                	unimp
e0003696:	d510                	sw	a2,40(a0)
e0003698:	42ac                	lw	a1,64(a3)
e000369a:	fc78                	.2byte	0xfc78
e000369c:	0492                	slli	s1,s1,0x4
e000369e:	a410                	.2byte	0xa410
e00036a0:	0000                	unimp
e00036a2:	6030                	.2byte	0x6030
e00036a4:	6050                	.2byte	0x6050
e00036a6:	016e3003          	.4byte	0x16e3003
e00036aa:	5130                	lw	a2,96(a0)
e00036ac:	0000                	unimp
e00036ae:	5370                	lw	a2,100(a4)
e00036b0:	5930                	lw	a2,112(a0)
e00036b2:	c388                	sw	a0,0(a5)
e00036b4:	5b78                	lw	a4,116(a4)
e00036b6:	000016e3          	bnez	zero,e0003ec2 <FLASH_ALSAQR_BOOT_SIGNED+0x397a>
e00036ba:	d350                	sw	a2,36(a4)
e00036bc:	0b56                	slli	s6,s6,0x15
e00036be:	2230                	.2byte	0x2230
e00036c0:	db16                	sw	t0,180(sp)
e00036c2:	7338                	.2byte	0x7338
e00036c4:	0000                	unimp
e00036c6:	0050                	addi	a2,sp,4
e00036c8:	581f 5c74 9936      	.byte	0x1f, 0x58, 0x74, 0x5c, 0x36, 0x99
e00036ce:	ff50                	.2byte	0xff50
e00036d0:	0000                	unimp
e00036d2:	5410                	lw	a2,40(s0)
e00036d4:	1469                	addi	s0,s0,-6
e00036d6:	5b20                	lw	s0,112(a4)
e00036d8:	b018                	.2byte	0xb018
e00036da:	513c                	lw	a5,96(a0)
e00036dc:	0000                	unimp
e00036de:	54e0                	lw	s0,108(s1)
e00036e0:	7014                	.2byte	0x7014
e00036e2:	6dc4                	.2byte	0x6dc4
e00036e4:	0c6d                	addi	s8,s8,27
e00036e6:	6810                	.2byte	0x6810
e00036e8:	0000                	unimp
e00036ea:	5930                	lw	a2,112(a0)
e00036ec:	d310                	sw	a2,32(a4)
e00036ee:	6dc8                	.2byte	0x6dc8
e00036f0:	6332                	.2byte	0x6332
e00036f2:	00001357          	.4byte	0x1357
e00036f6:	0790                	addi	a2,sp,960
e00036f8:	8234                	.2byte	0x8234
e00036fa:	a8a2                	.2byte	0xa8a2
e00036fc:	9298                	.2byte	0x9298
e00036fe:	008e                	slli	ra,ra,0x3
e0003700:	0000                	unimp
e0003702:	d4d0                	sw	a2,44(s1)
e0003704:	10c4                	addi	s1,sp,100
e0003706:	a91d                	j	e0003b3c <FLASH_ALSAQR_BOOT_SIGNED+0x35f4>
e0003708:	0080                	addi	s0,sp,64
e000370a:	58d4                	lw	a3,52(s1)
e000370c:	0000                	unimp
e000370e:	0050                	addi	a2,sp,4
e0003710:	0080                	addi	s0,sp,64
e0003712:	86e4                	.2byte	0x86e4
e0003714:	4234                	lw	a3,64(a2)
e0003716:	2052                	.2byte	0x2052
e0003718:	0000                	unimp
e000371a:	0080                	addi	s0,sp,64
e000371c:	2234                	.2byte	0x2234
e000371e:	fc72                	.2byte	0xfc72
e0003720:	2052                	.2byte	0x2052
e0003722:	0080                	addi	s0,sp,64
e0003724:	0000                	unimp
e0003726:	8230                	.2byte	0x8230
e0003728:	10c5                	addi	ra,ra,-15
e000372a:	bdcc                	.2byte	0xbdcc
e000372c:	0080                	addi	s0,sp,64
e000372e:	5fd4                	lw	a3,60(a5)
e0003730:	0000                	unimp
e0003732:	0050                	addi	a2,sp,4
e0003734:	1061                	c.nop	-8
e0003736:	f4d0                	.2byte	0xf4d0
e0003738:	0892                	slli	a7,a7,0x4
e000373a:	5130                	lw	a2,96(a0)
e000373c:	0000                	unimp
e000373e:	6830                	.2byte	0x6830
e0003740:	3630                	.2byte	0x3630
e0003742:	6388                	.2byte	0x6388
e0003744:	5934                	lw	a3,112(a0)
e0003746:	4300                	lw	s0,0(a4)
e0003748:	0000                	unimp
e000374a:	6050                	.2byte	0x6050
e000374c:	0c92                	slli	s9,s9,0x4
e000374e:	a000                	.2byte	0xa000
e0003750:	58d0                	lw	a2,52(s1)
e0003752:	6034                	.2byte	0x6034
e0003754:	0000                	unimp
e0003756:	0c60                	addi	s0,sp,540
e0003758:	8056                	c.mv	zero,s5
e000375a:	1e40                	addi	s0,sp,820
e000375c:	2198                	.2byte	0x2198
e000375e:	513e                	lw	sp,236(sp)
e0003760:	0000                	unimp
e0003762:	d4d0                	sw	a2,44(s1)
e0003764:	4814                	lw	a3,16(s0)
e0003766:	3dc4                	.2byte	0x3dc4
e0003768:	9884                	.2byte	0x9884
e000376a:	008c                	addi	a1,sp,64
e000376c:	0000                	unimp
e000376e:	00c0                	addi	s0,sp,68
e0003770:	9b28                	.2byte	0x9b28
e0003772:	e914                	.2byte	0xe914
e0003774:	0052                	c.slli	zero,0x14
e0003776:	5260                	lw	s0,100(a2)
e0003778:	0000                	unimp
e000377a:	2230                	.2byte	0x2230
e000377c:	0f24                	addi	s1,sp,920
e000377e:	5a94                	lw	a3,48(a3)
e0003780:	4d24                	lw	s1,88(a0)
e0003782:	4624                	lw	s1,72(a2)
e0003784:	0000                	unimp
e0003786:	9420                	.2byte	0x9420
e0003788:	110c                	addi	a1,sp,160
e000378a:	a384                	.2byte	0xa384
e000378c:	0826                	slli	a6,a6,0x9
e000378e:	d198                	sw	a4,32(a1)
e0003790:	0000                	unimp
e0003792:	1050                	addi	a2,sp,36
e0003794:	0914a54f          	.4byte	0x914a54f
e0003798:	a854                	.2byte	0xa854
e000379a:	ef58                	.2byte	0xef58
e000379c:	0000                	unimp
e000379e:	a540                	.2byte	0xa540
e00037a0:	110c                	addi	a1,sp,160
e00037a2:	eff4                	.2byte	0xeff4
e00037a4:	2998                	.2byte	0x2998
e00037a6:	e4ce                	.2byte	0xe4ce
e00037a8:	0000                	unimp
e00037aa:	a850                	.2byte	0xa850
e00037ac:	501d                	c.li	zero,-25
e00037ae:	ee44                	.2byte	0xee44
e00037b0:	9214                	.2byte	0x9214
e00037b2:	d758                	sw	a4,44(a4)
e00037b4:	0000                	unimp
e00037b6:	a480                	.2byte	0xa480
e00037b8:	1418                	addi	a4,sp,544
e00037ba:	5001                	c.li	zero,-32
e00037bc:	50d8                	lw	a4,36(s1)
e00037be:	0824                	addi	s1,sp,24
e00037c0:	0000                	unimp
e00037c2:	0820                	addi	s0,sp,24
e00037c4:	881c                	.2byte	0x881c
e00037c6:	aa94                	.2byte	0xaa94
e00037c8:	426c                	lw	a1,68(a2)
e00037ca:	24ac                	.2byte	0x24ac
e00037cc:	0000                	unimp
e00037ce:	6220                	.2byte	0x6220
e00037d0:	7934                	.2byte	0x7934
e00037d2:	1000                	addi	s0,sp,32
e00037d4:	e014                	.2byte	0xe014
e00037d6:	e814                	.2byte	0xe814
e00037d8:	0000                	unimp
e00037da:	8010                	.2byte	0x8010
e00037dc:	0159                	addi	sp,sp,22
e00037de:	6910                	.2byte	0x6910
e00037e0:	2fd0                	.2byte	0x2fd0
e00037e2:	3134                	.2byte	0x3134
e00037e4:	0000                	unimp
e00037e6:	3f00                	.2byte	0x3f00
e00037e8:	a91c563f e0784935 	.8byte	0xe0784935a91c563f
e00037f0:	0000                	unimp
e00037f2:	3fd0                	.2byte	0x3fd0
e00037f4:	8090                	.2byte	0x8090
e00037f6:	623a                	.2byte	0x623a
e00037f8:	f330                	.2byte	0xf330
e00037fa:	095d                	addi	s2,s2,23
e00037fc:	0000                	unimp
e00037fe:	0040                	addi	s0,sp,4
e0003800:	0f28                	addi	a0,sp,920
e0003802:	31b4                	.2byte	0x31b4
e0003804:	0f55                	addi	t5,t5,21 # 633fe015 <tohost+0x633de00d>
e0003806:	4330                	lw	a2,64(a4)
e0003808:	0000                	unimp
e000380a:	4b30                	lw	a2,80(a4)
e000380c:	084e                	slli	a6,a6,0x13
e000380e:	a000                	.2byte	0xa000
e0003810:	0831                	addi	a6,a6,12 # ffff600c <fromhost+0x1ffe5ffc>
e0003812:	f330                	.2byte	0xf330
e0003814:	0000                	unimp
e0003816:	4330                	lw	a2,64(a4)
e0003818:	01e9                	addi	gp,gp,26 # fffed01a <fromhost+0x1ffdd00a>
e000381a:	db20                	sw	s0,112(a4)
e000381c:	1fe5                	addi	t6,t6,-7
e000381e:	4130                	lw	a2,64(a0)
e0003820:	0000                	unimp
e0003822:	4930                	lw	a2,80(a0)
e0003824:	01e1                	addi	gp,gp,24
e0003826:	8a90                	.2byte	0x8a90
e0003828:	0946                	slli	s2,s2,0x11
e000382a:	4930                	lw	a2,80(a0)
e000382c:	0000                	unimp
e000382e:	eb30                	.2byte	0xeb30
e0003830:	0946                	slli	s2,s2,0x11
e0003832:	2560                	.2byte	0x2560
e0003834:	f33001f7          	.4byte	0xf33001f7
e0003838:	0000                	unimp
e000383a:	4130                	lw	a2,64(a0)
e000383c:	de400deb          	.4byte	0xde400deb
e0003840:	0de8                	addi	a0,sp,732
e0003842:	e330                	.2byte	0xe330
e0003844:	0000                	unimp
e0003846:	5630                	lw	a2,104(a2)
e0003848:	f930                	.2byte	0xf930
e000384a:	adc4                	.2byte	0xadc4
e000384c:	e33a                	.2byte	0xe33a
e000384e:	00000cf3          	.4byte	0xcf3
e0003852:	0190                	addi	a2,sp,192
e0003854:	4634                	lw	a3,72(a2)
e0003856:	4c71                	li	s8,28
e0003858:	9010                	.2byte	0x9010
e000385a:	4814                	lw	a3,16(s0)
e000385c:	0000                	unimp
e000385e:	01e0                	addi	s0,sp,204
e0003860:	e138                	.2byte	0xe138
e0003862:	6c7d                	lui	s8,0x1f
e0003864:	9360                	.2byte	0x9360
e0003866:	4b28                	lw	a0,80(a4)
e0003868:	0000                	unimp
e000386a:	00e0                	addi	s0,sp,76
e000386c:	8330                	.2byte	0x8330
e000386e:	16e6                	slli	a3,a3,0x39
e0003870:	4130                	lw	a2,64(a0)
e0003872:	0181                	addi	gp,gp,0
e0003874:	0000                	unimp
e0003876:	1f80                	addi	s0,sp,1008
e0003878:	09f0                	addi	a2,sp,220
e000387a:	8384                	.2byte	0x8384
e000387c:	8860                	.2byte	0x8860
e000387e:	e330                	.2byte	0xe330
e0003880:	0000                	unimp
e0003882:	1c40                	addi	s0,sp,564
e0003884:	12e8                	addi	a0,sp,364
e0003886:	b914                	.2byte	0xb914
e0003888:	433009f3          	.4byte	0x433009f3
e000388c:	0000                	unimp
e000388e:	4b30                	lw	a2,80(a4)
e0003890:	8b31                	andi	a4,a4,12
e0003892:	affe                	.2byte	0xaffe
e0003894:	0940                	addi	s0,sp,148
e0003896:	7fd4                	.2byte	0x7fd4
e0003898:	0000                	unimp
e000389a:	eb30                	.2byte	0xeb30
e000389c:	709f f1bc 4e30      	.byte	0x9f, 0x70, 0xbc, 0xf1, 0x30, 0x4e
e00038a2:	8779                	srai	a4,a4,0x1e
e00038a4:	0000                	unimp
e00038a6:	1f80                	addi	s0,sp,1008
e00038a8:	1d72                	slli	s10,s10,0x3c
e00038aa:	0ff0                	addi	a2,sp,988
e00038ac:	1c72                	slli	s8,s8,0x3c
e00038ae:	2230                	.2byte	0x2230
e00038b0:	0000                	unimp
e00038b2:	0230                	addi	a2,sp,264
e00038b4:	4a24                	lw	s1,80(a2)
e00038b6:	8754                	.2byte	0x8754
e00038b8:	5c28                	lw	a0,120(s0)
e00038ba:	9128                	.2byte	0x9128
e00038bc:	0000                	unimp
e00038be:	5460                	lw	s0,108(s0)
e00038c0:	6938                	.2byte	0x6938
e00038c2:	1414f913          	andi	s2,s1,321
e00038c6:	0820                	addi	s0,sp,24
e00038c8:	0000                	unimp
e00038ca:	4320                	lw	s0,64(a4)
e00038cc:	ed90                	.2byte	0xed90
e00038ce:	4918                	lw	a4,16(a0)
e00038d0:	7130                	.2byte	0x7130
e00038d2:	0000015b          	.4byte	0x15b
e00038d6:	0150                	addi	a2,sp,132
e00038d8:	c638                	sw	a4,72(a2)
e00038da:	7e46                	.2byte	0x7e46
e00038dc:	711e                	.2byte	0x711e
e00038de:	6b24                	.2byte	0x6b24
e00038e0:	0000                	unimp
e00038e2:	ab50                	.2byte	0xab50
e00038e4:	7930                	.2byte	0x7930
e00038e6:	6b30de4f          	.4byte	0x6b30de4f
e00038ea:	0a5c                	addi	a5,sp,276
e00038ec:	0000                	unimp
e00038ee:	0e60                	addi	s0,sp,796
e00038f0:	b918                	.2byte	0xb918
e00038f2:	effe                	.2byte	0xeffe
e00038f4:	8320                	.2byte	0x8320
e00038f6:	6b28                	.2byte	0x6b28
e00038f8:	0000                	unimp
e00038fa:	0360                	addi	s0,sp,396
e00038fc:	7338                	.2byte	0x7338
e00038fe:	e910                	.2byte	0xe910
e0003900:	0a00                	addi	s0,sp,272
e0003902:	a8d4                	.2byte	0xa8d4
e0003904:	0000                	unimp
e0003906:	6b30                	.2byte	0x6b30
e0003908:	0d70                	addi	a2,sp,668
e000390a:	0000                	unimp
e000390c:	b714                	.2byte	0xb714
e000390e:	8339                	srli	a4,a4,0xe
e0003910:	0000                	unimp
e0003912:	0d60                	addi	s0,sp,668
e0003914:	0f58                	addi	a4,sp,916
e0003916:	1ff0                	addi	a2,sp,1020
e0003918:	781c                	.2byte	0x781c
e000391a:	7334                	.2byte	0x7334
e000391c:	0000                	unimp
e000391e:	6b90                	.2byte	0x6b90
e0003920:	0f50                	addi	a2,sp,916
e0003922:	e6e0                	.2byte	0xe6e0
e0003924:	0070                	addi	a2,sp,12
e0003926:	7330                	.2byte	0x7330
e0003928:	0000                	unimp
e000392a:	8830                	.2byte	0x8830
e000392c:	7e30                	.2byte	0x7e30
e000392e:	fb29                	bnez	a4,e0003880 <FLASH_ALSAQR_BOOT_SIGNED+0x3338>
e0003930:	0230                	addi	a2,sp,264
e0003932:	1170                	addi	a2,sp,172
e0003934:	0000                	unimp
e0003936:	7850                	.2byte	0x7850
e0003938:	7330                	.2byte	0x7330
e000393a:	21b8                	.2byte	0x21b8
e000393c:	106fb63f ef600000 	.8byte	0xef600000106fb63f
e0003944:	0d50                	addi	a2,sp,660
e0003946:	db20                	sw	s0,112(a4)
e0003948:	3180                	.2byte	0x3180
e000394a:	7b34                	.2byte	0x7b34
e000394c:	0000                	unimp
e000394e:	0d50                	addi	a2,sp,660
e0003950:	f06e                	.2byte	0xf06e
e0003952:	6fff                	.2byte	0x6fff
e0003954:	3980                	.2byte	0x3980
e0003956:	9e3c                	.2byte	0x9e3c
e0003958:	0000                	unimp
e000395a:	6910                	.2byte	0x6910
e000395c:	7338                	.2byte	0x7338
e000395e:	44d0                	lw	a2,12(s1)
e0003960:	e1500c6f          	jal	s8,dff04774 <tohost+0xdfee476c>
e0003964:	0000                	unimp
e0003966:	e630                	.2byte	0xe630
e0003968:	0058                	addi	a4,sp,4
e000396a:	b8a0                	.2byte	0xb8a0
e000396c:	5b60                	lw	s0,116(a4)
e000396e:	6839                	lui	a6,0xe
e0003970:	0000                	unimp
e0003972:	0d50                	addi	a2,sp,660
e0003974:	7051                	c.lui	zero,0xffff4
e0003976:	8000                	.2byte	0x8000
e0003978:	0d70                	addi	a2,sp,668
e000397a:	67d0                	.2byte	0x67d0
e000397c:	0000                	unimp
e000397e:	0230                	addi	a2,sp,264
e0003980:	6818                	.2byte	0x6818
e0003982:	16e4                	addi	s1,sp,876
e0003984:	a6d0                	.2byte	0xa6d0
e0003986:	0000082f          	.4byte	0x82f
e000398a:	5850                	lw	a2,52(s0)
e000398c:	78a4691b          	.4byte	0x78a4691b
e0003990:	d06e                	sw	s11,32(sp)
e0003992:	ff1f 0000 7e30      	.byte	0x1f, 0xff, 0x00, 0x00, 0x30, 0x7e
e0003998:	6b30                	.2byte	0x6b30
e000399a:	38a0                	.2byte	0x38a0
e000399c:	6638                	.2byte	0x6638
e000399e:	0d66                	slli	s10,s10,0x19
e00039a0:	0000                	unimp
e00039a2:	7320                	.2byte	0x7320
e00039a4:	6b30                	.2byte	0x6b30
e00039a6:	d6e0                	sw	s0,108(a3)
e00039a8:	7134                	.2byte	0x7134
e00039aa:	0000036f          	jal	t1,e00039aa <FLASH_ALSAQR_BOOT_SIGNED+0x3462>
e00039ae:	0a00                	addi	s0,sp,272
e00039b0:	b01f 356c 8134      	.byte	0x1f, 0xb0, 0x6c, 0x35, 0x34, 0x81
e00039b6:	0000fc6f          	jal	s8,e00129b6 <fromhost+0x29a6>
e00039ba:	0e60                	addi	s0,sp,796
e00039bc:	0b78                	addi	a4,sp,412
e00039be:	c4d0                	sw	a2,12(s1)
e00039c0:	6ba8                	.2byte	0x6ba8
e00039c2:	0238                	addi	a4,sp,264
e00039c4:	0000                	unimp
e00039c6:	7aa0                	.2byte	0x7aa0
e00039c8:	7ff0263f ee507851 	.8byte	0xee5078517ff0263f
e00039d0:	0000                	unimp
e00039d2:	6fd0                	.2byte	0x6fd0
e00039d4:	8130                	.2byte	0x8130
e00039d6:	8b300e4f          	.4byte	0x8b300e4f
e00039da:	0e80                	addi	s0,sp,848
e00039dc:	0000                	unimp
e00039de:	2080                	.2byte	0x2080
e00039e0:	7930                	.2byte	0x7930
e00039e2:	4008                	lw	a0,0(s0)
e00039e4:	7b70                	.2byte	0x7b70
e00039e6:	1010                	addi	a2,sp,32
e00039e8:	0000                	unimp
e00039ea:	ff50                	.2byte	0xff50
e00039ec:	6b30                	.2byte	0x6b30
e00039ee:	c4d0                	sw	a2,12(s1)
e00039f0:	7b31                	lui	s6,0xfffec
e00039f2:	2f80                	.2byte	0x2f80
e00039f4:	0000                	unimp
e00039f6:	0170                	addi	a2,sp,140
e00039f8:	ce3c                	sw	a5,88(a2)
e00039fa:	2236                	.2byte	0x2236
e00039fc:	7110                	.2byte	0x7110
e00039fe:	29c0                	.2byte	0x29c0
e0003a00:	0000                	unimp
e0003a02:	0e50                	addi	a2,sp,788
e0003a04:	e190                	.2byte	0xe190
e0003a06:	1a98                	addi	a4,sp,368
e0003a08:	0c77a63f f1700000 	.8byte	0xf17000000c77a63f
e0003a10:	0b68                	addi	a0,sp,412
e0003a12:	f910                	.2byte	0xf910
e0003a14:	0e50                	addi	a2,sp,788
e0003a16:	0230                	addi	a2,sp,264
e0003a18:	0000                	unimp
e0003a1a:	6b30                	.2byte	0x6b30
e0003a1c:	04d8082f          	.4byte	0x4d8082f
e0003a20:	6851                	lui	a6,0x14
e0003a22:	e650                	.2byte	0xe650
e0003a24:	0000                	unimp
e0003a26:	67d0                	.2byte	0x67d0
e0003a28:	0d66                	slli	s10,s10,0x19
e0003a2a:	9750                	.2byte	0x9750
e0003a2c:	eb24                	.2byte	0xeb24
e0003a2e:	6638                	.2byte	0x6638
e0003a30:	0000                	unimp
e0003a32:	6910                	.2byte	0x6910
e0003a34:	1000036f          	jal	t1,e0003b34 <FLASH_ALSAQR_BOOT_SIGNED+0x35ec>
e0003a38:	0a00                	addi	s0,sp,272
e0003a3a:	e934                	.2byte	0xe934
e0003a3c:	0000                	unimp
e0003a3e:	6b30                	.2byte	0x6b30
e0003a40:	00e8                	addi	a0,sp,76
e0003a42:	74d0                	.2byte	0x74d0
e0003a44:	ff5f b630 0000      	.byte	0x5f, 0xff, 0x30, 0xb6, 0x00, 0x00
e0003a4a:	e130                	.2byte	0xe130
e0003a4c:	005c                	addi	a5,sp,4
e0003a4e:	7c70                	.2byte	0x7c70
e0003a50:	7f68                	.2byte	0x7f68
e0003a52:	6838                	.2byte	0x6838
e0003a54:	0000                	unimp
e0003a56:	5aa0                	lw	s0,112(a3)
e0003a58:	5851                	li	a6,-12
e0003a5a:	1b20                	addi	s0,sp,440
e0003a5c:	9c68                	.2byte	0x9c68
e0003a5e:	7fd0                	.2byte	0x7fd0
e0003a60:	0000                	unimp
e0003a62:	5630                	lw	a2,104(a2)
e0003a64:	9f14                	.2byte	0x9f14
e0003a66:	86e9                	srai	a3,a3,0x1a
e0003a68:	1d605b3f bf500000 	.8byte	0xbf5000001d605b3f
e0003a70:	5b70                	lw	a2,116(a4)
e0003a72:	6000                	.2byte	0x6000
e0003a74:	833c                	.2byte	0x833c
e0003a76:	1d58                	addi	a4,sp,692
e0003a78:	0000                	unimp
e0003a7a:	9a90                	.2byte	0x9a90
e0003a7c:	2b31                	jal	e0003f98 <FLASH_ALSAQR_BOOT_SIGNED+0x3a50>
e0003a7e:	7000                	.2byte	0x7000
e0003a80:	5930                	lw	a2,112(a0)
e0003a82:	0158                	addi	a4,sp,132
e0003a84:	0000                	unimp
e0003a86:	1010                	addi	a2,sp,32
e0003a88:	5c10                	lw	a2,56(s0)
e0003a8a:	f236                	.2byte	0xf236
e0003a8c:	8930                	.2byte	0x8930
e0003a8e:	ff00                	.2byte	0xff00
e0003a90:	0000                	unimp
e0003a92:	2be0                	.2byte	0x2be0
e0003a94:	0ff0                	addi	a2,sp,988
e0003a96:	aa90                	.2byte	0xaa90
e0003a98:	0058                	addi	a4,sp,4
e0003a9a:	337f                	.2byte	0x337f
e0003a9c:	0000                	unimp
e0003a9e:	3930                	.2byte	0x3930
e0003aa0:	7b34                	.2byte	0x7b34
e0003aa2:	f4dc                	.2byte	0xf4dc
e0003aa4:	1d50                	addi	a2,sp,692
e0003aa6:	1940                	addi	s0,sp,180
e0003aa8:	0000                	unimp
e0003aaa:	5b30                	lw	a2,112(a4)
e0003aac:	c38f713f ff7c6930 	.8byte	0xff7c6930c38f713f
e0003ab4:	0000                	unimp
e0003ab6:	0560                	addi	s0,sp,652
e0003ab8:	7330                	.2byte	0x7330
e0003aba:	463018af          	.4byte	0x463018af
e0003abe:	5170                	lw	a2,100(a0)
e0003ac0:	0000                	unimp
e0003ac2:	ff60                	.2byte	0xff60
e0003ac4:	6b30                	.2byte	0x6b30
e0003ac6:	ec7f                	.2byte	0xec7f
e0003ac8:	b630                	.2byte	0xb630
e0003aca:	2770                	.2byte	0x2770
e0003acc:	0000                	unimp
e0003ace:	0760                	addi	s0,sp,908
e0003ad0:	6930                	.2byte	0x6930
e0003ad2:	2b2d                	jal	e000400c <FLASH_ALSAQR_BOOT_SIGNED+0x3ac4>
e0003ad4:	9630                	.2byte	0x9630
e0003ad6:	2668                	.2byte	0x2668
e0003ad8:	0000                	unimp
e0003ada:	0660                	addi	s0,sp,780
e0003adc:	9e30                	.2byte	0x9e30
e0003ade:	b75e                	.2byte	0xb75e
e0003ae0:	69d0                	.2byte	0x69d0
e0003ae2:	e91c                	.2byte	0xe91c
e0003ae4:	0000                	unimp
e0003ae6:	1870                	addi	a2,sp,60
e0003ae8:	6330                	.2byte	0x6330
e0003aea:	61b0                	.2byte	0x61b0
e0003aec:	0cefd63f d0e00000 	.8byte	0xd0e000000cefd63f
e0003af4:	5030                	lw	a2,96(s0)
e0003af6:	4dcc                	lw	a1,28(a1)
e0003af8:	5b34                	lw	a3,112(a4)
e0003afa:	1d50                	addi	a2,sp,692
e0003afc:	0000                	unimp
e0003afe:	1d60                	addi	s0,sp,700
e0003b00:	67d0                	.2byte	0x67d0
e0003b02:	a1b1                	j	e0003f4e <FLASH_ALSAQR_BOOT_SIGNED+0x3a06>
e0003b04:	c630                	sw	a2,72(a2)
e0003b06:	1c50                	addi	a2,sp,564
e0003b08:	0000                	unimp
e0003b0a:	0050                	addi	a2,sp,4
e0003b0c:	0314                	addi	a3,sp,384
e0003b0e:	791a                	.2byte	0x791a
e0003b10:	a750                	.2byte	0xa750
e0003b12:	581f 0000 5850      	.byte	0x1f, 0x58, 0x00, 0x00, 0x50, 0x58
e0003b18:	0110                	addi	a2,sp,128
e0003b1a:	7c7a                	.2byte	0x7c7a
e0003b1c:	0210                	addi	a2,sp,256
e0003b1e:	589a                	lw	a7,164(sp)
e0003b20:	0000                	unimp
e0003b22:	5850                	lw	a2,52(s0)
e0003b24:	6918                	.2byte	0x6918
e0003b26:	5ff4                	lw	a3,124(a5)
e0003b28:	52e0                	lw	s0,100(a3)
e0003b2a:	0828                	addi	a0,sp,24
e0003b2c:	0000                	unimp
e0003b2e:	58d0                	lw	a2,52(s1)
e0003b30:	6b30                	.2byte	0x6b30
e0003b32:	b750                	.2byte	0xb750
e0003b34:	6638                	.2byte	0x6638
e0003b36:	0d66                	slli	s10,s10,0x19
e0003b38:	0000                	unimp
e0003b3a:	3320                	.2byte	0x3320
e0003b3c:	6b30                	.2byte	0x6b30
e0003b3e:	bff0                	.2byte	0xbff0
e0003b40:	3134                	.2byte	0x3134
e0003b42:	0000036f          	jal	t1,e0003b42 <FLASH_ALSAQR_BOOT_SIGNED+0x35fa>
e0003b46:	0a00                	addi	s0,sp,272
e0003b48:	0668                	addi	a0,sp,780
e0003b4a:	8560                	.2byte	0x8560
e0003b4c:	af14                	.2byte	0xaf14
e0003b4e:	7b39                	lui	s6,0xfffee
e0003b50:	0000                	unimp
e0003b52:	0660                	addi	s0,sp,780
e0003b54:	6be0                	.2byte	0x6be0
e0003b56:	91b8                	.2byte	0x91b8
e0003b58:	3638                	.2byte	0x3638
e0003b5a:	0f66                	slli	t5,t5,0x19
e0003b5c:	0000                	unimp
e0003b5e:	6b20                	.2byte	0x6b20
e0003b60:	0c7f                	.2byte	0xc7f
e0003b62:	9ff0                	.2byte	0x9ff0
e0003b64:	ff5f d630 0000      	.byte	0x5f, 0xff, 0x30, 0xd6, 0x00, 0x00
e0003b6a:	3930                	.2byte	0x3930
e0003b6c:	ff74                	.2byte	0xff74
e0003b6e:	891f 0c50 5830      	.byte	0x1f, 0x89, 0x50, 0x0c, 0x30, 0x58
e0003b74:	0000                	unimp
e0003b76:	7330                	.2byte	0x7330
e0003b78:	7e38                	.2byte	0x7e38
e0003b7a:	fc79                	bnez	s0,e0003b58 <FLASH_ALSAQR_BOOT_SIGNED+0x3610>
e0003b7c:	ff60                	.2byte	0xff60
e0003b7e:	000063af          	.4byte	0x63af
e0003b82:	7130                	.2byte	0x7130
e0003b84:	5b78                	lw	a4,116(a4)
e0003b86:	68a0                	.2byte	0x68a0
e0003b88:	082953af          	.4byte	0x82953af
e0003b8c:	0000                	unimp
e0003b8e:	e750                	.2byte	0xe750
e0003b90:	2b31                	jal	e00040ac <FLASH_ALSAQR_BOOT_SIGNED+0x3b64>
e0003b92:	7c78                	.2byte	0x7c78
e0003b94:	5930                	lw	a2,112(a0)
e0003b96:	0158                	addi	a4,sp,132
e0003b98:	0000                	unimp
e0003b9a:	1010                	addi	a2,sp,32
e0003b9c:	5c10                	lw	a2,56(s0)
e0003b9e:	7ff6                	.2byte	0x7ff6
e0003ba0:	8370                	.2byte	0x8370
e0003ba2:	0ff0                	addi	a2,sp,988
e0003ba4:	0000                	unimp
e0003ba6:	2b30                	.2byte	0x2b30
e0003ba8:	ff00                	.2byte	0xff00
e0003baa:	5230                	lw	a2,96(a2)
e0003bac:	0058                	addi	a4,sp,4
e0003bae:	0000893f 0d507930 	.8byte	0xd5079300000893f
e0003bb6:	5e40                	lw	s0,60(a2)
e0003bb8:	63304d37          	lui	s10,0x63304
e0003bbc:	0000                	unimp
e0003bbe:	5630                	lw	a2,104(a2)
e0003bc0:	055c                	addi	a5,sp,644
e0003bc2:	f6e0                	.2byte	0xf6e0
e0003bc4:	fc62                	.2byte	0xfc62
e0003bc6:	0000733f 713c5830 	.8byte	0x713c58300000733f
e0003bce:	3c74                	.2byte	0x3c74
e0003bd0:	1875                	addi	a6,a6,-3 # 13ffd <_stack_len+0xbffd>
e0003bd2:	d950                	sw	a2,52(a0)
e0003bd4:	0000                	unimp
e0003bd6:	5930                	lw	a2,112(a0)
e0003bd8:	c630                	sw	a2,72(a2)
e0003bda:	1388                	addi	a0,sp,480
e0003bdc:	10775b3f ff700000 	.8byte	0xff70000010775b3f
e0003be4:	b630                	.2byte	0xb630
e0003be6:	d008                	sw	a0,32(s0)
e0003be8:	5b30                	lw	a2,112(a4)
e0003bea:	00000f77          	.4byte	0xf77
e0003bee:	3050                	.2byte	0x3050
e0003bf0:	6f10                	.2byte	0x6f10
e0003bf2:	96e1                	srai	a3,a3,0x38
e0003bf4:	5930                	lw	a2,112(a0)
e0003bf6:	0000ff77          	.4byte	0xff77
e0003bfa:	2f50                	.2byte	0x2f50
e0003bfc:	0829                	addi	a6,a6,10
e0003bfe:	cdc8                	sw	a0,28(a1)
e0003c00:	d159                	beqz	a0,e0003b86 <FLASH_ALSAQR_BOOT_SIGNED+0x363e>
e0003c02:	0000536f          	jal	t1,e0008c02 <_bss_end+0x39ca>
e0003c06:	8e30                	.2byte	0x8e30
e0003c08:	ff5c                	.2byte	0xff5c
e0003c0a:	9c7f                	.2byte	0x9c7f
e0003c0c:	0d50                	addi	a2,sp,660
e0003c0e:	5830                	lw	a2,112(s0)
e0003c10:	0000                	unimp
e0003c12:	5b30                	lw	a2,112(a4)
e0003c14:	e638                	.2byte	0xe638
e0003c16:	e4d8                	.2byte	0xe4d8
e0003c18:	ff68                	.2byte	0xff68
e0003c1a:	00006b2f          	.4byte	0x6b2f
e0003c1e:	6130                	.2byte	0x6130
e0003c20:	0824                	addi	s1,sp,24
e0003c22:	24d8                	.2byte	0x24d8
e0003c24:	6fd0                	.2byte	0x6fd0
e0003c26:	501f 0000 0750      	.byte	0x1f, 0x50, 0x00, 0x00, 0x50, 0x07
e0003c2c:	5138                	lw	a4,96(a0)
e0003c2e:	b4d0                	.2byte	0xb4d0
e0003c30:	ff60                	.2byte	0xff60
e0003c32:	0000082f          	.4byte	0x82f
e0003c36:	5130                	lw	a2,96(a0)
e0003c38:	fd60                	.2byte	0xfd60
e0003c3a:	082f423f 00005138 	.8byte	0x5138082f423f
e0003c42:	fe60                	.2byte	0xfe60
e0003c44:	0008                	.2byte	0x8
e0003c46:	8000                	.2byte	0x8000
e0003c48:	5328                	lw	a0,96(a4)
e0003c4a:	0829                	addi	a6,a6,10
e0003c4c:	0000                	unimp
e0003c4e:	0820                	addi	s0,sp,24
e0003c50:	dc773747          	.4byte	0xdc773747
e0003c54:	365742f7          	.4byte	0x365742f7
e0003c58:	0000                	unimp
e0003c5a:	7730                	.2byte	0x7730
e0003c5c:	6912f727          	.4byte	0x6912f727
e0003c60:	36c6                	.2byte	0x36c6
e0003c62:	00001617          	auipc	a2,0x1
e0003c66:	12f0                	addi	a2,sp,364
e0003c68:	c615                	beqz	a2,e0003c94 <FLASH_ALSAQR_BOOT_SIGNED+0x374c>
e0003c6a:	2dc6                	.2byte	0x2dc6
e0003c6c:	3616                	.2byte	0x3616
e0003c6e:	0000f687          	.4byte	0xf687
e0003c72:	c660                	sw	s0,76(a2)
e0003c74:	f6f6                	.2byte	0xf6f6
e0003c76:	3386                	.2byte	0x3386
e0003c78:	2716                	.2byte	0x2716
e0003c7a:	000025f7          	.4byte	0x25f7
e0003c7e:	1730                	addi	a2,sp,936
e0003c80:	8c75f687          	.4byte	0x8c75f687
e0003c84:	c662                	sw	s8,12(sp)
e0003c86:	3616                	.2byte	0x3616
e0003c88:	0000                	unimp
e0003c8a:	f740                	.2byte	0xf740
e0003c8c:	5ff625f7          	.4byte	0x5ff625f7
e0003c90:	1736                	slli	a4,a4,0x2d
e0003c92:	2716                	.2byte	0x2716
e0003c94:	0000                	unimp
e0003c96:	c610                	sw	a2,8(a2)
e0003c98:	0000                	unimp
e0003c9a:	aff0                	.2byte	0xaff0
e0003c9c:	e746                	.2byte	0xe746
e0003c9e:	0632                	slli	a2,a2,0xc
e0003ca0:	0000                	unimp
e0003ca2:	f6f0                	.2byte	0xf6f0
e0003ca4:	0002                	c.slli64	zero
e0003ca6:	0000adcf          	.4byte	0xadcf
e0003caa:	4b00                	lw	s0,16(a4)
e0003cac:	0000                	unimp
e0003cae:	0000                	unimp
e0003cb0:	29163697          	auipc	a3,0x29163
e0003cb4:	665642f7          	.4byte	0x665642f7
e0003cb8:	0000                	unimp
e0003cba:	7730                	.2byte	0x7730
e0003cbc:	5742                	lw	a4,48(sp)
e0003cbe:	84d6                	mv	s1,s5
e0003cc0:	96c2                	add	a3,a3,a6
e0003cc2:	f626                	.2byte	0xf626
e0003cc4:	0000                	unimp
e0003cc6:	f650                	.2byte	0xf650
e0003cc8:	5742                	lw	a4,48(sp)
e0003cca:	7236                	.2byte	0x7236
e0003ccc:	f676e697          	auipc	a3,0xf676e
e0003cd0:	0000                	unimp
e0003cd2:	4730                	lw	a2,72(a4)
e0003cd4:	56d6                	lw	a3,116(sp)
e0003cd6:	c8a6                	sw	s1,80(sp)
e0003cd8:	172665f7          	.4byte	0x172665f7
e0003cdc:	0000                	unimp
e0003cde:	4730                	lw	a2,72(a4)
e0003ce0:	4746                	lw	a4,80(sp)
e0003ce2:	b7264917          	auipc	s2,0xb7264
e0003ce6:	f2f6                	.2byte	0xf2f6
e0003ce8:	0000                	unimp
e0003cea:	f770                	.2byte	0xf770
e0003cec:	32e6                	.2byte	0x32e6
e0003cee:	1b26                	slli	s6,s6,0x29
e0003cf0:	16d5                	addi	a3,a3,-11 # d6771cc1 <tohost+0xd6751cb9>
e0003cf2:	e696                	.2byte	0xe696
e0003cf4:	0000                	unimp
e0003cf6:	f660                	.2byte	0xf660
e0003cf8:	5632                	lw	a2,44(sp)
e0003cfa:	45441dc7          	.4byte	0x45441dc7
e0003cfe:	0465                	addi	s0,s0,25
e0003d00:	0000                	unimp
e0003d02:	f000                	.2byte	0xf000
e0003d04:	0796                	slli	a5,a5,0x5
e0003d06:	3912                	.2byte	0x3912
e0003d08:	c746e657          	.4byte	0xc746e657
e0003d0c:	0000                	unimp
e0003d0e:	2720                	.2byte	0x2720
e0003d10:	31b70757          	.4byte	0x31b70757
e0003d14:	96c6                	add	a3,a3,a7
e0003d16:	00003207          	.4byte	0x3207
e0003d1a:	e6f0                	.2byte	0xe6f0
e0003d1c:	3752                	.2byte	0x3752
e0003d1e:	4726cc77          	.4byte	0x4726cc77
e0003d22:	00000737          	lui	a4,0x0
e0003d26:	f700                	.2byte	0xf700
e0003d28:	3616                	.2byte	0x3616
e0003d2a:	e756                	.2byte	0xe756
e0003d2c:	66f2                	.2byte	0x66f2
e0003d2e:	d206                	sw	ra,36(sp)
e0003d30:	0000                	unimp
e0003d32:	0650                	addi	a2,sp,772
e0003d34:	46f6                	lw	a3,92(sp)
e0003d36:	91b6                	add	gp,gp,a3
e0003d38:	56e6                	lw	a3,120(sp)
e0003d3a:	d2d6                	sw	s5,100(sp)
e0003d3c:	0000                	unimp
e0003d3e:	9680                	.2byte	0x9680
e0003d40:	06c6                	slli	a3,a3,0x11
e0003d42:	b4d2                	.2byte	0xb4d2
e0003d44:	3652                	.2byte	0x3652
e0003d46:	c616                	sw	t0,12(sp)
e0003d48:	0000                	unimp
e0003d4a:	0650                	addi	a2,sp,772
e0003d4c:	6a965657          	.4byte	0x6a965657
e0003d50:	0726                	slli	a4,a4,0x9
e0003d52:	2462                	.2byte	0x2462
e0003d54:	0000                	unimp
e0003d56:	f660                	.2byte	0xf660
e0003d58:	e6f6                	.2byte	0xe6f6
e0003d5a:	ea96                	.2byte	0xea96
e0003d5c:	34f5                	jal	e0003848 <FLASH_ALSAQR_BOOT_SIGNED+0x3300>
e0003d5e:	3205                	jal	e000367e <FLASH_ALSAQR_BOOT_SIGNED+0x3136>
e0003d60:	0000                	unimp
e0003d62:	4520                	lw	s0,72(a0)
e0003d64:	b6e69777          	.4byte	0xb6e69777
e0003d68:	4786                	lw	a5,64(sp)
e0003d6a:	00003207          	.4byte	0x3207
e0003d6e:	5740                	lw	s0,44(a4)
e0003d70:	02e6                	slli	t0,t0,0x19
e0003d72:	e1b0                	.2byte	0xe1b0
e0003d74:	9686                	add	a3,a3,ra
e0003d76:	76e6                	.2byte	0x76e6
e0003d78:	0000                	unimp
e0003d7a:	3740                	.2byte	0x3740
e0003d7c:	0676                	slli	a2,a2,0x1d
e0003d7e:	d002                	sw	zero,32(sp)
e0003d80:	e696e6e7          	.4byte	0xe696e6e7
e0003d84:	0000                	unimp
e0003d86:	5520                	lw	s0,104(a0)
e0003d88:	62d4                	.2byte	0x62d4
e0003d8a:	4916                	lw	s2,68(sp)
e0003d8c:	64944007          	.4byte	0x64944007
e0003d90:	0000                	unimp
e0003d92:	3250                	.2byte	0x3250
e0003d94:	6696                	.2byte	0x6696
e0003d96:	3756                	.2byte	0x3756
e0003d98:	a6c6                	.2byte	0xa6c6
e0003d9a:	00004203          	lbu	tp,0(zero) # 0 <_min_stack-0x2000>
e0003d9e:	9610                	.2byte	0x9610
e0003da0:	5726                	lw	a4,104(sp)
e0003da2:	ac76                	.2byte	0xac76
e0003da4:	f635f767          	.4byte	0xf635f767
e0003da8:	0000                	unimp
e0003daa:	25f0                	.2byte	0x25f0
e0003dac:	e695                	bnez	a3,e0003dd8 <FLASH_ALSAQR_BOOT_SIGNED+0x3890>
e0003dae:	e756                	.2byte	0xe756
e0003db0:	5626                	lw	a2,104(sp)
e0003db2:	f786                	.2byte	0xf786
e0003db4:	0000                	unimp
e0003db6:	95f0                	.2byte	0x95f0
e0003db8:	f696                	.2byte	0xf696
e0003dba:	0916                	slli	s2,s2,0x5
e0003dbc:	d6d20287          	.4byte	0xd6d20287
e0003dc0:	0000                	unimp
e0003dc2:	4690                	lw	a2,8(a3)
e0003dc4:	f6e6                	.2byte	0xf6e6
e0003dc6:	6005                	c.lui	zero,0x1
e0003dc8:	f6967657          	.4byte	0xf6967657
e0003dcc:	0000                	unimp
e0003dce:	25f0                	.2byte	0x25f0
e0003dd0:	4646                	lw	a2,80(sp)
e0003dd2:	5ff6                	lw	t6,124(sp)
e0003dd4:	15f6d6f7          	.4byte	0x15f6d6f7
e0003dd8:	0000                	unimp
e0003dda:	2660                	.2byte	0x2660
e0003ddc:	1455                	addi	s0,s0,-11
e0003dde:	e004                	.2byte	0xe004
e0003de0:	f542                	.2byte	0xf542
e0003de2:	f504                	.2byte	0xf504
e0003de4:	0000                	unimp
e0003de6:	8720                	.2byte	0x8720
e0003de8:	25f5                	jal	e00044d4 <FLASH_ALSAQR_BOOT_SIGNED+0x3f8c>
e0003dea:	e005                	bnez	s0,e0003e0a <FLASH_ALSAQR_BOOT_SIGNED+0x38c2>
e0003dec:	2474                	.2byte	0x2474
e0003dee:	9455                	srai	s0,s0,0x35
e0003df0:	0000                	unimp
e0003df2:	c520                	sw	s0,72(a0)
e0003df4:	95f4                	.2byte	0x95f4
e0003df6:	9754                	.2byte	0x9754
e0003df8:	f435                	bnez	s0,e0003d64 <FLASH_ALSAQR_BOOT_SIGNED+0x381c>
e0003dfa:	5524                	lw	s1,104(a0)
e0003dfc:	0000                	unimp
e0003dfe:	f560                	.2byte	0xf560
e0003e00:	f474                	.2byte	0xf474
e0003e02:	e235                	bnez	a2,e0003e66 <FLASH_ALSAQR_BOOT_SIGNED+0x391e>
e0003e04:	f584                	.2byte	0xf584
e0003e06:	6435                	lui	s0,0xd
e0003e08:	0000                	unimp
e0003e0a:	5420                	lw	s0,104(s0)
e0003e0c:	4444                	lw	s1,12(s0)
e0003e0e:	98a4                	.2byte	0x98a4
e0003e10:	5534                	lw	a3,104(a0)
e0003e12:	15f4                	addi	a3,sp,748
e0003e14:	0000                	unimp
e0003e16:	1420                	addi	s0,sp,552
e0003e18:	5ff5f767          	.4byte	0x5ff5f767
e0003e1c:	02c2                	slli	t0,t0,0x10
e0003e1e:	2262                	.2byte	0x2262
e0003e20:	0000                	unimp
e0003e22:	9520                	.2byte	0x9520
e0003e24:	5626                	lw	a2,104(sp)
e0003e26:	3386                	.2byte	0x3386
e0003e28:	5726                	lw	a4,104(sp)
e0003e2a:	95f6                	add	a1,a1,t4
e0003e2c:	0000                	unimp
e0003e2e:	f630                	.2byte	0xf630
e0003e30:	53872757          	.4byte	0x53872757
e0003e34:	2202                	.2byte	0x2202
e0003e36:	00004657          	.4byte	0x4657
e0003e3a:	9780                	.2byte	0x9780
e0003e3c:	5740                	lw	s0,44(a4)
e0003e3e:	4566                	lw	a0,88(sp)
e0003e40:	06425207          	.4byte	0x6425207
e0003e44:	0000                	unimp
e0003e46:	36e0                	.2byte	0x36e0
e0003e48:	06e6                	slli	a3,a3,0x19
e0003e4a:	46e0                	lw	s0,76(a3)
e0003e4c:	9616d5f7          	.4byte	0x9616d5f7
e0003e50:	0000                	unimp
e0003e52:	4730                	lw	a2,72(a4)
e0003e54:	1662                	slli	a2,a2,0x38
e0003e56:	5b26                	lw	s6,104(sp)
e0003e58:	3454                	.2byte	0x3454
e0003e5a:	d4b4                	sw	a3,104(s1)
e0003e5c:	0000                	unimp
e0003e5e:	8430                	.2byte	0x8430
e0003e60:	36c6                	.2byte	0x36c6
e0003e62:	03a6eb27          	.4byte	0x3a6eb27
e0003e66:	1662                	slli	a2,a2,0x38
e0003e68:	0000                	unimp
e0003e6a:	c690                	sw	a2,8(a3)
e0003e6c:	1662                	slli	a2,a2,0x38
e0003e6e:	5916                	lw	s2,100(sp)
e0003e70:	9440                	.2byte	0x9440
e0003e72:	d464                	sw	s1,108(s0)
e0003e74:	0000                	unimp
e0003e76:	0650                	addi	a2,sp,772
e0003e78:	f666                	.2byte	0xf666
e0003e7a:	b6e5                	j	e0003a62 <FLASH_ALSAQR_BOOT_SIGNED+0x351a>
e0003e7c:	03a6                	slli	t2,t2,0x9
e0003e7e:	9642                	add	a2,a2,a6
e0003e80:	0000                	unimp
e0003e82:	c690                	sw	a2,8(a3)
e0003e84:	96e6                	add	a3,a3,s9
e0003e86:	14d6                	slli	s1,s1,0x35
e0003e88:	4726                	lw	a4,72(sp)
e0003e8a:	000095f7          	.4byte	0x95f7
e0003e8e:	1750                	addi	a2,sp,932
e0003e90:	f6f6                	.2byte	0xf6f6
e0003e92:	8b25                	andi	a4,a4,9
e0003e94:	d202                	sw	zero,36(sp)
e0003e96:	96d6                	add	a3,a3,s5
e0003e98:	0000                	unimp
e0003e9a:	8740                	.2byte	0x8740
e0003e9c:	65f6                	.2byte	0x65f6
e0003e9e:	d6e6                	sw	s9,108(sp)
e0003ea0:	9676                	add	a2,a2,t4
e0003ea2:	e6f6                	.2byte	0xe6f6
e0003ea4:	0000                	unimp
e0003ea6:	5720                	lw	s0,104(a4)
e0003ea8:	2646                	.2byte	0x2646
e0003eaa:	f6d661b7          	lui	gp,0xf6d66
e0003eae:	4615                	li	a2,5
e0003eb0:	0000                	unimp
e0003eb2:	f720                	.2byte	0xf720
e0003eb4:	2414                	.2byte	0x2414
e0003eb6:	f565                	bnez	a0,e0003e9e <FLASH_ALSAQR_BOOT_SIGNED+0x3956>
e0003eb8:	04f5                	addi	s1,s1,29 # ffff401d <fromhost+0x1ffe400d>
e0003eba:	55f5                	li	a1,-3
e0003ebc:	0000                	unimp
e0003ebe:	4280                	lw	s0,0(a3)
e0003ec0:	1555                	addi	a0,a0,-11
e0003ec2:	7a94                	.2byte	0x7a94
e0003ec4:	5524                	lw	s1,104(a0)
e0003ec6:	f594                	.2byte	0xf594
e0003ec8:	0000                	unimp
e0003eca:	74c0                	.2byte	0x74c0
e0003ecc:	5534                	lw	a3,104(a0)
e0003ece:	2564                	.2byte	0x2564
e0003ed0:	f305                	bnez	a4,e0003df0 <FLASH_ALSAQR_BOOT_SIGNED+0x38a8>
e0003ed2:	1425                	addi	s0,s0,-23 # cfe9 <_stack_len+0x4fe9>
e0003ed4:	0000                	unimp
e0003ed6:	4520                	lw	s0,72(a0)
e0003ed8:	02c2                	slli	t0,t0,0x10
e0003eda:	2912                	.2byte	0x2912
e0003edc:	4444                	lw	s1,12(s0)
e0003ede:	9524                	.2byte	0x9524
e0003ee0:	0000                	unimp
e0003ee2:	15f0                	addi	a2,sp,748
e0003ee4:	8b220293          	addi	t0,tp,-1870 # d8b2 <_stack_len+0x58b2>
e0003ee8:	07472617          	auipc	a2,0x7472
e0003eec:	0000                	unimp
e0003eee:	5260                	lw	s0,100(a2)
e0003ef0:	0736                	slli	a4,a4,0xd
e0003ef2:	5002                	.2byte	0x5002
e0003ef4:	5746                	lw	a4,112(sp)
e0003ef6:	0000e727          	.4byte	0xe727
e0003efa:	5720                	lw	s0,104(a4)
e0003efc:	62d4                	.2byte	0x62d4
e0003efe:	9ff6                	add	t6,t6,t4
e0003f00:	4006                	.2byte	0x4006
e0003f02:	6494                	.2byte	0x6494
e0003f04:	0000                	unimp
e0003f06:	4250                	lw	a2,4(a2)
e0003f08:	6696                	.2byte	0x6696
e0003f0a:	3756                	.2byte	0x3756
e0003f0c:	a6c6                	.2byte	0xa6c6
e0003f0e:	00004203          	lbu	tp,0(zero) # 0 <_min_stack-0x2000>
e0003f12:	9610                	.2byte	0x9610
e0003f14:	f635                	bnez	a2,e0003e80 <FLASH_ALSAQR_BOOT_SIGNED+0x3938>
e0003f16:	d756                	sw	s5,172(sp)
e0003f18:	f7472617          	auipc	a2,0xf7472
e0003f1c:	0000                	unimp
e0003f1e:	55f0                	lw	a2,108(a1)
e0003f20:	07528657          	.4byte	0x7528657
e0003f24:	7696                	.2byte	0x7696
e0003f26:	2756                	.2byte	0x2756
e0003f28:	0000                	unimp
e0003f2a:	66e0                	.2byte	0x66e0
e0003f2c:	cdc202c3          	.4byte	0xcdc202c3
e0003f30:	07472617          	auipc	a2,0x7472
e0003f34:	0000                	unimp
e0003f36:	5260                	lw	s0,100(a2)
e0003f38:	ee472617          	auipc	a2,0xee472
e0003f3c:	6696                	.2byte	0x6696
e0003f3e:	55f6                	lw	a1,124(sp)
e0003f40:	0000                	unimp
e0003f42:	4280                	lw	s0,0(a3)
e0003f44:	7696                	.2byte	0x7696
e0003f46:	0a96                	slli	s5,s5,0x5
e0003f48:	f635                	bnez	a2,e0003eb4 <FLASH_ALSAQR_BOOT_SIGNED+0x396c>
e0003f4a:	66e6                	.2byte	0x66e6
e0003f4c:	0000                	unimp
e0003f4e:	f740                	.2byte	0xf740
e0003f50:	1622                	slli	a2,a2,0x28
e0003f52:	6e46                	.2byte	0x6e46
e0003f54:	e207b297          	auipc	t0,0xe207b
e0003f58:	0000                	unimp
e0003f5a:	45f0                	lw	a2,76(a1)
e0003f5c:	d206                	sw	ra,36(sp)
e0003f5e:	17268ff3          	.4byte	0x17268ff3
e0003f62:	5746                	lw	a4,112(sp)
e0003f64:	0000                	unimp
e0003f66:	4750                	lw	a2,12(a4)
e0003f68:	30061427          	.4byte	0x30061427
e0003f6c:	1556                	slli	a0,a0,0x35
e0003f6e:	4726                	lw	a4,72(sp)
e0003f70:	0000                	unimp
e0003f72:	b200                	.2byte	0xb200
e0003f74:	02c6                	slli	t0,t0,0x11
e0003f76:	7562                	.2byte	0x7562
e0003f78:	1726                	slli	a4,a4,0x29
e0003f7a:	5746                	lw	a4,112(sp)
e0003f7c:	0000                	unimp
e0003f7e:	4750                	lw	a2,12(a4)
e0003f80:	5726                	lw	a4,104(sp)
e0003f82:	9386                	add	t2,t2,ra
e0003f84:	b6c6                	.2byte	0xb6c6
e0003f86:	65f6                	.2byte	0x65f6
e0003f88:	0000                	unimp
e0003f8a:	32e0                	.2byte	0x32e0
e0003f8c:	5e46b203          	.4byte	0x5e46b203
e0003f90:	a685                	j	e00042f0 <FLASH_ALSAQR_BOOT_SIGNED+0x3da8>
e0003f92:	0000d207          	.4byte	0xd207
e0003f96:	f710                	.2byte	0xf710
e0003f98:	5724                	lw	s1,104(a4)
e0003f9a:	7ff6                	.2byte	0x7ff6
e0003f9c:	36f6                	.2byte	0x36f6
e0003f9e:	66b6                	.2byte	0x66b6
e0003fa0:	0000                	unimp
e0003fa2:	c430                	sw	a2,72(s0)
e0003fa4:	0b265687          	.4byte	0xb265687
e0003fa8:	2655                	jal	e000434c <FLASH_ALSAQR_BOOT_SIGNED+0x3e04>
e0003faa:	00000697          	auipc	a3,0x0
e0003fae:	0710                	addi	a2,sp,896
e0003fb0:	e202                	.2byte	0xe202
e0003fb2:	a002                	.2byte	0xa002
e0003fb4:	86c6                	mv	a3,a7
e0003fb6:	c7a4                	sw	s1,72(a5)
e0003fb8:	0000                	unimp
e0003fba:	1720                	addi	s0,sp,936
e0003fbc:	24d655f7          	.4byte	0x24d655f7
e0003fc0:	9726                	add	a4,a4,s1
e0003fc2:	9746                	add	a4,a4,a7
e0003fc4:	0000                	unimp
e0003fc6:	1700                	addi	s0,sp,928
e0003fc8:	03d2                	slli	t2,t2,0x14
e0003fca:	5002                	.2byte	0x5002
e0003fcc:	c626                	sw	s1,12(sp)
e0003fce:	0656                	slli	a2,a2,0x15
e0003fd0:	0000                	unimp
e0003fd2:	16e0                	addi	s0,sp,876
e0003fd4:	7676                	.2byte	0x7676
e0003fd6:	9566                	add	a0,a0,s9
e0003fd8:	6694                	.2byte	0x6694
e0003fda:	f546                	.2byte	0xf546
e0003fdc:	0000                	unimp
e0003fde:	46b0                	lw	a2,72(a3)
e0003fe0:	c626                	sw	s1,12(sp)
e0003fe2:	0dc6                	slli	s11,s11,0x11
e0003fe4:	9446                	add	s0,s0,a7
e0003fe6:	1736                	slli	a4,a4,0x2d
e0003fe8:	0000                	unimp
e0003fea:	56c0                	lw	s0,44(a3)
e0003fec:	fc772617          	auipc	a2,0xfc772
e0003ff0:	02c6                	slli	t0,t0,0x11
e0003ff2:	02e2                	slli	t0,t0,0x18
e0003ff4:	0000                	unimp
e0003ff6:	4650                	lw	a2,12(a2)
e0003ff8:	46b2                	lw	a3,12(sp)
e0003ffa:	c6e4                	sw	s1,76(a3)
e0003ffc:	03d20797          	auipc	a5,0x3d20
e0004000:	0000                	unimp
e0004002:	4690                	lw	a2,8(a3)
e0004004:	aff61507          	.4byte	0xaff61507
e0004008:	1556                	slli	a0,a0,0x35
e000400a:	4726                	lw	a4,72(sp)
e000400c:	0000                	unimp
e000400e:	6690                	.2byte	0x6690
e0004010:	1916e657          	.4byte	0x1916e657
e0004014:	9746                	add	a4,a4,a7
e0004016:	00006457          	.4byte	0x6457
e000401a:	9720                	.2byte	0x9720
e000401c:	e6e74657          	.4byte	0xe6e74657
e0004020:	97d2                	add	a5,a5,s4
e0004022:	2202                	.2byte	0x2202
e0004024:	0000                	unimp
e0004026:	02c0                	addi	s0,sp,324
e0004028:	0642                	slli	a2,a2,0x10
e000402a:	18a0                	addi	s0,sp,120
e000402c:	520736e7          	.4byte	0x520736e7
e0004030:	0000                	unimp
e0004032:	2750                	.2byte	0x2750
e0004034:	4656                	lw	a2,84(sp)
e0004036:	ac76                	.2byte	0xac76
e0004038:	96e6                	add	a3,a3,s9
e000403a:	8736                	mv	a4,a3
e000403c:	0000                	unimp
e000403e:	9460                	.2byte	0x9460
e0004040:	0000                	unimp
e0004042:	aff0                	.2byte	0xaff0
e0004044:	0732                	slli	a4,a4,0xc
e0004046:	0020                	addi	s0,sp,8
e0004048:	0000                	unimp
e000404a:	5200                	lw	s0,32(a2)
e000404c:	0000                	unimp
e000404e:	f6e0                	.2byte	0xf6e0
e0004050:	0002                	c.slli64	zero
e0004052:	000003bf 00024f00 	.8byte	0x24f00000003bf
e000405a:	691f 0000 5210      	.byte	0x1f, 0x69, 0x00, 0x00, 0x10, 0x52
e0004060:	0000                	unimp
e0004062:	0000                	unimp
e0004064:	0002                	c.slli64	zero
e0004066:	491f 0000 4f00      	.byte	0x1f, 0x49, 0x00, 0x00, 0x00, 0x4f
e000406c:	0000                	unimp
e000406e:	0000                	unimp
e0004070:	0000                	unimp
e0004072:	e1b0                	.2byte	0xe1b0
e0004074:	0000                	unimp
e0004076:	0010                	.2byte	0x10
e0004078:	0000                	unimp
e000407a:	07e0                	addi	s0,sp,972
e000407c:	0000                	unimp
e000407e:	fb20                	.2byte	0xfb20
e0004080:	0002                	c.slli64	zero
e0004082:	0000002f          	.4byte	0x2f
e0004086:	5780                	lw	s0,40(a5)
e0004088:	0000                	unimp
e000408a:	3230                	.2byte	0x3230
e000408c:	0002                	c.slli64	zero
e000408e:	0000086f          	jal	a6,e000408e <FLASH_ALSAQR_BOOT_SIGNED+0x3b46>
e0004092:	4f00                	lw	s0,24(a4)
e0004094:	0002                	c.slli64	zero
e0004096:	0000c38f          	.4byte	0xc38f
e000409a:	5830                	lw	a2,112(s0)
e000409c:	0000                	unimp
e000409e:	0010                	.2byte	0x10
e00040a0:	0002                	c.slli64	zero
e00040a2:	00004e4f          	.4byte	0x4e4f
e00040a6:	4f00                	lw	s0,24(a4)
e00040a8:	0000                	unimp
e00040aa:	0020                	addi	s0,sp,8
e00040ac:	0000                	unimp
e00040ae:	0560                	addi	s0,sp,652
e00040b0:	0000                	unimp
e00040b2:	0000                	unimp
e00040b4:	0000                	unimp
e00040b6:	0960                	addi	s0,sp,156
e00040b8:	0000                	unimp
e00040ba:	ba90                	.2byte	0xba90
e00040bc:	0002                	c.slli64	zero
e00040be:	0000002f          	.4byte	0x2f
e00040c2:	6080                	.2byte	0x6080
e00040c4:	0000                	unimp
e00040c6:	1750                	addi	a2,sp,932
e00040c8:	0002                	c.slli64	zero
e00040ca:	0000053f 00024f00 	.8byte	0x24f000000053f
e00040d2:	1fff                	.2byte	0x1fff
e00040d4:	0000                	unimp
e00040d6:	61a0                	.2byte	0x61a0
e00040d8:	0000                	unimp
e00040da:	0010                	.2byte	0x10
e00040dc:	0002                	c.slli64	zero
e00040de:	00004e4f          	.4byte	0x4e4f
e00040e2:	4f00                	lw	s0,24(a4)
e00040e4:	0000                	unimp
e00040e6:	0020                	addi	s0,sp,8
e00040e8:	0000                	unimp
e00040ea:	6c70                	.2byte	0x6c70
e00040ec:	0000                	unimp
e00040ee:	0010                	.2byte	0x10
e00040f0:	0000                	unimp
e00040f2:	05a0                	addi	s0,sp,712
e00040f4:	0000                	unimp
e00040f6:	1ff0                	addi	a2,sp,1020
e00040f8:	0002                	c.slli64	zero
e00040fa:	0000000f          	fence	unknown,unknown
e00040fe:	67b0                	.2byte	0x67b0
e0004100:	0000                	unimp
e0004102:	7e40                	.2byte	0x7e40
e0004104:	0002                	c.slli64	zero
e0004106:	0000064f          	.4byte	0x64f
e000410a:	4f00                	lw	s0,24(a4)
e000410c:	0002                	c.slli64	zero
e000410e:	000056ef          	jal	a3,e000910e <_bss_end+0x3ed6>
e0004112:	7480                	.2byte	0x7480
e0004114:	0000                	unimp
e0004116:	0010                	.2byte	0x10
e0004118:	29163697          	auipc	a3,0x29163
e000411c:	665642f7          	.4byte	0x665642f7
e0004120:	0000                	unimp
e0004122:	7730                	.2byte	0x7730
e0004124:	5742                	lw	a4,48(sp)
e0004126:	84d6                	mv	s1,s5
e0004128:	96c2                	add	a3,a3,a6
e000412a:	f626                	.2byte	0xf626
e000412c:	0000                	unimp
e000412e:	f650                	.2byte	0xf650
e0004130:	5742                	lw	a4,48(sp)
e0004132:	7236                	.2byte	0x7236
e0004134:	f676e697          	auipc	a3,0xf676e
e0004138:	0000                	unimp
e000413a:	4730                	lw	a2,72(a4)
e000413c:	56d6                	lw	a3,116(sp)
e000413e:	c8a6                	sw	s1,80(sp)
e0004140:	172665f7          	.4byte	0x172665f7
e0004144:	0000                	unimp
e0004146:	4730                	lw	a2,72(a4)
e0004148:	5726                	lw	a4,104(sp)
e000414a:	6566                	.2byte	0x6566
e000414c:	b726                	.2byte	0xb726
e000414e:	62f6                	.2byte	0x62f6
e0004150:	0000                	unimp
e0004152:	f770                	.2byte	0xf770
e0004154:	f685                	bnez	a3,e000407c <FLASH_ALSAQR_BOOT_SIGNED+0x3b34>
e0004156:	2916                	.2byte	0x2916
e0004158:	f736f747          	.4byte	0xf736f747
e000415c:	0000                	unimp
e000415e:	2650                	.2byte	0x2650
e0004160:	2460                	.2byte	0x2460
e0004162:	e7360237          	lui	tp,0xe7360
e0004166:	0632                	slli	a2,a2,0xc
e0004168:	0000                	unimp
e000416a:	b6f0                	.2byte	0xb6f0
e000416c:	d205                	beqz	a2,e000408c <FLASH_ALSAQR_BOOT_SIGNED+0x3b44>
e000416e:	c6e6                	sw	s9,76(sp)
e0004170:	4526                	lw	a0,72(sp)
e0004172:	34f5                	jal	e0003c5e <FLASH_ALSAQR_BOOT_SIGNED+0x3716>
e0004174:	0000                	unimp
e0004176:	5650                	lw	a2,44(a2)
e0004178:	1662                	slli	a2,a2,0x38
e000417a:	5386                	lw	t2,96(sp)
e000417c:	f6c6                	.2byte	0xf6c6
e000417e:	0636                	slli	a2,a2,0xd
e0004180:	0000                	unimp
e0004182:	c610                	sw	a2,8(a2)
e0004184:	e492                	.2byte	0xe492
e0004186:	7756                	.2byte	0x7756
e0004188:	4656                	lw	a2,84(sp)
e000418a:	02e6                	slli	t0,t0,0x19
e000418c:	0000                	unimp
e000418e:	c690                	sw	a2,8(a3)
e0004190:	8206                	mv	tp,ra
e0004192:	4dc6                	lw	s11,80(sp)
e0004194:	57361657          	.4byte	0x57361657
e0004198:	0000                	unimp
e000419a:	2630                	.2byte	0x2630
e000419c:	57a6                	lw	a5,104(sp)
e000419e:	0386                	slli	t2,t2,0x1
e00041a0:	0706                	slli	a4,a4,0x1
e00041a2:	9732                	add	a4,a4,a2
e00041a4:	0000                	unimp
e00041a6:	1650                	addi	a2,sp,804
e00041a8:	31b65657          	.4byte	0x31b65657
e00041ac:	06e6                	slli	a3,a3,0x19
e00041ae:	2462                	.2byte	0x2462
e00041b0:	0000                	unimp
e00041b2:	9200                	.2byte	0x9200
e00041b4:	66e6                	.2byte	0x66e6
e00041b6:	1006                	c.slli	zero,0x21
e00041b8:	34f5                	jal	e0003ca4 <FLASH_ALSAQR_BOOT_SIGNED+0x375c>
e00041ba:	f435                	bnez	s0,e0004126 <FLASH_ALSAQR_BOOT_SIGNED+0x3bde>
e00041bc:	0000                	unimp
e00041be:	4520                	lw	s0,72(a0)
e00041c0:	5724                	lw	s1,104(a4)
e00041c2:	a386                	.2byte	0xa386
e00041c4:	82e6                	mv	t0,s9
e00041c6:	6006                	.2byte	0x6006
e00041c8:	0000                	unimp
e00041ca:	7690                	.2byte	0x7690
e00041cc:	4732                	lw	a4,12(sp)
e00041ce:	f545f387          	.4byte	0xf545f387
e00041d2:	0534                	addi	a3,sp,648
e00041d4:	0000                	unimp
e00041d6:	2650                	.2byte	0x2650
e00041d8:	88a72657          	.4byte	0x88a72657
e00041dc:	06b6                	slli	a3,a3,0xd
e00041de:	66f2                	.2byte	0x66f2
e00041e0:	0000                	unimp
e00041e2:	3610                	.2byte	0x3610
e00041e4:	e492                	.2byte	0xe492
e00041e6:	96e6                	add	a3,a3,s9
e00041e8:	76f6                	.2byte	0x76f6
e00041ea:	000002e7          	jalr	t0,zero # 0 <_min_stack-0x2000>
e00041ee:	c660                	sw	s0,76(a2)
e00041f0:	3206                	.2byte	0x3206
e00041f2:	1657b757          	.4byte	0x1657b757
e00041f6:	5736                	lw	a4,108(sp)
e00041f8:	0000                	unimp
e00041fa:	2630                	.2byte	0x2630
e00041fc:	a387a697          	auipc	a3,0xa387a
e0004200:	b636                	.2byte	0xb636
e0004202:	3206                	.2byte	0x3206
e0004204:	0000                	unimp
e0004206:	1740                	addi	s0,sp,932
e0004208:	0ff73617          	auipc	a2,0xff73
e000420c:	66f2                	.2byte	0x66f2
e000420e:	4206                	lw	tp,64(sp)
e0004210:	0000                	unimp
e0004212:	0650                	addi	a2,sp,772
e0004214:	0000                	unimp
e0004216:	f1b0                	.2byte	0xf1b0
e0004218:	07325203          	lhu	tp,115(tp) # e7360073 <fromhost+0x7350063>
e000421c:	0000                	unimp
e000421e:	a6b0                	.2byte	0xa6b0
e0004220:	0002                	c.slli64	zero
e0004222:	375f 0000 7e00      	.byte	0x5f, 0x37, 0x00, 0x00, 0x00, 0x7e
e0004228:	0000                	unimp
e000422a:	0000                	unimp
e000422c:	0000                	unimp
e000422e:	8ff0                	.2byte	0x8ff0
e0004230:	0000                	unimp
e0004232:	0000                	unimp
e0004234:	0000                	unimp
e0004236:	0130                	addi	a2,sp,136
e0004238:	0000                	unimp
e000423a:	0dc0                	addi	s0,sp,724
e000423c:	0002                	c.slli64	zero
e000423e:	0000000f          	fence	unknown,unknown
e0004242:	8160                	.2byte	0x8160
e0004244:	0000                	unimp
e0004246:	1a90                	addi	a2,sp,368
e0004248:	0002                	c.slli64	zero
e000424a:	01df 0000 7e00      	.byte	0xdf, 0x01, 0x00, 0x00, 0x00, 0x7e
e0004250:	0002                	c.slli64	zero
e0004252:	000046ef          	jal	a3,e0008252 <_bss_end+0x301a>
e0004256:	8550                	.2byte	0x8550
e0004258:	0000                	unimp
e000425a:	0000                	unimp
e000425c:	0000                	unimp
e000425e:	54df 0000 d2cf      	.byte	0xdf, 0x54, 0x00, 0x00, 0xcf, 0xd2
e0004264:	0000                	unimp
e0004266:	d260                	sw	s0,100(a2)
e0004268:	0000                	unimp
e000426a:	0000900f          	.4byte	0x900f
e000426e:	0000d38f          	.4byte	0xd38f
e0004272:	d320                	sw	s0,96(a4)
e0004274:	0000                	unimp
e0004276:	0000d6ef          	jal	a3,e0011276 <fromhost+0x1266>
e000427a:	0000d20f          	.4byte	0xd20f
e000427e:	d4a0                	sw	s0,104(s1)
e0004280:	0000                	unimp
e0004282:	0000d6ef          	jal	a3,e0011282 <fromhost+0x1272>
e0004286:	0000d20f          	.4byte	0xd20f
e000428a:	d4a0                	sw	s0,104(s1)
e000428c:	0000                	unimp
e000428e:	0000123f 0000d4af 	.8byte	0xd4af0000123f
e0004296:	d3e0                	sw	s0,100(a5)
e0004298:	0000                	unimp
e000429a:	0000b56f          	jal	a0,e000f29a <_stack+0x529a>
e000429e:	0000d44f          	.4byte	0xd44f
e00042a2:	d4a0                	sw	s0,104(s1)
e00042a4:	29163697          	auipc	a3,0x29163
e00042a8:	665642f7          	.4byte	0x665642f7
e00042ac:	0000                	unimp
e00042ae:	7730                	.2byte	0x7730
e00042b0:	5742                	lw	a4,48(sp)
e00042b2:	84d6                	mv	s1,s5
e00042b4:	96c2                	add	a3,a3,a6
e00042b6:	f626                	.2byte	0xf626
e00042b8:	0000                	unimp
e00042ba:	f650                	.2byte	0xf650
e00042bc:	5742                	lw	a4,48(sp)
e00042be:	7236                	.2byte	0x7236
e00042c0:	f676e697          	auipc	a3,0xf676e
e00042c4:	0000                	unimp
e00042c6:	4730                	lw	a2,72(a4)
e00042c8:	56d6                	lw	a3,116(sp)
e00042ca:	c8a6                	sw	s1,80(sp)
e00042cc:	172665f7          	.4byte	0x172665f7
e00042d0:	0000                	unimp
e00042d2:	4730                	lw	a2,72(a4)
e00042d4:	4746                	lw	a4,80(sp)
e00042d6:	b7264917          	auipc	s2,0xb7264
e00042da:	f2f6                	.2byte	0xf2f6
e00042dc:	0000                	unimp
e00042de:	f770                	.2byte	0xf770
e00042e0:	2c7632e7          	.4byte	0x2c7632e7
e00042e4:	3695                	jal	e0003e48 <FLASH_ALSAQR_BOOT_SIGNED+0x3900>
e00042e6:	00003727          	.4byte	0x3727
e00042ea:	f660                	.2byte	0xf660
e00042ec:	03a5                	addi	t2,t2,9
e00042ee:	fff2                	.2byte	0xfff2
e00042f0:	5414                	lw	a3,40(s0)
e00042f2:	44c5                	li	s1,17
e00042f4:	0000                	unimp
e00042f6:	6000                	.2byte	0x6000
e00042f8:	5414                	lw	a3,40(s0)
e00042fa:	6565                	lui	a0,0x19
e00042fc:	34d202e7          	jalr	t0,845(tp) # 0 <_min_stack-0x2000>
e0004300:	0000                	unimp
e0004302:	3250                	.2byte	0x3250
e0004304:	a3820783          	lb	a5,-1480(tp) # fffffa38 <fromhost+0x1ffefa28>
e0004308:	53d4                	lw	a3,36(a5)
e000430a:	8302                	jr	t1
e000430c:	0000                	unimp
e000430e:	5530                	lw	a2,104(a0)
e0004310:	8302                	jr	t1
e0004312:	35043913          	sltiu	s2,s0,848
e0004316:	53d4                	lw	a3,36(a5)
e0004318:	0000                	unimp
e000431a:	54d0                	lw	a2,44(s1)
e000431c:	d4c4                	sw	s1,44(s1)
e000431e:	44d22dc3          	.4byte	0x44d22dc3
e0004322:	1565                	addi	a0,a0,-7 # 18ff9 <_stack_len+0x10ff9>
e0004324:	0000                	unimp
e0004326:	0780                	addi	s0,sp,960
e0004328:	66f5                	lui	a3,0x1d
e000432a:	cb26                	sw	s1,148(sp)
e000432c:	30078383          	lb	t2,768(a5) # e3d242fc <fromhost+0x3d142ec>
e0004330:	0000                	unimp
e0004332:	0250                	addi	a2,sp,260
e0004334:	2492                	.2byte	0x2492
e0004336:	7235                	lui	tp,0xfffed
e0004338:	06572617          	auipc	a2,0x6572
e000433c:	0000                	unimp
e000433e:	7740                	.2byte	0x7740
e0004340:	0726                	slli	a4,a4,0x9
e0004342:	5ff2                	lw	t6,60(sp)
e0004344:	9540                	.2byte	0x9540
e0004346:	56d6                	lw	a3,116(sp)
e0004348:	0000                	unimp
e000434a:	0510                	addi	a2,sp,640
e000434c:	d464                	sw	s1,108(s0)
e000434e:	fdc2                	.2byte	0xfdc2
e0004350:	0515                	addi	a0,a0,5
e0004352:	9440                	.2byte	0x9440
e0004354:	0000                	unimp
e0004356:	2490                	.2byte	0x2490
e0004358:	9642                	add	a2,a2,a6
e000435a:	be46                	.2byte	0xbe46
e000435c:	c696                	sw	t0,76(sp)
e000435e:	03a6                	slli	t2,t2,0x9
e0004360:	0000                	unimp
e0004362:	1660                	addi	s0,sp,812
e0004364:	48a696c7          	.4byte	0x48a696c7
e0004368:	6725                	lui	a4,0x9
e000436a:	000005f7          	.4byte	0x5f7
e000436e:	f660                	.2byte	0xf660
e0004370:	c635                	beqz	a2,e00043dc <FLASH_ALSAQR_BOOT_SIGNED+0x3e94>
e0004372:	fb26                	.2byte	0xfb26
e0004374:	2695                	jal	e00046d8 <FLASH_ALSAQR_BOOT_SIGNED+0x4190>
e0004376:	0000f717          	auipc	a4,0xf
e000437a:	f630                	.2byte	0xf630
e000437c:	4746                	lw	a4,80(sp)
e000437e:	86d6ba97          	auipc	s5,0x86d6b
e0004382:	f262                	.2byte	0xf262
e0004384:	0000                	unimp
e0004386:	9610                	.2byte	0x9610
e0004388:	02c6                	slli	t0,t0,0x11
e000438a:	a6e2                	.2byte	0xa6e2
e000438c:	c705                	beqz	a4,e00043b4 <FLASH_ALSAQR_BOOT_SIGNED+0x3e6c>
e000438e:	3696                	.2byte	0x3696
e0004390:	0000                	unimp
e0004392:	f660                	.2byte	0xf660
e0004394:	2615                	jal	e00046b8 <FLASH_ALSAQR_BOOT_SIGNED+0x4170>
e0004396:	96c57e47          	.4byte	0x96c57e47
e000439a:	4636                	lw	a2,76(sp)
e000439c:	0000                	unimp
e000439e:	06b0                	addi	a2,sp,840
e00043a0:	c702                	sw	zero,140(sp)
e00043a2:	cc76                	sw	t4,24(sp)
e00043a4:	c746                	sw	a7,140(sp)
e00043a6:	6202                	.2byte	0x6202
e00043a8:	0000                	unimp
e00043aa:	5670                	lw	a2,108(a2)
e00043ac:	500695f7          	.4byte	0x500695f7
e00043b0:	95f6                	add	a1,a1,t4
e00043b2:	1726                	slli	a4,a4,0x29
e00043b4:	0000                	unimp
e00043b6:	3690                	.2byte	0x3690
e00043b8:	90072757          	.4byte	0x90072757
e00043bc:	2202                	.2byte	0x2202
e00043be:	00004657          	.4byte	0x4657
e00043c2:	9640                	.2byte	0x9640
e00043c4:	9440                	.2byte	0x9440
e00043c6:	8754                	.2byte	0x8754
e00043c8:	06425207          	.4byte	0x6425207
e00043cc:	0000                	unimp
e00043ce:	36e0                	.2byte	0x36e0
e00043d0:	03a6                	slli	t2,t2,0x9
e00043d2:	9912                	add	s2,s2,tp
e00043d4:	1662                	slli	a2,a2,0x38
e00043d6:	c696                	sw	t0,76(sp)
e00043d8:	0000                	unimp
e00043da:	d460                	sw	s0,108(s0)
e00043dc:	6dc705f7          	.4byte	0x6dc705f7
e00043e0:	f666                	.2byte	0xf666
e00043e2:	6725                	lui	a4,0x9
e00043e4:	0000                	unimp
e00043e6:	9640                	.2byte	0x9640
e00043e8:	2c75f717          	auipc	a4,0x2c75f
e00043ec:	f636                	.2byte	0xf636
e00043ee:	2695                	jal	e0004752 <FLASH_ALSAQR_BOOT_SIGNED+0x420a>
e00043f0:	0000                	unimp
e00043f2:	96c0                	.2byte	0x96c0
e00043f4:	5746                	lw	a4,112(sp)
e00043f6:	cff6                	sw	t4,220(sp)
e00043f8:	06d6                	slli	a3,a3,0x15
e00043fa:	000056c7          	.4byte	0x56c7
e00043fe:	f630                	.2byte	0xf630
e0004400:	05f6                	slli	a1,a1,0x1d
e0004402:	46f2d757          	.4byte	0x46f2d757
e0004406:	00006747          	.4byte	0x6747
e000440a:	6280                	.2byte	0x6280
e000440c:	c506                	sw	ra,136(sp)
e000440e:	f6e6                	.2byte	0xf6e6
e0004410:	c636                	sw	a3,12(sp)
e0004412:	b202                	.2byte	0xb202
e0004414:	0000                	unimp
e0004416:	96c0                	.2byte	0x96c0
e0004418:	4656                	lw	a2,84(sp)
e000441a:	15466c77          	.4byte	0x15466c77
e000441e:	7726                	.2byte	0x7726
e0004420:	0000                	unimp
e0004422:	3690                	.2byte	0x3690
e0004424:	95f6                	add	a1,a1,t4
e0004426:	e006                	.2byte	0xe006
e0004428:	c702                	sw	zero,140(sp)
e000442a:	3696                	.2byte	0x3696
e000442c:	0000                	unimp
e000442e:	02c0                	addi	s0,sp,324
e0004430:	2202                	.2byte	0x2202
e0004432:	95f79757          	.4byte	0x95f79757
e0004436:	9646                	add	a2,a2,a7
e0004438:	0000                	unimp
e000443a:	1720                	addi	s0,sp,936
e000443c:	32325207          	.4byte	0x32325207
e0004440:	36e72757          	.4byte	0x36e72757
e0004444:	0000                	unimp
e0004446:	4650                	lw	a2,12(a2)
e0004448:	e726                	.2byte	0xe726
e000444a:	0386                	slli	t2,t2,0x1
e000444c:	8450                	.2byte	0x8450
e000444e:	00005747          	.4byte	0x5747
e0004452:	0640                	addi	s0,sp,772
e0004454:	9005                	srli	s0,s0,0x21
e0004456:	6e44                	.2byte	0x6e44
e0004458:	9206                	add	tp,tp,ra
e000445a:	1524                	addi	s1,sp,680
e000445c:	0000                	unimp
e000445e:	c610                	sw	a2,8(a2)
e0004460:	9746                	add	a4,a4,a7
e0004462:	24d6                	.2byte	0x24d6
e0004464:	37572747          	.4byte	0x37572747
e0004468:	0000                	unimp
e000446a:	36e0                	.2byte	0x36e0
e000446c:	ec76c617          	auipc	a2,0xec76c
e0004470:	d206                	sw	ra,36(sp)
e0004472:	3694                	.2byte	0x3694
e0004474:	0000                	unimp
e0004476:	e6f0                	.2byte	0xe6f0
e0004478:	e490                	.2byte	0xe490
e000447a:	f8a6                	.2byte	0xf8a6
e000447c:	56e6                	lw	a3,120(sp)
e000447e:	0646                	slli	a2,a2,0x11
e0004480:	0000                	unimp
e0004482:	7690                	.2byte	0x7690
e0004484:	b6e6f697          	auipc	a3,0xb6e6f
e0004488:	46375727          	.4byte	0x46375727
e000448c:	0000                	unimp
e000448e:	4730                	lw	a2,72(a4)
e0004490:	3736                	.2byte	0x3736
e0004492:	34124917          	auipc	s2,0x34124
e0004496:	5636                	lw	a2,108(sp)
e0004498:	0000                	unimp
e000449a:	06e0                	addi	s0,sp,844
e000449c:	c616                	sw	t0,12(sp)
e000449e:	5386                	lw	t2,96(sp)
e00044a0:	c6c4                	sw	s1,12(a3)
e00044a2:	7656                	.2byte	0x7656
e00044a4:	0000                	unimp
e00044a6:	9000                	.2byte	0x9000
e00044a8:	33863757          	.4byte	0x33863757
e00044ac:	36e4                	.2byte	0x36e4
e00044ae:	00002747          	.4byte	0x2747
e00044b2:	9200                	.2byte	0x9200
e00044b4:	5724                	lw	s1,104(a4)
e00044b6:	7566                	.2byte	0x7566
e00044b8:	e6f6                	.2byte	0xe6f6
e00044ba:	2006                	.2byte	0x2006
e00044bc:	0000                	unimp
e00044be:	9740                	.2byte	0x9740
e00044c0:	0746                	slli	a4,a4,0x11
e00044c2:	fe40                	.2byte	0xfe40
e00044c4:	f706                	.2byte	0xf706
e00044c6:	e696                	.2byte	0xe696
e00044c8:	0000                	unimp
e00044ca:	b610                	.2byte	0xb610
e00044cc:	4644                	lw	s1,12(a2)
e00044ce:	26e6                	.2byte	0x26e6
e00044d0:	4616                	lw	a2,68(sp)
e00044d2:	1206                	slli	tp,tp,0x21
e00044d4:	0000                	unimp
e00044d6:	f4c0                	.2byte	0xf4c0
e00044d8:	3694                	.2byte	0x3694
e00044da:	37367c77          	.4byte	0x37367c77
e00044de:	0000d207          	.4byte	0xd207
e00044e2:	5720                	lw	s0,104(a4)
e00044e4:	0646                	slli	a2,a2,0x11
e00044e6:	3ff0                	.2byte	0x3ff0
e00044e8:	7696                	.2byte	0x7696
e00044ea:	56e6                	lw	a3,120(sp)
e00044ec:	0000                	unimp
e00044ee:	c610                	sw	a2,8(a2)
e00044f0:	3634                	.2byte	0x3634
e00044f2:	ae46                	.2byte	0xae46
e00044f4:	4616                	lw	a2,68(sp)
e00044f6:	1206                	slli	tp,tp,0x21
e00044f8:	0000                	unimp
e00044fa:	f4c0                	.2byte	0xf4c0
e00044fc:	c756                	sw	s5,140(sp)
e00044fe:	d6e6                	sw	s9,108(sp)
e0004500:	14620737          	lui	a4,0x14620
e0004504:	0000                	unimp
e0004506:	3650                	.2byte	0x3650
e0004508:	4ff20657          	.4byte	0x4ff20657
e000450c:	4530                	lw	a2,72(a0)
e000450e:	000026f7          	.4byte	0x26f7
e0004512:	0740                	addi	s0,sp,900
e0004514:	70020737          	lui	a4,0x70020
e0004518:	2646                	.2byte	0x2646
e000451a:	00003657          	.4byte	0x3657
e000451e:	4410                	lw	a2,8(s0)
e0004520:	e676                	.2byte	0xe676
e0004522:	31b6                	.2byte	0x31b6
e0004524:	1736                	slli	a4,a4,0x2d
e0004526:	96c6                	add	a3,a3,a7
e0004528:	0000                	unimp
e000452a:	94d0                	.2byte	0x94d0
e000452c:	5726                	lw	a4,104(sp)
e000452e:	ea96                	.2byte	0xea96
e0004530:	3006                	.2byte	0x3006
e0004532:	f745                	bnez	a4,e00044da <FLASH_ALSAQR_BOOT_SIGNED+0x3f92>
e0004534:	0000                	unimp
e0004536:	4650                	lw	a2,12(a2)
e0004538:	8c720737          	lui	a4,0x8c720
e000453c:	3634                	.2byte	0x3634
e000453e:	3656                	.2byte	0x3656
e0004540:	0000                	unimp
e0004542:	1200                	addi	s0,sp,288
e0004544:	d550                	sw	a2,44(a0)
e0004546:	6232                	.2byte	0x6232
e0004548:	c756                	sw	s5,140(sp)
e000454a:	0746                	slli	a4,a4,0x11
e000454c:	0000                	unimp
e000454e:	1460                	addi	s0,sp,556
e0004550:	1634                	addi	a3,sp,808
e0004552:	44d6                	lw	s1,84(sp)
e0004554:	5646                	lw	a2,112(sp)
e0004556:	5206                	lw	tp,96(sp)
e0004558:	0000                	unimp
e000455a:	f6d0                	.2byte	0xf6d0
e000455c:	46f6                	lw	a3,92(sp)
e000455e:	bc76                	.2byte	0xbc76
e0004560:	3006                	.2byte	0x3006
e0004562:	d2d5                	beqz	a3,e0004506 <FLASH_ALSAQR_BOOT_SIGNED+0x3fbe>
e0004564:	0000                	unimp
e0004566:	c6c0                	sw	s0,12(a3)
e0004568:	06c6                	slli	a3,a3,0x11
e000456a:	a230                	.2byte	0xa230
e000456c:	3452                	.2byte	0x3452
e000456e:	c616                	sw	t0,12(sp)
e0004570:	0000                	unimp
e0004572:	0650                	addi	a2,sp,772
e0004574:	5ff64657          	.4byte	0x5ff64657
e0004578:	5736                	lw	a4,108(sp)
e000457a:	6726                	.2byte	0x6726
e000457c:	0000                	unimp
e000457e:	5520                	lw	s0,104(a0)
e0004580:	0656                	slli	a2,a2,0x15
e0004582:	e002                	.2byte	0xe002
e0004584:	d2d4                	sw	a3,36(a3)
e0004586:	46f6                	lw	a3,92(sp)
e0004588:	0000                	unimp
e000458a:	d000                	sw	s0,32(s0)
e000458c:	e490                	.2byte	0xe490
e000458e:	2386                	.2byte	0x2386
e0004590:	c616                	sw	t0,12(sp)
e0004592:	06c6                	slli	a3,a3,0x11
e0004594:	0000                	unimp
e0004596:	3450                	.2byte	0x3450
e0004598:	b6e6f697          	auipc	a3,0xb6e6f
e000459c:	46375727          	.4byte	0x46375727
e00045a0:	0000                	unimp
e00045a2:	4730                	lw	a2,72(a4)
e00045a4:	6206                	.2byte	0x6206
e00045a6:	86e4                	.2byte	0x86e4
e00045a8:	1502                	slli	a0,a0,0x20
e00045aa:	5676                	lw	a2,124(sp)
e00045ac:	0000                	unimp
e00045ae:	06e0                	addi	s0,sp,844
e00045b0:	16f4                	addi	a3,sp,876
e00045b2:	dc76                	sw	t4,56(sp)
e00045b4:	c00746c7          	.4byte	0xc00746c7
e00045b8:	0000                	unimp
e00045ba:	5610                	lw	a2,40(a2)
e00045bc:	6206                	.2byte	0x6206
e00045be:	4dc4                	lw	s1,28(a1)
e00045c0:	1502                	slli	a0,a0,0x20
e00045c2:	5676                	lw	a2,124(sp)
e00045c4:	0000                	unimp
e00045c6:	0640                	addi	s0,sp,772
e00045c8:	f745                	bnez	a4,e0004570 <FLASH_ALSAQR_BOOT_SIGNED+0x4028>
e00045ca:	f566                	.2byte	0xf566
e00045cc:	300746c7          	.4byte	0x300746c7
e00045d0:	0000                	unimp
e00045d2:	5610                	lw	a2,40(a2)
e00045d4:	0656                	slli	a2,a2,0x15
e00045d6:	5562                	lw	a0,56(sp)
e00045d8:	0206                	slli	tp,tp,0x1
e00045da:	7615                	lui	a2,0xfffe5
e00045dc:	0000                	unimp
e00045de:	5720                	lw	s0,104(a4)
e00045e0:	e490                	.2byte	0xe490
e00045e2:	6236                	.2byte	0x6236
e00045e4:	c756                	sw	s5,140(sp)
e00045e6:	0746                	slli	a4,a4,0x11
e00045e8:	0000                	unimp
e00045ea:	1460                	addi	s0,sp,556
e00045ec:	9206                	add	tp,tp,ra
e00045ee:	76e4                	.2byte	0x76e4
e00045f0:	e726                	.2byte	0xe726
e00045f2:	c616                	sw	t0,12(sp)
e00045f4:	0000                	unimp
e00045f6:	5740                	lw	s0,44(a4)
e00045f8:	0000                	unimp
e00045fa:	ee40                	.2byte	0xee40
e00045fc:	0005                	c.nop	1
e00045fe:	0020                	addi	s0,sp,8
e0004600:	0000                	unimp
e0004602:	1520                	addi	s0,sp,680
e0004604:	0000                	unimp
e0004606:	4380                	lw	s0,0(a5)
e0004608:	0002                	c.slli64	zero
e000460a:	000003cf          	.4byte	0x3cf
e000460e:	8e80                	.2byte	0x8e80
e0004610:	0002                	c.slli64	zero
e0004612:	8a9f 0000 9190      	.byte	0x9f, 0x8a, 0x00, 0x00, 0x90, 0x91
e0004618:	0000                	unimp
e000461a:	0040                	addi	s0,sp,4
e000461c:	0002                	c.slli64	zero
e000461e:	0000856f          	jal	a0,e000c61e <_stack+0x261e>
e0004622:	8e80                	.2byte	0x8e80
e0004624:	0000                	unimp
e0004626:	0020                	addi	s0,sp,8
e0004628:	0000                	unimp
e000462a:	a750                	.2byte	0xa750
e000462c:	0000                	unimp
e000462e:	0010                	.2byte	0x10
e0004630:	0000                	unimp
e0004632:	09f0                	addi	a2,sp,220
e0004634:	0000                	unimp
e0004636:	a000                	.2byte	0xa000
e0004638:	0002                	c.slli64	zero
e000463a:	0000002f          	.4byte	0x2f
e000463e:	95c0                	.2byte	0x95c0
e0004640:	0000                	unimp
e0004642:	ee40                	.2byte	0xee40
e0004644:	0002                	c.slli64	zero
e0004646:	00000a8f          	.4byte	0xa8f
e000464a:	8e80                	.2byte	0x8e80
e000464c:	0002                	c.slli64	zero
e000464e:	0000023f 00009ae0 	.8byte	0x9ae00000023f
e0004656:	0010                	.2byte	0x10
e0004658:	0002                	c.slli64	zero
e000465a:	0002de4f          	.4byte	0x2de4f
e000465e:	0000a26f          	jal	tp,e000e65e <_stack+0x465e>
e0004662:	a0f0                	.2byte	0xa0f0
e0004664:	0002                	c.slli64	zero
e0004666:	0002300f          	.4byte	0x2300f
e000466a:	a4df 0000 a390      	.byte	0xdf, 0xa4, 0x00, 0x00, 0x90, 0xa3
e0004670:	0002                	c.slli64	zero
e0004672:	d91f 0002 a70f      	.byte	0x1f, 0xd9, 0x02, 0x00, 0x0f, 0xa7
e0004678:	0000                	unimp
e000467a:	a580                	.2byte	0xa580
e000467c:	0002                	c.slli64	zero
e000467e:	5c7f                	.2byte	0x5c7f
e0004680:	0002                	c.slli64	zero
e0004682:	0000a9bf 0002a820 	.8byte	0x2a8200000a9bf
e000468a:	0002b00f          	.4byte	0x2b00f
e000468e:	0000abbf 0002aae0 	.8byte	0x2aae00000abbf
e0004696:	f91f 0002 ad1f      	.byte	0x1f, 0xf9, 0x02, 0x00, 0x1f, 0xad
e000469c:	0000                	unimp
e000469e:	ac80                	.2byte	0xac80
e00046a0:	0002                	c.slli64	zero
e00046a2:	000276ef          	jal	a3,e002b6a2 <fromhost+0x1b692>
e00046a6:	af5f 0000 ade0      	.byte	0x5f, 0xaf, 0x00, 0x00, 0xe0, 0xad
e00046ac:	0002                	c.slli64	zero
e00046ae:	9fff                	.2byte	0x9fff
e00046b0:	0002                	c.slli64	zero
e00046b2:	b05f 0000 ac80      	.byte	0x5f, 0xb0, 0x00, 0x00, 0x80, 0xac
e00046b8:	0002                	c.slli64	zero
e00046ba:	dc7f                	.2byte	0xdc7f
e00046bc:	0002                	c.slli64	zero
e00046be:	0000ac8f          	.4byte	0xac8f
e00046c2:	ac80                	.2byte	0xac80
e00046c4:	0002                	c.slli64	zero
e00046c6:	dc7f                	.2byte	0xdc7f
e00046c8:	0002                	c.slli64	zero
e00046ca:	0000ac8f          	.4byte	0xac8f
e00046ce:	ac80                	.2byte	0xac80
e00046d0:	0002                	c.slli64	zero
e00046d2:	dc7f                	.2byte	0xdc7f
e00046d4:	0002                	c.slli64	zero
e00046d6:	0000ac8f          	.4byte	0xac8f
e00046da:	ac80                	.2byte	0xac80
e00046dc:	0002                	c.slli64	zero
e00046de:	dc7f                	.2byte	0xdc7f
e00046e0:	0002                	c.slli64	zero
e00046e2:	0000ac8f          	.4byte	0xac8f
e00046e6:	ac80                	.2byte	0xac80
e00046e8:	0002                	c.slli64	zero
e00046ea:	dc7f                	.2byte	0xdc7f
e00046ec:	0002                	c.slli64	zero
e00046ee:	0000ac8f          	.4byte	0xac8f
e00046f2:	ac80                	.2byte	0xac80
e00046f4:	0002                	c.slli64	zero
e00046f6:	dc7f                	.2byte	0xdc7f
e00046f8:	0002                	c.slli64	zero
e00046fa:	0000ac8f          	.4byte	0xac8f
e00046fe:	ac80                	.2byte	0xac80
e0004700:	0002                	c.slli64	zero
e0004702:	dc7f                	.2byte	0xdc7f
e0004704:	0002                	c.slli64	zero
e0004706:	0000ac8f          	.4byte	0xac8f
e000470a:	ac80                	.2byte	0xac80
e000470c:	0002                	c.slli64	zero
e000470e:	dc7f                	.2byte	0xdc7f
e0004710:	0002                	c.slli64	zero
e0004712:	0000ac8f          	.4byte	0xac8f
e0004716:	ac80                	.2byte	0xac80
e0004718:	54c4                	lw	s1,44(s1)
e000471a:	ec74                	.2byte	0xec74
e000471c:	0000                	unimp
e000471e:	4490                	lw	a2,8(s1)
e0004720:	0000                	unimp
e0004722:	0040                	addi	s0,sp,4
e0004724:	9766                	add	a4,a4,s9
e0004726:	8c76                	mv	s8,t4
e0004728:	5642f777          	.4byte	0x5642f777
e000472c:	0000                	unimp
e000472e:	3000                	.2byte	0x3000
e0004730:	42f6                	lw	t0,92(sp)
e0004732:	c2f69237          	lui	tp,0xc2f69
e0004736:	2696                	.2byte	0x2696
e0004738:	0000                	unimp
e000473a:	5630                	lw	a2,104(a2)
e000473c:	22f6                	.2byte	0x22f6
e000473e:	97479a97          	auipc	s5,0x97479
e0004742:	76e6                	.2byte	0x76e6
e0004744:	0000                	unimp
e0004746:	3650                	.2byte	0x3650
e0004748:	4736                	lw	a4,76(sp)
e000474a:	f6466b27          	.4byte	0xf6466b27
e000474e:	5745                	li	a4,-15
e0004750:	0000                	unimp
e0004752:	e610                	.2byte	0xe610
e0004754:	0632                	slli	a2,a2,0xc
e0004756:	7910                	.2byte	0x7910
e0004758:	e736c697          	auipc	a3,0xe736c
e000475c:	0000                	unimp
e000475e:	4750                	lw	a2,12(a4)
e0004760:	1662                	slli	a2,a2,0x38
e0004762:	5b26                	lw	s6,104(sp)
e0004764:	3454                	.2byte	0x3454
e0004766:	d4b4                	sw	a3,104(s1)
e0004768:	0000                	unimp
e000476a:	8430                	.2byte	0x8430
e000476c:	b91635f7          	.4byte	0xb91635f7
e0004770:	03a6                	slli	t2,t2,0x9
e0004772:	6722                	.2byte	0x6722
e0004774:	0000                	unimp
e0004776:	c690                	sw	a2,8(a3)
e0004778:	8656                	mv	a2,s5
e000477a:	f6572567          	.4byte	0xf6572567
e000477e:	2695                	jal	e0004ae2 <FLASH_ALSAQR_BOOT_SIGNED+0x459a>
e0004780:	0000                	unimp
e0004782:	26f0                	.2byte	0x26f0
e0004784:	c4c5                	beqz	s1,e000482c <FLASH_ALSAQR_BOOT_SIGNED+0x42e4>
e0004786:	0914                	addi	a3,sp,144
e0004788:	03d2                	slli	t2,t2,0x14
e000478a:	54e2                	lw	s1,56(sp)
e000478c:	0000                	unimp
e000478e:	1200                	addi	s0,sp,288
e0004790:	62d4                	.2byte	0x62d4
e0004792:	38a6                	.2byte	0x38a6
e0004794:	5484                	lw	s1,40(s1)
e0004796:	b434                	.2byte	0xb434
e0004798:	0000                	unimp
e000479a:	3000                	.2byte	0x3000
e000479c:	8616                	mv	a2,t0
e000479e:	a6c69567          	.4byte	0xa6c69567
e00047a2:	0000d203          	lhu	tp,0(ra)
e00047a6:	9610                	.2byte	0x9610
e00047a8:	06e6                	slli	a3,a3,0x19
e00047aa:	28a0                	.2byte	0x28a0
e00047ac:	96d203d3          	.4byte	0x96d203d3
e00047b0:	0000                	unimp
e00047b2:	e200                	.2byte	0xe200
e00047b4:	1662                	slli	a2,a2,0x38
e00047b6:	5b26                	lw	s6,104(sp)
e00047b8:	3454                	.2byte	0x3454
e00047ba:	d4b4                	sw	a3,104(s1)
e00047bc:	0000                	unimp
e00047be:	8430                	.2byte	0x8430
e00047c0:	5736                	lw	a4,108(sp)
e00047c2:	03a6a757          	.4byte	0x3a6a757
e00047c6:	5722                	lw	a4,40(sp)
e00047c8:	0000                	unimp
e00047ca:	c690                	sw	a2,8(a3)
e00047cc:	96d2                	add	a3,a3,s4
e00047ce:	0c76                	slli	s8,s8,0x1d
e00047d0:	03d3e207          	.4byte	0x3d3e207
e00047d4:	0000                	unimp
e00047d6:	46c0                	lw	s0,12(a3)
e00047d8:	00073657          	.4byte	0x73657
e00047dc:	6262                	.2byte	0x6262
e00047de:	2202                	.2byte	0x2202
e00047e0:	0000                	unimp
e00047e2:	06e0                	addi	s0,sp,844
e00047e4:	d1b6d203          	lhu	tp,-741(a3) # c7370473 <tohost+0xc735046b>
e00047e8:	0746                	slli	a4,a4,0x11
e00047ea:	d3c2                	sw	a6,228(sp)
e00047ec:	0000                	unimp
e00047ee:	c750                	sw	a2,12(a4)
e00047f0:	0000                	unimp
e00047f2:	e6e0                	.2byte	0xe6e0
e00047f4:	00200007          	.4byte	0x200007
e00047f8:	0000                	unimp
e00047fa:	8610                	.2byte	0x8610
e00047fc:	0000                	unimp
e00047fe:	a000                	.2byte	0xa000
e0004800:	0002                	c.slli64	zero
e0004802:	0000020f          	.4byte	0x20f
e0004806:	be90                	.2byte	0xbe90
e0004808:	0002                	c.slli64	zero
e000480a:	00001dcf          	.4byte	0x1dcf
e000480e:	c100                	sw	s0,0(a0)
e0004810:	0000                	unimp
e0004812:	0000                	unimp
e0004814:	0000                	unimp
e0004816:	6c70                	.2byte	0x6c70
e0004818:	0000                	unimp
e000481a:	0010                	.2byte	0x10
e000481c:	0000                	unimp
e000481e:	0000                	unimp
e0004820:	0000                	unimp
e0004822:	6e40                	.2byte	0x6e40
e0004824:	0000                	unimp
e0004826:	0010                	.2byte	0x10
e0004828:	0000                	unimp
e000482a:	0010                	.2byte	0x10
e000482c:	0000                	unimp
e000482e:	6e40                	.2byte	0x6e40
e0004830:	0000                	unimp
e0004832:	0010                	.2byte	0x10
e0004834:	0000                	unimp
e0004836:	0010                	.2byte	0x10
e0004838:	0000                	unimp
e000483a:	6e40                	.2byte	0x6e40
e000483c:	0000                	unimp
e000483e:	0010                	.2byte	0x10
e0004840:	0000                	unimp
e0004842:	0010                	.2byte	0x10
e0004844:	0000                	unimp
e0004846:	61b0                	.2byte	0x61b0
e0004848:	0000                	unimp
e000484a:	0020                	addi	s0,sp,8
e000484c:	0000                	unimp
e000484e:	0010                	.2byte	0x10
e0004850:	0000                	unimp
e0004852:	64d0                	.2byte	0x64d0
e0004854:	0000                	unimp
e0004856:	0020                	addi	s0,sp,8
e0004858:	0000                	unimp
e000485a:	0020                	addi	s0,sp,8
e000485c:	0000                	unimp
e000485e:	64d0                	.2byte	0x64d0
e0004860:	0000                	unimp
e0004862:	0020                	addi	s0,sp,8
e0004864:	0000                	unimp
e0004866:	0020                	addi	s0,sp,8
e0004868:	0000                	unimp
e000486a:	64d0                	.2byte	0x64d0
e000486c:	0000                	unimp
e000486e:	0020                	addi	s0,sp,8
e0004870:	0000                	unimp
e0004872:	0020                	addi	s0,sp,8
e0004874:	0000                	unimp
e0004876:	08a0                	addi	s0,sp,88
e0004878:	0000                	unimp
e000487a:	0030                	addi	a2,sp,8
e000487c:	0000                	unimp
e000487e:	0020                	addi	s0,sp,8
e0004880:	0000                	unimp
e0004882:	0a90                	addi	a2,sp,336
e0004884:	0000                	unimp
e0004886:	0030                	addi	a2,sp,8
e0004888:	0000                	unimp
e000488a:	0030                	addi	a2,sp,8
e000488c:	0000                	unimp
e000488e:	0a90                	addi	a2,sp,336
e0004890:	0000                	unimp
e0004892:	0030                	addi	a2,sp,8
e0004894:	0000                	unimp
e0004896:	0030                	addi	a2,sp,8
e0004898:	0000                	unimp
e000489a:	0a90                	addi	a2,sp,336
e000489c:	0000                	unimp
e000489e:	0030                	addi	a2,sp,8
e00048a0:	0000                	unimp
e00048a2:	0030                	addi	a2,sp,8
e00048a4:	0000                	unimp
e00048a6:	2ff0                	.2byte	0x2ff0
e00048a8:	0000                	unimp
e00048aa:	0040                	addi	s0,sp,4
e00048ac:	0000                	unimp
e00048ae:	0030                	addi	a2,sp,8
e00048b0:	0000                	unimp
e00048b2:	aff0                	.2byte	0xaff0
e00048b4:	0000                	unimp
e00048b6:	0040                	addi	s0,sp,4
e00048b8:	0000                	unimp
e00048ba:	0040                	addi	s0,sp,4
e00048bc:	0000                	unimp
e00048be:	aff0                	.2byte	0xaff0
e00048c0:	0000                	unimp
e00048c2:	0040                	addi	s0,sp,4
e00048c4:	0000                	unimp
e00048c6:	0040                	addi	s0,sp,4
e00048c8:	0000                	unimp
e00048ca:	aff0                	.2byte	0xaff0
e00048cc:	0000                	unimp
e00048ce:	0040                	addi	s0,sp,4
e00048d0:	0000                	unimp
e00048d2:	0040                	addi	s0,sp,4
e00048d4:	0000                	unimp
e00048d6:	c380                	sw	s0,0(a5)
e00048d8:	0000                	unimp
e00048da:	0050                	addi	a2,sp,4
e00048dc:	0000                	unimp
e00048de:	0040                	addi	s0,sp,4
e00048e0:	0000                	unimp
e00048e2:	c1b0                	sw	a2,64(a1)
e00048e4:	0000                	unimp
e00048e6:	0050                	addi	a2,sp,4
e00048e8:	0000                	unimp
e00048ea:	0050                	addi	a2,sp,4
e00048ec:	0000                	unimp
e00048ee:	c1b0                	sw	a2,64(a1)
e00048f0:	0000                	unimp
e00048f2:	0050                	addi	a2,sp,4
e00048f4:	0000                	unimp
e00048f6:	0050                	addi	a2,sp,4
e00048f8:	0000                	unimp
e00048fa:	c1b0                	sw	a2,64(a1)
e00048fc:	0000                	unimp
e00048fe:	0050                	addi	a2,sp,4
e0004900:	0000                	unimp
e0004902:	0050                	addi	a2,sp,4
e0004904:	0000                	unimp
e0004906:	c1b0                	sw	a2,64(a1)
e0004908:	0000                	unimp
e000490a:	0050                	addi	a2,sp,4
e000490c:	0000                	unimp
e000490e:	0050                	addi	a2,sp,4
e0004910:	0000                	unimp
e0004912:	c1b0                	sw	a2,64(a1)
e0004914:	0000                	unimp
e0004916:	0050                	addi	a2,sp,4
e0004918:	0000                	unimp
e000491a:	0050                	addi	a2,sp,4
e000491c:	0000                	unimp
e000491e:	c1b0                	sw	a2,64(a1)
e0004920:	0000                	unimp
e0004922:	0050                	addi	a2,sp,4
e0004924:	0000                	unimp
e0004926:	0050                	addi	a2,sp,4
e0004928:	0000                	unimp
e000492a:	c1b0                	sw	a2,64(a1)
e000492c:	0000                	unimp
e000492e:	0050                	addi	a2,sp,4
e0004930:	0000                	unimp
e0004932:	0050                	addi	a2,sp,4
e0004934:	0000                	unimp
e0004936:	c1b0                	sw	a2,64(a1)
e0004938:	0000                	unimp
e000493a:	0050                	addi	a2,sp,4
e000493c:	0000                	unimp
e000493e:	0050                	addi	a2,sp,4
e0004940:	0000                	unimp
e0004942:	c1b0                	sw	a2,64(a1)
e0004944:	0000                	unimp
e0004946:	0050                	addi	a2,sp,4
e0004948:	0000                	unimp
e000494a:	0050                	addi	a2,sp,4
e000494c:	0000                	unimp
e000494e:	c1b0                	sw	a2,64(a1)
e0004950:	0000                	unimp
e0004952:	0050                	addi	a2,sp,4
e0004954:	0000                	unimp
e0004956:	0050                	addi	a2,sp,4
e0004958:	0000                	unimp
e000495a:	c1b0                	sw	a2,64(a1)
e000495c:	0000                	unimp
e000495e:	0050                	addi	a2,sp,4
e0004960:	0000                	unimp
e0004962:	0050                	addi	a2,sp,4
e0004964:	0000                	unimp
e0004966:	c1b0                	sw	a2,64(a1)
e0004968:	0000                	unimp
e000496a:	0050                	addi	a2,sp,4
e000496c:	0000                	unimp
e000496e:	0050                	addi	a2,sp,4
e0004970:	0000                	unimp
e0004972:	c1b0                	sw	a2,64(a1)
e0004974:	0000                	unimp
e0004976:	0050                	addi	a2,sp,4
e0004978:	0000                	unimp
e000497a:	0050                	addi	a2,sp,4
e000497c:	0000                	unimp
e000497e:	c1b0                	sw	a2,64(a1)
e0004980:	0000                	unimp
e0004982:	0050                	addi	a2,sp,4
e0004984:	0000                	unimp
e0004986:	0050                	addi	a2,sp,4
e0004988:	0000                	unimp
e000498a:	c1b0                	sw	a2,64(a1)
e000498c:	0000                	unimp
e000498e:	0050                	addi	a2,sp,4
e0004990:	0000                	unimp
e0004992:	0050                	addi	a2,sp,4
e0004994:	0000                	unimp
e0004996:	ce40                	sw	s0,28(a2)
e0004998:	0000                	unimp
e000499a:	0060                	addi	s0,sp,12
e000499c:	0000                	unimp
e000499e:	0050                	addi	a2,sp,4
e00049a0:	0000                	unimp
e00049a2:	cb20                	sw	s0,80(a4)
e00049a4:	0000                	unimp
e00049a6:	0060                	addi	s0,sp,12
e00049a8:	0000                	unimp
e00049aa:	0060                	addi	s0,sp,12
e00049ac:	0000                	unimp
e00049ae:	cb20                	sw	s0,80(a4)
e00049b0:	0000                	unimp
e00049b2:	0060                	addi	s0,sp,12
e00049b4:	0000                	unimp
e00049b6:	0060                	addi	s0,sp,12
e00049b8:	0000                	unimp
e00049ba:	cb20                	sw	s0,80(a4)
e00049bc:	0000                	unimp
e00049be:	0060                	addi	s0,sp,12
e00049c0:	0000                	unimp
e00049c2:	0060                	addi	s0,sp,12
e00049c4:	0000                	unimp
e00049c6:	cb20                	sw	s0,80(a4)
e00049c8:	0000                	unimp
e00049ca:	0060                	addi	s0,sp,12
e00049cc:	0000                	unimp
e00049ce:	0060                	addi	s0,sp,12
e00049d0:	0000                	unimp
e00049d2:	cb20                	sw	s0,80(a4)
e00049d4:	0000                	unimp
e00049d6:	0060                	addi	s0,sp,12
e00049d8:	0000                	unimp
e00049da:	0060                	addi	s0,sp,12
e00049dc:	0000                	unimp
e00049de:	a750                	.2byte	0xa750
e00049e0:	0000                	unimp
e00049e2:	0070                	addi	a2,sp,12
e00049e4:	0000                	unimp
e00049e6:	0060                	addi	s0,sp,12
e00049e8:	0000                	unimp
e00049ea:	a560                	.2byte	0xa560
e00049ec:	0000                	unimp
e00049ee:	0070                	addi	a2,sp,12
e00049f0:	0000                	unimp
e00049f2:	0070                	addi	a2,sp,12
e00049f4:	0000                	unimp
e00049f6:	a560                	.2byte	0xa560
e00049f8:	0000                	unimp
e00049fa:	0070                	addi	a2,sp,12
e00049fc:	0000                	unimp
e00049fe:	0070                	addi	a2,sp,12
e0004a00:	0000                	unimp
e0004a02:	a560                	.2byte	0xa560
e0004a04:	0000                	unimp
e0004a06:	0070                	addi	a2,sp,12
e0004a08:	0000                	unimp
e0004a0a:	0070                	addi	a2,sp,12
e0004a0c:	0000                	unimp
e0004a0e:	a560                	.2byte	0xa560
e0004a10:	0000                	unimp
e0004a12:	0070                	addi	a2,sp,12
e0004a14:	0000                	unimp
e0004a16:	0070                	addi	a2,sp,12
e0004a18:	0000                	unimp
e0004a1a:	a560                	.2byte	0xa560
e0004a1c:	0000                	unimp
e0004a1e:	0070                	addi	a2,sp,12
e0004a20:	0000                	unimp
e0004a22:	0070                	addi	a2,sp,12
e0004a24:	0000                	unimp
e0004a26:	a560                	.2byte	0xa560
e0004a28:	0000                	unimp
e0004a2a:	0070                	addi	a2,sp,12
e0004a2c:	0000                	unimp
e0004a2e:	0070                	addi	a2,sp,12
e0004a30:	0000                	unimp
e0004a32:	a560                	.2byte	0xa560
e0004a34:	0000                	unimp
e0004a36:	0070                	addi	a2,sp,12
e0004a38:	0000                	unimp
e0004a3a:	0070                	addi	a2,sp,12
e0004a3c:	0000                	unimp
e0004a3e:	64d0                	.2byte	0x64d0
e0004a40:	0000                	unimp
e0004a42:	0080                	addi	s0,sp,64
e0004a44:	0000                	unimp
e0004a46:	0080                	addi	s0,sp,64
e0004a48:	0000                	unimp
e0004a4a:	64d0                	.2byte	0x64d0
e0004a4c:	0000                	unimp
e0004a4e:	0080                	addi	s0,sp,64
e0004a50:	0000                	unimp
e0004a52:	0080                	addi	s0,sp,64
e0004a54:	0000                	unimp
e0004a56:	64d0                	.2byte	0x64d0
e0004a58:	0000                	unimp
e0004a5a:	0080                	addi	s0,sp,64
e0004a5c:	0000                	unimp
e0004a5e:	0080                	addi	s0,sp,64
e0004a60:	0000                	unimp
e0004a62:	64d0                	.2byte	0x64d0
e0004a64:	0000                	unimp
e0004a66:	0080                	addi	s0,sp,64
e0004a68:	0000                	unimp
e0004a6a:	0080                	addi	s0,sp,64
e0004a6c:	0000                	unimp
e0004a6e:	64d0                	.2byte	0x64d0
e0004a70:	0000                	unimp
e0004a72:	0080                	addi	s0,sp,64
e0004a74:	0000                	unimp
e0004a76:	0080                	addi	s0,sp,64
e0004a78:	0000                	unimp
e0004a7a:	64d0                	.2byte	0x64d0
e0004a7c:	0000                	unimp
e0004a7e:	0080                	addi	s0,sp,64
e0004a80:	0000                	unimp
e0004a82:	0080                	addi	s0,sp,64
e0004a84:	0000                	unimp
e0004a86:	64d0                	.2byte	0x64d0
e0004a88:	0000                	unimp
e0004a8a:	0080                	addi	s0,sp,64
e0004a8c:	0000                	unimp
e0004a8e:	0080                	addi	s0,sp,64
e0004a90:	0000                	unimp
e0004a92:	08a0                	addi	s0,sp,88
e0004a94:	0000                	unimp
e0004a96:	0090                	addi	a2,sp,64
e0004a98:	0000                	unimp
e0004a9a:	0080                	addi	s0,sp,64
e0004a9c:	0000                	unimp
e0004a9e:	0a90                	addi	a2,sp,336
e0004aa0:	0000                	unimp
e0004aa2:	0090                	addi	a2,sp,64
e0004aa4:	0000                	unimp
e0004aa6:	0090                	addi	a2,sp,64
e0004aa8:	0000                	unimp
e0004aaa:	0a90                	addi	a2,sp,336
e0004aac:	0000                	unimp
e0004aae:	0090                	addi	a2,sp,64
e0004ab0:	0000                	unimp
e0004ab2:	0090                	addi	a2,sp,64
e0004ab4:	0000                	unimp
e0004ab6:	0a90                	addi	a2,sp,336
e0004ab8:	0000                	unimp
e0004aba:	0090                	addi	a2,sp,64
e0004abc:	0000                	unimp
e0004abe:	0090                	addi	a2,sp,64
e0004ac0:	0000                	unimp
e0004ac2:	0a90                	addi	a2,sp,336
e0004ac4:	0000                	unimp
e0004ac6:	0090                	addi	a2,sp,64
e0004ac8:	0000                	unimp
e0004aca:	0090                	addi	a2,sp,64
e0004acc:	0000                	unimp
e0004ace:	0a90                	addi	a2,sp,336
e0004ad0:	0000                	unimp
e0004ad2:	0090                	addi	a2,sp,64
e0004ad4:	0000                	unimp
e0004ad6:	0090                	addi	a2,sp,64
e0004ad8:	0000                	unimp
e0004ada:	0a90                	addi	a2,sp,336
e0004adc:	0000                	unimp
e0004ade:	0090                	addi	a2,sp,64
e0004ae0:	0000                	unimp
e0004ae2:	0090                	addi	a2,sp,64
e0004ae4:	0000                	unimp
e0004ae6:	0a90                	addi	a2,sp,336
e0004ae8:	0000                	unimp
e0004aea:	0090                	addi	a2,sp,64
e0004aec:	0000                	unimp
e0004aee:	0090                	addi	a2,sp,64
e0004af0:	0000                	unimp
e0004af2:	0000                	unimp
e0004af4:	0000                	unimp
e0004af6:	00a0                	addi	s0,sp,72
e0004af8:	0000                	unimp
e0004afa:	00a0                	addi	s0,sp,72
e0004afc:	0000                	unimp
e0004afe:	4b20                	lw	s0,80(a4)
e0004b00:	0000                	unimp
e0004b02:	00c0                	addi	s0,sp,68
e0004b04:	0000                	unimp
e0004b06:	00b0                	addi	a2,sp,72
e0004b08:	0000                	unimp
e0004b0a:	a750                	.2byte	0xa750
e0004b0c:	0000                	unimp
e0004b0e:	00d0                	addi	a2,sp,68
e0004b10:	0000                	unimp
e0004b12:	00c0                	addi	s0,sp,68
e0004b14:	0000                	unimp
e0004b16:	a560                	.2byte	0xa560
e0004b18:	0000                	unimp
e0004b1a:	00d0                	addi	a2,sp,68
e0004b1c:	0000                	unimp
e0004b1e:	00d0                	addi	a2,sp,68
e0004b20:	0000                	unimp
e0004b22:	aa90                	.2byte	0xaa90
e0004b24:	0000                	unimp
e0004b26:	00e0                	addi	s0,sp,76
e0004b28:	0000                	unimp
e0004b2a:	00d0                	addi	a2,sp,68
e0004b2c:	0000                	unimp
e0004b2e:	c380                	sw	s0,0(a5)
e0004b30:	0000                	unimp
e0004b32:	00f0                	addi	a2,sp,76
e0004b34:	0000                	unimp
e0004b36:	00e0                	addi	s0,sp,76
e0004b38:	0000                	unimp
e0004b3a:	adc0                	.2byte	0xadc0
e0004b3c:	0000                	unimp
e0004b3e:	0100                	addi	s0,sp,128
e0004b40:	0000                	unimp
e0004b42:	00f0                	addi	a2,sp,76
e0004b44:	0000                	unimp
e0004b46:	6b20                	.2byte	0x6b20
e0004b48:	0000                	unimp
e0004b4a:	0100                	addi	s0,sp,128
e0004b4c:	0000                	unimp
e0004b4e:	0100                	addi	s0,sp,128
e0004b50:	0000                	unimp
e0004b52:	6b20                	.2byte	0x6b20
e0004b54:	0000                	unimp
e0004b56:	0100                	addi	s0,sp,128
e0004b58:	0000                	unimp
e0004b5a:	0100                	addi	s0,sp,128
e0004b5c:	0000                	unimp
e0004b5e:	6b20                	.2byte	0x6b20
e0004b60:	0000                	unimp
e0004b62:	0100                	addi	s0,sp,128
e0004b64:	0000                	unimp
e0004b66:	0100                	addi	s0,sp,128
e0004b68:	0000                	unimp
e0004b6a:	6b20                	.2byte	0x6b20
e0004b6c:	0000                	unimp
e0004b6e:	0100                	addi	s0,sp,128
e0004b70:	0000                	unimp
e0004b72:	0100                	addi	s0,sp,128
e0004b74:	0000                	unimp
e0004b76:	6b20                	.2byte	0x6b20
e0004b78:	0000                	unimp
e0004b7a:	0100                	addi	s0,sp,128
e0004b7c:	0000                	unimp
e0004b7e:	0100                	addi	s0,sp,128
e0004b80:	0000                	unimp
e0004b82:	6b20                	.2byte	0x6b20
e0004b84:	0000                	unimp
e0004b86:	0100                	addi	s0,sp,128
e0004b88:	0000                	unimp
e0004b8a:	0100                	addi	s0,sp,128
e0004b8c:	0000                	unimp
e0004b8e:	6b20                	.2byte	0x6b20
e0004b90:	0000                	unimp
e0004b92:	0100                	addi	s0,sp,128
e0004b94:	0000                	unimp
e0004b96:	0100                	addi	s0,sp,128
e0004b98:	0000                	unimp
e0004b9a:	6b20                	.2byte	0x6b20
e0004b9c:	0000                	unimp
e0004b9e:	0100                	addi	s0,sp,128
e0004ba0:	0000                	unimp
e0004ba2:	0100                	addi	s0,sp,128
e0004ba4:	0000                	unimp
e0004ba6:	0a90                	addi	a2,sp,336
e0004ba8:	0000                	unimp
e0004baa:	0120                	addi	s0,sp,136
e0004bac:	0000                	unimp
e0004bae:	0110                	addi	a2,sp,128
e0004bb0:	0000                	unimp
e0004bb2:	44d0                	lw	a2,12(s1)
e0004bb4:	0000                	unimp
e0004bb6:	0140                	addi	s0,sp,132
e0004bb8:	0000                	unimp
e0004bba:	0130                	addi	a2,sp,136
e0004bbc:	0000                	unimp
e0004bbe:	a8a0                	.2byte	0xa8a0
e0004bc0:	0000                	unimp
e0004bc2:	0150                	addi	a2,sp,132
e0004bc4:	0000                	unimp
e0004bc6:	0140                	addi	s0,sp,132
e0004bc8:	0000                	unimp
e0004bca:	a560                	.2byte	0xa560
e0004bcc:	0000                	unimp
e0004bce:	0160                	addi	s0,sp,140
e0004bd0:	0000                	unimp
e0004bd2:	0150                	addi	a2,sp,132
e0004bd4:	0000                	unimp
e0004bd6:	ce40                	sw	s0,28(a2)
e0004bd8:	0000                	unimp
e0004bda:	0170                	addi	a2,sp,140
e0004bdc:	0000                	unimp
e0004bde:	0170                	addi	a2,sp,140
e0004be0:	0000                	unimp
e0004be2:	ce40                	sw	s0,28(a2)
e0004be4:	0000                	unimp
e0004be6:	0170                	addi	a2,sp,140
e0004be8:	0000                	unimp
e0004bea:	0170                	addi	a2,sp,140
e0004bec:	0000                	unimp
e0004bee:	ce40                	sw	s0,28(a2)
e0004bf0:	0000                	unimp
e0004bf2:	0170                	addi	a2,sp,140
e0004bf4:	0000                	unimp
e0004bf6:	0170                	addi	a2,sp,140
e0004bf8:	0000                	unimp
e0004bfa:	0ff0                	addi	a2,sp,988
e0004bfc:	0000                	unimp
e0004bfe:	0180                	addi	s0,sp,192
e0004c00:	0000                	unimp
e0004c02:	0180                	addi	s0,sp,192
e0004c04:	0000                	unimp
e0004c06:	6380                	.2byte	0x6380
e0004c08:	0000                	unimp
e0004c0a:	0190                	addi	a2,sp,192
e0004c0c:	0000                	unimp
e0004c0e:	0180                	addi	s0,sp,192
e0004c10:	0000                	unimp
e0004c12:	61b0                	.2byte	0x61b0
e0004c14:	0000                	unimp
e0004c16:	0190                	addi	a2,sp,192
e0004c18:	0000                	unimp
e0004c1a:	0190                	addi	a2,sp,192
e0004c1c:	0000                	unimp
e0004c1e:	0750                	addi	a2,sp,900
e0004c20:	0000                	unimp
e0004c22:	01b0                	addi	a2,sp,200
e0004c24:	0000                	unimp
e0004c26:	01a0                	addi	s0,sp,200
e0004c28:	0000                	unimp
e0004c2a:	a000                	.2byte	0xa000
e0004c2c:	0000                	unimp
e0004c2e:	01c0                	addi	s0,sp,196
e0004c30:	0000                	unimp
e0004c32:	01c0                	addi	s0,sp,196
e0004c34:	0000                	unimp
e0004c36:	a000                	.2byte	0xa000
e0004c38:	0000                	unimp
e0004c3a:	01c0                	addi	s0,sp,196
e0004c3c:	0000                	unimp
e0004c3e:	01c0                	addi	s0,sp,196
e0004c40:	0000                	unimp
e0004c42:	ce40                	sw	s0,28(a2)
e0004c44:	0000                	unimp
e0004c46:	01d0                	addi	a2,sp,196
e0004c48:	0000                	unimp
e0004c4a:	01d0                	addi	a2,sp,196
e0004c4c:	0000                	unimp
e0004c4e:	ce40                	sw	s0,28(a2)
e0004c50:	0000                	unimp
e0004c52:	01d0                	addi	a2,sp,196
e0004c54:	0000                	unimp
e0004c56:	01d0                	addi	a2,sp,196
e0004c58:	0000                	unimp
e0004c5a:	c4d0                	sw	a2,12(s1)
e0004c5c:	0000                	unimp
e0004c5e:	01e0                	addi	s0,sp,204
e0004c60:	0000                	unimp
e0004c62:	01e0                	addi	s0,sp,204
e0004c64:	0000                	unimp
e0004c66:	aa90                	.2byte	0xaa90
e0004c68:	0000                	unimp
e0004c6a:	01f0                	addi	a2,sp,204
e0004c6c:	0000                	unimp
e0004c6e:	01f0                	addi	a2,sp,204
e0004c70:	29163697          	auipc	a3,0x29163
e0004c74:	665642f7          	.4byte	0x665642f7
e0004c78:	0000                	unimp
e0004c7a:	7730                	.2byte	0x7730
e0004c7c:	5742                	lw	a4,48(sp)
e0004c7e:	84d6                	mv	s1,s5
e0004c80:	96c2                	add	a3,a3,a6
e0004c82:	f626                	.2byte	0xf626
e0004c84:	0000                	unimp
e0004c86:	f650                	.2byte	0xf650
e0004c88:	5742                	lw	a4,48(sp)
e0004c8a:	7236                	.2byte	0x7236
e0004c8c:	f676e697          	auipc	a3,0xf676e
e0004c90:	0000                	unimp
e0004c92:	4730                	lw	a2,72(a4)
e0004c94:	56d6                	lw	a3,116(sp)
e0004c96:	c8a6                	sw	s1,80(sp)
e0004c98:	172665f7          	.4byte	0x172665f7
e0004c9c:	0000                	unimp
e0004c9e:	4730                	lw	a2,72(a4)
e0004ca0:	43861747          	.4byte	0x43861747
e0004ca4:	b726                	.2byte	0xb726
e0004ca6:	32f6                	.2byte	0x32f6
e0004ca8:	0000                	unimp
e0004caa:	f770                	.2byte	0xf770
e0004cac:	1500                	addi	s0,sp,672
e0004cae:	4dc4                	lw	s1,28(a1)
e0004cb0:	0632e737          	lui	a4,0x632e
e0004cb4:	0000                	unimp
e0004cb6:	5740                	lw	s0,44(a4)
e0004cb8:	c494                	sw	a3,8(s1)
e0004cba:	84d4                	.2byte	0x84d4
e0004cbc:	0215                	addi	tp,tp,5 # c2f69005 <fromhost+0xe2f58ff5>
e0004cbe:	1460                	addi	s0,sp,556
e0004cc0:	0000                	unimp
e0004cc2:	3530                	.2byte	0x3530
e0004cc4:	0000                	unimp
e0004cc6:	0a90                	addi	a2,sp,336
e0004cc8:	0000                	unimp
e0004cca:	0000                	unimp
e0004ccc:	0000                	unimp
e0004cce:	0210                	addi	a2,sp,256
e0004cd0:	0000                	unimp
e0004cd2:	a8a0                	.2byte	0xa8a0
e0004cd4:	0002                	c.slli64	zero
e0004cd6:	000001cf          	.4byte	0x1cf
e0004cda:	f700                	.2byte	0xf700
e0004cdc:	0002                	c.slli64	zero
e0004cde:	0000056f          	jal	a0,e0004cde <FLASH_ALSAQR_BOOT_SIGNED+0x4796>
e0004ce2:	f9e0                	.2byte	0xf9e0
e0004ce4:	0000                	unimp
e0004ce6:	0000                	unimp
e0004ce8:	0002                	c.slli64	zero
e0004cea:	0000cb2f          	.4byte	0xcb2f
e0004cee:	f700                	.2byte	0xf700
e0004cf0:	0000                	unimp
e0004cf2:	0000                	unimp
e0004cf4:	0000                	unimp
e0004cf6:	0ff0                	addi	a2,sp,988
e0004cf8:	0000                	unimp
e0004cfa:	0000                	unimp
e0004cfc:	0000                	unimp
e0004cfe:	0220                	addi	s0,sp,264
e0004d00:	b5630257          	.4byte	0xb5630257
e0004d04:	0002                	c.slli64	zero
e0004d06:	325f 0000 fa40      	.byte	0x5f, 0x32, 0x00, 0x00, 0x40, 0xfa
e0004d0c:	94d64253          	.4byte	0x94d64253
e0004d10:	5206                	lw	tp,96(sp)
e0004d12:	a732                	.2byte	0xa732
e0004d14:	0000                	unimp
e0004d16:	4350                	lw	a2,4(a4)
e0004d18:	0490                	addi	a2,sp,576
e0004d1a:	bdc0                	.2byte	0xbdc0
e0004d1c:	d002                	sw	zero,32(sp)
e0004d1e:	00a0                	addi	s0,sp,72
e0004d20:	0000                	unimp
e0004d22:	05d0                	addi	a2,sp,708
e0004d24:	0000                	unimp
e0004d26:	18a0                	addi	s0,sp,120
e0004d28:	0460                	addi	s0,sp,524
e0004d2a:	03f0                	addi	a2,sp,460
e0004d2c:	0000                	unimp
e0004d2e:	0570                	addi	a2,sp,652
e0004d30:	0002                	c.slli64	zero
e0004d32:	2a9f 0002 fe8f      	.byte	0x9f, 0x2a, 0x02, 0x00, 0x8f, 0xfe
e0004d38:	0000                	unimp
e0004d3a:	fe60                	.2byte	0xfe60
e0004d3c:	0002                	c.slli64	zero
e0004d3e:	c4df 0002 feaf      	.byte	0xdf, 0xc4, 0x02, 0x00, 0xaf, 0xfe
e0004d44:	0000                	unimp
e0004d46:	be70                	.2byte	0xbe70
e0004d48:	0001                	nop
e0004d4a:	0001b00f          	.4byte	0x1b00f
e0004d4e:	0000c06f          	j	e0010d4e <fromhost+0xd3e>
e0004d52:	bca0                	.2byte	0xbca0
e0004d54:	0001                	nop
e0004d56:	0001a00f          	.4byte	0x1a00f
e0004d5a:	0000e2af          	.4byte	0xe2af
e0004d5e:	e2a0                	.2byte	0xe2a0
e0004d60:	0001                	nop
e0004d62:	0001a00f          	.4byte	0x1a00f
e0004d66:	0000e2af          	.4byte	0xe2af
e0004d6a:	e2a0                	.2byte	0xe2a0
e0004d6c:	0001                	nop
e0004d6e:	0001a00f          	.4byte	0x1a00f
e0004d72:	0000e2af          	.4byte	0xe2af
e0004d76:	e2a0                	.2byte	0xe2a0
e0004d78:	0001                	nop
e0004d7a:	0001a00f          	.4byte	0x1a00f
e0004d7e:	0000e2af          	.4byte	0xe2af
e0004d82:	e2a0                	.2byte	0xe2a0
e0004d84:	0001                	nop
e0004d86:	fc7f                	.2byte	0xfc7f
e0004d88:	0001                	nop
e0004d8a:	0000c48f          	.4byte	0xc48f
e0004d8e:	c2a0                	sw	s0,64(a3)
e0004d90:	0001                	nop
e0004d92:	6c7f                	.2byte	0x6c7f
e0004d94:	0001                	nop
e0004d96:	0000e2af          	.4byte	0xe2af
e0004d9a:	b720                	.2byte	0xb720
e0004d9c:	0001                	nop
e0004d9e:	0001a00f          	.4byte	0x1a00f
e0004da2:	0000e2af          	.4byte	0xe2af
e0004da6:	e2a0                	.2byte	0xe2a0
e0004da8:	0001                	nop
e0004daa:	975f 0001 b72f      	.byte	0x5f, 0x97, 0x01, 0x00, 0x2f, 0xb7
e0004db0:	0000                	unimp
e0004db2:	dda0                	sw	s0,120(a1)
e0004db4:	0001                	nop
e0004db6:	0001a00f          	.4byte	0x1a00f
e0004dba:	0000e2af          	.4byte	0xe2af
e0004dbe:	e2a0                	.2byte	0xe2a0
e0004dc0:	0001                	nop
e0004dc2:	0001a00f          	.4byte	0x1a00f
e0004dc6:	0000e2af          	.4byte	0xe2af
e0004dca:	e2a0                	.2byte	0xe2a0
e0004dcc:	0001                	nop
e0004dce:	3fff                	.2byte	0x3fff
e0004dd0:	0001                	nop
e0004dd2:	0000c60f          	.4byte	0xc60f
e0004dd6:	e2a0                	.2byte	0xe2a0
e0004dd8:	0001                	nop
e0004dda:	000128af          	.4byte	0x128af
e0004dde:	0000e2af          	.4byte	0xe2af
e0004de2:	c7e0                	sw	s0,76(a5)
e0004de4:	0001                	nop
e0004de6:	000118af          	.4byte	0x118af
e0004dea:	0000d78f          	.4byte	0xd78f
e0004dee:	cba0                	sw	s0,80(a5)
e0004df0:	0001                	nop
e0004df2:	0001de4f          	.4byte	0x1de4f
e0004df6:	0000d90f          	.4byte	0xd90f
e0004dfa:	e2a0                	.2byte	0xe2a0
e0004dfc:	0001                	nop
e0004dfe:	0001a00f          	.4byte	0x1a00f
e0004e02:	0000e2af          	.4byte	0xe2af
e0004e06:	e2a0                	.2byte	0xe2a0
e0004e08:	0001                	nop
e0004e0a:	1fff                	.2byte	0x1fff
e0004e0c:	0001                	nop
e0004e0e:	0000dfcf          	.4byte	0xdfcf
e0004e12:	dae0                	sw	s0,116(a3)
e0004e14:	1250                	addi	a2,sp,292
e0004e16:	11b2                	slli	gp,gp,0x2c
e0004e18:	03a78383          	lb	t2,58(a5)
e0004e1c:	0000                	unimp
e0004e1e:	0250                	addi	a2,sp,260
e0004e20:	d002                	sw	zero,32(sp)
e0004e22:	6002                	.2byte	0x6002
e0004e24:	0200                	addi	s0,sp,256
e0004e26:	5002                	.2byte	0x5002
e0004e28:	0000                	unimp
e0004e2a:	0730                	addi	a2,sp,904
e0004e2c:	06e65757          	.4byte	0x6e65757
e0004e30:	27400783          	lb	a5,628(zero) # 274 <_min_stack-0x1d8c>
e0004e34:	0000                	unimp
e0004e36:	0000                	unimp
e0004e38:	05d0                	addi	a2,sp,708
e0004e3a:	18a0                	addi	s0,sp,120
e0004e3c:	05b00227          	.4byte	0x5b00227
e0004e40:	0000                	unimp
e0004e42:	b000                	.2byte	0xb000
e0004e44:	ac735343          	.4byte	0xac735343
e0004e48:	1300                	addi	s0,sp,416
e0004e4a:	00003323          	.4byte	0x3323
e0004e4e:	07d0                	addi	a2,sp,964
e0004e50:	4636                	lw	a2,76(sp)
e0004e52:	7566                	.2byte	0x7566
e0004e54:	26139383          	lh	t2,609(t2)
e0004e58:	0000                	unimp
e0004e5a:	7360                	.2byte	0x7360
e0004e5c:	8656                	mv	a2,s5
e0004e5e:	c256c6e7          	.4byte	0xc256c6e7
e0004e62:	0000e753          	.4byte	0xe753
e0004e66:	6650                	.2byte	0x6650
e0004e68:	e206                	.2byte	0xe206
e0004e6a:	8386                	mv	t2,ra
e0004e6c:	4636                	lw	a2,76(sp)
e0004e6e:	00004657          	.4byte	0x4657
e0004e72:	5700                	lw	s0,40(a4)
e0004e74:	4616                	lw	a2,68(sp)
e0004e76:	d8a6                	sw	s1,112(sp)
e0004e78:	53e6                	lw	t2,120(sp)
e0004e7a:	23c2                	.2byte	0x23c2
e0004e7c:	0000                	unimp
e0004e7e:	c750                	sw	a2,12(a4)
e0004e80:	03e6                	slli	t2,t2,0x19
e0004e82:	46973563          	.4byte	0x46973563
e0004e86:	8746                	mv	a4,a7
e0004e88:	0000                	unimp
e0004e8a:	7200                	.2byte	0x7200
e0004e8c:	57538373          	.4byte	0x57538373
e0004e90:	63534333          	.4byte	0x63534333
e0004e94:	0000                	unimp
e0004e96:	2310                	.2byte	0x2310
e0004e98:	5464                	lw	s1,108(s0)
e0004e9a:	18a2                	slli	a7,a7,0x28
e0004e9c:	3424                	.2byte	0x3424
e0004e9e:	5444                	lw	s1,44(s0)
e0004ea0:	0000                	unimp
e0004ea2:	1390                	addi	a2,sp,480
e0004ea4:	e776                	.2byte	0xe776
e0004ea6:	96e6                	add	a3,a3,s9
e0004ea8:	f6e6b6e7          	.4byte	0xf6e6b6e7
e0004eac:	0000                	unimp
e0004eae:	53c0                	lw	s0,36(a5)
e0004eb0:	88a6b4f3          	csrrc	s1,0x88a,a3
e0004eb4:	e6365707          	.4byte	0xe6365707
e0004eb8:	0000                	unimp
e0004eba:	3200                	.2byte	0x3200
e0004ebc:	c6c6                	sw	a7,76(sp)
e0004ebe:	08a6                	slli	a7,a7,0x9
e0004ec0:	e614                	.2byte	0xe614
e0004ec2:	5636                	lw	a2,108(sp)
e0004ec4:	0000                	unimp
e0004ec6:	3000                	.2byte	0x3000
e0004ec8:	f6e6                	.2byte	0xf6e6
e0004eca:	7756                	.2byte	0x7756
e0004ecc:	5006                	.2byte	0x5006
e0004ece:	b6e5                	j	e0004ab6 <FLASH_ALSAQR_BOOT_SIGNED+0x456e>
e0004ed0:	0000                	unimp
e0004ed2:	4650                	lw	a2,12(a2)
e0004ed4:	e1b6c617          	auipc	a2,0xe1b6c
e0004ed8:	9006                	c.add	zero,ra
e0004eda:	66e4                	.2byte	0x66e4
e0004edc:	0000                	unimp
e0004ede:	e770                	.2byte	0xe770
e0004ee0:	78a656d7          	.4byte	0x78a656d7
e0004ee4:	2416                	.2byte	0x2416
e0004ee6:	00005677          	.4byte	0x5677
e0004eea:	4690                	lw	a2,8(a3)
e0004eec:	c646                	sw	a7,12(sp)
e0004eee:	8006                	c.mv	zero,ra
e0004ef0:	16544007          	.4byte	0x16544007
e0004ef4:	0000                	unimp
e0004ef6:	46e0                	lw	s0,76(a3)
e0004ef8:	5656                	lw	a2,116(sp)
e0004efa:	26e6                	.2byte	0x26e6
e0004efc:	5656                	lw	a2,116(sp)
e0004efe:	3784                	.2byte	0x3784
e0004f00:	0000                	unimp
e0004f02:	e690                	.2byte	0xe690
e0004f04:	6746                	.2byte	0x6746
e0004f06:	4004                	lw	s1,0(s0)
e0004f08:	0646                	slli	a2,a2,0x11
e0004f0a:	f4e0                	.2byte	0xf4e0
e0004f0c:	0000                	unimp
e0004f0e:	5640                	lw	s0,44(a2)
e0004f10:	26c4                	.2byte	0x26c4
e0004f12:	46e7f6e7          	.4byte	0x46e7f6e7
e0004f16:	1006                	c.slli	zero,0x21
e0004f18:	0000                	unimp
e0004f1a:	56f0                	lw	a2,108(a3)
e0004f1c:	1a973697          	auipc	a3,0x1a973
e0004f20:	9646                	add	a2,a2,a7
e0004f22:	00008457          	.4byte	0x8457
e0004f26:	1650                	addi	a2,sp,804
e0004f28:	5a9696d7          	.4byte	0x5a9696d7
e0004f2c:	26550007          	.4byte	0x26550007
e0004f30:	0000                	unimp
e0004f32:	3740                	.2byte	0x3740
e0004f34:	e654                	.2byte	0xe654
e0004f36:	b916                	.2byte	0xb916
e0004f38:	46e6f697          	auipc	a3,0x46e6f
e0004f3c:	0000                	unimp
e0004f3e:	3730                	.2byte	0x3730
e0004f40:	f736                	.2byte	0xf736
e0004f42:	ac76                	.2byte	0xac76
e0004f44:	0646                	slli	a2,a2,0x11
e0004f46:	5520                	lw	s0,104(a0)
e0004f48:	0000                	unimp
e0004f4a:	5690                	lw	a2,40(a3)
e0004f4c:	88a61687          	.4byte	0x88a61687
e0004f50:	84565637          	lui	a2,0x84565
e0004f54:	0000                	unimp
e0004f56:	2750                	.2byte	0x2750
e0004f58:	1460                	addi	s0,sp,556
e0004f5a:	c386                	sw	ra,196(sp)
e0004f5c:	06465747          	.4byte	0x6465747
e0004f60:	0000                	unimp
e0004f62:	3750                	.2byte	0x3750
e0004f64:	c2363657          	.4byte	0xc2363657
e0004f68:	4656                	lw	a2,84(sp)
e0004f6a:	2506                	.2byte	0x2506
e0004f6c:	0000                	unimp
e0004f6e:	c690                	sw	a2,8(a3)
e0004f70:	e6f6                	.2byte	0xe6f6
e0004f72:	2b26                	.2byte	0x2b26
e0004f74:	9646                	add	a2,a2,a7
e0004f76:	9746                	add	a4,a4,a7
e0004f78:	0000                	unimp
e0004f7a:	e6f0                	.2byte	0xe6f0
e0004f7c:	47564657          	.4byte	0x47564657
e0004f80:	f624                	.2byte	0xf624
e0004f82:	4726                	lw	a4,72(sp)
e0004f84:	0000                	unimp
e0004f86:	1000                	addi	s0,sp,32
e0004f88:	1526                	slli	a0,a0,0x29
e0004f8a:	38a6                	.2byte	0x38a6
e0004f8c:	4754                	lw	a3,12(a4)
e0004f8e:	000064f7          	.4byte	0x64f7
e0004f92:	f000                	.2byte	0xf000
e0004f94:	d696                	sw	t0,108(sp)
e0004f96:	8dc6                	mv	s11,a7
e0004f98:	0656                	slli	a2,a2,0x15
e0004f9a:	e550                	.2byte	0xe550
e0004f9c:	0000                	unimp
e0004f9e:	76e0                	.2byte	0x76e0
e0004fa0:	5746                	lw	a4,112(sp)
e0004fa2:	8e46                	mv	t3,a7
e0004fa4:	d656                	sw	s5,44(sp)
e0004fa6:	e656                	.2byte	0xe656
e0004fa8:	0000                	unimp
e0004faa:	c700                	sw	s0,8(a4)
e0004fac:	e726                	.2byte	0xe726
e0004fae:	9e46                	add	t3,t3,a7
e0004fb0:	e490                	.2byte	0xe490
e0004fb2:	5746                	lw	a4,112(sp)
e0004fb4:	0000                	unimp
e0004fb6:	0640                	addi	s0,sp,772
e0004fb8:	1766                	slli	a4,a4,0x39
e0004fba:	6916                	.2byte	0x6916
e0004fbc:	5006                	.2byte	0x5006
e0004fbe:	16e5                	addi	a3,a3,-7 # 26e73f31 <fromhost+0x46e63f21>
e0004fc0:	0000                	unimp
e0004fc2:	c610                	sw	a2,8(a2)
e0004fc4:	4006                	.2byte	0x4006
e0004fc6:	88a4                	.2byte	0x88a4
e0004fc8:	2616                	.2byte	0x2616
e0004fca:	56c6                	lw	a3,112(sp)
e0004fcc:	0000                	unimp
e0004fce:	c690                	sw	a2,8(a3)
e0004fd0:	38a00737          	lui	a4,0x38a00
e0004fd4:	36f4c617          	auipc	a2,0x36f4c
e0004fd8:	0000                	unimp
e0004fda:	4610                	lw	a2,8(a2)
e0004fdc:	e656                	.2byte	0xe656
e0004fde:	e006                	.2byte	0xe006
e0004fe0:	5616                	lw	a2,100(sp)
e0004fe2:	00008747          	.4byte	0x8747
e0004fe6:	e550                	.2byte	0xe550
e0004fe8:	0646                	slli	a2,a2,0x11
e0004fea:	e380                	.2byte	0xe380
e0004fec:	1636                	slli	a2,a2,0x2d
e0004fee:	5746                	lw	a4,112(sp)
e0004ff0:	0000                	unimp
e0004ff2:	9740                	.2byte	0x9740
e0004ff4:	56e6                	lw	a3,120(sp)
e0004ff6:	ea96                	.2byte	0xea96
e0004ff8:	5646                	lw	a2,112(sp)
e0004ffa:	9666                	add	a2,a2,s9
e0004ffc:	0000                	unimp
e0004ffe:	e550                	.2byte	0xe550
e0005000:	5646                	lw	a2,112(sp)
e0005002:	eff6                	.2byte	0xeff6
e0005004:	e5500373          	.4byte	0xe5500373
e0005008:	0000                	unimp
e000500a:	1640                	addi	s0,sp,804
e000500c:	c1b00383          	lb	t2,-997(zero) # fffffc1b <fromhost+0x1ffefc0b>
e0005010:	56e6                	lw	a3,120(sp)
e0005012:	1646                	slli	a2,a2,0x31
e0005014:	0000                	unimp
e0005016:	9660                	.2byte	0x9660
e0005018:	56e6                	lw	a3,120(sp)
e000501a:	ea96                	.2byte	0xea96
e000501c:	5646                	lw	a2,112(sp)
e000501e:	9666                	add	a2,a2,s9
e0005020:	0000                	unimp
e0005022:	e550                	.2byte	0xe550
e0005024:	5646                	lw	a2,112(sp)
e0005026:	fa96                	.2byte	0xfa96
e0005028:	e5500393          	li	t2,-427
e000502c:	0000                	unimp
e000502e:	1640                	addi	s0,sp,804
e0005030:	66e00303          	lb	t1,1646(zero) # 66e <_min_stack-0x1992>
e0005034:	56e6                	lw	a3,120(sp)
e0005036:	2646                	.2byte	0x2646
e0005038:	0000                	unimp
e000503a:	9660                	.2byte	0x9660
e000503c:	56e6                	lw	a3,120(sp)
e000503e:	ea96                	.2byte	0xea96
e0005040:	5646                	lw	a2,112(sp)
e0005042:	9666                	add	a2,a2,s9
e0005044:	0000                	unimp
e0005046:	e550                	.2byte	0xe550
e0005048:	5646                	lw	a2,112(sp)
e000504a:	6236                	.2byte	0x6236
e000504c:	e5500313          	li	t1,-427
e0005050:	0000                	unimp
e0005052:	2640                	.2byte	0x2640
e0005054:	95600323          	sb	s6,-1722(zero) # fffff946 <fromhost+0x1ffef936>
e0005058:	56e6                	lw	a3,120(sp)
e000505a:	2646                	.2byte	0x2646
e000505c:	0000                	unimp
e000505e:	9660                	.2byte	0x9660
e0005060:	56e6                	lw	a3,120(sp)
e0005062:	ea96                	.2byte	0xea96
e0005064:	5646                	lw	a2,112(sp)
e0005066:	9666                	add	a2,a2,s9
e0005068:	0000                	unimp
e000506a:	e550                	.2byte	0xe550
e000506c:	5646                	lw	a2,112(sp)
e000506e:	3e46                	.2byte	0x3e46
e0005070:	e5500333          	.4byte	0xe5500333
e0005074:	0000                	unimp
e0005076:	2640                	.2byte	0x2640
e0005078:	dc700343          	.4byte	0xdc700343
e000507c:	56e6                	lw	a3,120(sp)
e000507e:	2646                	.2byte	0x2646
e0005080:	0000                	unimp
e0005082:	9660                	.2byte	0x9660
e0005084:	56e6                	lw	a3,120(sp)
e0005086:	ea96                	.2byte	0xea96
e0005088:	5646                	lw	a2,112(sp)
e000508a:	9666                	add	a2,a2,s9
e000508c:	0000                	unimp
e000508e:	e550                	.2byte	0xe550
e0005090:	5646                	lw	a2,112(sp)
e0005092:	31b6                	.2byte	0x31b6
e0005094:	e5500353          	.4byte	0xe5500353
e0005098:	0000                	unimp
e000509a:	2640                	.2byte	0x2640
e000509c:	2ff00363          	beq	zero,t6,e0005382 <_bss_end+0x14a>
e00050a0:	56e6                	lw	a3,120(sp)
e00050a2:	2646                	.2byte	0x2646
e00050a4:	0000                	unimp
e00050a6:	9660                	.2byte	0x9660
e00050a8:	56e6                	lw	a3,120(sp)
e00050aa:	ea96                	.2byte	0xea96
e00050ac:	5646                	lw	a2,112(sp)
e00050ae:	9666                	add	a2,a2,s9
e00050b0:	0000                	unimp
e00050b2:	e550                	.2byte	0xe550
e00050b4:	5646                	lw	a2,112(sp)
e00050b6:	6dc6                	.2byte	0x6dc6
e00050b8:	e5500373          	.4byte	0xe5500373
e00050bc:	0000                	unimp
e00050be:	2640                	.2byte	0x2640
e00050c0:	5e400383          	lb	t2,1508(zero) # 5e4 <_min_stack-0x1a1c>
e00050c4:	56e6                	lw	a3,120(sp)
e00050c6:	2646                	.2byte	0x2646
e00050c8:	0000                	unimp
e00050ca:	9660                	.2byte	0x9660
e00050cc:	56e6                	lw	a3,120(sp)
e00050ce:	ea96                	.2byte	0xea96
e00050d0:	5646                	lw	a2,112(sp)
e00050d2:	9666                	add	a2,a2,s9
e00050d4:	0000                	unimp
e00050d6:	e550                	.2byte	0xe550
e00050d8:	5646                	lw	a2,112(sp)
e00050da:	78a6                	.2byte	0x78a6
e00050dc:	e5500393          	li	t2,-427
e00050e0:	0000                	unimp
e00050e2:	2640                	.2byte	0x2640
e00050e4:	49100303          	lb	t1,1169(zero) # 491 <_min_stack-0x1b6f>
e00050e8:	56e6                	lw	a3,120(sp)
e00050ea:	3646                	.2byte	0x3646
e00050ec:	0000                	unimp
e00050ee:	9660                	.2byte	0x9660
e00050f0:	56e6                	lw	a3,120(sp)
e00050f2:	ea96                	.2byte	0xea96
e00050f4:	5646                	lw	a2,112(sp)
e00050f6:	9666                	add	a2,a2,s9
e00050f8:	0000                	unimp
e00050fa:	e550                	.2byte	0xe550
e00050fc:	84d6f727          	.4byte	0x84d6f727
e0005100:	24500313          	li	t1,581
e0005104:	0000                	unimp
e0005106:	3640                	.2byte	0x3640
e0005108:	a2300007          	.4byte	0xa2300007
e000510c:	2724                	.2byte	0x2724
e000510e:	000026f7          	.4byte	0x26f7
e0005112:	5720                	lw	s0,104(a4)
e0005114:	0000                	unimp
e0005116:	0230                	addi	a2,sp,264
e0005118:	0000                	unimp
e000511a:	0000                	unimp
e000511c:	0000                	unimp
e000511e:	0010                	.2byte	0x10
e0005120:	0000                	unimp
e0005122:	e6e0                	.2byte	0xe6e0
e0005124:	5f5e                	lw	t5,244(sp)
e0005126:	0000                	unimp
e0005128:	0000                	unimp
e000512a:	1000                	addi	s0,sp,32
e000512c:	0000                	unimp
e000512e:	9000                	.2byte	0x9000
e0005130:	04c4                	addi	s1,sp,580
e0005132:	0000                	unimp
e0005134:	0000                	unimp
e0005136:	b400                	.2byte	0xb400
e0005138:	0000                	unimp
e000513a:	c6e0                	sw	s0,76(a3)
e000513c:	11c0                	addi	s0,sp,228
e000513e:	000c                	.2byte	0xc
e0005140:	0000                	unimp
e0005142:	01c0                	addi	s0,sp,196
e0005144:	8dcf0003          	lb	zero,-1828(t5)
e0005148:	0f9f0003          	lb	zero,249(t5)
e000514c:	0000                	unimp
e000514e:	0f60                	addi	s0,sp,924
e0005150:	023f0003          	lb	zero,35(t5)
e0005154:	10bf0003          	lb	zero,267(t5)
e0005158:	0000                	unimp
e000515a:	1030                	addi	a2,sp,40
e000515c:	cc7f0003          	lb	zero,-825(t5)
e0005160:	12cf0003          	lb	zero,300(t5)
e0005164:	0000                	unimp
e0005166:	11b0                	addi	a2,sp,232
e0005168:	4e4f0003          	lb	zero,1252(t5)
e000516c:	143f0003          	lb	zero,323(t5)
e0005170:	0000                	unimp
e0005172:	1350                	addi	a2,sp,420
e0005174:	ee4f0003          	lb	zero,-284(t5)
e0005178:	166f0003          	lb	zero,358(t5)
e000517c:	0000                	unimp
e000517e:	1540                	addi	s0,sp,676
e0005180:	a75f0003          	lb	zero,-1419(t5)
e0005184:	181f0003          	lb	zero,385(t5)
e0005188:	0000                	unimp
e000518a:	1790                	addi	a2,sp,992
e000518c:	a8af0003          	lb	zero,-1398(t5)
e0005190:	19af0003          	lb	zero,410(t5)
e0005194:	0000                	unimp
e0005196:	18c0                	addi	s0,sp,116
e0005198:	e6ef0003          	lb	zero,-402(t5)
e000519c:	1aff0003          	lb	zero,431(t5)
e00051a0:	0000                	unimp
e00051a2:	1a30                	addi	a2,sp,312
e00051a4:	c91f0003          	lb	zero,-879(t5)
e00051a8:	1c8f0003          	lb	zero,456(t5)
e00051ac:	0000                	unimp
e00051ae:	1b80                	addi	s0,sp,496
e00051b0:	cc7f0003          	lb	zero,-825(t5)
e00051b4:	1e0f0003          	lb	zero,480(t5)
e00051b8:	0000                	unimp
e00051ba:	1d40                	addi	s0,sp,692
e00051bc:	cb2f0003          	lb	zero,-846(t5)
e00051c0:	1f8f0003          	lb	zero,504(t5)
e00051c4:	0000                	unimp
e00051c6:	1ec0                	addi	s0,sp,884
e00051c8:	d91f0003          	lb	zero,-623(t5)
e00051cc:	210f0003          	lb	zero,528(t5)
e00051d0:	0000                	unimp
e00051d2:	2040                	.2byte	0x2040
e00051d4:	7b2f0003          	lb	zero,1970(t5)
e00051d8:	228f0003          	lb	zero,552(t5)
e00051dc:	0000                	unimp
e00051de:	21c0                	.2byte	0x21c0
e00051e0:	5e4f0003          	lb	zero,1508(t5)
e00051e4:	240f0003          	lb	zero,576(t5)
e00051e8:	0000                	unimp
e00051ea:	2340                	.2byte	0x2340
e00051ec:	18af0003          	lb	zero,394(t5)
e00051f0:	258f0003          	lb	zero,600(t5)
e00051f4:	0000                	unimp
e00051f6:	24c0                	.2byte	0x24c0
e00051f8:	d91f0003          	lb	zero,-623(t5)
e00051fc:	270f0003          	lb	zero,624(t5)
e0005200:	0000                	unimp
e0005202:	2640                	.2byte	0x2640
e0005204:	ffff                	.2byte	0xffff
e0005206:	e75f 0003 ffff      	.byte	0x5f, 0xe7, 0x03, 0x00, 0xff, 0xff
e000520c:	0000                	unimp
e000520e:	27c0                	.2byte	0x27c0
e0005210:	6e28                	.2byte	0x6e28
e0005212:	6c75                	lui	s8,0x1d
e0005214:	296c                	.2byte	0x296c
e0005216:	0000                	unimp
e0005218:	5845                	li	a6,-15
e000521a:	54504543          	.4byte	0x54504543
e000521e:	4f49                	li	t5,18
e0005220:	214e                	.2byte	0x214e
e0005222:	2121                	jal	e000562a <_bss_end+0x3f2>
e0005224:	0a0d                	addi	s4,s4,3
	...

Disassembly of section .data:

e0005228 <remu10_table>:
char remu10_table[16] = {
e0005228:	0100                	addi	s0,sp,128
e000522a:	0202                	c.slli64	tp
e000522c:	05040303          	lb	t1,80(s0)
e0005230:	0605                	addi	a2,a2,1 # 16f50fd5 <fromhost+0x36f40fc5>
e0005232:	08080707          	.4byte	0x8080707
e0005236:	0009                	c.nop	2

Disassembly of section .stack:

e0008000 <_stack-0x2000>:
	...

Disassembly of section .debug_info:

00000000 <.debug_info>:
   0:	00000877          	.4byte	0x877
   4:	0005                	c.nop	1
   6:	0401                	addi	s0,s0,0
   8:	0000                	unimp
   a:	0000                	unimp
   c:	8a1f 0000 1d00      	.byte	0x1f, 0x8a, 0x00, 0x00, 0x00, 0x1d
  12:	0000                	unimp
  14:	0000                	unimp
  16:	003c                	addi	a5,sp,8
  18:	0000                	unimp
  1a:	0084                	addi	s1,sp,64
  1c:	e000                	.2byte	0xe000
  1e:	03d6                	slli	t2,t2,0x15
  20:	0000                	unimp
  22:	0000                	unimp
  24:	0000                	unimp
  26:	0000650f          	.4byte	0x650f
  2a:	0200                	addi	s0,sp,256
  2c:	1b28                	addi	a0,sp,440
  2e:	0032                	c.slli	zero,0xc
  30:	0000                	unimp
  32:	0420                	addi	s0,sp,520
  34:	000d                	c.nop	3
  36:	0000                	unimp
  38:	00006c0f          	.4byte	0x6c0f
  3c:	0200                	addi	s0,sp,256
  3e:	00261863          	bne	a2,sp,4e <_min_stack-0x1fb2>
  42:	0000                	unimp
  44:	0421                	addi	s0,s0,8
  46:	6905                	lui	s2,0x1
  48:	746e                	.2byte	0x746e
  4a:	0500                	addi	s0,sp,640
  4c:	0704                	addi	s1,sp,896
  4e:	00000153          	.4byte	0x153
  52:	0805                	addi	a6,a6,1
  54:	7e05                	lui	t3,0xfffe1
  56:	0001                	nop
  58:	0500                	addi	s0,sp,640
  5a:	0410                	addi	a2,sp,512
  5c:	000001bf 7e060105 	.8byte	0x7e060105000001bf
  64:	0000                	unimp
  66:	0500                	addi	s0,sp,640
  68:	0502                	c.slli64	a0
  6a:	01a4                	addi	s1,sp,200
  6c:	0000                	unimp
  6e:	0405                	addi	s0,s0,1
  70:	8305                	srli	a4,a4,0x1
  72:	0001                	nop
  74:	0500                	addi	s0,sp,640
  76:	0801                	addi	a6,a6,0
  78:	007c                	addi	a5,sp,12
  7a:	0000                	unimp
  7c:	0001ae0f          	.4byte	0x1ae0f
  80:	0300                	addi	s0,sp,384
  82:	1931                	addi	s2,s2,-20 # fec <_min_stack-0x1014>
  84:	0088                	addi	a0,sp,64
  86:	0000                	unimp
  88:	0205                	addi	tp,tp,1 # 1 <_min_stack-0x1fff>
  8a:	0000fa07          	.4byte	0xfa07
  8e:	0500                	addi	s0,sp,640
  90:	0704                	addi	s1,sp,896
  92:	014e                	slli	sp,sp,0x13
  94:	0000                	unimp
  96:	0805                	addi	a6,a6,1
  98:	00014907          	.4byte	0x14907
  9c:	1000                	addi	s0,sp,32
  9e:	00ad                	addi	ra,ra,11
  a0:	0000                	unimp
  a2:	00ad                	addi	ra,ra,11
  a4:	0000                	unimp
  a6:	4b11                	li	s6,4
  a8:	0000                	unimp
  aa:	0f00                	addi	s0,sp,912
  ac:	0500                	addi	s0,sp,640
  ae:	0801                	addi	a6,a6,0
  b0:	0085                	addi	ra,ra,1
  b2:	0000                	unimp
  b4:	ad22                	.2byte	0xad22
  b6:	0000                	unimp
  b8:	2300                	.2byte	0x2300
  ba:	010d                	addi	sp,sp,3
  bc:	0000                	unimp
  be:	8001                	c.srli64	s0
  c0:	9d06                	add	s10,s10,ra
  c2:	0000                	unimp
  c4:	0500                	addi	s0,sp,640
  c6:	00522803          	lw	a6,5(tp) # 5 <_min_stack-0x1ffb>
  ca:	24e0                	.2byte	0x24e0
  cc:	0134                	addi	a3,sp,136
  ce:	0000                	unimp
  d0:	5201                	li	tp,-32
  d2:	1c01                	addi	s8,s8,-32 # 1cfe0 <_stack_len+0x14fe0>
  d4:	0456                	slli	s0,s0,0x15
  d6:	e000                	.2byte	0xe000
  d8:	0004                	.2byte	0x4
  da:	0000                	unimp
  dc:	9c01                	.2byte	0x9c01
  de:	2818                	.2byte	0x2818
  e0:	0001                	nop
  e2:	4600                	lw	s0,8(a2)
  e4:	4401                	li	s0,0
  e6:	0000                	unimp
  e8:	2a00                	.2byte	0x2a00
  ea:	0004                	.2byte	0x4
  ec:	2ce0                	.2byte	0x2ce0
  ee:	0000                	unimp
  f0:	0100                	addi	s0,sp,128
  f2:	689c                	.2byte	0x689c
  f4:	0001                	nop
  f6:	2500                	.2byte	0x2500
  f8:	46010073          	.4byte	0x46010073
  fc:	1601                	addi	a2,a2,-32
  fe:	0168                	addi	a0,sp,140
 100:	0000                	unimp
 102:	000c                	.2byte	0xc
 104:	0000                	unimp
 106:	6926                	.2byte	0x6926
 108:	0100                	addi	s0,sp,128
 10a:	0148                	addi	a0,sp,132
 10c:	00004407          	.4byte	0x4407
 110:	3c00                	.2byte	0x3c00
 112:	0000                	unimp
 114:	2700                	.2byte	0x2700
 116:	00000457          	.4byte	0x457
 11a:	0440                	addi	s0,sp,516
 11c:	e000                	.2byte	0xe000
 11e:	0004                	.2byte	0x4
 120:	0000                	unimp
 122:	4d01                	li	s10,0
 124:	0301                	addi	t1,t1,0 # 4000 <_min_stack+0x2000>
 126:	00000143          	.4byte	0x143
 12a:	6801                	.2byte	0x6801
 12c:	0004                	.2byte	0x4
 12e:	6a00                	.2byte	0x6a00
 130:	0000                	unimp
 132:	0700                	addi	s0,sp,896
 134:	0444                	addi	s1,sp,516
 136:	e000                	.2byte	0xe000
 138:	04c8                	addi	a0,sp,580
 13a:	0000                	unimp
 13c:	0106                	slli	sp,sp,0x1
 13e:	015a                	slli	sp,sp,0x16
 140:	003a                	c.slli	zero,0xe
 142:	2800                	.2byte	0x2800
 144:	00000457          	.4byte	0x457
 148:	0452                	slli	s0,s0,0x14
 14a:	e000                	.2byte	0xe000
 14c:	0004                	.2byte	0x4
 14e:	0000                	unimp
 150:	4b01                	li	s6,0
 152:	0501                	addi	a0,a0,0
 154:	6801                	.2byte	0x6801
 156:	0004                	.2byte	0x4
 158:	7700                	.2byte	0x7700
 15a:	0000                	unimp
 15c:	1200                	addi	s0,sp,288
 15e:	0454                	addi	a3,sp,516
 160:	e000                	.2byte	0xe000
 162:	04c8                	addi	a0,sp,580
 164:	0000                	unimp
 166:	0000                	unimp
 168:	0000b413          	sltiu	s0,ra,0
 16c:	1800                	addi	s0,sp,48
 16e:	00000193          	li	gp,0
 172:	00440137          	lui	sp,0x440
 176:	0000                	unimp
 178:	02c8                	addi	a0,sp,324
 17a:	e000                	.2byte	0xe000
 17c:	0158                	addi	a4,sp,132
 17e:	0000                	unimp
 180:	9c01                	.2byte	0x9c01
 182:	0294                	addi	a3,sp,320
 184:	0000                	unimp
 186:	2d29                	jal	7a0 <_min_stack-0x1860>
 188:	0001                	nop
 18a:	0100                	addi	s0,sp,128
 18c:	68180137          	lui	sp,0x68180
 190:	0001                	nop
 192:	8800                	.2byte	0x8800
 194:	0000                	unimp
 196:	2a00                	.2byte	0x2a00
 198:	7019                	c.lui	zero,0xfffe6
 19a:	01390063          	beq	s2,s3,19a <_min_stack-0x1e66>
 19e:	00004407          	.4byte	0x4407
 1a2:	2b00                	.2byte	0x2b00
 1a4:	6176                	.2byte	0x6176
 1a6:	0100                	addi	s0,sp,128
 1a8:	013a                	slli	sp,sp,0xe
 1aa:	0000380b          	.4byte	0x380b
 1ae:	0300                	addi	s0,sp,384
 1b0:	ac91                	j	404 <_min_stack-0x1bfc>
 1b2:	2c7f                	.2byte	0x2c7f
 1b4:	0294                	addi	a3,sp,320
 1b6:	0000                	unimp
 1b8:	02f2                	slli	t0,t0,0x1c
 1ba:	e000                	.2byte	0xe000
 1bc:	00b6                	slli	ra,ra,0xd
 1be:	0000                	unimp
 1c0:	3e01                	jal	fffffcd0 <fromhost+0x1ffefcc0>
 1c2:	0801                	addi	a6,a6,0
 1c4:	a314                	.2byte	0xa314
 1c6:	0002                	c.slli64	zero
 1c8:	0100                	addi	s0,sp,128
 1ca:	02b9                	addi	t0,t0,14 # c207ef62 <tohost+0xc205ef5a>
 1cc:	0000                	unimp
 1ce:	00a2                	slli	ra,ra,0x8
 1d0:	0000                	unimp
 1d2:	ae01                	j	4e2 <_min_stack-0x1b1e>
 1d4:	0002                	c.slli64	zero
 1d6:	3d00                	.2byte	0x3d00
 1d8:	0001                	nop
 1da:	1a00                	addi	s0,sp,304
 1dc:	00b6                	slli	ra,ra,0xd
 1de:	0000                	unimp
 1e0:	0002c303          	lbu	t1,0(t0)
 1e4:	fc00                	.2byte	0xfc00
 1e6:	0001                	nop
 1e8:	0300                	addi	s0,sp,384
 1ea:	02ce                	slli	t0,t0,0x13
 1ec:	0000                	unimp
 1ee:	024d                	addi	tp,tp,19 # 13 <_min_stack-0x1fed>
 1f0:	0000                	unimp
 1f2:	0002d903          	lhu	s2,0(t0)
 1f6:	9e00                	.2byte	0x9e00
 1f8:	0002                	c.slli64	zero
 1fa:	1500                	addi	s0,sp,672
 1fc:	000002e3          	beqz	zero,a00 <_min_stack-0x1600>
 200:	7fa89103          	lh	sp,2042(a7)
 204:	ee2d                	bnez	a2,27e <_min_stack-0x1d82>
 206:	0002                	c.slli64	zero
 208:	1600                	addi	s0,sp,800
 20a:	0004                	.2byte	0x4
 20c:	1be0                	addi	s0,sp,508
 20e:	000002f7          	.4byte	0x2f7
 212:	00c9                	addi	ra,ra,18
 214:	0000                	unimp
 216:	0222                	slli	tp,tp,0x8
 218:	0000                	unimp
 21a:	f815                	bnez	s0,14e <_min_stack-0x1eb2>
 21c:	0002                	c.slli64	zero
 21e:	0100                	addi	s0,sp,128
 220:	005a                	c.slli	zero,0x16
 222:	352e                	.2byte	0x352e
 224:	0004                	.2byte	0x4
 226:	1600                	addi	s0,sp,800
 228:	0004                	.2byte	0x4
 22a:	dce0                	sw	s0,124(s1)
 22c:	0000                	unimp
 22e:	0100                	addi	s0,sp,128
 230:	012e                	slli	sp,sp,0xb
 232:	00026b07          	.4byte	0x26b07
 236:	0100                	addi	s0,sp,128
 238:	0442                	slli	s0,s0,0x10
 23a:	0000                	unimp
 23c:	02d8                	addi	a4,sp,324
 23e:	0000                	unimp
 240:	4d01                	li	s10,0
 242:	0004                	.2byte	0x4
 244:	e500                	.2byte	0xe500
 246:	0002                	c.slli64	zero
 248:	0800                	addi	s0,sp,16
 24a:	00000457          	.4byte	0x457
 24e:	0416                	slli	s0,s0,0x5
 250:	e000                	.2byte	0xe000
 252:	00dc                	addi	a5,sp,68
 254:	0000                	unimp
 256:	0198                	addi	a4,sp,192
 258:	0468                	addi	a0,sp,524
 25a:	0000                	unimp
 25c:	02e5                	addi	t0,t0,25
 25e:	0000                	unimp
 260:	1e12                	slli	t3,t3,0x24
 262:	0004                	.2byte	0x4
 264:	c8e0                	sw	s0,84(s1)
 266:	0004                	.2byte	0x4
 268:	0000                	unimp
 26a:	1c00                	addi	s0,sp,560
 26c:	0386                	slli	t2,t2,0x1
 26e:	e000                	.2byte	0xe000
 270:	059f 0000 0280      	.byte	0x9f, 0x05, 0x00, 0x00, 0x80, 0x02
 276:	0000                	unimp
 278:	0003db0b          	.4byte	0x3db0b
 27c:	0100                	addi	s0,sp,128
 27e:	0030                	addi	a2,sp,8
 280:	0003b207          	.4byte	0x3b207
 284:	d6e0                	sw	s0,108(a3)
 286:	0006                	c.slli	zero,0x1
 288:	0b00                	addi	s0,sp,400
 28a:	032d                	addi	t1,t1,11
 28c:	0000                	unimp
 28e:	3001                	jal	fffffa8e <fromhost+0x1ffefa7e>
 290:	0000                	unimp
 292:	0000                	unimp
 294:	8c09                	sub	s0,s0,a0
 296:	0001                	nop
 298:	f300                	.2byte	0xf300
 29a:	440c                	lw	a1,8(s0)
 29c:	0000                	unimp
 29e:	0400                	addi	s0,sp,512
 2a0:	04000003          	lb	zero,64(zero) # 40 <_min_stack-0x1fc0>
 2a4:	0074756f          	jal	a0,47aaa <tohost+0x27aa2>
 2a8:	03041af3          	csrrw	s5,0x30,s0
 2ac:	0000                	unimp
 2ae:	2d0a                	.2byte	0x2d0a
 2b0:	0001                	nop
 2b2:	f300                	.2byte	0xf300
 2b4:	0001682b          	.4byte	0x1682b
 2b8:	0400                	addi	s0,sp,512
 2ba:	6176                	.2byte	0x6176
 2bc:	f300                	.2byte	0xf300
 2be:	0000383b          	.4byte	0x383b
 2c2:	1600                	addi	s0,sp,800
 2c4:	0122                	slli	sp,sp,0x8
 2c6:	0000                	unimp
 2c8:	10f5                	addi	ra,ra,-3
 2ca:	0044                	addi	s1,sp,4
 2cc:	0000                	unimp
 2ce:	7002                	.2byte	0x7002
 2d0:	6461                	lui	s0,0x18
 2d2:	f500                	.2byte	0xf500
 2d4:	00004417          	auipc	s0,0x4
 2d8:	0200                	addi	s0,sp,256
 2da:	6370                	.2byte	0x6370
 2dc:	f600                	.2byte	0xf600
 2de:	4410                	lw	a2,8(s0)
 2e0:	0000                	unimp
 2e2:	0200                	addi	s0,sp,256
 2e4:	00726373          	csrrsi	t1,0x7,4
 2e8:	030e08f7          	.4byte	0x30e08f7
 2ec:	0000                	unimp
 2ee:	74756f2f          	.4byte	0x74756f2f
 2f2:	0100                	addi	s0,sp,128
 2f4:	012d                	addi	sp,sp,11 # 6818000b <tohost+0x68160003>
 2f6:	1701                	addi	a4,a4,-32 # 389fffe0 <tohost+0x389dffd8>
 2f8:	7319                	lui	t1,0xfffe6
 2fa:	1000                	addi	s0,sp,32
 2fc:	1801                	addi	a6,a6,-32
 2fe:	0309                	addi	t1,t1,2 # fffe6002 <fromhost+0x1ffd5ff2>
 300:	0000                	unimp
 302:	0000                	unimp
 304:	00030913          	mv	s2,t1
 308:	1300                	addi	s0,sp,416
 30a:	00ad                	addi	ra,ra,11
 30c:	0000                	unimp
 30e:	ad10                	.2byte	0xad10
 310:	0000                	unimp
 312:	1e00                	addi	s0,sp,816
 314:	11000003          	lb	zero,272(zero) # 110 <_min_stack-0x1ef0>
 318:	0000004b          	.4byte	0x4b
 31c:	0001                	nop
 31e:	5d09                	li	s10,-30
 320:	0000                	unimp
 322:	b900                	.2byte	0xb900
 324:	440c                	lw	a1,8(s0)
 326:	0000                	unimp
 328:	bc00                	.2byte	0xbc00
 32a:	04000003          	lb	zero,64(zero) # 40 <_min_stack-0x1fc0>
 32e:	0074756f          	jal	a0,47b34 <tohost+0x27b2c>
 332:	1bb9                	addi	s7,s7,-18
 334:	0304                	addi	s1,sp,384
 336:	0000                	unimp
 338:	6904                	.2byte	0x6904
 33a:	b900                	.2byte	0xb900
 33c:	4424                	lw	s1,72(s0)
 33e:	0000                	unimp
 340:	0400                	addi	s0,sp,512
 342:	0062                	c.slli	zero,0x18
 344:	2bb9                	jal	8a2 <_min_stack-0x175e>
 346:	0044                	addi	s1,sp,4
 348:	0000                	unimp
 34a:	7304                	.2byte	0x7304
 34c:	32b90067          	jr	811(s2)
 350:	0044                	addi	s1,sp,4
 352:	0000                	unimp
 354:	220a                	.2byte	0x220a
 356:	0001                	nop
 358:	b900                	.2byte	0xb900
 35a:	443a                	lw	s0,140(sp)
 35c:	0000                	unimp
 35e:	0400                	addi	s0,sp,512
 360:	6170                	.2byte	0x6170
 362:	0064                	addi	s1,sp,12
 364:	45b9                	li	a1,14
 366:	0044                	addi	s1,sp,4
 368:	0000                	unimp
 36a:	b70a                	.2byte	0xb70a
 36c:	0001                	nop
 36e:	b900                	.2byte	0xb900
 370:	0000ad4f          	.4byte	0xad4f
 374:	1600                	addi	s0,sp,800
 376:	0160                	addi	s0,sp,140
 378:	0000                	unimp
 37a:	03bc08bb          	.4byte	0x3bc08bb
 37e:	0000                	unimp
 380:	7302                	.2byte	0x7302
 382:	bc00                	.2byte	0xbc00
 384:	0912                	slli	s2,s2,0x4
 386:	02000003          	lb	zero,32(zero) # 20 <_min_stack-0x1fe0>
 38a:	656e                	.2byte	0x656e
 38c:	10bd0067          	jr	267(s10) # 6330410b <tohost+0x632e4103>
 390:	0044                	addi	s1,sp,4
 392:	0000                	unimp
 394:	7002                	.2byte	0x7002
 396:	19bd0063          	beq	s10,s11,516 <_min_stack-0x1aea>
 39a:	0044                	addi	s1,sp,4
 39c:	0000                	unimp
 39e:	7402                	.2byte	0x7402
 3a0:	be00                	.2byte	0xbe00
 3a2:	4b10                	lw	a2,16(a4)
 3a4:	0000                	unimp
 3a6:	0200                	addi	s0,sp,256
 3a8:	0075                	c.nop	29
 3aa:	12be                	slli	t0,t0,0x2f
 3ac:	0000004b          	.4byte	0x4b
 3b0:	00740217          	auipc	tp,0x740
 3b4:	0bd4                	addi	a3,sp,468
 3b6:	0044                	addi	s1,sp,4
 3b8:	0000                	unimp
 3ba:	0000                	unimp
 3bc:	ad10                	.2byte	0xad10
 3be:	0000                	unimp
 3c0:	cc00                	sw	s0,24(s0)
 3c2:	11000003          	lb	zero,272(zero) # 110 <_min_stack-0x1ef0>
 3c6:	0000004b          	.4byte	0x4b
 3ca:	001f d909 0001      	.byte	0x1f, 0x00, 0x09, 0xd9, 0x01, 0x00
 3d0:	9b00                	.2byte	0x9b00
 3d2:	440c                	lw	a1,8(s0)
 3d4:	0000                	unimp
 3d6:	3500                	.2byte	0x3500
 3d8:	0004                	.2byte	0x4
 3da:	0400                	addi	s0,sp,512
 3dc:	0074756f          	jal	a0,47be2 <tohost+0x27bda>
 3e0:	03041b9b          	.4byte	0x3041b9b
 3e4:	0000                	unimp
 3e6:	4f0a                	lw	t5,128(sp)
 3e8:	0000                	unimp
 3ea:	9b00                	.2byte	0x9b00
 3ec:	682c                	.2byte	0x682c
 3ee:	0001                	nop
 3f0:	0a00                	addi	s0,sp,272
 3f2:	0122                	slli	sp,sp,0x8
 3f4:	0000                	unimp
 3f6:	0044389b          	.4byte	0x44389b
 3fa:	0000                	unimp
 3fc:	7004                	.2byte	0x7004
 3fe:	6461                	lui	s0,0x18
 400:	9b00                	.2byte	0x9b00
 402:	00004443          	.4byte	0x4443
 406:	0200                	addi	s0,sp,256
 408:	6370                	.2byte	0x6370
 40a:	9d00                	.2byte	0x9d00
 40c:	4410                	lw	a2,8(s0)
 40e:	0000                	unimp
 410:	1600                	addi	s0,sp,800
 412:	0074                	addi	a3,sp,12
 414:	0000                	unimp
 416:	189d                	addi	a7,a7,-25
 418:	0044                	addi	s1,sp,4
 41a:	0000                	unimp
 41c:	656c0217          	auipc	tp,0x656c0
 420:	006e                	c.slli	zero,0x1b
 422:	12a0                	addi	s0,sp,360
 424:	0044                	addi	s1,sp,4
 426:	0000                	unimp
 428:	7002                	.2byte	0x7002
 42a:	7274                	.2byte	0x7274
 42c:	a100                	.2byte	0xa100
 42e:	681a                	.2byte	0x681a
 430:	0001                	nop
 432:	0000                	unimp
 434:	3000                	.2byte	0x3000
 436:	001f 0000 9001      	.byte	0x1f, 0x00, 0x00, 0x00, 0x01, 0x90
 43c:	010d                	addi	sp,sp,3
 43e:	00000457          	.4byte	0x457
 442:	7304                	.2byte	0x7304
 444:	7274                	.2byte	0x7274
 446:	9000                	.2byte	0x9000
 448:	041f 0003 0400      	.byte	0x1f, 0x04, 0x03, 0x00, 0x00, 0x04
 44e:	28900063          	beq	zero,s1,6ce <_min_stack-0x1932>
 452:	0044                	addi	s1,sp,4
 454:	0000                	unimp
 456:	3100                	.2byte	0x3100
 458:	011a                	slli	sp,sp,0x6
 45a:	0000                	unimp
 45c:	8a01                	andi	a2,a2,0
 45e:	4405                	li	s0,1
 460:	0000                	unimp
 462:	0100                	addi	s0,sp,128
 464:	0472                	slli	s0,s0,0x1c
 466:	0000                	unimp
 468:	7304                	.2byte	0x7304
 46a:	8a00                	.2byte	0x8a00
 46c:	4411                	li	s0,4
 46e:	0000                	unimp
 470:	0000                	unimp
 472:	6a09                	lui	s4,0x2
 474:	0001                	nop
 476:	8500                	.2byte	0x8500
 478:	4b11                	li	s6,4
 47a:	0000                	unimp
 47c:	8b00                	.2byte	0x8b00
 47e:	0004                	.2byte	0x4
 480:	0400                	addi	s0,sp,512
 482:	006e                	c.slli	zero,0x1b
 484:	2185                	jal	8e4 <_min_stack-0x171c>
 486:	0000004b          	.4byte	0x4b
 48a:	0900                	addi	s0,sp,144
 48c:	0056                	c.slli	zero,0x15
 48e:	0000                	unimp
 490:	004b1173          	csrrw	sp,uie,s6
 494:	0000                	unimp
 496:	04b6                	slli	s1,s1,0xd
 498:	0000                	unimp
 49a:	6e04                	.2byte	0x6e04
 49c:	7300                	.2byte	0x7300
 49e:	4b21                	li	s6,8
 4a0:	0000                	unimp
 4a2:	0200                	addi	s0,sp,256
 4a4:	0071                	c.nop	28
 4a6:	0c74                	addi	a3,sp,540
 4a8:	0000004b          	.4byte	0x4b
 4ac:	7202                	.2byte	0x7202
 4ae:	7400                	.2byte	0x7400
 4b0:	00004b0f          	.4byte	0x4b0f
 4b4:	0000                	unimp
 4b6:	2a32                	.2byte	0x2a32
 4b8:	0000                	unimp
 4ba:	0100                	addi	s0,sp,128
 4bc:	0655                	addi	a2,a2,21
 4be:	02a2                	slli	t0,t0,0x8
 4c0:	e000                	.2byte	0xe000
 4c2:	000e                	c.slli	zero,0x3
 4c4:	0000                	unimp
 4c6:	9c01                	.2byte	0x9c01
 4c8:	cb0c                	sw	a1,16(a4)
 4ca:	0001                	nop
 4cc:	4d00                	lw	s0,24(a0)
 4ce:	00ea                	slli	ra,ra,0x1a
 4d0:	e000                	.2byte	0xe000
 4d2:	0010                	.2byte	0x10
 4d4:	0000                	unimp
 4d6:	9c01                	.2byte	0x9c01
 4d8:	04e9                	addi	s1,s1,26
 4da:	0000                	unimp
 4dc:	01006333          	or	t1,zero,a6
 4e0:	1f4d                	addi	t5,t5,-13
 4e2:	00b4                	addi	a3,sp,72
 4e4:	0000                	unimp
 4e6:	5a01                	li	s4,-32
 4e8:	3400                	.2byte	0x3400
 4ea:	0000                	unimp
 4ec:	0000                	unimp
 4ee:	4701                	li	a4,0
 4f0:	ad06                	.2byte	0xad06
 4f2:	0000                	unimp
 4f4:	d800                	sw	s0,48(s0)
 4f6:	0000                	unimp
 4f8:	12e0                	addi	s0,sp,364
 4fa:	0000                	unimp
 4fc:	0100                	addi	s0,sp,128
 4fe:	0c9c                	addi	a5,sp,592
 500:	019a                	slli	gp,gp,0x6
 502:	0000                	unimp
 504:	b235                	j	fffffe30 <fromhost+0x1ffefe20>
 506:	0000                	unimp
 508:	26e0                	.2byte	0x26e0
 50a:	0000                	unimp
 50c:	0100                	addi	s0,sp,128
 50e:	3b9c                	.2byte	0x3b9c
 510:	0005                	c.nop	1
 512:	1d00                	addi	s0,sp,688
 514:	00727473          	csrrci	s0,0x7,4
 518:	681c                	.2byte	0x681c
 51a:	0001                	nop
 51c:	f800                	.2byte	0xf800
 51e:	0002                	c.slli64	zero
 520:	1d00                	addi	s0,sp,688
 522:	656c                	.2byte	0x656c
 524:	006e                	c.slli	zero,0x1b
 526:	4b2e                	lw	s6,200(sp)
 528:	0000                	unimp
 52a:	0f00                	addi	s0,sp,912
 52c:	35000003          	lb	zero,848(zero) # 350 <_min_stack-0x1cb0>
 530:	0069                	c.nop	26
 532:	3601                	jal	32 <_min_stack-0x1fce>
 534:	4b10                	lw	a2,16(a4)
 536:	0000                	unimp
 538:	0000                	unimp
 53a:	0c00                	addi	s0,sp,528
 53c:	0171                	addi	sp,sp,28
 53e:	0000                	unimp
 540:	842a                	mv	s0,a0
 542:	0000                	unimp
 544:	2ee0                	.2byte	0x2ee0
 546:	0000                	unimp
 548:	0100                	addi	s0,sp,128
 54a:	779c                	.2byte	0x779c
 54c:	0005                	c.nop	1
 54e:	3600                	.2byte	0x3600
 550:	01e1                	addi	gp,gp,24 # f6d66018 <fromhost+0x16d56008>
 552:	0000                	unimp
 554:	2a01                	jal	664 <_min_stack-0x199c>
 556:	00004417          	auipc	s0,0x4
 55a:	0100                	addi	s0,sp,128
 55c:	375a                	.2byte	0x375a
 55e:	00ee                	slli	ra,ra,0x1b
 560:	0000                	unimp
 562:	2a01                	jal	672 <_min_stack-0x198e>
 564:	7c28                	.2byte	0x7c28
 566:	0000                	unimp
 568:	3300                	.2byte	0x3300
 56a:	02000003          	lb	zero,32(zero) # 20 <_min_stack-0x1fe0>
 56e:	0069                	c.nop	26
 570:	004b102b          	.4byte	0x4b102b
 574:	0000                	unimp
 576:	0c00                	addi	s0,sp,528
 578:	003c                	addi	a5,sp,8
 57a:	0000                	unimp
 57c:	0004201b          	.4byte	0x4201b
 580:	0ae0                	addi	s0,sp,348
 582:	0000                	unimp
 584:	0100                	addi	s0,sp,128
 586:	9f9c                	.2byte	0x9f9c
 588:	0005                	c.nop	1
 58a:	3800                	.2byte	0x3800
 58c:	042a                	slli	s0,s0,0xa
 58e:	e000                	.2byte	0xe000
 590:	016d                	addi	sp,sp,27
 592:	0000                	unimp
 594:	0106                	slli	sp,sp,0x1
 596:	055a                	slli	a0,a0,0x16
 598:	00521803          	lh	a6,5(tp) # 656c0421 <tohost+0x656a0419>
 59c:	00e0                	addi	s0,sp,76
 59e:	1e00                	addi	s0,sp,816
 5a0:	03cc                	addi	a1,sp,452
 5a2:	0000                	unimp
 5a4:	00fa                	slli	ra,ra,0x1e
 5a6:	e000                	.2byte	0xe000
 5a8:	00a6                	slli	ra,ra,0x9
 5aa:	0000                	unimp
 5ac:	9c01                	.2byte	0x9c01
 5ae:	06d6                	slli	a3,a3,0x15
 5b0:	0000                	unimp
 5b2:	e601                	bnez	a2,5ba <_min_stack-0x1a46>
 5b4:	4d000003          	lb	zero,1232(zero) # 4d0 <_min_stack-0x1b30>
 5b8:	01000003          	lb	zero,16(zero) # 10 <_min_stack-0x1ff0>
 5bc:	03f1                	addi	t2,t2,28
 5be:	0000                	unimp
 5c0:	00000377          	.4byte	0x377
 5c4:	fc01                	bnez	s0,4dc <_min_stack-0x1b24>
 5c6:	dd000003          	lb	zero,-560(zero) # fffffdd0 <fromhost+0x1ffefdc0>
 5ca:	03000003          	lb	zero,48(zero) # 30 <_min_stack-0x1fd0>
 5ce:	00000407          	.4byte	0x407
 5d2:	0410                	addi	a2,sp,512
 5d4:	0000                	unimp
 5d6:	00041103          	lh	sp,0(s0) # 4556 <_min_stack+0x2556>
 5da:	2800                	.2byte	0x2800
 5dc:	0004                	.2byte	0x4
 5de:	1400                	addi	s0,sp,544
 5e0:	000003db          	.4byte	0x3db
 5e4:	00041c1b          	.4byte	0x41c1b
 5e8:	0c00                	addi	s0,sp,528
 5ea:	0000                	unimp
 5ec:	0400                	addi	s0,sp,512
 5ee:	0006                	c.slli	zero,0x1
 5f0:	0300                	addi	s0,sp,384
 5f2:	041d                	addi	s0,s0,7
 5f4:	0000                	unimp
 5f6:	00000443          	.4byte	0x443
 5fa:	00042803          	lw	a6,0(s0)
 5fe:	5a00                	lw	s0,48(a2)
 600:	0004                	.2byte	0x4
 602:	0000                	unimp
 604:	350d                	jal	426 <_min_stack-0x1bda>
 606:	0004                	.2byte	0x4
 608:	4000                	lw	s0,0(s0)
 60a:	0001                	nop
 60c:	28e0                	.2byte	0x28e0
 60e:	0000                	unimp
 610:	a900                	.2byte	0xa900
 612:	00064a07          	.4byte	0x64a07
 616:	0100                	addi	s0,sp,128
 618:	0442                	slli	s0,s0,0x10
 61a:	0000                	unimp
 61c:	0496                	slli	s1,s1,0x5
 61e:	0000                	unimp
 620:	4d0e                	lw	s10,192(sp)
 622:	0004                	.2byte	0x4
 624:	0800                	addi	s0,sp,16
 626:	00000457          	.4byte	0x457
 62a:	0140                	addi	s0,sp,132
 62c:	e000                	.2byte	0xe000
 62e:	0000003b          	.4byte	0x3b
 632:	0e98                	addi	a4,sp,848
 634:	0468                	addi	a0,sp,524
 636:	0000                	unimp
 638:	00014e07          	.4byte	0x14e07
 63c:	c8e0                	sw	s0,84(s1)
 63e:	0004                	.2byte	0x4
 640:	0600                	addi	s0,sp,768
 642:	5a01                	li	s4,-32
 644:	8302                	jr	t1
 646:	0000                	unimp
 648:	0000                	unimp
 64a:	3539                	jal	458 <_min_stack-0x1ba8>
 64c:	0004                	.2byte	0x4
 64e:	6400                	.2byte	0x6400
 650:	0001                	nop
 652:	02e0                	addi	s0,sp,332
 654:	0000                	unimp
 656:	0100                	addi	s0,sp,128
 658:	05ae                	slli	a1,a1,0xb
 65a:	0694                	addi	a3,sp,832
 65c:	0000                	unimp
 65e:	4201                	li	tp,0
 660:	0004                	.2byte	0x4
 662:	a300                	.2byte	0xa300
 664:	0004                	.2byte	0x4
 666:	0100                	addi	s0,sp,128
 668:	044d                	addi	s0,s0,19
 66a:	0000                	unimp
 66c:	04b0                	addi	a2,sp,584
 66e:	0000                	unimp
 670:	573a                	lw	a4,172(sp)
 672:	0004                	.2byte	0x4
 674:	6400                	.2byte	0x6400
 676:	0001                	nop
 678:	02e0                	addi	s0,sp,332
 67a:	0000                	unimp
 67c:	0100                	addi	s0,sp,128
 67e:	0598                	addi	a4,sp,704
 680:	6801                	.2byte	0x6801
 682:	0004                	.2byte	0x4
 684:	b000                	.2byte	0xb000
 686:	0004                	.2byte	0x4
 688:	1200                	addi	s0,sp,288
 68a:	0166                	slli	sp,sp,0x19
 68c:	e000                	.2byte	0xe000
 68e:	04c8                	addi	a0,sp,580
 690:	0000                	unimp
 692:	0000                	unimp
 694:	3508                	.2byte	0x3508
 696:	0004                	.2byte	0x4
 698:	7600                	.2byte	0x7600
 69a:	0001                	nop
 69c:	4ee0                	lw	s0,92(a3)
 69e:	0000                	unimp
 6a0:	b200                	.2byte	0xb200
 6a2:	4201                	li	tp,0
 6a4:	0004                	.2byte	0x4
 6a6:	c100                	sw	s0,0(a0)
 6a8:	0004                	.2byte	0x4
 6aa:	0e00                	addi	s0,sp,784
 6ac:	044d                	addi	s0,s0,19
 6ae:	0000                	unimp
 6b0:	5708                	lw	a0,40(a4)
 6b2:	0004                	.2byte	0x4
 6b4:	7600                	.2byte	0x7600
 6b6:	0001                	nop
 6b8:	61e0                	.2byte	0x61e0
 6ba:	0000                	unimp
 6bc:	9800                	.2byte	0x9800
 6be:	680e                	.2byte	0x680e
 6c0:	0004                	.2byte	0x4
 6c2:	0700                	addi	s0,sp,896
 6c4:	019c                	addi	a5,sp,192
 6c6:	e000                	.2byte	0xe000
 6c8:	04c8                	addi	a0,sp,580
 6ca:	0000                	unimp
 6cc:	0106                	slli	sp,sp,0x1
 6ce:	025a                	slli	tp,tp,0x16
 6d0:	0079                	c.nop	30
 6d2:	0000                	unimp
 6d4:	0000                	unimp
 6d6:	1e1e                	slli	t3,t3,0x27
 6d8:	a0000003          	lb	zero,-1536(zero) # fffffa00 <fromhost+0x1ffef9f0>
 6dc:	0001                	nop
 6de:	02e0                	addi	s0,sp,332
 6e0:	0001                	nop
 6e2:	0100                	addi	s0,sp,128
 6e4:	519c                	lw	a5,32(a1)
 6e6:	0008                	.2byte	0x8
 6e8:	0100                	addi	s0,sp,128
 6ea:	0338                	addi	a4,sp,392
 6ec:	0000                	unimp
 6ee:	04ce                	slli	s1,s1,0x13
 6f0:	0000                	unimp
 6f2:	4101                	li	sp,0
 6f4:	1a000003          	lb	zero,416(zero) # 1a0 <_min_stack-0x1e60>
 6f8:	0005                	c.nop	1
 6fa:	0100                	addi	s0,sp,128
 6fc:	034a                	slli	t1,t1,0x12
 6fe:	0000                	unimp
 700:	0571                	addi	a0,a0,28
 702:	0000                	unimp
 704:	5401                	li	s0,-32
 706:	c8000003          	lb	zero,-896(zero) # fffffc80 <fromhost+0x1ffefc70>
 70a:	0005                	c.nop	1
 70c:	0100                	addi	s0,sp,128
 70e:	035f 0000 060f      	.byte	0x5f, 0x03, 0x00, 0x00, 0x0f, 0x06
 714:	0000                	unimp
 716:	6a01                	.2byte	0x6a01
 718:	59000003          	lb	zero,1424(zero) # 590 <_min_stack-0x1a70>
 71c:	0006                	c.slli	zero,0x1
 71e:	1500                	addi	s0,sp,672
 720:	0375                	addi	t1,t1,29
 722:	0000                	unimp
 724:	9102                	jalr	sp
 726:	0350                	addi	a2,sp,388
 728:	0380                	addi	s0,sp,448
 72a:	0000                	unimp
 72c:	06a5                	addi	a3,a3,9
 72e:	0000                	unimp
 730:	00038903          	lb	s2,0(t2)
 734:	e100                	.2byte	0xe100
 736:	0006                	c.slli	zero,0x1
 738:	0300                	addi	s0,sp,384
 73a:	0394                	addi	a3,sp,448
 73c:	0000                	unimp
 73e:	00000733          	add	a4,zero,zero
 742:	00039e3b          	.4byte	0x39e3b
 746:	0300                	addi	s0,sp,384
 748:	000003a7          	.4byte	0x3a7
 74c:	0000076f          	jal	a4,74c <_min_stack-0x18b4>
 750:	2d14                	.2byte	0x2d14
 752:	0d000003          	lb	zero,208(zero) # d0 <_min_stack-0x1f30>
 756:	0472                	slli	s0,s0,0x1c
 758:	0000                	unimp
 75a:	01e8                	addi	a0,sp,204
 75c:	e000                	.2byte	0xe000
 75e:	0074                	addi	a3,sp,12
 760:	0000                	unimp
 762:	0edf 0772 0000      	.byte	0xdf, 0x0e, 0x72, 0x07, 0x00, 0x00
 768:	8101                	c.srli64	a0
 76a:	0004                	.2byte	0x4
 76c:	d800                	sw	s0,48(s0)
 76e:	00000007          	.4byte	0x7
 772:	8b0d                	andi	a4,a4,3
 774:	0004                	.2byte	0x4
 776:	f800                	.2byte	0xf800
 778:	0001                	nop
 77a:	90e0                	.2byte	0x90e0
 77c:	0000                	unimp
 77e:	e000                	.2byte	0xe000
 780:	0007a70b          	.4byte	0x7a70b
 784:	0100                	addi	s0,sp,128
 786:	049a                	slli	s1,s1,0x6
 788:	0000                	unimp
 78a:	07e4                	addi	s1,sp,972
 78c:	0000                	unimp
 78e:	901a                	c.add	zero,t1
 790:	0000                	unimp
 792:	0300                	addi	s0,sp,384
 794:	000004a3          	sb	zero,9(zero) # 9 <_min_stack-0x1ff7>
 798:	07fd                	addi	a5,a5,31
 79a:	0000                	unimp
 79c:	0004ac03          	lw	s8,0(s1)
 7a0:	0900                	addi	s0,sp,144
 7a2:	0008                	.2byte	0x8
 7a4:	0000                	unimp
 7a6:	3c00                	.2byte	0x3c00
 7a8:	03b0                	addi	a2,sp,456
 7aa:	0000                	unimp
 7ac:	0250                	addi	a2,sp,260
 7ae:	e000                	.2byte	0xe000
 7b0:	001e                	c.slli	zero,0x7
 7b2:	0000                	unimp
 7b4:	07c2                	slli	a5,a5,0x10
 7b6:	0000                	unimp
 7b8:	0003b103          	.4byte	0x3b103
 7bc:	3200                	.2byte	0x3200
 7be:	0008                	.2byte	0x8
 7c0:	0000                	unimp
 7c2:	350d                	jal	5e4 <_min_stack-0x1a1c>
 7c4:	0004                	.2byte	0x4
 7c6:	7c00                	.2byte	0x7c00
 7c8:	0002                	c.slli64	zero
 7ca:	a3e0                	.2byte	0xa3e0
 7cc:	0000                	unimp
 7ce:	e700                	.2byte	0xe700
 7d0:	00081007          	.4byte	0x81007
 7d4:	0100                	addi	s0,sp,128
 7d6:	0442                	slli	s0,s0,0x10
 7d8:	0000                	unimp
 7da:	0000084b          	.4byte	0x84b
 7de:	4d01                	li	s10,0
 7e0:	0004                	.2byte	0x4
 7e2:	5800                	lw	s0,48(s0)
 7e4:	0008                	.2byte	0x8
 7e6:	0800                	addi	s0,sp,16
 7e8:	00000457          	.4byte	0x457
 7ec:	027c                	addi	a5,sp,268
 7ee:	e000                	.2byte	0xe000
 7f0:	000000a3          	sb	zero,1(zero) # 1 <_min_stack-0x1fff>
 7f4:	0198                	addi	a4,sp,192
 7f6:	0468                	addi	a0,sp,524
 7f8:	0000                	unimp
 7fa:	0858                	addi	a4,sp,20
 7fc:	0000                	unimp
 7fe:	00028607          	.4byte	0x28607
 802:	c8e0                	sw	s0,84(s1)
 804:	0004                	.2byte	0x4
 806:	0600                	addi	s0,sp,768
 808:	5a01                	li	s4,-32
 80a:	0802                	c.slli64	a6
 80c:	002d                	c.nop	11
 80e:	0000                	unimp
 810:	be1c                	.2byte	0xbe1c
 812:	0001                	nop
 814:	9fe0                	.2byte	0x9fe0
 816:	0005                	c.nop	1
 818:	3900                	.2byte	0x3900
 81a:	0008                	.2byte	0x8
 81c:	0600                	addi	s0,sp,768
 81e:	5a01                	li	s4,-32
 820:	9102                	jalr	sp
 822:	0650                	addi	a2,sp,772
 824:	5b01                	li	s6,-32
 826:	5d01a303          	lw	t1,1488(gp)
 82a:	0106                	slli	sp,sp,0x1
 82c:	035c                	addi	a5,sp,388
 82e:	0b5e01a3          	sb	s5,163(t3) # fffe10a3 <fromhost+0x1ffd1093>
 832:	000003db          	.4byte	0x3db
 836:	3001                	jal	36 <_min_stack-0x1fca>
 838:	0700                	addi	s0,sp,896
 83a:	0290                	addi	a2,sp,320
 83c:	e000                	.2byte	0xe000
 83e:	059f 0000 0106      	.byte	0x9f, 0x05, 0x00, 0x00, 0x06, 0x01
 844:	025a                	slli	tp,tp,0x16
 846:	0078                	addi	a4,sp,12
 848:	0003db0b          	.4byte	0x3db0b
 84c:	0100                	addi	s0,sp,128
 84e:	0030                	addi	a2,sp,8
 850:	3d00                	.2byte	0x3d00
 852:	00000457          	.4byte	0x457
 856:	02b0                	addi	a2,sp,328
 858:	e000                	.2byte	0xe000
 85a:	0018                	.2byte	0x18
 85c:	0000                	unimp
 85e:	9c01                	.2byte	0x9c01
 860:	6801                	.2byte	0x6801
 862:	0004                	.2byte	0x4
 864:	6600                	.2byte	0x6600
 866:	0008                	.2byte	0x8
 868:	0700                	addi	s0,sp,896
 86a:	02be                	slli	t0,t0,0xf
 86c:	e000                	.2byte	0xe000
 86e:	04c8                	addi	a0,sp,580
 870:	0000                	unimp
 872:	0106                	slli	sp,sp,0x1
 874:	025a                	slli	tp,tp,0x16
 876:	0078                	addi	a4,sp,12
 878:	0000                	unimp
 87a:	8600                	.2byte	0x8600
 87c:	0001                	nop
 87e:	0500                	addi	s0,sp,640
 880:	0100                	addi	s0,sp,128
 882:	8c04                	.2byte	0x8c04
 884:	06000003          	lb	zero,96(zero) # 60 <_min_stack-0x1fa0>
 888:	008a                	slli	ra,ra,0x2
 88a:	0000                	unimp
 88c:	2a1d                	jal	9c2 <_min_stack-0x163e>
 88e:	0001                	nop
 890:	3c00                	.2byte	0x3c00
 892:	0000                	unimp
 894:	0e00                	addi	s0,sp,784
 896:	0001                	nop
 898:	0000                	unimp
 89a:	0000                	unimp
 89c:	6c00                	.2byte	0x6c00
 89e:	000c                	.2byte	0xc
 8a0:	0100                	addi	s0,sp,128
 8a2:	0601                	addi	a2,a2,0
 8a4:	007e                	c.slli	zero,0x1f
 8a6:	0000                	unimp
 8a8:	0201                	addi	tp,tp,0 # 0 <_min_stack-0x2000>
 8aa:	a405                	j	aca <_min_stack-0x1536>
 8ac:	0001                	nop
 8ae:	0100                	addi	s0,sp,128
 8b0:	0504                	addi	s1,sp,640
 8b2:	00000183          	lb	gp,0(zero) # 0 <_min_stack-0x2000>
 8b6:	0801                	addi	a6,a6,0
 8b8:	7e05                	lui	t3,0xfffe1
 8ba:	0001                	nop
 8bc:	0100                	addi	s0,sp,128
 8be:	0801                	addi	a6,a6,0
 8c0:	007c                	addi	a5,sp,12
 8c2:	0000                	unimp
 8c4:	0201                	addi	tp,tp,0 # 0 <_min_stack-0x2000>
 8c6:	0000fa07          	.4byte	0xfa07
 8ca:	0700                	addi	s0,sp,896
 8cc:	023a                	slli	tp,tp,0xe
 8ce:	0000                	unimp
 8d0:	61193403          	.4byte	0x61193403
 8d4:	0000                	unimp
 8d6:	0400                	addi	s0,sp,512
 8d8:	0050                	addi	a2,sp,4
 8da:	0000                	unimp
 8dc:	0401                	addi	s0,s0,0
 8de:	00014e07          	.4byte	0x14e07
 8e2:	0100                	addi	s0,sp,128
 8e4:	0708                	addi	a0,sp,896
 8e6:	0149                	addi	sp,sp,18
 8e8:	0000                	unimp
 8ea:	0408                	addi	a0,sp,512
 8ec:	6905                	lui	s2,0x1
 8ee:	746e                	.2byte	0x746e
 8f0:	0900                	addi	s0,sp,144
 8f2:	0000006f          	j	8f2 <_min_stack-0x170e>
 8f6:	0401                	addi	s0,s0,0
 8f8:	00015307          	.4byte	0x15307
 8fc:	0a00                	addi	s0,sp,272
 8fe:	01e8                	addi	a0,sp,204
 900:	0000                	unimp
 902:	0602                	c.slli64	a2
 904:	00005c17          	auipc	s8,0x5
 908:	3200                	.2byte	0x3200
 90a:	005c0b13          	addi	s6,s8,5 # 5909 <_min_stack+0x3909>
 90e:	0000                	unimp
 910:	00a1                	addi	ra,ra,8
 912:	0000                	unimp
 914:	7b0c                	.2byte	0x7b0c
 916:	0000                	unimp
 918:	3100                	.2byte	0x3100
 91a:	90040013          	addi	zero,s0,-1792
 91e:	0000                	unimp
 920:	0d00                	addi	s0,sp,656
 922:	0000024f          	.4byte	0x24f
 926:	0702                	c.slli64	a4
 928:	0000a117          	auipc	sp,0xa
 92c:	0500                	addi	s0,sp,640
 92e:	00054803          	lbu	a6,0(a0)
 932:	01e0                	addi	s0,sp,204
 934:	0410                	addi	a2,sp,512
 936:	000001bf 0002050e 	.8byte	0x2050e000001bf
 93e:	0100                	addi	s0,sp,128
 940:	0512                	slli	a0,a0,0x4
 942:	0000006f          	j	942 <_min_stack-0x16be>
 946:	04f0                	addi	a2,sp,588
 948:	e000                	.2byte	0xe000
 94a:	0056                	c.slli	zero,0x15
 94c:	0000                	unimp
 94e:	9c01                	.2byte	0x9c01
 950:	00000173          	.4byte	0x173
 954:	3005                	jal	174 <_min_stack-0x1e8c>
 956:	0002                	c.slli64	zero
 958:	0e00                	addi	s0,sp,784
 95a:	0000006f          	j	95a <_min_stack-0x16a6>
 95e:	0894                	addi	a3,sp,80
 960:	0000                	unimp
 962:	3505                	jal	782 <_min_stack-0x187e>
 964:	0002                	c.slli64	zero
 966:	1b00                	addi	s0,sp,432
 968:	00000173          	.4byte	0x173
 96c:	08ae                	slli	a7,a7,0xb
 96e:	0000                	unimp
 970:	fa02                	.2byte	0xfa02
 972:	0001                	nop
 974:	1400                	addi	s0,sp,544
 976:	8412                	mv	s0,tp
 978:	0001                	nop
 97a:	9c00                	.2byte	0x9c00
 97c:	8080                	.2byte	0x8080
 97e:	0278                	addi	a4,sp,268
 980:	00000243          	.4byte	0x243
 984:	2014                	.2byte	0x2014
 986:	0184                	addi	s1,sp,192
 988:	0000                	unimp
 98a:	8098                	.2byte	0x8098
 98c:	7880                	.2byte	0x7880
 98e:	1202                	slli	tp,tp,0x20
 990:	0002                	c.slli64	zero
 992:	1500                	addi	s0,sp,672
 994:	8412                	mv	s0,tp
 996:	0001                	nop
 998:	8000                	.2byte	0x8000
 99a:	8080                	.2byte	0x8080
 99c:	0278                	addi	a4,sp,268
 99e:	021c                	addi	a5,sp,256
 9a0:	0000                	unimp
 9a2:	1f15                	addi	t5,t5,-27
 9a4:	0184                	addi	s1,sp,192
 9a6:	0000                	unimp
 9a8:	8084                	.2byte	0x8084
 9aa:	7880                	.2byte	0x7880
 9ac:	2602                	.2byte	0x2602
 9ae:	0002                	c.slli64	zero
 9b0:	1500                	addi	s0,sp,672
 9b2:	842c                	.2byte	0x842c
 9b4:	0001                	nop
 9b6:	8800                	.2byte	0x8800
 9b8:	8080                	.2byte	0x8080
 9ba:	0278                	addi	a4,sp,268
 9bc:	020a                	slli	tp,tp,0x2
 9be:	0000                	unimp
 9c0:	3915                	jal	5f4 <_min_stack-0x1a0c>
 9c2:	0184                	addi	s1,sp,192
 9c4:	0000                	unimp
 9c6:	808c                	.2byte	0x808c
 9c8:	7880                	.2byte	0x7880
 9ca:	f402                	.2byte	0xf402
 9cc:	0001                	nop
 9ce:	1500                	addi	s0,sp,672
 9d0:	8444                	.2byte	0x8444
 9d2:	0001                	nop
 9d4:	9000                	.2byte	0x9000
 9d6:	8080                	.2byte	0x8080
 9d8:	0f78                	addi	a4,sp,924
 9da:	000000fb          	.4byte	0xfb
 9de:	6910                	.2byte	0x6910
 9e0:	0100                	addi	s0,sp,128
 9e2:	0b21                	addi	s6,s6,8 # fffee008 <fromhost+0x1ffddff8>
 9e4:	0000006f          	j	9e4 <_min_stack-0x161c>
 9e8:	08c8                	addi	a0,sp,84
 9ea:	0000                	unimp
 9ec:	0000                	unimp
 9ee:	00017803          	.4byte	0x17803
 9f2:	0300                	addi	s0,sp,384
 9f4:	017d                	addi	sp,sp,31 # a947 <_stack_len+0x2947>
 9f6:	0000                	unimp
 9f8:	0101                	addi	sp,sp,0
 9fa:	8508                	.2byte	0x8508
 9fc:	0000                	unimp
 9fe:	0300                	addi	s0,sp,384
 a00:	0076                	c.slli	zero,0x1d
 a02:	0000                	unimp
 a04:	1f00                	addi	s0,sp,944
 a06:	0000                	unimp
 a08:	0500                	addi	s0,sp,640
 a0a:	0100                	addi	s0,sp,128
 a0c:	6b04                	.2byte	0x6b04
 a0e:	0004                	.2byte	0x4
 a10:	0100                	addi	s0,sp,128
 a12:	0e2d                	addi	t3,t3,11 # fffe100b <fromhost+0x1ffd0ffb>
 a14:	0000                	unimp
 a16:	0124                	addi	s1,sp,136
 a18:	0000                	unimp
 a1a:	0268                	addi	a0,sp,268
 a1c:	0000                	unimp
 a1e:	000002a3          	sb	zero,5(zero) # 5 <_min_stack-0x1ffb>
 a22:	02f1                	addi	t0,t0,28
 a24:	0000                	unimp
 a26:	8001                	c.srli64	s0

Disassembly of section .debug_abbrev:

00000000 <.debug_abbrev>:
   0:	0501                	addi	a0,a0,0
   2:	3100                	.2byte	0x3100
   4:	00170213          	addi	tp,a4,1
   8:	0200                	addi	s0,sp,256
   a:	0034                	addi	a3,sp,8
   c:	213a0803          	lb	a6,531(s4) # 2213 <_min_stack+0x213>
  10:	3b01                	jal	fffffd20 <fromhost+0x1ffefd10>
  12:	490b390b          	.4byte	0x490b390b
  16:	03000013          	li	zero,48
  1a:	0034                	addi	a3,sp,8
  1c:	1331                	addi	t1,t1,-20
  1e:	1702                	slli	a4,a4,0x20
  20:	0000                	unimp
  22:	0504                	addi	s1,sp,640
  24:	0300                	addi	s0,sp,384
  26:	3a08                	.2byte	0x3a08
  28:	0121                	addi	sp,sp,8
  2a:	0b390b3b          	.4byte	0xb390b3b
  2e:	1349                	addi	t1,t1,-14
  30:	0000                	unimp
  32:	2405                	jal	252 <_min_stack-0x1dae>
  34:	0b00                	addi	s0,sp,400
  36:	030b3e0b          	.4byte	0x30b3e0b
  3a:	000e                	c.slli	zero,0x3
  3c:	0600                	addi	s0,sp,768
  3e:	0049                	c.nop	18
  40:	1802                	slli	a6,a6,0x20
  42:	187e                	slli	a6,a6,0x3f
  44:	0000                	unimp
  46:	7d014807          	.4byte	0x7d014807
  4a:	7f01                	lui	t5,0xfffe0
  4c:	08000013          	li	zero,128
  50:	011d                	addi	sp,sp,7
  52:	1331                	addi	t1,t1,-20
  54:	0152                	slli	sp,sp,0x14
  56:	1755                	addi	a4,a4,-11
  58:	2158                	.2byte	0x2158
  5a:	5901                	li	s2,-32
  5c:	0521570b          	.4byte	0x521570b
  60:	0000                	unimp
  62:	2e09                	jal	374 <_min_stack-0x1c8c>
  64:	0301                	addi	t1,t1,0
  66:	3a0e                	.2byte	0x3a0e
  68:	0121                	addi	sp,sp,8
  6a:	0b390b3b          	.4byte	0xb390b3b
  6e:	13491927          	.4byte	0x13491927
  72:	2120                	.2byte	0x2120
  74:	0101                	addi	sp,sp,0
  76:	0a000013          	li	zero,160
  7a:	0005                	c.nop	1
  7c:	213a0e03          	lb	t3,531(s4)
  80:	3b01                	jal	fffffd90 <fromhost+0x1ffefd80>
  82:	490b390b          	.4byte	0x490b390b
  86:	0b000013          	li	zero,176
  8a:	0049                	c.nop	18
  8c:	0180                	addi	s0,sp,192
  8e:	00187e13          	andi	t3,a6,1
  92:	0c00                	addi	s0,sp,528
  94:	012e                	slli	sp,sp,0xb
  96:	0e03193f 3b01213a 	.8byte	0x3b01213a0e03193f
  9e:	0621390b          	.4byte	0x621390b
  a2:	01111927          	.4byte	0x1111927
  a6:	0612                	slli	a2,a2,0x4
  a8:	1840                	addi	s0,sp,52
  aa:	197a                	slli	s2,s2,0x3e
  ac:	1301                	addi	t1,t1,-32
  ae:	0000                	unimp
  b0:	1d0d                	addi	s10,s10,-29
  b2:	3101                	jal	fffffcb2 <fromhost+0x1ffefca2>
  b4:	55015213          	.4byte	0x55015213
  b8:	01215817          	auipc	a6,0x1215
  bc:	0b59                	addi	s6,s6,22
  be:	13010b57          	.4byte	0x13010b57
  c2:	0000                	unimp
  c4:	050e                	slli	a0,a0,0x3
  c6:	3100                	.2byte	0x3100
  c8:	0f000013          	li	zero,240
  cc:	0016                	c.slli	zero,0x5
  ce:	0b3a0e03          	lb	t3,179(s4)
  d2:	0b390b3b          	.4byte	0xb390b3b
  d6:	1349                	addi	t1,t1,-14
  d8:	0000                	unimp
  da:	0110                	addi	a2,sp,128
  dc:	4901                	li	s2,0
  de:	00130113          	addi	sp,t1,1
  e2:	1100                	addi	s0,sp,160
  e4:	0021                	c.nop	8
  e6:	1349                	addi	t1,t1,-14
  e8:	00000b2f          	.4byte	0xb2f
  ec:	4812                	lw	a6,4(sp)
  ee:	7d00                	.2byte	0x7d00
  f0:	7f01                	lui	t5,0xfffe0
  f2:	13000013          	li	zero,304
  f6:	210b000f          	.4byte	0x210b000f
  fa:	4904                	lw	s1,16(a0)
  fc:	14000013          	li	zero,320
 100:	0005                	c.nop	1
 102:	1331                	addi	t1,t1,-20
 104:	211c                	.2byte	0x211c
 106:	0000                	unimp
 108:	1500                	addi	s0,sp,672
 10a:	0034                	addi	a3,sp,8
 10c:	1331                	addi	t1,t1,-20
 10e:	1802                	slli	a6,a6,0x20
 110:	0000                	unimp
 112:	3416                	.2byte	0x3416
 114:	0300                	addi	s0,sp,384
 116:	3a0e                	.2byte	0x3a0e
 118:	0121                	addi	sp,sp,8
 11a:	0b390b3b          	.4byte	0xb390b3b
 11e:	1349                	addi	t1,t1,-14
 120:	0000                	unimp
 122:	00010b17          	auipc	s6,0x10
 126:	1800                	addi	s0,sp,48
 128:	012e                	slli	sp,sp,0xb
 12a:	0e03193f 3b01213a 	.8byte	0x3b01213a0e03193f
 132:	3905                	jal	fffffd62 <fromhost+0x1ffefd52>
 134:	0521                	addi	a0,a0,8
 136:	13491927          	.4byte	0x13491927
 13a:	0111                	addi	sp,sp,4
 13c:	0612                	slli	a2,a2,0x4
 13e:	1840                	addi	s0,sp,52
 140:	197a                	slli	s2,s2,0x3e
 142:	1301                	addi	t1,t1,-32
 144:	0000                	unimp
 146:	3419                	jal	fffffb4c <fromhost+0x1ffefb3c>
 148:	0300                	addi	s0,sp,384
 14a:	3a08                	.2byte	0x3a08
 14c:	0121                	addi	sp,sp,8
 14e:	0b39053b          	.4byte	0xb39053b
 152:	1349                	addi	t1,t1,-14
 154:	0000                	unimp
 156:	0b1a                	slli	s6,s6,0x6
 158:	5501                	li	a0,-32
 15a:	1b000017          	auipc	zero,0x1b000
 15e:	1331010b          	.4byte	0x1331010b
 162:	1755                	addi	a4,a4,-11
 164:	1301                	addi	t1,t1,-32
 166:	0000                	unimp
 168:	481c                	lw	a5,16(s0)
 16a:	7d01                	lui	s10,0xfffe0
 16c:	7f01                	lui	t5,0xfffe0
 16e:	00130113          	addi	sp,t1,1
 172:	1d00                	addi	s0,sp,688
 174:	0005                	c.nop	1
 176:	213a0803          	lb	a6,531(s4)
 17a:	3b01                	jal	fffffe8a <fromhost+0x1ffefe7a>
 17c:	3521                	jal	ffffff84 <fromhost+0x1ffeff74>
 17e:	0b39                	addi	s6,s6,14 # 10130 <_stack_len+0x8130>
 180:	1349                	addi	t1,t1,-14
 182:	1702                	slli	a4,a4,0x20
 184:	0000                	unimp
 186:	2e1e                	.2byte	0x2e1e
 188:	3101                	jal	fffffd88 <fromhost+0x1ffefd78>
 18a:	12011113          	.4byte	0x12011113
 18e:	4006                	.2byte	0x4006
 190:	7a18                	.2byte	0x7a18
 192:	0119                	addi	sp,sp,6
 194:	1f000013          	li	zero,496
 198:	0111                	addi	sp,sp,4
 19a:	0e25                	addi	t3,t3,9
 19c:	1f030b13          	addi	s6,t1,496
 1a0:	01111f1b          	.4byte	0x1111f1b
 1a4:	0612                	slli	a2,a2,0x4
 1a6:	1710                	addi	a2,sp,928
 1a8:	0000                	unimp
 1aa:	0f20                	addi	s0,sp,920
 1ac:	0b00                	addi	s0,sp,400
 1ae:	000e030b          	.4byte	0xe030b
 1b2:	2100                	.2byte	0x2100
 1b4:	0024                	addi	s1,sp,8
 1b6:	0b3e0b0b          	.4byte	0xb3e0b0b
 1ba:	00000803          	lb	a6,0(zero) # 0 <_min_stack-0x2000>
 1be:	2622                	.2byte	0x2622
 1c0:	4900                	lw	s0,16(a0)
 1c2:	23000013          	li	zero,560
 1c6:	0034                	addi	a3,sp,8
 1c8:	0b3a0e03          	lb	t3,179(s4)
 1cc:	0b390b3b          	.4byte	0xb390b3b
 1d0:	1349                	addi	t1,t1,-14
 1d2:	1802193f 2e240000 	.8byte	0x2e2400001802193f
 1da:	3f00                	.2byte	0x3f00
 1dc:	0319                	addi	t1,t1,6
 1de:	3a0e                	.2byte	0x3a0e
 1e0:	39053b0b          	.4byte	0x39053b0b
 1e4:	1119270b          	.4byte	0x1119270b
 1e8:	1201                	addi	tp,tp,-32 # ffffffe0 <fromhost+0x1ffeffd0>
 1ea:	4006                	.2byte	0x4006
 1ec:	7a18                	.2byte	0x7a18
 1ee:	0019                	c.nop	6
 1f0:	2500                	.2byte	0x2500
 1f2:	0005                	c.nop	1
 1f4:	0b3a0803          	lb	a6,179(s4)
 1f8:	0b39053b          	.4byte	0xb39053b
 1fc:	1349                	addi	t1,t1,-14
 1fe:	1702                	slli	a4,a4,0x20
 200:	0000                	unimp
 202:	3426                	.2byte	0x3426
 204:	0300                	addi	s0,sp,384
 206:	3a08                	.2byte	0x3a08
 208:	39053b0b          	.4byte	0x39053b0b
 20c:	0213490b          	.4byte	0x213490b
 210:	27000017          	auipc	zero,0x27000
 214:	011d                	addi	sp,sp,7
 216:	1331                	addi	t1,t1,-20
 218:	0111                	addi	sp,sp,4
 21a:	0612                	slli	a2,a2,0x4
 21c:	0b58                	addi	a4,sp,404
 21e:	0559                	addi	a0,a0,22
 220:	13010b57          	.4byte	0x13010b57
 224:	0000                	unimp
 226:	1d28                	addi	a0,sp,696
 228:	3101                	jal	fffffe28 <fromhost+0x1ffefe18>
 22a:	12011113          	.4byte	0x12011113
 22e:	5806                	lw	a6,96(sp)
 230:	5705590b          	.4byte	0x5705590b
 234:	2900000b          	.4byte	0x2900000b
 238:	0005                	c.nop	1
 23a:	0b3a0e03          	lb	t3,179(s4)
 23e:	0b39053b          	.4byte	0xb39053b
 242:	1349                	addi	t1,t1,-14
 244:	1702                	slli	a4,a4,0x20
 246:	0000                	unimp
 248:	182a                	slli	a6,a6,0x2a
 24a:	0000                	unimp
 24c:	2b00                	.2byte	0x2b00
 24e:	0034                	addi	a3,sp,8
 250:	0b3a0803          	lb	a6,179(s4)
 254:	0b39053b          	.4byte	0xb39053b
 258:	1349                	addi	t1,t1,-14
 25a:	1802                	slli	a6,a6,0x20
 25c:	0000                	unimp
 25e:	1d2c                	addi	a1,sp,696
 260:	3101                	jal	fffffe60 <fromhost+0x1ffefe50>
 262:	55015213          	.4byte	0x55015213
 266:	590b5817          	auipc	a6,0x590b5
 26a:	5705                	li	a4,-31
 26c:	2d00000b          	.4byte	0x2d00000b
 270:	000a                	c.slli	zero,0x2
 272:	1331                	addi	t1,t1,-20
 274:	0111                	addi	sp,sp,4
 276:	0000                	unimp
 278:	1d2e                	slli	s10,s10,0x2b
 27a:	3101                	jal	fffffe7a <fromhost+0x1ffefe6a>
 27c:	55015213          	.4byte	0x55015213
 280:	590b5817          	auipc	a6,0x590b5
 284:	5705                	li	a4,-31
 286:	0013010b          	.4byte	0x13010b
 28a:	2f00                	.2byte	0x2f00
 28c:	000a                	c.slli	zero,0x2
 28e:	0b3a0803          	lb	a6,179(s4)
 292:	0b39053b          	.4byte	0xb39053b
 296:	0000                	unimp
 298:	2e30                	.2byte	0x2e30
 29a:	0301                	addi	t1,t1,0
 29c:	3a0e                	.2byte	0x3a0e
 29e:	390b3b0b          	.4byte	0x390b3b0b
 2a2:	2019270b          	.4byte	0x2019270b
 2a6:	0013010b          	.4byte	0x13010b
 2aa:	3100                	.2byte	0x3100
 2ac:	012e                	slli	sp,sp,0xb
 2ae:	0e03193f 0b3b0b3a 	.8byte	0xb3b0b3a0e03193f
 2b6:	0b39                	addi	s6,s6,14
 2b8:	13491927          	.4byte	0x13491927
 2bc:	0b20                	addi	s0,sp,408
 2be:	1301                	addi	t1,t1,-32
 2c0:	0000                	unimp
 2c2:	2e32                	.2byte	0x2e32
 2c4:	3f00                	.2byte	0x3f00
 2c6:	0319                	addi	t1,t1,6
 2c8:	3a0e                	.2byte	0x3a0e
 2ca:	390b3b0b          	.4byte	0x390b3b0b
 2ce:	1119270b          	.4byte	0x1119270b
 2d2:	1201                	addi	tp,tp,-32 # ffffffe0 <fromhost+0x1ffeffd0>
 2d4:	4006                	.2byte	0x4006
 2d6:	7a18                	.2byte	0x7a18
 2d8:	0019                	c.nop	6
 2da:	3300                	.2byte	0x3300
 2dc:	0005                	c.nop	1
 2de:	0b3a0803          	lb	a6,179(s4)
 2e2:	0b390b3b          	.4byte	0xb390b3b
 2e6:	1349                	addi	t1,t1,-14
 2e8:	1802                	slli	a6,a6,0x20
 2ea:	0000                	unimp
 2ec:	2e34                	.2byte	0x2e34
 2ee:	3f00                	.2byte	0x3f00
 2f0:	0319                	addi	t1,t1,6
 2f2:	3a0e                	.2byte	0x3a0e
 2f4:	390b3b0b          	.4byte	0x390b3b0b
 2f8:	1113490b          	.4byte	0x1113490b
 2fc:	1201                	addi	tp,tp,-32 # ffffffe0 <fromhost+0x1ffeffd0>
 2fe:	4006                	.2byte	0x4006
 300:	7a18                	.2byte	0x7a18
 302:	0019                	c.nop	6
 304:	3500                	.2byte	0x3500
 306:	0034                	addi	a3,sp,8
 308:	0b3a0803          	lb	a6,179(s4)
 30c:	0b390b3b          	.4byte	0xb390b3b
 310:	1349                	addi	t1,t1,-14
 312:	0b1c                	addi	a5,sp,400
 314:	0000                	unimp
 316:	0536                	slli	a0,a0,0xd
 318:	0300                	addi	s0,sp,384
 31a:	3a0e                	.2byte	0x3a0e
 31c:	390b3b0b          	.4byte	0x390b3b0b
 320:	0213490b          	.4byte	0x213490b
 324:	0018                	.2byte	0x18
 326:	3700                	.2byte	0x3700
 328:	0005                	c.nop	1
 32a:	0b3a0e03          	lb	t3,179(s4)
 32e:	0b390b3b          	.4byte	0xb390b3b
 332:	1349                	addi	t1,t1,-14
 334:	1702                	slli	a4,a4,0x20
 336:	0000                	unimp
 338:	4838                	lw	a4,80(s0)
 33a:	7d01                	lui	s10,0xfffe0
 33c:	8201                	c.srli64	a2
 33e:	1901                	addi	s2,s2,-32 # fe0 <_min_stack-0x1020>
 340:	137f                	.2byte	0x137f
 342:	0000                	unimp
 344:	1d39                	addi	s10,s10,-18 # fffdffee <fromhost+0x1ffcffde>
 346:	3101                	jal	ffffff46 <fromhost+0x1ffeff36>
 348:	12011113          	.4byte	0x12011113
 34c:	5806                	lw	a6,96(sp)
 34e:	570b590b          	.4byte	0x570b590b
 352:	0013010b          	.4byte	0x13010b
 356:	3a00                	.2byte	0x3a00
 358:	011d                	addi	sp,sp,7
 35a:	1331                	addi	t1,t1,-20
 35c:	0111                	addi	sp,sp,4
 35e:	0612                	slli	a2,a2,0x4
 360:	0b58                	addi	a4,sp,404
 362:	0b59                	addi	s6,s6,22
 364:	00000b57          	.4byte	0xb57
 368:	3100343b          	.4byte	0x3100343b
 36c:	3c000013          	li	zero,960
 370:	1331010b          	.4byte	0x1331010b
 374:	0111                	addi	sp,sp,4
 376:	0612                	slli	a2,a2,0x4
 378:	1301                	addi	t1,t1,-32
 37a:	0000                	unimp
 37c:	2e3d                	jal	6ba <_min_stack-0x1946>
 37e:	3101                	jal	ffffff7e <fromhost+0x1ffeff6e>
 380:	12011113          	.4byte	0x12011113
 384:	4006                	.2byte	0x4006
 386:	7a18                	.2byte	0x7a18
 388:	0019                	c.nop	6
 38a:	0000                	unimp
 38c:	2401                	jal	58c <_min_stack-0x1a74>
 38e:	0b00                	addi	s0,sp,400
 390:	030b3e0b          	.4byte	0x30b3e0b
 394:	000e                	c.slli	zero,0x3
 396:	0200                	addi	s0,sp,256
 398:	0034                	addi	a3,sp,8
 39a:	213a0e03          	lb	t3,531(s4)
 39e:	3b01                	jal	ae <_min_stack-0x1f52>
 3a0:	490b390b          	.4byte	0x490b390b
 3a4:	000d1c13          	slli	s8,s10,0x0
 3a8:	0300                	addi	s0,sp,384
 3aa:	210b000f          	.4byte	0x210b000f
 3ae:	4904                	lw	s1,16(a0)
 3b0:	04000013          	li	zero,64
 3b4:	0026                	c.slli	zero,0x9
 3b6:	1349                	addi	t1,t1,-14
 3b8:	0000                	unimp
 3ba:	0505                	addi	a0,a0,1
 3bc:	0300                	addi	s0,sp,384
 3be:	3a0e                	.2byte	0x3a0e
 3c0:	0121                	addi	sp,sp,8
 3c2:	3912213b          	.4byte	0x3912213b
 3c6:	0213490b          	.4byte	0x213490b
 3ca:	06000017          	auipc	zero,0x6000
 3ce:	0111                	addi	sp,sp,4
 3d0:	0e25                	addi	t3,t3,9
 3d2:	1f030b13          	addi	s6,t1,496
 3d6:	17551f1b          	.4byte	0x17551f1b
 3da:	0111                	addi	sp,sp,4
 3dc:	1710                	addi	a2,sp,928
 3de:	0000                	unimp
 3e0:	03001607          	.4byte	0x3001607
 3e4:	3a0e                	.2byte	0x3a0e
 3e6:	390b3b0b          	.4byte	0x390b3b0b
 3ea:	0013490b          	.4byte	0x13490b
 3ee:	0800                	addi	s0,sp,16
 3f0:	0024                	addi	s1,sp,8
 3f2:	0b3e0b0b          	.4byte	0xb3e0b0b
 3f6:	00000803          	lb	a6,0(zero) # 0 <_min_stack-0x2000>
 3fa:	3509                	jal	1fc <_min_stack-0x1e04>
 3fc:	4900                	lw	s0,16(a0)
 3fe:	0a000013          	li	zero,160
 402:	0034                	addi	a3,sp,8
 404:	0b3a0e03          	lb	t3,179(s4)
 408:	0b390b3b          	.4byte	0xb390b3b
 40c:	1349                	addi	t1,t1,-14
 40e:	051c                	addi	a5,sp,640
 410:	0000                	unimp
 412:	4901010b          	.4byte	0x4901010b
 416:	00130113          	addi	sp,t1,1
 41a:	0c00                	addi	s0,sp,528
 41c:	0021                	c.nop	8
 41e:	1349                	addi	t1,t1,-14
 420:	0000052f          	.4byte	0x52f
 424:	340d                	jal	fffffe46 <fromhost+0x1ffefe36>
 426:	0300                	addi	s0,sp,384
 428:	3a0e                	.2byte	0x3a0e
 42a:	390b3b0b          	.4byte	0x390b3b0b
 42e:	0213490b          	.4byte	0x213490b
 432:	0018                	.2byte	0x18
 434:	0e00                	addi	s0,sp,784
 436:	012e                	slli	sp,sp,0xb
 438:	0e03193f 0b3b0b3a 	.8byte	0xb3b0b3a0e03193f
 440:	0b39                	addi	s6,s6,14
 442:	13491927          	.4byte	0x13491927
 446:	0111                	addi	sp,sp,4
 448:	0612                	slli	a2,a2,0x4
 44a:	1840                	addi	s0,sp,52
 44c:	197a                	slli	s2,s2,0x3e
 44e:	1301                	addi	t1,t1,-32
 450:	0000                	unimp
 452:	55010b0f          	.4byte	0x55010b0f
 456:	10000017          	auipc	zero,0x10000
 45a:	0034                	addi	a3,sp,8
 45c:	0b3a0803          	lb	a6,179(s4)
 460:	0b390b3b          	.4byte	0xb390b3b
 464:	1349                	addi	t1,t1,-14
 466:	1702                	slli	a4,a4,0x20
 468:	0000                	unimp
 46a:	0100                	addi	s0,sp,128
 46c:	0011                	c.nop	4
 46e:	1710                	addi	a2,sp,928
 470:	1755                	addi	a4,a4,-11
 472:	0e1b0e03          	lb	t3,225(s6)
 476:	0e25                	addi	t3,t3,9
 478:	00000513          	li	a0,0
	...

Disassembly of section .debug_loclists:

00000000 <.debug_loclists>:
   0:	0884                	addi	s1,sp,80
   2:	0000                	unimp
   4:	0005                	c.nop	1
   6:	0004                	.2byte	0x4
   8:	0000                	unimp
   a:	0000                	unimp
   c:	00042a07          	.4byte	0x42a07
  10:	36e0                	.2byte	0x36e0
  12:	0004                	.2byte	0x4
  14:	01e0                	addi	s0,sp,204
  16:	075a                	slli	a4,a4,0x16
  18:	0436                	slli	s0,s0,0xd
  1a:	e000                	.2byte	0xe000
  1c:	044c                	addi	a1,sp,516
  1e:	e000                	.2byte	0xe000
  20:	5901                	li	s2,-32
  22:	00044c07          	.4byte	0x44c07
  26:	50e0                	lw	s0,100(s1)
  28:	0004                	.2byte	0x4
  2a:	04e0                	addi	s0,sp,588
  2c:	9f5a01a3          	sb	s5,-1565(s4)
  30:	00045007          	.4byte	0x45007
  34:	56e0                	lw	s0,108(a3)
  36:	0004                	.2byte	0x4
  38:	01e0                	addi	s0,sp,204
  3a:	0059                	c.nop	22
  3c:	00042a07          	.4byte	0x42a07
  40:	36e0                	.2byte	0x36e0
  42:	0004                	.2byte	0x4
  44:	02e0                	addi	s0,sp,332
  46:	9f30                	.2byte	0x9f30
  48:	00043607          	.4byte	0x43607
  4c:	4ae0                	lw	s0,84(a3)
  4e:	0004                	.2byte	0x4
  50:	01e0                	addi	s0,sp,204
  52:	0758                	addi	a4,sp,900
  54:	044a                	slli	s0,s0,0x12
  56:	e000                	.2byte	0xe000
  58:	0450                	addi	a2,sp,516
  5a:	e000                	.2byte	0xe000
  5c:	5a01                	li	s4,-32
  5e:	00045007          	.4byte	0x45007
  62:	56e0                	lw	s0,108(a3)
  64:	0004                	.2byte	0x4
  66:	01e0                	addi	s0,sp,204
  68:	0058                	addi	a4,sp,4
  6a:	00044007          	.4byte	0x44007
  6e:	44e0                	lw	s0,76(s1)
  70:	0004                	.2byte	0x4
  72:	02e0                	addi	s0,sp,332
  74:	9f3a                	add	t5,t5,a4
  76:	0700                	addi	s0,sp,896
  78:	0452                	slli	s0,s0,0x14
  7a:	e000                	.2byte	0xe000
  7c:	e0000453          	.4byte	0xe0000453
  80:	7a06                	.2byte	0x7a06
  82:	0800                	addi	s0,sp,16
  84:	1aff                	.2byte	0x1aff
  86:	009f c807 0002      	.byte	0x9f, 0x00, 0x07, 0xc8, 0x02, 0x00
  8c:	0ae0                	addi	s0,sp,348
  8e:	01e00003          	lb	zero,30(zero) # 1e <_min_stack-0x1fe2>
  92:	075a                	slli	a4,a4,0x16
  94:	030a                	slli	t1,t1,0x2
  96:	e000                	.2byte	0xe000
  98:	0420                	addi	s0,sp,520
  9a:	e000                	.2byte	0xe000
  9c:	a304                	.2byte	0xa304
  9e:	5a01                	li	s4,-32
  a0:	009f f207 0002      	.byte	0x9f, 0x00, 0x07, 0xf2, 0x02, 0x00
  a6:	14e0                	addi	s0,sp,620
  a8:	01e00003          	lb	zero,30(zero) # 1e <_min_stack-0x1fe2>
  ac:	0758                	addi	a4,sp,900
  ae:	032a                	slli	t1,t1,0xa
  b0:	e000                	.2byte	0xe000
  b2:	037c                	addi	a5,sp,396
  b4:	e000                	.2byte	0xe000
  b6:	5801                	li	a6,-32
  b8:	00037c07          	.4byte	0x37c07
  bc:	88e0                	.2byte	0x88e0
  be:	01e00003          	lb	zero,30(zero) # 1e <_min_stack-0x1fe2>
  c2:	0768                	addi	a0,sp,908
  c4:	0388                	addi	a0,sp,448
  c6:	e000                	.2byte	0xe000
  c8:	03a6                	slli	t2,t2,0x9
  ca:	e000                	.2byte	0xe000
  cc:	5801                	li	a6,-32
  ce:	0003a607          	.4byte	0x3a607
  d2:	b6e0                	.2byte	0xb6e0
  d4:	01e00003          	lb	zero,30(zero) # 1e <_min_stack-0x1fe2>
  d8:	0768                	addi	a0,sp,908
  da:	03b6                	slli	t2,t2,0xd
  dc:	e000                	.2byte	0xe000
  de:	03c6                	slli	t2,t2,0x11
  e0:	e000                	.2byte	0xe000
  e2:	5801                	li	a6,-32
  e4:	0003c607          	.4byte	0x3c607
  e8:	cee0                	sw	s0,92(a3)
  ea:	01e00003          	lb	zero,30(zero) # 1e <_min_stack-0x1fe2>
  ee:	0768                	addi	a0,sp,908
  f0:	03ce                	slli	t2,t2,0x13
  f2:	e000                	.2byte	0xe000
  f4:	03da                	slli	t2,t2,0x16
  f6:	e000                	.2byte	0xe000
  f8:	5801                	li	a6,-32
  fa:	0003da07          	.4byte	0x3da07
  fe:	e4e0                	.2byte	0xe4e0
 100:	01e00003          	lb	zero,30(zero) # 1e <_min_stack-0x1fe2>
 104:	0768                	addi	a0,sp,908
 106:	03e4                	addi	s1,sp,460
 108:	e000                	.2byte	0xe000
 10a:	03f0                	addi	a2,sp,460
 10c:	e000                	.2byte	0xe000
 10e:	5801                	li	a6,-32
 110:	0003f007          	.4byte	0x3f007
 114:	f6e0                	.2byte	0xf6e0
 116:	01e00003          	lb	zero,30(zero) # 1e <_min_stack-0x1fe2>
 11a:	0768                	addi	a0,sp,908
 11c:	03f6                	slli	t2,t2,0x1d
 11e:	e000                	.2byte	0xe000
 120:	0404                	addi	s1,sp,512
 122:	e000                	.2byte	0xe000
 124:	5801                	li	a6,-32
 126:	00040407          	.4byte	0x40407
 12a:	14e0                	addi	s0,sp,620
 12c:	0004                	.2byte	0x4
 12e:	01e0                	addi	s0,sp,204
 130:	0768                	addi	a0,sp,908
 132:	0414                	addi	a3,sp,512
 134:	e000                	.2byte	0xe000
 136:	0420                	addi	s0,sp,520
 138:	e000                	.2byte	0xe000
 13a:	5801                	li	a6,-32
 13c:	0700                	addi	s0,sp,896
 13e:	02f2                	slli	t0,t0,0x1c
 140:	e000                	.2byte	0xe000
 142:	030a                	slli	t1,t1,0x2
 144:	e000                	.2byte	0xe000
 146:	5a01                	li	s4,-32
 148:	00030a07          	.4byte	0x30a07
 14c:	10e0                	addi	s0,sp,108
 14e:	01e00003          	lb	zero,30(zero) # 1e <_min_stack-0x1fe2>
 152:	0766                	slli	a4,a4,0x19
 154:	032a                	slli	t1,t1,0xa
 156:	e000                	.2byte	0xe000
 158:	032e                	slli	t1,t1,0xb
 15a:	e000                	.2byte	0xe000
 15c:	6601                	.2byte	0x6601
 15e:	00032e07          	.4byte	0x32e07
 162:	46e0                	lw	s0,76(a3)
 164:	03e00003          	lb	zero,62(zero) # 3e <_min_stack-0x1fc2>
 168:	0186                	slli	gp,gp,0x1
 16a:	079f 0346 e000      	.byte	0x9f, 0x07, 0x46, 0x03, 0x00, 0xe0
 170:	0348                	addi	a0,sp,388
 172:	e000                	.2byte	0xe000
 174:	5f01                	li	t5,-32
 176:	00034a07          	.4byte	0x34a07
 17a:	88e0                	.2byte	0x88e0
 17c:	01e00003          	lb	zero,30(zero) # 1e <_min_stack-0x1fe2>
 180:	0766                	slli	a4,a4,0x19
 182:	0388                	addi	a0,sp,448
 184:	e000                	.2byte	0xe000
 186:	038c                	addi	a1,sp,448
 188:	e000                	.2byte	0xe000
 18a:	9f018603          	lb	a2,-1552(gp)
 18e:	00038c07          	.4byte	0x38c07
 192:	90e0                	.2byte	0x90e0
 194:	03e00003          	lb	zero,62(zero) # 3e <_min_stack-0x1fc2>
 198:	017d                	addi	sp,sp,31
 19a:	079f 0390 e000      	.byte	0x9f, 0x07, 0x90, 0x03, 0x00, 0xe0
 1a0:	0396                	slli	t2,t2,0x5
 1a2:	e000                	.2byte	0xe000
 1a4:	6601                	.2byte	0x6601
 1a6:	00039607          	.4byte	0x39607
 1aa:	98e0                	.2byte	0x98e0
 1ac:	03e00003          	lb	zero,62(zero) # 3e <_min_stack-0x1fc2>
 1b0:	7f80                	.2byte	0x7f80
 1b2:	079f 0398 e000      	.byte	0x9f, 0x07, 0x98, 0x03, 0x00, 0xe0
 1b8:	039a                	slli	t2,t2,0x6
 1ba:	e000                	.2byte	0xe000
 1bc:	9f018603          	lb	a2,-1552(gp)
 1c0:	00039a07          	.4byte	0x39a07
 1c4:	b6e0                	.2byte	0xb6e0
 1c6:	01e00003          	lb	zero,30(zero) # 1e <_min_stack-0x1fe2>
 1ca:	0766                	slli	a4,a4,0x19
 1cc:	03b6                	slli	t2,t2,0xd
 1ce:	e000                	.2byte	0xe000
 1d0:	03b8                	addi	a4,sp,456
 1d2:	e000                	.2byte	0xe000
 1d4:	9f018603          	lb	a2,-1552(gp)
 1d8:	0003b807          	.4byte	0x3b807
 1dc:	14e0                	addi	s0,sp,620
 1de:	0004                	.2byte	0x4
 1e0:	01e0                	addi	s0,sp,204
 1e2:	0766                	slli	a4,a4,0x19
 1e4:	0414                	addi	a3,sp,512
 1e6:	e000                	.2byte	0xe000
 1e8:	0416                	slli	s0,s0,0x5
 1ea:	e000                	.2byte	0xe000
 1ec:	9f017f03          	.4byte	0x9f017f03
 1f0:	00041607          	.4byte	0x41607
 1f4:	20e0                	.2byte	0x20e0
 1f6:	0004                	.2byte	0x4
 1f8:	01e0                	addi	s0,sp,204
 1fa:	0066                	c.slli	zero,0x19
 1fc:	00032e07          	.4byte	0x32e07
 200:	5ae0                	lw	s0,116(a3)
 202:	02e00003          	lb	zero,46(zero) # 2e <_min_stack-0x1fd2>
 206:	9f30                	.2byte	0x9f30
 208:	00035a07          	.4byte	0x35a07
 20c:	84e0                	.2byte	0x84e0
 20e:	01e00003          	lb	zero,30(zero) # 1e <_min_stack-0x1fe2>
 212:	075d                	addi	a4,a4,23
 214:	0384                	addi	s1,sp,448
 216:	e000                	.2byte	0xe000
 218:	0385                	addi	t2,t2,1
 21a:	e000                	.2byte	0xe000
 21c:	5b01                	li	s6,-32
 21e:	00038807          	.4byte	0x38807
 222:	90e0                	.2byte	0x90e0
 224:	02e00003          	lb	zero,46(zero) # 2e <_min_stack-0x1fd2>
 228:	9f30                	.2byte	0x9f30
 22a:	00039007          	.4byte	0x39007
 22e:	b1e0                	.2byte	0xb1e0
 230:	01e00003          	lb	zero,30(zero) # 1e <_min_stack-0x1fe2>
 234:	075d                	addi	a4,a4,23
 236:	03ba                	slli	t2,t2,0xe
 238:	e000                	.2byte	0xe000
 23a:	0414                	addi	a3,sp,512
 23c:	e000                	.2byte	0xe000
 23e:	5d01                	li	s10,-32
 240:	00041407          	.4byte	0x41407
 244:	16e0                	addi	s0,sp,876
 246:	0004                	.2byte	0x4
 248:	02e0                	addi	s0,sp,332
 24a:	9f30                	.2byte	0x9f30
 24c:	0700                	addi	s0,sp,896
 24e:	032e                	slli	t1,t1,0xb
 250:	e000                	.2byte	0xe000
 252:	0346                	slli	t1,t1,0x11
 254:	e000                	.2byte	0xe000
 256:	3002                	.2byte	0x3002
 258:	079f 0346 e000      	.byte	0x9f, 0x07, 0x46, 0x03, 0x00, 0xe0
 25e:	0348                	addi	a0,sp,388
 260:	e000                	.2byte	0xe000
 262:	3102                	.2byte	0x3102
 264:	079f 034a e000      	.byte	0x9f, 0x07, 0x4a, 0x03, 0x00, 0xe0
 26a:	0384                	addi	s1,sp,448
 26c:	e000                	.2byte	0xe000
 26e:	5e01                	li	t3,-32
 270:	00038407          	.4byte	0x38407
 274:	85e0                	.2byte	0x85e0
 276:	01e00003          	lb	zero,30(zero) # 1e <_min_stack-0x1fe2>
 27a:	075c                	addi	a5,sp,900
 27c:	0388                	addi	a0,sp,448
 27e:	e000                	.2byte	0xe000
 280:	03b1                	addi	t2,t2,12
 282:	e000                	.2byte	0xe000
 284:	5e01                	li	t3,-32
 286:	0003ba07          	.4byte	0x3ba07
 28a:	14e0                	addi	s0,sp,620
 28c:	0004                	.2byte	0x4
 28e:	01e0                	addi	s0,sp,204
 290:	075e                	slli	a4,a4,0x17
 292:	0414                	addi	a3,sp,512
 294:	e000                	.2byte	0xe000
 296:	0416                	slli	s0,s0,0x5
 298:	e000                	.2byte	0xe000
 29a:	3002                	.2byte	0x3002
 29c:	009f 0a07 0003      	.byte	0x9f, 0x00, 0x07, 0x0a, 0x03, 0x00
 2a2:	26e0                	.2byte	0x26e0
 2a4:	01e00003          	lb	zero,30(zero) # 1e <_min_stack-0x1fe2>
 2a8:	03260767          	jalr	a4,50(a2)
 2ac:	e000                	.2byte	0xe000
 2ae:	032a                	slli	t1,t1,0xa
 2b0:	e000                	.2byte	0xe000
 2b2:	5a01                	li	s4,-32
 2b4:	00032a07          	.4byte	0x32a07
 2b8:	1ce0                	addi	s0,sp,636
 2ba:	0004                	.2byte	0x4
 2bc:	01e0                	addi	s0,sp,204
 2be:	041c0767          	jalr	a4,65(s8)
 2c2:	e000                	.2byte	0xe000
 2c4:	041e                	slli	s0,s0,0x7
 2c6:	e000                	.2byte	0xe000
 2c8:	9f7f8703          	lb	a4,-1545(t6)
 2cc:	00041e07          	.4byte	0x41e07
 2d0:	20e0                	.2byte	0x20e0
 2d2:	0004                	.2byte	0x4
 2d4:	01e0                	addi	s0,sp,204
 2d6:	16070067          	jr	352(a4)
 2da:	0004                	.2byte	0x4
 2dc:	1ee0                	addi	s0,sp,892
 2de:	0004                	.2byte	0x4
 2e0:	02e0                	addi	s0,sp,332
 2e2:	9f30                	.2byte	0x9f30
 2e4:	0700                	addi	s0,sp,896
 2e6:	0416                	slli	s0,s0,0x5
 2e8:	e000                	.2byte	0xe000
 2ea:	041d                	addi	s0,s0,7
 2ec:	e000                	.2byte	0xe000
 2ee:	8608                	.2byte	0x8608
 2f0:	9400                	.2byte	0x9400
 2f2:	0801                	addi	a6,a6,0 # 590b5280 <tohost+0x59095278>
 2f4:	1aff                	.2byte	0x1aff
 2f6:	009f b207 0000      	.byte	0x9f, 0x00, 0x07, 0xb2, 0x00, 0x00
 2fc:	cce0                	sw	s0,92(s1)
 2fe:	0000                	unimp
 300:	01e0                	addi	s0,sp,204
 302:	075a                	slli	a4,a4,0x16
 304:	00cc                	addi	a1,sp,68
 306:	e000                	.2byte	0xe000
 308:	00d8                	addi	a4,sp,68
 30a:	e000                	.2byte	0xe000
 30c:	5a01                	li	s4,-32
 30e:	0700                	addi	s0,sp,896
 310:	00b2                	slli	ra,ra,0xc
 312:	e000                	.2byte	0xe000
 314:	00ce                	slli	ra,ra,0x13
 316:	e000                	.2byte	0xe000
 318:	5b01                	li	s6,-32
 31a:	0000ce07          	.4byte	0xce07
 31e:	d0e0                	sw	s0,100(s1)
 320:	0000                	unimp
 322:	03e0                	addi	s0,sp,460
 324:	079f017b          	.4byte	0x79f017b
 328:	00d0                	addi	a2,sp,68
 32a:	e000                	.2byte	0xe000
 32c:	00d8                	addi	a4,sp,68
 32e:	e000                	.2byte	0xe000
 330:	5b01                	li	s6,-32
 332:	0700                	addi	s0,sp,896
 334:	0084                	addi	s1,sp,64
 336:	e000                	.2byte	0xe000
 338:	0098                	addi	a4,sp,64
 33a:	e000                	.2byte	0xe000
 33c:	5b01                	li	s6,-32
 33e:	00009807          	.4byte	0x9807
 342:	b2e0                	.2byte	0xb2e0
 344:	0000                	unimp
 346:	04e0                	addi	s0,sp,588
 348:	9f5b01a3          	sb	s5,-1565(s6)
 34c:	0700                	addi	s0,sp,896
 34e:	00fa                	slli	ra,ra,0x1e
 350:	e000                	.2byte	0xe000
 352:	014a                	slli	sp,sp,0x12
 354:	e000                	.2byte	0xe000
 356:	5a01                	li	s4,-32
 358:	00014a07          	.4byte	0x14a07
 35c:	64e0                	.2byte	0x64e0
 35e:	0001                	nop
 360:	01e0                	addi	s0,sp,204
 362:	0764                	addi	s1,sp,908
 364:	0164                	addi	s1,sp,140
 366:	e000                	.2byte	0xe000
 368:	0176                	slli	sp,sp,0x1d
 36a:	e000                	.2byte	0xe000
 36c:	8409                	srai	s0,s0,0x2
 36e:	8200                	.2byte	0x8200
 370:	1c00                	addi	s0,sp,560
 372:	9f220083          	lb	ra,-1550(tp) # fffff9f2 <fromhost+0x1ffef9e2>
 376:	0700                	addi	s0,sp,896
 378:	00fa                	slli	ra,ra,0x1e
 37a:	e000                	.2byte	0xe000
 37c:	012a                	slli	sp,sp,0xa
 37e:	e000                	.2byte	0xe000
 380:	5b01                	li	s6,-32
 382:	00012a07          	.4byte	0x12a07
 386:	48e0                	lw	s0,84(s1)
 388:	0001                	nop
 38a:	01e0                	addi	s0,sp,204
 38c:	0758                	addi	a4,sp,900
 38e:	0148                	addi	a0,sp,132
 390:	e000                	.2byte	0xe000
 392:	014a                	slli	sp,sp,0x12
 394:	e000                	.2byte	0xe000
 396:	5b01                	li	s6,-32
 398:	00014a07          	.4byte	0x14a07
 39c:	4ee0                	lw	s0,92(a3)
 39e:	0001                	nop
 3a0:	01e0                	addi	s0,sp,204
 3a2:	0762                	slli	a4,a4,0x18
 3a4:	014e                	slli	sp,sp,0x13
 3a6:	e000                	.2byte	0xe000
 3a8:	0150                	addi	a2,sp,132
 3aa:	e000                	.2byte	0xe000
 3ac:	9f7f8203          	lb	tp,-1545(t6)
 3b0:	00015007          	.4byte	0x15007
 3b4:	56e0                	lw	s0,108(a3)
 3b6:	0001                	nop
 3b8:	01e0                	addi	s0,sp,204
 3ba:	0762                	slli	a4,a4,0x18
 3bc:	0164                	addi	s1,sp,140
 3be:	e000                	.2byte	0xe000
 3c0:	017a                	slli	sp,sp,0x1e
 3c2:	e000                	.2byte	0xe000
 3c4:	5801                	li	a6,-32
 3c6:	00017a07          	.4byte	0x17a07
 3ca:	90e0                	.2byte	0x90e0
 3cc:	0001                	nop
 3ce:	01e0                	addi	s0,sp,204
 3d0:	0762                	slli	a4,a4,0x18
 3d2:	0198                	addi	a4,sp,192
 3d4:	e000                	.2byte	0xe000
 3d6:	01a0                	addi	s0,sp,200
 3d8:	e000                	.2byte	0xe000
 3da:	6201                	.2byte	0x6201
 3dc:	0700                	addi	s0,sp,896
 3de:	00fa                	slli	ra,ra,0x1e
 3e0:	e000                	.2byte	0xe000
 3e2:	013a                	slli	sp,sp,0xe
 3e4:	e000                	.2byte	0xe000
 3e6:	5c01                	li	s8,-32
 3e8:	00013a07          	.4byte	0x13a07
 3ec:	46e0                	lw	s0,76(a3)
 3ee:	0001                	nop
 3f0:	04e0                	addi	s0,sp,588
 3f2:	9f5c01a3          	sb	s5,-1565(s8)
 3f6:	00014607          	.4byte	0x14607
 3fa:	4ae0                	lw	s0,84(a3)
 3fc:	0001                	nop
 3fe:	01e0                	addi	s0,sp,204
 400:	075c                	addi	a5,sp,900
 402:	014a                	slli	sp,sp,0x12
 404:	e000                	.2byte	0xe000
 406:	01a0                	addi	s0,sp,200
 408:	e000                	.2byte	0xe000
 40a:	a304                	.2byte	0xa304
 40c:	5c01                	li	s8,-32
 40e:	009f fa07 0000      	.byte	0x9f, 0x00, 0x07, 0xfa, 0x00, 0x00
 414:	4ae0                	lw	s0,84(a3)
 416:	0001                	nop
 418:	02e0                	addi	s0,sp,332
 41a:	9f30                	.2byte	0x9f30
 41c:	00016407          	.4byte	0x16407
 420:	7ae0                	.2byte	0x7ae0
 422:	0001                	nop
 424:	01e0                	addi	s0,sp,204
 426:	fa070063          	beqz	a4,fffffbc6 <fromhost+0x1ffefbb6>
 42a:	0000                	unimp
 42c:	38e0                	.2byte	0x38e0
 42e:	0001                	nop
 430:	03e0                	addi	s0,sp,460
 432:	2008                	.2byte	0x2008
 434:	079f 0146 e000      	.byte	0x9f, 0x07, 0x46, 0x01, 0x00, 0xe0
 43a:	014a                	slli	sp,sp,0x12
 43c:	e000                	.2byte	0xe000
 43e:	9f200803          	lb	a6,-1550(zero) # fffff9f2 <fromhost+0x1ffef9e2>
 442:	0700                	addi	s0,sp,896
 444:	0118                	addi	a4,sp,128
 446:	e000                	.2byte	0xe000
 448:	012e                	slli	sp,sp,0xb
 44a:	e000                	.2byte	0xe000
 44c:	5f01                	li	t5,-32
 44e:	00014607          	.4byte	0x14607
 452:	4ae0                	lw	s0,84(a3)
 454:	0001                	nop
 456:	01e0                	addi	s0,sp,204
 458:	005f 1807 0001      	.byte	0x5f, 0x00, 0x07, 0x18, 0x01, 0x00
 45e:	1ee0                	addi	s0,sp,892
 460:	0001                	nop
 462:	06e0                	addi	s0,sp,844
 464:	007a                	c.slli	zero,0x1e
 466:	007f                	.2byte	0x7f
 468:	9f22                	add	t5,t5,s0
 46a:	00011e07          	.4byte	0x11e07
 46e:	22e0                	.2byte	0x22e0
 470:	0001                	nop
 472:	01e0                	addi	s0,sp,204
 474:	075e                	slli	a4,a4,0x17
 476:	0122                	slli	sp,sp,0x8
 478:	e000                	.2byte	0xe000
 47a:	012e                	slli	sp,sp,0xb
 47c:	e000                	.2byte	0xe000
 47e:	7a06                	.2byte	0x7a06
 480:	7f00                	.2byte	0x7f00
 482:	2200                	.2byte	0x2200
 484:	079f 0146 e000      	.byte	0x9f, 0x07, 0x46, 0x01, 0x00, 0xe0
 48a:	014a                	slli	sp,sp,0x12
 48c:	e000                	.2byte	0xe000
 48e:	7a06                	.2byte	0x7a06
 490:	7f00                	.2byte	0x7f00
 492:	2200                	.2byte	0x2200
 494:	009f 4a07 0001      	.byte	0x9f, 0x00, 0x07, 0x4a, 0x01, 0x00
 49a:	4ee0                	lw	s0,92(a3)
 49c:	0001                	nop
 49e:	02e0                	addi	s0,sp,332
 4a0:	9f30                	.2byte	0x9f30
 4a2:	0700                	addi	s0,sp,896
 4a4:	0164                	addi	s1,sp,140
 4a6:	e000                	.2byte	0xe000
 4a8:	0166                	slli	sp,sp,0x19
 4aa:	e000                	.2byte	0xe000
 4ac:	3002                	.2byte	0x3002
 4ae:	009f 6407 0001      	.byte	0x9f, 0x00, 0x07, 0x64, 0x01, 0x00
 4b4:	65e0                	.2byte	0x65e0
 4b6:	0001                	nop
 4b8:	06e0                	addi	s0,sp,844
 4ba:	007a                	c.slli	zero,0x1e
 4bc:	ff08                	.2byte	0xff08
 4be:	9f1a                	add	t5,t5,t1
 4c0:	0700                	addi	s0,sp,896
 4c2:	0198                	addi	a4,sp,192
 4c4:	e000                	.2byte	0xe000
 4c6:	019c                	addi	a5,sp,192
 4c8:	e000                	.2byte	0xe000
 4ca:	3002                	.2byte	0x3002
 4cc:	009f a007 0001      	.byte	0x9f, 0x00, 0x07, 0xa0, 0x01, 0x00
 4d2:	b8e0                	.2byte	0xb8e0
 4d4:	0001                	nop
 4d6:	01e0                	addi	s0,sp,204
 4d8:	075a                	slli	a4,a4,0x16
 4da:	01b8                	addi	a4,sp,200
 4dc:	e000                	.2byte	0xe000
 4de:	01c8                	addi	a0,sp,196
 4e0:	e000                	.2byte	0xe000
 4e2:	a304                	.2byte	0xa304
 4e4:	5a01                	li	s4,-32
 4e6:	079f 01c8 e000      	.byte	0x9f, 0x07, 0xc8, 0x01, 0x00, 0xe0
 4ec:	01fa                	slli	gp,gp,0x1e
 4ee:	e000                	.2byte	0xe000
 4f0:	5a01                	li	s4,-32
 4f2:	0001fa07          	.4byte	0x1fa07
 4f6:	4ce0                	lw	s0,92(s1)
 4f8:	0002                	c.slli64	zero
 4fa:	04e0                	addi	s0,sp,588
 4fc:	9f5a01a3          	sb	s5,-1565(s4)
 500:	00024c07          	.4byte	0x24c07
 504:	56e0                	lw	s0,108(a3)
 506:	0002                	c.slli64	zero
 508:	01e0                	addi	s0,sp,204
 50a:	075a                	slli	a4,a4,0x16
 50c:	0256                	slli	tp,tp,0x15
 50e:	e000                	.2byte	0xe000
 510:	02a2                	slli	t0,t0,0x8
 512:	e000                	.2byte	0xe000
 514:	a304                	.2byte	0xa304
 516:	5a01                	li	s4,-32
 518:	009f a007 0001      	.byte	0x9f, 0x00, 0x07, 0xa0, 0x01, 0x00
 51e:	aee0                	.2byte	0xaee0
 520:	0001                	nop
 522:	01e0                	addi	s0,sp,204
 524:	01ae075b          	.4byte	0x1ae075b
 528:	e000                	.2byte	0xe000
 52a:	01bd                	addi	gp,gp,15
 52c:	e000                	.2byte	0xe000
 52e:	6101                	addi	sp,sp,0
 530:	0001bd07          	.4byte	0x1bd07
 534:	c8e0                	sw	s0,84(s1)
 536:	0001                	nop
 538:	04e0                	addi	s0,sp,588
 53a:	9f5b01a3          	sb	s5,-1565(s6)
 53e:	0001c807          	.4byte	0x1c807
 542:	f4e0                	.2byte	0xf4e0
 544:	0001                	nop
 546:	01e0                	addi	s0,sp,204
 548:	0761                	addi	a4,a4,24
 54a:	01f4                	addi	a3,sp,204
 54c:	e000                	.2byte	0xe000
 54e:	024c                	addi	a1,sp,260
 550:	e000                	.2byte	0xe000
 552:	a304                	.2byte	0xa304
 554:	5b01                	li	s6,-32
 556:	079f 024c e000      	.byte	0x9f, 0x07, 0x4c, 0x02, 0x00, 0xe0
 55c:	0272                	slli	tp,tp,0x1c
 55e:	e000                	.2byte	0xe000
 560:	6101                	addi	sp,sp,0
 562:	00027207          	.4byte	0x27207
 566:	a2e0                	.2byte	0xa2e0
 568:	0002                	c.slli64	zero
 56a:	04e0                	addi	s0,sp,588
 56c:	9f5b01a3          	sb	s5,-1565(s6)
 570:	0700                	addi	s0,sp,896
 572:	01a0                	addi	s0,sp,200
 574:	e000                	.2byte	0xe000
 576:	01b0                	addi	a2,sp,200
 578:	e000                	.2byte	0xe000
 57a:	5c01                	li	s8,-32
 57c:	0001b007          	.4byte	0x1b007
 580:	bee0                	.2byte	0xbee0
 582:	0001                	nop
 584:	01e0                	addi	s0,sp,204
 586:	0759                	addi	a4,a4,22
 588:	01be                	slli	gp,gp,0xf
 58a:	e000                	.2byte	0xe000
 58c:	01c8                	addi	a0,sp,196
 58e:	e000                	.2byte	0xe000
 590:	a304                	.2byte	0xa304
 592:	5c01                	li	s8,-32
 594:	079f 01c8 e000      	.byte	0x9f, 0x07, 0xc8, 0x01, 0x00, 0xe0
 59a:	01da                	slli	gp,gp,0x16
 59c:	e000                	.2byte	0xe000
 59e:	5901                	li	s2,-32
 5a0:	0001da07          	.4byte	0x1da07
 5a4:	4ce0                	lw	s0,92(s1)
 5a6:	0002                	c.slli64	zero
 5a8:	04e0                	addi	s0,sp,588
 5aa:	9f5c01a3          	sb	s5,-1565(s8)
 5ae:	00024c07          	.4byte	0x24c07
 5b2:	4ee0                	lw	s0,92(a3)
 5b4:	0002                	c.slli64	zero
 5b6:	01e0                	addi	s0,sp,204
 5b8:	0759                	addi	a4,a4,22
 5ba:	024e                	slli	tp,tp,0x13
 5bc:	e000                	.2byte	0xe000
 5be:	02a2                	slli	t0,t0,0x8
 5c0:	e000                	.2byte	0xe000
 5c2:	a304                	.2byte	0xa304
 5c4:	5c01                	li	s8,-32
 5c6:	009f a007 0001      	.byte	0x9f, 0x00, 0x07, 0xa0, 0x01, 0x00
 5cc:	bde0                	.2byte	0xbde0
 5ce:	0001                	nop
 5d0:	01e0                	addi	s0,sp,204
 5d2:	075d                	addi	a4,a4,23
 5d4:	01bd                	addi	gp,gp,15
 5d6:	e000                	.2byte	0xe000
 5d8:	01be                	slli	gp,gp,0xf
 5da:	e000                	.2byte	0xe000
 5dc:	a304                	.2byte	0xa304
 5de:	5d01                	li	s10,-32
 5e0:	079f 01c8 e000      	.byte	0x9f, 0x07, 0xc8, 0x01, 0x00, 0xe0
 5e6:	0285                	addi	t0,t0,1
 5e8:	e000                	.2byte	0xe000
 5ea:	5b01                	li	s6,-32
 5ec:	00028507          	.4byte	0x28507
 5f0:	8ce0                	.2byte	0x8ce0
 5f2:	0002                	c.slli64	zero
 5f4:	02e0                	addi	s0,sp,332
 5f6:	4891                	li	a7,4
 5f8:	00028c07          	.4byte	0x28c07
 5fc:	8fe0                	.2byte	0x8fe0
 5fe:	0002                	c.slli64	zero
 600:	01e0                	addi	s0,sp,204
 602:	0294075b          	.4byte	0x294075b
 606:	e000                	.2byte	0xe000
 608:	02a2                	slli	t0,t0,0x8
 60a:	e000                	.2byte	0xe000
 60c:	5b01                	li	s6,-32
 60e:	0700                	addi	s0,sp,896
 610:	01a0                	addi	s0,sp,200
 612:	e000                	.2byte	0xe000
 614:	01bd                	addi	gp,gp,15
 616:	e000                	.2byte	0xe000
 618:	5e01                	li	t3,-32
 61a:	0001bd07          	.4byte	0x1bd07
 61e:	c8e0                	sw	s0,84(s1)
 620:	0001                	nop
 622:	04e0                	addi	s0,sp,588
 624:	9f5e01a3          	sb	s5,-1565(t3)
 628:	0001c807          	.4byte	0x1c807
 62c:	85e0                	.2byte	0x85e0
 62e:	0002                	c.slli64	zero
 630:	01e0                	addi	s0,sp,204
 632:	075c                	addi	a5,sp,900
 634:	0285                	addi	t0,t0,1
 636:	e000                	.2byte	0xe000
 638:	028c                	addi	a1,sp,320
 63a:	e000                	.2byte	0xe000
 63c:	9102                	jalr	sp
 63e:	074c                	addi	a1,sp,900
 640:	028c                	addi	a1,sp,320
 642:	e000                	.2byte	0xe000
 644:	0294                	addi	a3,sp,320
 646:	e000                	.2byte	0xe000
 648:	a304                	.2byte	0xa304
 64a:	5e01                	li	t3,-32
 64c:	079f 0294 e000      	.byte	0x9f, 0x07, 0x94, 0x02, 0x00, 0xe0
 652:	02a2                	slli	t0,t0,0x8
 654:	e000                	.2byte	0xe000
 656:	5c01                	li	s8,-32
 658:	0700                	addi	s0,sp,896
 65a:	01a0                	addi	s0,sp,200
 65c:	e000                	.2byte	0xe000
 65e:	01b6                	slli	gp,gp,0xd
 660:	e000                	.2byte	0xe000
 662:	5f01                	li	t5,-32
 664:	0001b607          	.4byte	0x1b607
 668:	c8e0                	sw	s0,84(s1)
 66a:	0001                	nop
 66c:	04e0                	addi	s0,sp,588
 66e:	9f5f01a3          	sb	s5,-1565(t5) # fffdf9e3 <fromhost+0x1ffcf9d3>
 672:	0001c807          	.4byte	0x1c807
 676:	fae0                	.2byte	0xfae0
 678:	0001                	nop
 67a:	01e0                	addi	s0,sp,204
 67c:	075f 01fa e000      	.byte	0x5f, 0x07, 0xfa, 0x01, 0x00, 0xe0
 682:	024c                	addi	a1,sp,260
 684:	e000                	.2byte	0xe000
 686:	a304                	.2byte	0xa304
 688:	5f01                	li	t5,-32
 68a:	079f 024c e000      	.byte	0x9f, 0x07, 0x4c, 0x02, 0x00, 0xe0
 690:	0256                	slli	tp,tp,0x15
 692:	e000                	.2byte	0xe000
 694:	5f01                	li	t5,-32
 696:	00025607          	.4byte	0x25607
 69a:	a2e0                	.2byte	0xa2e0
 69c:	0002                	c.slli64	zero
 69e:	04e0                	addi	s0,sp,588
 6a0:	9f5f01a3          	sb	s5,-1565(t5)
 6a4:	0700                	addi	s0,sp,896
 6a6:	01da                	slli	gp,gp,0x16
 6a8:	e000                	.2byte	0xe000
 6aa:	01e4                	addi	s1,sp,204
 6ac:	e000                	.2byte	0xe000
 6ae:	9f6f9103          	lh	sp,-1546(t6)
 6b2:	0001e407          	.4byte	0x1e407
 6b6:	4ce0                	lw	s0,92(s1)
 6b8:	0002                	c.slli64	zero
 6ba:	01e0                	addi	s0,sp,204
 6bc:	0758                	addi	a4,sp,900
 6be:	0250                	addi	a2,sp,260
 6c0:	e000                	.2byte	0xe000
 6c2:	0294                	addi	a3,sp,320
 6c4:	e000                	.2byte	0xe000
 6c6:	5801                	li	a6,-32
 6c8:	00029407          	.4byte	0x29407
 6cc:	a0e0                	.2byte	0xa0e0
 6ce:	0002                	c.slli64	zero
 6d0:	03e0                	addi	s0,sp,460
 6d2:	7f78                	.2byte	0x7f78
 6d4:	079f 02a0 e000      	.byte	0x9f, 0x07, 0xa0, 0x02, 0x00, 0xe0
 6da:	02a2                	slli	t0,t0,0x8
 6dc:	e000                	.2byte	0xe000
 6de:	5801                	li	a6,-32
 6e0:	0700                	addi	s0,sp,896
 6e2:	01a0                	addi	s0,sp,200
 6e4:	e000                	.2byte	0xe000
 6e6:	01be                	slli	gp,gp,0xf
 6e8:	e000                	.2byte	0xe000
 6ea:	3002                	.2byte	0x3002
 6ec:	079f 01c8 e000      	.byte	0x9f, 0x07, 0xc8, 0x01, 0x00, 0xe0
 6f2:	01d6                	slli	gp,gp,0x15
 6f4:	e000                	.2byte	0xe000
 6f6:	3002                	.2byte	0x3002
 6f8:	079f 01d6 e000      	.byte	0x9f, 0x07, 0xd6, 0x01, 0x00, 0xe0
 6fe:	01da                	slli	gp,gp,0x16
 700:	e000                	.2byte	0xe000
 702:	3102                	.2byte	0x3102
 704:	079f 01da e000      	.byte	0x9f, 0x07, 0xda, 0x01, 0x00, 0xe0
 70a:	024c                	addi	a1,sp,260
 70c:	e000                	.2byte	0xe000
 70e:	5901                	li	s2,-32
 710:	00024c07          	.4byte	0x24c07
 714:	50e0                	lw	s0,100(s1)
 716:	0002                	c.slli64	zero
 718:	02e0                	addi	s0,sp,332
 71a:	9f30                	.2byte	0x9f30
 71c:	00025007          	.4byte	0x25007
 720:	8ce0                	.2byte	0x8ce0
 722:	0002                	c.slli64	zero
 724:	01e0                	addi	s0,sp,204
 726:	0759                	addi	a4,a4,22
 728:	0294                	addi	a3,sp,320
 72a:	e000                	.2byte	0xe000
 72c:	029e                	slli	t0,t0,0x7
 72e:	e000                	.2byte	0xe000
 730:	5901                	li	s2,-32
 732:	0700                	addi	s0,sp,896
 734:	01a0                	addi	s0,sp,200
 736:	e000                	.2byte	0xe000
 738:	01be                	slli	gp,gp,0xf
 73a:	e000                	.2byte	0xe000
 73c:	3002                	.2byte	0x3002
 73e:	079f 01c8 e000      	.byte	0x9f, 0x07, 0xc8, 0x01, 0x00, 0xe0
 744:	0286                	slli	t0,t0,0x1
 746:	e000                	.2byte	0xe000
 748:	3002                	.2byte	0x3002
 74a:	079f 0286 e000      	.byte	0x9f, 0x07, 0x86, 0x02, 0x00, 0xe0
 750:	028c                	addi	a1,sp,320
 752:	e000                	.2byte	0xe000
 754:	3102                	.2byte	0x3102
 756:	079f 028c e000      	.byte	0x9f, 0x07, 0x8c, 0x02, 0x00, 0xe0
 75c:	0294                	addi	a3,sp,320
 75e:	e000                	.2byte	0xe000
 760:	5901                	li	s2,-32
 762:	00029407          	.4byte	0x29407
 766:	a2e0                	.2byte	0xa2e0
 768:	0002                	c.slli64	zero
 76a:	02e0                	addi	s0,sp,332
 76c:	9f30                	.2byte	0x9f30
 76e:	0700                	addi	s0,sp,896
 770:	01a0                	addi	s0,sp,200
 772:	e000                	.2byte	0xe000
 774:	01b8                	addi	a4,sp,200
 776:	e000                	.2byte	0xe000
 778:	5a01                	li	s4,-32
 77a:	0001b807          	.4byte	0x1b807
 77e:	bee0                	.2byte	0xbee0
 780:	0001                	nop
 782:	04e0                	addi	s0,sp,588
 784:	9f5a01a3          	sb	s5,-1565(s4)
 788:	0001c807          	.4byte	0x1c807
 78c:	dae0                	sw	s0,116(a3)
 78e:	0001                	nop
 790:	01e0                	addi	s0,sp,204
 792:	075a                	slli	a4,a4,0x16
 794:	01da                	slli	gp,gp,0x16
 796:	e000                	.2byte	0xe000
 798:	023c                	addi	a5,sp,264
 79a:	e000                	.2byte	0xe000
 79c:	6001                	.2byte	0x6001
 79e:	00023c07          	.4byte	0x23c07
 7a2:	40e0                	lw	s0,68(s1)
 7a4:	0002                	c.slli64	zero
 7a6:	03e0                	addi	s0,sp,460
 7a8:	7a80                	.2byte	0x7a80
 7aa:	079f 0246 e000      	.byte	0x9f, 0x07, 0x46, 0x02, 0x00, 0xe0
 7b0:	024c                	addi	a1,sp,260
 7b2:	e000                	.2byte	0xe000
 7b4:	6001                	.2byte	0x6001
 7b6:	00024c07          	.4byte	0x24c07
 7ba:	50e0                	lw	s0,100(s1)
 7bc:	0002                	c.slli64	zero
 7be:	01e0                	addi	s0,sp,204
 7c0:	075a                	slli	a4,a4,0x16
 7c2:	0250                	addi	a2,sp,260
 7c4:	e000                	.2byte	0xe000
 7c6:	0285                	addi	t0,t0,1
 7c8:	e000                	.2byte	0xe000
 7ca:	6001                	.2byte	0x6001
 7cc:	00029407          	.4byte	0x29407
 7d0:	a2e0                	.2byte	0xa2e0
 7d2:	0002                	c.slli64	zero
 7d4:	01e0                	addi	s0,sp,204
 7d6:	0060                	addi	s0,sp,12
 7d8:	0001fa07          	.4byte	0x1fa07
 7dc:	02e0                	addi	s0,sp,332
 7de:	0002                	c.slli64	zero
 7e0:	01e0                	addi	s0,sp,204
 7e2:	0060                	addi	s0,sp,12
 7e4:	00021c07          	.4byte	0x21c07
 7e8:	3ce0                	.2byte	0x3ce0
 7ea:	0002                	c.slli64	zero
 7ec:	01e0                	addi	s0,sp,204
 7ee:	0760                	addi	s0,sp,908
 7f0:	023c                	addi	a5,sp,264
 7f2:	e000                	.2byte	0xe000
 7f4:	0240                	addi	s0,sp,260
 7f6:	e000                	.2byte	0xe000
 7f8:	9f7a8003          	lb	zero,-1545(s5) # 7747d135 <tohost+0x7745d12d>
 7fc:	0700                	addi	s0,sp,896
 7fe:	0222                	slli	tp,tp,0x8
 800:	e000                	.2byte	0xe000
 802:	0246                	slli	tp,tp,0x11
 804:	e000                	.2byte	0xe000
 806:	5f01                	li	t5,-32
 808:	0700                	addi	s0,sp,896
 80a:	0236                	slli	tp,tp,0xd
 80c:	e000                	.2byte	0xe000
 80e:	023c                	addi	a5,sp,264
 810:	e000                	.2byte	0xe000
 812:	7f09                	lui	t5,0xfffe2
 814:	0900                	addi	s0,sp,144
 816:	1ef6                	slli	t4,t4,0x3d
 818:	0080                	addi	s0,sp,64
 81a:	9f22                	add	t5,t5,s0
 81c:	00023c07          	.4byte	0x23c07
 820:	40e0                	lw	s0,68(s1)
 822:	0002                	c.slli64	zero
 824:	0be0                	addi	s0,sp,476
 826:	007f                	.2byte	0x7f
 828:	f609                	bnez	a2,732 <_min_stack-0x18ce>
 82a:	801e                	c.mv	zero,t2
 82c:	2200                	.2byte	0x2200
 82e:	1c36                	slli	s8,s8,0x2d
 830:	009f 5a07 0002      	.byte	0x9f, 0x00, 0x07, 0x5a, 0x02, 0x00
 836:	66e0                	.2byte	0x66e0
 838:	0002                	c.slli64	zero
 83a:	01e0                	addi	s0,sp,204
 83c:	075a                	slli	a4,a4,0x16
 83e:	0266                	slli	tp,tp,0x19
 840:	e000                	.2byte	0xe000
 842:	0272                	slli	tp,tp,0x1c
 844:	e000                	.2byte	0xe000
 846:	9f507a03          	.4byte	0x9f507a03
 84a:	0700                	addi	s0,sp,896
 84c:	0284                	addi	s1,sp,320
 84e:	e000                	.2byte	0xe000
 850:	0286                	slli	t0,t0,0x1
 852:	e000                	.2byte	0xe000
 854:	3002                	.2byte	0x3002
 856:	009f 8407 0002      	.byte	0x9f, 0x00, 0x07, 0x84, 0x02, 0x00
 85c:	86e0                	.2byte	0x86e0
 85e:	0002                	c.slli64	zero
 860:	03e0                	addi	s0,sp,460
 862:	2d08                	.2byte	0x2d08
 864:	009f b007 0002      	.byte	0x9f, 0x00, 0x07, 0xb0, 0x02, 0x00
 86a:	bae0                	.2byte	0xbae0
 86c:	0002                	c.slli64	zero
 86e:	01e0                	addi	s0,sp,204
 870:	075a                	slli	a4,a4,0x16
 872:	02ba                	slli	t0,t0,0xe
 874:	e000                	.2byte	0xe000
 876:	02c4                	addi	s1,sp,324
 878:	e000                	.2byte	0xe000
 87a:	5801                	li	a6,-32
 87c:	0002c407          	.4byte	0x2c407
 880:	c8e0                	sw	s0,84(s1)
 882:	0002                	c.slli64	zero
 884:	01e0                	addi	s0,sp,204
 886:	005a                	c.slli	zero,0x16
 888:	006c                	addi	a1,sp,12
 88a:	0000                	unimp
 88c:	0005                	c.nop	1
 88e:	0004                	.2byte	0x4
 890:	0000                	unimp
 892:	0000                	unimp
 894:	0004f007          	.4byte	0x4f007
 898:	0ce0                	addi	s0,sp,604
 89a:	0005                	c.nop	1
 89c:	01e0                	addi	s0,sp,204
 89e:	075a                	slli	a4,a4,0x16
 8a0:	050c                	addi	a1,sp,640
 8a2:	e000                	.2byte	0xe000
 8a4:	0546                	slli	a0,a0,0x11
 8a6:	e000                	.2byte	0xe000
 8a8:	a304                	.2byte	0xa304
 8aa:	5a01                	li	s4,-32
 8ac:	009f f007 0004      	.byte	0x9f, 0x00, 0x07, 0xf0, 0x04, 0x00
 8b2:	0ae0                	addi	s0,sp,348
 8b4:	0005                	c.nop	1
 8b6:	01e0                	addi	s0,sp,204
 8b8:	050a075b          	.4byte	0x50a075b
 8bc:	e000                	.2byte	0xe000
 8be:	0546                	slli	a0,a0,0x11
 8c0:	e000                	.2byte	0xe000
 8c2:	a304                	.2byte	0xa304
 8c4:	5b01                	li	s6,-32
 8c6:	009f fa07 0004      	.byte	0x9f, 0x00, 0x07, 0xfa, 0x04, 0x00
 8cc:	10e0                	addi	s0,sp,108
 8ce:	0005                	c.nop	1
 8d0:	02e0                	addi	s0,sp,332
 8d2:	9f30                	.2byte	0x9f30
 8d4:	00051007          	.4byte	0x51007
 8d8:	30e0                	.2byte	0x30e0
 8da:	0005                	c.nop	1
 8dc:	01e0                	addi	s0,sp,204
 8de:	075d                	addi	a4,a4,23
 8e0:	0530                	addi	a2,sp,648
 8e2:	e000                	.2byte	0xe000
 8e4:	0536                	slli	a0,a0,0xd
 8e6:	e000                	.2byte	0xe000
 8e8:	9f7d7d03          	.4byte	0x9f7d7d03
 8ec:	00053607          	.4byte	0x53607
 8f0:	46e0                	lw	s0,76(a3)
 8f2:	0005                	c.nop	1
 8f4:	01e0                	addi	s0,sp,204
 8f6:	005d                	c.nop	23

Disassembly of section .debug_aranges:

00000000 <.debug_aranges>:
   0:	001c                	.2byte	0x1c
   2:	0000                	unimp
   4:	0002                	c.slli64	zero
   6:	0000                	unimp
   8:	0000                	unimp
   a:	0004                	.2byte	0x4
   c:	0000                	unimp
   e:	0000                	unimp
  10:	0084                	addi	s1,sp,64
  12:	e000                	.2byte	0xe000
  14:	03d6                	slli	t2,t2,0x15
	...
  1e:	0000                	unimp
  20:	001c                	.2byte	0x1c
  22:	0000                	unimp
  24:	0002                	c.slli64	zero
  26:	0000087b          	.4byte	0x87b
  2a:	0004                	.2byte	0x4
  2c:	0000                	unimp
  2e:	0000                	unimp
  30:	04f0                	addi	a2,sp,588
  32:	e000                	.2byte	0xe000
  34:	0056                	c.slli	zero,0x15
	...
  3e:	0000                	unimp
  40:	0024                	addi	s1,sp,8
  42:	0000                	unimp
  44:	0002                	c.slli64	zero
  46:	0a05                	addi	s4,s4,1
  48:	0000                	unimp
  4a:	0004                	.2byte	0x4
  4c:	0000                	unimp
  4e:	0000                	unimp
  50:	045a                	slli	s0,s0,0x16
  52:	e000                	.2byte	0xe000
  54:	0096                	slli	ra,ra,0x5
  56:	0000                	unimp
  58:	0000                	unimp
  5a:	e000                	.2byte	0xe000
  5c:	0084                	addi	s1,sp,64
	...

Disassembly of section .debug_rnglists:

00000000 <.debug_rnglists>:
   0:	000000eb          	.4byte	0xeb
   4:	0005                	c.nop	1
   6:	0004                	.2byte	0x4
   8:	0000                	unimp
   a:	0000                	unimp
   c:	1806                	slli	a6,a6,0x21
   e:	0001                	nop
  10:	2ee0                	.2byte	0x2ee0
  12:	0001                	nop
  14:	06e0                	addi	s0,sp,844
  16:	0132                	slli	sp,sp,0xc
  18:	e000                	.2byte	0xe000
  1a:	0138                	addi	a4,sp,136
  1c:	e000                	.2byte	0xe000
  1e:	4606                	lw	a2,64(sp)
  20:	0001                	nop
  22:	4ae0                	lw	s0,84(a3)
  24:	0001                	nop
  26:	00e0                	addi	s0,sp,76
  28:	4006                	.2byte	0x4006
  2a:	0001                	nop
  2c:	46e0                	lw	s0,76(a3)
  2e:	0001                	nop
  30:	06e0                	addi	s0,sp,844
  32:	014a                	slli	sp,sp,0x12
  34:	e000                	.2byte	0xe000
  36:	014e                	slli	sp,sp,0x13
  38:	e000                	.2byte	0xe000
  3a:	0600                	addi	s0,sp,768
  3c:	0140                	addi	s0,sp,132
  3e:	e000                	.2byte	0xe000
  40:	0146                	slli	sp,sp,0x11
  42:	e000                	.2byte	0xe000
  44:	4a06                	lw	s4,64(sp)
  46:	0001                	nop
  48:	4ee0                	lw	s0,92(a3)
  4a:	0001                	nop
  4c:	00e0                	addi	s0,sp,76
  4e:	7606                	.2byte	0x7606
  50:	0001                	nop
  52:	7ae0                	.2byte	0x7ae0
  54:	0001                	nop
  56:	06e0                	addi	s0,sp,844
  58:	0198                	addi	a4,sp,192
  5a:	e000                	.2byte	0xe000
  5c:	019c                	addi	a5,sp,192
  5e:	e000                	.2byte	0xe000
  60:	0600                	addi	s0,sp,768
  62:	0176                	slli	sp,sp,0x1d
  64:	e000                	.2byte	0xe000
  66:	017a                	slli	sp,sp,0x1e
  68:	e000                	.2byte	0xe000
  6a:	9806                	add	a6,a6,ra
  6c:	0001                	nop
  6e:	9ce0                	.2byte	0x9ce0
  70:	0001                	nop
  72:	00e0                	addi	s0,sp,76
  74:	e806                	.2byte	0xe806
  76:	0001                	nop
  78:	f8e0                	.2byte	0xf8e0
  7a:	0001                	nop
  7c:	06e0                	addi	s0,sp,844
  7e:	01fa                	slli	gp,gp,0x1e
  80:	e000                	.2byte	0xe000
  82:	0206                	slli	tp,tp,0x1
  84:	e000                	.2byte	0xe000
  86:	0806                	slli	a6,a6,0x1
  88:	0002                	c.slli64	zero
  8a:	10e0                	addi	s0,sp,108
  8c:	0002                	c.slli64	zero
  8e:	00e0                	addi	s0,sp,76
  90:	f806                	.2byte	0xf806
  92:	0001                	nop
  94:	fae0                	.2byte	0xfae0
  96:	0001                	nop
  98:	06e0                	addi	s0,sp,844
  9a:	021c                	addi	a5,sp,256
  9c:	e000                	.2byte	0xe000
  9e:	0246                	slli	tp,tp,0x11
  a0:	e000                	.2byte	0xe000
  a2:	0600                	addi	s0,sp,768
  a4:	027c                	addi	a5,sp,268
  a6:	e000                	.2byte	0xe000
  a8:	0284                	addi	s1,sp,320
  aa:	e000                	.2byte	0xe000
  ac:	8406                	mv	s0,ra
  ae:	0002                	c.slli64	zero
  b0:	86e0                	.2byte	0x86e0
  b2:	0002                	c.slli64	zero
  b4:	00e0                	addi	s0,sp,76
  b6:	f206                	.2byte	0xf206
  b8:	0002                	c.slli64	zero
  ba:	10e0                	addi	s0,sp,108
  bc:	06e00003          	lb	zero,110(zero) # 6e <_min_stack-0x1f92>
  c0:	032a                	slli	t1,t1,0xa
  c2:	e000                	.2byte	0xe000
  c4:	0420                	addi	s0,sp,520
  c6:	e000                	.2byte	0xe000
  c8:	0600                	addi	s0,sp,768
  ca:	0302                	c.slli64	t1
  cc:	e000                	.2byte	0xe000
  ce:	030a                	slli	t1,t1,0x2
  d0:	e000                	.2byte	0xe000
  d2:	7606                	.2byte	0x7606
  d4:	84e00003          	lb	zero,-1970(zero) # fffff84e <fromhost+0x1ffef83e>
  d8:	00e00003          	lb	zero,14(zero) # e <_min_stack-0x1ff2>
  dc:	1606                	slli	a2,a2,0x21
  de:	0004                	.2byte	0x4
  e0:	1ae0                	addi	s0,sp,380
  e2:	0004                	.2byte	0x4
  e4:	06e0                	addi	s0,sp,844
  e6:	041c                	addi	a5,sp,512
  e8:	e000                	.2byte	0xe000
  ea:	041e                	slli	s0,s0,0x7
  ec:	e000                	.2byte	0xe000
  ee:	2500                	.2byte	0x2500
  f0:	0000                	unimp
  f2:	0500                	addi	s0,sp,640
  f4:	0400                	addi	s0,sp,512
  f6:	0000                	unimp
  f8:	0000                	unimp
  fa:	0600                	addi	s0,sp,768
  fc:	04f6                	slli	s1,s1,0x1d
  fe:	e000                	.2byte	0xe000
 100:	04f8                	addi	a4,sp,588
 102:	e000                	.2byte	0xe000
 104:	fa06                	.2byte	0xfa06
 106:	0004                	.2byte	0x4
 108:	3ae0                	.2byte	0x3ae0
 10a:	0005                	c.nop	1
 10c:	00e0                	addi	s0,sp,76
 10e:	f006                	.2byte	0xf006
 110:	0004                	.2byte	0x4
 112:	46e0                	lw	s0,76(a3)
 114:	0005                	c.nop	1
 116:	00e0                	addi	s0,sp,76
 118:	00000017          	auipc	zero,0x0
 11c:	0005                	c.nop	1
 11e:	0004                	.2byte	0x4
 120:	0000                	unimp
 122:	0000                	unimp
 124:	00045a07          	.4byte	0x45a07
 128:	96e0                	.2byte	0x96e0
 12a:	0701                	addi	a4,a4,0
 12c:	0000                	unimp
 12e:	e000                	.2byte	0xe000
 130:	0184                	addi	s1,sp,192
	...

Disassembly of section .debug_line:

00000000 <.debug_line>:
   0:	0c68                	addi	a0,sp,540
   2:	0000                	unimp
   4:	0005                	c.nop	1
   6:	0004                	.2byte	0x4
   8:	003c                	addi	a5,sp,8
   a:	0000                	unimp
   c:	0101                	addi	sp,sp,0
   e:	fb01                	bnez	a4,ffffff1e <fromhost+0x1ffeff0e>
  10:	0d0e                	slli	s10,s10,0x3
  12:	0100                	addi	s0,sp,128
  14:	0101                	addi	sp,sp,0
  16:	0001                	nop
  18:	0000                	unimp
  1a:	0001                	nop
  1c:	0100                	addi	s0,sp,128
  1e:	0101                	addi	sp,sp,0
  20:	031f 003c 0000      	.byte	0x1f, 0x03, 0x3c, 0x00, 0x00, 0x00
  26:	008a                	slli	ra,ra,0x2
  28:	0000                	unimp
  2a:	00be                	slli	ra,ra,0xf
  2c:	0000                	unimp
  2e:	0102                	c.slli64	sp
  30:	021f 040f 0034      	.byte	0x1f, 0x02, 0x0f, 0x04, 0x34, 0x00
  36:	0000                	unimp
  38:	3401                	jal	fffffa38 <fromhost+0x1ffefa28>
  3a:	0000                	unimp
  3c:	0100                	addi	s0,sp,128
  3e:	0114                	addi	a3,sp,128
  40:	0000                	unimp
  42:	1d02                	slli	s10,s10,0x20
  44:	0001                	nop
  46:	0200                	addi	s0,sp,256
  48:	3505                	jal	fffffe68 <fromhost+0x1ffefe58>
  4a:	0500                	addi	s0,sp,640
  4c:	8402                	jr	s0
  4e:	0000                	unimp
  50:	03e0                	addi	s0,sp,460
  52:	0129                	addi	sp,sp,10
  54:	0305                	addi	t1,t1,1
  56:	00090103          	lb	sp,0(s2)
  5a:	0100                	addi	s0,sp,128
  5c:	00090103          	lb	sp,0(s2)
  60:	0100                	addi	s0,sp,128
  62:	2b05                	jal	592 <_min_stack-0x1a6e>
  64:	0306                	slli	t1,t1,0x1
  66:	0900                	addi	s0,sp,144
  68:	0000                	unimp
  6a:	0501                	addi	a0,a0,0
  6c:	01030603          	lb	a2,16(t1)
  70:	0a09                	addi	s4,s4,2
  72:	0100                	addi	s0,sp,128
  74:	4005                	c.li	zero,1
  76:	0306                	slli	t1,t1,0x1
  78:	0900                	addi	s0,sp,144
  7a:	0000                	unimp
  7c:	0501                	addi	a0,a0,0
  7e:	0900032b          	.4byte	0x900032b
  82:	0004                	.2byte	0x4
  84:	0501                	addi	a0,a0,0
  86:	01030603          	lb	a2,16(t1)
  8a:	0209                	addi	tp,tp,2 # 2 <_min_stack-0x1ffe>
  8c:	0100                	addi	s0,sp,128
  8e:	4005                	c.li	zero,1
  90:	0306                	slli	t1,t1,0x1
  92:	0900                	addi	s0,sp,144
  94:	0000                	unimp
  96:	0501                	addi	a0,a0,0
  98:	0900032b          	.4byte	0x900032b
  9c:	0004                	.2byte	0x4
  9e:	0501                	addi	a0,a0,0
  a0:	01030603          	lb	a2,16(t1)
  a4:	0209                	addi	tp,tp,2 # 2 <_min_stack-0x1ffe>
  a6:	0100                	addi	s0,sp,128
  a8:	2b05                	jal	5d8 <_min_stack-0x1a28>
  aa:	0306                	slli	t1,t1,0x1
  ac:	0900                	addi	s0,sp,144
  ae:	0000                	unimp
  b0:	0501                	addi	a0,a0,0
  b2:	01030603          	lb	a2,16(t1)
  b6:	0609                	addi	a2,a2,2
  b8:	0100                	addi	s0,sp,128
  ba:	2b05                	jal	5ea <_min_stack-0x1a16>
  bc:	0306                	slli	t1,t1,0x1
  be:	0900                	addi	s0,sp,144
  c0:	0000                	unimp
  c2:	0501                	addi	a0,a0,0
  c4:	02030603          	lb	a2,32(t1)
  c8:	0409                	addi	s0,s0,2
  ca:	0100                	addi	s0,sp,128
  cc:	2f05                	jal	7fc <_min_stack-0x1804>
  ce:	0306                	slli	t1,t1,0x1
  d0:	0900                	addi	s0,sp,144
  d2:	0000                	unimp
  d4:	0501                	addi	a0,a0,0
  d6:	0358                	addi	a4,sp,388
  d8:	0900                	addi	s0,sp,144
  da:	0002                	c.slli64	zero
  dc:	0501                	addi	a0,a0,0
  de:	0360                	addi	s0,sp,396
  e0:	0900                	addi	s0,sp,144
  e2:	0004                	.2byte	0x4
  e4:	0501                	addi	a0,a0,0
  e6:	0900032b          	.4byte	0x900032b
  ea:	0004                	.2byte	0x4
  ec:	0501                	addi	a0,a0,0
  ee:	0301                	addi	t1,t1,0
  f0:	0901                	addi	s2,s2,0
  f2:	0002                	c.slli64	zero
  f4:	0501                	addi	a0,a0,0
  f6:	02030633          	mul	a2,t1,zero
  fa:	0209                	addi	tp,tp,2 # 2 <_min_stack-0x1ffe>
  fc:	0100                	addi	s0,sp,128
  fe:	0305                	addi	t1,t1,1
 100:	00090103          	lb	sp,0(s2)
 104:	0100                	addi	s0,sp,128
 106:	00090203          	lb	tp,0(s2)
 10a:	0100                	addi	s0,sp,128
 10c:	0d05                	addi	s10,s10,1
 10e:	0306                	slli	t1,t1,0x1
 110:	0904                	addi	s1,sp,144
 112:	0000                	unimp
 114:	0601                	addi	a2,a2,0
 116:	04097c03          	.4byte	0x4097c03
 11a:	0100                	addi	s0,sp,128
 11c:	0105                	addi	sp,sp,1
 11e:	0306                	slli	t1,t1,0x1
 120:	090d                	addi	s2,s2,3
 122:	0002                	c.slli64	zero
 124:	0501                	addi	a0,a0,0
 126:	003d                	c.nop	15
 128:	0402                	c.slli64	s0
 12a:	0601                	addi	a2,a2,0
 12c:	02097703          	.4byte	0x2097703
 130:	0100                	addi	s0,sp,128
 132:	0d05                	addi	s10,s10,1
 134:	0200                	addi	s0,sp,256
 136:	0104                	addi	s1,sp,128
 138:	0306                	slli	t1,t1,0x1
 13a:	0900                	addi	s0,sp,144
 13c:	0000                	unimp
 13e:	0501                	addi	a0,a0,0
 140:	0035                	c.nop	13
 142:	0402                	c.slli64	s0
 144:	0301                	addi	t1,t1,0
 146:	0900                	addi	s0,sp,144
 148:	0002                	c.slli64	zero
 14a:	0501                	addi	a0,a0,0
 14c:	003d                	c.nop	15
 14e:	0402                	c.slli64	s0
 150:	0301                	addi	t1,t1,0
 152:	0900                	addi	s0,sp,144
 154:	0004                	.2byte	0x4
 156:	0501                	addi	a0,a0,0
 158:	04020007          	.4byte	0x4020007
 15c:	0604                	addi	s1,sp,768
 15e:	06090403          	lb	s0,96(s2)
 162:	0100                	addi	s0,sp,128
 164:	3105                	jal	fffffd84 <fromhost+0x1ffefd74>
 166:	0200                	addi	s0,sp,256
 168:	0404                	addi	s1,sp,512
 16a:	0306                	slli	t1,t1,0x1
 16c:	0900                	addi	s0,sp,144
 16e:	0000                	unimp
 170:	0501                	addi	a0,a0,0
 172:	0035                	c.nop	13
 174:	0402                	c.slli64	s0
 176:	0304                	addi	s1,sp,384
 178:	0900                	addi	s0,sp,144
 17a:	0004                	.2byte	0x4
 17c:	0501                	addi	a0,a0,0
 17e:	000a                	c.slli	zero,0x2
 180:	0402                	c.slli64	s0
 182:	0304                	addi	s1,sp,384
 184:	0902                	c.slli64	s2
 186:	0002                	c.slli64	zero
 188:	0501                	addi	a0,a0,0
 18a:	0402002f          	.4byte	0x402002f
 18e:	0304                	addi	s1,sp,384
 190:	097e                	slli	s2,s2,0x1f
 192:	0002                	c.slli64	zero
 194:	0501                	addi	a0,a0,0
 196:	04020007          	.4byte	0x4020007
 19a:	0604                	addi	s1,sp,768
 19c:	02090203          	lb	tp,32(s2)
 1a0:	0100                	addi	s0,sp,128
 1a2:	3505                	jal	ffffffc2 <fromhost+0x1ffeffb2>
 1a4:	0200                	addi	s0,sp,256
 1a6:	0404                	addi	s1,sp,512
 1a8:	00097c03          	.4byte	0x97c03
 1ac:	0100                	addi	s0,sp,128
 1ae:	2605                	jal	4ce <_min_stack-0x1b32>
 1b0:	0200                	addi	s0,sp,256
 1b2:	0404                	addi	s1,sp,512
 1b4:	00090003          	lb	zero,0(s2)
 1b8:	0100                	addi	s0,sp,128
 1ba:	0200                	addi	s0,sp,256
 1bc:	0304                	addi	s1,sp,384
 1be:	0306                	slli	t1,t1,0x1
 1c0:	0900                	addi	s0,sp,144
 1c2:	0004                	.2byte	0x4
 1c4:	0501                	addi	a0,a0,0
 1c6:	0615                	addi	a2,a2,5
 1c8:	04090903          	lb	s2,64(s2)
 1cc:	0100                	addi	s0,sp,128
 1ce:	0305                	addi	t1,t1,1
 1d0:	00090103          	lb	sp,0(s2)
 1d4:	0100                	addi	s0,sp,128
 1d6:	0a05                	addi	s4,s4,1
 1d8:	0306                	slli	t1,t1,0x1
 1da:	0900                	addi	s0,sp,144
 1dc:	0000                	unimp
 1de:	0501                	addi	a0,a0,0
 1e0:	0030                	addi	a2,sp,8
 1e2:	0402                	c.slli64	s0
 1e4:	0601                	addi	a2,a2,0
 1e6:	04090003          	lb	zero,64(s2)
 1ea:	0100                	addi	s0,sp,128
 1ec:	0a05                	addi	s4,s4,1
 1ee:	0200                	addi	s0,sp,256
 1f0:	0104                	addi	s1,sp,128
 1f2:	0306                	slli	t1,t1,0x1
 1f4:	0900                	addi	s0,sp,144
 1f6:	0000                	unimp
 1f8:	0501                	addi	a0,a0,0
 1fa:	0029                	c.nop	10
 1fc:	0402                	c.slli64	s0
 1fe:	0301                	addi	t1,t1,0
 200:	0900                	addi	s0,sp,144
 202:	0002                	c.slli64	zero
 204:	0501                	addi	a0,a0,0
 206:	0030                	addi	a2,sp,8
 208:	0402                	c.slli64	s0
 20a:	0301                	addi	t1,t1,0
 20c:	0900                	addi	s0,sp,144
 20e:	0002                	c.slli64	zero
 210:	0501                	addi	a0,a0,0
 212:	02030603          	lb	a2,32(t1)
 216:	0209                	addi	tp,tp,2 # 2 <_min_stack-0x1ffe>
 218:	0100                	addi	s0,sp,128
 21a:	0a05                	addi	s4,s4,1
 21c:	0306                	slli	t1,t1,0x1
 21e:	0900                	addi	s0,sp,144
 220:	0000                	unimp
 222:	0501                	addi	a0,a0,0
 224:	0301                	addi	t1,t1,0
 226:	0901                	addi	s2,s2,0
 228:	0002                	c.slli64	zero
 22a:	0501                	addi	a0,a0,0
 22c:	0622                	slli	a2,a2,0x8
 22e:	06090203          	lb	tp,96(s2)
 232:	0100                	addi	s0,sp,128
 234:	0305                	addi	t1,t1,1
 236:	00090203          	lb	tp,0(s2)
 23a:	0100                	addi	s0,sp,128
 23c:	0b05                	addi	s6,s6,1
 23e:	0306                	slli	t1,t1,0x1
 240:	0900                	addi	s0,sp,144
 242:	0000                	unimp
 244:	0501                	addi	a0,a0,0
 246:	0402003b          	.4byte	0x402003b
 24a:	0601                	addi	a2,a2,0
 24c:	04090003          	lb	zero,64(s2)
 250:	0100                	addi	s0,sp,128
 252:	0b05                	addi	s6,s6,1
 254:	0200                	addi	s0,sp,256
 256:	0104                	addi	s1,sp,128
 258:	0306                	slli	t1,t1,0x1
 25a:	0900                	addi	s0,sp,144
 25c:	0000                	unimp
 25e:	0501                	addi	a0,a0,0
 260:	04020033          	.4byte	0x4020033
 264:	0301                	addi	t1,t1,0
 266:	0900                	addi	s0,sp,144
 268:	0002                	c.slli64	zero
 26a:	0501                	addi	a0,a0,0
 26c:	0402003b          	.4byte	0x402003b
 270:	0301                	addi	t1,t1,0
 272:	0900                	addi	s0,sp,144
 274:	0004                	.2byte	0x4
 276:	0501                	addi	a0,a0,0
 278:	03030603          	lb	a2,48(t1)
 27c:	0209                	addi	tp,tp,2 # 2 <_min_stack-0x1ffe>
 27e:	0100                	addi	s0,sp,128
 280:	2b05                	jal	7b0 <_min_stack-0x1850>
 282:	0306                	slli	t1,t1,0x1
 284:	0900                	addi	s0,sp,144
 286:	0000                	unimp
 288:	0501                	addi	a0,a0,0
 28a:	0301                	addi	t1,t1,0
 28c:	0901                	addi	s2,s2,0
 28e:	0002                	c.slli64	zero
 290:	0501                	addi	a0,a0,0
 292:	060c                	addi	a1,sp,768
 294:	0900c803          	lbu	a6,144(ra)
 298:	0002                	c.slli64	zero
 29a:	0501                	addi	a0,a0,0
 29c:	09020303          	lb	t1,144(tp) # 90 <_min_stack-0x1f70>
 2a0:	0000                	unimp
 2a2:	0301                	addi	t1,t1,0
 2a4:	0902                	c.slli64	s2
 2a6:	0000                	unimp
 2a8:	0501                	addi	a0,a0,0
 2aa:	060c                	addi	a1,sp,768
 2ac:	00097c03          	.4byte	0x97c03
 2b0:	0100                	addi	s0,sp,128
 2b2:	0e090003          	lb	zero,224(s2)
 2b6:	0100                	addi	s0,sp,128
 2b8:	1805                	addi	a6,a6,-31
 2ba:	04090203          	lb	tp,64(s2)
 2be:	0100                	addi	s0,sp,128
 2c0:	0605                	addi	a2,a2,1
 2c2:	04090203          	lb	tp,64(s2)
 2c6:	0100                	addi	s0,sp,128
 2c8:	2505                	jal	8e8 <_min_stack-0x1718>
 2ca:	0306                	slli	t1,t1,0x1
 2cc:	00080903          	lb	s2,0(a6)
 2d0:	0501                	addi	a0,a0,0
 2d2:	031e                	slli	t1,t1,0x7
 2d4:	0900                	addi	s0,sp,144
 2d6:	0002                	c.slli64	zero
 2d8:	0501                	addi	a0,a0,0
 2da:	0318                	addi	a4,sp,384
 2dc:	0900                	addi	s0,sp,144
 2de:	0000                	unimp
 2e0:	0501                	addi	a0,a0,0
 2e2:	0305                	addi	t1,t1,1
 2e4:	0901                	addi	s2,s2,0
 2e6:	000a                	c.slli	zero,0x2
 2e8:	0501                	addi	a0,a0,0
 2ea:	0608                	addi	a0,sp,768
 2ec:	00090003          	lb	zero,0(s2)
 2f0:	0100                	addi	s0,sp,128
 2f2:	0a05                	addi	s4,s4,1
 2f4:	0306                	slli	t1,t1,0x1
 2f6:	0901                	addi	s2,s2,0
 2f8:	0004                	.2byte	0x4
 2fa:	0501                	addi	a0,a0,0
 2fc:	0610                	addi	a2,sp,768
 2fe:	00090003          	lb	zero,0(s2)
 302:	0100                	addi	s0,sp,128
 304:	0505                	addi	a0,a0,1
 306:	0306                	slli	t1,t1,0x1
 308:	0901                	addi	s2,s2,0
 30a:	0002                	c.slli64	zero
 30c:	0501                	addi	a0,a0,0
 30e:	060d                	addi	a2,a2,3
 310:	00090003          	lb	zero,0(s2)
 314:	0100                	addi	s0,sp,128
 316:	1805                	addi	a6,a6,-31
 318:	04097803          	.4byte	0x4097803
 31c:	0100                	addi	s0,sp,128
 31e:	0805                	addi	a6,a6,1
 320:	04090803          	lb	a6,64(s2)
 324:	0100                	addi	s0,sp,128
 326:	2105                	jal	746 <_min_stack-0x18ba>
 328:	02090003          	lb	zero,32(s2)
 32c:	0100                	addi	s0,sp,128
 32e:	0305                	addi	t1,t1,1
 330:	0306                	slli	t1,t1,0x1
 332:	0902                	c.slli64	s2
 334:	0004                	.2byte	0x4
 336:	0501                	addi	a0,a0,0
 338:	060d                	addi	a2,a2,3
 33a:	00090003          	lb	zero,0(s2)
 33e:	0100                	addi	s0,sp,128
 340:	1005                	c.nop	-31
 342:	02097603          	.4byte	0x2097603
 346:	0100                	addi	s0,sp,128
 348:	0605                	addi	a2,a2,1
 34a:	02090a03          	lb	s4,32(s2)
 34e:	0100                	addi	s0,sp,128
 350:	0305                	addi	t1,t1,1
 352:	04096503          	.4byte	0x4096503
 356:	0100                	addi	s0,sp,128
 358:	1d05                	addi	s10,s10,-31
 35a:	06091703          	lh	a4,96(s2)
 35e:	0100                	addi	s0,sp,128
 360:	0705                	addi	a4,a4,1
 362:	0306                	slli	t1,t1,0x1
 364:	0906                	slli	s2,s2,0x1
 366:	0004                	.2byte	0x4
 368:	0501                	addi	a0,a0,0
 36a:	09690303          	lb	t1,150(s2)
 36e:	0000                	unimp
 370:	0501                	addi	a0,a0,0
 372:	0305                	addi	t1,t1,1
 374:	0906                	slli	s2,s2,0x1
 376:	0000                	unimp
 378:	0501                	addi	a0,a0,0
 37a:	09740303          	lb	t1,151(s0)
 37e:	0000                	unimp
 380:	0301                	addi	t1,t1,0
 382:	0901                	addi	s2,s2,0
 384:	0004                	.2byte	0x4
 386:	0501                	addi	a0,a0,0
 388:	091d0307          	.4byte	0x91d0307
 38c:	0000                	unimp
 38e:	0501                	addi	a0,a0,0
 390:	0318                	addi	a4,sp,384
 392:	097e                	slli	s2,s2,0x1f
 394:	0000                	unimp
 396:	0501                	addi	a0,a0,0
 398:	09000313          	li	t1,144
 39c:	0002                	c.slli64	zero
 39e:	0501                	addi	a0,a0,0
 3a0:	0610                	addi	a2,sp,768
 3a2:	10097503          	.4byte	0x10097503
 3a6:	0100                	addi	s0,sp,128
 3a8:	0505                	addi	a0,a0,1
 3aa:	0306                	slli	t1,t1,0x1
 3ac:	0911                	addi	s2,s2,4
 3ae:	0004                	.2byte	0x4
 3b0:	0501                	addi	a0,a0,0
 3b2:	09640303          	lb	t1,150(s0)
 3b6:	0000                	unimp
 3b8:	0501                	addi	a0,a0,0
 3ba:	0305                	addi	t1,t1,1
 3bc:	0906                	slli	s2,s2,0x1
 3be:	0000                	unimp
 3c0:	0501                	addi	a0,a0,0
 3c2:	09740303          	lb	t1,151(s0)
 3c6:	0000                	unimp
 3c8:	0301                	addi	t1,t1,0
 3ca:	0901                	addi	s2,s2,0
 3cc:	0002                	c.slli64	zero
 3ce:	0501                	addi	a0,a0,0
 3d0:	0305                	addi	t1,t1,1
 3d2:	0922                	slli	s2,s2,0x8
 3d4:	0000                	unimp
 3d6:	0501                	addi	a0,a0,0
 3d8:	0315                	addi	t1,t1,5
 3da:	097e                	slli	s2,s2,0x1f
 3dc:	0002                	c.slli64	zero
 3de:	0501                	addi	a0,a0,0
 3e0:	0900030b          	.4byte	0x900030b
 3e4:	0000                	unimp
 3e6:	0501                	addi	a0,a0,0
 3e8:	5f030603          	lb	a2,1520(t1)
 3ec:	0e09                	addi	t3,t3,2
 3ee:	0100                	addi	s0,sp,128
 3f0:	1105                	addi	sp,sp,-31
 3f2:	0306                	slli	t1,t1,0x1
 3f4:	0925                	addi	s2,s2,9
 3f6:	0004                	.2byte	0x4
 3f8:	0501                	addi	a0,a0,0
 3fa:	09050303          	lb	t1,144(a0)
 3fe:	0004                	.2byte	0x4
 400:	0501                	addi	a0,a0,0
 402:	060a                	slli	a2,a2,0x2
 404:	00090003          	lb	zero,0(s2)
 408:	0100                	addi	s0,sp,128
 40a:	0105                	addi	sp,sp,1
 40c:	06090103          	lb	sp,96(s2)
 410:	0100                	addi	s0,sp,128
 412:	0505                	addi	a0,a0,1
 414:	0306                	slli	t1,t1,0x1
 416:	0014097b          	.4byte	0x14097b
 41a:	0501                	addi	a0,a0,0
 41c:	09600303          	lb	t1,150(zero) # 96 <_min_stack-0x1f6a>
 420:	0000                	unimp
 422:	0501                	addi	a0,a0,0
 424:	0305                	addi	t1,t1,1
 426:	0906                	slli	s2,s2,0x1
 428:	0000                	unimp
 42a:	0501                	addi	a0,a0,0
 42c:	09740303          	lb	t1,151(s0)
 430:	0000                	unimp
 432:	0301                	addi	t1,t1,0
 434:	0901                	addi	s2,s2,0
 436:	0004                	.2byte	0x4
 438:	0501                	addi	a0,a0,0
 43a:	0305                	addi	t1,t1,1
 43c:	0926                	slli	s2,s2,0x9
 43e:	0000                	unimp
 440:	0501                	addi	a0,a0,0
 442:	0316                	slli	t1,t1,0x5
 444:	097e                	slli	s2,s2,0x1f
 446:	0000                	unimp
 448:	0501                	addi	a0,a0,0
 44a:	030c                	addi	a1,sp,384
 44c:	0908                	addi	a0,sp,144
 44e:	0004                	.2byte	0x4
 450:	0501                	addi	a0,a0,0
 452:	09020303          	lb	t1,144(tp) # 90 <_min_stack-0x1f70>
 456:	0000                	unimp
 458:	0301                	addi	t1,t1,0
 45a:	0901                	addi	s2,s2,0
 45c:	0000                	unimp
 45e:	0301                	addi	t1,t1,0
 460:	0901                	addi	s2,s2,0
 462:	0000                	unimp
 464:	0301                	addi	t1,t1,0
 466:	0901                	addi	s2,s2,0
 468:	0000                	unimp
 46a:	0301                	addi	t1,t1,0
 46c:	0902                	c.slli64	s2
 46e:	0000                	unimp
 470:	0501                	addi	a0,a0,0
 472:	060c                	addi	a1,sp,768
 474:	00097903          	.4byte	0x97903
 478:	0100                	addi	s0,sp,128
 47a:	08090003          	lb	zero,128(s2)
 47e:	0100                	addi	s0,sp,128
 480:	0605                	addi	a2,a2,1
 482:	08090703          	lb	a4,128(s2)
 486:	0100                	addi	s0,sp,128
 488:	0505                	addi	a0,a0,1
 48a:	0306                	slli	t1,t1,0x1
 48c:	0902                	c.slli64	s2
 48e:	0002                	c.slli64	zero
 490:	0301                	addi	t1,t1,0
 492:	0901                	addi	s2,s2,0
 494:	0000                	unimp
 496:	0501                	addi	a0,a0,0
 498:	0612                	slli	a2,a2,0x4
 49a:	00097f03          	.4byte	0x97f03
 49e:	0100                	addi	s0,sp,128
 4a0:	0c05                	addi	s8,s8,1
 4a2:	04090203          	lb	tp,64(s2)
 4a6:	0100                	addi	s0,sp,128
 4a8:	1205                	addi	tp,tp,-31 # ffffffe1 <fromhost+0x1ffeffd1>
 4aa:	02097e03          	.4byte	0x2097e03
 4ae:	0100                	addi	s0,sp,128
 4b0:	0505                	addi	a0,a0,1
 4b2:	0306                	slli	t1,t1,0x1
 4b4:	0902                	c.slli64	s2
 4b6:	0004                	.2byte	0x4
 4b8:	0501                	addi	a0,a0,0
 4ba:	060c                	addi	a1,sp,768
 4bc:	00090003          	lb	zero,0(s2)
 4c0:	0100                	addi	s0,sp,128
 4c2:	0105                	addi	sp,sp,1
 4c4:	02092d03          	lw	s10,32(s2)
 4c8:	0100                	addi	s0,sp,128
 4ca:	0305                	addi	t1,t1,1
 4cc:	0306                	slli	t1,t1,0x1
 4ce:	0956                	slli	s2,s2,0x15
 4d0:	000c                	.2byte	0xc
 4d2:	0501                	addi	a0,a0,0
 4d4:	0606                	slli	a2,a2,0x1
 4d6:	00090003          	lb	zero,0(s2)
 4da:	0100                	addi	s0,sp,128
 4dc:	0a05                	addi	s4,s4,1
 4de:	02090003          	lb	zero,32(s2)
 4e2:	0100                	addi	s0,sp,128
 4e4:	1505                	addi	a0,a0,-31
 4e6:	06090003          	lb	zero,96(s2)
 4ea:	0100                	addi	s0,sp,128
 4ec:	0505                	addi	a0,a0,1
 4ee:	0306                	slli	t1,t1,0x1
 4f0:	0902                	c.slli64	s2
 4f2:	0004                	.2byte	0x4
 4f4:	0301                	addi	t1,t1,0
 4f6:	0901                	addi	s2,s2,0
 4f8:	0000                	unimp
 4fa:	0501                	addi	a0,a0,0
 4fc:	0609                	addi	a2,a2,2
 4fe:	00090003          	lb	zero,0(s2)
 502:	0100                	addi	s0,sp,128
 504:	0305                	addi	t1,t1,1
 506:	0306                	slli	t1,t1,0x1
 508:	00040903          	lb	s2,0(s0)
 50c:	0301                	addi	t1,t1,0
 50e:	0901                	addi	s2,s2,0
 510:	0000                	unimp
 512:	0501                	addi	a0,a0,0
 514:	0606                	slli	a2,a2,0x1
 516:	00090003          	lb	zero,0(s2)
 51a:	0100                	addi	s0,sp,128
 51c:	0305                	addi	t1,t1,1
 51e:	0306                	slli	t1,t1,0x1
 520:	00040903          	lb	s2,0(s0)
 524:	0501                	addi	a0,a0,0
 526:	0605                	addi	a2,a2,1
 528:	00090003          	lb	zero,0(s2)
 52c:	0100                	addi	s0,sp,128
 52e:	1305                	addi	t1,t1,-31
 530:	097fb503          	.4byte	0x97fb503
 534:	000a                	c.slli	zero,0x2
 536:	0501                	addi	a0,a0,0
 538:	0316                	slli	t1,t1,0x5
 53a:	0901                	addi	s2,s2,0
 53c:	0004                	.2byte	0x4
 53e:	0501                	addi	a0,a0,0
 540:	097f0313          	addi	t1,t5,151 # fffe2097 <fromhost+0x1ffd2087>
 544:	0008                	.2byte	0x8
 546:	0501                	addi	a0,a0,0
 548:	030d                	addi	t1,t1,3
 54a:	0975                	addi	s2,s2,29
 54c:	0004                	.2byte	0x4
 54e:	0501                	addi	a0,a0,0
 550:	e4030607          	.4byte	0xe4030607
 554:	0900                	addi	s0,sp,144
 556:	0002                	c.slli64	zero
 558:	0501                	addi	a0,a0,0
 55a:	7fa70303          	lb	t1,2042(a4)
 55e:	0009                	c.nop	2
 560:	0100                	addi	s0,sp,128
 562:	1305                	addi	t1,t1,-31
 564:	0306                	slli	t1,t1,0x1
 566:	0900                	addi	s0,sp,144
 568:	0000                	unimp
 56a:	0501                	addi	a0,a0,0
 56c:	031c                	addi	a5,sp,384
 56e:	0900                	addi	s0,sp,144
 570:	0004                	.2byte	0x4
 572:	0501                	addi	a0,a0,0
 574:	01030603          	lb	a2,16(t1)
 578:	0409                	addi	s0,s0,2
 57a:	0100                	addi	s0,sp,128
 57c:	2705                	jal	c9c <_min_stack-0x1364>
 57e:	0306                	slli	t1,t1,0x1
 580:	097f                	.2byte	0x97f
 582:	0000                	unimp
 584:	0501                	addi	a0,a0,0
 586:	030c                	addi	a1,sp,384
 588:	00d9                	addi	ra,ra,22
 58a:	0409                	addi	s0,s0,2
 58c:	0100                	addi	s0,sp,128
 58e:	1705                	addi	a4,a4,-31
 590:	097fa703          	lw	a4,151(t6)
 594:	0002                	c.slli64	zero
 596:	0501                	addi	a0,a0,0
 598:	0322                	slli	t1,t1,0x8
 59a:	0900                	addi	s0,sp,144
 59c:	0002                	c.slli64	zero
 59e:	0501                	addi	a0,a0,0
 5a0:	0305                	addi	t1,t1,1
 5a2:	0900                	addi	s0,sp,144
 5a4:	0002                	c.slli64	zero
 5a6:	0501                	addi	a0,a0,0
 5a8:	0316                	slli	t1,t1,0x5
 5aa:	0901                	addi	s2,s2,0
 5ac:	0002                	c.slli64	zero
 5ae:	0501                	addi	a0,a0,0
 5b0:	0318                	addi	a4,sp,384
 5b2:	00d8                	addi	a4,sp,68
 5b4:	0209                	addi	tp,tp,2 # 2 <_min_stack-0x1ffe>
 5b6:	0100                	addi	s0,sp,128
 5b8:	0c05                	addi	s8,s8,1
 5ba:	08090003          	lb	zero,128(s2)
 5be:	0100                	addi	s0,sp,128
 5c0:	0705                	addi	a4,a4,1
 5c2:	0306                	slli	t1,t1,0x1
 5c4:	0901                	addi	s2,s2,0
 5c6:	0004                	.2byte	0x4
 5c8:	0501                	addi	a0,a0,0
 5ca:	7f940303          	lb	t1,2041(s0)
 5ce:	0009                	c.nop	2
 5d0:	0100                	addi	s0,sp,128
 5d2:	00090203          	lb	tp,0(s2)
 5d6:	0100                	addi	s0,sp,128
 5d8:	1505                	addi	a0,a0,-31
 5da:	0306                	slli	t1,t1,0x1
 5dc:	0900                	addi	s0,sp,144
 5de:	0000                	unimp
 5e0:	0501                	addi	a0,a0,0
 5e2:	0305                	addi	t1,t1,1
 5e4:	0900                	addi	s0,sp,144
 5e6:	0004                	.2byte	0x4
 5e8:	0501                	addi	a0,a0,0
 5ea:	01030603          	lb	a2,16(t1)
 5ee:	0209                	addi	tp,tp,2 # 2 <_min_stack-0x1ffe>
 5f0:	0100                	addi	s0,sp,128
 5f2:	0e05                	addi	t3,t3,1
 5f4:	0306                	slli	t1,t1,0x1
 5f6:	0900                	addi	s0,sp,144
 5f8:	0000                	unimp
 5fa:	0501                	addi	a0,a0,0
 5fc:	0305                	addi	t1,t1,1
 5fe:	0900                	addi	s0,sp,144
 600:	0004                	.2byte	0x4
 602:	0501                	addi	a0,a0,0
 604:	01030603          	lb	a2,16(t1)
 608:	0209                	addi	tp,tp,2 # 2 <_min_stack-0x1ffe>
 60a:	0100                	addi	s0,sp,128
 60c:	0e05                	addi	t3,t3,1
 60e:	0306                	slli	t1,t1,0x1
 610:	0900                	addi	s0,sp,144
 612:	0000                	unimp
 614:	0501                	addi	a0,a0,0
 616:	0305                	addi	t1,t1,1
 618:	0900                	addi	s0,sp,144
 61a:	0004                	.2byte	0x4
 61c:	0501                	addi	a0,a0,0
 61e:	01030603          	lb	a2,16(t1)
 622:	0209                	addi	tp,tp,2 # 2 <_min_stack-0x1ffe>
 624:	0100                	addi	s0,sp,128
 626:	0e05                	addi	t3,t3,1
 628:	0306                	slli	t1,t1,0x1
 62a:	0900                	addi	s0,sp,144
 62c:	0000                	unimp
 62e:	0501                	addi	a0,a0,0
 630:	0305                	addi	t1,t1,1
 632:	0900                	addi	s0,sp,144
 634:	0004                	.2byte	0x4
 636:	0501                	addi	a0,a0,0
 638:	01030603          	lb	a2,16(t1)
 63c:	0209                	addi	tp,tp,2 # 2 <_min_stack-0x1ffe>
 63e:	0100                	addi	s0,sp,128
 640:	0505                	addi	a0,a0,1
 642:	0306                	slli	t1,t1,0x1
 644:	0900                	addi	s0,sp,144
 646:	0000                	unimp
 648:	0501                	addi	a0,a0,0
 64a:	01030603          	lb	a2,16(t1)
 64e:	0209                	addi	tp,tp,2 # 2 <_min_stack-0x1ffe>
 650:	0100                	addi	s0,sp,128
 652:	00090203          	lb	tp,0(s2)
 656:	0100                	addi	s0,sp,128
 658:	0d05                	addi	s10,s10,1
 65a:	0306                	slli	t1,t1,0x1
 65c:	097e                	slli	s2,s2,0x1f
 65e:	0000                	unimp
 660:	0501                	addi	a0,a0,0
 662:	0312                	slli	t1,t1,0x4
 664:	0902                	c.slli64	s2
 666:	0004                	.2byte	0x4
 668:	0501                	addi	a0,a0,0
 66a:	09000317          	auipc	t1,0x9000
 66e:	0006                	c.slli	zero,0x1
 670:	0501                	addi	a0,a0,0
 672:	030c                	addi	a1,sp,384
 674:	0900                	addi	s0,sp,144
 676:	0004                	.2byte	0x4
 678:	0601                	addi	a2,a2,0
 67a:	0900e103          	.4byte	0x900e103
 67e:	0002                	c.slli64	zero
 680:	0501                	addi	a0,a0,0
 682:	0610                	addi	a2,sp,768
 684:	06095f03          	lhu	t5,96(s2)
 688:	0100                	addi	s0,sp,128
 68a:	0a05                	addi	s4,s4,1
 68c:	04091903          	lh	s2,64(s2)
 690:	0100                	addi	s0,sp,128
 692:	1c05                	addi	s8,s8,-31
 694:	02090103          	lb	sp,32(s2)
 698:	0100                	addi	s0,sp,128
 69a:	0705                	addi	a4,a4,1
 69c:	0306                	slli	t1,t1,0x1
 69e:	097d                	addi	s2,s2,31
 6a0:	0004                	.2byte	0x4
 6a2:	0501                	addi	a0,a0,0
 6a4:	0003060b          	.4byte	0x3060b
 6a8:	0009                	c.nop	2
 6aa:	0100                	addi	s0,sp,128
 6ac:	0705                	addi	a4,a4,1
 6ae:	0306                	slli	t1,t1,0x1
 6b0:	0902                	c.slli64	s2
 6b2:	0004                	.2byte	0x4
 6b4:	0501                	addi	a0,a0,0
 6b6:	060a                	slli	a2,a2,0x2
 6b8:	00090003          	lb	zero,0(s2)
 6bc:	0100                	addi	s0,sp,128
 6be:	0905                	addi	s2,s2,1
 6c0:	0306                	slli	t1,t1,0x1
 6c2:	0901                	addi	s2,s2,0
 6c4:	0004                	.2byte	0x4
 6c6:	0501                	addi	a0,a0,0
 6c8:	0003060b          	.4byte	0x3060b
 6cc:	0009                	c.nop	2
 6ce:	0100                	addi	s0,sp,128
 6d0:	0705                	addi	a4,a4,1
 6d2:	0306                	slli	t1,t1,0x1
 6d4:	0902                	c.slli64	s2
 6d6:	0002                	c.slli64	zero
 6d8:	0501                	addi	a0,a0,0
 6da:	060c                	addi	a1,sp,768
 6dc:	00090003          	lb	zero,0(s2)
 6e0:	0100                	addi	s0,sp,128
 6e2:	1005                	c.nop	-31
 6e4:	02090003          	lb	zero,32(s2)
 6e8:	0100                	addi	s0,sp,128
 6ea:	0c05                	addi	s8,s8,1
 6ec:	04090003          	lb	zero,64(s2)
 6f0:	0100                	addi	s0,sp,128
 6f2:	0705                	addi	a4,a4,1
 6f4:	0306                	slli	t1,t1,0x1
 6f6:	0901                	addi	s2,s2,0
 6f8:	0004                	.2byte	0x4
 6fa:	0501                	addi	a0,a0,0
 6fc:	0609                	addi	a2,a2,2
 6fe:	00090003          	lb	zero,0(s2)
 702:	0100                	addi	s0,sp,128
 704:	0c05                	addi	s8,s8,1
 706:	0306                	slli	t1,t1,0x1
 708:	0979                	addi	s2,s2,30
 70a:	0004                	.2byte	0x4
 70c:	0501                	addi	a0,a0,0
 70e:	09110303          	lb	t1,145(sp)
 712:	0004                	.2byte	0x4
 714:	0501                	addi	a0,a0,0
 716:	0606                	slli	a2,a2,0x1
 718:	00090003          	lb	zero,0(s2)
 71c:	0100                	addi	s0,sp,128
 71e:	0505                	addi	a0,a0,1
 720:	0306                	slli	t1,t1,0x1
 722:	0901                	addi	s2,s2,0
 724:	0002                	c.slli64	zero
 726:	0501                	addi	a0,a0,0
 728:	00030607          	.4byte	0x30607
 72c:	0009                	c.nop	2
 72e:	0100                	addi	s0,sp,128
 730:	1705                	addi	a4,a4,-31
 732:	02090003          	lb	zero,32(s2)
 736:	0100                	addi	s0,sp,128
 738:	0f05                	addi	t5,t5,1
 73a:	04090003          	lb	zero,64(s2)
 73e:	0100                	addi	s0,sp,128
 740:	0305                	addi	t1,t1,1 # 900066b <tohost+0x8fe0663>
 742:	097fa703          	lw	a4,151(t6)
 746:	0002                	c.slli64	zero
 748:	0501                	addi	a0,a0,0
 74a:	db030607          	.4byte	0xdb030607
 74e:	0900                	addi	s0,sp,144
 750:	0008                	.2byte	0x8
 752:	0501                	addi	a0,a0,0
 754:	7fab0303          	lb	t1,2042(s6)
 758:	0009                	c.nop	2
 75a:	0100                	addi	s0,sp,128
 75c:	0505                	addi	a0,a0,1
 75e:	00090603          	lb	a2,0(s2)
 762:	0100                	addi	s0,sp,128
 764:	0305                	addi	t1,t1,1
 766:	00097403          	.4byte	0x97403
 76a:	0100                	addi	s0,sp,128
 76c:	02090103          	lb	sp,32(s2)
 770:	0100                	addi	s0,sp,128
 772:	0705                	addi	a4,a4,1
 774:	0900db03          	lhu	s6,144(ra)
 778:	0000                	unimp
 77a:	0301                	addi	t1,t1,0
 77c:	0901                	addi	s2,s2,0
 77e:	0000                	unimp
 780:	0501                	addi	a0,a0,0
 782:	09070303          	lb	t1,144(a4)
 786:	0006                	c.slli	zero,0x1
 788:	0501                	addi	a0,a0,0
 78a:	0003060f          	.4byte	0x3060f
 78e:	0009                	c.nop	2
 790:	0100                	addi	s0,sp,128
 792:	0d05                	addi	s10,s10,1
 794:	04090003          	lb	zero,64(s2)
 798:	0100                	addi	s0,sp,128
 79a:	0705                	addi	a4,a4,1
 79c:	0306                	slli	t1,t1,0x1
 79e:	097d                	addi	s2,s2,31
 7a0:	0004                	.2byte	0x4
 7a2:	0501                	addi	a0,a0,0
 7a4:	060c                	addi	a1,sp,768
 7a6:	00090003          	lb	zero,0(s2)
 7aa:	0100                	addi	s0,sp,128
 7ac:	1905                	addi	s2,s2,-31
 7ae:	08095003          	lhu	zero,128(s2)
 7b2:	0100                	addi	s0,sp,128
 7b4:	0c05                	addi	s8,s8,1
 7b6:	02093003          	.4byte	0x2093003
 7ba:	0100                	addi	s0,sp,128
 7bc:	1e05                	addi	t3,t3,-31
 7be:	0306                	slli	t1,t1,0x1
 7c0:	7ee8                	.2byte	0x7ee8
 7c2:	0409                	addi	s0,s0,2
 7c4:	0100                	addi	s0,sp,128
 7c6:	0305                	addi	t1,t1,1
 7c8:	00090203          	lb	tp,0(s2)
 7cc:	0100                	addi	s0,sp,128
 7ce:	0b05                	addi	s6,s6,1
 7d0:	0306                	slli	t1,t1,0x1
 7d2:	0900                	addi	s0,sp,144
 7d4:	0000                	unimp
 7d6:	0501                	addi	a0,a0,0
 7d8:	0402003b          	.4byte	0x402003b
 7dc:	0601                	addi	a2,a2,0
 7de:	04090003          	lb	zero,64(s2)
 7e2:	0100                	addi	s0,sp,128
 7e4:	0b05                	addi	s6,s6,1
 7e6:	0200                	addi	s0,sp,256
 7e8:	0104                	addi	s1,sp,128
 7ea:	0306                	slli	t1,t1,0x1
 7ec:	0900                	addi	s0,sp,144
 7ee:	0000                	unimp
 7f0:	0501                	addi	a0,a0,0
 7f2:	04020033          	.4byte	0x4020033
 7f6:	0301                	addi	t1,t1,0
 7f8:	0900                	addi	s0,sp,144
 7fa:	0002                	c.slli64	zero
 7fc:	0501                	addi	a0,a0,0
 7fe:	0402003b          	.4byte	0x402003b
 802:	0301                	addi	t1,t1,0
 804:	0900                	addi	s0,sp,144
 806:	0004                	.2byte	0x4
 808:	0501                	addi	a0,a0,0
 80a:	0301                	addi	t1,t1,0
 80c:	0901                	addi	s2,s2,0
 80e:	0002                	c.slli64	zero
 810:	0601                	addi	a2,a2,0
 812:	02093303          	.4byte	0x2093303
 816:	0100                	addi	s0,sp,128
 818:	0305                	addi	t1,t1,1
 81a:	00090103          	lb	sp,0(s2)
 81e:	0100                	addi	s0,sp,128
 820:	0105                	addi	sp,sp,1
 822:	0306                	slli	t1,t1,0x1
 824:	097f                	.2byte	0x97f
 826:	0000                	unimp
 828:	0501                	addi	a0,a0,0
 82a:	09010303          	lb	t1,144(sp)
 82e:	0006                	c.slli	zero,0x1
 830:	0501                	addi	a0,a0,0
 832:	0301                	addi	t1,t1,0
 834:	097f                	.2byte	0x97f
 836:	0004                	.2byte	0x4
 838:	0501                	addi	a0,a0,0
 83a:	09010303          	lb	t1,144(sp)
 83e:	0002                	c.slli64	zero
 840:	0601                	addi	a2,a2,0
 842:	02090103          	lb	sp,32(s2)
 846:	0100                	addi	s0,sp,128
 848:	0105                	addi	sp,sp,1
 84a:	0306                	slli	t1,t1,0x1
 84c:	0901                	addi	s2,s2,0
 84e:	0000                	unimp
 850:	0601                	addi	a2,a2,0
 852:	0901aa03          	lw	s4,144(gp)
 856:	000a                	c.slli	zero,0x2
 858:	0501                	addi	a0,a0,0
 85a:	09010303          	lb	t1,144(sp)
 85e:	0000                	unimp
 860:	0301                	addi	t1,t1,0
 862:	0901                	addi	s2,s2,0
 864:	0000                	unimp
 866:	0301                	addi	t1,t1,0
 868:	0902                	c.slli64	s2
 86a:	0000                	unimp
 86c:	0501                	addi	a0,a0,0
 86e:	0601                	addi	a2,a2,0
 870:	00097c03          	.4byte	0x97c03
 874:	0100                	addi	s0,sp,128
 876:	0305                	addi	t1,t1,1
 878:	04090403          	lb	s0,64(s2)
 87c:	0100                	addi	s0,sp,128
 87e:	0105                	addi	sp,sp,1
 880:	02097c03          	.4byte	0x2097c03
 884:	0100                	addi	s0,sp,128
 886:	12090003          	lb	zero,288(s2)
 88a:	0100                	addi	s0,sp,128
 88c:	0305                	addi	t1,t1,1
 88e:	10090403          	lb	s0,256(s2)
 892:	0100                	addi	s0,sp,128
 894:	0306                	slli	t1,t1,0x1
 896:	0902                	c.slli64	s2
 898:	0002                	c.slli64	zero
 89a:	0501                	addi	a0,a0,0
 89c:	0610                	addi	a2,sp,768
 89e:	097fb803          	.4byte	0x97fb803
 8a2:	0000                	unimp
 8a4:	0501                	addi	a0,a0,0
 8a6:	0308                	addi	a0,sp,384
 8a8:	0905                	addi	s2,s2,1
 8aa:	0002                	c.slli64	zero
 8ac:	0501                	addi	a0,a0,0
 8ae:	030a                	slli	t1,t1,0x2
 8b0:	0906                	slli	s2,s2,0x1
 8b2:	0004                	.2byte	0x4
 8b4:	0501                	addi	a0,a0,0
 8b6:	0316                	slli	t1,t1,0x5
 8b8:	0905                	addi	s2,s2,1
 8ba:	0004                	.2byte	0x4
 8bc:	0501                	addi	a0,a0,0
 8be:	0906030f          	.4byte	0x906030f
 8c2:	0004                	.2byte	0x4
 8c4:	0301                	addi	t1,t1,0
 8c6:	0905                	addi	s2,s2,1
 8c8:	0002                	c.slli64	zero
 8ca:	0501                	addi	a0,a0,0
 8cc:	0612                	slli	a2,a2,0x4
 8ce:	08096803          	.4byte	0x8096803
 8d2:	0100                	addi	s0,sp,128
 8d4:	0a05                	addi	s4,s4,1
 8d6:	0306                	slli	t1,t1,0x1
 8d8:	0900                	addi	s0,sp,144
 8da:	0000                	unimp
 8dc:	0501                	addi	a0,a0,0
 8de:	0312                	slli	t1,t1,0x4
 8e0:	0900                	addi	s0,sp,144
 8e2:	0004                	.2byte	0x4
 8e4:	0501                	addi	a0,a0,0
 8e6:	0301                	addi	t1,t1,0
 8e8:	020900cb          	.4byte	0x20900cb
 8ec:	0100                	addi	s0,sp,128
 8ee:	0505                	addi	a0,a0,1
 8f0:	0306                	slli	t1,t1,0x1
 8f2:	1a097fb7          	lui	t6,0x1a097
 8f6:	0100                	addi	s0,sp,128
 8f8:	0805                	addi	a6,a6,1
 8fa:	0306                	slli	t1,t1,0x1
 8fc:	0900                	addi	s0,sp,144
 8fe:	0000                	unimp
 900:	0501                	addi	a0,a0,0
 902:	02030607          	.4byte	0x2030607
 906:	0409                	addi	s0,s0,2
 908:	0100                	addi	s0,sp,128
 90a:	00090103          	lb	sp,0(s2)
 90e:	0100                	addi	s0,sp,128
 910:	00090103          	lb	sp,0(s2)
 914:	0100                	addi	s0,sp,128
 916:	0b05                	addi	s6,s6,1
 918:	0306                	slli	t1,t1,0x1
 91a:	0900                	addi	s0,sp,144
 91c:	0000                	unimp
 91e:	0501                	addi	a0,a0,0
 920:	030a                	slli	t1,t1,0x2
 922:	0900                	addi	s0,sp,144
 924:	0004                	.2byte	0x4
 926:	0501                	addi	a0,a0,0
 928:	097e0307          	.4byte	0x97e0307
 92c:	0002                	c.slli64	zero
 92e:	0601                	addi	a2,a2,0
 930:	04090303          	lb	t1,64(s2)
 934:	0100                	addi	s0,sp,128
 936:	0a05                	addi	s4,s4,1
 938:	0306                	slli	t1,t1,0x1
 93a:	0900                	addi	s0,sp,144
 93c:	0000                	unimp
 93e:	0501                	addi	a0,a0,0
 940:	01030607          	.4byte	0x1030607
 944:	0409                	addi	s0,s0,2
 946:	0100                	addi	s0,sp,128
 948:	1305                	addi	t1,t1,-31
 94a:	0306                	slli	t1,t1,0x1
 94c:	097d                	addi	s2,s2,31
 94e:	0000                	unimp
 950:	0501                	addi	a0,a0,0
 952:	030a                	slli	t1,t1,0x2
 954:	00020903          	lb	s2,0(tp) # 0 <_min_stack-0x2000>
 958:	0501                	addi	a0,a0,0
 95a:	0609                	addi	a2,a2,2
 95c:	04090203          	lb	tp,64(s2)
 960:	0100                	addi	s0,sp,128
 962:	04090103          	lb	sp,64(s2)
 966:	0100                	addi	s0,sp,128
 968:	0d05                	addi	s10,s10,1
 96a:	0306                	slli	t1,t1,0x1
 96c:	0900                	addi	s0,sp,144
 96e:	0000                	unimp
 970:	0501                	addi	a0,a0,0
 972:	0616                	slli	a2,a2,0x5
 974:	04090203          	lb	tp,64(s2)
 978:	0100                	addi	s0,sp,128
 97a:	0905                	addi	s2,s2,1
 97c:	0306                	slli	t1,t1,0x1
 97e:	0902                	c.slli64	s2
 980:	0004                	.2byte	0x4
 982:	0501                	addi	a0,a0,0
 984:	0316                	slli	t1,t1,0x5
 986:	097e                	slli	s2,s2,0x1f
 988:	0004                	.2byte	0x4
 98a:	0501                	addi	a0,a0,0
 98c:	030d                	addi	t1,t1,3
 98e:	0978                	addi	a4,sp,156
 990:	0004                	.2byte	0x4
 992:	0501                	addi	a0,a0,0
 994:	031e                	slli	t1,t1,0x7
 996:	090d                	addi	s2,s2,3
 998:	0002                	c.slli64	zero
 99a:	0601                	addi	a2,a2,0
 99c:	02090003          	lb	zero,32(s2)
 9a0:	0100                	addi	s0,sp,128
 9a2:	0f05                	addi	t5,t5,1
 9a4:	0306                	slli	t1,t1,0x1
 9a6:	0900                	addi	s0,sp,144
 9a8:	0000                	unimp
 9aa:	0501                	addi	a0,a0,0
 9ac:	0331                	addi	t1,t1,12
 9ae:	0900                	addi	s0,sp,144
 9b0:	0004                	.2byte	0x4
 9b2:	0501                	addi	a0,a0,0
 9b4:	031e                	slli	t1,t1,0x7
 9b6:	0900                	addi	s0,sp,144
 9b8:	0004                	.2byte	0x4
 9ba:	0501                	addi	a0,a0,0
 9bc:	04030607          	.4byte	0x4030607
 9c0:	0c09                	addi	s8,s8,2
 9c2:	0100                	addi	s0,sp,128
 9c4:	0905                	addi	s2,s2,1
 9c6:	0306                	slli	t1,t1,0x1
 9c8:	0900                	addi	s0,sp,144
 9ca:	0000                	unimp
 9cc:	0601                	addi	a2,a2,0
 9ce:	08090103          	lb	sp,128(s2)
 9d2:	0100                	addi	s0,sp,128
 9d4:	1805                	addi	a6,a6,-31
 9d6:	0306                	slli	t1,t1,0x1
 9d8:	0900                	addi	s0,sp,144
 9da:	0000                	unimp
 9dc:	0501                	addi	a0,a0,0
 9de:	0609                	addi	a2,a2,2
 9e0:	06090103          	lb	sp,96(s2)
 9e4:	0100                	addi	s0,sp,128
 9e6:	0f05                	addi	t5,t5,1
 9e8:	0306                	slli	t1,t1,0x1
 9ea:	0900                	addi	s0,sp,144
 9ec:	0000                	unimp
 9ee:	0301                	addi	t1,t1,0
 9f0:	0916                	slli	s2,s2,0x5
 9f2:	0008                	.2byte	0x8
 9f4:	0501                	addi	a0,a0,0
 9f6:	0609                	addi	a2,a2,2
 9f8:	04096103          	.4byte	0x4096103
 9fc:	0100                	addi	s0,sp,128
 9fe:	00090103          	lb	sp,0(s2)
 a02:	0100                	addi	s0,sp,128
 a04:	0d05                	addi	s10,s10,1
 a06:	0306                	slli	t1,t1,0x1
 a08:	0900                	addi	s0,sp,144
 a0a:	0000                	unimp
 a0c:	0501                	addi	a0,a0,0
 a0e:	0309                	addi	t1,t1,2
 a10:	097f                	.2byte	0x97f
 a12:	0004                	.2byte	0x4
 a14:	0601                	addi	a2,a2,0
 a16:	04090403          	lb	s0,64(s2)
 a1a:	0100                	addi	s0,sp,128
 a1c:	0f05                	addi	t5,t5,1
 a1e:	0306                	slli	t1,t1,0x1
 a20:	0900                	addi	s0,sp,144
 a22:	0000                	unimp
 a24:	0501                	addi	a0,a0,0
 a26:	0609                	addi	a2,a2,2
 a28:	04090103          	lb	sp,64(s2)
 a2c:	0100                	addi	s0,sp,128
 a2e:	3105                	jal	64e <_min_stack-0x19b2>
 a30:	0306                	slli	t1,t1,0x1
 a32:	097e                	slli	s2,s2,0x1f
 a34:	0000                	unimp
 a36:	0501                	addi	a0,a0,0
 a38:	0902030f          	.4byte	0x902030f
 a3c:	0002                	c.slli64	zero
 a3e:	0501                	addi	a0,a0,0
 a40:	0631                	addi	a2,a2,12
 a42:	02097e03          	.4byte	0x2097e03
 a46:	0100                	addi	s0,sp,128
 a48:	0705                	addi	a4,a4,1
 a4a:	02090903          	lb	s2,32(s2)
 a4e:	0100                	addi	s0,sp,128
 a50:	0905                	addi	s2,s2,1
 a52:	0306                	slli	t1,t1,0x1
 a54:	0900                	addi	s0,sp,144
 a56:	0000                	unimp
 a58:	0601                	addi	a2,a2,0
 a5a:	08090103          	lb	sp,128(s2)
 a5e:	0100                	addi	s0,sp,128
 a60:	0f05                	addi	t5,t5,1
 a62:	0306                	slli	t1,t1,0x1
 a64:	0900                	addi	s0,sp,144
 a66:	0000                	unimp
 a68:	0501                	addi	a0,a0,0
 a6a:	030c                	addi	a1,sp,384
 a6c:	0900                	addi	s0,sp,144
 a6e:	0010                	.2byte	0x10
 a70:	0501                	addi	a0,a0,0
 a72:	0609                	addi	a2,a2,2
 a74:	02090103          	lb	sp,32(s2)
 a78:	0100                	addi	s0,sp,128
 a7a:	0f05                	addi	t5,t5,1
 a7c:	0306                	slli	t1,t1,0x1
 a7e:	097f                	.2byte	0x97f
 a80:	0000                	unimp
 a82:	0501                	addi	a0,a0,0
 a84:	0618                	addi	a4,sp,768
 a86:	02096403          	.4byte	0x2096403
 a8a:	0100                	addi	s0,sp,128
 a8c:	0705                	addi	a4,a4,1
 a8e:	04091f03          	lh	t5,64(s2)
 a92:	0100                	addi	s0,sp,128
 a94:	0905                	addi	s2,s2,1
 a96:	0306                	slli	t1,t1,0x1
 a98:	0900                	addi	s0,sp,144
 a9a:	0000                	unimp
 a9c:	0601                	addi	a2,a2,0
 a9e:	08090103          	lb	sp,128(s2)
 aa2:	0100                	addi	s0,sp,128
 aa4:	1d05                	addi	s10,s10,-31
 aa6:	0306                	slli	t1,t1,0x1
 aa8:	0900                	addi	s0,sp,144
 aaa:	0000                	unimp
 aac:	0501                	addi	a0,a0,0
 aae:	0900030f          	.4byte	0x900030f
 ab2:	0004                	.2byte	0x4
 ab4:	0501                	addi	a0,a0,0
 ab6:	03030607          	.4byte	0x3030607
 aba:	0809                	addi	a6,a6,2
 abc:	0100                	addi	s0,sp,128
 abe:	0905                	addi	s2,s2,1
 ac0:	0306                	slli	t1,t1,0x1
 ac2:	0900                	addi	s0,sp,144
 ac4:	0000                	unimp
 ac6:	0601                	addi	a2,a2,0
 ac8:	08090103          	lb	sp,128(s2)
 acc:	0100                	addi	s0,sp,128
 ace:	1d05                	addi	s10,s10,-31
 ad0:	0306                	slli	t1,t1,0x1
 ad2:	0900                	addi	s0,sp,144
 ad4:	0000                	unimp
 ad6:	0501                	addi	a0,a0,0
 ad8:	0900030f          	.4byte	0x900030f
 adc:	0004                	.2byte	0x4
 ade:	0301                	addi	t1,t1,0
 ae0:	0904                	addi	s1,sp,144
 ae2:	0004                	.2byte	0x4
 ae4:	0501                	addi	a0,a0,0
 ae6:	7f030607          	.4byte	0x7f030607
 aea:	0609                	addi	a2,a2,2
 aec:	0100                	addi	s0,sp,128
 aee:	0905                	addi	s2,s2,1
 af0:	0306                	slli	t1,t1,0x1
 af2:	0900                	addi	s0,sp,144
 af4:	0000                	unimp
 af6:	0601                	addi	a2,a2,0
 af8:	08090103          	lb	sp,128(s2)
 afc:	0100                	addi	s0,sp,128
 afe:	1d05                	addi	s10,s10,-31
 b00:	0306                	slli	t1,t1,0x1
 b02:	0900                	addi	s0,sp,144
 b04:	0000                	unimp
 b06:	0501                	addi	a0,a0,0
 b08:	0900030f          	.4byte	0x900030f
 b0c:	0004                	.2byte	0x4
 b0e:	0501                	addi	a0,a0,0
 b10:	03030607          	.4byte	0x3030607
 b14:	0609                	addi	a2,a2,2
 b16:	0100                	addi	s0,sp,128
 b18:	0905                	addi	s2,s2,1
 b1a:	0306                	slli	t1,t1,0x1
 b1c:	0900                	addi	s0,sp,144
 b1e:	0000                	unimp
 b20:	0601                	addi	a2,a2,0
 b22:	08090103          	lb	sp,128(s2)
 b26:	0100                	addi	s0,sp,128
 b28:	1005                	c.nop	-31
 b2a:	0306                	slli	t1,t1,0x1
 b2c:	0900                	addi	s0,sp,144
 b2e:	0000                	unimp
 b30:	0501                	addi	a0,a0,0
 b32:	0312                	slli	t1,t1,0x4
 b34:	0900                	addi	s0,sp,144
 b36:	0002                	c.slli64	zero
 b38:	0501                	addi	a0,a0,0
 b3a:	0310                	addi	a2,sp,384
 b3c:	0901                	addi	s2,s2,0
 b3e:	0004                	.2byte	0x4
 b40:	0301                	addi	t1,t1,0
 b42:	097f                	.2byte	0x97f
 b44:	0004                	.2byte	0x4
 b46:	0501                	addi	a0,a0,0
 b48:	0609                	addi	a2,a2,2
 b4a:	04090103          	lb	sp,64(s2)
 b4e:	0100                	addi	s0,sp,128
 b50:	00090103          	lb	sp,0(s2)
 b54:	0100                	addi	s0,sp,128
 b56:	0f05                	addi	t5,t5,1
 b58:	0306                	slli	t1,t1,0x1
 b5a:	0900                	addi	s0,sp,144
 b5c:	0000                	unimp
 b5e:	0501                	addi	a0,a0,0
 b60:	09560307          	.4byte	0x9560307
 b64:	0008                	.2byte	0x8
 b66:	0601                	addi	a2,a2,0
 b68:	02093103          	.4byte	0x2093103
 b6c:	0100                	addi	s0,sp,128
 b6e:	0305                	addi	t1,t1,1
 b70:	097ee403          	.4byte	0x97ee403
 b74:	0000                	unimp
 b76:	0501                	addi	a0,a0,0
 b78:	0305                	addi	t1,t1,1
 b7a:	0906                	slli	s2,s2,0x1
 b7c:	0000                	unimp
 b7e:	0501                	addi	a0,a0,0
 b80:	09740303          	lb	t1,151(s0)
 b84:	0000                	unimp
 b86:	0501                	addi	a0,a0,0
 b88:	a3030607          	.4byte	0xa3030607
 b8c:	0901                	addi	s2,s2,0
 b8e:	0004                	.2byte	0x4
 b90:	0501                	addi	a0,a0,0
 b92:	7edd0303          	lb	t1,2029(s10)
 b96:	0209                	addi	tp,tp,2 # 2 <_min_stack-0x1ffe>
 b98:	0100                	addi	s0,sp,128
 b9a:	0306                	slli	t1,t1,0x1
 b9c:	0901                	addi	s2,s2,0
 b9e:	0002                	c.slli64	zero
 ba0:	0501                	addi	a0,a0,0
 ba2:	01a20307          	.4byte	0x1a20307
 ba6:	0009                	c.nop	2
 ba8:	0100                	addi	s0,sp,128
 baa:	1f05                	addi	t5,t5,-31
 bac:	097dec03          	.4byte	0x97dec03
 bb0:	0002                	c.slli64	zero
 bb2:	0501                	addi	a0,a0,0
 bb4:	09010303          	lb	t1,144(sp)
 bb8:	0000                	unimp
 bba:	0501                	addi	a0,a0,0
 bbc:	0301                	addi	t1,t1,0
 bbe:	0a0902ab          	.4byte	0xa0902ab
 bc2:	0100                	addi	s0,sp,128
 bc4:	0305                	addi	t1,t1,1
 bc6:	00090103          	lb	sp,0(s2)
 bca:	0100                	addi	s0,sp,128
 bcc:	00090203          	lb	tp,0(s2)
 bd0:	0100                	addi	s0,sp,128
 bd2:	0105                	addi	sp,sp,1
 bd4:	0306                	slli	t1,t1,0x1
 bd6:	097d                	addi	s2,s2,31
 bd8:	0000                	unimp
 bda:	0301                	addi	t1,t1,0
 bdc:	0900                	addi	s0,sp,144
 bde:	0008                	.2byte	0x8
 be0:	0501                	addi	a0,a0,0
 be2:	09010307          	.4byte	0x9010307
 be6:	0002                	c.slli64	zero
 be8:	0501                	addi	a0,a0,0
 bea:	060e                	slli	a2,a2,0x3
 bec:	02090203          	lb	tp,32(s2)
 bf0:	0100                	addi	s0,sp,128
 bf2:	0a05                	addi	s4,s4,1
 bf4:	0306                	slli	t1,t1,0x1
 bf6:	0900                	addi	s0,sp,144
 bf8:	0000                	unimp
 bfa:	0501                	addi	a0,a0,0
 bfc:	030e                	slli	t1,t1,0x3
 bfe:	0900                	addi	s0,sp,144
 c00:	0008                	.2byte	0x8
 c02:	0501                	addi	a0,a0,0
 c04:	03030603          	lb	a2,48(t1)
 c08:	0209                	addi	tp,tp,2 # 2 <_min_stack-0x1ffe>
 c0a:	0100                	addi	s0,sp,128
 c0c:	097ebf03          	.4byte	0x97ebf03
 c10:	0000                	unimp
 c12:	0301                	addi	t1,t1,0
 c14:	0901                	addi	s2,s2,0
 c16:	0004                	.2byte	0x4
 c18:	0301                	addi	t1,t1,0
 c1a:	01c2                	slli	gp,gp,0x10
 c1c:	0009                	c.nop	2
 c1e:	0100                	addi	s0,sp,128
 c20:	0105                	addi	sp,sp,1
 c22:	0306                	slli	t1,t1,0x1
 c24:	0901                	addi	s2,s2,0
 c26:	0000                	unimp
 c28:	0501                	addi	a0,a0,0
 c2a:	0605                	addi	a2,a2,1
 c2c:	0c097b03          	.4byte	0xc097b03
 c30:	0100                	addi	s0,sp,128
 c32:	1005                	c.nop	-31
 c34:	0306                	slli	t1,t1,0x1
 c36:	0900                	addi	s0,sp,144
 c38:	0000                	unimp
 c3a:	0501                	addi	a0,a0,0
 c3c:	c1030603          	lb	a2,-1008(t1)
 c40:	097e                	slli	s2,s2,0x1f
 c42:	0002                	c.slli64	zero
 c44:	0301                	addi	t1,t1,0
 c46:	0901                	addi	s2,s2,0
 c48:	0002                	c.slli64	zero
 c4a:	0501                	addi	a0,a0,0
 c4c:	060a                	slli	a2,a2,0x2
 c4e:	00090003          	lb	zero,0(s2)
 c52:	0100                	addi	s0,sp,128
 c54:	3805                	jal	484 <_min_stack-0x1b7c>
 c56:	0306                	slli	t1,t1,0x1
 c58:	01c5                	addi	gp,gp,17
 c5a:	0209                	addi	tp,tp,2 # 2 <_min_stack-0x1ffe>
 c5c:	0100                	addi	s0,sp,128
 c5e:	0105                	addi	sp,sp,1
 c60:	00090103          	lb	sp,0(s2)
 c64:	0100                	addi	s0,sp,128
 c66:	0409                	addi	s0,s0,2
 c68:	0000                	unimp
 c6a:	0101                	addi	sp,sp,0
 c6c:	01bd                	addi	gp,gp,15
 c6e:	0000                	unimp
 c70:	0005                	c.nop	1
 c72:	0004                	.2byte	0x4
 c74:	003c                	addi	a5,sp,8
 c76:	0000                	unimp
 c78:	0101                	addi	sp,sp,0
 c7a:	fb01                	bnez	a4,b8a <_min_stack-0x1476>
 c7c:	0d0e                	slli	s10,s10,0x3
 c7e:	0100                	addi	s0,sp,128
 c80:	0101                	addi	sp,sp,0
 c82:	0001                	nop
 c84:	0000                	unimp
 c86:	0001                	nop
 c88:	0100                	addi	s0,sp,128
 c8a:	0101                	addi	sp,sp,0
 c8c:	031f 003c 0000      	.byte	0x1f, 0x03, 0x3c, 0x00, 0x00, 0x00
 c92:	0146                	slli	sp,sp,0x11
 c94:	0000                	unimp
 c96:	00be                	slli	ra,ra,0xf
 c98:	0000                	unimp
 c9a:	0102                	c.slli64	sp
 c9c:	021f 040f 012a      	.byte	0x1f, 0x02, 0x0f, 0x04, 0x2a, 0x01
 ca2:	0000                	unimp
 ca4:	2a00                	.2byte	0x2a00
 ca6:	0001                	nop
 ca8:	0000                	unimp
 caa:	0165                	addi	sp,sp,25
 cac:	0000                	unimp
 cae:	1d01                	addi	s10,s10,-32
 cb0:	0001                	nop
 cb2:	0200                	addi	s0,sp,256
 cb4:	2105                	jal	10d4 <_min_stack-0xf2c>
 cb6:	0500                	addi	s0,sp,640
 cb8:	f002                	.2byte	0xf002
 cba:	0004                	.2byte	0x4
 cbc:	03e0                	addi	s0,sp,460
 cbe:	0111                	addi	sp,sp,4
 cc0:	0305                	addi	t1,t1,1
 cc2:	00090203          	lb	tp,0(s2)
 cc6:	0100                	addi	s0,sp,128
 cc8:	00090103          	lb	sp,0(s2)
 ccc:	0100                	addi	s0,sp,128
 cce:	00090203          	lb	tp,0(s2)
 cd2:	0100                	addi	s0,sp,128
 cd4:	00090103          	lb	sp,0(s2)
 cd8:	0100                	addi	s0,sp,128
 cda:	00090103          	lb	sp,0(s2)
 cde:	0100                	addi	s0,sp,128
 ce0:	00090103          	lb	sp,0(s2)
 ce4:	0100                	addi	s0,sp,128
 ce6:	00090103          	lb	sp,0(s2)
 cea:	0100                	addi	s0,sp,128
 cec:	00090103          	lb	sp,0(s2)
 cf0:	0100                	addi	s0,sp,128
 cf2:	00090103          	lb	sp,0(s2)
 cf6:	0100                	addi	s0,sp,128
 cf8:	00090203          	lb	tp,0(s2)
 cfc:	0100                	addi	s0,sp,128
 cfe:	0f05                	addi	t5,t5,1
 d00:	0306                	slli	t1,t1,0x1
 d02:	0900                	addi	s0,sp,144
 d04:	0000                	unimp
 d06:	0501                	addi	a0,a0,0
 d08:	0314                	addi	a3,sp,384
 d0a:	0902                	c.slli64	s2
 d0c:	0006                	c.slli	zero,0x1
 d0e:	0501                	addi	a0,a0,0
 d10:	097e030f          	.4byte	0x97e030f
 d14:	0002                	c.slli64	zero
 d16:	0501                	addi	a0,a0,0
 d18:	02030603          	lb	a2,32(t1)
 d1c:	0209                	addi	tp,tp,2 # 2 <_min_stack-0x1ffe>
 d1e:	0100                	addi	s0,sp,128
 d20:	0705                	addi	a4,a4,1
 d22:	00090003          	lb	zero,0(s2)
 d26:	0100                	addi	s0,sp,128
 d28:	1405                	addi	s0,s0,-31
 d2a:	00090003          	lb	zero,0(s2)
 d2e:	0100                	addi	s0,sp,128
 d30:	0b05                	addi	s6,s6,1
 d32:	0306                	slli	t1,t1,0x1
 d34:	0900                	addi	s0,sp,144
 d36:	0000                	unimp
 d38:	0501                	addi	a0,a0,0
 d3a:	0315                	addi	t1,t1,5
 d3c:	0905                	addi	s2,s2,1
 d3e:	000a                	c.slli	zero,0x2
 d40:	0501                	addi	a0,a0,0
 d42:	0310                	addi	a2,sp,384
 d44:	0901                	addi	s2,s2,0
 d46:	0002                	c.slli64	zero
 d48:	0501                	addi	a0,a0,0
 d4a:	0314                	addi	a3,sp,384
 d4c:	097a                	slli	s2,s2,0x1e
 d4e:	0006                	c.slli	zero,0x1
 d50:	0501                	addi	a0,a0,0
 d52:	0606                	slli	a2,a2,0x1
 d54:	04090103          	lb	sp,64(s2)
 d58:	0100                	addi	s0,sp,128
 d5a:	0905                	addi	s2,s2,1
 d5c:	00090103          	lb	sp,0(s2)
 d60:	0100                	addi	s0,sp,128
 d62:	2e05                	jal	1092 <_min_stack-0xf6e>
 d64:	0306                	slli	t1,t1,0x1
 d66:	0900                	addi	s0,sp,144
 d68:	0000                	unimp
 d6a:	0501                	addi	a0,a0,0
 d6c:	0314                	addi	a3,sp,384
 d6e:	0900                	addi	s0,sp,144
 d70:	0004                	.2byte	0x4
 d72:	0501                	addi	a0,a0,0
 d74:	0609                	addi	a2,a2,2
 d76:	04090103          	lb	sp,64(s2)
 d7a:	0100                	addi	s0,sp,128
 d7c:	2e05                	jal	10ac <_min_stack-0xf54>
 d7e:	0306                	slli	t1,t1,0x1
 d80:	0900                	addi	s0,sp,144
 d82:	0000                	unimp
 d84:	0501                	addi	a0,a0,0
 d86:	0314                	addi	a3,sp,384
 d88:	0900                	addi	s0,sp,144
 d8a:	0004                	.2byte	0x4
 d8c:	0501                	addi	a0,a0,0
 d8e:	0609                	addi	a2,a2,2
 d90:	04090103          	lb	sp,64(s2)
 d94:	0100                	addi	s0,sp,128
 d96:	2e05                	jal	10c6 <_min_stack-0xf3a>
 d98:	0306                	slli	t1,t1,0x1
 d9a:	0900                	addi	s0,sp,144
 d9c:	0000                	unimp
 d9e:	0501                	addi	a0,a0,0
 da0:	0314                	addi	a3,sp,384
 da2:	097c                	addi	a5,sp,156
 da4:	0004                	.2byte	0x4
 da6:	0301                	addi	t1,t1,0
 da8:	0904                	addi	s1,sp,144
 daa:	0002                	c.slli64	zero
 dac:	0501                	addi	a0,a0,0
 dae:	0609                	addi	a2,a2,2
 db0:	04090103          	lb	sp,64(s2)
 db4:	0100                	addi	s0,sp,128
 db6:	1505                	addi	a0,a0,-31
 db8:	0306                	slli	t1,t1,0x1
 dba:	0900                	addi	s0,sp,144
 dbc:	0000                	unimp
 dbe:	0501                	addi	a0,a0,0
 dc0:	0325                	addi	t1,t1,9
 dc2:	0004097b          	.4byte	0x4097b
 dc6:	0501                	addi	a0,a0,0
 dc8:	0312                	slli	t1,t1,0x4
 dca:	0905                	addi	s2,s2,1
 dcc:	0002                	c.slli64	zero
 dce:	0501                	addi	a0,a0,0
 dd0:	0609                	addi	a2,a2,2
 dd2:	04090103          	lb	sp,64(s2)
 dd6:	0100                	addi	s0,sp,128
 dd8:	1005                	c.nop	-31
 dda:	0306                	slli	t1,t1,0x1
 ddc:	0900                	addi	s0,sp,144
 dde:	0000                	unimp
 de0:	0501                	addi	a0,a0,0
 de2:	0625                	addi	a2,a2,9
 de4:	02097a03          	.4byte	0x2097a03
 de8:	0100                	addi	s0,sp,128
 dea:	1405                	addi	s0,s0,-31
 dec:	00090003          	lb	zero,0(s2)
 df0:	0100                	addi	s0,sp,128
 df2:	0305                	addi	t1,t1,1
 df4:	04090a03          	lb	s4,64(s2)
 df8:	0100                	addi	s0,sp,128
 dfa:	0f05                	addi	t5,t5,1
 dfc:	0306                	slli	t1,t1,0x1
 dfe:	0900                	addi	s0,sp,144
 e00:	0000                	unimp
 e02:	0501                	addi	a0,a0,0
 e04:	01030603          	lb	a2,16(t1)
 e08:	0409                	addi	s0,s0,2
 e0a:	0100                	addi	s0,sp,128
 e0c:	1005                	c.nop	-31
 e0e:	0306                	slli	t1,t1,0x1
 e10:	0900                	addi	s0,sp,144
 e12:	0000                	unimp
 e14:	0501                	addi	a0,a0,0
 e16:	02030603          	lb	a2,32(t1)
 e1a:	0409                	addi	s0,s0,2
 e1c:	0100                	addi	s0,sp,128
 e1e:	0105                	addi	sp,sp,1
 e20:	0306                	slli	t1,t1,0x1
 e22:	0902                	c.slli64	s2
 e24:	0000                	unimp
 e26:	0901                	addi	s2,s2,0
 e28:	0004                	.2byte	0x4
 e2a:	0100                	addi	s0,sp,128
 e2c:	ab01                	j	133c <_min_stack-0xcc4>
 e2e:	0001                	nop
 e30:	0500                	addi	s0,sp,640
 e32:	0400                	addi	s0,sp,512
 e34:	2e00                	.2byte	0x2e00
 e36:	0000                	unimp
 e38:	0100                	addi	s0,sp,128
 e3a:	0101                	addi	sp,sp,0
 e3c:	000d0efb          	.4byte	0xd0efb
 e40:	0101                	addi	sp,sp,0
 e42:	0101                	addi	sp,sp,0
 e44:	0000                	unimp
 e46:	0100                	addi	s0,sp,128
 e48:	0000                	unimp
 e4a:	0101                	addi	sp,sp,0
 e4c:	1f01                	addi	t5,t5,-32
 e4e:	3c02                	.2byte	0x3c02
 e50:	0000                	unimp
 e52:	8a00                	.2byte	0x8a00
 e54:	0000                	unimp
 e56:	0200                	addi	s0,sp,256
 e58:	1f01                	addi	t5,t5,-32
 e5a:	0f02                	c.slli64	t5
 e5c:	8202                	jr	tp
 e5e:	0001                	nop
 e60:	0100                	addi	s0,sp,128
 e62:	0182                	c.slli64	gp
 e64:	0000                	unimp
 e66:	0001                	nop
 e68:	0205                	addi	tp,tp,1 # 1 <_min_stack-0x1fff>
 e6a:	045a                	slli	s0,s0,0x16
 e6c:	e000                	.2byte	0xe000
 e6e:	031a                	slli	t1,t1,0x6
 e70:	0904                	addi	s1,sp,144
 e72:	0004                	.2byte	0x4
 e74:	0301                	addi	t1,t1,0
 e76:	0901                	addi	s2,s2,0
 e78:	0004                	.2byte	0x4
 e7a:	0301                	addi	t1,t1,0
 e7c:	0901                	addi	s2,s2,0
 e7e:	0002                	c.slli64	zero
 e80:	0301                	addi	t1,t1,0
 e82:	0901                	addi	s2,s2,0
 e84:	0002                	c.slli64	zero
 e86:	0301                	addi	t1,t1,0
 e88:	0901                	addi	s2,s2,0
 e8a:	0002                	c.slli64	zero
 e8c:	0301                	addi	t1,t1,0
 e8e:	0901                	addi	s2,s2,0
 e90:	0002                	c.slli64	zero
 e92:	0301                	addi	t1,t1,0
 e94:	0901                	addi	s2,s2,0
 e96:	0002                	c.slli64	zero
 e98:	0301                	addi	t1,t1,0
 e9a:	0901                	addi	s2,s2,0
 e9c:	0002                	c.slli64	zero
 e9e:	0301                	addi	t1,t1,0
 ea0:	0901                	addi	s2,s2,0
 ea2:	0002                	c.slli64	zero
 ea4:	0301                	addi	t1,t1,0
 ea6:	0901                	addi	s2,s2,0
 ea8:	0002                	c.slli64	zero
 eaa:	0301                	addi	t1,t1,0
 eac:	0901                	addi	s2,s2,0
 eae:	0002                	c.slli64	zero
 eb0:	0301                	addi	t1,t1,0
 eb2:	0901                	addi	s2,s2,0
 eb4:	0002                	c.slli64	zero
 eb6:	0301                	addi	t1,t1,0
 eb8:	0901                	addi	s2,s2,0
 eba:	0002                	c.slli64	zero
 ebc:	0301                	addi	t1,t1,0
 ebe:	0901                	addi	s2,s2,0
 ec0:	0002                	c.slli64	zero
 ec2:	0301                	addi	t1,t1,0
 ec4:	0901                	addi	s2,s2,0
 ec6:	0002                	c.slli64	zero
 ec8:	0301                	addi	t1,t1,0
 eca:	0901                	addi	s2,s2,0
 ecc:	0002                	c.slli64	zero
 ece:	0301                	addi	t1,t1,0
 ed0:	0901                	addi	s2,s2,0
 ed2:	0002                	c.slli64	zero
 ed4:	0301                	addi	t1,t1,0
 ed6:	0901                	addi	s2,s2,0
 ed8:	0002                	c.slli64	zero
 eda:	0301                	addi	t1,t1,0
 edc:	0901                	addi	s2,s2,0
 ede:	0002                	c.slli64	zero
 ee0:	0301                	addi	t1,t1,0
 ee2:	0901                	addi	s2,s2,0
 ee4:	0002                	c.slli64	zero
 ee6:	0301                	addi	t1,t1,0
 ee8:	0901                	addi	s2,s2,0
 eea:	0002                	c.slli64	zero
 eec:	0301                	addi	t1,t1,0
 eee:	0901                	addi	s2,s2,0
 ef0:	0002                	c.slli64	zero
 ef2:	0301                	addi	t1,t1,0
 ef4:	0901                	addi	s2,s2,0
 ef6:	0002                	c.slli64	zero
 ef8:	0301                	addi	t1,t1,0
 efa:	0901                	addi	s2,s2,0
 efc:	0002                	c.slli64	zero
 efe:	0301                	addi	t1,t1,0
 f00:	0901                	addi	s2,s2,0
 f02:	0002                	c.slli64	zero
 f04:	0301                	addi	t1,t1,0
 f06:	0901                	addi	s2,s2,0
 f08:	0002                	c.slli64	zero
 f0a:	0301                	addi	t1,t1,0
 f0c:	0901                	addi	s2,s2,0
 f0e:	0002                	c.slli64	zero
 f10:	0301                	addi	t1,t1,0
 f12:	0901                	addi	s2,s2,0
 f14:	0002                	c.slli64	zero
 f16:	0301                	addi	t1,t1,0
 f18:	0901                	addi	s2,s2,0
 f1a:	0002                	c.slli64	zero
 f1c:	0301                	addi	t1,t1,0
 f1e:	0901                	addi	s2,s2,0
 f20:	0002                	c.slli64	zero
 f22:	0301                	addi	t1,t1,0
 f24:	0901                	addi	s2,s2,0
 f26:	0002                	c.slli64	zero
 f28:	0301                	addi	t1,t1,0
 f2a:	00020903          	lb	s2,0(tp) # 0 <_min_stack-0x2000>
 f2e:	0301                	addi	t1,t1,0
 f30:	00080907          	.4byte	0x80907
 f34:	0301                	addi	t1,t1,0
 f36:	0901                	addi	s2,s2,0
 f38:	0008                	.2byte	0x8
 f3a:	0301                	addi	t1,t1,0
 f3c:	0901                	addi	s2,s2,0
 f3e:	0008                	.2byte	0x8
 f40:	0301                	addi	t1,t1,0
 f42:	0904                	addi	s1,sp,144
 f44:	0004                	.2byte	0x4
 f46:	0301                	addi	t1,t1,0
 f48:	0901                	addi	s2,s2,0
 f4a:	0004                	.2byte	0x4
 f4c:	0301                	addi	t1,t1,0
 f4e:	0901                	addi	s2,s2,0
 f50:	0002                	c.slli64	zero
 f52:	0301                	addi	t1,t1,0
 f54:	0905                	addi	s2,s2,1
 f56:	0004                	.2byte	0x4
 f58:	0301                	addi	t1,t1,0
 f5a:	0901                	addi	s2,s2,0
 f5c:	0002                	c.slli64	zero
 f5e:	0301                	addi	t1,t1,0
 f60:	0901                	addi	s2,s2,0
 f62:	0002                	c.slli64	zero
 f64:	0301                	addi	t1,t1,0
 f66:	0902                	c.slli64	s2
 f68:	0004                	.2byte	0x4
 f6a:	0301                	addi	t1,t1,0
 f6c:	0901                	addi	s2,s2,0
 f6e:	0002                	c.slli64	zero
 f70:	0301                	addi	t1,t1,0
 f72:	0901                	addi	s2,s2,0
 f74:	0006                	c.slli	zero,0x1
 f76:	0301                	addi	t1,t1,0
 f78:	0901                	addi	s2,s2,0
 f7a:	0004                	.2byte	0x4
 f7c:	0301                	addi	t1,t1,0
 f7e:	0901                	addi	s2,s2,0
 f80:	0004                	.2byte	0x4
 f82:	0301                	addi	t1,t1,0
 f84:	00020903          	lb	s2,0(tp) # 0 <_min_stack-0x2000>
 f88:	0301                	addi	t1,t1,0
 f8a:	0901                	addi	s2,s2,0
 f8c:	0006                	c.slli	zero,0x1
 f8e:	0301                	addi	t1,t1,0
 f90:	0901                	addi	s2,s2,0
 f92:	0002                	c.slli64	zero
 f94:	0301                	addi	t1,t1,0
 f96:	00040903          	lb	s2,0(s0)
 f9a:	0301                	addi	t1,t1,0
 f9c:	0901                	addi	s2,s2,0
 f9e:	0004                	.2byte	0x4
 fa0:	0901                	addi	s2,s2,0
 fa2:	0002                	c.slli64	zero
 fa4:	0100                	addi	s0,sp,128
 fa6:	0001                	nop
 fa8:	0205                	addi	tp,tp,1 # 1 <_min_stack-0x1fff>
 faa:	0000                	unimp
 fac:	e000                	.2byte	0xe000
 fae:	0100de03          	lhu	t3,16(ra)
 fb2:	28090203          	lb	tp,640(s2)
 fb6:	0100                	addi	s0,sp,128
 fb8:	04090203          	lb	tp,64(s2)
 fbc:	0100                	addi	s0,sp,128
 fbe:	04090503          	lb	a0,64(s2)
 fc2:	0100                	addi	s0,sp,128
 fc4:	48090103          	lb	sp,1152(s2)
 fc8:	0100                	addi	s0,sp,128
 fca:	04090103          	lb	sp,64(s2)
 fce:	0100                	addi	s0,sp,128
 fd0:	04090503          	lb	a0,64(s2)
 fd4:	0100                	addi	s0,sp,128
 fd6:	0409                	addi	s0,s0,2
 fd8:	0000                	unimp
 fda:	0101                	addi	sp,sp,0

Disassembly of section .debug_str:

00000000 <.debug_str>:
   0:	6175                	addi	sp,sp,368
   2:	7472                	.2byte	0x7472
   4:	675f 7465 6863      	.byte	0x5f, 0x67, 0x65, 0x74, 0x63, 0x68
   a:	7261                	lui	tp,0xffff8
   c:	5f00                	lw	s0,56(a4)
   e:	625f 6975 746c      	.byte	0x5f, 0x62, 0x75, 0x69, 0x6c, 0x74
  14:	6e69                	lui	t3,0x1a
  16:	765f 5f61 696c      	.byte	0x5f, 0x76, 0x61, 0x5f, 0x6c, 0x69
  1c:	71007473          	csrrci	s0,0x710,0
  20:	7270                	.2byte	0x7270
  22:	6e69                	lui	t3,0x1a
  24:	6374                	.2byte	0x6374
  26:	6168                	.2byte	0x6168
  28:	0072                	c.slli	zero,0x1c
  2a:	6175                	addi	sp,sp,368
  2c:	7472                	.2byte	0x7472
  2e:	775f 6961 5f74      	.byte	0x5f, 0x77, 0x61, 0x69, 0x74, 0x5f
  34:	7874                	.2byte	0x7874
  36:	645f 6e6f 0065      	.byte	0x5f, 0x64, 0x6f, 0x6e, 0x65, 0x00
  3c:	706d6973          	csrrsi	s2,0x706,26
  40:	656c                	.2byte	0x656c
  42:	655f 6378 685f      	.byte	0x5f, 0x65, 0x78, 0x63, 0x5f, 0x68
  48:	6e61                	lui	t3,0x18
  4a:	6c64                	.2byte	0x6c64
  4c:	7265                	lui	tp,0xffff9
  4e:	7300                	.2byte	0x7300
  50:	7274                	.2byte	0x7274
  52:	6e69                	lui	t3,0x1a
  54:	69640067          	jr	1686(s0)
  58:	7576                	.2byte	0x7576
  5a:	3031                	jal	fffff866 <fromhost+0x1ffef856>
  5c:	7100                	.2byte	0x7100
  5e:	7270                	.2byte	0x7270
  60:	6e69                	lui	t3,0x1a
  62:	6974                	.2byte	0x6974
  64:	5f00                	lw	s0,56(a4)
  66:	675f 756e 5f63      	.byte	0x5f, 0x67, 0x6e, 0x75, 0x63, 0x5f
  6c:	6176                	.2byte	0x6176
  6e:	6c5f 7369 0074      	.byte	0x5f, 0x6c, 0x69, 0x73, 0x74, 0x00
  74:	6170                	.2byte	0x6170
  76:	6364                	.2byte	0x6364
  78:	6168                	.2byte	0x6168
  7a:	0072                	c.slli	zero,0x1c
  7c:	6e75                	lui	t3,0x1d
  7e:	6e676973          	csrrsi	s2,0x6e6,14
  82:	6465                	lui	s0,0x19
  84:	6320                	.2byte	0x6320
  86:	6168                	.2byte	0x6168
  88:	0072                	c.slli	zero,0x1c
  8a:	20554e47          	.4byte	0x20554e47
  8e:	20373143          	.4byte	0x20373143
  92:	3131                	jal	fffffc9e <fromhost+0x1ffefc8e>
  94:	322e                	.2byte	0x322e
  96:	302e                	.2byte	0x302e
  98:	2d20                	.2byte	0x2d20
  9a:	616d                	addi	sp,sp,240
  9c:	6962                	.2byte	0x6962
  9e:	693d                	lui	s2,0xf
  a0:	706c                	.2byte	0x706c
  a2:	2d203233          	.4byte	0x2d203233
  a6:	636d                	lui	t1,0x1b
  a8:	6f6d                	lui	t5,0x1b
  aa:	6564                	.2byte	0x6564
  ac:	3d6c                	.2byte	0x3d6c
  ae:	656d                	lui	a0,0x1b
  b0:	6164                	.2byte	0x6164
  b2:	796e                	.2byte	0x796e
  b4:	2d20                	.2byte	0x2d20
  b6:	616d                	addi	sp,sp,240
  b8:	6372                	.2byte	0x6372
  ba:	3d68                	.2byte	0x3d68
  bc:	7672                	.2byte	0x7672
  be:	6d693233          	.4byte	0x6d693233
  c2:	672d2063          	.4byte	0x672d2063
  c6:	2d20                	.2byte	0x2d20
  c8:	2d20734f          	.4byte	0x2d20734f
  cc:	7666                	.2byte	0x7666
  ce:	7369                	lui	t1,0xffffa
  d0:	6269                	lui	tp,0x1a
  d2:	6c69                	lui	s8,0x1a
  d4:	7469                	lui	s0,0xffffa
  d6:	3d79                	jal	ffffff74 <fromhost+0x1ffeff64>
  d8:	6968                	.2byte	0x6968
  da:	6464                	.2byte	0x6464
  dc:	6e65                	lui	t3,0x19
  de:	2d20                	.2byte	0x2d20
  e0:	6666                	.2byte	0x6666
  e2:	6572                	.2byte	0x6572
  e4:	7365                	lui	t1,0xffff9
  e6:	6174                	.2byte	0x6174
  e8:	646e                	.2byte	0x646e
  ea:	6e69                	lui	t3,0x1a
  ec:	6c630067          	jr	1734(t1) # ffff96c6 <fromhost+0x1ffe96b6>
  f0:	6f635f6b          	.4byte	0x6f635f6b
  f4:	6e75                	lui	t3,0x1d
  f6:	6574                	.2byte	0x6574
  f8:	0072                	c.slli	zero,0x1c
  fa:	726f6873          	csrrsi	a6,0x726,30
  fe:	2074                	.2byte	0x2074
 100:	6e75                	lui	t3,0x1d
 102:	6e676973          	csrrsi	s2,0x6e6,14
 106:	6465                	lui	s0,0x19
 108:	6920                	.2byte	0x6920
 10a:	746e                	.2byte	0x746e
 10c:	7200                	.2byte	0x7200
 10e:	6d65                	lui	s10,0x19
 110:	3175                	jal	fffffdbc <fromhost+0x1ffefdac>
 112:	5f30                	lw	a2,120(a4)
 114:	6174                	.2byte	0x6174
 116:	6c62                	.2byte	0x6c62
 118:	0065                	c.nop	25
 11a:	7570                	.2byte	0x7570
 11c:	6374                	.2byte	0x6374
 11e:	6168                	.2byte	0x6168
 120:	0072                	c.slli	zero,0x1c
 122:	74646977          	.4byte	0x74646977
 126:	0068                	addi	a0,sp,12
 128:	7570                	.2byte	0x7570
 12a:	7374                	.2byte	0x7374
 12c:	6600                	.2byte	0x6600
 12e:	616d726f          	jal	tp,d7744 <tohost+0xb773c>
 132:	0074                	addi	a3,sp,12
 134:	7865                	lui	a6,0xffff9
 136:	6574                	.2byte	0x6574
 138:	6e72                	.2byte	0x6e72
 13a:	6c61                	lui	s8,0x18
 13c:	695f 7172 685f      	.byte	0x5f, 0x69, 0x72, 0x71, 0x5f, 0x68
 142:	6e61                	lui	t3,0x18
 144:	6c64                	.2byte	0x6c64
 146:	7265                	lui	tp,0xffff9
 148:	6c00                	.2byte	0x6c00
 14a:	20676e6f          	jal	t3,76350 <tohost+0x56348>
 14e:	6f6c                	.2byte	0x6f6c
 150:	676e                	.2byte	0x676e
 152:	7520                	.2byte	0x7520
 154:	736e                	.2byte	0x736e
 156:	6769                	lui	a4,0x1a
 158:	656e                	.2byte	0x656e
 15a:	2064                	.2byte	0x2064
 15c:	6e69                	lui	t3,0x1a
 15e:	0074                	addi	a3,sp,12
 160:	7270                	.2byte	0x7270
 162:	6e69                	lui	t3,0x1a
 164:	5f74                	lw	a3,124(a4)
 166:	7562                	.2byte	0x7562
 168:	0066                	c.slli	zero,0x19
 16a:	6572                	.2byte	0x6572
 16c:	756d                	lui	a0,0xffffb
 16e:	3031                	jal	fffff97a <fromhost+0x1ffef96a>
 170:	7500                	.2byte	0x7500
 172:	7261                	lui	tp,0xffff8
 174:	5f74                	lw	a3,124(a4)
 176:	5f746573          	csrrsi	a0,0x5f7,8
 17a:	00676663          	bltu	a4,t1,186 <_min_stack-0x1e7a>
 17e:	6f6c                	.2byte	0x6f6c
 180:	676e                	.2byte	0x676e
 182:	6c20                	.2byte	0x6c20
 184:	20676e6f          	jal	t3,7638a <tohost+0x56382>
 188:	6e69                	lui	t3,0x1a
 18a:	0074                	addi	a3,sp,12
 18c:	7071                	c.lui	zero,0xffffc
 18e:	6972                	.2byte	0x6972
 190:	746e                	.2byte	0x746e
 192:	7000                	.2byte	0x7000
 194:	6972                	.2byte	0x6972
 196:	746e                	.2byte	0x746e
 198:	0066                	c.slli	zero,0x19
 19a:	6175                	addi	sp,sp,368
 19c:	7472                	.2byte	0x7472
 19e:	735f 6e65 0064      	.byte	0x5f, 0x73, 0x65, 0x6e, 0x64, 0x00
 1a4:	726f6873          	csrrsi	a6,0x726,30
 1a8:	2074                	.2byte	0x2074
 1aa:	6e69                	lui	t3,0x1a
 1ac:	0074                	addi	a3,sp,12
 1ae:	6975                	lui	s2,0x1d
 1b0:	746e                	.2byte	0x746e
 1b2:	3631                	jal	fffffcbe <fromhost+0x1ffefcae>
 1b4:	745f 6c00 7465      	.byte	0x5f, 0x74, 0x00, 0x6c, 0x65, 0x74
 1ba:	6162                	.2byte	0x6162
 1bc:	6c006573          	csrrsi	a0,0x6c0,0
 1c0:	20676e6f          	jal	t3,763c6 <tohost+0x563be>
 1c4:	6f64                	.2byte	0x6f64
 1c6:	6275                	lui	tp,0x1d
 1c8:	656c                	.2byte	0x656c
 1ca:	7500                	.2byte	0x7500
 1cc:	7261                	lui	tp,0xffff8
 1ce:	5f74                	lw	a3,124(a4)
 1d0:	646e6573          	csrrsi	a0,0x646,28
 1d4:	72616863          	bltu	sp,t1,904 <_min_stack-0x16fc>
 1d8:	7100                	.2byte	0x7100
 1da:	7270                	.2byte	0x7270
 1dc:	6e69                	lui	t3,0x1a
 1de:	7374                	.2byte	0x7374
 1e0:	7000                	.2byte	0x7000
 1e2:	7261                	lui	tp,0xffff8
 1e4:	7469                	lui	s0,0xffffa
 1e6:	0079                	c.nop	30
 1e8:	7562                	.2byte	0x7562
 1ea:	6666                	.2byte	0x6666
 1ec:	7265                	lui	tp,0xffff9
 1ee:	735f 7a69 0065      	.byte	0x5f, 0x73, 0x69, 0x7a, 0x65, 0x00
 1f4:	72617473          	csrrci	s0,0x726,2
 1f8:	0074                	addi	a3,sp,12
 1fa:	6564                	.2byte	0x6564
 1fc:	7562                	.2byte	0x7562
 1fe:	6f6d5f67          	.4byte	0x6f6d5f67
 202:	6564                	.2byte	0x6564
 204:	6d00                	.2byte	0x6d00
 206:	6961                	lui	s2,0x18
 208:	006e                	c.slli	zero,0x1b
 20a:	6461                	lui	s0,0x18
 20c:	7264                	.2byte	0x7264
 20e:	7365                	lui	t1,0xffff9
 210:	61700073          	.4byte	0x61700073
 214:	6c79                	lui	s8,0x1e
 216:	5f64616f          	jal	sp,4680c <tohost+0x26804>
 21a:	0031                	c.nop	12
 21c:	6170                	.2byte	0x6170
 21e:	6c79                	lui	s8,0x1e
 220:	5f64616f          	jal	sp,46816 <tohost+0x2680e>
 224:	0032                	c.slli	zero,0xc
 226:	6170                	.2byte	0x6170
 228:	6c79                	lui	s8,0x1e
 22a:	5f64616f          	jal	sp,46820 <tohost+0x26818>
 22e:	72610033          	.4byte	0x72610033
 232:	61006367          	.4byte	0x61006367
 236:	6772                	.2byte	0x6772
 238:	0076                	c.slli	zero,0x1d
 23a:	6975                	lui	s2,0x1d
 23c:	746e                	.2byte	0x746e
 23e:	745f3233          	.4byte	0x745f3233
 242:	7300                	.2byte	0x7300
 244:	6f625f77          	.4byte	0x6f625f77
 248:	6f6d746f          	jal	s0,d793e <tohost+0xb7936>
 24c:	6564                	.2byte	0x6564
 24e:	4600                	lw	s0,8(a2)
 250:	414c                	lw	a1,4(a0)
 252:	415f4853          	.4byte	0x415f4853
 256:	534c                	lw	a1,36(a4)
 258:	5141                	li	sp,-16
 25a:	5f52                	lw	t5,52(sp)
 25c:	4f42                	lw	t5,16(sp)
 25e:	535f544f          	.4byte	0x535f544f
 262:	4749                	li	a4,18
 264:	454e                	lw	a0,208(sp)
 266:	0044                	addi	s1,sp,4
 268:	7263732f          	.4byte	0x7263732f
 26c:	7461                	lui	s0,0xffff8
 26e:	2f326863          	bltu	tp,s3,55e <_min_stack-0x1aa2>
 272:	636d                	lui	t1,0x1b
 274:	6169                	addi	sp,sp,208
 276:	696e                	.2byte	0x696e
 278:	736c612f          	.4byte	0x736c612f
 27c:	7161                	addi	sp,sp,-432
 27e:	2d72                	.2byte	0x2d72
 280:	2f32                	.2byte	0x2f32
 282:	6e65706f          	j	57968 <tohost+0x37960>
 286:	6974                	.2byte	0x6974
 288:	6174                	.2byte	0x6174
 28a:	2f6e                	.2byte	0x2f6e
 28c:	742f7773          	csrrci	a4,0x742,30
 290:	7365                	lui	t1,0xffff9
 292:	7374                	.2byte	0x7374
 294:	6d6f632f          	.4byte	0x6d6f632f
 298:	6f6d                	lui	t5,0x1b
 29a:	2f6e                	.2byte	0x2f6e
 29c:	30747263          	bgeu	s0,t2,5a0 <_min_stack-0x1a60>
 2a0:	532e                	lw	t1,232(sp)
 2a2:	2f00                	.2byte	0x2f00
 2a4:	61726373          	csrrsi	t1,0x617,4
 2a8:	6374                	.2byte	0x6374
 2aa:	3268                	.2byte	0x3268
 2ac:	69636d2f          	.4byte	0x69636d2f
 2b0:	6e61                	lui	t3,0x18
 2b2:	2f69                	jal	a4c <_min_stack-0x15b4>
 2b4:	6c61                	lui	s8,0x18
 2b6:	72716173          	csrrsi	sp,0x727,2
 2ba:	322d                	jal	fffffbe4 <fromhost+0x1ffefbd4>
 2bc:	65706f2f          	.4byte	0x65706f2f
 2c0:	746e                	.2byte	0x746e
 2c2:	7469                	lui	s0,0xffffa
 2c4:	6e61                	lui	t3,0x18
 2c6:	2f77732f          	.4byte	0x2f77732f
 2ca:	6574                	.2byte	0x6574
 2cc:	2f737473          	csrrci	s0,0x2f7,6
 2d0:	6c61                	lui	s8,0x18
 2d2:	72716173          	csrrsi	sp,0x727,2
 2d6:	616c662f          	.4byte	0x616c662f
 2da:	615f6873          	csrrsi	a6,0x615,30
 2de:	736c                	.2byte	0x736c
 2e0:	7161                	addi	sp,sp,-432
 2e2:	5f72                	lw	t5,60(sp)
 2e4:	6f62                	.2byte	0x6f62
 2e6:	705f746f          	jal	s0,f81ea <tohost+0xd81e2>
 2ea:	6572                	.2byte	0x6572
 2ec:	6f6c                	.2byte	0x6f6c
 2ee:	6461                	lui	s0,0x18
 2f0:	4700                	lw	s0,8(a4)
 2f2:	554e                	lw	a0,240(sp)
 2f4:	4120                	lw	s0,64(a0)
 2f6:	2e322053          	.4byte	0x2e322053
 2fa:	33 38 00            	Address 0x00000000000002fa is out of bounds.


Disassembly of section .debug_line_str:

00000000 <.debug_line_str>:
   0:	7263732f          	.4byte	0x7263732f
   4:	7461                	lui	s0,0xffff8
   6:	2f326863          	bltu	tp,s3,2f6 <_min_stack-0x1d0a>
   a:	636d                	lui	t1,0x1b
   c:	6169                	addi	sp,sp,208
   e:	696e                	.2byte	0x696e
  10:	736c612f          	.4byte	0x736c612f
  14:	7161                	addi	sp,sp,-432
  16:	2d72                	.2byte	0x2d72
  18:	2f32                	.2byte	0x2f32
  1a:	6e65706f          	j	57700 <tohost+0x376f8>
  1e:	6974                	.2byte	0x6974
  20:	6174                	.2byte	0x6174
  22:	2f6e                	.2byte	0x2f6e
  24:	742f7773          	csrrci	a4,0x742,30
  28:	7365                	lui	t1,0xffff9
  2a:	7374                	.2byte	0x7374
  2c:	6d6f632f          	.4byte	0x6d6f632f
  30:	6f6d                	lui	t5,0x1b
  32:	2f6e                	.2byte	0x2f6e
  34:	7475                	lui	s0,0xffffd
  36:	6c69                	lui	s8,0x1a
  38:	00632e73          	csrrs	t3,0x6,t1
  3c:	7263732f          	.4byte	0x7263732f
  40:	7461                	lui	s0,0xffff8
  42:	2f326863          	bltu	tp,s3,332 <_min_stack-0x1cce>
  46:	636d                	lui	t1,0x1b
  48:	6169                	addi	sp,sp,208
  4a:	696e                	.2byte	0x696e
  4c:	736c612f          	.4byte	0x736c612f
  50:	7161                	addi	sp,sp,-432
  52:	2d72                	.2byte	0x2d72
  54:	2f32                	.2byte	0x2f32
  56:	6e65706f          	j	5773c <tohost+0x37734>
  5a:	6974                	.2byte	0x6974
  5c:	6174                	.2byte	0x6174
  5e:	2f6e                	.2byte	0x2f6e
  60:	742f7773          	csrrci	a4,0x742,30
  64:	7365                	lui	t1,0xffff9
  66:	7374                	.2byte	0x7374
  68:	736c612f          	.4byte	0x736c612f
  6c:	7161                	addi	sp,sp,-432
  6e:	2f72                	.2byte	0x2f72
  70:	6c66                	.2byte	0x6c66
  72:	7361                	lui	t1,0xffff8
  74:	5f68                	lw	a0,124(a4)
  76:	6c61                	lui	s8,0x18
  78:	72716173          	csrrsi	sp,0x727,2
  7c:	625f 6f6f 5f74      	.byte	0x5f, 0x62, 0x6f, 0x6f, 0x74, 0x5f
  82:	7270                	.2byte	0x7270
  84:	6c65                	lui	s8,0x19
  86:	0064616f          	jal	sp,4608c <tohost+0x26084>
  8a:	7263732f          	.4byte	0x7263732f
  8e:	7461                	lui	s0,0xffff8
  90:	2f326863          	bltu	tp,s3,380 <_min_stack-0x1c80>
  94:	636d                	lui	t1,0x1b
  96:	6169                	addi	sp,sp,208
  98:	696e                	.2byte	0x696e
  9a:	736c612f          	.4byte	0x736c612f
  9e:	7161                	addi	sp,sp,-432
  a0:	2d72                	.2byte	0x2d72
  a2:	2f32                	.2byte	0x2f32
  a4:	6e65706f          	j	5778a <tohost+0x37782>
  a8:	6974                	.2byte	0x6974
  aa:	6174                	.2byte	0x6174
  ac:	2f6e                	.2byte	0x2f6e
  ae:	742f7773          	csrrci	a4,0x742,30
  b2:	7365                	lui	t1,0xffff9
  b4:	7374                	.2byte	0x7374
  b6:	6d6f632f          	.4byte	0x6d6f632f
  ba:	6f6d                	lui	t5,0x1b
  bc:	006e                	c.slli	zero,0x1b
  be:	7273752f          	.4byte	0x7273752f
  c2:	6361702f          	.4byte	0x6361702f
  c6:	69722f6b          	.4byte	0x69722f6b
  ca:	2d766373          	csrrsi	t1,0x2d7,12
  ce:	2e31                	jal	3ea <_min_stack-0x1c16>
  d0:	2d30                	.2byte	0x2d30
  d2:	2f66676b          	.4byte	0x2f66676b
  d6:	6972                	.2byte	0x6972
  d8:	36766373          	csrrsi	t1,0x367,12
  dc:	2d34                	.2byte	0x2d34
  de:	2d636367          	.4byte	0x2d636367
  e2:	3131                	jal	fffffcee <fromhost+0x1ffefcde>
  e4:	322e                	.2byte	0x322e
  e6:	302e                	.2byte	0x302e
  e8:	62696c2f          	.4byte	0x62696c2f
  ec:	6363672f          	.4byte	0x6363672f
  f0:	7369722f          	.4byte	0x7369722f
  f4:	34367663          	bgeu	a2,gp,440 <_min_stack-0x1bc0>
  f8:	752d                	lui	a0,0xfffeb
  fa:	6b6e                	.2byte	0x6b6e
  fc:	6f6e                	.2byte	0x6f6e
  fe:	652d6e77          	.4byte	0x652d6e77
 102:	666c                	.2byte	0x666c
 104:	2e31312f          	.4byte	0x2e31312f
 108:	2e32                	.2byte	0x2e32
 10a:	2f30                	.2byte	0x2f30
 10c:	6e69                	lui	t3,0x1a
 10e:	64756c63          	bltu	a0,t2,766 <_min_stack-0x189a>
 112:	0065                	c.nop	25
 114:	61647473          	csrrci	s0,0x616,8
 118:	6772                	.2byte	0x6772
 11a:	682e                	.2byte	0x682e
 11c:	7300                	.2byte	0x7300
 11e:	6474                	.2byte	0x6474
 120:	6e69                	lui	t3,0x1a
 122:	2d74                	.2byte	0x2d74
 124:	2e636367          	.4byte	0x2e636367
 128:	0068                	addi	a0,sp,12
 12a:	6c66                	.2byte	0x6c66
 12c:	7361                	lui	t1,0xffff8
 12e:	5f68                	lw	a0,124(a4)
 130:	6c61                	lui	s8,0x18
 132:	72716173          	csrrsi	sp,0x727,2
 136:	625f 6f6f 5f74      	.byte	0x5f, 0x62, 0x6f, 0x6f, 0x74, 0x5f
 13c:	7270                	.2byte	0x7270
 13e:	6c65                	lui	s8,0x19
 140:	2e64616f          	jal	sp,46426 <tohost+0x2641e>
 144:	2e2e0063          	beq	t3,sp,424 <_min_stack-0x1bdc>
 148:	616c662f          	.4byte	0x616c662f
 14c:	615f6873          	csrrsi	a6,0x615,30
 150:	736c                	.2byte	0x736c
 152:	7161                	addi	sp,sp,-432
 154:	5f72                	lw	t5,60(sp)
 156:	6f62                	.2byte	0x6f62
 158:	622f746f          	jal	s0,f777a <tohost+0xd7772>
 15c:	7a61                	lui	s4,0xffff8
 15e:	6c65                	lui	s8,0x19
 160:	6f2d                	lui	t5,0xb
 162:	7475                	lui	s0,0xffffd
 164:	6600                	.2byte	0x6600
 166:	616c                	.2byte	0x616c
 168:	615f6873          	csrrsi	a6,0x615,30
 16c:	736c                	.2byte	0x736c
 16e:	7161                	addi	sp,sp,-432
 170:	5f72                	lw	t5,60(sp)
 172:	6f62                	.2byte	0x6f62
 174:	735f746f          	jal	s0,f80a8 <tohost+0xd80a0>
 178:	6769                	lui	a4,0x1a
 17a:	656e                	.2byte	0x656e
 17c:	3364                	.2byte	0x3364
 17e:	2e32                	.2byte	0x2e32
 180:	0068                	addi	a0,sp,12
 182:	30747263          	bgeu	s0,t2,486 <_min_stack-0x1b7a>
 186:	532e                	lw	t1,232(sp)
	...

Disassembly of section .comment:

00000000 <.comment>:
   0:	3a434347          	.4byte	0x3a434347
   4:	2820                	.2byte	0x2820
   6:	736f7263          	bgeu	t5,s6,72a <_min_stack-0x18d6>
   a:	6f6f7473          	csrrci	s0,0x6f6,30
   e:	2d6c                	.2byte	0x2d6c
  10:	474e                	lw	a4,208(sp)
  12:	3120                	.2byte	0x3120
  14:	322e                	.2byte	0x322e
  16:	2e35                	jal	352 <_min_stack-0x1cae>
  18:	5f30                	lw	a2,120(a4)
  1a:	6372                	.2byte	0x6372
  1c:	2931                	jal	438 <_min_stack-0x1bc8>
  1e:	3120                	.2byte	0x3120
  20:	2e31                	jal	33c <_min_stack-0x1cc4>
  22:	2e32                	.2byte	0x2e32
  24:	0030                	addi	a2,sp,8

Disassembly of section .riscv.attributes:

00000000 <.riscv.attributes>:
   0:	3e41                	jal	fffffb90 <fromhost+0x1ffefb80>
   2:	0000                	unimp
   4:	7200                	.2byte	0x7200
   6:	7369                	lui	t1,0xffffa
   8:	01007663          	bgeu	zero,a6,14 <_min_stack-0x1fec>
   c:	0034                	addi	a3,sp,8
   e:	0000                	unimp
  10:	1004                	addi	s1,sp,32
  12:	7205                	lui	tp,0xfffe1
  14:	3376                	.2byte	0x3376
  16:	6932                	.2byte	0x6932
  18:	7032                	.2byte	0x7032
  1a:	5f31                	li	t5,-20
  1c:	326d                	jal	fffff9c6 <fromhost+0x1ffef9b6>
  1e:	3070                	.2byte	0x3070
  20:	635f 7032 5f30      	.byte	0x5f, 0x63, 0x32, 0x70, 0x30, 0x5f
  26:	697a                	.2byte	0x697a
  28:	32727363          	bgeu	tp,t2,34e <_min_stack-0x1cb2>
  2c:	3070                	.2byte	0x3070
  2e:	7a5f 6669 6e65      	.byte	0x5f, 0x7a, 0x69, 0x66, 0x65, 0x6e
  34:	32696563          	bltu	s2,t1,35e <_min_stack-0x1ca2>
  38:	3070                	.2byte	0x3070
  3a:	0800                	addi	s0,sp,16
  3c:	0a01                	addi	s4,s4,0 # ffff8000 <fromhost+0x1ffe7ff0>
  3e:	0b              	Address 0x000000000000003e is out of bounds.


Disassembly of section .debug_frame:

00000000 <.debug_frame>:
   0:	000c                	.2byte	0xc
   2:	0000                	unimp
   4:	ffff                	.2byte	0xffff
   6:	ffff                	.2byte	0xffff
   8:	7c010003          	lb	zero,1984(sp)
   c:	0d01                	addi	s10,s10,0 # 19000 <_stack_len+0x11000>
   e:	0002                	c.slli64	zero
  10:	000c                	.2byte	0xc
  12:	0000                	unimp
  14:	0000                	unimp
  16:	0000                	unimp
  18:	0084                	addi	s1,sp,64
  1a:	e000                	.2byte	0xe000
  1c:	002e                	c.slli	zero,0xb
  1e:	0000                	unimp
  20:	000c                	.2byte	0xc
  22:	0000                	unimp
  24:	0000                	unimp
  26:	0000                	unimp
  28:	00b2                	slli	ra,ra,0xc
  2a:	e000                	.2byte	0xe000
  2c:	0026                	c.slli	zero,0x9
  2e:	0000                	unimp
  30:	000c                	.2byte	0xc
  32:	0000                	unimp
  34:	0000                	unimp
  36:	0000                	unimp
  38:	00d8                	addi	a4,sp,68
  3a:	e000                	.2byte	0xe000
  3c:	0012                	c.slli	zero,0x4
  3e:	0000                	unimp
  40:	000c                	.2byte	0xc
  42:	0000                	unimp
  44:	0000                	unimp
  46:	0000                	unimp
  48:	00ea                	slli	ra,ra,0x1a
  4a:	e000                	.2byte	0xe000
  4c:	0010                	.2byte	0x10
  4e:	0000                	unimp
  50:	0030                	addi	a2,sp,8
  52:	0000                	unimp
  54:	0000                	unimp
  56:	0000                	unimp
  58:	00fa                	slli	ra,ra,0x1e
  5a:	e000                	.2byte	0xe000
  5c:	00a6                	slli	ra,ra,0x9
  5e:	0000                	unimp
  60:	0e42                	slli	t3,t3,0x10
  62:	4c20                	lw	s0,88(s0)
  64:	0288                	addi	a0,sp,320
  66:	0389                	addi	t2,t2,2
  68:	0694                	addi	a3,sp,832
  6a:	0181                	addi	gp,gp,0
  6c:	0492                	slli	s1,s1,0x4
  6e:	82020593          	addi	a1,tp,-2016 # fffe0820 <fromhost+0x1ffd0810>
  72:	c10a                	sw	sp,128(sp)
  74:	c842                	sw	a6,16(sp)
  76:	c942                	sw	a6,144(sp)
  78:	d242                	sw	a6,36(sp)
  7a:	d342                	sw	a6,164(sp)
  7c:	d442                	sw	a6,40(sp)
  7e:	0e42                	slli	t3,t3,0x10
  80:	4200                	lw	s0,0(a2)
  82:	0024000b          	.4byte	0x24000b
  86:	0000                	unimp
  88:	0000                	unimp
  8a:	0000                	unimp
  8c:	01a0                	addi	s0,sp,200
  8e:	e000                	.2byte	0xe000
  90:	0102                	c.slli64	sp
  92:	0000                	unimp
  94:	0e42                	slli	t3,t3,0x10
  96:	4640                	lw	s0,12(a2)
  98:	0389                	addi	t2,t2,2
  9a:	0181                	addi	gp,gp,0
  9c:	0288                	addi	a0,sp,320
  9e:	0a58                	addi	a4,sp,276
  a0:	42c1                	li	t0,16
  a2:	42c8                	lw	a0,4(a3)
  a4:	42c9                	li	t0,18
  a6:	000e                	c.slli	zero,0x3
  a8:	0b42                	slli	s6,s6,0x10
  aa:	0000                	unimp
  ac:	000c                	.2byte	0xc
  ae:	0000                	unimp
  b0:	0000                	unimp
  b2:	0000                	unimp
  b4:	02a2                	slli	t0,t0,0x8
  b6:	e000                	.2byte	0xe000
  b8:	000e                	c.slli	zero,0x3
  ba:	0000                	unimp
  bc:	001c                	.2byte	0x1c
  be:	0000                	unimp
  c0:	0000                	unimp
  c2:	0000                	unimp
  c4:	02b0                	addi	a2,sp,328
  c6:	e000                	.2byte	0xe000
  c8:	0018                	.2byte	0x18
  ca:	0000                	unimp
  cc:	0e42                	slli	t3,t3,0x10
  ce:	4210                	lw	a2,0(a2)
  d0:	0288                	addi	a0,sp,320
  d2:	8148                	.2byte	0x8148
  d4:	4401                	li	s0,0
  d6:	44c1                	li	s1,16
  d8:	42c8                	lw	a0,4(a3)
  da:	000e                	c.slli	zero,0x3
  dc:	0040                	addi	s0,sp,4
  de:	0000                	unimp
  e0:	0000                	unimp
  e2:	0000                	unimp
  e4:	02c8                	addi	a0,sp,324
  e6:	e000                	.2byte	0xe000
  e8:	0158                	addi	a4,sp,132
  ea:	0000                	unimp
  ec:	0e42                	slli	t3,t3,0x10
  ee:	4260                	lw	s0,68(a2)
  f0:	0a88                	addi	a0,sp,336
  f2:	8954                	.2byte	0x8954
  f4:	930c920b          	.4byte	0x930c920b
  f8:	940d                	srai	s0,s0,0x23
  fa:	950e                	add	a0,a0,gp
  fc:	9710960f          	.4byte	0x9710960f
 100:	8111                	srli	a0,a0,0x4
 102:	9809                	andi	s0,s0,-30
 104:	7212                	.2byte	0x7212
 106:	c10a                	sw	sp,128(sp)
 108:	c842                	sw	a6,16(sp)
 10a:	c942                	sw	a6,144(sp)
 10c:	d242                	sw	a6,36(sp)
 10e:	d342                	sw	a6,164(sp)
 110:	d442                	sw	a6,40(sp)
 112:	d542                	sw	a6,168(sp)
 114:	d642                	sw	a6,44(sp)
 116:	d842                	sw	a6,48(sp)
 118:	d744                	sw	s1,44(a4)
 11a:	0e42                	slli	t3,t3,0x10
 11c:	4200                	lw	s0,0(a2)
 11e:	000c000b          	.4byte	0xc000b
 122:	0000                	unimp
 124:	0000                	unimp
 126:	0000                	unimp
 128:	0420                	addi	s0,sp,520
 12a:	e000                	.2byte	0xe000
 12c:	000a                	c.slli	zero,0x2
 12e:	0000                	unimp
 130:	0024                	addi	s1,sp,8
 132:	0000                	unimp
 134:	0000                	unimp
 136:	0000                	unimp
 138:	042a                	slli	s0,s0,0xa
 13a:	e000                	.2byte	0xe000
 13c:	002c                	addi	a1,sp,8
 13e:	0000                	unimp
 140:	0e42                	slli	t3,t3,0x10
 142:	4610                	lw	a2,8(a2)
 144:	0288                	addi	a0,sp,320
 146:	0389                	addi	t2,t2,2
 148:	0181                	addi	gp,gp,0
 14a:	0a54                	addi	a3,sp,276
 14c:	44c1                	li	s1,16
 14e:	42c8                	lw	a0,4(a3)
 150:	42c9                	li	t0,18
 152:	000e                	c.slli	zero,0x3
 154:	0b42                	slli	s6,s6,0x10
 156:	0000                	unimp
 158:	000c                	.2byte	0xc
 15a:	0000                	unimp
 15c:	0000                	unimp
 15e:	0000                	unimp
 160:	0456                	slli	s0,s0,0x15
 162:	e000                	.2byte	0xe000
 164:	0004                	.2byte	0x4
 166:	0000                	unimp
 168:	000c                	.2byte	0xc
 16a:	0000                	unimp
 16c:	ffff                	.2byte	0xffff
 16e:	ffff                	.2byte	0xffff
 170:	7c010003          	lb	zero,1984(sp)
 174:	0d01                	addi	s10,s10,0
 176:	0002                	c.slli64	zero
 178:	000c                	.2byte	0xc
 17a:	0000                	unimp
 17c:	0168                	addi	a0,sp,140
 17e:	0000                	unimp
 180:	04f0                	addi	a2,sp,588
 182:	e000                	.2byte	0xe000
 184:	0056                	c.slli	zero,0x15
	...
