
hmac_test.elf:     file format elf32-littleriscv
architecture: riscv:rv32, flags 0x00000112:
EXEC_P, HAS_SYMS, D_PAGED
start address 0xe0000080

Sections:
Idx Name          Size      VMA       LMA       File off  Algn
  0 .vectors      00000084  e0000000  e0000000  00001000  2**0
                  CONTENTS, ALLOC, LOAD, READONLY, CODE
  1 .text         0000073e  e0000084  e0000084  00001084  2**1
                  CONTENTS, ALLOC, LOAD, READONLY, CODE
  2 .rodata       00000148  e00007c4  e00007c4  000017c4  2**2
                  CONTENTS, ALLOC, LOAD, READONLY, DATA
  3 .data         00000010  e000090c  e000090c  0000190c  2**2
                  CONTENTS, ALLOC, LOAD, DATA
  4 .bss          00000000  e000091c  e000091c  0000191c  2**0
                  ALLOC
  5 .stack        00002000  e0008000  e0008000  00002000  2**0
                  ALLOC
  6 .debug_frame  00000394  00000000  00000000  0000191c  2**2
                  CONTENTS, READONLY, DEBUGGING
  7 .debug_info   00001217  00000000  00000000  00001cb0  2**0
                  CONTENTS, READONLY, DEBUGGING
  8 .debug_abbrev 00000546  00000000  00000000  00002ec7  2**0
                  CONTENTS, READONLY, DEBUGGING
  9 .debug_loc    00000d77  00000000  00000000  0000340d  2**0
                  CONTENTS, READONLY, DEBUGGING
 10 .debug_aranges 00000070  00000000  00000000  00004188  2**3
                  CONTENTS, READONLY, DEBUGGING
 11 .debug_ranges 00000170  00000000  00000000  000041f8  2**3
                  CONTENTS, READONLY, DEBUGGING
 12 .debug_line   00000b7f  00000000  00000000  00004368  2**0
                  CONTENTS, READONLY, DEBUGGING
 13 .debug_str    000004d2  00000000  00000000  00004ee7  2**0
                  CONTENTS, READONLY, DEBUGGING
 14 .comment      0000001a  00000000  00000000  000053b9  2**0
                  CONTENTS, READONLY
 15 .Pulp_Chip.Info 0000004e  00000000  00000000  000053d3  2**0
                  CONTENTS, READONLY

Disassembly of section .vectors:

e0000000 <_vectors_start>:
  .option norvc;
  
  .org 0x00
  .rept 10
  jal x0, default_exc_handler
  .endr
e0000000:	65a0006f          	j	e000065a <default_exc_handler>
e0000004:	6560006f          	j	e000065a <default_exc_handler>
e0000008:	6520006f          	j	e000065a <default_exc_handler>
e000000c:	64e0006f          	j	e000065a <default_exc_handler>
e0000010:	64a0006f          	j	e000065a <default_exc_handler>
e0000014:	6460006f          	j	e000065a <default_exc_handler>
e0000018:	6420006f          	j	e000065a <default_exc_handler>
e000001c:	63e0006f          	j	e000065a <default_exc_handler>
e0000020:	63a0006f          	j	e000065a <default_exc_handler>
e0000024:	6360006f          	j	e000065a <default_exc_handler>
  
  jal x0, default_exc_handler
e0000028:	6320006f          	j	e000065a <default_exc_handler>
  
  jal x0, external_irq_handler
e000002c:	4260006f          	j	e0000452 <external_irq_handler>

  .org 0x30
  .rept 18
  jal x0, default_exc_handler
  .endr
e0000030:	62a0006f          	j	e000065a <default_exc_handler>
e0000034:	6260006f          	j	e000065a <default_exc_handler>
e0000038:	6220006f          	j	e000065a <default_exc_handler>
e000003c:	61e0006f          	j	e000065a <default_exc_handler>
e0000040:	61a0006f          	j	e000065a <default_exc_handler>
e0000044:	6160006f          	j	e000065a <default_exc_handler>
e0000048:	6120006f          	j	e000065a <default_exc_handler>
e000004c:	60e0006f          	j	e000065a <default_exc_handler>
e0000050:	60a0006f          	j	e000065a <default_exc_handler>
e0000054:	6060006f          	j	e000065a <default_exc_handler>
e0000058:	6020006f          	j	e000065a <default_exc_handler>
e000005c:	5fe0006f          	j	e000065a <default_exc_handler>
e0000060:	5fa0006f          	j	e000065a <default_exc_handler>
e0000064:	5f60006f          	j	e000065a <default_exc_handler>
e0000068:	5f20006f          	j	e000065a <default_exc_handler>
e000006c:	5ee0006f          	j	e000065a <default_exc_handler>
e0000070:	5ea0006f          	j	e000065a <default_exc_handler>
e0000074:	5e60006f          	j	e000065a <default_exc_handler>
  jal x0, default_exc_handler
e0000078:	5e20006f          	j	e000065a <default_exc_handler>
  jal x0, default_exc_handler
e000007c:	5de0006f          	j	e000065a <default_exc_handler>


  // reset vector
  .org 0x80
  jal x0, reset_handler
e0000080:	5de0006f          	j	e000065e <reset_handler>

Disassembly of section .text:

e0000084 <uart_set_cfg>:
}


void uart_set_cfg(int parity, uint16_t clk_counter) {
  unsigned int i;
  *(volatile unsigned int*)(UART_REG_LCR) = 0x83; //sets 8N1 and set DLAB to 1
e0000084:	400007b7          	lui	a5,0x40000
e0000088:	08300713          	li	a4,131
e000008c:	c7d8                	sw	a4,12(a5)
  *(volatile unsigned int*)(UART_REG_DLM) = (clk_counter >> 8) & 0xFF;
e000008e:	0085d713          	srli	a4,a1,0x8
e0000092:	c3d8                	sw	a4,4(a5)
  *(volatile unsigned int*)(UART_REG_DLL) =  clk_counter       & 0xFF;
e0000094:	0ff5f593          	andi	a1,a1,255
e0000098:	c38c                	sw	a1,0(a5)
  *(volatile unsigned int*)(UART_REG_FCR) = 0xA7; //enables 16byte FIFO and clear FIFOs
e000009a:	0a700713          	li	a4,167
e000009e:	c798                	sw	a4,8(a5)
  *(volatile unsigned int*)(UART_REG_LCR) = 0x03; //sets 8N1 and set DLAB to 0
e00000a0:	470d                	li	a4,3
e00000a2:	c7d8                	sw	a4,12(a5)

  *(volatile unsigned int*)(UART_REG_IER) = ((*(volatile unsigned int*)(UART_REG_IER)) & 0xF0) | 0x02; // set IER (interrupt enable register) on UART
e00000a4:	43d8                	lw	a4,4(a5)
e00000a6:	0f077713          	andi	a4,a4,240
e00000aa:	00276713          	ori	a4,a4,2
e00000ae:	c3d8                	sw	a4,4(a5)
}
e00000b0:	8082                	ret

e00000b2 <uart_send>:

  while(len > 0) {
    // process this in batches of 16 bytes to actually use the FIFO in the UART

    // wait until there is space in the fifo
    while( (*(volatile unsigned int*)(UART_REG_LSR) & 0x20) == 0);
e00000b2:	40000737          	lui	a4,0x40000
  while(len > 0) {
e00000b6:	e191                	bnez	a1,e00000ba <uart_send+0x8>
      *(volatile unsigned int*)(UART_REG_THR) = *str++;

      len--;
    }
  }
}
e00000b8:	8082                	ret
    while( (*(volatile unsigned int*)(UART_REG_LSR) & 0x20) == 0);
e00000ba:	4b5c                	lw	a5,20(a4)
e00000bc:	0207f793          	andi	a5,a5,32
e00000c0:	dfed                	beqz	a5,e00000ba <uart_send+0x8>
e00000c2:	04050793          	addi	a5,a0,64
      *(volatile unsigned int*)(UART_REG_THR) = *str++;
e00000c6:	0505                	addi	a0,a0,1
e00000c8:	fff54683          	lbu	a3,-1(a0)
      len--;
e00000cc:	15fd                	addi	a1,a1,-1
      *(volatile unsigned int*)(UART_REG_THR) = *str++;
e00000ce:	c314                	sw	a3,0(a4)
    for(i = 0; (i < UART_FIFO_DEPTH) && (len > 0); i++) {
e00000d0:	fef503e3          	beq	a0,a5,e00000b6 <uart_send+0x4>
e00000d4:	f9ed                	bnez	a1,e00000c6 <uart_send+0x14>
e00000d6:	8082                	ret

e00000d8 <uart_getchar>:

char uart_getchar() {
  while((*((volatile int*)UART_REG_LSR) & 0x1) != 0x1);
e00000d8:	40000737          	lui	a4,0x40000
e00000dc:	4b5c                	lw	a5,20(a4)
e00000de:	8b85                	andi	a5,a5,1
e00000e0:	dff5                	beqz	a5,e00000dc <uart_getchar+0x4>

  return *(volatile int*)UART_REG_RBR;
e00000e2:	4308                	lw	a0,0(a4)
}
e00000e4:	0ff57513          	andi	a0,a0,255
e00000e8:	8082                	ret

e00000ea <uart_sendchar>:

void uart_sendchar(const char c) {
  // wait until there is space in the fifo
  while( (*(volatile unsigned int*)(UART_REG_LSR) & 0x20) == 0);
e00000ea:	40000737          	lui	a4,0x40000
e00000ee:	4b5c                	lw	a5,20(a4)
e00000f0:	0207f793          	andi	a5,a5,32
e00000f4:	dfed                	beqz	a5,e00000ee <uart_sendchar+0x4>

  // load FIFO
  *(volatile unsigned int*)(UART_REG_THR) = c;
e00000f6:	c308                	sw	a0,0(a4)
}
e00000f8:	8082                	ret

e00000fa <qprints.constprop.2>:
  }
  else
    putchar((char)c);
}

static int qprints(char **out, const char *string, int width, int pad)
e00000fa:	1101                	addi	sp,sp,-32
e00000fc:	cc22                	sw	s0,24(sp)
e00000fe:	ca26                	sw	s1,20(sp)
e0000100:	c84a                	sw	s2,16(sp)
e0000102:	ce06                	sw	ra,28(sp)
e0000104:	c64e                	sw	s3,12(sp)
e0000106:	c452                	sw	s4,8(sp)
e0000108:	84aa                	mv	s1,a0
e000010a:	842e                	mv	s0,a1
{
  register int pc = 0, padchar = ' ';
e000010c:	02000913          	li	s2,32

  if (width > 0) {
e0000110:	02b05463          	blez	a1,e0000138 <qprints.constprop.2+0x3e>
e0000114:	87aa                	mv	a5,a0
e0000116:	a011                	j	e000011a <qprints.constprop.2+0x20>
    register int len = 0;
    register const char *ptr;
    for (ptr = string; *ptr; ++ptr) ++len;
e0000118:	0785                	addi	a5,a5,1
e000011a:	0007c683          	lbu	a3,0(a5) # 40000000 <tohost+0x3ffdfff8>
e000011e:	40978733          	sub	a4,a5,s1
e0000122:	fafd                	bnez	a3,e0000118 <qprints.constprop.2+0x1e>
    if (len >= width) width = 0;
e0000124:	04875663          	ble	s0,a4,e0000170 <qprints.constprop.2+0x76>
    else width -= len;
e0000128:	8c19                	sub	s0,s0,a4
    if (pad & PAD_ZERO) padchar = '0';
e000012a:	00267793          	andi	a5,a2,2
  register int pc = 0, padchar = ' ';
e000012e:	02000913          	li	s2,32
    if (pad & PAD_ZERO) padchar = '0';
e0000132:	c399                	beqz	a5,e0000138 <qprints.constprop.2+0x3e>
e0000134:	03000913          	li	s2,48
  }
  if (!(pad & PAD_RIGHT)) {
e0000138:	8a05                	andi	a2,a2,1
e000013a:	ca21                	beqz	a2,e000018a <qprints.constprop.2+0x90>
  register int pc = 0, padchar = ' ';
e000013c:	4781                	li	a5,0
e000013e:	409789b3          	sub	s3,a5,s1
    for ( ; width > 0; --width) {
      qprintchar (out, padchar);
      ++pc;
    }
  }
  for ( ; *string ; ++string) {
e0000142:	0004c503          	lbu	a0,0(s1)
e0000146:	01348a33          	add	s4,s1,s3
e000014a:	e521                	bnez	a0,e0000192 <qprints.constprop.2+0x98>
e000014c:	84a2                	mv	s1,s0
  uart_sendchar(s);
e000014e:	0ff97913          	andi	s2,s2,255
    qprintchar (out, *string);
    ++pc;
  }
  for ( ; width > 0; --width) {
e0000152:	04904363          	bgtz	s1,e0000198 <qprints.constprop.2+0x9e>
    qprintchar (out, padchar);
    ++pc;
  }

  return pc;
e0000156:	00045363          	bgez	s0,e000015c <qprints.constprop.2+0x62>
e000015a:	4401                	li	s0,0
}
e000015c:	01440533          	add	a0,s0,s4
e0000160:	40f2                	lw	ra,28(sp)
e0000162:	4462                	lw	s0,24(sp)
e0000164:	44d2                	lw	s1,20(sp)
e0000166:	4942                	lw	s2,16(sp)
e0000168:	49b2                	lw	s3,12(sp)
e000016a:	4a22                	lw	s4,8(sp)
e000016c:	6105                	addi	sp,sp,32
e000016e:	8082                	ret
    if (len >= width) width = 0;
e0000170:	4401                	li	s0,0
e0000172:	bf65                	j	e000012a <qprints.constprop.2+0x30>
  uart_sendchar(s);
e0000174:	8552                	mv	a0,s4
e0000176:	3f95                	jal	e00000ea <uart_sendchar>
    for ( ; width > 0; --width) {
e0000178:	19fd                	addi	s3,s3,-1
e000017a:	ff304de3          	bgtz	s3,e0000174 <qprints.constprop.2+0x7a>
e000017e:	87a2                	mv	a5,s0
e0000180:	00045363          	bgez	s0,e0000186 <qprints.constprop.2+0x8c>
e0000184:	4781                	li	a5,0
e0000186:	8c1d                	sub	s0,s0,a5
e0000188:	bf5d                	j	e000013e <qprints.constprop.2+0x44>
  if (!(pad & PAD_RIGHT)) {
e000018a:	89a2                	mv	s3,s0
  uart_sendchar(s);
e000018c:	0ff97a13          	andi	s4,s2,255
e0000190:	b7ed                	j	e000017a <qprints.constprop.2+0x80>
e0000192:	3fa1                	jal	e00000ea <uart_sendchar>
  for ( ; *string ; ++string) {
e0000194:	0485                	addi	s1,s1,1
e0000196:	b775                	j	e0000142 <qprints.constprop.2+0x48>
  uart_sendchar(s);
e0000198:	854a                	mv	a0,s2
e000019a:	3f81                	jal	e00000ea <uart_sendchar>
  for ( ; width > 0; --width) {
e000019c:	14fd                	addi	s1,s1,-1
e000019e:	bf55                	j	e0000152 <qprints.constprop.2+0x58>

e00001a0 <qprinti.constprop.1>:

static int qprinti(char **out, int i, int b, int sg, int width, int pad, char letbase)
e00001a0:	7139                	addi	sp,sp,-64
e00001a2:	da26                	sw	s1,52(sp)
e00001a4:	de06                	sw	ra,60(sp)
e00001a6:	dc22                	sw	s0,56(sp)
e00001a8:	84b2                	mv	s1,a2
e00001aa:	863a                	mv	a2,a4
  char print_buf[PRINT_BUF_LEN];
  register char *s;
  register int neg = 0, pc = 0;
  unsigned int t,u = i;

  if (i == 0)
e00001ac:	ed09                	bnez	a0,e00001c6 <qprinti.constprop.1+0x26>
  {
    print_buf[0] = '0';
e00001ae:	03000793          	li	a5,48
    print_buf[1] = '\0';
    return qprints (out, print_buf, width, pad);
e00001b2:	85b6                	mv	a1,a3
e00001b4:	0808                	addi	a0,sp,16
    print_buf[0] = '0';
e00001b6:	00f11823          	sh	a5,16(sp)
    return qprints (out, print_buf, width, pad);
e00001ba:	3781                	jal	e00000fa <qprints.constprop.2>
    {
      *--s = '-';
    }
  }
  return pc + qprints (out, s, width, pad);
}
e00001bc:	50f2                	lw	ra,60(sp)
e00001be:	5462                	lw	s0,56(sp)
e00001c0:	54d2                	lw	s1,52(sp)
e00001c2:	6121                	addi	sp,sp,64
e00001c4:	8082                	ret
  if (sg && b == 10 && i < 0)
e00001c6:	c881                	beqz	s1,e00001d6 <qprinti.constprop.1+0x36>
e00001c8:	4729                	li	a4,10
e00001ca:	06e59d63          	bne	a1,a4,e0000244 <qprinti.constprop.1+0xa4>
e00001ce:	06055b63          	bgez	a0,e0000244 <qprinti.constprop.1+0xa4>
    u = -i;
e00001d2:	40a00533          	neg	a0,a0
  *s = '\0';
e00001d6:	020107a3          	sb	zero,47(sp)
  if(b == 16) {
e00001da:	4741                	li	a4,16
  s = print_buf + PRINT_BUF_LEN-1;
e00001dc:	02f10413          	addi	s0,sp,47
  if(b == 16) {
e00001e0:	0ae58263          	beq	a1,a4,e0000284 <qprinti.constprop.1+0xe4>
  n = (0x19999999 * n + (n >> 1) + (n >> 3)) >> 28;
e00001e4:	1999a737          	lui	a4,0x1999a
  return remu10_table[n];
e00001e8:	00000317          	auipc	t1,0x0
e00001ec:	72430313          	addi	t1,t1,1828 # e000090c <remu10_table>
  n = (0x19999999 * n + (n >> 1) + (n >> 3)) >> 28;
e00001f0:	99970713          	addi	a4,a4,-1639 # 19999999 <tohost+0x19979991>
  r = n - q * 10;
e00001f4:	4e29                	li	t3,10
    while (u) {
e00001f6:	c52d                	beqz	a0,e0000260 <qprinti.constprop.1+0xc0>
  n = (0x19999999 * n + (n >> 1) + (n >> 3)) >> 28;
e00001f8:	02e50833          	mul	a6,a0,a4
e00001fc:	00155893          	srli	a7,a0,0x1
e0000200:	00355793          	srli	a5,a0,0x3
      *--s = remu10(u) + '0';
e0000204:	147d                	addi	s0,s0,-1
  n = (0x19999999 * n + (n >> 1) + (n >> 3)) >> 28;
e0000206:	9846                	add	a6,a6,a7
e0000208:	983e                	add	a6,a6,a5
e000020a:	01c85813          	srli	a6,a6,0x1c
  return remu10_table[n];
e000020e:	981a                	add	a6,a6,t1
      *--s = remu10(u) + '0';
e0000210:	00084583          	lbu	a1,0(a6)
  q = (n >> 1) + (n >> 2);
e0000214:	00255793          	srli	a5,a0,0x2
e0000218:	97c6                	add	a5,a5,a7
      *--s = remu10(u) + '0';
e000021a:	03058593          	addi	a1,a1,48
e000021e:	00b40023          	sb	a1,0(s0)
  q = q + (q >> 4);
e0000222:	0047d593          	srli	a1,a5,0x4
e0000226:	97ae                	add	a5,a5,a1
  q = q + (q >> 8);
e0000228:	0087d593          	srli	a1,a5,0x8
e000022c:	97ae                	add	a5,a5,a1
  q = q + (q >> 16);
e000022e:	0107d593          	srli	a1,a5,0x10
e0000232:	97ae                	add	a5,a5,a1
  q = q >> 3;
e0000234:	838d                	srli	a5,a5,0x3
  r = n - q * 10;
e0000236:	03c785b3          	mul	a1,a5,t3
  return q + ((r + 6) >> 4);
e000023a:	0519                	addi	a0,a0,6
e000023c:	8d0d                	sub	a0,a0,a1
e000023e:	8111                	srli	a0,a0,0x4
e0000240:	953e                	add	a0,a0,a5
e0000242:	bf55                	j	e00001f6 <qprinti.constprop.1+0x56>
  register int neg = 0, pc = 0;
e0000244:	4481                	li	s1,0
e0000246:	bf41                	j	e00001d6 <qprinti.constprop.1+0x36>
      int t = u & 0xF;
e0000248:	00f57813          	andi	a6,a0,15
      if (t >= 10)
e000024c:	01075363          	ble	a6,a4,e0000252 <qprinti.constprop.1+0xb2>
        t += letbase - '0' - 10;
e0000250:	983e                	add	a6,a6,a5
      *--s = t + '0';
e0000252:	147d                	addi	s0,s0,-1
e0000254:	03080813          	addi	a6,a6,48
e0000258:	01040023          	sb	a6,0(s0)
      u >>= 4;
e000025c:	8111                	srli	a0,a0,0x4
    while (u) {
e000025e:	f56d                	bnez	a0,e0000248 <qprinti.constprop.1+0xa8>
  if (neg) {
e0000260:	cc89                	beqz	s1,e000027a <qprinti.constprop.1+0xda>
    if( width && (pad & PAD_ZERO) )
e0000262:	c68d                	beqz	a3,e000028c <qprinti.constprop.1+0xec>
e0000264:	00267793          	andi	a5,a2,2
e0000268:	c395                	beqz	a5,e000028c <qprinti.constprop.1+0xec>
  uart_sendchar(s);
e000026a:	02d00513          	li	a0,45
e000026e:	c432                	sw	a2,8(sp)
e0000270:	c636                	sw	a3,12(sp)
e0000272:	3da5                	jal	e00000ea <uart_sendchar>
      --width;
e0000274:	46b2                	lw	a3,12(sp)
e0000276:	4622                	lw	a2,8(sp)
e0000278:	16fd                	addi	a3,a3,-1
  return pc + qprints (out, s, width, pad);
e000027a:	85b6                	mv	a1,a3
e000027c:	8522                	mv	a0,s0
e000027e:	3db5                	jal	e00000fa <qprints.constprop.2>
e0000280:	9526                	add	a0,a0,s1
e0000282:	bf2d                	j	e00001bc <qprinti.constprop.1+0x1c>
      if (t >= 10)
e0000284:	4725                	li	a4,9
        t += letbase - '0' - 10;
e0000286:	fc678793          	addi	a5,a5,-58
e000028a:	bfd1                	j	e000025e <qprinti.constprop.1+0xbe>
      *--s = '-';
e000028c:	02d00793          	li	a5,45
e0000290:	fef40fa3          	sb	a5,-1(s0)
  register int neg = 0, pc = 0;
e0000294:	4481                	li	s1,0
      *--s = '-';
e0000296:	147d                	addi	s0,s0,-1
e0000298:	b7cd                	j	e000027a <qprinti.constprop.1+0xda>

e000029a <uart_wait_tx_done>:
  while( (*(volatile unsigned int*)(UART_REG_LSR) & 0x40) == 0);
e000029a:	40000737          	lui	a4,0x40000
e000029e:	4b5c                	lw	a5,20(a4)
e00002a0:	0407f793          	andi	a5,a5,64
e00002a4:	dfed                	beqz	a5,e000029e <uart_wait_tx_done+0x4>
}
e00002a6:	8082                	ret

e00002a8 <putchar>:
{
e00002a8:	1141                	addi	sp,sp,-16
e00002aa:	c422                	sw	s0,8(sp)
e00002ac:	842a                	mv	s0,a0
  uart_sendchar(s);
e00002ae:	0ff57513          	andi	a0,a0,255
{
e00002b2:	c606                	sw	ra,12(sp)
  uart_sendchar(s);
e00002b4:	3d1d                	jal	e00000ea <uart_sendchar>
}
e00002b6:	8522                	mv	a0,s0
e00002b8:	40b2                	lw	ra,12(sp)
e00002ba:	4422                	lw	s0,8(sp)
e00002bc:	0141                	addi	sp,sp,16
e00002be:	8082                	ret

e00002c0 <printf>:

  return pc;
}

int printf(const char *format, ...)
{
e00002c0:	711d                	addi	sp,sp,-96
e00002c2:	dc22                	sw	s0,56(sp)
  int pc;
  va_list va;

  va_start(va, format);
e00002c4:	00c0                	addi	s0,sp,68
{
e00002c6:	da26                	sw	s1,52(sp)
e00002c8:	d84a                	sw	s2,48(sp)
e00002ca:	d64e                	sw	s3,44(sp)
e00002cc:	d452                	sw	s4,40(sp)
e00002ce:	d256                	sw	s5,36(sp)
e00002d0:	d05a                	sw	s6,32(sp)
e00002d2:	ce5e                	sw	s7,28(sp)
e00002d4:	de06                	sw	ra,60(sp)
e00002d6:	cc62                	sw	s8,24(sp)
e00002d8:	8baa                	mv	s7,a0
e00002da:	c2ae                	sw	a1,68(sp)
e00002dc:	c4b2                	sw	a2,72(sp)
e00002de:	c6b6                	sw	a3,76(sp)
e00002e0:	c8ba                	sw	a4,80(sp)
e00002e2:	cabe                	sw	a5,84(sp)
e00002e4:	ccc2                	sw	a6,88(sp)
e00002e6:	cec6                	sw	a7,92(sp)
  va_start(va, format);
e00002e8:	c622                	sw	s0,12(sp)
  register int pc = 0;
e00002ea:	4b01                	li	s6,0
    if (*format == '%')
e00002ec:	02500493          	li	s1,37
      if (*format == '-')
e00002f0:	02d00913          	li	s2,45
      while (*format == '0')
e00002f4:	03000993          	li	s3,48
        width *= 10;
e00002f8:	4a29                	li	s4,10
        pc += qprints (out, s?s:"(null)", width, pad);
e00002fa:	00000a97          	auipc	s5,0x0
e00002fe:	4caa8a93          	addi	s5,s5,1226 # e00007c4 <main+0xee>
  for (; *format != 0; ++format)
e0000302:	000bc783          	lbu	a5,0(s7)
e0000306:	ef91                	bnez	a5,e0000322 <printf+0x62>

  va_end(va);

  return pc;

}
e0000308:	50f2                	lw	ra,60(sp)
e000030a:	5462                	lw	s0,56(sp)
e000030c:	855a                	mv	a0,s6
e000030e:	54d2                	lw	s1,52(sp)
e0000310:	5942                	lw	s2,48(sp)
e0000312:	59b2                	lw	s3,44(sp)
e0000314:	5a22                	lw	s4,40(sp)
e0000316:	5a92                	lw	s5,36(sp)
e0000318:	5b02                	lw	s6,32(sp)
e000031a:	4bf2                	lw	s7,28(sp)
e000031c:	4c62                	lw	s8,24(sp)
e000031e:	6125                	addi	sp,sp,96
e0000320:	8082                	ret
    if (*format == '%')
e0000322:	0e979663          	bne	a5,s1,e000040e <printf+0x14e>
      if (*format == '\0') break;
e0000326:	001bc683          	lbu	a3,1(s7)
e000032a:	def9                	beqz	a3,e0000308 <printf+0x48>
e000032c:	001b8793          	addi	a5,s7,1
      if (*format == '%') goto out;
e0000330:	0c968e63          	beq	a3,s1,e000040c <printf+0x14c>
      width = pad = 0;
e0000334:	4701                	li	a4,0
      if (*format == '-')
e0000336:	01269563          	bne	a3,s2,e0000340 <printf+0x80>
        ++format;
e000033a:	002b8793          	addi	a5,s7,2
        pad = PAD_RIGHT;
e000033e:	4705                	li	a4,1
e0000340:	8bbe                	mv	s7,a5
      while (*format == '0')
e0000342:	000bc783          	lbu	a5,0(s7)
e0000346:	001b8693          	addi	a3,s7,1
e000034a:	03378b63          	beq	a5,s3,e0000380 <printf+0xc0>
      width = pad = 0;
e000034e:	4681                	li	a3,0
      for ( ; *format >= '0' && *format <= '9'; ++format) {
e0000350:	4525                	li	a0,9
e0000352:	000bc783          	lbu	a5,0(s7)
e0000356:	001b8813          	addi	a6,s7,1
e000035a:	fd078613          	addi	a2,a5,-48
e000035e:	0ff67593          	andi	a1,a2,255
e0000362:	02b57363          	bleu	a1,a0,e0000388 <printf+0xc8>
      if( *format == 's' ) {
e0000366:	07300613          	li	a2,115
e000036a:	02c79463          	bne	a5,a2,e0000392 <printf+0xd2>
        register char *s = va_arg(va, char*);
e000036e:	4008                	lw	a0,0(s0)
e0000370:	00440c13          	addi	s8,s0,4
        pc += qprints (out, s?s:"(null)", width, pad);
e0000374:	e111                	bnez	a0,e0000378 <printf+0xb8>
e0000376:	8556                	mv	a0,s5
e0000378:	863a                	mv	a2,a4
e000037a:	85b6                	mv	a1,a3
        pc += qprints (out, scr, width, pad);
e000037c:	3bbd                	jal	e00000fa <qprints.constprop.2>
e000037e:	a035                	j	e00003aa <printf+0xea>
        pad |= PAD_ZERO;
e0000380:	00276713          	ori	a4,a4,2
        ++format;
e0000384:	8bb6                	mv	s7,a3
e0000386:	bf75                	j	e0000342 <printf+0x82>
        width *= 10;
e0000388:	034686b3          	mul	a3,a3,s4
      for ( ; *format >= '0' && *format <= '9'; ++format) {
e000038c:	8bc2                	mv	s7,a6
        width += *format - '0';
e000038e:	96b2                	add	a3,a3,a2
e0000390:	b7c9                	j	e0000352 <printf+0x92>
      if( *format == 'd' ) {
e0000392:	06400613          	li	a2,100
e0000396:	00c79e63          	bne	a5,a2,e00003b2 <printf+0xf2>
        pc += qprinti (out, va_arg(va, int), 10, 1, width, pad, 'a');
e000039a:	00440c13          	addi	s8,s0,4
e000039e:	06100793          	li	a5,97
e00003a2:	4605                	li	a2,1
e00003a4:	45a9                	li	a1,10
e00003a6:	4008                	lw	a0,0(s0)
e00003a8:	3be5                	jal	e00001a0 <qprinti.constprop.1>
e00003aa:	9b2a                	add	s6,s6,a0
e00003ac:	8462                	mv	s0,s8
  for (; *format != 0; ++format)
e00003ae:	0b85                	addi	s7,s7,1
e00003b0:	bf89                	j	e0000302 <printf+0x42>
      if( *format == 'u' ) {
e00003b2:	07500613          	li	a2,117
e00003b6:	00c79863          	bne	a5,a2,e00003c6 <printf+0x106>
        pc += qprinti (out, va_arg(va, unsigned int), 10, 0, width, pad, 'a');
e00003ba:	00440c13          	addi	s8,s0,4
e00003be:	06100793          	li	a5,97
e00003c2:	4601                	li	a2,0
e00003c4:	b7c5                	j	e00003a4 <printf+0xe4>
      if( *format == 'x' ) {
e00003c6:	07800613          	li	a2,120
e00003ca:	00c79963          	bne	a5,a2,e00003dc <printf+0x11c>
        pc += qprinti (out, va_arg(va, uint32_t), 16, 0, width, pad, 'a');
e00003ce:	00440c13          	addi	s8,s0,4
e00003d2:	06100793          	li	a5,97
        pc += qprinti (out, va_arg(va, uint32_t), 16, 0, width, pad, 'A');
e00003d6:	4601                	li	a2,0
e00003d8:	45c1                	li	a1,16
e00003da:	b7f1                	j	e00003a6 <printf+0xe6>
      if( *format == 'X' ) {
e00003dc:	05800613          	li	a2,88
e00003e0:	00c79763          	bne	a5,a2,e00003ee <printf+0x12e>
        pc += qprinti (out, va_arg(va, uint32_t), 16, 0, width, pad, 'A');
e00003e4:	00440c13          	addi	s8,s0,4
e00003e8:	04100793          	li	a5,65
e00003ec:	b7ed                	j	e00003d6 <printf+0x116>
      if( *format == 'c' ) {
e00003ee:	06300613          	li	a2,99
e00003f2:	fac79ee3          	bne	a5,a2,e00003ae <printf+0xee>
        scr[0] = va_arg(va, int);
e00003f6:	401c                	lw	a5,0(s0)
e00003f8:	00440c13          	addi	s8,s0,4
        scr[1] = '\0';
e00003fc:	000104a3          	sb	zero,9(sp)
        scr[0] = va_arg(va, int);
e0000400:	00f10423          	sb	a5,8(sp)
        pc += qprints (out, scr, width, pad);
e0000404:	863a                	mv	a2,a4
e0000406:	85b6                	mv	a1,a3
e0000408:	0028                	addi	a0,sp,8
e000040a:	bf8d                	j	e000037c <printf+0xbc>
      ++format;
e000040c:	8bbe                	mv	s7,a5
  uart_sendchar(s);
e000040e:	000bc503          	lbu	a0,0(s7)
      ++pc;
e0000412:	0b05                	addi	s6,s6,1
  uart_sendchar(s);
e0000414:	39d9                	jal	e00000ea <uart_sendchar>
e0000416:	bf61                	j	e00003ae <printf+0xee>

e0000418 <simple_exc_handler>:
  printf("EXCEPTION!!!\r\n");
e0000418:	00000517          	auipc	a0,0x0
e000041c:	3b450513          	addi	a0,a0,948 # e00007cc <main+0xf6>
e0000420:	b545                	j	e00002c0 <printf>

e0000422 <puts>:

int puts(const char *s)
{
e0000422:	1141                	addi	sp,sp,-16
e0000424:	c422                	sw	s0,8(sp)
e0000426:	c226                	sw	s1,4(sp)
e0000428:	c606                	sw	ra,12(sp)
e000042a:	c04a                	sw	s2,0(sp)
e000042c:	84aa                	mv	s1,a0
  int i=0;

  while(s[i] != '\0')
e000042e:	842a                	mv	s0,a0
e0000430:	40940933          	sub	s2,s0,s1
e0000434:	0405                	addi	s0,s0,1
e0000436:	fff44503          	lbu	a0,-1(s0)
e000043a:	e911                	bnez	a0,e000044e <puts+0x2c>
  uart_sendchar(s);
e000043c:	4529                	li	a0,10
e000043e:	3175                	jal	e00000ea <uart_sendchar>
    putchar(s[i++]);

  putchar('\n');

  return i;
}
e0000440:	40b2                	lw	ra,12(sp)
e0000442:	4422                	lw	s0,8(sp)
e0000444:	854a                	mv	a0,s2
e0000446:	4492                	lw	s1,4(sp)
e0000448:	4902                	lw	s2,0(sp)
e000044a:	0141                	addi	sp,sp,16
e000044c:	8082                	ret
  uart_sendchar(s);
e000044e:	3971                	jal	e00000ea <uart_sendchar>
e0000450:	b7c5                	j	e0000430 <puts+0xe>

e0000452 <external_irq_handler>:

void external_irq_handler(void)  {
e0000452:	1101                	addi	sp,sp,-32
e0000454:	c63a                	sw	a4,12(sp)
e0000456:	c43e                	sw	a5,8(sp)
e0000458:	ce2a                	sw	a0,28(sp)
e000045a:	cc2e                	sw	a1,24(sp)
e000045c:	ca32                	sw	a2,20(sp)
e000045e:	c836                	sw	a3,16(sp)
e0000460:	c242                	sw	a6,4(sp)
  p_reg5 = (int *) 0x1040401C;

  // start of """Interrupt Service Routine"""
  
  plic_check = (int *) 0xC8200004;
  while(*plic_check != mbox_id);   //check wether the intr is the correct one
e0000462:	c82007b7          	lui	a5,0xc8200
e0000466:	09f00713          	li	a4,159
e000046a:	43d0                	lw	a2,4(a5)
e000046c:	00478693          	addi	a3,a5,4 # c8200004 <pulp__FC+0xc8200005>
e0000470:	fee61de3          	bne	a2,a4,e000046a <external_irq_handler+0x18>
  
  p_reg = (int *) 0x10404020;
 *p_reg = 0x00000000;        //clearing the pending interrupt signal
e0000474:	104047b7          	lui	a5,0x10404
e0000478:	0207a023          	sw	zero,32(a5) # 10404020 <tohost+0x103e4018>
 
 *plic_check = mbox_id;      //completing interrupt
e000047c:	c298                	sw	a4,0(a3)
 
  a = *p_reg1;
e000047e:	4788                	lw	a0,8(a5)
  c = *p_reg3;
  d = *p_reg4;
  e = *p_reg5;
  
  
  if( a == 0xBAADC0DE &&  b == 0xBAADC0DE && c == 0xBAADC0DE && d == 0xBAADC0DE && e == 0xBAADC0DE){
e0000480:	baadc737          	lui	a4,0xbaadc
  b = *p_reg2;
e0000484:	4b8c                	lw	a1,16(a5)
  c = *p_reg3;
e0000486:	4bd0                	lw	a2,20(a5)
  d = *p_reg4;
e0000488:	4f94                	lw	a3,24(a5)
  e = *p_reg5;
e000048a:	01c7a803          	lw	a6,28(a5)
  if( a == 0xBAADC0DE &&  b == 0xBAADC0DE && c == 0xBAADC0DE && d == 0xBAADC0DE && e == 0xBAADC0DE){
e000048e:	0de70713          	addi	a4,a4,222 # baadc0de <pulp__FC+0xbaadc0df>
e0000492:	00e51c63          	bne	a0,a4,e00004aa <external_irq_handler+0x58>
e0000496:	00a59a63          	bne	a1,a0,e00004aa <external_irq_handler+0x58>
e000049a:	00b61863          	bne	a2,a1,e00004aa <external_irq_handler+0x58>
e000049e:	00c69663          	bne	a3,a2,e00004aa <external_irq_handler+0x58>
e00004a2:	00d81463          	bne	a6,a3,e00004aa <external_irq_handler+0x58>
      p_reg = (int *) 0x10404024; // completion interrupt to ariane agent
     *p_reg = 0x00000001;
e00004a6:	4705                	li	a4,1
e00004a8:	d3d8                	sw	a4,36(a5)
  }
  
  return;
}
e00004aa:	4572                	lw	a0,28(sp)
e00004ac:	45e2                	lw	a1,24(sp)
e00004ae:	4652                	lw	a2,20(sp)
e00004b0:	46c2                	lw	a3,16(sp)
e00004b2:	4732                	lw	a4,12(sp)
e00004b4:	47a2                	lw	a5,8(sp)
e00004b6:	4812                	lw	a6,4(sp)
e00004b8:	6105                	addi	sp,sp,32
e00004ba:	30200073          	mret

e00004be <hmac_init>:

   int volatile * hmac;
   
   // shodow register setup: manual mode
   hmac = (int *) 0xc1110010;
  *hmac = 0x3;
e00004be:	c11107b7          	lui	a5,0xc1110
e00004c2:	470d                	li	a4,3
e00004c4:	cb98                	sw	a4,16(a5)

   hmac = (int *) 0xc1110014;
  *hmac = 0x1;
e00004c6:	4705                	li	a4,1
e00004c8:	cbd8                	sw	a4,20(a5)

   return true;
}
e00004ca:	4505                	li	a0,1
e00004cc:	8082                	ret

e00004ce <hmac_write_key>:
   int volatile * hmac;
   int a=0;

   // writing crypto key
   hmac = (int *) 0xc1110024;
  *hmac = 0x94823467;
e00004ce:	948237b7          	lui	a5,0x94823
e00004d2:	c1110737          	lui	a4,0xc1110
e00004d6:	46778793          	addi	a5,a5,1127 # 94823467 <pulp__FC+0x94823468>
e00004da:	d35c                	sw	a5,36(a4)

   hmac = (int *) 0xc1110028;
  *hmac = 0x94823467;
e00004dc:	d71c                	sw	a5,40(a4)

   hmac = (int *) 0xc111002C;
  *hmac = 0x94823467;
e00004de:	d75c                	sw	a5,44(a4)

   hmac = (int *) 0xc1110030;
  *hmac = 0x94823467;
e00004e0:	db1c                	sw	a5,48(a4)

   hmac = (int *) 0xc1110034;
  *hmac = 0x94823467;
e00004e2:	db5c                	sw	a5,52(a4)

   hmac = (int *) 0xc1110038;
  *hmac = 0x94823467;
e00004e4:	df1c                	sw	a5,56(a4)

   hmac = (int *) 0xc111003C;
  *hmac = 0x94823467;
e00004e6:	df5c                	sw	a5,60(a4)

   hmac = (int *) 0xc1110040;
  *hmac = 0x94823467;
e00004e8:	c33c                	sw	a5,64(a4)

   return true;

}
e00004ea:	4505                	li	a0,1
e00004ec:	8082                	ret

e00004ee <hmac_input_mbox>:
   hmac_1 = (int *) 0xc1110800;
   hmac_2 = (int *) 0xc1110804;
   hmac_3 = (int *) 0xc1110808;
   hmac_4 = (int *) 0xc111080C;
   
  *hmac_1 = *mbox_1;
e00004ee:	10404737          	lui	a4,0x10404
e00004f2:	4314                	lw	a3,0(a4)
e00004f4:	c11117b7          	lui	a5,0xc1111
  *hmac_2 = *mbox_2;
  *hmac_3 = *mbox_3;
  *hmac_4 = *mbox_4;

   return true;
}
e00004f8:	4505                	li	a0,1
  *hmac_1 = *mbox_1;
e00004fa:	80d7a023          	sw	a3,-2048(a5) # c1110800 <pulp__FC+0xc1110801>
  *hmac_2 = *mbox_2;
e00004fe:	4354                	lw	a3,4(a4)
e0000500:	80d7a223          	sw	a3,-2044(a5)
  *hmac_3 = *mbox_3;
e0000504:	4714                	lw	a3,8(a4)
e0000506:	80d7a423          	sw	a3,-2040(a5)
  *hmac_4 = *mbox_4;
e000050a:	4758                	lw	a4,12(a4)
e000050c:	80e7a623          	sw	a4,-2036(a5)
}
e0000510:	8082                	ret

e0000512 <hmac_input_ibex>:
   hmac_1 = (int *) 0xc1110800;
   hmac_2 = (int *) 0xc1110804;
   hmac_3 = (int *) 0xc1110808;
   hmac_4 = (int *) 0xc111080C;
   
  *hmac_1 = *ibex_1;
e0000512:	e000f737          	lui	a4,0xe000f
e0000516:	4314                	lw	a3,0(a4)
e0000518:	c11117b7          	lui	a5,0xc1111
  *hmac_2 = *ibex_2;
  *hmac_3 = *ibex_3;
  *hmac_4 = *ibex_4;

   return true;
}
e000051c:	4505                	li	a0,1
  *hmac_1 = *ibex_1;
e000051e:	80d7a023          	sw	a3,-2048(a5) # c1110800 <pulp__FC+0xc1110801>
  *hmac_2 = *ibex_2;
e0000522:	4354                	lw	a3,4(a4)
e0000524:	80d7a223          	sw	a3,-2044(a5)
  *hmac_3 = *ibex_3;
e0000528:	4714                	lw	a3,8(a4)
e000052a:	80d7a423          	sw	a3,-2040(a5)
  *hmac_4 = *ibex_4;
e000052e:	4758                	lw	a4,12(a4)
e0000530:	80e7a623          	sw	a4,-2036(a5)
}
e0000534:	8082                	ret

e0000536 <hmac_input_ariane>:
   hmac_1 = (int *) 0xc1110800;
   hmac_2 = (int *) 0xc1110804;
   hmac_3 = (int *) 0xc1110808;
   hmac_4 = (int *) 0xc111080C;
   
  *hmac_1 = *ariane_1;
e0000536:	1c001737          	lui	a4,0x1c001
e000053a:	80072683          	lw	a3,-2048(a4) # 1c000800 <tohost+0x1bfe07f8>
e000053e:	c11117b7          	lui	a5,0xc1111
  *hmac_2 = *ariane_2;
  *hmac_3 = *ariane_3;
  *hmac_4 = *ariane_4;

   return true;
}
e0000542:	4505                	li	a0,1
  *hmac_1 = *ariane_1;
e0000544:	80d7a023          	sw	a3,-2048(a5) # c1110800 <pulp__FC+0xc1110801>
  *hmac_2 = *ariane_2;
e0000548:	80472683          	lw	a3,-2044(a4)
e000054c:	80d7a223          	sw	a3,-2044(a5)
  *hmac_3 = *ariane_3;
e0000550:	80872683          	lw	a3,-2040(a4)
e0000554:	80d7a423          	sw	a3,-2040(a5)
  *hmac_4 = *ariane_4;
e0000558:	80c72703          	lw	a4,-2036(a4)
e000055c:	80e7a623          	sw	a4,-2036(a5)
}
e0000560:	8082                	ret

e0000562 <hmac_input_hyper>:
   hmac_1 = (int *) 0xc1110800;
   hmac_2 = (int *) 0xc1110804;
   hmac_3 = (int *) 0xc1110808;
   hmac_4 = (int *) 0xc111080C;
   
  *hmac_1 = *hyper_1;
e0000562:	80011737          	lui	a4,0x80011
e0000566:	80072683          	lw	a3,-2048(a4) # 80010800 <pulp__FC+0x80010801>
e000056a:	c11117b7          	lui	a5,0xc1111
  *hmac_2 = *hyper_2;
  *hmac_3 = *hyper_3;
  *hmac_4 = *hyper_4;

   return true;
}
e000056e:	4505                	li	a0,1
  *hmac_1 = *hyper_1;
e0000570:	80d7a023          	sw	a3,-2048(a5) # c1110800 <pulp__FC+0xc1110801>
  *hmac_2 = *hyper_2;
e0000574:	80472683          	lw	a3,-2044(a4)
e0000578:	80d7a223          	sw	a3,-2044(a5)
  *hmac_3 = *hyper_3;
e000057c:	80872683          	lw	a3,-2040(a4)
e0000580:	80d7a423          	sw	a3,-2040(a5)
  *hmac_4 = *hyper_4;
e0000584:	80c72703          	lw	a4,-2036(a4)
e0000588:	80e7a623          	sw	a4,-2036(a5)
}
e000058c:	8082                	ret

e000058e <hmac_encrypt>:
   int volatile * hmac;
   int a = 0;
   
   // trigger encryption
   hmac = (int *) 0xc1110014;
  *hmac = 0x3;
e000058e:	c11107b7          	lui	a5,0xc1110
e0000592:	470d                	li	a4,3
e0000594:	cbd8                	sw	a4,20(a5)

   hmac = (int *) 0xc1110000;
   while(a != 0x7)
     a = *hmac;
e0000596:	c11106b7          	lui	a3,0xc1110
   while(a != 0x7)
e000059a:	479d                	li	a5,7
     a = *hmac;
e000059c:	4298                	lw	a4,0(a3)
   while(a != 0x7)
e000059e:	fef71fe3          	bne	a4,a5,e000059c <hmac_encrypt+0xe>
   a = 0;

   return true;
}
e00005a2:	4505                	li	a0,1
e00005a4:	8082                	ret

e00005a6 <entropy_init>:
bool entropy_init(void) {
  
  int volatile * edn_enable, * csrng_enable, * entropy_src_enable;

  entropy_src_enable = (int *) 0xc1160024;
 *entropy_src_enable = 0x00909099;
e00005a6:	009097b7          	lui	a5,0x909
e00005aa:	c1160737          	lui	a4,0xc1160
e00005ae:	09978793          	addi	a5,a5,153 # 909099 <tohost+0x8e9091>
e00005b2:	d35c                	sw	a5,36(a4)

  entropy_src_enable = (int *) 0xc1160020;
 *entropy_src_enable = 0x6;
e00005b4:	4799                	li	a5,6
e00005b6:	d31c                	sw	a5,32(a4)

  csrng_enable = (int *) 0xc1150014;
 *csrng_enable = 0x666;
e00005b8:	c11507b7          	lui	a5,0xc1150
e00005bc:	66600713          	li	a4,1638
e00005c0:	cbd8                	sw	a4,20(a5)

  edn_enable = (int *) 0xc1170014;
 *edn_enable = 0x9966;
e00005c2:	67a9                	lui	a5,0xa
e00005c4:	c1170737          	lui	a4,0xc1170
e00005c8:	96678793          	addi	a5,a5,-1690 # 9966 <_stack_len+0x1966>
e00005cc:	cb5c                	sw	a5,20(a4)

  return true;
}
e00005ce:	4505                	li	a0,1
e00005d0:	8082                	ret

e00005d2 <preload_mbox>:
bool preload_mbox(void){

  int * mbox_pointer;

  mbox_pointer = (int *) 0x10404000;
 *mbox_pointer = 0xbadcab1e;
e00005d2:	badcb7b7          	lui	a5,0xbadcb
e00005d6:	10404737          	lui	a4,0x10404
e00005da:	b1e78793          	addi	a5,a5,-1250 # badcab1e <pulp__FC+0xbadcab1f>
e00005de:	c31c                	sw	a5,0(a4)

  mbox_pointer = (int *) 0x10404004;
 *mbox_pointer = 0xbadcab1e;
e00005e0:	c35c                	sw	a5,4(a4)

  mbox_pointer = (int *) 0x10404008;
 *mbox_pointer = 0xbadcab1e;
e00005e2:	c71c                	sw	a5,8(a4)

  mbox_pointer = (int *) 0x1040400C;
 *mbox_pointer = 0xbadcab1e;
e00005e4:	c75c                	sw	a5,12(a4)

  return true;

}
e00005e6:	4505                	li	a0,1
e00005e8:	8082                	ret

e00005ea <preload_ibex>:
bool preload_ibex(void){

  int * ibex_pointer;

  ibex_pointer = (int *) 0xe000F000;
 *ibex_pointer = 0xbadcab1e;
e00005ea:	badcb7b7          	lui	a5,0xbadcb
e00005ee:	e000f737          	lui	a4,0xe000f
e00005f2:	b1e78793          	addi	a5,a5,-1250 # badcab1e <pulp__FC+0xbadcab1f>
e00005f6:	c31c                	sw	a5,0(a4)

  ibex_pointer = (int *) 0xe000F004;
 *ibex_pointer = 0xbadcab1e;
e00005f8:	c35c                	sw	a5,4(a4)

  ibex_pointer = (int *) 0xe000F008;
 *ibex_pointer = 0xbadcab1e;
e00005fa:	c71c                	sw	a5,8(a4)

  ibex_pointer = (int *) 0xe000F00C;
 *ibex_pointer = 0xbadcab1e;
e00005fc:	c75c                	sw	a5,12(a4)

  return true;

}
e00005fe:	4505                	li	a0,1
e0000600:	8082                	ret

e0000602 <preload_ariane>:
bool preload_ariane(void){

  int * ariane_pointer;

  ariane_pointer = (int *) 0x1C000800;
 *ariane_pointer = 0xbadcab1e;
e0000602:	badcb7b7          	lui	a5,0xbadcb
e0000606:	1c001737          	lui	a4,0x1c001
e000060a:	b1e78793          	addi	a5,a5,-1250 # badcab1e <pulp__FC+0xbadcab1f>
e000060e:	80f72023          	sw	a5,-2048(a4) # 1c000800 <tohost+0x1bfe07f8>

  ariane_pointer = (int *) 0x1C000804;
 *ariane_pointer = 0xbadcab1e;
e0000612:	80f72223          	sw	a5,-2044(a4)

  ariane_pointer = (int *) 0x1C000808;
 *ariane_pointer = 0xbadcab1e;
e0000616:	80f72423          	sw	a5,-2040(a4)

  ariane_pointer = (int *) 0x1C00080C;
 *ariane_pointer = 0xbadcab1e;
e000061a:	80f72623          	sw	a5,-2036(a4)

  return true;

}
e000061e:	4505                	li	a0,1
e0000620:	8082                	ret

e0000622 <preload_hyper>:
bool preload_hyper(void){

  int * hyper_pointer;

  hyper_pointer = (int *) 0x80010800;
 *hyper_pointer = 0xbadcab1e;
e0000622:	badcb7b7          	lui	a5,0xbadcb
e0000626:	80011737          	lui	a4,0x80011
e000062a:	b1e78793          	addi	a5,a5,-1250 # badcab1e <pulp__FC+0xbadcab1f>
e000062e:	80f72023          	sw	a5,-2048(a4) # 80010800 <pulp__FC+0x80010801>

  hyper_pointer = (int *) 0x80010804;
 *hyper_pointer = 0xbadcab1e;
e0000632:	80f72223          	sw	a5,-2044(a4)

  hyper_pointer = (int *) 0x80010808;
 *hyper_pointer = 0xbadcab1e;
e0000636:	80f72423          	sw	a5,-2040(a4)

  hyper_pointer = (int *) 0x8001080C;
 *hyper_pointer = 0xbadcab1e;
e000063a:	80f72623          	sw	a5,-2036(a4)

  return true;

}
e000063e:	4505                	li	a0,1
e0000640:	8082                	ret

e0000642 <hmac_read_out>:
   int volatile * hmac;
   int a,b,c,d,e,f,g,h;
   
   // writing crypto key
   hmac = (int *) 0xc1110044;
   a = *hmac;
e0000642:	c11107b7          	lui	a5,0xc1110
e0000646:	43f8                	lw	a4,68(a5)
   //printf("%d",a);

   hmac = (int *) 0xc1110048;
   b = *hmac;
e0000648:	47b8                	lw	a4,72(a5)
   //printf("%d",b);
   
   hmac = (int *) 0xc111004C;
   c = *hmac;
e000064a:	47f8                	lw	a4,76(a5)
   //printf("%d",c);

   hmac = (int *) 0xc1110050;
   d = *hmac;
e000064c:	4bb8                	lw	a4,80(a5)
   //printf("%d",d);

   hmac = (int *) 0xc1110054;
   e = *hmac;
e000064e:	4bf8                	lw	a4,84(a5)
   //printf("%d",e);

   hmac = (int *) 0xc1110058;
   f = *hmac;
e0000650:	4fb8                	lw	a4,88(a5)
   //printf("%d",f);

   hmac = (int *) 0xc111005C;
   g = *hmac;
e0000652:	4ff8                	lw	a4,92(a5)

   //printf("Key: %d%d%d%d%d%d%d%d\r\n", a,b,c,d,e,f,g,h);

   return true;

}
e0000654:	4505                	li	a0,1
   h = *hmac;
e0000656:	53bc                	lw	a5,96(a5)
}
e0000658:	8082                	ret

e000065a <default_exc_handler>:
  jal x0, sleep_loop //exc handler
e000065a:	0760006f          	j	e00006d0 <sleep_loop>

e000065e <reset_handler>:
  mv  x1, x0
e000065e:	00000093          	li	ra,0
  mv  x2, x1
e0000662:	8106                	mv	sp,ra
  mv  x3, x1
e0000664:	8186                	mv	gp,ra
  mv  x4, x1
e0000666:	8206                	mv	tp,ra
  mv  x5, x1
e0000668:	8286                	mv	t0,ra
  mv  x6, x1
e000066a:	8306                	mv	t1,ra
  mv  x7, x1
e000066c:	8386                	mv	t2,ra
  mv  x8, x1
e000066e:	8406                	mv	s0,ra
  mv  x9, x1
e0000670:	8486                	mv	s1,ra
  mv x10, x1
e0000672:	8506                	mv	a0,ra
  mv x11, x1
e0000674:	8586                	mv	a1,ra
  mv x12, x1
e0000676:	8606                	mv	a2,ra
  mv x13, x1
e0000678:	8686                	mv	a3,ra
  mv x14, x1
e000067a:	8706                	mv	a4,ra
  mv x15, x1
e000067c:	8786                	mv	a5,ra
  mv x16, x1
e000067e:	8806                	mv	a6,ra
  mv x17, x1
e0000680:	8886                	mv	a7,ra
  mv x18, x1
e0000682:	8906                	mv	s2,ra
  mv x19, x1
e0000684:	8986                	mv	s3,ra
  mv x20, x1
e0000686:	8a06                	mv	s4,ra
  mv x21, x1
e0000688:	8a86                	mv	s5,ra
  mv x22, x1
e000068a:	8b06                	mv	s6,ra
  mv x23, x1
e000068c:	8b86                	mv	s7,ra
  mv x24, x1
e000068e:	8c06                	mv	s8,ra
  mv x25, x1
e0000690:	8c86                	mv	s9,ra
  mv x26, x1
e0000692:	8d06                	mv	s10,ra
  mv x27, x1
e0000694:	8d86                	mv	s11,ra
  mv x28, x1
e0000696:	8e06                	mv	t3,ra
  mv x29, x1
e0000698:	8e86                	mv	t4,ra
  mv x30, x1
e000069a:	8f06                	mv	t5,ra
  mv x31, x1
e000069c:	8f86                	mv	t6,ra
  la   x2, _stack_start
e000069e:	00010117          	auipc	sp,0x10
e00006a2:	96210113          	addi	sp,sp,-1694 # e0010000 <_stack_start>

e00006a6 <_start>:
  la x26, _bss_start
e00006a6:	00000d17          	auipc	s10,0x0
e00006aa:	276d0d13          	addi	s10,s10,630 # e000091c <_bss_end>
  la x27, _bss_end
e00006ae:	00000d97          	auipc	s11,0x0
e00006b2:	26ed8d93          	addi	s11,s11,622 # e000091c <_bss_end>
  bge x26, x27, zero_loop_end
e00006b6:	01bd5763          	ble	s11,s10,e00006c4 <main_entry>

e00006ba <zero_loop>:
  sw x0, 0(x26)
e00006ba:	000d2023          	sw	zero,0(s10)
  addi x26, x26, 4
e00006be:	0d11                	addi	s10,s10,4
  ble x26, x27, zero_loop
e00006c0:	ffaddde3          	ble	s10,s11,e00006ba <zero_loop>

e00006c4 <main_entry>:
  addi x10, x0, 0
e00006c4:	00000513          	li	a0,0
  addi x11, x0, 0
e00006c8:	00000593          	li	a1,0
  jal x1, main
e00006cc:	00a000ef          	jal	ra,e00006d6 <main>

e00006d0 <sleep_loop>:
  wfi
e00006d0:	10500073          	wfi
  j sleep_loop
e00006d4:	bff5                	j	e00006d0 <sleep_loop>

e00006d6 <main>:
#define HYPER
#define IBEX
#define MBOX
#define ARIANE

int main(int argc, char **argv) {
e00006d6:	1141                	addi	sp,sp,-16
  int test_freq = 50000000;
  #else
  int baud_rate = 115200;
  int test_freq = 100000000;
  #endif
  uart_set_cfg(0,(test_freq/baud_rate)>>4);
e00006d8:	03600593          	li	a1,54
e00006dc:	4501                	li	a0,0
int main(int argc, char **argv) {
e00006de:	c606                	sw	ra,12(sp)
e00006e0:	c422                	sw	s0,8(sp)
e00006e2:	c226                	sw	s1,4(sp)
e00006e4:	c04a                	sw	s2,0(sp)
  uart_set_cfg(0,(test_freq/baud_rate)>>4);
e00006e6:	3a79                	jal	e0000084 <uart_set_cfg>
  
  // move interrupt vector to SRAM base address
  unsigned val = 0xe0000001;                      
  asm volatile("csrw mtvec, %0\n" : : "r"(val));
e00006e8:	e00007b7          	lui	a5,0xe0000
e00006ec:	0785                	addi	a5,a5,1
e00006ee:	30579073          	csrw	mtvec,a5

  printf("Initializing entropy src and HMAC\r\n");
e00006f2:	00000517          	auipc	a0,0x0
e00006f6:	0ea50513          	addi	a0,a0,234 # e00007dc <main+0x106>
e00006fa:	36d9                	jal	e00002c0 <printf>
  t = entropy_init();    // init the entropy source
e00006fc:	356d                	jal	e00005a6 <entropy_init>
  
  printf("Writing the crypto key to the HMAC\r\n");
e00006fe:	00000517          	auipc	a0,0x0
e0000702:	10250513          	addi	a0,a0,258 # e0000800 <main+0x12a>
  *hmac = 0x3;
e0000706:	c1110437          	lui	s0,0xc1110
e000070a:	490d                	li	s2,3
e000070c:	3e55                	jal	e00002c0 <printf>
  t = hmac_write_key();  // dummy key
e000070e:	33c1                	jal	e00004ce <hmac_write_key>
  *hmac = 0x1;
e0000710:	4485                	li	s1,1
  *hmac = 0x3;
e0000712:	01242823          	sw	s2,16(s0) # c1110010 <pulp__FC+0xc1110011>
  *hmac = 0x1;
e0000716:	c844                	sw	s1,20(s0)
  t = hmac_init();       // write the control register

  printf("Preloading MBOX, Ibex SRAM, Ariane SRAM, HyperRam\r\n");
e0000718:	00000517          	auipc	a0,0x0
e000071c:	11050513          	addi	a0,a0,272 # e0000828 <main+0x152>
e0000720:	3645                	jal	e00002c0 <printf>
  t = preload_mbox();
e0000722:	3d45                	jal	e00005d2 <preload_mbox>
  t = preload_ariane();
e0000724:	3df9                	jal	e0000602 <preload_ariane>
  t = preload_ibex();
e0000726:	35d1                	jal	e00005ea <preload_ibex>
  t = preload_hyper();
e0000728:	3ded                	jal	e0000622 <preload_hyper>
   
  printf("Moving data from Mbox to HMAC\r\n");
e000072a:	00000517          	auipc	a0,0x0
e000072e:	13250513          	addi	a0,a0,306 # e000085c <main+0x186>
e0000732:	3679                	jal	e00002c0 <printf>
  *hmac = 0x3;
e0000734:	01242823          	sw	s2,16(s0)
  *hmac = 0x1;
e0000738:	c844                	sw	s1,20(s0)
  t = hmac_init(); 
  t = hmac_input_mbox();
e000073a:	3b55                	jal	e00004ee <hmac_input_mbox>

  printf("Encrypt!\r\n");
e000073c:	00000517          	auipc	a0,0x0
e0000740:	14050513          	addi	a0,a0,320 # e000087c <main+0x1a6>
e0000744:	3eb5                	jal	e00002c0 <printf>
  t = hmac_encrypt();
e0000746:	35a1                	jal	e000058e <hmac_encrypt>
  t = hmac_read_out();
e0000748:	3ded                	jal	e0000642 <hmac_read_out>

  printf("Moving data from Ariane SRAM to HMAC\r\n");
e000074a:	00000517          	auipc	a0,0x0
e000074e:	13e50513          	addi	a0,a0,318 # e0000888 <main+0x1b2>
e0000752:	36bd                	jal	e00002c0 <printf>
  *hmac = 0x3;
e0000754:	01242823          	sw	s2,16(s0)
  *hmac = 0x1;
e0000758:	c844                	sw	s1,20(s0)
  t = hmac_init(); 
  t = hmac_input_ariane();
e000075a:	3bf1                	jal	e0000536 <hmac_input_ariane>
  
  printf("Encrypt!\r\n");
e000075c:	00000517          	auipc	a0,0x0
e0000760:	12050513          	addi	a0,a0,288 # e000087c <main+0x1a6>
e0000764:	3eb1                	jal	e00002c0 <printf>
  t = hmac_encrypt();
e0000766:	3525                	jal	e000058e <hmac_encrypt>
  t = hmac_read_out();
e0000768:	3de9                	jal	e0000642 <hmac_read_out>
  
  printf("Moving data from Ibex SRAM to HMAC\r\n");
e000076a:	00000517          	auipc	a0,0x0
e000076e:	14650513          	addi	a0,a0,326 # e00008b0 <main+0x1da>
e0000772:	36b9                	jal	e00002c0 <printf>
  *hmac = 0x3;
e0000774:	01242823          	sw	s2,16(s0)
  *hmac = 0x1;
e0000778:	c844                	sw	s1,20(s0)
  t = hmac_init(); 
  t = hmac_input_ibex();
e000077a:	3b61                	jal	e0000512 <hmac_input_ibex>

  printf("Encrypt!\r\n");
e000077c:	00000517          	auipc	a0,0x0
e0000780:	10050513          	addi	a0,a0,256 # e000087c <main+0x1a6>
e0000784:	3e35                	jal	e00002c0 <printf>
  t = hmac_encrypt();
e0000786:	3521                	jal	e000058e <hmac_encrypt>
  t = hmac_read_out();
e0000788:	3d6d                	jal	e0000642 <hmac_read_out>

  printf("Moving data from HyperRAM to HMAC\r\n");
e000078a:	00000517          	auipc	a0,0x0
e000078e:	14e50513          	addi	a0,a0,334 # e00008d8 <main+0x202>
e0000792:	363d                	jal	e00002c0 <printf>
  *hmac = 0x3;
e0000794:	01242823          	sw	s2,16(s0)
  *hmac = 0x1;
e0000798:	c844                	sw	s1,20(s0)
  t = hmac_init(); 
  t = hmac_input_hyper();
e000079a:	33e1                	jal	e0000562 <hmac_input_hyper>
  
  printf("Encrypt!\r\n");
e000079c:	00000517          	auipc	a0,0x0
e00007a0:	0e050513          	addi	a0,a0,224 # e000087c <main+0x1a6>
e00007a4:	3e31                	jal	e00002c0 <printf>
  t = hmac_encrypt();
e00007a6:	33e5                	jal	e000058e <hmac_encrypt>
  t = hmac_read_out();
e00007a8:	3d69                	jal	e0000642 <hmac_read_out>

  printf("Test succeed\r\n");
e00007aa:	00000517          	auipc	a0,0x0
e00007ae:	15250513          	addi	a0,a0,338 # e00008fc <main+0x226>
e00007b2:	3639                	jal	e00002c0 <printf>

  return 0;
}
e00007b4:	40b2                	lw	ra,12(sp)
e00007b6:	4422                	lw	s0,8(sp)
e00007b8:	4492                	lw	s1,4(sp)
e00007ba:	4902                	lw	s2,0(sp)
e00007bc:	4501                	li	a0,0
e00007be:	0141                	addi	sp,sp,16
e00007c0:	8082                	ret

Disassembly of section .rodata:

e00007c4 <.rodata>:
e00007c4:	6e28                	flw	fa0,88(a2)
e00007c6:	6c75                	lui	s8,0x1d
e00007c8:	296c                	fld	fa1,208(a0)
e00007ca:	0000                	unimp
e00007cc:	5845                	li	a6,-15
e00007ce:	54504543          	fmadd.h	a0,zero,t0,a0,rmm
e00007d2:	4f49                	li	t5,18
e00007d4:	214e                	fld	ft2,208(sp)
e00007d6:	2121                	jal	e0000bde <_bss_end+0x2c2>
e00007d8:	0a0d                	addi	s4,s4,3
e00007da:	0000                	unimp
e00007dc:	6e49                	lui	t3,0x12
e00007de:	7469                	lui	s0,0xffffa
e00007e0:	6169                	addi	sp,sp,208
e00007e2:	696c                	flw	fa1,84(a0)
e00007e4:	697a                	flw	fs2,156(sp)
e00007e6:	676e                	flw	fa4,216(sp)
e00007e8:	6520                	flw	fs0,72(a0)
e00007ea:	746e                	flw	fs0,248(sp)
e00007ec:	6f72                	flw	ft10,28(sp)
e00007ee:	7970                	flw	fa2,116(a0)
e00007f0:	7320                	flw	fs0,96(a4)
e00007f2:	6372                	flw	ft6,28(sp)
e00007f4:	6120                	flw	fs0,64(a0)
e00007f6:	646e                	flw	fs0,216(sp)
e00007f8:	4820                	lw	s0,80(s0)
e00007fa:	414d                	li	sp,19
e00007fc:	000a0d43          	fmadd.s	fs10,fs4,ft0,ft0,rne
e0000800:	74697257          	0x74697257
e0000804:	6e69                	lui	t3,0x1a
e0000806:	68742067          	0x68742067
e000080a:	2065                	jal	e00008b2 <main+0x1dc>
e000080c:	70797263          	bleu	t2,s2,e0000f10 <_bss_end+0x5f4>
e0000810:	6f74                	flw	fa3,92(a4)
e0000812:	6b20                	flw	fs0,80(a4)
e0000814:	7965                	lui	s2,0xffff9
e0000816:	7420                	flw	fs0,104(s0)
e0000818:	6874206f          	j	e004369e <fromhost+0x3368e>
e000081c:	2065                	jal	e00008c4 <main+0x1ee>
e000081e:	4d48                	lw	a0,28(a0)
e0000820:	4341                	li	t1,16
e0000822:	0a0d                	addi	s4,s4,3
e0000824:	0000                	unimp
e0000826:	0000                	unimp
e0000828:	7250                	flw	fa2,36(a2)
e000082a:	6c65                	lui	s8,0x19
e000082c:	6964616f          	jal	sp,e0046ec2 <fromhost+0x36eb2>
e0000830:	676e                	flw	fa4,216(sp)
e0000832:	4d20                	lw	s0,88(a0)
e0000834:	4f42                	lw	t5,16(sp)
e0000836:	2c58                	fld	fa4,152(s0)
e0000838:	4920                	lw	s0,80(a0)
e000083a:	6562                	flw	fa0,24(sp)
e000083c:	2078                	fld	fa4,192(s0)
e000083e:	4d415253          	fmulex.s.ah	tp,sp,s4
e0000842:	202c                	fld	fa1,64(s0)
e0000844:	7241                	lui	tp,0xffff0
e0000846:	6169                	addi	sp,sp,208
e0000848:	656e                	flw	fa0,216(sp)
e000084a:	5320                	lw	s0,96(a4)
e000084c:	4152                	lw	sp,20(sp)
e000084e:	2c4d                	jal	e0000b00 <_bss_end+0x1e4>
e0000850:	4820                	lw	s0,80(s0)
e0000852:	7079                	0x7079
e0000854:	7265                	lui	tp,0xffff9
e0000856:	6152                	flw	ft2,20(sp)
e0000858:	0d6d                	addi	s10,s10,27
e000085a:	000a                	0xa
e000085c:	6f4d                	lui	t5,0x13
e000085e:	6976                	flw	fs2,92(sp)
e0000860:	676e                	flw	fa4,216(sp)
e0000862:	6420                	flw	fs0,72(s0)
e0000864:	7461                	lui	s0,0xffff8
e0000866:	2061                	jal	e00008ee <main+0x218>
e0000868:	7266                	flw	ft4,120(sp)
e000086a:	4d206d6f          	jal	s10,e0006d3c <_bss_end+0x6420>
e000086e:	6f62                	flw	ft10,24(sp)
e0000870:	2078                	fld	fa4,192(s0)
e0000872:	6f74                	flw	fa3,92(a4)
e0000874:	4820                	lw	s0,80(s0)
e0000876:	414d                	li	sp,19
e0000878:	000a0d43          	fmadd.s	fs10,fs4,ft0,ft0,rne
e000087c:	6e45                	lui	t3,0x11
e000087e:	70797263          	bleu	t2,s2,e0000f82 <_bss_end+0x666>
e0000882:	2174                	fld	fa3,192(a0)
e0000884:	0a0d                	addi	s4,s4,3
e0000886:	0000                	unimp
e0000888:	6f4d                	lui	t5,0x13
e000088a:	6976                	flw	fs2,92(sp)
e000088c:	676e                	flw	fa4,216(sp)
e000088e:	6420                	flw	fs0,72(s0)
e0000890:	7461                	lui	s0,0xffff8
e0000892:	2061                	jal	e000091a <remu10_table+0xe>
e0000894:	7266                	flw	ft4,120(sp)
e0000896:	41206d6f          	jal	s10,e0006ca8 <_bss_end+0x638c>
e000089a:	6972                	flw	fs2,28(sp)
e000089c:	6e61                	lui	t3,0x18
e000089e:	2065                	jal	e0000946 <_bss_end+0x2a>
e00008a0:	4d415253          	fmulex.s.ah	tp,sp,s4
e00008a4:	7420                	flw	fs0,104(s0)
e00008a6:	4d48206f          	j	e0082d7a <fromhost+0x72d6a>
e00008aa:	4341                	li	t1,16
e00008ac:	0a0d                	addi	s4,s4,3
e00008ae:	0000                	unimp
e00008b0:	6f4d                	lui	t5,0x13
e00008b2:	6976                	flw	fs2,92(sp)
e00008b4:	676e                	flw	fa4,216(sp)
e00008b6:	6420                	flw	fs0,72(s0)
e00008b8:	7461                	lui	s0,0xffff8
e00008ba:	2061                	jal	e0000942 <_bss_end+0x26>
e00008bc:	7266                	flw	ft4,120(sp)
e00008be:	49206d6f          	jal	s10,e0006d50 <_bss_end+0x6434>
e00008c2:	6562                	flw	fa0,24(sp)
e00008c4:	2078                	fld	fa4,192(s0)
e00008c6:	4d415253          	fmulex.s.ah	tp,sp,s4
e00008ca:	7420                	flw	fs0,104(s0)
e00008cc:	4d48206f          	j	e0082da0 <fromhost+0x72d90>
e00008d0:	4341                	li	t1,16
e00008d2:	0a0d                	addi	s4,s4,3
e00008d4:	0000                	unimp
e00008d6:	0000                	unimp
e00008d8:	6f4d                	lui	t5,0x13
e00008da:	6976                	flw	fs2,92(sp)
e00008dc:	676e                	flw	fa4,216(sp)
e00008de:	6420                	flw	fs0,72(s0)
e00008e0:	7461                	lui	s0,0xffff8
e00008e2:	2061                	jal	e000096a <_bss_end+0x4e>
e00008e4:	7266                	flw	ft4,120(sp)
e00008e6:	48206d6f          	jal	s10,e0006d68 <_bss_end+0x644c>
e00008ea:	7079                	0x7079
e00008ec:	7265                	lui	tp,0xffff9
e00008ee:	4152                	lw	sp,20(sp)
e00008f0:	204d                	jal	e0000992 <_bss_end+0x76>
e00008f2:	6f74                	flw	fa3,92(a4)
e00008f4:	4820                	lw	s0,80(s0)
e00008f6:	414d                	li	sp,19
e00008f8:	000a0d43          	fmadd.s	fs10,fs4,ft0,ft0,rne
e00008fc:	6554                	flw	fa3,12(a0)
e00008fe:	73207473          	csrrci	s0,0x732,0
e0000902:	6375                	lui	t1,0x1d
e0000904:	64656563          	bltu	a0,t1,e0000f4e <_bss_end+0x632>
e0000908:	0a0d                	addi	s4,s4,3
	...

Disassembly of section .data:

e000090c <remu10_table>:
e000090c:	0100                	addi	s0,sp,128
e000090e:	0202                	slli	tp,tp,0x0
e0000910:	05040303          	lb	t1,80(s0) # ffff8050 <pulp__FC+0xffff8051>
e0000914:	0605                	addi	a2,a2,1
e0000916:	08080707          	0x8080707
e000091a:	0009                	c.addi	zero,2

Disassembly of section .stack:

e0008000 <_stack-0x2000>:
	...

Disassembly of section .debug_frame:

00000000 <.debug_frame>:
   0:	000c                	addi	a1,sp,0
   2:	0000                	unimp
   4:	ffff                	0xffff
   6:	ffff                	0xffff
   8:	7c010003          	lb	zero,1984(sp)
   c:	0c01                	addi	s8,s8,0
   e:	0002                	0x2
  10:	000c                	addi	a1,sp,0
  12:	0000                	unimp
  14:	0000                	unimp
  16:	0000                	unimp
  18:	0084                	addi	s1,sp,64
  1a:	e000                	fsw	fs0,0(s0)
  1c:	002e                	0x2e
  1e:	0000                	unimp
  20:	000c                	addi	a1,sp,0
  22:	0000                	unimp
  24:	0000                	unimp
  26:	0000                	unimp
  28:	00b2                	slli	ra,ra,0xc
  2a:	e000                	fsw	fs0,0(s0)
  2c:	0026                	0x26
  2e:	0000                	unimp
  30:	000c                	addi	a1,sp,0
  32:	0000                	unimp
  34:	0000                	unimp
  36:	0000                	unimp
  38:	00d8                	addi	a4,sp,68
  3a:	e000                	fsw	fs0,0(s0)
  3c:	0012                	0x12
  3e:	0000                	unimp
  40:	000c                	addi	a1,sp,0
  42:	0000                	unimp
  44:	0000                	unimp
  46:	0000                	unimp
  48:	00ea                	slli	ra,ra,0x1a
  4a:	e000                	fsw	fs0,0(s0)
  4c:	0010                	addi	a2,sp,0
  4e:	0000                	unimp
  50:	0058                	addi	a4,sp,4
  52:	0000                	unimp
  54:	0000                	unimp
  56:	0000                	unimp
  58:	00fa                	slli	ra,ra,0x1e
  5a:	e000                	fsw	fs0,0(s0)
  5c:	00a6                	slli	ra,ra,0x9
  5e:	0000                	unimp
  60:	0204                	addi	s1,sp,256
  62:	0000                	unimp
  64:	0e00                	addi	s0,sp,784
  66:	0420                	addi	s0,sp,520
  68:	000c                	addi	a1,sp,0
  6a:	0000                	unimp
  6c:	0288                	addi	a0,sp,320
  6e:	0389                	addi	t2,t2,2
  70:	0492                	slli	s1,s1,0x4
  72:	0181                	addi	gp,gp,0
  74:	06940593          	addi	a1,s0,105
  78:	5a04                	lw	s1,48(a2)
  7a:	0000                	unimp
  7c:	0a00                	addi	s0,sp,272
  7e:	04c1                	addi	s1,s1,16
  80:	0002                	0x2
  82:	0000                	unimp
  84:	04c8                	addi	a0,sp,580
  86:	0002                	0x2
  88:	0000                	unimp
  8a:	04c9                	addi	s1,s1,18
  8c:	0002                	0x2
  8e:	0000                	unimp
  90:	04d2                	slli	s1,s1,0x14
  92:	0002                	0x2
  94:	0000                	unimp
  96:	000204d3          	fadd.s	fs1,ft4,ft0,rne
  9a:	0000                	unimp
  9c:	04d4                	addi	a3,sp,580
  9e:	0002                	0x2
  a0:	0000                	unimp
  a2:	000e                	0xe
  a4:	0204                	addi	s1,sp,256
  a6:	0000                	unimp
  a8:	0b00                	addi	s0,sp,400
  aa:	0000                	unimp
  ac:	0040                	addi	s0,sp,4
  ae:	0000                	unimp
  b0:	0000                	unimp
  b2:	0000                	unimp
  b4:	01a0                	addi	s0,sp,200
  b6:	e000                	fsw	fs0,0(s0)
  b8:	00fa                	slli	ra,ra,0x1e
  ba:	0000                	unimp
  bc:	0204                	addi	s1,sp,256
  be:	0000                	unimp
  c0:	0e00                	addi	s0,sp,784
  c2:	0440                	addi	s0,sp,516
  c4:	0006                	0x6
  c6:	0000                	unimp
  c8:	0389                	addi	t2,t2,2
  ca:	0181                	addi	gp,gp,0
  cc:	0288                	addi	a0,sp,320
  ce:	1604                	addi	s1,sp,800
  d0:	0000                	unimp
  d2:	0a00                	addi	s0,sp,272
  d4:	04c1                	addi	s1,s1,16
  d6:	0002                	0x2
  d8:	0000                	unimp
  da:	04c8                	addi	a0,sp,580
  dc:	0002                	0x2
  de:	0000                	unimp
  e0:	04c9                	addi	s1,s1,18
  e2:	0002                	0x2
  e4:	0000                	unimp
  e6:	000e                	0xe
  e8:	0204                	addi	s1,sp,256
  ea:	0000                	unimp
  ec:	0b00                	addi	s0,sp,400
  ee:	0000                	unimp
  f0:	000c                	addi	a1,sp,0
  f2:	0000                	unimp
  f4:	0000                	unimp
  f6:	0000                	unimp
  f8:	029a                	slli	t0,t0,0x6
  fa:	e000                	fsw	fs0,0(s0)
  fc:	000e                	0xe
  fe:	0000                	unimp
 100:	0034                	addi	a3,sp,8
 102:	0000                	unimp
 104:	0000                	unimp
 106:	0000                	unimp
 108:	02a8                	addi	a0,sp,328
 10a:	e000                	fsw	fs0,0(s0)
 10c:	0018                	addi	a4,sp,0
 10e:	0000                	unimp
 110:	0204                	addi	s1,sp,256
 112:	0000                	unimp
 114:	0e00                	addi	s0,sp,784
 116:	0410                	addi	a2,sp,512
 118:	0002                	0x2
 11a:	0000                	unimp
 11c:	0288                	addi	a0,sp,320
 11e:	0804                	addi	s1,sp,16
 120:	0000                	unimp
 122:	8100                	0x8100
 124:	0401                	addi	s0,s0,0
 126:	0006                	0x6
 128:	0000                	unimp
 12a:	04c1                	addi	s1,s1,16
 12c:	0002                	0x2
 12e:	0000                	unimp
 130:	04c8                	addi	a0,sp,580
 132:	0002                	0x2
 134:	0000                	unimp
 136:	000e                	0xe
 138:	007c                	addi	a5,sp,12
 13a:	0000                	unimp
 13c:	0000                	unimp
 13e:	0000                	unimp
 140:	02c0                	addi	s0,sp,324
 142:	e000                	fsw	fs0,0(s0)
 144:	0158                	addi	a4,sp,132
 146:	0000                	unimp
 148:	0204                	addi	s1,sp,256
 14a:	0000                	unimp
 14c:	0e00                	addi	s0,sp,784
 14e:	0460                	addi	s0,sp,524
 150:	0002                	0x2
 152:	0000                	unimp
 154:	0a88                	addi	a0,sp,336
 156:	1404                	addi	s1,sp,544
 158:	0000                	unimp
 15a:	8900                	0x8900
 15c:	930c920b          	p.lh	tp,-1744(s9!)
 160:	940d                	srai	s0,s0,0x23
 162:	950e                	add	a0,a0,gp
 164:	9710960f          	0x9710960f
 168:	8111                	srli	a0,a0,0x4
 16a:	9809                	andi	s0,s0,-30
 16c:	0412                	slli	s0,s0,0x4
 16e:	0032                	0x32
 170:	0000                	unimp
 172:	c10a                	sw	sp,128(sp)
 174:	0204                	addi	s1,sp,256
 176:	0000                	unimp
 178:	c800                	sw	s0,16(s0)
 17a:	0404                	addi	s1,sp,512
 17c:	0000                	unimp
 17e:	c900                	sw	s0,16(a0)
 180:	0204                	addi	s1,sp,256
 182:	0000                	unimp
 184:	d200                	sw	s0,32(a2)
 186:	0204                	addi	s1,sp,256
 188:	0000                	unimp
 18a:	d300                	sw	s0,32(a4)
 18c:	0204                	addi	s1,sp,256
 18e:	0000                	unimp
 190:	d400                	sw	s0,40(s0)
 192:	0204                	addi	s1,sp,256
 194:	0000                	unimp
 196:	d500                	sw	s0,40(a0)
 198:	0204                	addi	s1,sp,256
 19a:	0000                	unimp
 19c:	d600                	sw	s0,40(a2)
 19e:	0204                	addi	s1,sp,256
 1a0:	0000                	unimp
 1a2:	d700                	sw	s0,40(a4)
 1a4:	0204                	addi	s1,sp,256
 1a6:	0000                	unimp
 1a8:	d800                	sw	s0,48(s0)
 1aa:	0204                	addi	s1,sp,256
 1ac:	0000                	unimp
 1ae:	0e00                	addi	s0,sp,784
 1b0:	0400                	addi	s0,sp,512
 1b2:	0002                	0x2
 1b4:	0000                	unimp
 1b6:	000c000b          	p.lb	zero,0(s8!) # 19000 <_stack_len+0x11000>
 1ba:	0000                	unimp
 1bc:	0000                	unimp
 1be:	0000                	unimp
 1c0:	0418                	addi	a4,sp,512
 1c2:	e000                	fsw	fs0,0(s0)
 1c4:	000a                	0xa
 1c6:	0000                	unimp
 1c8:	0048                	addi	a0,sp,4
 1ca:	0000                	unimp
 1cc:	0000                	unimp
 1ce:	0000                	unimp
 1d0:	0422                	slli	s0,s0,0x8
 1d2:	e000                	fsw	fs0,0(s0)
 1d4:	0030                	addi	a2,sp,8
 1d6:	0000                	unimp
 1d8:	0204                	addi	s1,sp,256
 1da:	0000                	unimp
 1dc:	0e00                	addi	s0,sp,784
 1de:	0410                	addi	a2,sp,512
 1e0:	0008                	addi	a0,sp,0
 1e2:	0000                	unimp
 1e4:	0288                	addi	a0,sp,320
 1e6:	0389                	addi	t2,t2,2
 1e8:	0181                	addi	gp,gp,0
 1ea:	0492                	slli	s1,s1,0x4
 1ec:	1604                	addi	s1,sp,800
 1ee:	0000                	unimp
 1f0:	0a00                	addi	s0,sp,272
 1f2:	04c1                	addi	s1,s1,16
 1f4:	0002                	0x2
 1f6:	0000                	unimp
 1f8:	04c8                	addi	a0,sp,580
 1fa:	0004                	addi	s1,sp,0
 1fc:	0000                	unimp
 1fe:	04c9                	addi	s1,s1,18
 200:	0002                	0x2
 202:	0000                	unimp
 204:	04d2                	slli	s1,s1,0x14
 206:	0002                	0x2
 208:	0000                	unimp
 20a:	000e                	0xe
 20c:	0204                	addi	s1,sp,256
 20e:	0000                	unimp
 210:	0b00                	addi	s0,sp,400
 212:	0000                	unimp
 214:	0058                	addi	a4,sp,4
 216:	0000                	unimp
 218:	0000                	unimp
 21a:	0000                	unimp
 21c:	0452                	slli	s0,s0,0x14
 21e:	e000                	fsw	fs0,0(s0)
 220:	006c                	addi	a1,sp,12
 222:	0000                	unimp
 224:	0204                	addi	s1,sp,256
 226:	0000                	unimp
 228:	0e00                	addi	s0,sp,784
 22a:	0420                	addi	s0,sp,520
 22c:	000e                	0xe
 22e:	0000                	unimp
 230:	058e                	slli	a1,a1,0x3
 232:	018a068f          	0x18a068f
 236:	038c028b          	p.lb	t0,56(s8!)
 23a:	048d                	addi	s1,s1,3
 23c:	0790                	addi	a2,sp,960
 23e:	4a04                	lw	s1,16(a2)
 240:	0000                	unimp
 242:	ca00                	sw	s0,16(a2)
 244:	0204                	addi	s1,sp,256
 246:	0000                	unimp
 248:	cb00                	sw	s0,16(a4)
 24a:	0204                	addi	s1,sp,256
 24c:	0000                	unimp
 24e:	cc00                	sw	s0,24(s0)
 250:	0204                	addi	s1,sp,256
 252:	0000                	unimp
 254:	cd00                	sw	s0,24(a0)
 256:	0204                	addi	s1,sp,256
 258:	0000                	unimp
 25a:	ce00                	sw	s0,24(a2)
 25c:	0204                	addi	s1,sp,256
 25e:	0000                	unimp
 260:	cf00                	sw	s0,24(a4)
 262:	0204                	addi	s1,sp,256
 264:	0000                	unimp
 266:	d000                	sw	s0,32(s0)
 268:	0204                	addi	s1,sp,256
 26a:	0000                	unimp
 26c:	0e00                	addi	s0,sp,784
 26e:	0000                	unimp
 270:	000c                	addi	a1,sp,0
 272:	0000                	unimp
 274:	ffff                	0xffff
 276:	ffff                	0xffff
 278:	7c010003          	lb	zero,1984(sp)
 27c:	0c01                	addi	s8,s8,0
 27e:	0002                	0x2
 280:	000c                	addi	a1,sp,0
 282:	0000                	unimp
 284:	0270                	addi	a2,sp,268
 286:	0000                	unimp
 288:	04be                	slli	s1,s1,0xf
 28a:	e000                	fsw	fs0,0(s0)
 28c:	0010                	addi	a2,sp,0
 28e:	0000                	unimp
 290:	000c                	addi	a1,sp,0
 292:	0000                	unimp
 294:	0270                	addi	a2,sp,268
 296:	0000                	unimp
 298:	04ce                	slli	s1,s1,0x13
 29a:	e000                	fsw	fs0,0(s0)
 29c:	0020                	addi	s0,sp,8
 29e:	0000                	unimp
 2a0:	000c                	addi	a1,sp,0
 2a2:	0000                	unimp
 2a4:	0270                	addi	a2,sp,268
 2a6:	0000                	unimp
 2a8:	04ee                	slli	s1,s1,0x1b
 2aa:	e000                	fsw	fs0,0(s0)
 2ac:	0024                	addi	s1,sp,8
 2ae:	0000                	unimp
 2b0:	000c                	addi	a1,sp,0
 2b2:	0000                	unimp
 2b4:	0270                	addi	a2,sp,268
 2b6:	0000                	unimp
 2b8:	0512                	slli	a0,a0,0x4
 2ba:	e000                	fsw	fs0,0(s0)
 2bc:	0024                	addi	s1,sp,8
 2be:	0000                	unimp
 2c0:	000c                	addi	a1,sp,0
 2c2:	0000                	unimp
 2c4:	0270                	addi	a2,sp,268
 2c6:	0000                	unimp
 2c8:	0536                	slli	a0,a0,0xd
 2ca:	e000                	fsw	fs0,0(s0)
 2cc:	002c                	addi	a1,sp,8
 2ce:	0000                	unimp
 2d0:	000c                	addi	a1,sp,0
 2d2:	0000                	unimp
 2d4:	0270                	addi	a2,sp,268
 2d6:	0000                	unimp
 2d8:	0562                	slli	a0,a0,0x18
 2da:	e000                	fsw	fs0,0(s0)
 2dc:	002c                	addi	a1,sp,8
 2de:	0000                	unimp
 2e0:	000c                	addi	a1,sp,0
 2e2:	0000                	unimp
 2e4:	0270                	addi	a2,sp,268
 2e6:	0000                	unimp
 2e8:	058e                	slli	a1,a1,0x3
 2ea:	e000                	fsw	fs0,0(s0)
 2ec:	0018                	addi	a4,sp,0
 2ee:	0000                	unimp
 2f0:	000c                	addi	a1,sp,0
 2f2:	0000                	unimp
 2f4:	0270                	addi	a2,sp,268
 2f6:	0000                	unimp
 2f8:	05a6                	slli	a1,a1,0x9
 2fa:	e000                	fsw	fs0,0(s0)
 2fc:	002c                	addi	a1,sp,8
 2fe:	0000                	unimp
 300:	000c                	addi	a1,sp,0
 302:	0000                	unimp
 304:	0270                	addi	a2,sp,268
 306:	0000                	unimp
 308:	05d2                	slli	a1,a1,0x14
 30a:	e000                	fsw	fs0,0(s0)
 30c:	0018                	addi	a4,sp,0
 30e:	0000                	unimp
 310:	000c                	addi	a1,sp,0
 312:	0000                	unimp
 314:	0270                	addi	a2,sp,268
 316:	0000                	unimp
 318:	05ea                	slli	a1,a1,0x1a
 31a:	e000                	fsw	fs0,0(s0)
 31c:	0018                	addi	a4,sp,0
 31e:	0000                	unimp
 320:	000c                	addi	a1,sp,0
 322:	0000                	unimp
 324:	0270                	addi	a2,sp,268
 326:	0000                	unimp
 328:	0602                	slli	a2,a2,0x0
 32a:	e000                	fsw	fs0,0(s0)
 32c:	0020                	addi	s0,sp,8
 32e:	0000                	unimp
 330:	000c                	addi	a1,sp,0
 332:	0000                	unimp
 334:	0270                	addi	a2,sp,268
 336:	0000                	unimp
 338:	0622                	slli	a2,a2,0x8
 33a:	e000                	fsw	fs0,0(s0)
 33c:	0020                	addi	s0,sp,8
 33e:	0000                	unimp
 340:	000c                	addi	a1,sp,0
 342:	0000                	unimp
 344:	0270                	addi	a2,sp,268
 346:	0000                	unimp
 348:	0642                	slli	a2,a2,0x10
 34a:	e000                	fsw	fs0,0(s0)
 34c:	0018                	addi	a4,sp,0
 34e:	0000                	unimp
 350:	0040                	addi	s0,sp,4
 352:	0000                	unimp
 354:	0270                	addi	a2,sp,268
 356:	0000                	unimp
 358:	06d6                	slli	a3,a3,0x15
 35a:	e000                	fsw	fs0,0(s0)
 35c:	00ec                	addi	a1,sp,76
 35e:	0000                	unimp
 360:	0204                	addi	s1,sp,256
 362:	0000                	unimp
 364:	0e00                	addi	s0,sp,784
 366:	0410                	addi	a2,sp,512
 368:	000e                	0xe
 36a:	0000                	unimp
 36c:	0181                	addi	gp,gp,0
 36e:	0288                	addi	a0,sp,320
 370:	0389                	addi	t2,t2,2
 372:	0492                	slli	s1,s1,0x4
 374:	d004                	sw	s1,32(s0)
 376:	0000                	unimp
 378:	c100                	sw	s0,0(a0)
 37a:	0204                	addi	s1,sp,256
 37c:	0000                	unimp
 37e:	c800                	sw	s0,16(s0)
 380:	0204                	addi	s1,sp,256
 382:	0000                	unimp
 384:	c900                	sw	s0,16(a0)
 386:	0204                	addi	s1,sp,256
 388:	0000                	unimp
 38a:	d200                	sw	s0,32(a2)
 38c:	0404                	addi	s1,sp,512
 38e:	0000                	unimp
 390:	0e00                	addi	s0,sp,784
	...

Disassembly of section .debug_info:

00000000 <.debug_info>:
       0:	0924                	addi	s1,sp,152
       2:	0000                	unimp
       4:	0004                	addi	s1,sp,0
       6:	0000                	unimp
       8:	0000                	unimp
       a:	0104                	addi	s1,sp,128
       c:	014d                	addi	sp,sp,19
       e:	0000                	unimp
      10:	400c                	lw	a1,0(s0)
      12:	0000                	unimp
      14:	fe00                	fsw	fs0,56(a2)
      16:	0001                	nop
      18:	8400                	0x8400
      1a:	0000                	unimp
      1c:	3ae0                	fld	fs0,240(a3)
      1e:	0004                	addi	s1,sp,0
      20:	0000                	unimp
      22:	0000                	unimp
      24:	0200                	addi	s0,sp,256
      26:	029f 0000 2802      	0x28020000029f
      2c:	0030                	addi	a2,sp,8
      2e:	0000                	unimp
      30:	026c0403          	lb	s0,38(s8)
      34:	0000                	unimp
      36:	a602                	fsd	ft0,264(sp)
      38:	0002                	0x2
      3a:	0200                	addi	s0,sp,256
      3c:	00002563          	p.beqimm	zero,0,46 <_min_stack-0x1fba>
      40:	0400                	addi	s0,sp,512
      42:	0504                	addi	s1,sp,640
      44:	6e69                	lui	t3,0x1a
      46:	0074                	addi	a3,sp,12
      48:	4105                	li	sp,1
      4a:	0000                	unimp
      4c:	0600                	addi	s0,sp,768
      4e:	0704                	addi	s1,sp,896
      50:	000001c3          	fmadd.s	ft3,ft0,ft0,ft0,rne
      54:	0806                	slli	a6,a6,0x1
      56:	b105                	j	fffffc76 <pulp__FC+0xfffffc77>
      58:	0000                	unimp
      5a:	0600                	addi	s0,sp,768
      5c:	0410                	addi	a2,sp,512
      5e:	0121                	addi	sp,sp,8
      60:	0000                	unimp
      62:	0106                	slli	sp,sp,0x1
      64:	2f06                	fld	ft10,64(sp)
      66:	0001                	nop
      68:	0600                	addi	s0,sp,768
      6a:	0502                	slli	a0,a0,0x0
      6c:	0008                	addi	a0,sp,0
      6e:	0000                	unimp
      70:	0406                	slli	s0,s0,0x1
      72:	b605                	j	fffffb92 <pulp__FC+0xfffffb93>
      74:	0000                	unimp
      76:	0600                	addi	s0,sp,768
      78:	0801                	addi	a6,a6,0
      7a:	012d                	addi	sp,sp,11
      7c:	0000                	unimp
      7e:	d702                	sw	zero,172(sp)
      80:	0001                	nop
      82:	0300                	addi	s0,sp,384
      84:	8931                	andi	a0,a0,12
      86:	0000                	unimp
      88:	0600                	addi	s0,sp,768
      8a:	0702                	slli	a4,a4,0x0
      8c:	000001eb          	0x1eb
      90:	0406                	slli	s0,s0,0x1
      92:	0001be07          	fld	ft8,0(gp)
      96:	0600                	addi	s0,sp,768
      98:	0708                	addi	a0,sp,896
      9a:	01b9                	addi	gp,gp,14
      9c:	0000                	unimp
      9e:	0000ae07          	flw	ft8,0(ra)
      a2:	ae00                	fsd	fs0,24(a2)
      a4:	0000                	unimp
      a6:	0800                	addi	s0,sp,16
      a8:	004d                	c.addi	zero,19
      aa:	0000                	unimp
      ac:	0106000f          	0x106000f
      b0:	3608                	fld	fa0,40(a2)
      b2:	0001                	nop
      b4:	0900                	addi	s0,sp,144
      b6:	00ae                	slli	ra,ra,0xb
      b8:	0000                	unimp
      ba:	bf0a                	fsd	ft2,440(sp)
      bc:	0000                	unimp
      be:	0100                	addi	s0,sp,128
      c0:	9e80                	0x9e80
      c2:	0000                	unimp
      c4:	0500                	addi	s0,sp,640
      c6:	00090c03          	lb	s8,0(s2) # ffff9000 <pulp__FC+0xffff9001>
      ca:	0be0                	addi	s0,sp,476
      cc:	02ae                	slli	t0,t0,0xb
      ce:	0000                	unimp
      d0:	5201                	li	tp,-32
      d2:	5201                	li	tp,-32
      d4:	0004                	addi	s1,sp,0
      d6:	6ce0                	flw	fs0,92(s1)
      d8:	0000                	unimp
      da:	0100                	addi	s0,sp,128
      dc:	a69c                	fsd	fa5,8(a3)
      de:	0001                	nop
      e0:	0c00                	addi	s0,sp,528
      e2:	02cd                	addi	t0,t0,19
      e4:	0000                	unimp
      e6:	5401                	li	s0,-32
      e8:	4101                	li	sp,0
      ea:	0000                	unimp
      ec:	9f00                	0x9f00
      ee:	610d                	addi	sp,sp,160
      f0:	0100                	addi	s0,sp,128
      f2:	0155                	addi	sp,sp,21
      f4:	0041                	c.addi	zero,16
      f6:	0000                	unimp
      f8:	0000                	unimp
      fa:	0000                	unimp
      fc:	620d                	lui	tp,0x3
      fe:	0100                	addi	s0,sp,128
     100:	0155                	addi	sp,sp,21
     102:	0041                	c.addi	zero,16
     104:	0000                	unimp
     106:	00000013          	nop
     10a:	630d                	lui	t1,0x3
     10c:	0100                	addi	s0,sp,128
     10e:	0155                	addi	sp,sp,21
     110:	0041                	c.addi	zero,16
     112:	0000                	unimp
     114:	0026                	0x26
     116:	0000                	unimp
     118:	650d                	lui	a0,0x3
     11a:	0100                	addi	s0,sp,128
     11c:	0155                	addi	sp,sp,21
     11e:	0041                	c.addi	zero,16
     120:	0000                	unimp
     122:	0039                	c.addi	zero,14
     124:	0000                	unimp
     126:	640d                	lui	s0,0x3
     128:	0100                	addi	s0,sp,128
     12a:	0155                	addi	sp,sp,21
     12c:	0041                	c.addi	zero,16
     12e:	0000                	unimp
     130:	004c                	addi	a1,sp,4
     132:	0000                	unimp
     134:	120e                	slli	tp,tp,0x23
     136:	0000                	unimp
     138:	0100                	addi	s0,sp,128
     13a:	0156                	slli	sp,sp,0x15
     13c:	01a6                	slli	gp,gp,0x9
     13e:	0000                	unimp
     140:	005f 0000 050f      	0x50f0000005f
     146:	0001                	nop
     148:	0100                	addi	s0,sp,128
     14a:	0156                	slli	sp,sp,0x15
     14c:	01a6                	slli	gp,gp,0x9
     14e:	0000                	unimp
     150:	4008                	lw	a0,0(s0)
     152:	1040                	addi	s0,sp,36
     154:	e010                	fsw	fa2,0(s0)
     156:	0001                	nop
     158:	0100                	addi	s0,sp,128
     15a:	0156                	slli	sp,sp,0x15
     15c:	01a6                	slli	gp,gp,0x9
     15e:	0000                	unimp
     160:	8084                	0x8084
     162:	c180                	sw	s0,0(a1)
     164:	0f7c                	addi	a5,sp,924
     166:	010c                	addi	a1,sp,128
     168:	0000                	unimp
     16a:	5601                	li	a2,-32
     16c:	a601                	j	46c <_min_stack-0x1b94>
     16e:	0001                	nop
     170:	1000                	addi	s0,sp,32
     172:	4040                	lw	s0,4(s0)
     174:	0f10                	addi	a2,sp,912
     176:	00000113          	li	sp,0
     17a:	5601                	li	a2,-32
     17c:	a601                	j	47c <_min_stack-0x1b84>
     17e:	0001                	nop
     180:	1400                	addi	s0,sp,544
     182:	4040                	lw	s0,4(s0)
     184:	0f10                	addi	a2,sp,912
     186:	011a                	slli	sp,sp,0x6
     188:	0000                	unimp
     18a:	5601                	li	a2,-32
     18c:	a601                	j	48c <_min_stack-0x1b74>
     18e:	0001                	nop
     190:	1800                	addi	s0,sp,48
     192:	4040                	lw	s0,4(s0)
     194:	0f10                	addi	a2,sp,912
     196:	02dc                	addi	a5,sp,324
     198:	0000                	unimp
     19a:	5601                	li	a2,-32
     19c:	a601                	j	49c <_min_stack-0x1b64>
     19e:	0001                	nop
     1a0:	1c00                	addi	s0,sp,560
     1a2:	4040                	lw	s0,4(s0)
     1a4:	0010                	addi	a2,sp,0
     1a6:	0411                	addi	s0,s0,4
     1a8:	0048                	addi	a0,sp,4
     1aa:	0000                	unimp
     1ac:	3512                	fld	fa0,288(sp)
     1ae:	0000                	unimp
     1b0:	0100                	addi	s0,sp,128
     1b2:	0146                	slli	sp,sp,0x11
     1b4:	0041                	c.addi	zero,16
     1b6:	0000                	unimp
     1b8:	0422                	slli	s0,s0,0x8
     1ba:	e000                	fsw	fs0,0(s0)
     1bc:	0030                	addi	a2,sp,8
     1be:	0000                	unimp
     1c0:	9c01                	0x9c01
     1c2:	00000233          	add	tp,zero,zero
     1c6:	01007313          	andi	t1,zero,16
     1ca:	0146                	slli	sp,sp,0x11
     1cc:	00000233          	add	tp,zero,zero
     1d0:	00000087          	0x87
     1d4:	690d                	lui	s2,0x3
     1d6:	0100                	addi	s0,sp,128
     1d8:	0148                	addi	a0,sp,132
     1da:	0041                	c.addi	zero,16
     1dc:	0000                	unimp
     1de:	00be                	slli	ra,ra,0xf
     1e0:	0000                	unimp
     1e2:	1114                	addi	a3,sp,160
     1e4:	0005                	c.addi	zero,1
     1e6:	3c00                	fld	fs0,56(s0)
     1e8:	0004                	addi	s1,sp,0
     1ea:	04e0                	addi	s0,sp,588
     1ec:	0000                	unimp
     1ee:	0100                	addi	s0,sp,128
     1f0:	014d                	addi	sp,sp,19
     1f2:	0000020f          	0x20f
     1f6:	2115                	jal	61a <_min_stack-0x19e6>
     1f8:	0005                	c.addi	zero,1
     1fa:	f800                	fsw	fs0,48(s0)
     1fc:	0000                	unimp
     1fe:	1600                	addi	s0,sp,800
     200:	0440                	addi	s0,sp,516
     202:	e000                	fsw	fs0,0(s0)
     204:	0582                	slli	a1,a1,0x0
     206:	0000                	unimp
     208:	015a0117          	auipc	sp,0x15a0
     20c:	003a                	0x3a
     20e:	1800                	addi	s0,sp,48
     210:	0511                	addi	a0,a0,4
     212:	0000                	unimp
     214:	044e                	slli	s0,s0,0x13
     216:	e000                	fsw	fs0,0(s0)
     218:	0004                	addi	s1,sp,0
     21a:	0000                	unimp
     21c:	4b01                	li	s6,0
     21e:	1501                	addi	a0,a0,-32
     220:	0521                	addi	a0,a0,8
     222:	0000                	unimp
     224:	010c                	addi	a1,sp,128
     226:	0000                	unimp
     228:	5019                	0x5019
     22a:	0004                	addi	s1,sp,0
     22c:	82e0                	0x82e0
     22e:	0005                	c.addi	zero,1
     230:	0000                	unimp
     232:	1100                	addi	s0,sp,160
     234:	b504                	fsd	fs1,40(a0)
     236:	0000                	unimp
     238:	1200                	addi	s0,sp,288
     23a:	000000ef          	jal	ra,23a <_min_stack-0x1dc6>
     23e:	3701                	jal	13e <_min_stack-0x1ec2>
     240:	4101                	li	sp,0
     242:	0000                	unimp
     244:	c000                	sw	s0,0(s0)
     246:	0002                	0x2
     248:	58e0                	lw	s0,116(s1)
     24a:	0001                	nop
     24c:	0100                	addi	s0,sp,128
     24e:	4b9c                	lw	a5,16(a5)
     250:	1a000003          	lb	zero,416(zero) # 1a0 <_min_stack-0x1e60>
     254:	02d5                	addi	t0,t0,21
     256:	0000                	unimp
     258:	3701                	jal	158 <_min_stack-0x1ea8>
     25a:	3301                	jal	ffffff5a <pulp__FC+0xffffff5b>
     25c:	0002                	0x2
     25e:	2400                	fld	fs0,8(s0)
     260:	0001                	nop
     262:	1b00                	addi	s0,sp,432
     264:	701c                	flw	fa5,32(s0)
     266:	39010063          	beq	sp,a6,5e6 <_min_stack-0x1a1a>
     26a:	4101                	li	sp,0
     26c:	0000                	unimp
     26e:	1d00                	addi	s0,sp,688
     270:	6176                	flw	ft2,92(sp)
     272:	0100                	addi	s0,sp,128
     274:	013a                	slli	sp,sp,0xe
     276:	0036                	0x36
     278:	0000                	unimp
     27a:	7fac9103          	lh	sp,2042(s9)
     27e:	4b1e                	lw	s6,196(sp)
     280:	ea000003          	lb	zero,-352(zero) # fffffea0 <pulp__FC+0xfffffea1>
     284:	0002                	0x2
     286:	d8e0                	sw	s0,116(s1)
     288:	0000                	unimp
     28a:	0100                	addi	s0,sp,128
     28c:	013e                	slli	sp,sp,0xf
     28e:	5b1f 0003 0000      	0x35b1f
     294:	7115                	addi	sp,sp,-224
     296:	45000003          	lb	zero,1104(zero) # 450 <_min_stack-0x1bb0>
     29a:	0001                	nop
     29c:	1500                	addi	s0,sp,672
     29e:	0366                	slli	t1,t1,0x19
     2a0:	0000                	unimp
     2a2:	000001e7          	jalr	gp,zero
     2a6:	d820                	sw	s0,112(s0)
     2a8:	0000                	unimp
     2aa:	2100                	fld	fs0,0(a0)
     2ac:	0000037b          	lp.starti	x6,2ac <_min_stack-0x1d54>
     2b0:	02ad                	addi	t0,t0,11
     2b2:	0000                	unimp
     2b4:	8621                	srai	a2,a2,0x8
     2b6:	05000003          	lb	zero,80(zero) # 50 <_min_stack-0x1fb0>
     2ba:	21000003          	lb	zero,528(zero) # 210 <_min_stack-0x1df0>
     2be:	0391                	addi	t2,t2,4
     2c0:	0000                	unimp
     2c2:	035d                	addi	t1,t1,23
     2c4:	0000                	unimp
     2c6:	9b22                	add	s6,s6,s0
     2c8:	03000003          	lb	zero,48(zero) # 30 <_min_stack-0x1fd0>
     2cc:	a891                	j	320 <_min_stack-0x1ce0>
     2ce:	237f                	0x237f
     2d0:	03a6                	slli	t2,t2,0x9
     2d2:	0000                	unimp
     2d4:	040e                	slli	s0,s0,0x3
     2d6:	e000                	fsw	fs0,0(s0)
     2d8:	ae24                	fsd	fs1,88(a2)
     2da:	f0000003          	lb	zero,-256(zero) # ffffff00 <pulp__FC+0xffffff01>
     2de:	0000                	unimp
     2e0:	ed00                	fsw	fs0,24(a0)
     2e2:	0002                	0x2
     2e4:	2200                	fld	fs0,0(a2)
     2e6:	000003af          	0x3af
     2ea:	5a01                	li	s4,-32
     2ec:	2500                	fld	fs0,8(a0)
     2ee:	04f0                	addi	a2,sp,588
     2f0:	0000                	unimp
     2f2:	040e                	slli	s0,s0,0x3
     2f4:	e000                	fsw	fs0,0(s0)
     2f6:	0108                	addi	a0,sp,128
     2f8:	0000                	unimp
     2fa:	2e01                	jal	60a <_min_stack-0x19f6>
     2fc:	3601                	jal	fffffdfc <pulp__FC+0xfffffdfd>
     2fe:	15000003          	lb	zero,336(zero) # 150 <_min_stack-0x1eb0>
     302:	04fc                	addi	a5,sp,588
     304:	0000                	unimp
     306:	039e                	slli	t2,t2,0x7
     308:	0000                	unimp
     30a:	0715                	addi	a4,a4,5
     30c:	0005                	c.addi	zero,1
     30e:	b200                	fsd	fs0,32(a2)
     310:	26000003          	lb	zero,608(zero) # 260 <_min_stack-0x1da0>
     314:	0511                	addi	a0,a0,4
     316:	0000                	unimp
     318:	040e                	slli	s0,s0,0x3
     31a:	e000                	fsw	fs0,0(s0)
     31c:	0108                	addi	a0,sp,128
     31e:	0000                	unimp
     320:	9801                	andi	s0,s0,-32
     322:	2115                	jal	746 <_min_stack-0x18ba>
     324:	0005                	c.addi	zero,1
     326:	b200                	fsd	fs0,32(a2)
     328:	19000003          	lb	zero,400(zero) # 190 <_min_stack-0x1e70>
     32c:	0416                	slli	s0,s0,0x5
     32e:	e000                	fsw	fs0,0(s0)
     330:	0582                	slli	a1,a1,0x0
     332:	0000                	unimp
     334:	0000                	unimp
     336:	7e19                	lui	t3,0xfffe6
     338:	5ae00003          	lb	zero,1454(zero) # 5ae <_min_stack-0x1a52>
     33c:	0006                	0x6
     33e:	1900                	addi	s0,sp,176
     340:	03aa                	slli	t2,t2,0xa
     342:	e000                	fsw	fs0,0(s0)
     344:	00000793          	li	a5,0
     348:	0000                	unimp
     34a:	2700                	fld	fs0,8(a4)
     34c:	01d0                	addi	a2,sp,196
     34e:	0000                	unimp
     350:	f301                	bnez	a4,250 <_min_stack-0x1db0>
     352:	0041                	c.addi	zero,16
     354:	0000                	unimp
     356:	bb01                	j	66 <_min_stack-0x1f9a>
     358:	28000003          	lb	zero,640(zero) # 280 <_min_stack-0x1d80>
     35c:	0074756f          	jal	a0,47b62 <tohost+0x27b5a>
     360:	f301                	bnez	a4,260 <_min_stack-0x1da0>
     362:	000003bb          	0x3bb
     366:	d529                	beqz	a0,2b0 <_min_stack-0x1d50>
     368:	0002                	0x2
     36a:	0100                	addi	s0,sp,128
     36c:	000233f3          	csrrc	t2,0x0,tp
     370:	2800                	fld	fs0,16(s0)
     372:	6176                	flw	ft2,92(sp)
     374:	0100                	addi	s0,sp,128
     376:	000036f3          	csrrc	a3,0x0,zero
     37a:	2a00                	fld	fs0,16(a2)
     37c:	003a                	0x3a
     37e:	0000                	unimp
     380:	f501                	bnez	a0,288 <_min_stack-0x1d78>
     382:	0041                	c.addi	zero,16
     384:	0000                	unimp
     386:	6461702b          	0x6461702b
     38a:	0100                	addi	s0,sp,128
     38c:	41f5                	li	gp,29
     38e:	0000                	unimp
     390:	2b00                	fld	fs0,16(a4)
     392:	6370                	flw	fa2,68(a4)
     394:	0100                	addi	s0,sp,128
     396:	41f6                	lw	gp,92(sp)
     398:	0000                	unimp
     39a:	2b00                	fld	fs0,16(a4)
     39c:	00726373          	csrrsi	t1,0x7,4
     3a0:	f701                	bnez	a4,2a8 <_min_stack-0x1d58>
     3a2:	000003c7          	fmsub.s	ft7,ft0,ft0,ft0,rne
     3a6:	6f2c                	flw	fa1,88(a4)
     3a8:	7475                	lui	s0,0xffffd
     3aa:	0100                	addi	s0,sp,128
     3ac:	012d                	addi	sp,sp,11
     3ae:	1c2d                	addi	s8,s8,-21
     3b0:	10010073          	0x10010073
     3b4:	c101                	beqz	a0,3b4 <_min_stack-0x1c4c>
     3b6:	00000003          	lb	zero,0(zero) # 0 <_min_stack-0x2000>
     3ba:	1100                	addi	s0,sp,160
     3bc:	c104                	sw	s1,0(a0)
     3be:	11000003          	lb	zero,272(zero) # 110 <_min_stack-0x1ef0>
     3c2:	ae04                	fsd	fs1,24(a2)
     3c4:	0000                	unimp
     3c6:	0700                	addi	s0,sp,896
     3c8:	00ae                	slli	ra,ra,0xb
     3ca:	0000                	unimp
     3cc:	000003d7          	pv.add.h	t2,zero,zero
     3d0:	4d08                	lw	a0,24(a0)
     3d2:	0000                	unimp
     3d4:	0100                	addi	s0,sp,128
     3d6:	2700                	fld	fs0,8(a4)
     3d8:	00f6                	slli	ra,ra,0x1d
     3da:	0000                	unimp
     3dc:	b901                	j	ffffffec <pulp__FC+0xffffffed>
     3de:	0041                	c.addi	zero,16
     3e0:	0000                	unimp
     3e2:	7601                	lui	a2,0xfffe0
     3e4:	0004                	addi	s1,sp,0
     3e6:	2800                	fld	fs0,16(s0)
     3e8:	0074756f          	jal	a0,47bee <tohost+0x27be6>
     3ec:	b901                	j	fffffffc <pulp__FC+0xfffffffd>
     3ee:	000003bb          	0x3bb
     3f2:	6928                	flw	fa0,80(a0)
     3f4:	0100                	addi	s0,sp,128
     3f6:	41b9                	li	gp,14
     3f8:	0000                	unimp
     3fa:	2800                	fld	fs0,16(s0)
     3fc:	0062                	0x62
     3fe:	b901                	j	e <_min_stack-0x1ff2>
     400:	0041                	c.addi	zero,16
     402:	0000                	unimp
     404:	7328                	flw	fa0,96(a4)
     406:	b9010067          	jr	-1136(sp) # 159fd98 <tohost+0x157fd90>
     40a:	0041                	c.addi	zero,16
     40c:	0000                	unimp
     40e:	3a29                	jal	fffffd28 <pulp__FC+0xfffffd29>
     410:	0000                	unimp
     412:	0100                	addi	s0,sp,128
     414:	41b9                	li	gp,14
     416:	0000                	unimp
     418:	2800                	fld	fs0,16(s0)
     41a:	6170                	flw	fa2,68(a0)
     41c:	0064                	addi	s1,sp,12
     41e:	b901                	j	2e <_min_stack-0x1fd2>
     420:	0041                	c.addi	zero,16
     422:	0000                	unimp
     424:	e029                	bnez	s0,466 <_min_stack-0x1b9a>
     426:	0000                	unimp
     428:	0100                	addi	s0,sp,128
     42a:	aeb9                	j	788 <_min_stack-0x1878>
     42c:	0000                	unimp
     42e:	2a00                	fld	fs0,16(a2)
     430:	00000257          	pv.add.h	tp,zero,zero
     434:	bb01                	j	144 <_min_stack-0x1ebc>
     436:	0476                	slli	s0,s0,0x1d
     438:	0000                	unimp
     43a:	0100732b          	0x100732b
     43e:	c1bc                	sw	a5,64(a1)
     440:	2b000003          	lb	zero,688(zero) # 2b0 <_min_stack-0x1d50>
     444:	656e                	flw	fa0,216(sp)
     446:	bd010067          	jr	-1072(sp)
     44a:	0041                	c.addi	zero,16
     44c:	0000                	unimp
     44e:	0063702b          	0x63702b
     452:	bd01                	j	262 <_min_stack-0x1d9e>
     454:	0041                	c.addi	zero,16
     456:	0000                	unimp
     458:	0100742b          	0x100742b
     45c:	4dbe                	lw	s11,204(sp)
     45e:	0000                	unimp
     460:	2b00                	fld	fs0,16(a4)
     462:	0075                	c.addi	zero,29
     464:	be01                	j	ffffff74 <pulp__FC+0xffffff75>
     466:	004d                	c.addi	zero,19
     468:	0000                	unimp
     46a:	2b2d                	jal	9a4 <_min_stack-0x165c>
     46c:	0074                	addi	a3,sp,12
     46e:	d401                	beqz	s0,376 <_min_stack-0x1c8a>
     470:	0041                	c.addi	zero,16
     472:	0000                	unimp
     474:	0000                	unimp
     476:	0000ae07          	flw	ft8,0(ra)
     47a:	8600                	0x8600
     47c:	0004                	addi	s1,sp,0
     47e:	0800                	addi	s0,sp,16
     480:	004d                	c.addi	zero,19
     482:	0000                	unimp
     484:	001f 0027 0000      	0x27001f
     48a:	0100                	addi	s0,sp,128
     48c:	0000419b          	0x419b
     490:	0100                	addi	s0,sp,128
     492:	04f0                	addi	a2,sp,588
     494:	0000                	unimp
     496:	6f28                	flw	fa0,88(a4)
     498:	7475                	lui	s0,0xffffd
     49a:	0100                	addi	s0,sp,128
     49c:	0003bb9b          	0x3bb9b
     4a0:	2900                	fld	fs0,16(a0)
     4a2:	00e8                	addi	a0,sp,76
     4a4:	0000                	unimp
     4a6:	9b01                	andi	a4,a4,-32
     4a8:	00000233          	add	tp,zero,zero
     4ac:	3a29                	jal	fffffdc6 <pulp__FC+0xfffffdc7>
     4ae:	0000                	unimp
     4b0:	0100                	addi	s0,sp,128
     4b2:	0000419b          	0x419b
     4b6:	2800                	fld	fs0,16(s0)
     4b8:	6170                	flw	fa2,68(a0)
     4ba:	0064                	addi	s1,sp,12
     4bc:	9b01                	andi	a4,a4,-32
     4be:	0041                	c.addi	zero,16
     4c0:	0000                	unimp
     4c2:	0063702b          	0x63702b
     4c6:	9d01                	0x9d01
     4c8:	0041                	c.addi	zero,16
     4ca:	0000                	unimp
     4cc:	202a                	fld	ft0,136(sp)
     4ce:	0000                	unimp
     4d0:	0100                	addi	s0,sp,128
     4d2:	419d                	li	gp,7
     4d4:	0000                	unimp
     4d6:	2d00                	fld	fs0,24(a0)
     4d8:	6e656c2b          	0x6e656c2b
     4dc:	0100                	addi	s0,sp,128
     4de:	41a0                	lw	s0,64(a1)
     4e0:	0000                	unimp
     4e2:	2b00                	fld	fs0,16(a4)
     4e4:	7470                	flw	fa2,108(s0)
     4e6:	0072                	0x72
     4e8:	a101                	j	8e8 <_min_stack-0x1718>
     4ea:	00000233          	add	tp,zero,zero
     4ee:	0000                	unimp
     4f0:	612e                	flw	ft2,200(sp)
     4f2:	0002                	0x2
     4f4:	0100                	addi	s0,sp,128
     4f6:	0190                	addi	a2,sp,192
     4f8:	0511                	addi	a0,a0,4
     4fa:	0000                	unimp
     4fc:	7328                	flw	fa0,96(a4)
     4fe:	7274                	flw	fa3,100(a2)
     500:	0100                	addi	s0,sp,128
     502:	bb90                	fsd	fa2,48(a5)
     504:	28000003          	lb	zero,640(zero) # 280 <_min_stack-0x1d80>
     508:	90010063          	beqz	sp,fffff608 <pulp__FC+0xfffff609>
     50c:	0041                	c.addi	zero,16
     50e:	0000                	unimp
     510:	2f00                	fld	fs0,24(a4)
     512:	0018                	addi	a4,sp,0
     514:	0000                	unimp
     516:	8a01                	andi	a2,a2,0
     518:	0041                	c.addi	zero,16
     51a:	0000                	unimp
     51c:	2b01                	jal	a2c <_min_stack-0x15d4>
     51e:	0005                	c.addi	zero,1
     520:	2800                	fld	fs0,16(s0)
     522:	8a010073          	0x8a010073
     526:	0041                	c.addi	zero,16
     528:	0000                	unimp
     52a:	2700                	fld	fs0,8(a4)
     52c:	00d9                	addi	ra,ra,22
     52e:	0000                	unimp
     530:	8501                	srai	a0,a0,0x0
     532:	004d                	c.addi	zero,19
     534:	0000                	unimp
     536:	4501                	li	a0,0
     538:	0005                	c.addi	zero,1
     53a:	2800                	fld	fs0,16(s0)
     53c:	006e                	0x6e
     53e:	8501                	srai	a0,a0,0x0
     540:	004d                	c.addi	zero,19
     542:	0000                	unimp
     544:	2700                	fld	fs0,8(a4)
     546:	027e                	slli	tp,tp,0x1f
     548:	0000                	unimp
     54a:	7301                	lui	t1,0xfffe0
     54c:	004d                	c.addi	zero,19
     54e:	0000                	unimp
     550:	7101                	addi	sp,sp,-512
     552:	0005                	c.addi	zero,1
     554:	2800                	fld	fs0,16(s0)
     556:	006e                	0x6e
     558:	7301                	lui	t1,0xfffe0
     55a:	004d                	c.addi	zero,19
     55c:	0000                	unimp
     55e:	0100712b          	0x100712b
     562:	4d74                	lw	a3,92(a0)
     564:	0000                	unimp
     566:	2b00                	fld	fs0,16(a4)
     568:	0072                	0x72
     56a:	7401                	lui	s0,0xfffe0
     56c:	004d                	c.addi	zero,19
     56e:	0000                	unimp
     570:	3000                	fld	fs0,32(s0)
     572:	0000013b          	0x13b
     576:	5501                	li	a0,-32
     578:	029a                	slli	t0,t0,0x6
     57a:	e000                	fsw	fs0,0(s0)
     57c:	000e                	0xe
     57e:	0000                	unimp
     580:	9c01                	0x9c01
     582:	8531                	srai	a0,a0,0xc
     584:	0002                	0x2
     586:	0100                	addi	s0,sp,128
     588:	ea4d                	bnez	a2,63a <_min_stack-0x19c6>
     58a:	0000                	unimp
     58c:	10e0                	addi	s0,sp,108
     58e:	0000                	unimp
     590:	0100                	addi	s0,sp,128
     592:	a39c                	fsd	fa5,0(a5)
     594:	0005                	c.addi	zero,1
     596:	3200                	fld	fs0,32(a2)
     598:	4d010063          	beq	sp,a6,a58 <_min_stack-0x15a8>
     59c:	00b5                	addi	ra,ra,13
     59e:	0000                	unimp
     5a0:	5a01                	li	s4,-32
     5a2:	3300                	fld	fs0,32(a4)
     5a4:	00cc                	addi	a1,sp,68
     5a6:	0000                	unimp
     5a8:	4701                	li	a4,0
     5aa:	00ae                	slli	ra,ra,0xb
     5ac:	0000                	unimp
     5ae:	00d8                	addi	a4,sp,68
     5b0:	e000                	fsw	fs0,0(s0)
     5b2:	0012                	0x12
     5b4:	0000                	unimp
     5b6:	9c01                	0x9c01
     5b8:	c331                	beqz	a4,5fc <_min_stack-0x1a04>
     5ba:	0002                	0x2
     5bc:	0100                	addi	s0,sp,128
     5be:	b235                	j	fffffeea <pulp__FC+0xfffffeeb>
     5c0:	0000                	unimp
     5c2:	26e0                	fld	fs0,200(a3)
     5c4:	0000                	unimp
     5c6:	0100                	addi	s0,sp,128
     5c8:	f69c                	fsw	fa5,40(a3)
     5ca:	0005                	c.addi	zero,1
     5cc:	3400                	fld	fs0,40(s0)
     5ce:	00727473          	csrrci	s0,0x7,4
     5d2:	3501                	jal	3d2 <_min_stack-0x1c2e>
     5d4:	00000233          	add	tp,zero,zero
     5d8:	03cc                	addi	a1,sp,452
     5da:	0000                	unimp
     5dc:	6c34                	flw	fa3,88(s0)
     5de:	6e65                	lui	t3,0x19
     5e0:	0100                	addi	s0,sp,128
     5e2:	4d35                	li	s10,13
     5e4:	0000                	unimp
     5e6:	ea00                	fsw	fs0,16(a2)
     5e8:	35000003          	lb	zero,848(zero) # 350 <_min_stack-0x1cb0>
     5ec:	0069                	c.addi	zero,26
     5ee:	3601                	jal	ee <_min_stack-0x1f12>
     5f0:	004d                	c.addi	zero,19
     5f2:	0000                	unimp
     5f4:	0000                	unimp
     5f6:	2831                	jal	612 <_min_stack-0x19ee>
     5f8:	0000                	unimp
     5fa:	0100                	addi	s0,sp,128
     5fc:	842a                	mv	s0,a0
     5fe:	0000                	unimp
     600:	2ee0                	fld	fs0,216(a3)
     602:	0000                	unimp
     604:	0100                	addi	s0,sp,128
     606:	319c                	fld	fa5,32(a1)
     608:	0006                	0x6
     60a:	3600                	fld	fs0,40(a2)
     60c:	00fe                	slli	ra,ra,0x1f
     60e:	0000                	unimp
     610:	2a01                	jal	720 <_min_stack-0x18e0>
     612:	0041                	c.addi	zero,16
     614:	0000                	unimp
     616:	5a01                	li	s4,-32
     618:	00029337          	lui	t1,0x29
     61c:	0100                	addi	s0,sp,128
     61e:	7e2a                	flw	ft8,168(sp)
     620:	0000                	unimp
     622:	0800                	addi	s0,sp,16
     624:	0004                	addi	s1,sp,0
     626:	2b00                	fld	fs0,16(a4)
     628:	0069                	c.addi	zero,26
     62a:	2b01                	jal	b3a <_min_stack-0x14c6>
     62c:	004d                	c.addi	zero,19
     62e:	0000                	unimp
     630:	3100                	fld	fs0,32(a0)
     632:	009e                	slli	ra,ra,0x7
     634:	0000                	unimp
     636:	1b01                	addi	s6,s6,-32
     638:	0418                	addi	a4,sp,512
     63a:	e000                	fsw	fs0,0(s0)
     63c:	000a                	0xa
     63e:	0000                	unimp
     640:	9c01                	0x9c01
     642:	065a                	slli	a2,a2,0x16
     644:	0000                	unimp
     646:	2238                	fld	fa4,64(a2)
     648:	0004                	addi	s1,sp,0
     64a:	39e0                	fld	fs0,240(a1)
     64c:	0002                	0x2
     64e:	1700                	addi	s0,sp,928
     650:	5a01                	li	s4,-32
     652:	0305                	addi	t1,t1,1
     654:	07cc                	addi	a1,sp,964
     656:	e000                	fsw	fs0,0(s0)
     658:	0000                	unimp
     65a:	8639                	srai	a2,a2,0xe
     65c:	0004                	addi	s1,sp,0
     65e:	fa00                	fsw	fs0,48(a2)
     660:	0000                	unimp
     662:	a6e0                	fsd	fs0,200(a3)
     664:	0000                	unimp
     666:	0100                	addi	s0,sp,128
     668:	939c                	0x939c
     66a:	15000007          	0x15000007
     66e:	04a1                	addi	s1,s1,8
     670:	0000                	unimp
     672:	0429                	addi	s0,s0,10
     674:	0000                	unimp
     676:	ac15                	j	8aa <_min_stack-0x1756>
     678:	0004                	addi	s1,sp,0
     67a:	5200                	lw	s0,32(a2)
     67c:	0004                	addi	s1,sp,0
     67e:	1500                	addi	s0,sp,672
     680:	000004b7          	lui	s1,0x0
     684:	04ca                	slli	s1,s1,0x12
     686:	0000                	unimp
     688:	c221                	beqz	a2,6c8 <_min_stack-0x1938>
     68a:	0004                	addi	s1,sp,0
     68c:	0400                	addi	s0,sp,512
     68e:	0005                	c.addi	zero,1
     690:	2100                	fld	fs0,0(a0)
     692:	04cc                	addi	a1,sp,580
     694:	0000                	unimp
     696:	0546                	slli	a0,a0,0x11
     698:	0000                	unimp
     69a:	961f 0004 0000      	0x4961f
     6a0:	d724                	sw	s1,104(a4)
     6a2:	0004                	addi	s1,sp,0
     6a4:	0000                	unimp
     6a6:	0000                	unimp
     6a8:	c000                	sw	s0,0(s0)
     6aa:	0006                	0x6
     6ac:	2100                	fld	fs0,0(a0)
     6ae:	04d8                	addi	a4,sp,580
     6b0:	0000                	unimp
     6b2:	057e                	slli	a0,a0,0x1f
     6b4:	0000                	unimp
     6b6:	e321                	bnez	a4,6f6 <_min_stack-0x190a>
     6b8:	0004                	addi	s1,sp,0
     6ba:	9c00                	0x9c00
     6bc:	0005                	c.addi	zero,1
     6be:	0000                	unimp
     6c0:	f03a                	fsw	fa4,32(sp)
     6c2:	0004                	addi	s1,sp,0
     6c4:	4e00                	lw	s0,24(a2)
     6c6:	0001                	nop
     6c8:	20e0                	fld	fs0,192(s1)
     6ca:	0000                	unimp
     6cc:	0100                	addi	s0,sp,128
     6ce:	07b2                	slli	a5,a5,0xc
     6d0:	15000007          	0x15000007
     6d4:	04fc                	addi	a5,sp,588
     6d6:	0000                	unimp
     6d8:	05c5                	addi	a1,a1,17
     6da:	0000                	unimp
     6dc:	0005073b          	0x5073b
     6e0:	2600                	fld	fs0,8(a2)
     6e2:	0511                	addi	a0,a0,4
     6e4:	0000                	unimp
     6e6:	014e                	slli	sp,sp,0x13
     6e8:	e000                	fsw	fs0,0(s0)
     6ea:	0038                	addi	a4,sp,8
     6ec:	0000                	unimp
     6ee:	9801                	andi	s0,s0,-32
     6f0:	0005213b          	0x5213b
     6f4:	1600                	addi	s0,sp,800
     6f6:	019c                	addi	a5,sp,192
     6f8:	e000                	fsw	fs0,0(s0)
     6fa:	0582                	slli	a1,a1,0x0
     6fc:	0000                	unimp
     6fe:	025a0117          	auipc	sp,0x25a0
     702:	0082                	slli	ra,ra,0x0
     704:	0000                	unimp
     706:	3a00                	fld	fs0,48(a2)
     708:	04f0                	addi	a2,sp,588
     70a:	0000                	unimp
     70c:	0174                	addi	a3,sp,140
     70e:	e000                	fsw	fs0,0(s0)
     710:	0050                	addi	a2,sp,4
     712:	0000                	unimp
     714:	a901                	j	b24 <_min_stack-0x14dc>
     716:	074e                	slli	a4,a4,0x13
     718:	0000                	unimp
     71a:	fc15                	bnez	s0,656 <_min_stack-0x19aa>
     71c:	0004                	addi	s1,sp,0
     71e:	d900                	sw	s0,48(a0)
     720:	0005                	c.addi	zero,1
     722:	3b00                	fld	fs0,48(a4)
     724:	00000507          	0x507
     728:	1126                	slli	sp,sp,0x29
     72a:	0005                	c.addi	zero,1
     72c:	7400                	flw	fs0,40(s0)
     72e:	0001                	nop
     730:	68e0                	flw	fs0,84(s1)
     732:	0000                	unimp
     734:	0100                	addi	s0,sp,128
     736:	3b98                	fld	fa4,48(a5)
     738:	0521                	addi	a0,a0,8
     73a:	0000                	unimp
     73c:	7816                	flw	fa6,100(sp)
     73e:	0001                	nop
     740:	82e0                	0x82e0
     742:	0005                	c.addi	zero,1
     744:	1700                	addi	s0,sp,928
     746:	5a01                	li	s4,-32
     748:	8402                	jr	s0
     74a:	0000                	unimp
     74c:	0000                	unimp
     74e:	f03c                	fsw	fa5,96(s0)
     750:	0004                	addi	s1,sp,0
     752:	9200                	0x9200
     754:	0001                	nop
     756:	02e0                	addi	s0,sp,332
     758:	0000                	unimp
     75a:	0100                	addi	s0,sp,128
     75c:	15ae                	slli	a1,a1,0x2b
     75e:	04fc                	addi	a5,sp,588
     760:	0000                	unimp
     762:	05ed                	addi	a1,a1,27
     764:	0000                	unimp
     766:	0715                	addi	a4,a4,5
     768:	0005                	c.addi	zero,1
     76a:	0100                	addi	s0,sp,128
     76c:	0006                	0x6
     76e:	3c00                	fld	fs0,56(s0)
     770:	0511                	addi	a0,a0,4
     772:	0000                	unimp
     774:	0192                	slli	gp,gp,0x4
     776:	e000                	fsw	fs0,0(s0)
     778:	0002                	0x2
     77a:	0000                	unimp
     77c:	9801                	andi	s0,s0,-32
     77e:	2115                	jal	ba2 <_min_stack-0x145e>
     780:	0005                	c.addi	zero,1
     782:	0100                	addi	s0,sp,128
     784:	0006                	0x6
     786:	1900                	addi	s0,sp,176
     788:	0194                	addi	a3,sp,192
     78a:	e000                	fsw	fs0,0(s0)
     78c:	0582                	slli	a1,a1,0x0
     78e:	0000                	unimp
     790:	0000                	unimp
     792:	3900                	fld	fs0,48(a0)
     794:	000003d7          	pv.add.h	t2,zero,zero
     798:	01a0                	addi	s0,sp,200
     79a:	e000                	fsw	fs0,0(s0)
     79c:	00fa                	slli	ra,ra,0x1e
     79e:	0000                	unimp
     7a0:	9c01                	0x9c01
     7a2:	08fe                	slli	a7,a7,0x1f
     7a4:	0000                	unimp
     7a6:	f215                	bnez	a2,6ca <_min_stack-0x1936>
     7a8:	19000003          	lb	zero,400(zero) # 190 <_min_stack-0x1e70>
     7ac:	0006                	0x6
     7ae:	1500                	addi	s0,sp,672
     7b0:	000003fb          	lp.starti	x7,7b0 <_min_stack-0x1850>
     7b4:	066c                	addi	a1,sp,780
     7b6:	0000                	unimp
     7b8:	0415                	addi	s0,s0,5
     7ba:	0004                	addi	s1,sp,0
     7bc:	d800                	sw	s0,48(s0)
     7be:	0006                	0x6
     7c0:	1500                	addi	s0,sp,672
     7c2:	040e                	slli	s0,s0,0x3
     7c4:	0000                	unimp
     7c6:	0736                	slli	a4,a4,0xd
     7c8:	0000                	unimp
     7ca:	1915                	addi	s2,s2,-27
     7cc:	0004                	addi	s1,sp,0
     7ce:	8600                	0x8600
     7d0:	15000007          	0x15000007
     7d4:	0424                	addi	s1,sp,520
     7d6:	0000                	unimp
     7d8:	000007cb          	fnmsub.s	fa5,ft0,ft0,ft0,rne
     7dc:	2f22                	fld	ft10,8(sp)
     7de:	0004                	addi	s1,sp,0
     7e0:	0200                	addi	s0,sp,256
     7e2:	5091                	li	ra,-28
     7e4:	3a21                	jal	fc <_min_stack-0x1f04>
     7e6:	0004                	addi	s1,sp,0
     7e8:	3700                	fld	fs0,40(a4)
     7ea:	0008                	addi	a0,sp,0
     7ec:	2100                	fld	fs0,0(a0)
     7ee:	00000443          	fmadd.s	fs0,ft0,ft0,ft0,rne
     7f2:	087a                	slli	a6,a6,0x1e
     7f4:	0000                	unimp
     7f6:	4e21                	li	t3,8
     7f8:	0004                	addi	s1,sp,0
     7fa:	d300                	sw	s0,32(a4)
     7fc:	0008                	addi	a0,sp,0
     7fe:	3d00                	fld	fs0,56(a0)
     800:	0458                	addi	a4,sp,516
     802:	0000                	unimp
     804:	6121                	addi	sp,sp,64
     806:	0004                	addi	s1,sp,0
     808:	1600                	addi	s0,sp,800
     80a:	0009                	c.addi	zero,2
     80c:	1f00                	addi	s0,sp,944
     80e:	000003e7          	jalr	t2,zero
     812:	3a00                	fld	fs0,48(a2)
     814:	0000052b          	p.sb	zero,10(zero!) # a <_min_stack-0x1ff6>
     818:	01e4                	addi	s1,sp,204
     81a:	e000                	fsw	fs0,0(s0)
     81c:	0080                	addi	s0,sp,64
     81e:	0000                	unimp
     820:	df01                	beqz	a4,738 <_min_stack-0x18c8>
     822:	0830                	addi	a2,sp,24
     824:	0000                	unimp
     826:	3b15                	jal	55a <_min_stack-0x1aa6>
     828:	0005                	c.addi	zero,1
     82a:	6500                	flw	fs0,8(a0)
     82c:	0009                	c.addi	zero,2
     82e:	0000                	unimp
     830:	453a                	lw	a0,140(sp)
     832:	0005                	c.addi	zero,1
     834:	f400                	fsw	fs0,40(s0)
     836:	0001                	nop
     838:	a0e0                	fsd	fs0,192(s1)
     83a:	0000                	unimp
     83c:	0100                	addi	s0,sp,128
     83e:	65e0                	flw	fs0,76(a1)
     840:	0008                	addi	a0,sp,0
     842:	1500                	addi	s0,sp,672
     844:	0555                	addi	a0,a0,21
     846:	0000                	unimp
     848:	0978                	addi	a4,sp,156
     84a:	0000                	unimp
     84c:	a020                	fsd	fs0,64(s0)
     84e:	0000                	unimp
     850:	2100                	fld	fs0,0(a0)
     852:	055e                	slli	a0,a0,0x17
     854:	0000                	unimp
     856:	0998                	addi	a4,sp,208
     858:	0000                	unimp
     85a:	6721                	lui	a4,0x8
     85c:	0005                	c.addi	zero,1
     85e:	ab00                	fsd	fs0,16(a4)
     860:	0009                	c.addi	zero,2
     862:	0000                	unimp
     864:	2400                	fld	fs0,8(s0)
     866:	046a                	slli	s0,s0,0x1a
     868:	0000                	unimp
     86a:	00c0                	addi	s0,sp,68
     86c:	0000                	unimp
     86e:	087c                	addi	a5,sp,28
     870:	0000                	unimp
     872:	6b21                	lui	s6,0x8
     874:	0004                	addi	s1,sp,0
     876:	db00                	sw	s0,48(a4)
     878:	0009                	c.addi	zero,2
     87a:	0000                	unimp
     87c:	f03e                	fsw	fa5,32(sp)
     87e:	0004                	addi	s1,sp,0
     880:	6a00                	flw	fs0,16(a2)
     882:	0002                	0x2
     884:	0ae0                	addi	s0,sp,348
     886:	0000                	unimp
     888:	0100                	addi	s0,sp,128
     88a:	0008cbe7          	0x8cbe7
     88e:	1500                	addi	s0,sp,672
     890:	04fc                	addi	a5,sp,588
     892:	0000                	unimp
     894:	000009fb          	lp.starti	x19,894 <_min_stack-0x176c>
     898:	0715                	addi	a4,a4,5
     89a:	0005                	c.addi	zero,1
     89c:	0f00                	addi	s0,sp,912
     89e:	000a                	0xa
     8a0:	3c00                	fld	fs0,56(s0)
     8a2:	0511                	addi	a0,a0,4
     8a4:	0000                	unimp
     8a6:	026a                	slli	tp,tp,0x1a
     8a8:	e000                	fsw	fs0,0(s0)
     8aa:	000a                	0xa
     8ac:	0000                	unimp
     8ae:	9801                	andi	s0,s0,-32
     8b0:	2115                	jal	cd4 <_min_stack-0x132c>
     8b2:	0005                	c.addi	zero,1
     8b4:	2400                	fld	fs0,8(s0)
     8b6:	000a                	0xa
     8b8:	1600                	addi	s0,sp,800
     8ba:	0274                	addi	a3,sp,268
     8bc:	e000                	fsw	fs0,0(s0)
     8be:	0582                	slli	a1,a1,0x0
     8c0:	0000                	unimp
     8c2:	025a0117          	auipc	sp,0x25a0
     8c6:	2d08                	fld	fa0,24(a0)
     8c8:	0000                	unimp
     8ca:	3f00                	fld	fs0,56(a4)
     8cc:	01bc                	addi	a5,sp,200
     8ce:	e000                	fsw	fs0,0(s0)
     8d0:	065a                	slli	a2,a2,0x16
     8d2:	0000                	unimp
     8d4:	08ed                	addi	a7,a7,27
     8d6:	0000                	unimp
     8d8:	025a0117          	auipc	sp,0x25a0
     8dc:	5091                	li	ra,-28
     8de:	035b0117          	auipc	sp,0x35b0
     8e2:	175d01f3          	0x175d01f3
     8e6:	5c01                	li	s8,-32
     8e8:	5e01f303          	0x5e01f303
     8ec:	1600                	addi	s0,sp,800
     8ee:	0280                	addi	s0,sp,320
     8f0:	e000                	fsw	fs0,0(s0)
     8f2:	065a                	slli	a2,a2,0x16
     8f4:	0000                	unimp
     8f6:	025a0117          	auipc	sp,0x25a0
     8fa:	0078                	addi	a4,sp,12
     8fc:	0000                	unimp
     8fe:	1140                	addi	s0,sp,164
     900:	0005                	c.addi	zero,1
     902:	a800                	fsd	fs0,16(s0)
     904:	0002                	0x2
     906:	18e0                	addi	s0,sp,124
     908:	0000                	unimp
     90a:	0100                	addi	s0,sp,128
     90c:	159c                	addi	a5,sp,736
     90e:	0521                	addi	a0,a0,8
     910:	0000                	unimp
     912:	0a39                	addi	s4,s4,14
     914:	0000                	unimp
     916:	b616                	fsd	ft5,296(sp)
     918:	0002                	0x2
     91a:	82e0                	0x82e0
     91c:	0005                	c.addi	zero,1
     91e:	1700                	addi	s0,sp,928
     920:	5a01                	li	s4,-32
     922:	7802                	flw	fa6,32(sp)
     924:	0000                	unimp
     926:	0000                	unimp
     928:	0811                	addi	a6,a6,4
     92a:	0000                	unimp
     92c:	0004                	addi	s1,sp,0
     92e:	0378                	addi	a4,sp,396
     930:	0000                	unimp
     932:	0104                	addi	s1,sp,128
     934:	014d                	addi	sp,sp,19
     936:	0000                	unimp
     938:	120c                	addi	a1,sp,288
     93a:	fe000003          	lb	zero,-32(zero) # ffffffe0 <pulp__FC+0xffffffe1>
     93e:	0001                	nop
     940:	3800                	fld	fs0,48(s0)
     942:	0001                	nop
     944:	0000                	unimp
     946:	0000                	unimp
     948:	e600                	fsw	fs0,8(a2)
     94a:	0005                	c.addi	zero,1
     94c:	0200                	addi	s0,sp,256
     94e:	0504                	addi	s1,sp,640
     950:	6e69                	lui	t3,0x1a
     952:	0074                	addi	a3,sp,12
     954:	00002503          	lw	a0,0(zero) # 0 <_min_stack-0x2000>
     958:	0400                	addi	s0,sp,512
     95a:	0704                	addi	s1,sp,896
     95c:	000001c3          	fmadd.s	ft3,ft0,ft0,ft0,rne
     960:	0804                	addi	s1,sp,16
     962:	b105                	j	582 <_min_stack-0x1a7e>
     964:	0000                	unimp
     966:	0400                	addi	s0,sp,512
     968:	0410                	addi	a2,sp,512
     96a:	0121                	addi	sp,sp,8
     96c:	0000                	unimp
     96e:	0104                	addi	s1,sp,128
     970:	2f06                	fld	ft10,64(sp)
     972:	0001                	nop
     974:	0400                	addi	s0,sp,512
     976:	0502                	slli	a0,a0,0x0
     978:	0008                	addi	a0,sp,0
     97a:	0000                	unimp
     97c:	0404                	addi	s1,sp,512
     97e:	b605                	j	49e <_min_stack-0x1b62>
     980:	0000                	unimp
     982:	0400                	addi	s0,sp,512
     984:	0801                	addi	a6,a6,0
     986:	012d                	addi	sp,sp,11
     988:	0000                	unimp
     98a:	0204                	addi	s1,sp,256
     98c:	0001eb07          	0x1eb07
     990:	0400                	addi	s0,sp,512
     992:	0704                	addi	s1,sp,896
     994:	01be                	slli	gp,gp,0xf
     996:	0000                	unimp
     998:	0804                	addi	s1,sp,16
     99a:	0001b907          	fld	fs2,0(gp)
     99e:	0500                	addi	s0,sp,640
     9a0:	0349                	addi	t1,t1,18
     9a2:	0000                	unimp
     9a4:	1602                	slli	a2,a2,0x20
     9a6:	0025                	c.addi	zero,9
     9a8:	0000                	unimp
     9aa:	06d6                	slli	a3,a3,0x15
     9ac:	e000                	fsw	fs0,0(s0)
     9ae:	00ec                	addi	a1,sp,76
     9b0:	0000                	unimp
     9b2:	9c01                	0x9c01
     9b4:	035c                	addi	a5,sp,388
     9b6:	0000                	unimp
     9b8:	c906                	sw	ra,144(sp)
     9ba:	02000003          	lb	zero,32(zero) # 20 <_min_stack-0x1fe0>
     9be:	2516                	fld	fa0,320(sp)
     9c0:	0000                	unimp
     9c2:	6200                	flw	fs0,0(a2)
     9c4:	000a                	0xa
     9c6:	0600                	addi	s0,sp,768
     9c8:	040d                	addi	s0,s0,3
     9ca:	0000                	unimp
     9cc:	1602                	slli	a2,a2,0x20
     9ce:	035c                	addi	a5,sp,388
     9d0:	0000                	unimp
     9d2:	00000a83          	lb	s5,0(zero) # 0 <_min_stack-0x2000>
     9d6:	02007407          	0x2007407
     9da:	6f18                	flw	fa4,24(a4)
     9dc:	08000003          	lb	zero,128(zero) # 80 <_min_stack-0x1f80>
     9e0:	0375                	addi	t1,t1,29
     9e2:	0000                	unimp
     9e4:	1f02                	slli	t5,t5,0x20
     9e6:	0025                	c.addi	zero,9
     9e8:	0000                	unimp
     9ea:	c200                	sw	s0,0(a2)
     9ec:	0001                	nop
     9ee:	0308                	addi	a0,sp,384
     9f0:	0004                	addi	s1,sp,0
     9f2:	0200                	addi	s0,sp,256
     9f4:	2520                	fld	fs0,72(a0)
     9f6:	0000                	unimp
     9f8:	0000                	unimp
     9fa:	f5e1                	bnez	a1,9c2 <_min_stack-0x163e>
     9fc:	0905                	addi	s2,s2,1
     9fe:	6176                	flw	ft2,92(sp)
     a00:	006c                	addi	a1,sp,12
     a02:	2502                	fld	fa0,0(sp)
     a04:	0031                	c.addi	zero,12
     a06:	0000                	unimp
     a08:	8081                	srli	s1,s1,0x0
     a0a:	8080                	0x8080
     a0c:	0a7e                	slli	s4,s4,0x1f
     a0e:	07c5                	addi	a5,a5,17
     a10:	0000                	unimp
     a12:	0706                	slli	a4,a4,0x1
     a14:	e000                	fsw	fs0,0(s0)
     a16:	0120                	addi	s0,sp,136
     a18:	0000                	unimp
     a1a:	2d02                	fld	fs10,0(sp)
     a1c:	0104                	addi	s1,sp,128
     a1e:	0000                	unimp
     a20:	0001200b          	p.lw	zero,0(sp!) # 25a08f6 <tohost+0x25808ee>
     a24:	0c00                	addi	s0,sp,528
     a26:	07f4                	addi	a3,sp,972
     a28:	0000                	unimp
     a2a:	0000                	unimp
     a2c:	c50d                	beqz	a0,a56 <_min_stack-0x15aa>
     a2e:	34000007          	0x34000007
     a32:	06e00007          	0x6e00007
     a36:	0000                	unimp
     a38:	0200                	addi	s0,sp,256
     a3a:	2736                	fld	fa4,328(sp)
     a3c:	0001                	nop
     a3e:	0e00                	addi	s0,sp,784
     a40:	0734                	addi	a3,sp,904
     a42:	e000                	fsw	fs0,0(s0)
     a44:	0006                	0x6
     a46:	0000                	unimp
     a48:	f40c                	fsw	fa1,40(s0)
     a4a:	00000007          	0x7
     a4e:	0d00                	addi	s0,sp,656
     a50:	07c5                	addi	a5,a5,17
     a52:	0000                	unimp
     a54:	0754                	addi	a3,sp,900
     a56:	e000                	fsw	fs0,0(s0)
     a58:	0006                	0x6
     a5a:	0000                	unimp
     a5c:	3e02                	fld	ft8,32(sp)
     a5e:	014a                	slli	sp,sp,0x12
     a60:	0000                	unimp
     a62:	540e                	lw	s0,224(sp)
     a64:	06e00007          	0x6e00007
     a68:	0000                	unimp
     a6a:	0c00                	addi	s0,sp,528
     a6c:	07f4                	addi	a3,sp,972
     a6e:	0000                	unimp
     a70:	0000                	unimp
     a72:	c50d                	beqz	a0,a9c <_min_stack-0x1564>
     a74:	74000007          	0x74000007
     a78:	06e00007          	0x6e00007
     a7c:	0000                	unimp
     a7e:	0200                	addi	s0,sp,256
     a80:	6d46                	flw	fs10,80(sp)
     a82:	0001                	nop
     a84:	0e00                	addi	s0,sp,784
     a86:	0774                	addi	a3,sp,908
     a88:	e000                	fsw	fs0,0(s0)
     a8a:	0006                	0x6
     a8c:	0000                	unimp
     a8e:	f40c                	fsw	fa1,40(s0)
     a90:	00000007          	0x7
     a94:	0d00                	addi	s0,sp,656
     a96:	07c5                	addi	a5,a5,17
     a98:	0000                	unimp
     a9a:	0794                	addi	a3,sp,960
     a9c:	e000                	fsw	fs0,0(s0)
     a9e:	0006                	0x6
     aa0:	0000                	unimp
     aa2:	4e02                	lw	t3,0(sp)
     aa4:	0190                	addi	a2,sp,192
     aa6:	0000                	unimp
     aa8:	940e                	add	s0,s0,gp
     aaa:	06e00007          	0x6e00007
     aae:	0000                	unimp
     ab0:	0c00                	addi	s0,sp,528
     ab2:	07f4                	addi	a3,sp,972
     ab4:	0000                	unimp
     ab6:	0000                	unimp
     ab8:	0006e80f          	0x6e80f
     abc:	fee0                	fsw	fs0,124(a3)
     abe:	a9000007          	0xa9000007
     ac2:	0001                	nop
     ac4:	1000                	addi	s0,sp,32
     ac6:	5a01                	li	s4,-32
     ac8:	3001                	jal	2c8 <_min_stack-0x1d38>
     aca:	0110                	addi	a2,sp,128
     acc:	3608025b          	p.mac	tp,a6,zero,s11
     ad0:	0f00                	addi	s0,sp,912
     ad2:	06fc                	addi	a5,sp,844
     ad4:	e000                	fsw	fs0,0(s0)
     ad6:	0809                	addi	a6,a6,2
     ad8:	0000                	unimp
     ada:	01c0                	addi	s0,sp,196
     adc:	0000                	unimp
     ade:	0110                	addi	a2,sp,128
     ae0:	055a                	slli	a0,a0,0x16
     ae2:	0007dc03          	lhu	s8,0(a5) # e0000000 <pulp__FC+0xe0000001>
     ae6:	00e0                	addi	s0,sp,76
     ae8:	fe11                	bnez	a2,a04 <_min_stack-0x15fc>
     aea:	0006                	0x6
     aec:	b3e0                	fsd	fs0,224(a5)
     aee:	0004                	addi	s1,sp,0
     af0:	0f00                	addi	s0,sp,912
     af2:	070e                	slli	a4,a4,0x3
     af4:	e000                	fsw	fs0,0(s0)
     af6:	0809                	addi	a6,a6,2
     af8:	0000                	unimp
     afa:	01e0                	addi	s0,sp,204
     afc:	0000                	unimp
     afe:	0110                	addi	a2,sp,128
     b00:	055a                	slli	a0,a0,0x16
     b02:	00080003          	lb	zero,0(a6)
     b06:	00e0                	addi	s0,sp,76
     b08:	1011                	c.addi	zero,-28
     b0a:	92e00007          	0x92e00007
     b0e:	0f000007          	0xf000007
     b12:	0722                	slli	a4,a4,0x8
     b14:	e000                	fsw	fs0,0(s0)
     b16:	0809                	addi	a6,a6,2
     b18:	0000                	unimp
     b1a:	0200                	addi	s0,sp,256
     b1c:	0000                	unimp
     b1e:	0110                	addi	a2,sp,128
     b20:	055a                	slli	a0,a0,0x16
     b22:	00082803          	lw	a6,0(a6)
     b26:	00e0                	addi	s0,sp,76
     b28:	2411                	jal	d2c <_min_stack-0x12d4>
     b2a:	8ae00007          	0x8ae00007
     b2e:	0004                	addi	s1,sp,0
     b30:	1100                	addi	s0,sp,160
     b32:	0726                	slli	a4,a4,0x9
     b34:	e000                	fsw	fs0,0(s0)
     b36:	0438                	addi	a4,sp,520
     b38:	0000                	unimp
     b3a:	2811                	jal	b4e <_min_stack-0x14b2>
     b3c:	61e00007          	0x61e00007
     b40:	0004                	addi	s1,sp,0
     b42:	1100                	addi	s0,sp,160
     b44:	072a                	slli	a4,a4,0xa
     b46:	e000                	fsw	fs0,0(s0)
     b48:	00000407          	0x407
     b4c:	0007340f          	0x7340f
     b50:	09e0                	addi	s0,sp,220
     b52:	0008                	addi	a0,sp,0
     b54:	3b00                	fld	fs0,48(a4)
     b56:	0002                	0x2
     b58:	1000                	addi	s0,sp,32
     b5a:	5a01                	li	s4,-32
     b5c:	0305                	addi	t1,t1,1
     b5e:	085c                	addi	a5,sp,20
     b60:	e000                	fsw	fs0,0(s0)
     b62:	1100                	addi	s0,sp,160
     b64:	073c                	addi	a5,sp,904
     b66:	e000                	fsw	fs0,0(s0)
     b68:	06fc                	addi	a5,sp,844
     b6a:	0000                	unimp
     b6c:	0007460f          	0x7460f
     b70:	09e0                	addi	s0,sp,220
     b72:	0008                	addi	a0,sp,0
     b74:	5b00                	lw	s0,48(a4)
     b76:	0002                	0x2
     b78:	1000                	addi	s0,sp,32
     b7a:	5a01                	li	s4,-32
     b7c:	0305                	addi	t1,t1,1
     b7e:	087c                	addi	a5,sp,28
     b80:	e000                	fsw	fs0,0(s0)
     b82:	1100                	addi	s0,sp,160
     b84:	0748                	addi	a0,sp,900
     b86:	e000                	fsw	fs0,0(s0)
     b88:	04fc                	addi	a5,sp,588
     b8a:	0000                	unimp
     b8c:	4a11                	li	s4,4
     b8e:	76e00007          	0x76e00007
     b92:	0f000003          	lb	zero,240(zero) # f0 <_min_stack-0x1f10>
     b96:	0754                	addi	a3,sp,900
     b98:	e000                	fsw	fs0,0(s0)
     b9a:	0809                	addi	a6,a6,2
     b9c:	0000                	unimp
     b9e:	0284                	addi	s1,sp,320
     ba0:	0000                	unimp
     ba2:	0110                	addi	a2,sp,128
     ba4:	055a                	slli	a0,a0,0x16
     ba6:	00088803          	lb	a6,0(a7)
     baa:	00e0                	addi	s0,sp,76
     bac:	5c11                	li	s8,-28
     bae:	cce00007          	0xcce00007
     bb2:	0005                	c.addi	zero,1
     bb4:	0f00                	addi	s0,sp,912
     bb6:	0766                	slli	a4,a4,0x19
     bb8:	e000                	fsw	fs0,0(s0)
     bba:	0809                	addi	a6,a6,2
     bbc:	0000                	unimp
     bbe:	02a4                	addi	s1,sp,328
     bc0:	0000                	unimp
     bc2:	0110                	addi	a2,sp,128
     bc4:	055a                	slli	a0,a0,0x16
     bc6:	00087c03          	p.lb	s8,zero(a6)
     bca:	00e0                	addi	s0,sp,76
     bcc:	6811                	lui	a6,0x4
     bce:	fce00007          	0xfce00007
     bd2:	0004                	addi	s1,sp,0
     bd4:	1100                	addi	s0,sp,160
     bd6:	076a                	slli	a4,a4,0x1a
     bd8:	e000                	fsw	fs0,0(s0)
     bda:	0376                	slli	t1,t1,0x1d
     bdc:	0000                	unimp
     bde:	0007740f          	0x7740f
     be2:	09e0                	addi	s0,sp,220
     be4:	0008                	addi	a0,sp,0
     be6:	cd00                	sw	s0,24(a0)
     be8:	0002                	0x2
     bea:	1000                	addi	s0,sp,32
     bec:	5a01                	li	s4,-32
     bee:	0305                	addi	t1,t1,1
     bf0:	08b0                	addi	a2,sp,88
     bf2:	e000                	fsw	fs0,0(s0)
     bf4:	1100                	addi	s0,sp,160
     bf6:	077c                	addi	a5,sp,908
     bf8:	e000                	fsw	fs0,0(s0)
     bfa:	0662                	slli	a2,a2,0x18
     bfc:	0000                	unimp
     bfe:	0007860f          	0x7860f
     c02:	09e0                	addi	s0,sp,220
     c04:	0008                	addi	a0,sp,0
     c06:	ed00                	fsw	fs0,24(a0)
     c08:	0002                	0x2
     c0a:	1000                	addi	s0,sp,32
     c0c:	5a01                	li	s4,-32
     c0e:	0305                	addi	t1,t1,1
     c10:	087c                	addi	a5,sp,28
     c12:	e000                	fsw	fs0,0(s0)
     c14:	1100                	addi	s0,sp,160
     c16:	0788                	addi	a0,sp,960
     c18:	e000                	fsw	fs0,0(s0)
     c1a:	04fc                	addi	a5,sp,588
     c1c:	0000                	unimp
     c1e:	8a11                	andi	a2,a2,4
     c20:	76e00007          	0x76e00007
     c24:	0f000003          	lb	zero,240(zero) # f0 <_min_stack-0x1f10>
     c28:	0794                	addi	a3,sp,960
     c2a:	e000                	fsw	fs0,0(s0)
     c2c:	0809                	addi	a6,a6,2
     c2e:	0000                	unimp
     c30:	0316                	slli	t1,t1,0x5
     c32:	0000                	unimp
     c34:	0110                	addi	a2,sp,128
     c36:	055a                	slli	a0,a0,0x16
     c38:	0008d803          	lhu	a6,0(a7)
     c3c:	00e0                	addi	s0,sp,76
     c3e:	9c11                	0x9c11
     c40:	32e00007          	0x32e00007
     c44:	0005                	c.addi	zero,1
     c46:	0f00                	addi	s0,sp,912
     c48:	07a6                	slli	a5,a5,0x9
     c4a:	e000                	fsw	fs0,0(s0)
     c4c:	0809                	addi	a6,a6,2
     c4e:	0000                	unimp
     c50:	0336                	slli	t1,t1,0xd
     c52:	0000                	unimp
     c54:	0110                	addi	a2,sp,128
     c56:	055a                	slli	a0,a0,0x16
     c58:	00087c03          	p.lb	s8,zero(a6)
     c5c:	00e0                	addi	s0,sp,76
     c5e:	a811                	j	c72 <_min_stack-0x138e>
     c60:	fce00007          	0xfce00007
     c64:	0004                	addi	s1,sp,0
     c66:	1100                	addi	s0,sp,160
     c68:	07aa                	slli	a5,a5,0xa
     c6a:	e000                	fsw	fs0,0(s0)
     c6c:	0376                	slli	t1,t1,0x1d
     c6e:	0000                	unimp
     c70:	b412                	fsd	ft4,40(sp)
     c72:	09e00007          	0x9e00007
     c76:	0008                	addi	a0,sp,0
     c78:	1000                	addi	s0,sp,32
     c7a:	5a01                	li	s4,-32
     c7c:	0305                	addi	t1,t1,1
     c7e:	08fc                	addi	a5,sp,92
     c80:	e000                	fsw	fs0,0(s0)
     c82:	0000                	unimp
     c84:	03620413          	addi	s0,tp,54 # 3036 <_min_stack+0x1036>
     c88:	0000                	unimp
     c8a:	03680413          	addi	s0,a6,54 # 4036 <_min_stack+0x2036>
     c8e:	0000                	unimp
     c90:	0104                	addi	s1,sp,128
     c92:	3608                	fld	fa0,40(a2)
     c94:	0001                	nop
     c96:	0400                	addi	s0,sp,512
     c98:	0201                	addi	tp,tp,0
     c9a:	043c                	addi	a5,sp,520
     c9c:	0000                	unimp
     c9e:	5f14                	lw	a3,56(a4)
     ca0:	0004                	addi	s1,sp,0
     ca2:	0100                	addi	s0,sp,128
     ca4:	0114                	addi	a3,sp,128
     ca6:	0000036f          	jal	t1,ca6 <_min_stack-0x135a>
     caa:	0642                	slli	a2,a2,0x10
     cac:	e000                	fsw	fs0,0(s0)
     cae:	0018                	addi	a4,sp,0
     cb0:	0000                	unimp
     cb2:	9c01                	0x9c01
     cb4:	0401                	addi	s0,s0,0
     cb6:	0000                	unimp
     cb8:	7f15                	lui	t5,0xfffe5
     cba:	01000003          	lb	zero,16(zero) # 10 <_min_stack-0x1ff0>
     cbe:	0116                	slli	sp,sp,0x5
     cc0:	0401                	addi	s0,s0,0
     cc2:	0000                	unimp
     cc4:	0aa4                	addi	s1,sp,344
     cc6:	0000                	unimp
     cc8:	6116                	flw	ft2,68(sp)
     cca:	0100                	addi	s0,sp,128
     ccc:	00250117          	auipc	sp,0x250
     cd0:	0000                	unimp
     cd2:	5e01                	li	t3,-32
     cd4:	6216                	flw	ft4,68(sp)
     cd6:	0100                	addi	s0,sp,128
     cd8:	00250117          	auipc	sp,0x250
     cdc:	0000                	unimp
     cde:	5e01                	li	t3,-32
     ce0:	6316                	flw	ft6,68(sp)
     ce2:	0100                	addi	s0,sp,128
     ce4:	00250117          	auipc	sp,0x250
     ce8:	0000                	unimp
     cea:	5e01                	li	t3,-32
     cec:	6416                	flw	fs0,68(sp)
     cee:	0100                	addi	s0,sp,128
     cf0:	00250117          	auipc	sp,0x250
     cf4:	0000                	unimp
     cf6:	5e01                	li	t3,-32
     cf8:	6516                	flw	fa0,68(sp)
     cfa:	0100                	addi	s0,sp,128
     cfc:	00250117          	auipc	sp,0x250
     d00:	0000                	unimp
     d02:	5e01                	li	t3,-32
     d04:	6616                	flw	fa2,68(sp)
     d06:	0100                	addi	s0,sp,128
     d08:	00250117          	auipc	sp,0x250
     d0c:	0000                	unimp
     d0e:	5e01                	li	t3,-32
     d10:	6716                	flw	fa4,68(sp)
     d12:	0100                	addi	s0,sp,128
     d14:	00250117          	auipc	sp,0x250
     d18:	0000                	unimp
     d1a:	5e01                	li	t3,-32
     d1c:	6816                	flw	fa6,68(sp)
     d1e:	0100                	addi	s0,sp,128
     d20:	00250117          	auipc	sp,0x250
     d24:	0000                	unimp
     d26:	5f01                	li	t5,-32
     d28:	1300                	addi	s0,sp,416
     d2a:	2c04                	fld	fs1,24(s0)
     d2c:	0000                	unimp
     d2e:	1400                	addi	s0,sp,544
     d30:	0442                	slli	s0,s0,0x10
     d32:	0000                	unimp
     d34:	0001                	nop
     d36:	6f01                	lui	t5,0x0
     d38:	22000003          	lb	zero,544(zero) # 220 <_min_stack-0x1de0>
     d3c:	0006                	0x6
     d3e:	20e0                	fld	fs0,192(s1)
     d40:	0000                	unimp
     d42:	0100                	addi	s0,sp,128
     d44:	329c                	fld	fa5,32(a3)
     d46:	0004                	addi	s1,sp,0
     d48:	1500                	addi	s0,sp,672
     d4a:	047f                	0x47f
     d4c:	0000                	unimp
     d4e:	0201                	addi	tp,tp,0
     d50:	3201                	jal	650 <_min_stack-0x19b0>
     d52:	0004                	addi	s1,sp,0
     d54:	2c00                	fld	fs0,24(s0)
     d56:	0000000b          	p.lb	zero,0(zero!) # 0 <_min_stack-0x2000>
     d5a:	00250413          	addi	s0,a0,2 # 3002 <_min_stack+0x1002>
     d5e:	0000                	unimp
     d60:	5005                	0x5005
     d62:	0004                	addi	s1,sp,0
     d64:	0100                	addi	s0,sp,128
     d66:	6fec                	flw	fa1,92(a5)
     d68:	02000003          	lb	zero,32(zero) # 20 <_min_stack-0x1fe0>
     d6c:	0006                	0x6
     d6e:	20e0                	fld	fs0,192(s1)
     d70:	0000                	unimp
     d72:	0100                	addi	s0,sp,128
     d74:	619c                	flw	fa5,0(a1)
     d76:	0004                	addi	s1,sp,0
     d78:	1700                	addi	s0,sp,928
     d7a:	048d                	addi	s1,s1,3
     d7c:	0000                	unimp
     d7e:	ee01                	bnez	a2,d96 <_min_stack-0x126a>
     d80:	0432                	slli	s0,s0,0xc
     d82:	0000                	unimp
     d84:	0b74                	addi	a3,sp,412
     d86:	0000                	unimp
     d88:	0500                	addi	s0,sp,640
     d8a:	031e                	slli	t1,t1,0x7
     d8c:	0000                	unimp
     d8e:	d801                	beqz	s0,c9e <_min_stack-0x1362>
     d90:	0000036f          	jal	t1,d90 <_min_stack-0x1270>
     d94:	05ea                	slli	a1,a1,0x1a
     d96:	e000                	fsw	fs0,0(s0)
     d98:	0018                	addi	a4,sp,0
     d9a:	0000                	unimp
     d9c:	9c01                	0x9c01
     d9e:	048a                	slli	s1,s1,0x2
     da0:	0000                	unimp
     da2:	00036817          	auipc	a6,0x36
     da6:	0100                	addi	s0,sp,128
     da8:	32da                	fld	ft5,432(sp)
     daa:	0004                	addi	s1,sp,0
     dac:	bc00                	fsd	fs0,56(s0)
     dae:	0000000b          	p.lb	zero,0(zero!) # 0 <_min_stack-0x2000>
     db2:	c505                	beqz	a0,dda <_min_stack-0x1226>
     db4:	0004                	addi	s1,sp,0
     db6:	0100                	addi	s0,sp,128
     db8:	6fc4                	flw	fs1,28(a5)
     dba:	d2000003          	lb	zero,-736(zero) # fffffd20 <pulp__FC+0xfffffd21>
     dbe:	0005                	c.addi	zero,1
     dc0:	18e0                	addi	s0,sp,124
     dc2:	0000                	unimp
     dc4:	0100                	addi	s0,sp,128
     dc6:	b39c                	fsd	fa5,32(a5)
     dc8:	0004                	addi	s1,sp,0
     dca:	1700                	addi	s0,sp,928
     dcc:	03bc                	addi	a5,sp,456
     dce:	0000                	unimp
     dd0:	c601                	beqz	a2,dd8 <_min_stack-0x1228>
     dd2:	0432                	slli	s0,s0,0xc
     dd4:	0000                	unimp
     dd6:	0c04                	addi	s1,sp,528
     dd8:	0000                	unimp
     dda:	0500                	addi	s0,sp,640
     ddc:	0000035b          	p.mac	t1,zero,zero,zero
     de0:	b101                	j	9e0 <_min_stack-0x1620>
     de2:	0000036f          	jal	t1,de2 <_min_stack-0x121e>
     de6:	05a6                	slli	a1,a1,0x9
     de8:	e000                	fsw	fs0,0(s0)
     dea:	002c                	addi	a1,sp,8
     dec:	0000                	unimp
     dee:	9c01                	0x9c01
     df0:	04fc                	addi	a5,sp,588
     df2:	0000                	unimp
     df4:	2218                	fld	fa4,0(a2)
     df6:	0004                	addi	s1,sp,0
     df8:	0100                	addi	s0,sp,128
     dfa:	000401b3          	add	gp,s0,zero
     dfe:	9400                	0x9400
     e00:	dc80                	sw	s0,56(s1)
     e02:	7c88                	flw	fa0,56(s1)
     e04:	4e18                	lw	a4,24(a2)
     e06:	01000003          	lb	zero,16(zero) # 10 <_min_stack-0x1ff0>
     e0a:	000401b3          	add	gp,s0,zero
     e0e:	9400                	0x9400
     e10:	d480                	sw	s0,40(s1)
     e12:	7c88                	flw	fa0,56(s1)
     e14:	0002e317          	auipc	t1,0x2e
     e18:	0100                	addi	s0,sp,128
     e1a:	000401b3          	add	gp,s0,zero
     e1e:	4c00                	lw	s0,24(s0)
     e20:	000c                	addi	a1,sp,0
     e22:	0000                	unimp
     e24:	3c05                	jal	854 <_min_stack-0x17ac>
     e26:	01000003          	lb	zero,16(zero) # 10 <_min_stack-0x1ff0>
     e2a:	6fa0                	flw	fs0,88(a5)
     e2c:	8e000003          	lb	zero,-1824(zero) # fffff8e0 <pulp__FC+0xfffff8e1>
     e30:	0005                	c.addi	zero,1
     e32:	18e0                	addi	s0,sp,124
     e34:	0000                	unimp
     e36:	0100                	addi	s0,sp,128
     e38:	329c                	fld	fa5,32(a3)
     e3a:	0005                	c.addi	zero,1
     e3c:	1700                	addi	s0,sp,928
     e3e:	037f                	0x37f
     e40:	0000                	unimp
     e42:	a201                	j	f42 <_min_stack-0x10be>
     e44:	0401                	addi	s0,s0,0
     e46:	0000                	unimp
     e48:	0c74                	addi	a3,sp,540
     e4a:	0000                	unimp
     e4c:	6119                	addi	sp,sp,384
     e4e:	0100                	addi	s0,sp,128
     e50:	000025a3          	sw	zero,11(zero) # b <_min_stack-0x1ff5>
     e54:	9c00                	0x9c00
     e56:	000c                	addi	a1,sp,0
     e58:	0000                	unimp
     e5a:	2b05                	jal	138a <_min_stack-0xc76>
     e5c:	01000003          	lb	zero,16(zero) # 10 <_min_stack-0x1ff0>
     e60:	6f89                	lui	t6,0x2
     e62:	62000003          	lb	zero,1568(zero) # 620 <_min_stack-0x19e0>
     e66:	0005                	c.addi	zero,1
     e68:	2ce0                	fld	fs0,216(s1)
     e6a:	0000                	unimp
     e6c:	0100                	addi	s0,sp,128
     e6e:	cc9c                	sw	a5,24(s1)
     e70:	0005                	c.addi	zero,1
     e72:	1800                	addi	s0,sp,48
     e74:	02f6                	slli	t0,t0,0x1d
     e76:	0000                	unimp
     e78:	8b01                	andi	a4,a4,0
     e7a:	0401                	addi	s0,s0,0
     e7c:	0000                	unimp
     e7e:	9080                	0x9080
     e80:	88c4                	0x88c4
     e82:	187c                	addi	a5,sp,60
     e84:	02fd                	addi	t0,t0,31
     e86:	0000                	unimp
     e88:	8b01                	andi	a4,a4,0
     e8a:	0401                	addi	s0,s0,0
     e8c:	0000                	unimp
     e8e:	9084                	0x9084
     e90:	88c4                	0x88c4
     e92:	187c                	addi	a5,sp,60
     e94:	0304                	addi	s1,sp,384
     e96:	0000                	unimp
     e98:	8b01                	andi	a4,a4,0
     e9a:	0401                	addi	s0,s0,0
     e9c:	0000                	unimp
     e9e:	9088                	0x9088
     ea0:	88c4                	0x88c4
     ea2:	187c                	addi	a5,sp,60
     ea4:	0000030b          	p.lb	t1,0(zero!) # 0 <_min_stack-0x2000>
     ea8:	8b01                	andi	a4,a4,0
     eaa:	0401                	addi	s0,s0,0
     eac:	0000                	unimp
     eae:	908c                	0x908c
     eb0:	88c4                	0x88c4
     eb2:	187c                	addi	a5,sp,60
     eb4:	04a5                	addi	s1,s1,9
     eb6:	0000                	unimp
     eb8:	8c01                	sub	s0,s0,s0
     eba:	0401                	addi	s0,s0,0
     ebc:	0000                	unimp
     ebe:	9080                	0x9080
     ec0:	8084                	0x8084
     ec2:	1878                	addi	a4,sp,60
     ec4:	04ad                	addi	s1,s1,11
     ec6:	0000                	unimp
     ec8:	8c01                	sub	s0,s0,s0
     eca:	0401                	addi	s0,s0,0
     ecc:	0000                	unimp
     ece:	9084                	0x9084
     ed0:	8084                	0x8084
     ed2:	1878                	addi	a4,sp,60
     ed4:	04b5                	addi	s1,s1,13
     ed6:	0000                	unimp
     ed8:	8c01                	sub	s0,s0,s0
     eda:	0401                	addi	s0,s0,0
     edc:	0000                	unimp
     ede:	9088                	0x9088
     ee0:	8084                	0x8084
     ee2:	1878                	addi	a4,sp,60
     ee4:	04bd                	addi	s1,s1,15
     ee6:	0000                	unimp
     ee8:	8c01                	sub	s0,s0,s0
     eea:	0401                	addi	s0,s0,0
     eec:	0000                	unimp
     eee:	908c                	0x908c
     ef0:	8084                	0x8084
     ef2:	0078                	addi	a4,sp,12
     ef4:	6d05                	lui	s10,0x1
     ef6:	0004                	addi	s1,sp,0
     ef8:	0100                	addi	s0,sp,128
     efa:	6f72                	flw	ft10,28(sp)
     efc:	36000003          	lb	zero,864(zero) # 360 <_min_stack-0x1ca0>
     f00:	0005                	c.addi	zero,1
     f02:	2ce0                	fld	fs0,216(s1)
     f04:	0000                	unimp
     f06:	0100                	addi	s0,sp,128
     f08:	629c                	flw	fa5,0(a3)
     f0a:	0006                	0x6
     f0c:	1800                	addi	s0,sp,48
     f0e:	02f6                	slli	t0,t0,0x1d
     f10:	0000                	unimp
     f12:	7401                	lui	s0,0xfffe0
     f14:	0401                	addi	s0,s0,0
     f16:	0000                	unimp
     f18:	9080                	0x9080
     f1a:	88c4                	0x88c4
     f1c:	187c                	addi	a5,sp,60
     f1e:	02fd                	addi	t0,t0,31
     f20:	0000                	unimp
     f22:	7401                	lui	s0,0xfffe0
     f24:	0401                	addi	s0,s0,0
     f26:	0000                	unimp
     f28:	9084                	0x9084
     f2a:	88c4                	0x88c4
     f2c:	187c                	addi	a5,sp,60
     f2e:	0304                	addi	s1,sp,384
     f30:	0000                	unimp
     f32:	7401                	lui	s0,0xfffe0
     f34:	0401                	addi	s0,s0,0
     f36:	0000                	unimp
     f38:	9088                	0x9088
     f3a:	88c4                	0x88c4
     f3c:	187c                	addi	a5,sp,60
     f3e:	0000030b          	p.lb	t1,0(zero!) # 0 <_min_stack-0x2000>
     f42:	7401                	lui	s0,0xfffe0
     f44:	0401                	addi	s0,s0,0
     f46:	0000                	unimp
     f48:	908c                	0x908c
     f4a:	88c4                	0x88c4
     f4c:	087c                	addi	a5,sp,28
     f4e:	049c                	addi	a5,sp,576
     f50:	0000                	unimp
     f52:	7501                	lui	a0,0xfffe0
     f54:	0401                	addi	s0,s0,0
     f56:	0000                	unimp
     f58:	0800                	addi	s0,sp,16
     f5a:	1c00                	addi	s0,sp,560
     f5c:	de08                	sw	a0,56(a2)
     f5e:	01000003          	lb	zero,16(zero) # 10 <_min_stack-0x1ff0>
     f62:	0175                	addi	sp,sp,29
     f64:	0004                	addi	s1,sp,0
     f66:	0400                	addi	s0,sp,512
     f68:	0008                	addi	a0,sp,0
     f6a:	081c                	addi	a5,sp,16
     f6c:	000003e7          	jalr	t2,zero
     f70:	7501                	lui	a0,0xfffe0
     f72:	0401                	addi	s0,s0,0
     f74:	0000                	unimp
     f76:	0808                	addi	a0,sp,16
     f78:	1c00                	addi	s0,sp,560
     f7a:	f008                	fsw	fa0,32(s0)
     f7c:	01000003          	lb	zero,16(zero) # 10 <_min_stack-0x1ff0>
     f80:	0175                	addi	sp,sp,29
     f82:	0004                	addi	s1,sp,0
     f84:	0c00                	addi	s0,sp,528
     f86:	0008                	addi	a0,sp,0
     f88:	001c                	addi	a5,sp,0
     f8a:	1205                	addi	tp,tp,-31
     f8c:	0004                	addi	s1,sp,0
     f8e:	0100                	addi	s0,sp,128
     f90:	00036f5b          	p.mac.zh.zl	t5,t1,zero,zero
     f94:	1200                	addi	s0,sp,288
     f96:	0005                	c.addi	zero,1
     f98:	24e0                	fld	fs0,200(s1)
     f9a:	0000                	unimp
     f9c:	0100                	addi	s0,sp,128
     f9e:	fc9c                	fsw	fa5,56(s1)
     fa0:	0006                	0x6
     fa2:	1800                	addi	s0,sp,48
     fa4:	02f6                	slli	t0,t0,0x1d
     fa6:	0000                	unimp
     fa8:	5d01                	li	s10,-32
     faa:	0401                	addi	s0,s0,0
     fac:	0000                	unimp
     fae:	9080                	0x9080
     fb0:	88c4                	0x88c4
     fb2:	187c                	addi	a5,sp,60
     fb4:	02fd                	addi	t0,t0,31
     fb6:	0000                	unimp
     fb8:	5d01                	li	s10,-32
     fba:	0401                	addi	s0,s0,0
     fbc:	0000                	unimp
     fbe:	9084                	0x9084
     fc0:	88c4                	0x88c4
     fc2:	187c                	addi	a5,sp,60
     fc4:	0304                	addi	s1,sp,384
     fc6:	0000                	unimp
     fc8:	5d01                	li	s10,-32
     fca:	0401                	addi	s0,s0,0
     fcc:	0000                	unimp
     fce:	9088                	0x9088
     fd0:	88c4                	0x88c4
     fd2:	187c                	addi	a5,sp,60
     fd4:	0000030b          	p.lb	t1,0(zero!) # 0 <_min_stack-0x2000>
     fd8:	5d01                	li	s10,-32
     fda:	0401                	addi	s0,s0,0
     fdc:	0000                	unimp
     fde:	908c                	0x908c
     fe0:	88c4                	0x88c4
     fe2:	187c                	addi	a5,sp,60
     fe4:	0384                	addi	s1,sp,448
     fe6:	0000                	unimp
     fe8:	5e01                	li	t3,-32
     fea:	0401                	addi	s0,s0,0
     fec:	0000                	unimp
     fee:	e080                	fsw	fs0,0(s1)
     ff0:	187e8083          	lb	ra,391(t4)
     ff4:	0000038b          	p.lb	t2,0(zero!) # 0 <_min_stack-0x2000>
     ff8:	5e01                	li	t3,-32
     ffa:	0401                	addi	s0,s0,0
     ffc:	0000                	unimp
     ffe:	e084                	fsw	fs1,0(s1)
    1000:	187e8083          	lb	ra,391(t4)
    1004:	0392                	slli	t2,t2,0x4
    1006:	0000                	unimp
    1008:	5e01                	li	t3,-32
    100a:	0401                	addi	s0,s0,0
    100c:	0000                	unimp
    100e:	e088                	fsw	fa0,0(s1)
    1010:	187e8083          	lb	ra,391(t4)
    1014:	0399                	addi	t2,t2,6
    1016:	0000                	unimp
    1018:	5e01                	li	t3,-32
    101a:	0401                	addi	s0,s0,0
    101c:	0000                	unimp
    101e:	e08c                	fsw	fa1,0(s1)
    1020:	007e8083          	lb	ra,7(t4)
    1024:	ce05                	beqz	a2,105c <_min_stack-0xfa4>
    1026:	01000003          	lb	zero,16(zero) # 10 <_min_stack-0x1ff0>
    102a:	6f44                	flw	fs1,28(a4)
    102c:	ee000003          	lb	zero,-288(zero) # fffffee0 <pulp__FC+0xfffffee1>
    1030:	0004                	addi	s1,sp,0
    1032:	24e0                	fld	fs0,200(s1)
    1034:	0000                	unimp
    1036:	0100                	addi	s0,sp,128
    1038:	929c                	0x929c
    103a:	18000007          	0x18000007
    103e:	02f6                	slli	t0,t0,0x1d
    1040:	0000                	unimp
    1042:	4601                	li	a2,0
    1044:	0401                	addi	s0,s0,0
    1046:	0000                	unimp
    1048:	9080                	0x9080
    104a:	88c4                	0x88c4
    104c:	187c                	addi	a5,sp,60
    104e:	02fd                	addi	t0,t0,31
    1050:	0000                	unimp
    1052:	4601                	li	a2,0
    1054:	0401                	addi	s0,s0,0
    1056:	0000                	unimp
    1058:	9084                	0x9084
    105a:	88c4                	0x88c4
    105c:	187c                	addi	a5,sp,60
    105e:	0304                	addi	s1,sp,384
    1060:	0000                	unimp
    1062:	4601                	li	a2,0
    1064:	0401                	addi	s0,s0,0
    1066:	0000                	unimp
    1068:	9088                	0x9088
    106a:	88c4                	0x88c4
    106c:	187c                	addi	a5,sp,60
    106e:	0000030b          	p.lb	t1,0(zero!) # 0 <_min_stack-0x2000>
    1072:	4601                	li	a2,0
    1074:	0401                	addi	s0,s0,0
    1076:	0000                	unimp
    1078:	908c                	0x908c
    107a:	88c4                	0x88c4
    107c:	087c                	addi	a5,sp,28
    107e:	03a0                	addi	s0,sp,456
    1080:	0000                	unimp
    1082:	4701                	li	a4,0
    1084:	0401                	addi	s0,s0,0
    1086:	0000                	unimp
    1088:	4000                	lw	s0,0(s0)
    108a:	1040                	addi	s0,sp,36
    108c:	a708                	fsd	fa0,8(a4)
    108e:	01000003          	lb	zero,16(zero) # 10 <_min_stack-0x1ff0>
    1092:	00040147          	fmsub.s	ft2,fs0,ft0,ft0,rne
    1096:	0400                	addi	s0,sp,512
    1098:	4040                	lw	s0,4(s0)
    109a:	0810                	addi	a2,sp,16
    109c:	03ae                	slli	t2,t2,0xb
    109e:	0000                	unimp
    10a0:	4701                	li	a4,0
    10a2:	0401                	addi	s0,s0,0
    10a4:	0000                	unimp
    10a6:	4008                	lw	a0,0(s0)
    10a8:	1040                	addi	s0,sp,36
    10aa:	b508                	fsd	fa0,40(a0)
    10ac:	01000003          	lb	zero,16(zero) # 10 <_min_stack-0x1ff0>
    10b0:	00040147          	fmsub.s	ft2,fs0,ft0,ft0,rne
    10b4:	0c00                	addi	s0,sp,528
    10b6:	4040                	lw	s0,4(s0)
    10b8:	0010                	addi	a2,sp,0
    10ba:	2d05                	jal	16ea <_min_stack-0x916>
    10bc:	0004                	addi	s1,sp,0
    10be:	0100                	addi	s0,sp,128
    10c0:	6f21                	lui	t5,0x8
    10c2:	ce000003          	lb	zero,-800(zero) # fffffce0 <pulp__FC+0xfffffce1>
    10c6:	0004                	addi	s1,sp,0
    10c8:	20e0                	fld	fs0,192(s1)
    10ca:	0000                	unimp
    10cc:	0100                	addi	s0,sp,128
    10ce:	c59c                	sw	a5,8(a1)
    10d0:	17000007          	0x17000007
    10d4:	037f                	0x37f
    10d6:	0000                	unimp
    10d8:	2301                	jal	15d8 <_min_stack-0xa28>
    10da:	0401                	addi	s0,s0,0
    10dc:	0000                	unimp
    10de:	00000cc7          	fmsub.s	fs9,ft0,ft0,ft0,rne
    10e2:	611a                	flw	ft2,132(sp)
    10e4:	0100                	addi	s0,sp,128
    10e6:	2524                	fld	fs1,72(a0)
    10e8:	0000                	unimp
    10ea:	0000                	unimp
    10ec:	1b00                	addi	s0,sp,432
    10ee:	03f9                	addi	t2,t2,30
    10f0:	0000                	unimp
    10f2:	1201                	addi	tp,tp,-32
    10f4:	0000036f          	jal	t1,10f4 <_min_stack-0xf0c>
    10f8:	e101                	bnez	a0,10f8 <_min_stack-0xf08>
    10fa:	1c000007          	0x1c000007
    10fe:	037f                	0x37f
    1100:	0000                	unimp
    1102:	1401                	addi	s0,s0,-32
    1104:	0401                	addi	s0,s0,0
    1106:	0000                	unimp
    1108:	1d00                	addi	s0,sp,688
    110a:	07c5                	addi	a5,a5,17
    110c:	0000                	unimp
    110e:	04be                	slli	s1,s1,0xf
    1110:	e000                	fsw	fs0,0(s0)
    1112:	0010                	addi	a2,sp,0
    1114:	0000                	unimp
    1116:	9c01                	0x9c01
    1118:	07fe                	slli	a5,a5,0x1f
    111a:	0000                	unimp
    111c:	d51e                	sw	t2,168(sp)
    111e:	4f000007          	0x4f000007
    1122:	000d                	c.addi	zero,3
    1124:	0000                	unimp
    1126:	281f 0000 2800      	0x28000000281f
    112c:	0000                	unimp
    112e:	0300                	addi	s0,sp,384
    1130:	00ef1f3b          	0xef1f3b
    1134:	0000                	unimp
    1136:	000000ef          	jal	ra,1136 <_min_stack-0xeca>
    113a:	d6004d03          	lbu	s10,-672(zero) # fffffd60 <pulp__FC+0xfffffd61>
    113e:	0000                	unimp
    1140:	0200                	addi	s0,sp,256
    1142:	3400                	fld	fs0,40(s0)
    1144:	0005                	c.addi	zero,1
    1146:	0400                	addi	s0,sp,512
    1148:	bd01                	j	f58 <_min_stack-0x10a8>
    114a:	0009                	c.addi	zero,2
    114c:	5000                	lw	s0,32(s0)
    114e:	0001                	nop
    1150:	2f00                	fld	fs0,24(a4)
    1152:	61726373          	csrrsi	t1,0x617,4
    1156:	6374                	flw	fa3,68(a4)
    1158:	2f68                	fld	fa0,216(a4)
    115a:	636d                	lui	t1,0x1b
    115c:	6169                	addi	sp,sp,208
    115e:	696e                	flw	fs2,216(sp)
    1160:	2d65682f          	0x2d65682f
    1164:	2f636f73          	csrrsi	t5,0x2f6,6
    1168:	6168                	flw	fa0,68(a0)
    116a:	6472                	flw	fs0,28(sp)
    116c:	65726177          	0x65726177
    1170:	726f772f          	0x726f772f
    1174:	676e696b          	0x676e696b
    1178:	645f 7269 6f2f      	0x6f2f7269645f
    117e:	6570                	flw	fa2,76(a0)
    1180:	746e                	flw	fs0,248(sp)
    1182:	7469                	lui	s0,0xffffa
    1184:	6e61                	lui	t3,0x18
    1186:	2f77682f          	0x2f77682f
    118a:	6f74                	flw	fa3,92(a4)
    118c:	5f70                	lw	a2,124(a4)
    118e:	6165                	addi	sp,sp,112
    1190:	6c72                	flw	fs8,28(sp)
    1192:	79657267          	0x79657267
    1196:	2f77732f          	0x2f77732f
    119a:	6574                	flw	fa3,76(a0)
    119c:	2f737473          	csrrci	s0,0x2f7,6
    11a0:	6d6d6f63          	bltu	s10,s6,187e <_min_stack-0x782>
    11a4:	632f6e6f          	jal	t3,f77d6 <tohost+0xd77ce>
    11a8:	7472                	flw	fs0,60(sp)
    11aa:	2e30                	fld	fa2,88(a2)
    11ac:	732f0053          	0x732f0053
    11b0:	74617263          	bleu	t1,sp,18f4 <_min_stack-0x70c>
    11b4:	6d2f6863          	bltu	t5,s2,1884 <_min_stack-0x77c>
    11b8:	6e616963          	bltu	sp,t1,18aa <_min_stack-0x756>
    11bc:	2f69                	jal	1956 <_min_stack-0x6aa>
    11be:	6568                	flw	fa0,76(a0)
    11c0:	732d                	lui	t1,0xfffeb
    11c2:	682f636f          	jal	t1,f7844 <tohost+0xd783c>
    11c6:	7261                	lui	tp,0xffff8
    11c8:	7764                	flw	fs1,108(a4)
    11ca:	7261                	lui	tp,0xffff8
    11cc:	2f65                	jal	1984 <_min_stack-0x67c>
    11ce:	6b726f77          	0x6b726f77
    11d2:	6e69                	lui	t3,0x1a
    11d4:	69645f67          	0x69645f67
    11d8:	2f72                	fld	ft10,280(sp)
    11da:	6e65706f          	j	588c0 <tohost+0x388b8>
    11de:	6974                	flw	fa3,84(a0)
    11e0:	6174                	flw	fa3,68(a0)
    11e2:	2f6e                	fld	ft10,216(sp)
    11e4:	7768                	flw	fa0,108(a4)
    11e6:	706f742f          	0x706f742f
    11ea:	655f 7261 676c      	0x676c7261655f
    11f0:	6572                	flw	fa0,28(sp)
    11f2:	2f79                	jal	1990 <_min_stack-0x670>
    11f4:	742f7773          	csrrci	a4,0x742,30
    11f8:	7365                	lui	t1,0xffff9
    11fa:	7374                	flw	fa3,100(a4)
    11fc:	616d682f          	0x616d682f
    1200:	65745f63          	ble	s7,s0,185e <_min_stack-0x7a2>
    1204:	47007473          	csrrci	s0,0x470,0
    1208:	554e                	lw	a0,240(sp)
    120a:	4120                	lw	s0,64(a0)
    120c:	2e322053          	0x2e322053
    1210:	3832                	fld	fa6,296(sp)
    1212:	302e                	fld	ft0,232(sp)
    1214:	0100                	addi	s0,sp,128
    1216:	80 00 81 3a 01          	Address 0x0000000000001216 is out of bounds.


Disassembly of section .debug_abbrev:

00000000 <.debug_abbrev>:
   0:	1101                	addi	sp,sp,-32
   2:	2501                	jal	602 <_min_stack-0x19fe>
   4:	130e                	slli	t1,t1,0x23
   6:	1b0e030b          	p.lb	t1,432(t3!) # 1a1b0 <_stack_len+0x121b0>
   a:	110e                	slli	sp,sp,0x23
   c:	1201                	addi	tp,tp,-32
   e:	1006                	0x1006
  10:	02000017          	auipc	zero,0x2000
  14:	0016                	0x16
  16:	0b3a0e03          	lb	t3,179(s4)
  1a:	13490b3b          	0x13490b3b
  1e:	0000                	unimp
  20:	0b000f03          	lb	t5,176(zero) # b0 <_min_stack-0x1f50>
  24:	000e030b          	p.lb	t1,0(t3!)
  28:	0400                	addi	s0,sp,512
  2a:	0024                	addi	s1,sp,8
  2c:	0b3e0b0b          	p.lb	s6,179(t3!)
  30:	00000803          	lb	a6,0(zero) # 0 <_min_stack-0x2000>
  34:	3505                	jal	fffffe54 <pulp__FC+0xfffffe55>
  36:	4900                	lw	s0,16(a0)
  38:	06000013          	li	zero,96
  3c:	0024                	addi	s1,sp,8
  3e:	0b3e0b0b          	p.lb	s6,179(t3!)
  42:	00000e03          	lb	t3,0(zero) # 0 <_min_stack-0x2000>
  46:	49010107          	0x49010107
  4a:	00130113          	addi	sp,t1,1 # ffff9001 <pulp__FC+0xffff9002>
  4e:	0800                	addi	s0,sp,16
  50:	0021                	c.addi	zero,8
  52:	1349                	addi	t1,t1,-14
  54:	00000b2f          	0xb2f
  58:	2609                	jal	35a <_min_stack-0x1ca6>
  5a:	4900                	lw	s0,16(a0)
  5c:	0a000013          	li	zero,160
  60:	0034                	addi	a3,sp,8
  62:	0b3a0e03          	lb	t3,179(s4)
  66:	13490b3b          	0x13490b3b
  6a:	1802193f 2e0b0000 	0x2e0b00001802193f
  72:	3f01                	jal	ffffff82 <pulp__FC+0xffffff83>
  74:	0319                	addi	t1,t1,6
  76:	3a0e                	fld	fs4,224(sp)
  78:	27053b0b          	0x27053b0b
  7c:	1119                	addi	sp,sp,-26
  7e:	1201                	addi	tp,tp,-32
  80:	4006                	0x4006
  82:	9718                	0x9718
  84:	1942                	slli	s2,s2,0x30
  86:	1301                	addi	t1,t1,-32
  88:	0000                	unimp
  8a:	340c                	fld	fa1,40(s0)
  8c:	0300                	addi	s0,sp,384
  8e:	3a0e                	fld	fs4,224(sp)
  90:	49053b0b          	0x49053b0b
  94:	000b1c13          	slli	s8,s6,0x0
  98:	0d00                	addi	s0,sp,656
  9a:	0034                	addi	a3,sp,8
  9c:	0b3a0803          	lb	a6,179(s4)
  a0:	1349053b          	0x1349053b
  a4:	1702                	slli	a4,a4,0x20
  a6:	0000                	unimp
  a8:	340e                	fld	fs0,224(sp)
  aa:	0300                	addi	s0,sp,384
  ac:	3a0e                	fld	fs4,224(sp)
  ae:	49053b0b          	0x49053b0b
  b2:	00170213          	addi	tp,a4,1 # 8001 <_stack_len+0x1>
  b6:	0f00                	addi	s0,sp,912
  b8:	0034                	addi	a3,sp,8
  ba:	0b3a0e03          	lb	t3,179(s4)
  be:	1349053b          	0x1349053b
  c2:	061c                	addi	a5,sp,768
  c4:	0000                	unimp
  c6:	3410                	fld	fa2,40(s0)
  c8:	0300                	addi	s0,sp,384
  ca:	3a0e                	fld	fs4,224(sp)
  cc:	49053b0b          	0x49053b0b
  d0:	000d1c13          	slli	s8,s10,0x0
  d4:	1100                	addi	s0,sp,160
  d6:	0b0b000f          	0xb0b000f
  da:	1349                	addi	t1,t1,-14
  dc:	0000                	unimp
  de:	2e12                	fld	ft8,256(sp)
  e0:	3f01                	jal	fffffff0 <pulp__FC+0xfffffff1>
  e2:	0319                	addi	t1,t1,6
  e4:	3a0e                	fld	fs4,224(sp)
  e6:	27053b0b          	0x27053b0b
  ea:	4919                	li	s2,6
  ec:	12011113          	0x12011113
  f0:	4006                	0x4006
  f2:	9718                	0x9718
  f4:	1942                	slli	s2,s2,0x30
  f6:	1301                	addi	t1,t1,-32
  f8:	0000                	unimp
  fa:	03000513          	li	a0,48
  fe:	3a08                	fld	fa0,48(a2)
 100:	49053b0b          	0x49053b0b
 104:	00170213          	addi	tp,a4,1
 108:	1400                	addi	s0,sp,544
 10a:	011d                	addi	sp,sp,7
 10c:	1331                	addi	t1,t1,-20
 10e:	0111                	addi	sp,sp,4
 110:	0612                	slli	a2,a2,0x4
 112:	0b58                	addi	a4,sp,404
 114:	0559                	addi	a0,a0,22
 116:	1301                	addi	t1,t1,-32
 118:	0000                	unimp
 11a:	0515                	addi	a0,a0,5
 11c:	3100                	fld	fs0,32(a0)
 11e:	00170213          	addi	tp,a4,1
 122:	1600                	addi	s0,sp,800
 124:	8289                	srli	a3,a3,0x2
 126:	0101                	addi	sp,sp,0
 128:	0111                	addi	sp,sp,4
 12a:	1331                	addi	t1,t1,-20
 12c:	0000                	unimp
 12e:	01828a17          	auipc	s4,0x1828
 132:	0200                	addi	s0,sp,256
 134:	9118                	0x9118
 136:	1842                	slli	a6,a6,0x30
 138:	0000                	unimp
 13a:	1d18                	addi	a4,sp,688
 13c:	3101                	jal	fffffd3c <pulp__FC+0xfffffd3d>
 13e:	12011113          	0x12011113
 142:	5806                	lw	a6,96(sp)
 144:	0005590b          	p.lhu	s2,0(a0!) # fffe0000 <pulp__FC+0xfffe0001>
 148:	1900                	addi	s0,sp,176
 14a:	8289                	srli	a3,a3,0x2
 14c:	0001                	nop
 14e:	0111                	addi	sp,sp,4
 150:	1331                	addi	t1,t1,-20
 152:	0000                	unimp
 154:	051a                	slli	a0,a0,0x6
 156:	0300                	addi	s0,sp,384
 158:	3a0e                	fld	fs4,224(sp)
 15a:	49053b0b          	0x49053b0b
 15e:	00170213          	addi	tp,a4,1
 162:	1b00                	addi	s0,sp,432
 164:	0018                	addi	a4,sp,0
 166:	0000                	unimp
 168:	341c                	fld	fa5,40(s0)
 16a:	0300                	addi	s0,sp,384
 16c:	3a08                	fld	fa0,48(a2)
 16e:	49053b0b          	0x49053b0b
 172:	1d000013          	li	zero,464
 176:	0034                	addi	a3,sp,8
 178:	0b3a0803          	lb	a6,179(s4) # 18281e1 <tohost+0x18081d9>
 17c:	1349053b          	0x1349053b
 180:	1802                	slli	a6,a6,0x20
 182:	0000                	unimp
 184:	1d1e                	slli	s10,s10,0x27
 186:	3101                	jal	fffffd86 <pulp__FC+0xfffffd87>
 188:	55015213          	0x55015213
 18c:	590b5817          	auipc	a6,0x590b5
 190:	0005                	c.addi	zero,1
 192:	1f00                	addi	s0,sp,944
 194:	0005                	c.addi	zero,1
 196:	1331                	addi	t1,t1,-20
 198:	0b1c                	addi	a5,sp,400
 19a:	0000                	unimp
 19c:	0b20                	addi	s0,sp,408
 19e:	5501                	li	a0,-32
 1a0:	21000017          	auipc	zero,0x21000
 1a4:	0034                	addi	a3,sp,8
 1a6:	1331                	addi	t1,t1,-20
 1a8:	1702                	slli	a4,a4,0x20
 1aa:	0000                	unimp
 1ac:	3422                	fld	fs0,40(sp)
 1ae:	3100                	fld	fs0,32(a0)
 1b0:	00180213          	addi	tp,a6,1 # 590b518d <tohost+0x59095185>
 1b4:	2300                	fld	fs0,0(a4)
 1b6:	000a                	0xa
 1b8:	1331                	addi	t1,t1,-20
 1ba:	0111                	addi	sp,sp,4
 1bc:	0000                	unimp
 1be:	0b24                	addi	s1,sp,408
 1c0:	3101                	jal	fffffdc0 <pulp__FC+0xfffffdc1>
 1c2:	01175513          	srli	a0,a4,0x11
 1c6:	25000013          	li	zero,592
 1ca:	011d                	addi	sp,sp,7
 1cc:	1331                	addi	t1,t1,-20
 1ce:	0152                	slli	sp,sp,0x14
 1d0:	1755                	addi	a4,a4,-11
 1d2:	0b58                	addi	a4,sp,404
 1d4:	0559                	addi	a0,a0,22
 1d6:	1301                	addi	t1,t1,-32
 1d8:	0000                	unimp
 1da:	1d26                	slli	s10,s10,0x29
 1dc:	3101                	jal	fffffddc <pulp__FC+0xfffffddd>
 1de:	55015213          	0x55015213
 1e2:	590b5817          	auipc	a6,0x590b5
 1e6:	2700000b          	p.lb	zero,624(zero!) # 270 <_min_stack-0x1d90>
 1ea:	012e                	slli	sp,sp,0xb
 1ec:	0b3a0e03          	lb	t3,179(s4)
 1f0:	19270b3b          	0x19270b3b
 1f4:	1349                	addi	t1,t1,-14
 1f6:	0b20                	addi	s0,sp,408
 1f8:	1301                	addi	t1,t1,-32
 1fa:	0000                	unimp
 1fc:	0528                	addi	a0,sp,648
 1fe:	0300                	addi	s0,sp,384
 200:	3a08                	fld	fa0,48(a2)
 202:	490b3b0b          	0x490b3b0b
 206:	29000013          	li	zero,656
 20a:	0005                	c.addi	zero,1
 20c:	0b3a0e03          	lb	t3,179(s4)
 210:	13490b3b          	0x13490b3b
 214:	0000                	unimp
 216:	342a                	fld	fs0,168(sp)
 218:	0300                	addi	s0,sp,384
 21a:	3a0e                	fld	fs4,224(sp)
 21c:	490b3b0b          	0x490b3b0b
 220:	2b000013          	li	zero,688
 224:	0034                	addi	a3,sp,8
 226:	0b3a0803          	lb	a6,179(s4)
 22a:	13490b3b          	0x13490b3b
 22e:	0000                	unimp
 230:	0a2c                	addi	a1,sp,280
 232:	0300                	addi	s0,sp,384
 234:	3a08                	fld	fa0,48(a2)
 236:	00053b0b          	0x53b0b
 23a:	2d00                	fld	fs0,24(a0)
 23c:	0000010b          	p.lb	sp,0(zero!) # 0 <_min_stack-0x2000>
 240:	2e2e                	fld	ft8,200(sp)
 242:	0301                	addi	t1,t1,0
 244:	3a0e                	fld	fs4,224(sp)
 246:	270b3b0b          	0x270b3b0b
 24a:	2019                	jal	250 <_min_stack-0x1db0>
 24c:	0013010b          	p.lb	sp,1(t1!)
 250:	2f00                	fld	fs0,24(a4)
 252:	012e                	slli	sp,sp,0xb
 254:	0e03193f 0b3b0b3a 	0xb3b0b3a0e03193f
 25c:	13491927          	0x13491927
 260:	0b20                	addi	s0,sp,408
 262:	1301                	addi	t1,t1,-32
 264:	0000                	unimp
 266:	2e30                	fld	fa2,88(a2)
 268:	3f00                	fld	fs0,56(a4)
 26a:	0319                	addi	t1,t1,6
 26c:	3a0e                	fld	fs4,224(sp)
 26e:	270b3b0b          	0x270b3b0b
 272:	1119                	addi	sp,sp,-26
 274:	1201                	addi	tp,tp,-32
 276:	4006                	0x4006
 278:	9718                	0x9718
 27a:	1942                	slli	s2,s2,0x30
 27c:	0000                	unimp
 27e:	2e31                	jal	59a <_min_stack-0x1a66>
 280:	3f01                	jal	190 <_min_stack-0x1e70>
 282:	0319                	addi	t1,t1,6
 284:	3a0e                	fld	fs4,224(sp)
 286:	270b3b0b          	0x270b3b0b
 28a:	1119                	addi	sp,sp,-26
 28c:	1201                	addi	tp,tp,-32
 28e:	4006                	0x4006
 290:	9718                	0x9718
 292:	1942                	slli	s2,s2,0x30
 294:	1301                	addi	t1,t1,-32
 296:	0000                	unimp
 298:	0532                	slli	a0,a0,0xc
 29a:	0300                	addi	s0,sp,384
 29c:	3a08                	fld	fa0,48(a2)
 29e:	490b3b0b          	0x490b3b0b
 2a2:	00180213          	addi	tp,a6,1 # 590b51e3 <tohost+0x590951db>
 2a6:	3300                	fld	fs0,32(a4)
 2a8:	002e                	0x2e
 2aa:	0e03193f 0b3b0b3a 	0xb3b0b3a0e03193f
 2b2:	1349                	addi	t1,t1,-14
 2b4:	0111                	addi	sp,sp,4
 2b6:	0612                	slli	a2,a2,0x4
 2b8:	1840                	addi	s0,sp,52
 2ba:	00194297          	auipc	t0,0x194
 2be:	3400                	fld	fs0,40(s0)
 2c0:	0005                	c.addi	zero,1
 2c2:	0b3a0803          	lb	a6,179(s4)
 2c6:	13490b3b          	0x13490b3b
 2ca:	1702                	slli	a4,a4,0x20
 2cc:	0000                	unimp
 2ce:	3435                	jal	fffffcfa <pulp__FC+0xfffffcfb>
 2d0:	0300                	addi	s0,sp,384
 2d2:	3a08                	fld	fa0,48(a2)
 2d4:	490b3b0b          	0x490b3b0b
 2d8:	000b1c13          	slli	s8,s6,0x0
 2dc:	3600                	fld	fs0,40(a2)
 2de:	0005                	c.addi	zero,1
 2e0:	0b3a0e03          	lb	t3,179(s4)
 2e4:	13490b3b          	0x13490b3b
 2e8:	1802                	slli	a6,a6,0x20
 2ea:	0000                	unimp
 2ec:	03000537          	lui	a0,0x3000
 2f0:	3a0e                	fld	fs4,224(sp)
 2f2:	490b3b0b          	0x490b3b0b
 2f6:	00170213          	addi	tp,a4,1
 2fa:	3800                	fld	fs0,48(s0)
 2fc:	8289                	srli	a3,a3,0x2
 2fe:	0101                	addi	sp,sp,0
 300:	0111                	addi	sp,sp,4
 302:	4295                	li	t0,5
 304:	3119                	jal	ffffff0a <pulp__FC+0xffffff0b>
 306:	39000013          	li	zero,912
 30a:	012e                	slli	sp,sp,0xb
 30c:	1331                	addi	t1,t1,-20
 30e:	0111                	addi	sp,sp,4
 310:	0612                	slli	a2,a2,0x4
 312:	1840                	addi	s0,sp,52
 314:	01194297          	auipc	t0,0x1194
 318:	3a000013          	li	zero,928
 31c:	011d                	addi	sp,sp,7
 31e:	1331                	addi	t1,t1,-20
 320:	0152                	slli	sp,sp,0x14
 322:	1755                	addi	a4,a4,-11
 324:	0b58                	addi	a4,sp,404
 326:	0b59                	addi	s6,s6,22
 328:	1301                	addi	t1,t1,-32
 32a:	0000                	unimp
 32c:	3100053b          	0x3100053b
 330:	3c000013          	li	zero,960
 334:	011d                	addi	sp,sp,7
 336:	1331                	addi	t1,t1,-20
 338:	0111                	addi	sp,sp,4
 33a:	0612                	slli	a2,a2,0x4
 33c:	0b58                	addi	a4,sp,404
 33e:	0b59                	addi	s6,s6,22
 340:	0000                	unimp
 342:	343d                	jal	fffffd70 <pulp__FC+0xfffffd71>
 344:	3100                	fld	fs0,32(a0)
 346:	3e000013          	li	zero,992
 34a:	011d                	addi	sp,sp,7
 34c:	1331                	addi	t1,t1,-20
 34e:	0111                	addi	sp,sp,4
 350:	0612                	slli	a2,a2,0x4
 352:	0b58                	addi	a4,sp,404
 354:	0b59                	addi	s6,s6,22
 356:	1301                	addi	t1,t1,-32
 358:	0000                	unimp
 35a:	0182893f 31011101 	0x310111010182893f
 362:	00130113          	addi	sp,t1,1
 366:	4000                	lw	s0,0(s0)
 368:	012e                	slli	sp,sp,0xb
 36a:	1331                	addi	t1,t1,-20
 36c:	0111                	addi	sp,sp,4
 36e:	0612                	slli	a2,a2,0x4
 370:	1840                	addi	s0,sp,52
 372:	00194297          	auipc	t0,0x194
 376:	0000                	unimp
 378:	1101                	addi	sp,sp,-32
 37a:	2501                	jal	97a <_min_stack-0x1686>
 37c:	130e                	slli	t1,t1,0x23
 37e:	1b0e030b          	p.lb	t1,432(t3!)
 382:	550e                	lw	a0,224(sp)
 384:	10011117          	auipc	sp,0x10011
 388:	02000017          	auipc	zero,0x2000
 38c:	0024                	addi	s1,sp,8
 38e:	0b3e0b0b          	p.lb	s6,179(t3!)
 392:	00000803          	lb	a6,0(zero) # 0 <_min_stack-0x2000>
 396:	49003503          	0x49003503
 39a:	04000013          	li	zero,64
 39e:	0024                	addi	s1,sp,8
 3a0:	0b3e0b0b          	p.lb	s6,179(t3!)
 3a4:	00000e03          	lb	t3,0(zero) # 0 <_min_stack-0x2000>
 3a8:	2e05                	jal	6d8 <_min_stack-0x1928>
 3aa:	3f01                	jal	2ba <_min_stack-0x1d46>
 3ac:	0319                	addi	t1,t1,6
 3ae:	3a0e                	fld	fs4,224(sp)
 3b0:	270b3b0b          	0x270b3b0b
 3b4:	4919                	li	s2,6
 3b6:	12011113          	0x12011113
 3ba:	4006                	0x4006
 3bc:	9718                	0x9718
 3be:	1942                	slli	s2,s2,0x30
 3c0:	1301                	addi	t1,t1,-32
 3c2:	0000                	unimp
 3c4:	0506                	slli	a0,a0,0x1
 3c6:	0300                	addi	s0,sp,384
 3c8:	3a0e                	fld	fs4,224(sp)
 3ca:	490b3b0b          	0x490b3b0b
 3ce:	00170213          	addi	tp,a4,1
 3d2:	0700                	addi	s0,sp,896
 3d4:	0034                	addi	a3,sp,8
 3d6:	0b3a0803          	lb	a6,179(s4)
 3da:	13490b3b          	0x13490b3b
 3de:	0000                	unimp
 3e0:	3408                	fld	fa0,40(s0)
 3e2:	0300                	addi	s0,sp,384
 3e4:	3a0e                	fld	fs4,224(sp)
 3e6:	490b3b0b          	0x490b3b0b
 3ea:	00061c13          	slli	s8,a2,0x0
 3ee:	0900                	addi	s0,sp,144
 3f0:	0034                	addi	a3,sp,8
 3f2:	0b3a0803          	lb	a6,179(s4)
 3f6:	13490b3b          	0x13490b3b
 3fa:	0d1c                	addi	a5,sp,656
 3fc:	0000                	unimp
 3fe:	1d0a                	slli	s10,s10,0x22
 400:	3101                	jal	0 <_min_stack-0x2000>
 402:	55015213          	0x55015213
 406:	590b5817          	auipc	a6,0x590b5
 40a:	0013010b          	p.lb	sp,1(t1!)
 40e:	0b00                	addi	s0,sp,400
 410:	1755010b          	p.lb	sp,373(a0!) # 3000175 <tohost+0x2fe016d>
 414:	0000                	unimp
 416:	340c                	fld	fa1,40(s0)
 418:	3100                	fld	fs0,32(a0)
 41a:	0d000013          	li	zero,208
 41e:	011d                	addi	sp,sp,7
 420:	1331                	addi	t1,t1,-20
 422:	0111                	addi	sp,sp,4
 424:	0612                	slli	a2,a2,0x4
 426:	0b58                	addi	a4,sp,404
 428:	0b59                	addi	s6,s6,22
 42a:	1301                	addi	t1,t1,-32
 42c:	0000                	unimp
 42e:	0b0e                	slli	s6,s6,0x3
 430:	1101                	addi	sp,sp,-32
 432:	1201                	addi	tp,tp,-32
 434:	0006                	0x6
 436:	0f00                	addi	s0,sp,912
 438:	8289                	srli	a3,a3,0x2
 43a:	0101                	addi	sp,sp,0
 43c:	0111                	addi	sp,sp,4
 43e:	1331                	addi	t1,t1,-20
 440:	1301                	addi	t1,t1,-32
 442:	0000                	unimp
 444:	8a10                	0x8a10
 446:	0182                	slli	gp,gp,0x0
 448:	0200                	addi	s0,sp,256
 44a:	9118                	0x9118
 44c:	1842                	slli	a6,a6,0x30
 44e:	0000                	unimp
 450:	8911                	andi	a0,a0,4
 452:	0182                	slli	gp,gp,0x0
 454:	1100                	addi	s0,sp,160
 456:	3101                	jal	56 <_min_stack-0x1faa>
 458:	12000013          	li	zero,288
 45c:	8289                	srli	a3,a3,0x2
 45e:	0101                	addi	sp,sp,0
 460:	0111                	addi	sp,sp,4
 462:	1331                	addi	t1,t1,-20
 464:	0000                	unimp
 466:	0b000f13          	li	t5,176
 46a:	0013490b          	p.lbu	s2,1(t1!)
 46e:	1400                	addi	s0,sp,544
 470:	012e                	slli	sp,sp,0xb
 472:	0e03193f 053b0b3a 	0x53b0b3a0e03193f
 47a:	13491927          	0x13491927
 47e:	0111                	addi	sp,sp,4
 480:	0612                	slli	a2,a2,0x4
 482:	1840                	addi	s0,sp,52
 484:	01194297          	auipc	t0,0x1194
 488:	15000013          	li	zero,336
 48c:	0034                	addi	a3,sp,8
 48e:	0b3a0e03          	lb	t3,179(s4)
 492:	1349053b          	0x1349053b
 496:	1702                	slli	a4,a4,0x20
 498:	0000                	unimp
 49a:	3416                	fld	fs0,352(sp)
 49c:	0300                	addi	s0,sp,384
 49e:	3a08                	fld	fa0,48(a2)
 4a0:	49053b0b          	0x49053b0b
 4a4:	00180213          	addi	tp,a6,1 # 590b5407 <tohost+0x590953ff>
 4a8:	1700                	addi	s0,sp,928
 4aa:	0034                	addi	a3,sp,8
 4ac:	0b3a0e03          	lb	t3,179(s4)
 4b0:	13490b3b          	0x13490b3b
 4b4:	1702                	slli	a4,a4,0x20
 4b6:	0000                	unimp
 4b8:	3418                	fld	fa4,40(s0)
 4ba:	0300                	addi	s0,sp,384
 4bc:	3a0e                	fld	fs4,224(sp)
 4be:	490b3b0b          	0x490b3b0b
 4c2:	000d1c13          	slli	s8,s10,0x0
 4c6:	1900                	addi	s0,sp,176
 4c8:	0034                	addi	a3,sp,8
 4ca:	0b3a0803          	lb	a6,179(s4)
 4ce:	13490b3b          	0x13490b3b
 4d2:	1702                	slli	a4,a4,0x20
 4d4:	0000                	unimp
 4d6:	341a                	fld	fs0,416(sp)
 4d8:	0300                	addi	s0,sp,384
 4da:	3a08                	fld	fa0,48(a2)
 4dc:	490b3b0b          	0x490b3b0b
 4e0:	000b1c13          	slli	s8,s6,0x0
 4e4:	1b00                	addi	s0,sp,432
 4e6:	012e                	slli	sp,sp,0xb
 4e8:	0e03193f 0b3b0b3a 	0xb3b0b3a0e03193f
 4f0:	13491927          	0x13491927
 4f4:	0b20                	addi	s0,sp,408
 4f6:	1301                	addi	t1,t1,-32
 4f8:	0000                	unimp
 4fa:	341c                	fld	fa5,40(s0)
 4fc:	0300                	addi	s0,sp,384
 4fe:	3a0e                	fld	fs4,224(sp)
 500:	490b3b0b          	0x490b3b0b
 504:	1d000013          	li	zero,464
 508:	012e                	slli	sp,sp,0xb
 50a:	1331                	addi	t1,t1,-20
 50c:	0111                	addi	sp,sp,4
 50e:	0612                	slli	a2,a2,0x4
 510:	1840                	addi	s0,sp,52
 512:	01194297          	auipc	t0,0x1194
 516:	1e000013          	li	zero,480
 51a:	0034                	addi	a3,sp,8
 51c:	1331                	addi	t1,t1,-20
 51e:	1702                	slli	a4,a4,0x20
 520:	0000                	unimp
 522:	2e1f 3f00 3c19      	0x3c193f002e1f
 528:	6e19                	lui	t3,0x6
 52a:	030e                	slli	t1,t1,0x3
 52c:	3a0e                	fld	fs4,224(sp)
 52e:	000b3b0b          	0xb3b0b
 532:	0000                	unimp
 534:	1101                	addi	sp,sp,-32
 536:	1000                	addi	s0,sp,32
 538:	5506                	lw	a0,96(sp)
 53a:	0306                	slli	t1,t1,0x1
 53c:	1b08                	addi	a0,sp,432
 53e:	2508                	fld	fa0,8(a0)
 540:	1308                	addi	a0,sp,416
 542:	0005                	c.addi	zero,1
	...

Disassembly of section .debug_loc:

00000000 <.debug_loc>:
   0:	03fc                	addi	a5,sp,460
   2:	0000                	unimp
   4:	0428                	addi	a0,sp,520
   6:	0000                	unimp
   8:	0001                	nop
   a:	005a                	0x5a
   c:	0000                	unimp
   e:	0000                	unimp
  10:	0000                	unimp
  12:	0200                	addi	s0,sp,256
  14:	0004                	addi	s1,sp,0
  16:	2a00                	fld	fs0,16(a2)
  18:	0004                	addi	s1,sp,0
  1a:	0100                	addi	s0,sp,128
  1c:	5b00                	lw	s0,48(a4)
	...
  26:	0404                	addi	s1,sp,512
  28:	0000                	unimp
  2a:	042c                	addi	a1,sp,520
  2c:	0000                	unimp
  2e:	0001                	nop
  30:	005c                	addi	a5,sp,4
  32:	0000                	unimp
  34:	0000                	unimp
  36:	0000                	unimp
  38:	0a00                	addi	s0,sp,272
  3a:	0004                	addi	s1,sp,0
  3c:	3400                	fld	fs0,40(s0)
  3e:	0004                	addi	s1,sp,0
  40:	0100                	addi	s0,sp,128
  42:	6000                	flw	fs0,0(s0)
	...
  4c:	0406                	slli	s0,s0,0x1
  4e:	0000                	unimp
  50:	042e                	slli	s0,s0,0xb
  52:	0000                	unimp
  54:	0001                	nop
  56:	005d                	c.addi	zero,23
  58:	0000                	unimp
  5a:	0000                	unimp
  5c:	0000                	unimp
  5e:	f000                	fsw	fs0,32(s0)
  60:	22000003          	lb	zero,544(zero) # 220 <_min_stack-0x1de0>
  64:	0004                	addi	s1,sp,0
  66:	0600                	addi	s0,sp,768
  68:	0c00                	addi	s0,sp,528
  6a:	4020                	lw	s0,64(s0)
  6c:	1040                	addi	s0,sp,36
  6e:	229f 0004 2600      	0x26000004229f
  74:	0004                	addi	s1,sp,0
  76:	0600                	addi	s0,sp,768
  78:	0c00                	addi	s0,sp,528
  7a:	4024                	lw	s1,64(s0)
  7c:	1040                	addi	s0,sp,36
  7e:	009f 0000 0000      	0x9f
  84:	0000                	unimp
  86:	9e00                	0x9e00
  88:	ac000003          	lb	zero,-1344(zero) # fffffac0 <pulp__FC+0xfffffac1>
  8c:	01000003          	lb	zero,16(zero) # 10 <_min_stack-0x1ff0>
  90:	5a00                	lw	s0,48(a2)
  92:	03ac                	addi	a1,sp,456
  94:	0000                	unimp
  96:	03c4                	addi	s1,sp,452
  98:	0000                	unimp
  9a:	0001                	nop
  9c:	c459                	beqz	s0,12a <_min_stack-0x1ed6>
  9e:	ca000003          	lb	zero,-864(zero) # fffffca0 <pulp__FC+0xfffffca1>
  a2:	04000003          	lb	zero,64(zero) # 40 <_min_stack-0x1fc0>
  a6:	f300                	fsw	fs0,32(a4)
  a8:	5a01                	li	s4,-32
  aa:	ca9f 0003 ce00      	0xce000003ca9f
  b0:	01000003          	lb	zero,16(zero) # 10 <_min_stack-0x1ff0>
  b4:	5900                	lw	s0,48(a0)
	...
  be:	039e                	slli	t2,t2,0x7
  c0:	0000                	unimp
  c2:	03ac                	addi	a1,sp,456
  c4:	0000                	unimp
  c6:	0002                	0x2
  c8:	9f30                	0x9f30
  ca:	03b0                	addi	a2,sp,456
  cc:	0000                	unimp
  ce:	03c6                	slli	t2,t2,0x11
  d0:	0000                	unimp
  d2:	0001                	nop
  d4:	c662                	sw	s8,12(sp)
  d6:	ca000003          	lb	zero,-864(zero) # fffffca0 <pulp__FC+0xfffffca1>
  da:	01000003          	lb	zero,16(zero) # 10 <_min_stack-0x1ff0>
  de:	5a00                	lw	s0,48(a2)
  e0:	03ca                	slli	t2,t2,0x12
  e2:	0000                	unimp
  e4:	03ce                	slli	t2,t2,0x13
  e6:	0000                	unimp
  e8:	0006                	0x6
  ea:	0078                	addi	a4,sp,12
  ec:	0079                	c.addi	zero,30
  ee:	9f1c                	0x9f1c
	...
  f8:	03b8                	addi	a4,sp,456
  fa:	0000                	unimp
  fc:	03bc                	addi	a5,sp,456
  fe:	0000                	unimp
 100:	0002                	0x2
 102:	9f3a                	add	t5,t5,a4
	...
 10c:	03ca                	slli	t2,t2,0x12
 10e:	0000                	unimp
 110:	000003cb          	fnmsub.s	ft7,ft0,ft0,ft0,rne
 114:	0006                	0x6
 116:	007a                	0x7a
 118:	ff08                	fsw	fa0,56(a4)
 11a:	9f1a                	add	t5,t5,t1
	...
 124:	023c                	addi	a5,sp,264
 126:	0000                	unimp
 128:	027e                	slli	tp,tp,0x1f
 12a:	0000                	unimp
 12c:	0001                	nop
 12e:	7e5a                	flw	ft8,180(sp)
 130:	0002                	0x2
 132:	9400                	0x9400
 134:	04000003          	lb	zero,64(zero) # 40 <_min_stack-0x1fc0>
 138:	f300                	fsw	fs0,32(a4)
 13a:	5a01                	li	s4,-32
 13c:	009f 0000 0000      	0x9f
 142:	0000                	unimp
 144:	6600                	flw	fs0,8(a2)
 146:	0002                	0x2
 148:	8800                	0x8800
 14a:	0002                	0x2
 14c:	0100                	addi	s0,sp,128
 14e:	5800                	lw	s0,48(s0)
 150:	029e                	slli	t0,t0,0x7
 152:	0000                	unimp
 154:	02f0                	addi	a2,sp,332
 156:	0000                	unimp
 158:	0001                	nop
 15a:	f058                	fsw	fa4,36(s0)
 15c:	0002                	0x2
 15e:	fc00                	fsw	fs0,56(s0)
 160:	0002                	0x2
 162:	0100                	addi	s0,sp,128
 164:	6800                	flw	fs0,16(s0)
 166:	02fc                	addi	a5,sp,332
 168:	0000                	unimp
 16a:	031a                	slli	t1,t1,0x6
 16c:	0000                	unimp
 16e:	0001                	nop
 170:	1a58                	addi	a4,sp,308
 172:	2a000003          	lb	zero,672(zero) # 2a0 <_min_stack-0x1d60>
 176:	01000003          	lb	zero,16(zero) # 10 <_min_stack-0x1ff0>
 17a:	6800                	flw	fs0,16(s0)
 17c:	032a                	slli	t1,t1,0xa
 17e:	0000                	unimp
 180:	033a                	slli	t1,t1,0xe
 182:	0000                	unimp
 184:	0001                	nop
 186:	3a58                	fld	fa4,176(a2)
 188:	42000003          	lb	zero,1056(zero) # 420 <_min_stack-0x1be0>
 18c:	01000003          	lb	zero,16(zero) # 10 <_min_stack-0x1ff0>
 190:	6800                	flw	fs0,16(s0)
 192:	0342                	slli	t1,t1,0x10
 194:	0000                	unimp
 196:	034e                	slli	t1,t1,0x13
 198:	0000                	unimp
 19a:	0001                	nop
 19c:	4e58                	lw	a4,28(a2)
 19e:	58000003          	lb	zero,1408(zero) # 580 <_min_stack-0x1a80>
 1a2:	01000003          	lb	zero,16(zero) # 10 <_min_stack-0x1ff0>
 1a6:	6800                	flw	fs0,16(s0)
 1a8:	0358                	addi	a4,sp,388
 1aa:	0000                	unimp
 1ac:	0364                	addi	s1,sp,396
 1ae:	0000                	unimp
 1b0:	0001                	nop
 1b2:	6458                	flw	fa4,12(s0)
 1b4:	6a000003          	lb	zero,1696(zero) # 6a0 <_min_stack-0x1960>
 1b8:	01000003          	lb	zero,16(zero) # 10 <_min_stack-0x1ff0>
 1bc:	6800                	flw	fs0,16(s0)
 1be:	036a                	slli	t1,t1,0x1a
 1c0:	0000                	unimp
 1c2:	0378                	addi	a4,sp,396
 1c4:	0000                	unimp
 1c6:	0001                	nop
 1c8:	7858                	flw	fa4,52(s0)
 1ca:	88000003          	lb	zero,-1920(zero) # fffff880 <pulp__FC+0xfffff881>
 1ce:	01000003          	lb	zero,16(zero) # 10 <_min_stack-0x1ff0>
 1d2:	6800                	flw	fs0,16(s0)
 1d4:	0388                	addi	a0,sp,448
 1d6:	0000                	unimp
 1d8:	0394                	addi	a3,sp,448
 1da:	0000                	unimp
 1dc:	0001                	nop
 1de:	0058                	addi	a4,sp,4
 1e0:	0000                	unimp
 1e2:	0000                	unimp
 1e4:	0000                	unimp
 1e6:	6600                	flw	fs0,8(a2)
 1e8:	0002                	0x2
 1ea:	7e00                	flw	fs0,56(a2)
 1ec:	0002                	0x2
 1ee:	0100                	addi	s0,sp,128
 1f0:	5a00                	lw	s0,48(a2)
 1f2:	027e                	slli	tp,tp,0x1f
 1f4:	0000                	unimp
 1f6:	0284                	addi	s1,sp,320
 1f8:	0000                	unimp
 1fa:	0001                	nop
 1fc:	00029e67          	0x29e67
 200:	a200                	fsd	fs0,0(a2)
 202:	0002                	0x2
 204:	0100                	addi	s0,sp,128
 206:	6700                	flw	fs0,8(a4)
 208:	02a2                	slli	t0,t0,0x8
 20a:	0000                	unimp
 20c:	02ba                	slli	t0,t0,0xe
 20e:	0000                	unimp
 210:	01870003          	lb	zero,24(a4)
 214:	ba9f 0002 bc00      	0xbc000002ba9f
 21a:	0002                	0x2
 21c:	0100                	addi	s0,sp,128
 21e:	5f00                	lw	s0,56(a4)
 220:	02be                	slli	t0,t0,0xf
 222:	0000                	unimp
 224:	02fc                	addi	a5,sp,332
 226:	0000                	unimp
 228:	0001                	nop
 22a:	0002fc67          	0x2fc67
 22e:	0000                	unimp
 230:	03000003          	lb	zero,48(zero) # 30 <_min_stack-0x1fd0>
 234:	8700                	0x8700
 236:	9f01                	0x9f01
 238:	0300                	addi	s0,sp,384
 23a:	0000                	unimp
 23c:	0304                	addi	s1,sp,384
 23e:	0000                	unimp
 240:	017d0003          	lb	zero,23(s10) # 1017 <_min_stack-0xfe9>
 244:	049f 0003 0a00      	0xa000003049f
 24a:	01000003          	lb	zero,16(zero) # 10 <_min_stack-0x1ff0>
 24e:	6700                	flw	fs0,8(a4)
 250:	030a                	slli	t1,t1,0x2
 252:	0000                	unimp
 254:	030c                	addi	a1,sp,384
 256:	0000                	unimp
 258:	7f800003          	lb	zero,2040(zero) # 7f8 <_min_stack-0x1808>
 25c:	0c9f 0003 0e00      	0xe0000030c9f
 262:	03000003          	lb	zero,48(zero) # 30 <_min_stack-0x1fd0>
 266:	8700                	0x8700
 268:	9f01                	0x9f01
 26a:	030e                	slli	t1,t1,0x3
 26c:	0000                	unimp
 26e:	032a                	slli	t1,t1,0xa
 270:	0000                	unimp
 272:	0001                	nop
 274:	00032a67          	0x32a67
 278:	2c00                	fld	fs0,24(s0)
 27a:	03000003          	lb	zero,48(zero) # 30 <_min_stack-0x1fd0>
 27e:	8700                	0x8700
 280:	9f01                	0x9f01
 282:	032c                	addi	a1,sp,392
 284:	0000                	unimp
 286:	0388                	addi	a0,sp,448
 288:	0000                	unimp
 28a:	0001                	nop
 28c:	00038867          	jalr	a6,t2
 290:	8a00                	0x8a00
 292:	03000003          	lb	zero,48(zero) # 30 <_min_stack-0x1fd0>
 296:	7f00                	flw	fs0,56(a4)
 298:	9f01                	0x9f01
 29a:	038a                	slli	t2,t2,0x2
 29c:	0000                	unimp
 29e:	0394                	addi	a3,sp,448
 2a0:	0000                	unimp
 2a2:	0001                	nop
 2a4:	00000067          	jr	zero
 2a8:	0000                	unimp
 2aa:	0000                	unimp
 2ac:	a200                	fsd	fs0,0(a2)
 2ae:	0002                	0x2
 2b0:	ce00                	sw	s0,24(a2)
 2b2:	0002                	0x2
 2b4:	0200                	addi	s0,sp,256
 2b6:	3000                	fld	fs0,32(s0)
 2b8:	ce9f 0002 f800      	0xf8000002ce9f
 2be:	0002                	0x2
 2c0:	0100                	addi	s0,sp,128
 2c2:	5d00                	lw	s0,56(a0)
 2c4:	02f8                	addi	a4,sp,332
 2c6:	0000                	unimp
 2c8:	02f9                	addi	t0,t0,30
 2ca:	0000                	unimp
 2cc:	0001                	nop
 2ce:	0002fc5b          	p.mac.zh.zh	s8,t0,zero,zero
 2d2:	0400                	addi	s0,sp,512
 2d4:	02000003          	lb	zero,32(zero) # 20 <_min_stack-0x1fe0>
 2d8:	3000                	fld	fs0,32(s0)
 2da:	049f 0003 2500      	0x25000003049f
 2e0:	01000003          	lb	zero,16(zero) # 10 <_min_stack-0x1ff0>
 2e4:	5d00                	lw	s0,56(a0)
 2e6:	032e                	slli	t1,t1,0xb
 2e8:	0000                	unimp
 2ea:	0388                	addi	a0,sp,448
 2ec:	0000                	unimp
 2ee:	0001                	nop
 2f0:	885d                	andi	s0,s0,23
 2f2:	8a000003          	lb	zero,-1888(zero) # fffff8a0 <pulp__FC+0xfffff8a1>
 2f6:	02000003          	lb	zero,32(zero) # 20 <_min_stack-0x1fe0>
 2fa:	3000                	fld	fs0,32(s0)
 2fc:	009f 0000 0000      	0x9f
 302:	0000                	unimp
 304:	a200                	fsd	fs0,0(a2)
 306:	0002                	0x2
 308:	ba00                	fsd	fs0,48(a2)
 30a:	0002                	0x2
 30c:	0200                	addi	s0,sp,256
 30e:	3000                	fld	fs0,32(s0)
 310:	ba9f 0002 bc00      	0xbc000002ba9f
 316:	0002                	0x2
 318:	0200                	addi	s0,sp,256
 31a:	3100                	fld	fs0,32(a0)
 31c:	be9f 0002 f800      	0xf8000002be9f
 322:	0002                	0x2
 324:	0100                	addi	s0,sp,128
 326:	5e00                	lw	s0,56(a2)
 328:	02f8                	addi	a4,sp,332
 32a:	0000                	unimp
 32c:	02f9                	addi	t0,t0,30
 32e:	0000                	unimp
 330:	0001                	nop
 332:	fc5c                	fsw	fa5,60(s0)
 334:	0002                	0x2
 336:	2500                	fld	fs0,8(a0)
 338:	01000003          	lb	zero,16(zero) # 10 <_min_stack-0x1ff0>
 33c:	5e00                	lw	s0,56(a2)
 33e:	032e                	slli	t1,t1,0xb
 340:	0000                	unimp
 342:	0388                	addi	a0,sp,448
 344:	0000                	unimp
 346:	0001                	nop
 348:	885e                	mv	a6,s7
 34a:	8a000003          	lb	zero,-1888(zero) # fffff8a0 <pulp__FC+0xfffff8a1>
 34e:	02000003          	lb	zero,32(zero) # 20 <_min_stack-0x1fe0>
 352:	3000                	fld	fs0,32(s0)
 354:	009f 0000 0000      	0x9f
 35a:	0000                	unimp
 35c:	7e00                	flw	fs0,56(a2)
 35e:	0002                	0x2
 360:	9600                	0x9600
 362:	0002                	0x2
 364:	0100                	addi	s0,sp,128
 366:	6600                	flw	fs0,8(a2)
 368:	0296                	slli	t0,t0,0x5
 36a:	0000                	unimp
 36c:	029e                	slli	t0,t0,0x7
 36e:	0000                	unimp
 370:	0001                	nop
 372:	9e5a                	add	t3,t3,s6
 374:	0002                	0x2
 376:	9000                	0x9000
 378:	01000003          	lb	zero,16(zero) # 10 <_min_stack-0x1ff0>
 37c:	6600                	flw	fs0,8(a2)
 37e:	0390                	addi	a2,sp,448
 380:	0000                	unimp
 382:	0392                	slli	t2,t2,0x4
 384:	0000                	unimp
 386:	7f860003          	lb	zero,2040(a2) # fffe07f8 <pulp__FC+0xfffe07f9>
 38a:	929f 0003 9400      	0x94000003929f
 390:	01000003          	lb	zero,16(zero) # 10 <_min_stack-0x1ff0>
 394:	6600                	flw	fs0,8(a2)
	...
 39e:	038a                	slli	t2,t2,0x2
 3a0:	0000                	unimp
 3a2:	0392                	slli	t2,t2,0x4
 3a4:	0000                	unimp
 3a6:	0002                	0x2
 3a8:	9f30                	0x9f30
	...
 3b2:	038a                	slli	t2,t2,0x2
 3b4:	0000                	unimp
 3b6:	0391                	addi	t2,t2,4
 3b8:	0000                	unimp
 3ba:	0008                	addi	a0,sp,0
 3bc:	01940087          	0x1940087
 3c0:	ff08                	fsw	fa0,56(a4)
 3c2:	9f1a                	add	t5,t5,t1
	...
 3cc:	002e                	0x2e
 3ce:	0000                	unimp
 3d0:	0044                	addi	s1,sp,4
 3d2:	0000                	unimp
 3d4:	0001                	nop
 3d6:	445a                	lw	s0,148(sp)
 3d8:	0000                	unimp
 3da:	5400                	lw	s0,40(s0)
 3dc:	0000                	unimp
 3de:	0100                	addi	s0,sp,128
 3e0:	5a00                	lw	s0,48(a2)
	...
 3ea:	002e                	0x2e
 3ec:	0000                	unimp
 3ee:	004a                	0x4a
 3f0:	0000                	unimp
 3f2:	0001                	nop
 3f4:	00004a5b          	p.mac.zl.zl	s4,zero,zero,zero
 3f8:	5400                	lw	s0,40(s0)
 3fa:	0000                	unimp
 3fc:	0100                	addi	s0,sp,128
 3fe:	5b00                	lw	s0,48(a4)
	...
 40c:	0014                	addi	a3,sp,0
 40e:	0000                	unimp
 410:	0001                	nop
 412:	0000145b          	p.macu	s0,zero,zero
 416:	2e00                	fld	fs0,24(a2)
 418:	0000                	unimp
 41a:	0400                	addi	s0,sp,512
 41c:	f300                	fsw	fs0,32(a4)
 41e:	5b01                	li	s6,-32
 420:	009f 0000 0000      	0x9f
 426:	0000                	unimp
 428:	7600                	flw	fs0,40(a2)
 42a:	0000                	unimp
 42c:	9400                	0x9400
 42e:	0000                	unimp
 430:	0100                	addi	s0,sp,128
 432:	5a00                	lw	s0,48(a2)
 434:	0094                	addi	a3,sp,64
 436:	0000                	unimp
 438:	00ca                	slli	ra,ra,0x12
 43a:	0000                	unimp
 43c:	0001                	nop
 43e:	ec59                	bnez	s0,4dc <_min_stack-0x1b24>
 440:	0000                	unimp
 442:	1400                	addi	s0,sp,544
 444:	0001                	nop
 446:	0100                	addi	s0,sp,128
 448:	5900                	lw	s0,48(a0)
	...
 452:	0076                	0x76
 454:	0000                	unimp
 456:	00a6                	slli	ra,ra,0x9
 458:	0000                	unimp
 45a:	0001                	nop
 45c:	0000a65b          	p.addn	a2,ra,zero,0
 460:	ba00                	fsd	fs0,48(a2)
 462:	0000                	unimp
 464:	0100                	addi	s0,sp,128
 466:	5800                	lw	s0,48(s0)
 468:	00ce                	slli	ra,ra,0x13
 46a:	0000                	unimp
 46c:	00e2                	slli	ra,ra,0x18
 46e:	0000                	unimp
 470:	0001                	nop
 472:	ec59                	bnez	s0,510 <_min_stack-0x1af0>
 474:	0000                	unimp
 476:	ee00                	fsw	fs0,24(a2)
 478:	0000                	unimp
 47a:	0100                	addi	s0,sp,128
 47c:	5800                	lw	s0,48(s0)
 47e:	00ee                	slli	ra,ra,0x1b
 480:	0000                	unimp
 482:	00f0                	addi	a2,sp,76
 484:	0000                	unimp
 486:	0001                	nop
 488:	0000f05b          	p.mac.zh.zh	zero,ra,zero,zero
 48c:	f400                	fsw	fs0,40(s0)
 48e:	0000                	unimp
 490:	0100                	addi	s0,sp,128
 492:	6300                	flw	fs0,0(a4)
 494:	00f4                	addi	a3,sp,76
 496:	0000                	unimp
 498:	00f6                	slli	ra,ra,0x1d
 49a:	0000                	unimp
 49c:	7f830003          	lb	zero,2040(t1)
 4a0:	f69f 0000 0600      	0x6000000f69f
 4a6:	0001                	nop
 4a8:	0100                	addi	s0,sp,128
 4aa:	6300                	flw	fs0,0(a4)
 4ac:	0106                	slli	sp,sp,0x1
 4ae:	0000                	unimp
 4b0:	010e                	slli	sp,sp,0x3
 4b2:	0000                	unimp
 4b4:	0001                	nop
 4b6:	1458                	addi	a4,sp,548
 4b8:	0001                	nop
 4ba:	1c00                	addi	s0,sp,560
 4bc:	0001                	nop
 4be:	0100                	addi	s0,sp,128
 4c0:	5900                	lw	s0,48(a0)
	...
 4ca:	0076                	0x76
 4cc:	0000                	unimp
 4ce:	00b6                	slli	ra,ra,0xd
 4d0:	0000                	unimp
 4d2:	0001                	nop
 4d4:	b65c                	fsd	fa5,168(a2)
 4d6:	0000                	unimp
 4d8:	ec00                	fsw	fs0,24(s0)
 4da:	0000                	unimp
 4dc:	0400                	addi	s0,sp,512
 4de:	f300                	fsw	fs0,32(a4)
 4e0:	5c01                	li	s8,-32
 4e2:	ec9f 0000 f000      	0xf0000000ec9f
 4e8:	0000                	unimp
 4ea:	0100                	addi	s0,sp,128
 4ec:	5c00                	lw	s0,56(s0)
 4ee:	00f0                	addi	a2,sp,76
 4f0:	0000                	unimp
 4f2:	011c                	addi	a5,sp,128
 4f4:	0000                	unimp
 4f6:	0004                	addi	s1,sp,0
 4f8:	9f5c01f3          	0x9f5c01f3
	...
 504:	0076                	0x76
 506:	0000                	unimp
 508:	00ba                	slli	ra,ra,0xe
 50a:	0000                	unimp
 50c:	0002                	0x2
 50e:	9f30                	0x9f30
 510:	00c6                	slli	ra,ra,0x11
 512:	0000                	unimp
 514:	00ce                	slli	ra,ra,0x13
 516:	0000                	unimp
 518:	0001                	nop
 51a:	ec64                	fsw	fs1,92(s0)
 51c:	0000                	unimp
 51e:	f000                	fsw	fs0,32(s0)
 520:	0000                	unimp
 522:	0200                	addi	s0,sp,256
 524:	3000                	fld	fs0,32(s0)
 526:	069f 0001 0e00      	0xe000001069f
 52c:	0001                	nop
 52e:	0200                	addi	s0,sp,256
 530:	3000                	fld	fs0,32(s0)
 532:	0e9f 0001 1000      	0x100000010e9f
 538:	0001                	nop
 53a:	0100                	addi	s0,sp,128
 53c:	6400                	flw	fs0,8(s0)
	...
 546:	0076                	0x76
 548:	0000                	unimp
 54a:	00b4                	addi	a3,sp,72
 54c:	0000                	unimp
 54e:	20080003          	lb	zero,512(a6)
 552:	b49f 0000 ce00      	0xce000000b49f
 558:	0000                	unimp
 55a:	0100                	addi	s0,sp,128
 55c:	6200                	flw	fs0,0(a2)
 55e:	00ec                	addi	a1,sp,76
 560:	0000                	unimp
 562:	00f0                	addi	a2,sp,76
 564:	0000                	unimp
 566:	20080003          	lb	zero,512(a6)
 56a:	f09f 0000 1400      	0x14000000f09f
 570:	0001                	nop
 572:	0100                	addi	s0,sp,128
 574:	6200                	flw	fs0,0(a2)
	...
 57e:	009e                	slli	ra,ra,0x7
 580:	0000                	unimp
 582:	00b4                	addi	a3,sp,72
 584:	0000                	unimp
 586:	0001                	nop
 588:	ec5e                	fsw	fs7,24(sp)
 58a:	0000                	unimp
 58c:	f000                	fsw	fs0,32(s0)
 58e:	0000                	unimp
 590:	0100                	addi	s0,sp,128
 592:	5e00                	lw	s0,56(a2)
	...
 59c:	0094                	addi	a3,sp,64
 59e:	0000                	unimp
 5a0:	0096                	slli	ra,ra,0x5
 5a2:	0000                	unimp
 5a4:	0001                	nop
 5a6:	9e5f 0000 aa00      	0xaa0000009e5f
 5ac:	0000                	unimp
 5ae:	0100                	addi	s0,sp,128
 5b0:	5f00                	lw	s0,56(a4)
 5b2:	00ec                	addi	a1,sp,76
 5b4:	0000                	unimp
 5b6:	00f0                	addi	a2,sp,76
 5b8:	0000                	unimp
 5ba:	0001                	nop
 5bc:	005f 0000 0000      	0x5f
 5c2:	0000                	unimp
 5c4:	1400                	addi	s0,sp,544
 5c6:	0001                	nop
 5c8:	1800                	addi	s0,sp,48
 5ca:	0001                	nop
 5cc:	0200                	addi	s0,sp,256
 5ce:	3000                	fld	fs0,32(s0)
 5d0:	009f 0000 0000      	0x9f
 5d6:	0000                	unimp
 5d8:	f000                	fsw	fs0,32(s0)
 5da:	0000                	unimp
 5dc:	f400                	fsw	fs0,40(s0)
 5de:	0000                	unimp
 5e0:	0200                	addi	s0,sp,256
 5e2:	3000                	fld	fs0,32(s0)
 5e4:	009f 0000 0000      	0x9f
 5ea:	0000                	unimp
 5ec:	0e00                	addi	s0,sp,784
 5ee:	0001                	nop
 5f0:	1000                	addi	s0,sp,32
 5f2:	0001                	nop
 5f4:	0200                	addi	s0,sp,256
 5f6:	3000                	fld	fs0,32(s0)
 5f8:	009f 0000 0000      	0x9f
 5fe:	0000                	unimp
 600:	0e00                	addi	s0,sp,784
 602:	0001                	nop
 604:	0f00                	addi	s0,sp,912
 606:	0001                	nop
 608:	0600                	addi	s0,sp,768
 60a:	7a00                	flw	fs0,48(a2)
 60c:	0800                	addi	s0,sp,16
 60e:	1aff                	0x1aff
 610:	009f 0000 0000      	0x9f
 616:	0000                	unimp
 618:	1c00                	addi	s0,sp,560
 61a:	0001                	nop
 61c:	3200                	fld	fs0,32(a2)
 61e:	0001                	nop
 620:	0100                	addi	s0,sp,128
 622:	5a00                	lw	s0,48(a2)
 624:	0132                	slli	sp,sp,0xc
 626:	0000                	unimp
 628:	0142                	slli	sp,sp,0x10
 62a:	0000                	unimp
 62c:	0004                	addi	s1,sp,0
 62e:	9f5a01f3          	0x9f5a01f3
 632:	0142                	slli	sp,sp,0x10
 634:	0000                	unimp
 636:	0152                	slli	sp,sp,0x14
 638:	0000                	unimp
 63a:	0001                	nop
 63c:	525a                	lw	tp,180(sp)
 63e:	0001                	nop
 640:	c000                	sw	s0,0(s0)
 642:	0001                	nop
 644:	0400                	addi	s0,sp,512
 646:	f300                	fsw	fs0,32(a4)
 648:	5a01                	li	s4,-32
 64a:	c09f 0001 c400      	0xc4000001c09f
 650:	0001                	nop
 652:	0100                	addi	s0,sp,128
 654:	5a00                	lw	s0,48(a2)
 656:	01c4                	addi	s1,sp,196
 658:	0000                	unimp
 65a:	0216                	slli	tp,tp,0x5
 65c:	0000                	unimp
 65e:	0004                	addi	s1,sp,0
 660:	9f5a01f3          	0x9f5a01f3
	...
 66c:	011c                	addi	a5,sp,128
 66e:	0000                	unimp
 670:	0130                	addi	a2,sp,136
 672:	0000                	unimp
 674:	0001                	nop
 676:	0001305b          	p.subn	zero,sp,zero,0
 67a:	4200                	lw	s0,0(a2)
 67c:	0001                	nop
 67e:	0400                	addi	s0,sp,512
 680:	f300                	fsw	fs0,32(a4)
 682:	5b01                	li	s6,-32
 684:	429f 0001 7200      	0x72000001429f
 68a:	0001                	nop
 68c:	0100                	addi	s0,sp,128
 68e:	5b00                	lw	s0,48(a4)
 690:	0172                	slli	sp,sp,0x1c
 692:	0000                	unimp
 694:	01c0                	addi	s0,sp,196
 696:	0000                	unimp
 698:	0004                	addi	s1,sp,0
 69a:	9f5b01f3          	0x9f5b01f3
 69e:	01c0                	addi	s0,sp,196
 6a0:	0000                	unimp
 6a2:	01dc                	addi	a5,sp,196
 6a4:	0000                	unimp
 6a6:	0001                	nop
 6a8:	0001dc5b          	p.mac.zl.zh	s8,gp,zero,zero
 6ac:	0000                	unimp
 6ae:	0002                	0x2
 6b0:	0400                	addi	s0,sp,512
 6b2:	f300                	fsw	fs0,32(a4)
 6b4:	5b01                	li	s6,-32
 6b6:	009f 0002 0800      	0x8000002009f
 6bc:	0002                	0x2
 6be:	0100                	addi	s0,sp,128
 6c0:	5b00                	lw	s0,48(a4)
 6c2:	0208                	addi	a0,sp,256
 6c4:	0000                	unimp
 6c6:	0216                	slli	tp,tp,0x5
 6c8:	0000                	unimp
 6ca:	0004                	addi	s1,sp,0
 6cc:	9f5b01f3          	0x9f5b01f3
	...
 6d8:	011c                	addi	a5,sp,128
 6da:	0000                	unimp
 6dc:	0128                	addi	a0,sp,136
 6de:	0000                	unimp
 6e0:	0001                	nop
 6e2:	285c                	fld	fa5,144(s0)
 6e4:	0001                	nop
 6e6:	3800                	fld	fs0,48(s0)
 6e8:	0001                	nop
 6ea:	0100                	addi	s0,sp,128
 6ec:	5900                	lw	s0,48(a0)
 6ee:	0138                	addi	a4,sp,136
 6f0:	0000                	unimp
 6f2:	0142                	slli	sp,sp,0x10
 6f4:	0000                	unimp
 6f6:	0004                	addi	s1,sp,0
 6f8:	9f5c01f3          	0x9f5c01f3
 6fc:	0142                	slli	sp,sp,0x10
 6fe:	0000                	unimp
 700:	0152                	slli	sp,sp,0x14
 702:	0000                	unimp
 704:	0001                	nop
 706:	5259                	li	tp,-10
 708:	0001                	nop
 70a:	c000                	sw	s0,0(s0)
 70c:	0001                	nop
 70e:	0400                	addi	s0,sp,512
 710:	f300                	fsw	fs0,32(a4)
 712:	5c01                	li	s8,-32
 714:	c09f 0001 c200      	0xc2000001c09f
 71a:	0001                	nop
 71c:	0100                	addi	s0,sp,128
 71e:	5900                	lw	s0,48(a0)
 720:	01c2                	slli	gp,gp,0x10
 722:	0000                	unimp
 724:	0216                	slli	tp,tp,0x5
 726:	0000                	unimp
 728:	0004                	addi	s1,sp,0
 72a:	9f5c01f3          	0x9f5c01f3
	...
 736:	011c                	addi	a5,sp,128
 738:	0000                	unimp
 73a:	00000137          	lui	sp,0x0
 73e:	0001                	nop
 740:	375d                	jal	6e6 <_min_stack-0x191a>
 742:	0001                	nop
 744:	3800                	fld	fs0,48(s0)
 746:	0001                	nop
 748:	0400                	addi	s0,sp,512
 74a:	f300                	fsw	fs0,32(a4)
 74c:	5d01                	li	s10,-32
 74e:	429f 0001 ef00      	0xef000001429f
 754:	0001                	nop
 756:	0100                	addi	s0,sp,128
 758:	5d00                	lw	s0,56(a0)
 75a:	000001ef          	jal	gp,75a <_min_stack-0x18a6>
 75e:	01f6                	slli	gp,gp,0x1d
 760:	0000                	unimp
 762:	0004                	addi	s1,sp,0
 764:	9f5d01f3          	0x9f5d01f3
 768:	01f6                	slli	gp,gp,0x1d
 76a:	0000                	unimp
 76c:	000001fb          	lp.starti	x3,76c <_min_stack-0x1894>
 770:	0001                	nop
 772:	005d                	c.addi	zero,23
 774:	0002                	0x2
 776:	1600                	addi	s0,sp,800
 778:	0002                	0x2
 77a:	0100                	addi	s0,sp,128
 77c:	5d00                	lw	s0,56(a0)
	...
 786:	011c                	addi	a5,sp,128
 788:	0000                	unimp
 78a:	00000137          	lui	sp,0x0
 78e:	0001                	nop
 790:	375e                	fld	fa4,496(sp)
 792:	0001                	nop
 794:	4200                	lw	s0,0(a2)
 796:	0001                	nop
 798:	0400                	addi	s0,sp,512
 79a:	f300                	fsw	fs0,32(a4)
 79c:	5e01                	li	t3,-32
 79e:	429f 0001 ef00      	0xef000001429f
 7a4:	0001                	nop
 7a6:	0100                	addi	s0,sp,128
 7a8:	5c00                	lw	s0,56(s0)
 7aa:	000001ef          	jal	gp,7aa <_min_stack-0x1856>
 7ae:	0200                	addi	s0,sp,256
 7b0:	0000                	unimp
 7b2:	0004                	addi	s1,sp,0
 7b4:	9f5e01f3          	0x9f5e01f3
 7b8:	0200                	addi	s0,sp,256
 7ba:	0000                	unimp
 7bc:	0216                	slli	tp,tp,0x5
 7be:	0000                	unimp
 7c0:	0001                	nop
 7c2:	005c                	addi	a5,sp,4
 7c4:	0000                	unimp
 7c6:	0000                	unimp
 7c8:	0000                	unimp
 7ca:	1c00                	addi	s0,sp,560
 7cc:	0001                	nop
 7ce:	2e00                	fld	fs0,24(a2)
 7d0:	0001                	nop
 7d2:	0100                	addi	s0,sp,128
 7d4:	5f00                	lw	s0,56(a4)
 7d6:	012e                	slli	sp,sp,0xb
 7d8:	0000                	unimp
 7da:	0142                	slli	sp,sp,0x10
 7dc:	0000                	unimp
 7de:	0004                	addi	s1,sp,0
 7e0:	9f5f01f3          	0x9f5f01f3
 7e4:	0142                	slli	sp,sp,0x10
 7e6:	0000                	unimp
 7e8:	0172                	slli	sp,sp,0x1c
 7ea:	0000                	unimp
 7ec:	0001                	nop
 7ee:	725f 0001 c000      	0xc0000001725f
 7f4:	0001                	nop
 7f6:	0400                	addi	s0,sp,512
 7f8:	f300                	fsw	fs0,32(a4)
 7fa:	5f01                	li	t5,-32
 7fc:	c09f 0001 c400      	0xc4000001c09f
 802:	0001                	nop
 804:	0100                	addi	s0,sp,128
 806:	5f00                	lw	s0,56(a4)
 808:	01c4                	addi	s1,sp,196
 80a:	0000                	unimp
 80c:	0200                	addi	s0,sp,256
 80e:	0000                	unimp
 810:	0004                	addi	s1,sp,0
 812:	9f5f01f3          	0x9f5f01f3
 816:	0200                	addi	s0,sp,256
 818:	0000                	unimp
 81a:	0206                	slli	tp,tp,0x1
 81c:	0000                	unimp
 81e:	0001                	nop
 820:	065f 0002 1600      	0x16000002065f
 826:	0002                	0x2
 828:	0400                	addi	s0,sp,512
 82a:	f300                	fsw	fs0,32(a4)
 82c:	5f01                	li	t5,-32
 82e:	009f 0000 0000      	0x9f
 834:	0000                	unimp
 836:	5200                	lw	s0,32(a2)
 838:	0001                	nop
 83a:	5c00                	lw	s0,56(s0)
 83c:	0001                	nop
 83e:	0300                	addi	s0,sp,384
 840:	9100                	0x9100
 842:	015c9f6f          	jal	t5,ca056 <tohost+0xaa04e>
 846:	0000                	unimp
 848:	01c0                	addi	s0,sp,196
 84a:	0000                	unimp
 84c:	0001                	nop
 84e:	c458                	sw	a4,12(s0)
 850:	0001                	nop
 852:	0800                	addi	s0,sp,16
 854:	0002                	0x2
 856:	0100                	addi	s0,sp,128
 858:	5800                	lw	s0,48(s0)
 85a:	0208                	addi	a0,sp,256
 85c:	0000                	unimp
 85e:	0214                	addi	a3,sp,256
 860:	0000                	unimp
 862:	7f780003          	lb	zero,2039(a6)
 866:	149f 0002 1600      	0x16000002149f
 86c:	0002                	0x2
 86e:	0100                	addi	s0,sp,128
 870:	5800                	lw	s0,48(s0)
	...
 87a:	011c                	addi	a5,sp,128
 87c:	0000                	unimp
 87e:	0138                	addi	a4,sp,136
 880:	0000                	unimp
 882:	0002                	0x2
 884:	9f30                	0x9f30
 886:	0142                	slli	sp,sp,0x10
 888:	0000                	unimp
 88a:	014e                	slli	sp,sp,0x13
 88c:	0000                	unimp
 88e:	0002                	0x2
 890:	9f30                	0x9f30
 892:	014e                	slli	sp,sp,0x13
 894:	0000                	unimp
 896:	0152                	slli	sp,sp,0x14
 898:	0000                	unimp
 89a:	0002                	0x2
 89c:	9f31                	0x9f31
 89e:	0152                	slli	sp,sp,0x14
 8a0:	0000                	unimp
 8a2:	01c0                	addi	s0,sp,196
 8a4:	0000                	unimp
 8a6:	0001                	nop
 8a8:	c059                	beqz	s0,92e <_min_stack-0x16d2>
 8aa:	0001                	nop
 8ac:	c400                	sw	s0,8(s0)
 8ae:	0001                	nop
 8b0:	0200                	addi	s0,sp,256
 8b2:	3000                	fld	fs0,32(s0)
 8b4:	c49f 0001 f600      	0xf6000001c49f
 8ba:	0001                	nop
 8bc:	0100                	addi	s0,sp,128
 8be:	5900                	lw	s0,48(a0)
 8c0:	0200                	addi	s0,sp,256
 8c2:	0000                	unimp
 8c4:	0212                	slli	tp,tp,0x4
 8c6:	0000                	unimp
 8c8:	0001                	nop
 8ca:	0059                	c.addi	zero,22
 8cc:	0000                	unimp
 8ce:	0000                	unimp
 8d0:	0000                	unimp
 8d2:	1c00                	addi	s0,sp,560
 8d4:	0001                	nop
 8d6:	3800                	fld	fs0,48(s0)
 8d8:	0001                	nop
 8da:	0200                	addi	s0,sp,256
 8dc:	3000                	fld	fs0,32(s0)
 8de:	429f 0001 f000      	0xf0000001429f
 8e4:	0001                	nop
 8e6:	0200                	addi	s0,sp,256
 8e8:	3000                	fld	fs0,32(s0)
 8ea:	f09f 0001 f600      	0xf6000001f09f
 8f0:	0001                	nop
 8f2:	0200                	addi	s0,sp,256
 8f4:	3100                	fld	fs0,32(a0)
 8f6:	f69f 0001 0000      	0x1f69f
 8fc:	0002                	0x2
 8fe:	0100                	addi	s0,sp,128
 900:	5900                	lw	s0,48(a0)
 902:	0200                	addi	s0,sp,256
 904:	0000                	unimp
 906:	0216                	slli	tp,tp,0x5
 908:	0000                	unimp
 90a:	0002                	0x2
 90c:	9f30                	0x9f30
	...
 916:	011c                	addi	a5,sp,128
 918:	0000                	unimp
 91a:	0132                	slli	sp,sp,0xc
 91c:	0000                	unimp
 91e:	0001                	nop
 920:	325a                	fld	ft4,432(sp)
 922:	0001                	nop
 924:	3800                	fld	fs0,48(s0)
 926:	0001                	nop
 928:	0400                	addi	s0,sp,512
 92a:	f300                	fsw	fs0,32(a4)
 92c:	5a01                	li	s4,-32
 92e:	429f 0001 b800      	0xb8000001429f
 934:	0001                	nop
 936:	0100                	addi	s0,sp,128
 938:	5a00                	lw	s0,48(a2)
 93a:	01b8                	addi	a4,sp,200
 93c:	0000                	unimp
 93e:	01ba                	slli	gp,gp,0xe
 940:	0000                	unimp
 942:	7a7a0003          	lb	zero,1959(s4)
 946:	c09f 0001 ea00      	0xea000001c09f
 94c:	0001                	nop
 94e:	0100                	addi	s0,sp,128
 950:	5a00                	lw	s0,48(a2)
 952:	0200                	addi	s0,sp,256
 954:	0000                	unimp
 956:	0216                	slli	tp,tp,0x5
 958:	0000                	unimp
 95a:	0001                	nop
 95c:	005a                	0x5a
 95e:	0000                	unimp
 960:	0000                	unimp
 962:	0000                	unimp
 964:	7400                	flw	fs0,40(s0)
 966:	0001                	nop
 968:	7c00                	flw	fs0,56(s0)
 96a:	0001                	nop
 96c:	0100                	addi	s0,sp,128
 96e:	5a00                	lw	s0,48(a2)
	...
 978:	019e                	slli	gp,gp,0x7
 97a:	0000                	unimp
 97c:	01b8                	addi	a4,sp,200
 97e:	0000                	unimp
 980:	0001                	nop
 982:	b85a                	fsd	fs6,48(sp)
 984:	0001                	nop
 986:	ba00                	fsd	fs0,48(a2)
 988:	0001                	nop
 98a:	0300                	addi	s0,sp,384
 98c:	7a00                	flw	fs0,48(a2)
 98e:	9f7a                	add	t5,t5,t5
	...
 998:	019e                	slli	gp,gp,0x7
 99a:	0000                	unimp
 99c:	01be                	slli	gp,gp,0xf
 99e:	0000                	unimp
 9a0:	0001                	nop
 9a2:	005f 0000 0000      	0x5f
 9a8:	0000                	unimp
 9aa:	b200                	fsd	fs0,32(a2)
 9ac:	0001                	nop
 9ae:	b800                	fsd	fs0,48(s0)
 9b0:	0001                	nop
 9b2:	0900                	addi	s0,sp,144
 9b4:	7f00                	flw	fs0,56(a4)
 9b6:	0900                	addi	s0,sp,144
 9b8:	1ef6                	slli	t4,t4,0x3d
 9ba:	007a                	0x7a
 9bc:	9f22                	add	t5,t5,s0
 9be:	01b8                	addi	a4,sp,200
 9c0:	0000                	unimp
 9c2:	01ba                	slli	gp,gp,0xe
 9c4:	0000                	unimp
 9c6:	007f000b          	p.lb	zero,7(t5!) # 8007 <_stack_len+0x7>
 9ca:	f609                	bnez	a2,8d4 <_min_stack-0x172c>
 9cc:	7a1e                	flw	fs4,228(sp)
 9ce:	2200                	fld	fs0,0(a2)
 9d0:	1c36                	slli	s8,s8,0x2d
 9d2:	009f 0000 0000      	0x9f
 9d8:	0000                	unimp
 9da:	c800                	sw	s0,16(s0)
 9dc:	0001                	nop
 9de:	d400                	sw	s0,40(s0)
 9e0:	0001                	nop
 9e2:	0100                	addi	s0,sp,128
 9e4:	6000                	flw	fs0,0(s0)
 9e6:	01d4                	addi	a3,sp,196
 9e8:	0000                	unimp
 9ea:	01da                	slli	gp,gp,0x16
 9ec:	0000                	unimp
 9ee:	50800003          	lb	zero,1288(zero) # 508 <_min_stack-0x1af8>
 9f2:	009f 0000 0000      	0x9f
 9f8:	0000                	unimp
 9fa:	e600                	fsw	fs0,8(a2)
 9fc:	0001                	nop
 9fe:	f000                	fsw	fs0,32(s0)
 a00:	0001                	nop
 a02:	0200                	addi	s0,sp,256
 a04:	3000                	fld	fs0,32(s0)
 a06:	009f 0000 0000      	0x9f
 a0c:	0000                	unimp
 a0e:	e600                	fsw	fs0,8(a2)
 a10:	0001                	nop
 a12:	f000                	fsw	fs0,32(s0)
 a14:	0001                	nop
 a16:	0300                	addi	s0,sp,384
 a18:	0800                	addi	s0,sp,16
 a1a:	9f2d                	0x9f2d
	...
 a24:	01e6                	slli	gp,gp,0x19
 a26:	0000                	unimp
 a28:	01f6                	slli	gp,gp,0x1d
 a2a:	0000                	unimp
 a2c:	2d080003          	lb	zero,720(a6)
 a30:	009f 0000 0000      	0x9f
 a36:	0000                	unimp
 a38:	2400                	fld	fs0,8(s0)
 a3a:	0002                	0x2
 a3c:	2e00                	fld	fs0,24(a2)
 a3e:	0002                	0x2
 a40:	0100                	addi	s0,sp,128
 a42:	5a00                	lw	s0,48(a2)
 a44:	022e                	slli	tp,tp,0xb
 a46:	0000                	unimp
 a48:	0238                	addi	a4,sp,264
 a4a:	0000                	unimp
 a4c:	0001                	nop
 a4e:	3858                	fld	fa4,176(s0)
 a50:	0002                	0x2
 a52:	3c00                	fld	fs0,56(s0)
 a54:	0002                	0x2
 a56:	0100                	addi	s0,sp,128
 a58:	5a00                	lw	s0,48(a2)
	...
 a62:	06d6                	slli	a3,a3,0x15
 a64:	e000                	fsw	fs0,0(s0)
 a66:	06de                	slli	a3,a3,0x17
 a68:	e000                	fsw	fs0,0(s0)
 a6a:	0001                	nop
 a6c:	de5a                	sw	s6,60(sp)
 a6e:	0006                	0x6
 a70:	c2e0                	sw	s0,68(a3)
 a72:	04e00007          	0x4e00007
 a76:	f300                	fsw	fs0,32(a4)
 a78:	5a01                	li	s4,-32
 a7a:	009f 0000 0000      	0x9f
 a80:	0000                	unimp
 a82:	d600                	sw	s0,40(a2)
 a84:	0006                	0x6
 a86:	dce0                	sw	s0,124(s1)
 a88:	0006                	0x6
 a8a:	01e0                	addi	s0,sp,204
 a8c:	5b00                	lw	s0,48(a4)
 a8e:	06dc                	addi	a5,sp,836
 a90:	e000                	fsw	fs0,0(s0)
 a92:	07c2                	slli	a5,a5,0x10
 a94:	e000                	fsw	fs0,0(s0)
 a96:	0004                	addi	s1,sp,0
 a98:	9f5b01f3          	0x9f5b01f3
	...
 aa4:	0642                	slli	a2,a2,0x10
 aa6:	e000                	fsw	fs0,0(s0)
 aa8:	0648                	addi	a0,sp,772
 aaa:	e000                	fsw	fs0,0(s0)
 aac:	0006                	0x6
 aae:	049e                	slli	s1,s1,0x7
 ab0:	0044                	addi	s1,sp,4
 ab2:	c111                	beqz	a0,ab6 <_min_stack-0x154a>
 ab4:	0648                	addi	a0,sp,772
 ab6:	e000                	fsw	fs0,0(s0)
 ab8:	064a                	slli	a2,a2,0x12
 aba:	e000                	fsw	fs0,0(s0)
 abc:	0006                	0x6
 abe:	049e                	slli	s1,s1,0x7
 ac0:	0048                	addi	a0,sp,4
 ac2:	c111                	beqz	a0,ac6 <_min_stack-0x153a>
 ac4:	064a                	slli	a2,a2,0x12
 ac6:	e000                	fsw	fs0,0(s0)
 ac8:	064c                	addi	a1,sp,772
 aca:	e000                	fsw	fs0,0(s0)
 acc:	0006                	0x6
 ace:	049e                	slli	s1,s1,0x7
 ad0:	004c                	addi	a1,sp,4
 ad2:	c111                	beqz	a0,ad6 <_min_stack-0x152a>
 ad4:	064c                	addi	a1,sp,772
 ad6:	e000                	fsw	fs0,0(s0)
 ad8:	064e                	slli	a2,a2,0x13
 ada:	e000                	fsw	fs0,0(s0)
 adc:	0006                	0x6
 ade:	049e                	slli	s1,s1,0x7
 ae0:	0050                	addi	a2,sp,4
 ae2:	c111                	beqz	a0,ae6 <_min_stack-0x151a>
 ae4:	064e                	slli	a2,a2,0x13
 ae6:	e000                	fsw	fs0,0(s0)
 ae8:	0650                	addi	a2,sp,772
 aea:	e000                	fsw	fs0,0(s0)
 aec:	0006                	0x6
 aee:	049e                	slli	s1,s1,0x7
 af0:	0054                	addi	a3,sp,4
 af2:	c111                	beqz	a0,af6 <_min_stack-0x150a>
 af4:	0650                	addi	a2,sp,772
 af6:	e000                	fsw	fs0,0(s0)
 af8:	0652                	slli	a2,a2,0x14
 afa:	e000                	fsw	fs0,0(s0)
 afc:	0006                	0x6
 afe:	049e                	slli	s1,s1,0x7
 b00:	0058                	addi	a4,sp,4
 b02:	c111                	beqz	a0,b06 <_min_stack-0x14fa>
 b04:	0652                	slli	a2,a2,0x14
 b06:	e000                	fsw	fs0,0(s0)
 b08:	0654                	addi	a3,sp,772
 b0a:	e000                	fsw	fs0,0(s0)
 b0c:	0006                	0x6
 b0e:	049e                	slli	s1,s1,0x7
 b10:	005c                	addi	a5,sp,4
 b12:	c111                	beqz	a0,b16 <_min_stack-0x14ea>
 b14:	0654                	addi	a3,sp,772
 b16:	e000                	fsw	fs0,0(s0)
 b18:	065a                	slli	a2,a2,0x16
 b1a:	e000                	fsw	fs0,0(s0)
 b1c:	0006                	0x6
 b1e:	049e                	slli	s1,s1,0x7
 b20:	0060                	addi	s0,sp,12
 b22:	c111                	beqz	a0,b26 <_min_stack-0x14da>
	...
 b2c:	0622                	slli	a2,a2,0x8
 b2e:	e000                	fsw	fs0,0(s0)
 b30:	0632                	slli	a2,a2,0xc
 b32:	e000                	fsw	fs0,0(s0)
 b34:	0006                	0x6
 b36:	049e                	slli	s1,s1,0x7
 b38:	0800                	addi	s0,sp,16
 b3a:	8001                	srli	s0,s0,0x0
 b3c:	0632                	slli	a2,a2,0xc
 b3e:	e000                	fsw	fs0,0(s0)
 b40:	0636                	slli	a2,a2,0xd
 b42:	e000                	fsw	fs0,0(s0)
 b44:	0006                	0x6
 b46:	049e                	slli	s1,s1,0x7
 b48:	0804                	addi	s1,sp,16
 b4a:	8001                	srli	s0,s0,0x0
 b4c:	0636                	slli	a2,a2,0xd
 b4e:	e000                	fsw	fs0,0(s0)
 b50:	063a                	slli	a2,a2,0xe
 b52:	e000                	fsw	fs0,0(s0)
 b54:	0006                	0x6
 b56:	049e                	slli	s1,s1,0x7
 b58:	0808                	addi	a0,sp,16
 b5a:	8001                	srli	s0,s0,0x0
 b5c:	063a                	slli	a2,a2,0xe
 b5e:	e000                	fsw	fs0,0(s0)
 b60:	0642                	slli	a2,a2,0x10
 b62:	e000                	fsw	fs0,0(s0)
 b64:	0006                	0x6
 b66:	049e                	slli	s1,s1,0x7
 b68:	080c                	addi	a1,sp,16
 b6a:	8001                	srli	s0,s0,0x0
	...
 b74:	0602                	slli	a2,a2,0x0
 b76:	e000                	fsw	fs0,0(s0)
 b78:	0612                	slli	a2,a2,0x4
 b7a:	e000                	fsw	fs0,0(s0)
 b7c:	0006                	0x6
 b7e:	000c                	addi	a1,sp,0
 b80:	0008                	addi	a0,sp,0
 b82:	9f1c                	0x9f1c
 b84:	0612                	slli	a2,a2,0x4
 b86:	e000                	fsw	fs0,0(s0)
 b88:	0616                	slli	a2,a2,0x5
 b8a:	e000                	fsw	fs0,0(s0)
 b8c:	0006                	0x6
 b8e:	040c                	addi	a1,sp,512
 b90:	0008                	addi	a0,sp,0
 b92:	9f1c                	0x9f1c
 b94:	0616                	slli	a2,a2,0x5
 b96:	e000                	fsw	fs0,0(s0)
 b98:	061a                	slli	a2,a2,0x6
 b9a:	e000                	fsw	fs0,0(s0)
 b9c:	0006                	0x6
 b9e:	080c                	addi	a1,sp,16
 ba0:	0008                	addi	a0,sp,0
 ba2:	9f1c                	0x9f1c
 ba4:	061a                	slli	a2,a2,0x6
 ba6:	e000                	fsw	fs0,0(s0)
 ba8:	0622                	slli	a2,a2,0x8
 baa:	e000                	fsw	fs0,0(s0)
 bac:	0006                	0x6
 bae:	0c0c                	addi	a1,sp,528
 bb0:	0008                	addi	a0,sp,0
 bb2:	9f1c                	0x9f1c
	...
 bbc:	05ea                	slli	a1,a1,0x1a
 bbe:	e000                	fsw	fs0,0(s0)
 bc0:	05f8                	addi	a4,sp,716
 bc2:	e000                	fsw	fs0,0(s0)
 bc4:	0006                	0x6
 bc6:	049e                	slli	s1,s1,0x7
 bc8:	f000                	fsw	fs0,32(s0)
 bca:	e000                	fsw	fs0,0(s0)
 bcc:	05f8                	addi	a4,sp,716
 bce:	e000                	fsw	fs0,0(s0)
 bd0:	05fa                	slli	a1,a1,0x1e
 bd2:	e000                	fsw	fs0,0(s0)
 bd4:	0006                	0x6
 bd6:	049e                	slli	s1,s1,0x7
 bd8:	f004                	fsw	fs1,32(s0)
 bda:	e000                	fsw	fs0,0(s0)
 bdc:	05fa                	slli	a1,a1,0x1e
 bde:	e000                	fsw	fs0,0(s0)
 be0:	05fc                	addi	a5,sp,716
 be2:	e000                	fsw	fs0,0(s0)
 be4:	0006                	0x6
 be6:	049e                	slli	s1,s1,0x7
 be8:	f008                	fsw	fa0,32(s0)
 bea:	e000                	fsw	fs0,0(s0)
 bec:	05fc                	addi	a5,sp,716
 bee:	e000                	fsw	fs0,0(s0)
 bf0:	0602                	slli	a2,a2,0x0
 bf2:	e000                	fsw	fs0,0(s0)
 bf4:	0006                	0x6
 bf6:	049e                	slli	s1,s1,0x7
 bf8:	f00c                	fsw	fa1,32(s0)
 bfa:	e000                	fsw	fs0,0(s0)
	...
 c04:	05d2                	slli	a1,a1,0x14
 c06:	e000                	fsw	fs0,0(s0)
 c08:	05e0                	addi	s0,sp,716
 c0a:	e000                	fsw	fs0,0(s0)
 c0c:	0006                	0x6
 c0e:	000c                	addi	a1,sp,0
 c10:	4040                	lw	s0,4(s0)
 c12:	9f10                	0x9f10
 c14:	05e0                	addi	s0,sp,716
 c16:	e000                	fsw	fs0,0(s0)
 c18:	05e2                	slli	a1,a1,0x18
 c1a:	e000                	fsw	fs0,0(s0)
 c1c:	0006                	0x6
 c1e:	040c                	addi	a1,sp,512
 c20:	4040                	lw	s0,4(s0)
 c22:	9f10                	0x9f10
 c24:	05e2                	slli	a1,a1,0x18
 c26:	e000                	fsw	fs0,0(s0)
 c28:	05e4                	addi	s1,sp,716
 c2a:	e000                	fsw	fs0,0(s0)
 c2c:	0006                	0x6
 c2e:	080c                	addi	a1,sp,16
 c30:	4040                	lw	s0,4(s0)
 c32:	9f10                	0x9f10
 c34:	05e4                	addi	s1,sp,716
 c36:	e000                	fsw	fs0,0(s0)
 c38:	05ea                	slli	a1,a1,0x1a
 c3a:	e000                	fsw	fs0,0(s0)
 c3c:	0006                	0x6
 c3e:	0c0c                	addi	a1,sp,528
 c40:	4040                	lw	s0,4(s0)
 c42:	9f10                	0x9f10
	...
 c4c:	05a6                	slli	a1,a1,0x9
 c4e:	e000                	fsw	fs0,0(s0)
 c50:	05b4                	addi	a3,sp,712
 c52:	e000                	fsw	fs0,0(s0)
 c54:	0006                	0x6
 c56:	049e                	slli	s1,s1,0x7
 c58:	0024                	addi	s1,sp,8
 c5a:	c116                	sw	t0,128(sp)
 c5c:	05b4                	addi	a3,sp,712
 c5e:	e000                	fsw	fs0,0(s0)
 c60:	05d2                	slli	a1,a1,0x14
 c62:	e000                	fsw	fs0,0(s0)
 c64:	0006                	0x6
 c66:	049e                	slli	s1,s1,0x7
 c68:	0020                	addi	s0,sp,8
 c6a:	c116                	sw	t0,128(sp)
	...
 c74:	058e                	slli	a1,a1,0x3
 c76:	e000                	fsw	fs0,0(s0)
 c78:	0596                	slli	a1,a1,0x5
 c7a:	e000                	fsw	fs0,0(s0)
 c7c:	0006                	0x6
 c7e:	049e                	slli	s1,s1,0x7
 c80:	0014                	addi	a3,sp,0
 c82:	c111                	beqz	a0,c86 <_min_stack-0x137a>
 c84:	0596                	slli	a1,a1,0x5
 c86:	e000                	fsw	fs0,0(s0)
 c88:	05a6                	slli	a1,a1,0x9
 c8a:	e000                	fsw	fs0,0(s0)
 c8c:	0006                	0x6
 c8e:	049e                	slli	s1,s1,0x7
 c90:	0000                	unimp
 c92:	c111                	beqz	a0,c96 <_min_stack-0x136a>
	...
 c9c:	058e                	slli	a1,a1,0x3
 c9e:	e000                	fsw	fs0,0(s0)
 ca0:	059e                	slli	a1,a1,0x7
 ca2:	e000                	fsw	fs0,0(s0)
 ca4:	0002                	0x2
 ca6:	9f30                	0x9f30
 ca8:	059e                	slli	a1,a1,0x7
 caa:	e000                	fsw	fs0,0(s0)
 cac:	05a2                	slli	a1,a1,0x8
 cae:	e000                	fsw	fs0,0(s0)
 cb0:	0001                	nop
 cb2:	a25e                	fsd	fs7,256(sp)
 cb4:	0005                	c.addi	zero,1
 cb6:	a6e0                	fsd	fs0,200(a3)
 cb8:	0005                	c.addi	zero,1
 cba:	02e0                	addi	s0,sp,332
 cbc:	3000                	fld	fs0,32(s0)
 cbe:	009f 0000 0000      	0x9f
 cc4:	0000                	unimp
 cc6:	ce00                	sw	s0,24(a2)
 cc8:	0004                	addi	s1,sp,0
 cca:	dce0                	sw	s0,124(s1)
 ccc:	0004                	addi	s1,sp,0
 cce:	06e0                	addi	s0,sp,844
 cd0:	9e00                	0x9e00
 cd2:	2404                	fld	fs1,8(s0)
 cd4:	1100                	addi	s0,sp,160
 cd6:	dcc1                	beqz	s1,c6e <_min_stack-0x1392>
 cd8:	0004                	addi	s1,sp,0
 cda:	dee0                	sw	s0,124(a3)
 cdc:	0004                	addi	s1,sp,0
 cde:	06e0                	addi	s0,sp,844
 ce0:	9e00                	0x9e00
 ce2:	2804                	fld	fs1,16(s0)
 ce4:	1100                	addi	s0,sp,160
 ce6:	dec1                	beqz	a3,c7e <_min_stack-0x1382>
 ce8:	0004                	addi	s1,sp,0
 cea:	e0e0                	fsw	fs0,68(s1)
 cec:	0004                	addi	s1,sp,0
 cee:	06e0                	addi	s0,sp,844
 cf0:	9e00                	0x9e00
 cf2:	2c04                	fld	fs1,24(s0)
 cf4:	1100                	addi	s0,sp,160
 cf6:	e0c1                	bnez	s1,d76 <_min_stack-0x128a>
 cf8:	0004                	addi	s1,sp,0
 cfa:	e2e0                	fsw	fs0,68(a3)
 cfc:	0004                	addi	s1,sp,0
 cfe:	06e0                	addi	s0,sp,844
 d00:	9e00                	0x9e00
 d02:	3004                	fld	fs1,32(s0)
 d04:	1100                	addi	s0,sp,160
 d06:	e2c1                	bnez	a3,d86 <_min_stack-0x127a>
 d08:	0004                	addi	s1,sp,0
 d0a:	e4e0                	fsw	fs0,76(s1)
 d0c:	0004                	addi	s1,sp,0
 d0e:	06e0                	addi	s0,sp,844
 d10:	9e00                	0x9e00
 d12:	3404                	fld	fs1,40(s0)
 d14:	1100                	addi	s0,sp,160
 d16:	e4c1                	bnez	s1,d9e <_min_stack-0x1262>
 d18:	0004                	addi	s1,sp,0
 d1a:	e6e0                	fsw	fs0,76(a3)
 d1c:	0004                	addi	s1,sp,0
 d1e:	06e0                	addi	s0,sp,844
 d20:	9e00                	0x9e00
 d22:	3804                	fld	fs1,48(s0)
 d24:	1100                	addi	s0,sp,160
 d26:	e6c1                	bnez	a3,dae <_min_stack-0x1252>
 d28:	0004                	addi	s1,sp,0
 d2a:	e8e0                	fsw	fs0,84(s1)
 d2c:	0004                	addi	s1,sp,0
 d2e:	06e0                	addi	s0,sp,844
 d30:	9e00                	0x9e00
 d32:	3c04                	fld	fs1,56(s0)
 d34:	1100                	addi	s0,sp,160
 d36:	e8c1                	bnez	s1,dc6 <_min_stack-0x123a>
 d38:	0004                	addi	s1,sp,0
 d3a:	eee0                	fsw	fs0,92(a3)
 d3c:	0004                	addi	s1,sp,0
 d3e:	06e0                	addi	s0,sp,844
 d40:	9e00                	0x9e00
 d42:	4004                	lw	s1,0(s0)
 d44:	1100                	addi	s0,sp,160
 d46:	00c1                	addi	ra,ra,16
 d48:	0000                	unimp
 d4a:	0000                	unimp
 d4c:	0000                	unimp
 d4e:	be00                	fsd	fs0,56(a2)
 d50:	0004                	addi	s1,sp,0
 d52:	c6e0                	sw	s0,76(a3)
 d54:	0004                	addi	s1,sp,0
 d56:	06e0                	addi	s0,sp,844
 d58:	9e00                	0x9e00
 d5a:	1004                	addi	s1,sp,32
 d5c:	1100                	addi	s0,sp,160
 d5e:	c6c1                	beqz	a3,de6 <_min_stack-0x121a>
 d60:	0004                	addi	s1,sp,0
 d62:	cee0                	sw	s0,92(a3)
 d64:	0004                	addi	s1,sp,0
 d66:	06e0                	addi	s0,sp,844
 d68:	9e00                	0x9e00
 d6a:	1404                	addi	s1,sp,544
 d6c:	1100                	addi	s0,sp,160
 d6e:	00c1                	addi	ra,ra,16
 d70:	0000                	unimp
 d72:	0000                	unimp
 d74:	0000                	unimp
	...

Disassembly of section .debug_aranges:

00000000 <.debug_aranges>:
   0:	001c                	addi	a5,sp,0
   2:	0000                	unimp
   4:	0002                	0x2
   6:	0000                	unimp
   8:	0000                	unimp
   a:	0004                	addi	s1,sp,0
   c:	0000                	unimp
   e:	0000                	unimp
  10:	0084                	addi	s1,sp,64
  12:	e000                	fsw	fs0,0(s0)
  14:	043a                	slli	s0,s0,0xe
	...
  1e:	0000                	unimp
  20:	0024                	addi	s1,sp,8
  22:	0000                	unimp
  24:	0002                	0x2
  26:	0928                	addi	a0,sp,152
  28:	0000                	unimp
  2a:	0004                	addi	s1,sp,0
  2c:	0000                	unimp
  2e:	0000                	unimp
  30:	04be                	slli	s1,s1,0xf
  32:	e000                	fsw	fs0,0(s0)
  34:	019c                	addi	a5,sp,192
  36:	0000                	unimp
  38:	06d6                	slli	a3,a3,0x15
  3a:	e000                	fsw	fs0,0(s0)
  3c:	00ec                	addi	a1,sp,76
	...
  46:	0000                	unimp
  48:	0024                	addi	s1,sp,8
  4a:	0000                	unimp
  4c:	0002                	0x2
  4e:	113d                	addi	sp,sp,-17
  50:	0000                	unimp
  52:	0004                	addi	s1,sp,0
  54:	0000                	unimp
  56:	0000                	unimp
  58:	065a                	slli	a2,a2,0x16
  5a:	e000                	fsw	fs0,0(s0)
  5c:	007c                	addi	a5,sp,12
  5e:	0000                	unimp
  60:	0000                	unimp
  62:	e000                	fsw	fs0,0(s0)
  64:	0084                	addi	s1,sp,64
	...

Disassembly of section .debug_ranges:

00000000 <.debug_ranges>:
   0:	0094                	addi	a3,sp,64
   2:	0000                	unimp
   4:	00aa                	slli	ra,ra,0xa
   6:	0000                	unimp
   8:	00ae                	slli	ra,ra,0xb
   a:	0000                	unimp
   c:	00b4                	addi	a3,sp,72
   e:	0000                	unimp
  10:	00ec                	addi	a1,sp,76
  12:	0000                	unimp
  14:	00f0                	addi	a2,sp,76
	...
  1e:	0000                	unimp
  20:	00ca                	slli	ra,ra,0x12
  22:	0000                	unimp
  24:	00ce                	slli	ra,ra,0x13
  26:	0000                	unimp
  28:	0114                	addi	a3,sp,128
  2a:	0000                	unimp
  2c:	0118                	addi	a4,sp,128
	...
  36:	0000                	unimp
  38:	00ca                	slli	ra,ra,0x12
  3a:	0000                	unimp
  3c:	00ce                	slli	ra,ra,0x13
  3e:	0000                	unimp
  40:	0114                	addi	a3,sp,128
  42:	0000                	unimp
  44:	0118                	addi	a4,sp,128
	...
  4e:	0000                	unimp
  50:	00f0                	addi	a2,sp,76
  52:	0000                	unimp
  54:	00f4                	addi	a3,sp,76
  56:	0000                	unimp
  58:	0108                	addi	a0,sp,128
  5a:	0000                	unimp
  5c:	010e                	slli	sp,sp,0x3
	...
  66:	0000                	unimp
  68:	00f0                	addi	a2,sp,76
  6a:	0000                	unimp
  6c:	00f4                	addi	a3,sp,76
  6e:	0000                	unimp
  70:	0108                	addi	a0,sp,128
  72:	0000                	unimp
  74:	010e                	slli	sp,sp,0x3
	...
  7e:	0000                	unimp
  80:	0160                	addi	s0,sp,140
  82:	0000                	unimp
  84:	0170                	addi	a2,sp,140
  86:	0000                	unimp
  88:	0174                	addi	a3,sp,140
  8a:	0000                	unimp
  8c:	0180                	addi	s0,sp,192
  8e:	0000                	unimp
  90:	0182                	slli	gp,gp,0x0
  92:	0000                	unimp
  94:	018c                	addi	a1,sp,192
	...
  9e:	0000                	unimp
  a0:	0170                	addi	a2,sp,140
  a2:	0000                	unimp
  a4:	0172                	slli	sp,sp,0x1c
  a6:	0000                	unimp
  a8:	0190                	addi	a2,sp,192
  aa:	0000                	unimp
  ac:	0196                	slli	gp,gp,0x5
  ae:	0000                	unimp
  b0:	019e                	slli	gp,gp,0x7
  b2:	0000                	unimp
  b4:	01c0                	addi	s0,sp,196
	...
  be:	0000                	unimp
  c0:	01c4                	addi	s1,sp,196
  c2:	0000                	unimp
  c4:	01da                	slli	gp,gp,0x16
  c6:	0000                	unimp
  c8:	0200                	addi	s0,sp,256
  ca:	0000                	unimp
  cc:	0208                	addi	a0,sp,256
	...
  d6:	0000                	unimp
  d8:	0266                	slli	tp,tp,0x19
  da:	0000                	unimp
  dc:	0284                	addi	s1,sp,320
  de:	0000                	unimp
  e0:	029e                	slli	t0,t0,0x7
  e2:	0000                	unimp
  e4:	0394                	addi	a3,sp,448
	...
  ee:	0000                	unimp
  f0:	0276                	slli	tp,tp,0x1d
  f2:	0000                	unimp
  f4:	027e                	slli	tp,tp,0x1f
  f6:	0000                	unimp
  f8:	02ea                	slli	t0,t0,0x1a
  fa:	0000                	unimp
  fc:	02f8                	addi	a4,sp,332
	...
 106:	0000                	unimp
 108:	038a                	slli	t2,t2,0x2
 10a:	0000                	unimp
 10c:	038e                	slli	t2,t2,0x3
 10e:	0000                	unimp
 110:	0390                	addi	a2,sp,448
 112:	0000                	unimp
 114:	0394                	addi	a3,sp,448
	...
 11e:	0000                	unimp
 120:	0706                	slli	a4,a4,0x1
 122:	e000                	fsw	fs0,0(s0)
 124:	070c                	addi	a1,sp,896
 126:	e000                	fsw	fs0,0(s0)
 128:	0710                	addi	a2,sp,896
 12a:	e000                	fsw	fs0,0(s0)
 12c:	0718                	addi	a4,sp,896
 12e:	e000                	fsw	fs0,0(s0)
	...
 138:	04be                	slli	s1,s1,0xf
 13a:	e000                	fsw	fs0,0(s0)
 13c:	065a                	slli	a2,a2,0x16
 13e:	e000                	fsw	fs0,0(s0)
 140:	06d6                	slli	a3,a3,0x15
 142:	e000                	fsw	fs0,0(s0)
 144:	07c2                	slli	a5,a5,0x10
 146:	e000                	fsw	fs0,0(s0)
	...
 150:	ffff                	0xffff
 152:	ffff                	0xffff
 154:	0000                	unimp
 156:	0000                	unimp
 158:	065a                	slli	a2,a2,0x16
 15a:	e000                	fsw	fs0,0(s0)
 15c:	06d6                	slli	a3,a3,0x15
 15e:	e000                	fsw	fs0,0(s0)
 160:	0000                	unimp
 162:	e000                	fsw	fs0,0(s0)
 164:	0084                	addi	s1,sp,64
 166:	e000                	fsw	fs0,0(s0)
	...

Disassembly of section .debug_line:

00000000 <.debug_line>:
   0:	05e2                	slli	a1,a1,0x18
   2:	0000                	unimp
   4:	0002                	0x2
   6:	0000010b          	p.lb	sp,0(zero!) # 0 <_min_stack-0x2000>
   a:	0101                	addi	sp,sp,0
   c:	000d0efb          	0xd0efb
  10:	0101                	addi	sp,sp,0
  12:	0101                	addi	sp,sp,0
  14:	0000                	unimp
  16:	0100                	addi	s0,sp,128
  18:	0000                	unimp
  1a:	2f01                	jal	72a <_min_stack-0x18d6>
  1c:	61726373          	csrrsi	t1,0x617,4
  20:	6374                	flw	fa3,68(a4)
  22:	2f68                	fld	fa0,216(a4)
  24:	636d                	lui	t1,0x1b
  26:	6169                	addi	sp,sp,208
  28:	696e                	flw	fs2,216(sp)
  2a:	2d65682f          	0x2d65682f
  2e:	2f636f73          	csrrsi	t5,0x2f6,6
  32:	6168                	flw	fa0,68(a0)
  34:	6472                	flw	fs0,28(sp)
  36:	65726177          	0x65726177
  3a:	726f772f          	0x726f772f
  3e:	676e696b          	0x676e696b
  42:	645f 7269 6f2f      	0x6f2f7269645f
  48:	6570                	flw	fa2,76(a0)
  4a:	746e                	flw	fs0,248(sp)
  4c:	7469                	lui	s0,0xffffa
  4e:	6e61                	lui	t3,0x18
  50:	2f77682f          	0x2f77682f
  54:	6f74                	flw	fa3,92(a4)
  56:	5f70                	lw	a2,124(a4)
  58:	6165                	addi	sp,sp,112
  5a:	6c72                	flw	fs8,28(sp)
  5c:	79657267          	0x79657267
  60:	2f77732f          	0x2f77732f
  64:	6574                	flw	fa3,76(a0)
  66:	2f737473          	csrrci	s0,0x2f7,6
  6a:	6d6d6f63          	bltu	s10,s6,748 <_min_stack-0x18b8>
  6e:	2f006e6f          	jal	t3,635e <_min_stack+0x435e>
  72:	7375                	lui	t1,0xffffd
  74:	2f72                	fld	ft10,280(sp)
  76:	6170                	flw	fa2,68(a0)
  78:	702f6b63          	bltu	t5,sp,78e <_min_stack-0x1872>
  7c:	6c75                	lui	s8,0x1d
  7e:	7370                	flw	fa2,100(a4)
  80:	6b64                	flw	fs1,84(a4)
  82:	312d                	jal	fffffcac <pulp__FC+0xfffffcad>
  84:	302e                	fld	ft0,232(sp)
  86:	6b2d                	lui	s6,0xb
  88:	612f6667          	0x612f6667
  8c:	7472                	flw	fs0,60(sp)
  8e:	6669                	lui	a2,0x1a
  90:	6361                	lui	t1,0x18
  92:	6f74                	flw	fa3,92(a4)
  94:	7972                	flw	fs2,60(sp)
  96:	6c75702f          	0x6c75702f
  9a:	2d70                	fld	fa2,216(a0)
  9c:	2d6b6473          	csrrsi	s0,0x2d6,22
  a0:	6572                	flw	fa0,28(sp)
  a2:	656c                	flw	fa1,76(a0)
  a4:	7361                	lui	t1,0xffff8
  a6:	2f65                	jal	85e <_min_stack-0x17a2>
  a8:	6b70                	flw	fa2,84(a4)
  aa:	75702f67          	0x75702f67
  ae:	706c                	flw	fa1,100(s0)
  b0:	725f 7369 7663      	0x76637369725f
  b6:	675f 6363 312f      	0x312f6363675f
  bc:	302e                	fld	ft0,232(sp)
  be:	312e                	fld	ft2,232(sp)
  c0:	2f36                	fld	ft10,328(sp)
  c2:	696c                	flw	fa1,84(a0)
  c4:	2f62                	fld	ft10,24(sp)
  c6:	2f636367          	0x2f636367
  ca:	6972                	flw	fs2,28(sp)
  cc:	33766373          	csrrsi	t1,0x337,12
  d0:	2d32                	fld	fs10,264(sp)
  d2:	6e75                	lui	t3,0x1d
  d4:	776f6e6b          	0x776f6e6b
  d8:	2d6e                	fld	fs10,216(sp)
  da:	6c65                	lui	s8,0x19
  dc:	2f66                	fld	ft10,88(sp)
  de:	2e312e37          	lui	t3,0x2e312
  e2:	2f31                	jal	7fe <_min_stack-0x1802>
  e4:	6e69                	lui	t3,0x1a
  e6:	64756c63          	bltu	a0,t2,73e <_min_stack-0x18c2>
  ea:	0065                	c.addi	zero,25
  ec:	7500                	flw	fs0,40(a0)
  ee:	6974                	flw	fa3,84(a0)
  f0:	736c                	flw	fa1,100(a4)
  f2:	632e                	flw	ft6,200(sp)
  f4:	0100                	addi	s0,sp,128
  f6:	0000                	unimp
  f8:	61647473          	csrrci	s0,0x616,8
  fc:	6772                	flw	fa4,28(sp)
  fe:	682e                	flw	fa6,200(sp)
 100:	0200                	addi	s0,sp,256
 102:	0000                	unimp
 104:	69647473          	csrrci	s0,0x696,8
 108:	746e                	flw	fs0,248(sp)
 10a:	672d                	lui	a4,0xb
 10c:	682e6363          	bltu	t3,sp,792 <_min_stack-0x186e>
 110:	0200                	addi	s0,sp,256
 112:	0000                	unimp
 114:	0000                	unimp
 116:	0205                	addi	tp,tp,1
 118:	0084                	addi	s1,sp,64
 11a:	e000                	fsw	fs0,0(s0)
 11c:	03012903          	lw	s2,48(sp) # 30 <_min_stack-0x1fd0>
 120:	0902                	slli	s2,s2,0x0
 122:	0000                	unimp
 124:	0301                	addi	t1,t1,0
 126:	0901                	addi	s2,s2,0
 128:	000a                	0xa
 12a:	0301                	addi	t1,t1,0
 12c:	0901                	addi	s2,s2,0
 12e:	0006                	0x6
 130:	0301                	addi	t1,t1,0
 132:	0901                	addi	s2,s2,0
 134:	0006                	0x6
 136:	0301                	addi	t1,t1,0
 138:	0901                	addi	s2,s2,0
 13a:	0006                	0x6
 13c:	0301                	addi	t1,t1,0
 13e:	0902                	slli	s2,s2,0x0
 140:	0004                	addi	s1,sp,0
 142:	0301                	addi	t1,t1,0
 144:	0901                	addi	s2,s2,0
 146:	000c                	addi	a1,sp,0
 148:	0301                	addi	t1,t1,0
 14a:	0902                	slli	s2,s2,0x0
 14c:	0002                	0x2
 14e:	0301                	addi	t1,t1,0
 150:	00000907          	0x907
 154:	0301                	addi	t1,t1,0
 156:	097c                	addi	a5,sp,156
 158:	0004                	addi	s1,sp,0
 15a:	0301                	addi	t1,t1,0
 15c:	090d                	addi	s2,s2,3
 15e:	0002                	0x2
 160:	0001                	nop
 162:	0402                	slli	s0,s0,0x0
 164:	0301                	addi	t1,t1,0
 166:	00020977          	0x20977
 16a:	0001                	nop
 16c:	0402                	slli	s0,s0,0x0
 16e:	0304                	addi	s1,sp,384
 170:	0904                	addi	s1,sp,144
 172:	000c                	addi	a1,sp,0
 174:	0001                	nop
 176:	0402                	slli	s0,s0,0x0
 178:	0304                	addi	s1,sp,384
 17a:	0902                	slli	s2,s2,0x0
 17c:	0006                	0x6
 17e:	0001                	nop
 180:	0402                	slli	s0,s0,0x0
 182:	0304                	addi	s1,sp,384
 184:	097e                	slli	s2,s2,0x1f
 186:	0002                	0x2
 188:	0001                	nop
 18a:	0402                	slli	s0,s0,0x0
 18c:	0304                	addi	s1,sp,384
 18e:	097e                	slli	s2,s2,0x1f
 190:	0002                	0x2
 192:	0001                	nop
 194:	0402                	slli	s0,s0,0x0
 196:	00030603          	lb	a2,0(t1) # ffff8000 <pulp__FC+0xffff8001>
 19a:	0409                	addi	s0,s0,2
 19c:	0100                	addi	s0,sp,128
 19e:	0306                	slli	t1,t1,0x1
 1a0:	0909                	addi	s2,s2,2
 1a2:	0004                	addi	s1,sp,0
 1a4:	0301                	addi	t1,t1,0
 1a6:	0901                	addi	s2,s2,0
 1a8:	0000                	unimp
 1aa:	0001                	nop
 1ac:	0402                	slli	s0,s0,0x0
 1ae:	0601                	addi	a2,a2,0
 1b0:	04090003          	lb	zero,64(s2) # 3040 <_min_stack+0x1040>
 1b4:	0100                	addi	s0,sp,128
 1b6:	0306                	slli	t1,t1,0x1
 1b8:	0902                	slli	s2,s2,0x0
 1ba:	0006                	0x6
 1bc:	0301                	addi	t1,t1,0
 1be:	0901                	addi	s2,s2,0
 1c0:	0002                	0x2
 1c2:	0301                	addi	t1,t1,0
 1c4:	0902                	slli	s2,s2,0x0
 1c6:	0006                	0x6
 1c8:	0301                	addi	t1,t1,0
 1ca:	0902                	slli	s2,s2,0x0
 1cc:	0000                	unimp
 1ce:	0001                	nop
 1d0:	0402                	slli	s0,s0,0x0
 1d2:	0601                	addi	a2,a2,0
 1d4:	04090003          	lb	zero,64(s2)
 1d8:	0100                	addi	s0,sp,128
 1da:	0306                	slli	t1,t1,0x1
 1dc:	00080903          	lb	s2,0(a6)
 1e0:	0301                	addi	t1,t1,0
 1e2:	0901                	addi	s2,s2,0
 1e4:	0002                	0x2
 1e6:	0301                	addi	t1,t1,0
 1e8:	00c8                	addi	a0,sp,68
 1ea:	0209                	addi	tp,tp,2
 1ec:	0100                	addi	s0,sp,128
 1ee:	0e090003          	lb	zero,224(s2)
 1f2:	0100                	addi	s0,sp,128
 1f4:	04090203          	lb	tp,64(s2)
 1f8:	0100                	addi	s0,sp,128
 1fa:	04090203          	lb	tp,64(s2)
 1fe:	0100                	addi	s0,sp,128
 200:	08090303          	lb	t1,128(s2)
 204:	0100                	addi	s0,sp,128
 206:	0c090103          	lb	sp,192(s2)
 20a:	0100                	addi	s0,sp,128
 20c:	04090103          	lb	sp,64(s2)
 210:	0100                	addi	s0,sp,128
 212:	02090103          	lb	sp,32(s2)
 216:	0100                	addi	s0,sp,128
 218:	04097803          	0x4097803
 21c:	0100                	addi	s0,sp,128
 21e:	04090803          	lb	a6,64(s2)
 222:	0100                	addi	s0,sp,128
 224:	06090203          	lb	tp,96(s2)
 228:	0100                	addi	s0,sp,128
 22a:	04097603          	0x4097603
 22e:	0100                	addi	s0,sp,128
 230:	06091003          	lh	zero,96(s2)
 234:	0100                	addi	s0,sp,128
 236:	0c095f03          	lhu	t5,192(s2)
 23a:	0100                	addi	s0,sp,128
 23c:	04092503          	lw	a0,64(s2)
 240:	0100                	addi	s0,sp,128
 242:	04090503          	lb	a0,64(s2)
 246:	0100                	addi	s0,sp,128
 248:	06090103          	lb	sp,96(s2)
 24c:	0100                	addi	s0,sp,128
 24e:	14096c03          	p.elw	s8,320(s2)
 252:	0100                	addi	s0,sp,128
 254:	04096903          	p.elw	s2,64(s2)
 258:	0100                	addi	s0,sp,128
 25a:	04091c03          	lh	s8,64(s2)
 25e:	0100                	addi	s0,sp,128
 260:	12097f03          	0x12097f03
 264:	0100                	addi	s0,sp,128
 266:	02096503          	p.elw	a0,32(s2)
 26a:	0100                	addi	s0,sp,128
 26c:	08092103          	lw	sp,128(s2)
 270:	0100                	addi	s0,sp,128
 272:	04095f03          	lhu	t5,64(s2)
 276:	0100                	addi	s0,sp,128
 278:	04092503          	lw	a0,64(s2)
 27c:	0100                	addi	s0,sp,128
 27e:	04090803          	lb	a6,64(s2)
 282:	0100                	addi	s0,sp,128
 284:	08090003          	lb	zero,128(s2)
 288:	0100                	addi	s0,sp,128
 28a:	04090703          	lb	a4,64(s2)
 28e:	0100                	addi	s0,sp,128
 290:	02090203          	lb	tp,32(s2)
 294:	0100                	addi	s0,sp,128
 296:	04090203          	lb	tp,64(s2)
 29a:	0100                	addi	s0,sp,128
 29c:	04097e03          	0x4097e03
 2a0:	0100                	addi	s0,sp,128
 2a2:	04090203          	lb	tp,64(s2)
 2a6:	0100                	addi	s0,sp,128
 2a8:	02092d03          	lw	s10,32(s2)
 2ac:	0100                	addi	s0,sp,128
 2ae:	0a095603          	lhu	a2,160(s2)
 2b2:	0100                	addi	s0,sp,128
 2b4:	0c090303          	lb	t1,192(s2)
 2b8:	0100                	addi	s0,sp,128
 2ba:	04090403          	lb	s0,64(s2)
 2be:	0100                	addi	s0,sp,128
 2c0:	04090303          	lb	t1,64(s2)
 2c4:	0100                	addi	s0,sp,128
 2c6:	02097c03          	0x2097c03
 2ca:	0100                	addi	s0,sp,128
 2cc:	04090403          	lb	s0,64(s2)
 2d0:	0100                	addi	s0,sp,128
 2d2:	097fb503          	0x97fb503
 2d6:	0004                	addi	s1,sp,0
 2d8:	0301                	addi	t1,t1,0
 2da:	0901                	addi	s2,s2,0
 2dc:	0004                	addi	s1,sp,0
 2de:	0301                	addi	t1,t1,0
 2e0:	097f                	0x97f
 2e2:	0008                	addi	a0,sp,0
 2e4:	0301                	addi	t1,t1,0
 2e6:	0975                	addi	s2,s2,29
 2e8:	0004                	addi	s1,sp,0
 2ea:	0301                	addi	t1,t1,0
 2ec:	020900e3          	beqz	s2,b0c <_min_stack-0x14f4>
 2f0:	0100                	addi	s0,sp,128
 2f2:	097fa803          	lw	a6,151(t6) # 2097 <_min_stack+0x97>
 2f6:	0002                	0x2
 2f8:	0301                	addi	t1,t1,0
 2fa:	00d9                	addi	ra,ra,22
 2fc:	0c09                	addi	s8,s8,2
 2fe:	0100                	addi	s0,sp,128
 300:	097fa703          	lw	a4,151(t6)
 304:	0002                	0x2
 306:	0301                	addi	t1,t1,0
 308:	0901                	addi	s2,s2,0
 30a:	0008                	addi	a0,sp,0
 30c:	0301                	addi	t1,t1,0
 30e:	00d8                	addi	a4,sp,68
 310:	0209                	addi	tp,tp,2
 312:	0100                	addi	s0,sp,128
 314:	097f9703          	lh	a4,151(t6)
 318:	0004                	addi	s1,sp,0
 31a:	0301                	addi	t1,t1,0
 31c:	00e9                	addi	ra,ra,26
 31e:	0609                	addi	a2,a2,2
 320:	0100                	addi	s0,sp,128
 322:	097f9803          	lh	a6,151(t6)
 326:	0008                	addi	a0,sp,0
 328:	0301                	addi	t1,t1,0
 32a:	0901                	addi	s2,s2,0
 32c:	0006                	0x6
 32e:	0301                	addi	t1,t1,0
 330:	0901                	addi	s2,s2,0
 332:	0006                	0x6
 334:	0301                	addi	t1,t1,0
 336:	0901                	addi	s2,s2,0
 338:	0006                	0x6
 33a:	0301                	addi	t1,t1,0
 33c:	0901                	addi	s2,s2,0
 33e:	0002                	0x2
 340:	0301                	addi	t1,t1,0
 342:	0902                	slli	s2,s2,0x0
 344:	0004                	addi	s1,sp,0
 346:	0301                	addi	t1,t1,0
 348:	00c0                	addi	s0,sp,68
 34a:	0a09                	addi	s4,s4,2
 34c:	0100                	addi	s0,sp,128
 34e:	04091703          	lh	a4,64(s2)
 352:	0100                	addi	s0,sp,128
 354:	04090203          	lb	tp,64(s2)
 358:	0100                	addi	s0,sp,128
 35a:	04090103          	lb	sp,64(s2)
 35e:	0100                	addi	s0,sp,128
 360:	02090203          	lb	tp,32(s2)
 364:	0100                	addi	s0,sp,128
 366:	0a090103          	lb	sp,160(s2)
 36a:	0100                	addi	s0,sp,128
 36c:	02097903          	0x2097903
 370:	0100                	addi	s0,sp,128
 372:	02091103          	lh	sp,32(s2)
 376:	0100                	addi	s0,sp,128
 378:	02090103          	lb	sp,32(s2)
 37c:	0100                	addi	s0,sp,128
 37e:	097fa703          	lw	a4,151(t6)
 382:	0008                	addi	a0,sp,0
 384:	0301                	addi	t1,t1,0
 386:	00dd                	addi	ra,ra,23
 388:	0a09                	addi	s4,s4,2
 38a:	0100                	addi	s0,sp,128
 38c:	06090703          	lb	a4,96(s2)
 390:	0100                	addi	s0,sp,128
 392:	0a096603          	p.elw	a2,160(s2)
 396:	0100                	addi	s0,sp,128
 398:	02090103          	lb	sp,32(s2)
 39c:	0100                	addi	s0,sp,128
 39e:	06091603          	lh	a2,96(s2)
 3a2:	0100                	addi	s0,sp,128
 3a4:	08095003          	lhu	zero,128(s2)
 3a8:	0100                	addi	s0,sp,128
 3aa:	02093003          	0x2093003
 3ae:	0100                	addi	s0,sp,128
 3b0:	097ee803          	p.elw	a6,151(t4)
 3b4:	0004                	addi	s1,sp,0
 3b6:	0301                	addi	t1,t1,0
 3b8:	0902                	slli	s2,s2,0x0
 3ba:	0000                	unimp
 3bc:	0001                	nop
 3be:	0402                	slli	s0,s0,0x0
 3c0:	0601                	addi	a2,a2,0
 3c2:	04090003          	lb	zero,64(s2)
 3c6:	0100                	addi	s0,sp,128
 3c8:	0306                	slli	t1,t1,0x1
 3ca:	0901                	addi	s2,s2,0
 3cc:	0008                	addi	a0,sp,0
 3ce:	0301                	addi	t1,t1,0
 3d0:	00020933          	add	s2,tp,zero
 3d4:	0301                	addi	t1,t1,0
 3d6:	0901                	addi	s2,s2,0
 3d8:	0006                	0x6
 3da:	0301                	addi	t1,t1,0
 3dc:	097f                	0x97f
 3de:	0004                	addi	s1,sp,0
 3e0:	0301                	addi	t1,t1,0
 3e2:	0901                	addi	s2,s2,0
 3e4:	0002                	0x2
 3e6:	0301                	addi	t1,t1,0
 3e8:	0902                	slli	s2,s2,0x0
 3ea:	0002                	0x2
 3ec:	0301                	addi	t1,t1,0
 3ee:	01aa                	slli	gp,gp,0xa
 3f0:	0a09                	addi	s4,s4,2
 3f2:	0100                	addi	s0,sp,128
 3f4:	04090403          	lb	s0,64(s2)
 3f8:	0100                	addi	s0,sp,128
 3fa:	02097c03          	0x2097c03
 3fe:	0100                	addi	s0,sp,128
 400:	12090003          	lb	zero,288(s2)
 404:	0100                	addi	s0,sp,128
 406:	10090403          	lb	s0,256(s2)
 40a:	0100                	addi	s0,sp,128
 40c:	097fba03          	0x97fba03
 410:	0002                	0x2
 412:	0301                	addi	t1,t1,0
 414:	0905                	addi	s2,s2,1
 416:	0002                	0x2
 418:	0301                	addi	t1,t1,0
 41a:	0906                	slli	s2,s2,0x1
 41c:	0004                	addi	s1,sp,0
 41e:	0301                	addi	t1,t1,0
 420:	0905                	addi	s2,s2,1
 422:	0004                	addi	s1,sp,0
 424:	0301                	addi	t1,t1,0
 426:	0906                	slli	s2,s2,0x1
 428:	0004                	addi	s1,sp,0
 42a:	0301                	addi	t1,t1,0
 42c:	0905                	addi	s2,s2,1
 42e:	0002                	0x2
 430:	0301                	addi	t1,t1,0
 432:	0968                	addi	a0,sp,156
 434:	0008                	addi	a0,sp,0
 436:	0301                	addi	t1,t1,0
 438:	060900cb          	0x60900cb
 43c:	0100                	addi	s0,sp,128
 43e:	097fb703          	0x97fb703
 442:	001a                	0x1a
 444:	0301                	addi	t1,t1,0
 446:	0904                	addi	s1,sp,144
 448:	0004                	addi	s1,sp,0
 44a:	0301                	addi	t1,t1,0
 44c:	0901                	addi	s2,s2,0
 44e:	000a                	0xa
 450:	0301                	addi	t1,t1,0
 452:	097e                	slli	s2,s2,0x1f
 454:	0004                	addi	s1,sp,0
 456:	0301                	addi	t1,t1,0
 458:	00020903          	lb	s2,0(tp) # ffff8000 <pulp__FC+0xffff8001>
 45c:	0301                	addi	t1,t1,0
 45e:	0902                	slli	s2,s2,0x0
 460:	0004                	addi	s1,sp,0
 462:	0301                	addi	t1,t1,0
 464:	0901                	addi	s2,s2,0
 466:	0004                	addi	s1,sp,0
 468:	0301                	addi	t1,t1,0
 46a:	0902                	slli	s2,s2,0x0
 46c:	0004                	addi	s1,sp,0
 46e:	0301                	addi	t1,t1,0
 470:	0978                	addi	a4,sp,156
 472:	000c                	addi	a1,sp,0
 474:	0301                	addi	t1,t1,0
 476:	090d                	addi	s2,s2,3
 478:	0002                	0x2
 47a:	0301                	addi	t1,t1,0
 47c:	0904                	addi	s1,sp,144
 47e:	0016                	0x16
 480:	0301                	addi	t1,t1,0
 482:	0901                	addi	s2,s2,0
 484:	0008                	addi	a0,sp,0
 486:	0301                	addi	t1,t1,0
 488:	0901                	addi	s2,s2,0
 48a:	0006                	0x6
 48c:	0301                	addi	t1,t1,0
 48e:	0916                	slli	s2,s2,0x5
 490:	0008                	addi	a0,sp,0
 492:	0301                	addi	t1,t1,0
 494:	0962                	slli	s2,s2,0x18
 496:	0004                	addi	s1,sp,0
 498:	0301                	addi	t1,t1,0
 49a:	097f                	0x97f
 49c:	0004                	addi	s1,sp,0
 49e:	0301                	addi	t1,t1,0
 4a0:	0904                	addi	s1,sp,144
 4a2:	0004                	addi	s1,sp,0
 4a4:	0301                	addi	t1,t1,0
 4a6:	097f                	0x97f
 4a8:	0004                	addi	s1,sp,0
 4aa:	0301                	addi	t1,t1,0
 4ac:	0902                	slli	s2,s2,0x0
 4ae:	0002                	0x2
 4b0:	0301                	addi	t1,t1,0
 4b2:	00040907          	0x40907
 4b6:	0301                	addi	t1,t1,0
 4b8:	0901                	addi	s2,s2,0
 4ba:	0008                	addi	a0,sp,0
 4bc:	0301                	addi	t1,t1,0
 4be:	0964                	addi	s1,sp,156
 4c0:	0014                	addi	a3,sp,0
 4c2:	0301                	addi	t1,t1,0
 4c4:	091f 0004 0301      	0x3010004091f
 4ca:	0901                	addi	s2,s2,0
 4cc:	0008                	addi	a0,sp,0
 4ce:	0301                	addi	t1,t1,0
 4d0:	000c0903          	lb	s2,0(s8) # 19000 <_stack_len+0x11000>
 4d4:	0301                	addi	t1,t1,0
 4d6:	0901                	addi	s2,s2,0
 4d8:	0008                	addi	a0,sp,0
 4da:	0301                	addi	t1,t1,0
 4dc:	0904                	addi	s1,sp,144
 4de:	0008                	addi	a0,sp,0
 4e0:	0301                	addi	t1,t1,0
 4e2:	097f                	0x97f
 4e4:	0006                	0x6
 4e6:	0301                	addi	t1,t1,0
 4e8:	0901                	addi	s2,s2,0
 4ea:	0008                	addi	a0,sp,0
 4ec:	0301                	addi	t1,t1,0
 4ee:	000a0903          	lb	s2,0(s4)
 4f2:	0301                	addi	t1,t1,0
 4f4:	0901                	addi	s2,s2,0
 4f6:	0008                	addi	a0,sp,0
 4f8:	0301                	addi	t1,t1,0
 4fa:	0901                	addi	s2,s2,0
 4fc:	0006                	0x6
 4fe:	0301                	addi	t1,t1,0
 500:	097f                	0x97f
 502:	0004                	addi	s1,sp,0
 504:	0301                	addi	t1,t1,0
 506:	0902                	slli	s2,s2,0x0
 508:	0004                	addi	s1,sp,0
 50a:	0301                	addi	t1,t1,0
 50c:	0956                	slli	s2,s2,0x15
 50e:	0008                	addi	a0,sp,0
 510:	0301                	addi	t1,t1,0
 512:	02097f8f          	0x2097f8f
 516:	0100                	addi	s0,sp,128
 518:	0901a303          	lw	t1,144(gp)
 51c:	0004                	addi	s1,sp,0
 51e:	0301                	addi	t1,t1,0
 520:	7edd                	lui	t4,0xffff7
 522:	0209                	addi	tp,tp,2
 524:	0100                	addi	s0,sp,128
 526:	097f8f03          	lb	t5,151(t6)
 52a:	0004                	addi	s1,sp,0
 52c:	0301                	addi	t1,t1,0
 52e:	0901                	addi	s2,s2,0
 530:	0000                	unimp
 532:	0301                	addi	t1,t1,0
 534:	0a0902ab          	p.sb	zero,165(s2!)
 538:	0100                	addi	s0,sp,128
 53a:	0a090003          	lb	zero,160(s2)
 53e:	0100                	addi	s0,sp,128
 540:	02090303          	lb	t1,32(s2)
 544:	0100                	addi	s0,sp,128
 546:	097ec203          	lbu	tp,151(t4) # ffff7097 <pulp__FC+0xffff7098>
 54a:	000e                	0xe
 54c:	0301                	addi	t1,t1,0
 54e:	01c4                	addi	s1,sp,196
 550:	0409                	addi	s0,s0,2
 552:	0100                	addi	s0,sp,128
 554:	097ebc03          	0x97ebc03
 558:	000e                	0xe
 55a:	0301                	addi	t1,t1,0
 55c:	01c6                	slli	gp,gp,0x11
 55e:	0409                	addi	s0,s0,2
 560:	0100                	addi	s0,sp,128
 562:	10091103          	lh	sp,256(s2)
 566:	0100                	addi	s0,sp,128
 568:	0200                	addi	s0,sp,256
 56a:	0104                	addi	s1,sp,128
 56c:	0306                	slli	t1,t1,0x1
 56e:	0900                	addi	s0,sp,144
 570:	0008                	addi	a0,sp,0
 572:	0601                	addi	a2,a2,0
 574:	0a090303          	lb	t1,160(s2)
 578:	0100                	addi	s0,sp,128
 57a:	08090203          	lb	tp,128(s2)
 57e:	0100                	addi	s0,sp,128
 580:	02090203          	lb	tp,32(s2)
 584:	0100                	addi	s0,sp,128
 586:	02090703          	lb	a4,32(s2)
 58a:	0100                	addi	s0,sp,128
 58c:	04097a03          	0x4097a03
 590:	0100                	addi	s0,sp,128
 592:	02090103          	lb	sp,32(s2)
 596:	0100                	addi	s0,sp,128
 598:	02090103          	lb	sp,32(s2)
 59c:	0100                	addi	s0,sp,128
 59e:	02090103          	lb	sp,32(s2)
 5a2:	0100                	addi	s0,sp,128
 5a4:	04090303          	lb	t1,64(s2)
 5a8:	0100                	addi	s0,sp,128
 5aa:	0200                	addi	s0,sp,256
 5ac:	0104                	addi	s1,sp,128
 5ae:	0306                	slli	t1,t1,0x1
 5b0:	0900                	addi	s0,sp,144
 5b2:	0008                	addi	a0,sp,0
 5b4:	0001                	nop
 5b6:	0402                	slli	s0,s0,0x0
 5b8:	0302                	slli	t1,t1,0x0
 5ba:	0900                	addi	s0,sp,144
 5bc:	0004                	addi	s1,sp,0
 5be:	0001                	nop
 5c0:	0402                	slli	s0,s0,0x0
 5c2:	09000303          	lb	t1,144(zero) # 90 <_min_stack-0x1f70>
 5c6:	0004                	addi	s1,sp,0
 5c8:	0001                	nop
 5ca:	0402                	slli	s0,s0,0x0
 5cc:	0304                	addi	s1,sp,384
 5ce:	0900                	addi	s0,sp,144
 5d0:	0004                	addi	s1,sp,0
 5d2:	0601                	addi	a2,a2,0
 5d4:	04090203          	lb	tp,64(s2)
 5d8:	0100                	addi	s0,sp,128
 5da:	04090403          	lb	s0,64(s2)
 5de:	0100                	addi	s0,sp,128
 5e0:	1409                	addi	s0,s0,-30
 5e2:	0000                	unimp
 5e4:	0101                	addi	sp,sp,0
 5e6:	000003d3          	fadd.s	ft7,ft0,ft0,rne
 5ea:	0002                	0x2
 5ec:	0045                	c.addi	zero,17
 5ee:	0000                	unimp
 5f0:	0101                	addi	sp,sp,0
 5f2:	000d0efb          	0xd0efb
 5f6:	0101                	addi	sp,sp,0
 5f8:	0101                	addi	sp,sp,0
 5fa:	0000                	unimp
 5fc:	0100                	addi	s0,sp,128
 5fe:	0000                	unimp
 600:	2e01                	jal	910 <_min_stack-0x16f0>
 602:	2f2e                	fld	ft10,200(sp)
 604:	6d6d6f63          	bltu	s10,s6,ce2 <_min_stack-0x131e>
 608:	00006e6f          	jal	t3,6608 <_min_stack+0x4608>
 60c:	6d68                	flw	fa0,92(a0)
 60e:	6361                	lui	t1,0x18
 610:	615f 6970 632e      	0x632e6970615f
 616:	0000                	unimp
 618:	0000                	unimp
 61a:	6d68                	flw	fa0,92(a0)
 61c:	6361                	lui	t1,0x18
 61e:	745f 7365 2e74      	0x2e747365745f
 624:	00000063          	beqz	zero,624 <_min_stack-0x19dc>
 628:	7500                	flw	fs0,40(a0)
 62a:	6974                	flw	fa3,84(a0)
 62c:	736c                	flw	fa1,100(a4)
 62e:	682e                	flw	fa6,200(sp)
 630:	0100                	addi	s0,sp,128
 632:	0000                	unimp
 634:	0000                	unimp
 636:	0205                	addi	tp,tp,1
 638:	04be                	slli	s1,s1,0xf
 63a:	e000                	fsw	fs0,0(s0)
 63c:	03011103          	lh	sp,48(sp)
 640:	0906                	slli	s2,s2,0x1
 642:	0000                	unimp
 644:	0301                	addi	t1,t1,0
 646:	00080903          	lb	s2,0(a6)
 64a:	0301                	addi	t1,t1,0
 64c:	00040903          	lb	s2,0(s0) # ffffa000 <pulp__FC+0xffffa001>
 650:	0301                	addi	t1,t1,0
 652:	00040903          	lb	s2,0(s0)
 656:	0301                	addi	t1,t1,0
 658:	00000907          	0x907
 65c:	0301                	addi	t1,t1,0
 65e:	000e0903          	lb	s2,0(t3) # 1a000 <_stack_len+0x12000>
 662:	0301                	addi	t1,t1,0
 664:	00020903          	lb	s2,0(tp) # 0 <_min_stack-0x2000>
 668:	0301                	addi	t1,t1,0
 66a:	00020903          	lb	s2,0(tp) # 0 <_min_stack-0x2000>
 66e:	0301                	addi	t1,t1,0
 670:	00020903          	lb	s2,0(tp) # 0 <_min_stack-0x2000>
 674:	0301                	addi	t1,t1,0
 676:	00020903          	lb	s2,0(tp) # 0 <_min_stack-0x2000>
 67a:	0301                	addi	t1,t1,0
 67c:	00020903          	lb	s2,0(tp) # 0 <_min_stack-0x2000>
 680:	0301                	addi	t1,t1,0
 682:	00020903          	lb	s2,0(tp) # 0 <_min_stack-0x2000>
 686:	0301                	addi	t1,t1,0
 688:	0904                	addi	s1,sp,144
 68a:	0002                	0x2
 68c:	0301                	addi	t1,t1,0
 68e:	00040903          	lb	s2,0(s0)
 692:	0301                	addi	t1,t1,0
 694:	0000090f          	0x90f
 698:	0301                	addi	t1,t1,0
 69a:	0906                	slli	s2,s2,0x1
 69c:	000a                	0xa
 69e:	0301                	addi	t1,t1,0
 6a0:	097a                	slli	s2,s2,0x1e
 6a2:	0002                	0x2
 6a4:	0301                	addi	t1,t1,0
 6a6:	0901                	addi	s2,s2,0
 6a8:	0004                	addi	s1,sp,0
 6aa:	0301                	addi	t1,t1,0
 6ac:	0901                	addi	s2,s2,0
 6ae:	0006                	0x6
 6b0:	0301                	addi	t1,t1,0
 6b2:	0901                	addi	s2,s2,0
 6b4:	0006                	0x6
 6b6:	0301                	addi	t1,t1,0
 6b8:	00060903          	lb	s2,0(a2) # 1a000 <_stack_len+0x12000>
 6bc:	0301                	addi	t1,t1,0
 6be:	0902                	slli	s2,s2,0x0
 6c0:	0002                	0x2
 6c2:	0301                	addi	t1,t1,0
 6c4:	0000090f          	0x90f
 6c8:	0301                	addi	t1,t1,0
 6ca:	0906                	slli	s2,s2,0x1
 6cc:	000a                	0xa
 6ce:	0301                	addi	t1,t1,0
 6d0:	097a                	slli	s2,s2,0x1e
 6d2:	0002                	0x2
 6d4:	0301                	addi	t1,t1,0
 6d6:	0901                	addi	s2,s2,0
 6d8:	0004                	addi	s1,sp,0
 6da:	0301                	addi	t1,t1,0
 6dc:	0901                	addi	s2,s2,0
 6de:	0006                	0x6
 6e0:	0301                	addi	t1,t1,0
 6e2:	0901                	addi	s2,s2,0
 6e4:	0006                	0x6
 6e6:	0301                	addi	t1,t1,0
 6e8:	00060903          	lb	s2,0(a2)
 6ec:	0301                	addi	t1,t1,0
 6ee:	0902                	slli	s2,s2,0x0
 6f0:	0002                	0x2
 6f2:	0301                	addi	t1,t1,0
 6f4:	0000090f          	0x90f
 6f8:	0301                	addi	t1,t1,0
 6fa:	0906                	slli	s2,s2,0x1
 6fc:	000c                	addi	a1,sp,0
 6fe:	0301                	addi	t1,t1,0
 700:	097a                	slli	s2,s2,0x1e
 702:	0002                	0x2
 704:	0301                	addi	t1,t1,0
 706:	0901                	addi	s2,s2,0
 708:	0004                	addi	s1,sp,0
 70a:	0301                	addi	t1,t1,0
 70c:	0901                	addi	s2,s2,0
 70e:	0008                	addi	a0,sp,0
 710:	0301                	addi	t1,t1,0
 712:	0901                	addi	s2,s2,0
 714:	0008                	addi	a0,sp,0
 716:	0301                	addi	t1,t1,0
 718:	00080903          	lb	s2,0(a6)
 71c:	0301                	addi	t1,t1,0
 71e:	0902                	slli	s2,s2,0x0
 720:	0002                	0x2
 722:	0301                	addi	t1,t1,0
 724:	0000090f          	0x90f
 728:	0301                	addi	t1,t1,0
 72a:	0906                	slli	s2,s2,0x1
 72c:	000c                	addi	a1,sp,0
 72e:	0301                	addi	t1,t1,0
 730:	097a                	slli	s2,s2,0x1e
 732:	0002                	0x2
 734:	0301                	addi	t1,t1,0
 736:	0901                	addi	s2,s2,0
 738:	0004                	addi	s1,sp,0
 73a:	0301                	addi	t1,t1,0
 73c:	0901                	addi	s2,s2,0
 73e:	0008                	addi	a0,sp,0
 740:	0301                	addi	t1,t1,0
 742:	0901                	addi	s2,s2,0
 744:	0008                	addi	a0,sp,0
 746:	0301                	addi	t1,t1,0
 748:	00080903          	lb	s2,0(a6)
 74c:	0301                	addi	t1,t1,0
 74e:	0902                	slli	s2,s2,0x0
 750:	0002                	0x2
 752:	0301                	addi	t1,t1,0
 754:	00000907          	0x907
 758:	0301                	addi	t1,t1,0
 75a:	0904                	addi	s1,sp,144
 75c:	0008                	addi	a0,sp,0
 75e:	0301                	addi	t1,t1,0
 760:	097f                	0x97f
 762:	0004                	addi	s1,sp,0
 764:	0301                	addi	t1,t1,0
 766:	0901                	addi	s2,s2,0
 768:	0002                	0x2
 76a:	0301                	addi	t1,t1,0
 76c:	097f                	0x97f
 76e:	0002                	0x2
 770:	0301                	addi	t1,t1,0
 772:	0905                	addi	s2,s2,1
 774:	0004                	addi	s1,sp,0
 776:	0301                	addi	t1,t1,0
 778:	0902                	slli	s2,s2,0x0
 77a:	0004                	addi	s1,sp,0
 77c:	0301                	addi	t1,t1,0
 77e:	0905                	addi	s2,s2,1
 780:	0000                	unimp
 782:	0301                	addi	t1,t1,0
 784:	000e0903          	lb	s2,0(t3)
 788:	0301                	addi	t1,t1,0
 78a:	00040903          	lb	s2,0(s0)
 78e:	0301                	addi	t1,t1,0
 790:	000a0903          	lb	s2,0(s4)
 794:	0301                	addi	t1,t1,0
 796:	000c0903          	lb	s2,0(s8)
 79a:	0301                	addi	t1,t1,0
 79c:	0902                	slli	s2,s2,0x0
 79e:	0004                	addi	s1,sp,0
 7a0:	0301                	addi	t1,t1,0
 7a2:	0905                	addi	s2,s2,1
 7a4:	0000                	unimp
 7a6:	0301                	addi	t1,t1,0
 7a8:	000e0903          	lb	s2,0(t3)
 7ac:	0301                	addi	t1,t1,0
 7ae:	00020903          	lb	s2,0(tp) # 0 <_min_stack-0x2000>
 7b2:	0301                	addi	t1,t1,0
 7b4:	00020903          	lb	s2,0(tp) # 0 <_min_stack-0x2000>
 7b8:	0301                	addi	t1,t1,0
 7ba:	0904                	addi	s1,sp,144
 7bc:	0002                	0x2
 7be:	0301                	addi	t1,t1,0
 7c0:	0902                	slli	s2,s2,0x0
 7c2:	0004                	addi	s1,sp,0
 7c4:	0301                	addi	t1,t1,0
 7c6:	0905                	addi	s2,s2,1
 7c8:	0000                	unimp
 7ca:	0301                	addi	t1,t1,0
 7cc:	000e0903          	lb	s2,0(t3)
 7d0:	0301                	addi	t1,t1,0
 7d2:	00020903          	lb	s2,0(tp) # 0 <_min_stack-0x2000>
 7d6:	0301                	addi	t1,t1,0
 7d8:	00020903          	lb	s2,0(tp) # 0 <_min_stack-0x2000>
 7dc:	0301                	addi	t1,t1,0
 7de:	0904                	addi	s1,sp,144
 7e0:	0002                	0x2
 7e2:	0301                	addi	t1,t1,0
 7e4:	0902                	slli	s2,s2,0x0
 7e6:	0004                	addi	s1,sp,0
 7e8:	0301                	addi	t1,t1,0
 7ea:	0905                	addi	s2,s2,1
 7ec:	0000                	unimp
 7ee:	0301                	addi	t1,t1,0
 7f0:	00100903          	lb	s2,1(zero) # 1 <_min_stack-0x1fff>
 7f4:	0301                	addi	t1,t1,0
 7f6:	00040903          	lb	s2,0(s0)
 7fa:	0301                	addi	t1,t1,0
 7fc:	00040903          	lb	s2,0(s0)
 800:	0301                	addi	t1,t1,0
 802:	0904                	addi	s1,sp,144
 804:	0004                	addi	s1,sp,0
 806:	0301                	addi	t1,t1,0
 808:	0902                	slli	s2,s2,0x0
 80a:	0004                	addi	s1,sp,0
 80c:	0301                	addi	t1,t1,0
 80e:	0905                	addi	s2,s2,1
 810:	0000                	unimp
 812:	0301                	addi	t1,t1,0
 814:	00100903          	lb	s2,1(zero) # 1 <_min_stack-0x1fff>
 818:	0301                	addi	t1,t1,0
 81a:	00040903          	lb	s2,0(s0)
 81e:	0301                	addi	t1,t1,0
 820:	00040903          	lb	s2,0(s0)
 824:	0301                	addi	t1,t1,0
 826:	0904                	addi	s1,sp,144
 828:	0004                	addi	s1,sp,0
 82a:	0301                	addi	t1,t1,0
 82c:	0902                	slli	s2,s2,0x0
 82e:	0004                	addi	s1,sp,0
 830:	0301                	addi	t1,t1,0
 832:	00000907          	0x907
 836:	0301                	addi	t1,t1,0
 838:	0904                	addi	s1,sp,144
 83a:	0006                	0x6
 83c:	0301                	addi	t1,t1,0
 83e:	0904                	addi	s1,sp,144
 840:	0002                	0x2
 842:	0301                	addi	t1,t1,0
 844:	0904                	addi	s1,sp,144
 846:	0002                	0x2
 848:	0301                	addi	t1,t1,0
 84a:	0904                	addi	s1,sp,144
 84c:	0002                	0x2
 84e:	0301                	addi	t1,t1,0
 850:	0904                	addi	s1,sp,144
 852:	0002                	0x2
 854:	0301                	addi	t1,t1,0
 856:	0904                	addi	s1,sp,144
 858:	0002                	0x2
 85a:	0301                	addi	t1,t1,0
 85c:	090d                	addi	s2,s2,3
 85e:	0002                	0x2
 860:	0301                	addi	t1,t1,0
 862:	00020977          	0x20977
 866:	0301                	addi	t1,t1,0
 868:	0909                	addi	s2,s2,2
 86a:	0002                	0x2
 86c:	0901                	addi	s2,s2,0
 86e:	0002                	0x2
 870:	0100                	addi	s0,sp,128
 872:	0401                	addi	s0,s0,0
 874:	0002                	0x2
 876:	0205                	addi	tp,tp,1
 878:	06d6                	slli	a3,a3,0x15
 87a:	e000                	fsw	fs0,0(s0)
 87c:	03011503          	lh	a0,48(sp)
 880:	090c                	addi	a1,sp,144
 882:	0002                	0x2
 884:	0301                	addi	t1,t1,0
 886:	0974                	addi	a3,sp,156
 888:	0006                	0x6
 88a:	0301                	addi	t1,t1,0
 88c:	090c                	addi	a1,sp,144
 88e:	0008                	addi	a0,sp,0
 890:	0301                	addi	t1,t1,0
 892:	0904                	addi	s1,sp,144
 894:	0002                	0x2
 896:	0301                	addi	t1,t1,0
 898:	0902                	slli	s2,s2,0x0
 89a:	000a                	0xa
 89c:	0301                	addi	t1,t1,0
 89e:	0901                	addi	s2,s2,0
 8a0:	000a                	0xa
 8a2:	0301                	addi	t1,t1,0
 8a4:	0902                	slli	s2,s2,0x0
 8a6:	0002                	0x2
 8a8:	0401                	addi	s0,s0,0
 8aa:	0301                	addi	t1,t1,0
 8ac:	096d                	addi	s2,s2,27
 8ae:	0008                	addi	a0,sp,0
 8b0:	0401                	addi	s0,s0,0
 8b2:	0302                	slli	t1,t1,0x0
 8b4:	00060913          	mv	s2,a2
 8b8:	0301                	addi	t1,t1,0
 8ba:	0901                	addi	s2,s2,0
 8bc:	0002                	0x2
 8be:	0401                	addi	s0,s0,0
 8c0:	0301                	addi	t1,t1,0
 8c2:	0002096f          	jal	s2,208c2 <tohost+0x8ba>
 8c6:	0301                	addi	t1,t1,0
 8c8:	097d                	addi	s2,s2,31
 8ca:	0002                	0x2
 8cc:	0301                	addi	t1,t1,0
 8ce:	00040903          	lb	s2,0(s0)
 8d2:	0401                	addi	s0,s0,0
 8d4:	0302                	slli	t1,t1,0x0
 8d6:	0914                	addi	a3,sp,144
 8d8:	0002                	0x2
 8da:	0301                	addi	t1,t1,0
 8dc:	0901                	addi	s2,s2,0
 8de:	000a                	0xa
 8e0:	0301                	addi	t1,t1,0
 8e2:	0901                	addi	s2,s2,0
 8e4:	0002                	0x2
 8e6:	0301                	addi	t1,t1,0
 8e8:	0901                	addi	s2,s2,0
 8ea:	0002                	0x2
 8ec:	0301                	addi	t1,t1,0
 8ee:	0901                	addi	s2,s2,0
 8f0:	0002                	0x2
 8f2:	0301                	addi	t1,t1,0
 8f4:	0902                	slli	s2,s2,0x0
 8f6:	0002                	0x2
 8f8:	0401                	addi	s0,s0,0
 8fa:	0301                	addi	t1,t1,0
 8fc:	000a0963          	beqz	s4,90e <_min_stack-0x16f2>
 900:	0301                	addi	t1,t1,0
 902:	00040903          	lb	s2,0(s0)
 906:	0401                	addi	s0,s0,0
 908:	0302                	slli	t1,t1,0x0
 90a:	091c                	addi	a5,sp,144
 90c:	0002                	0x2
 90e:	0301                	addi	t1,t1,0
 910:	0902                	slli	s2,s2,0x0
 912:	0002                	0x2
 914:	0301                	addi	t1,t1,0
 916:	0901                	addi	s2,s2,0
 918:	000a                	0xa
 91a:	0301                	addi	t1,t1,0
 91c:	0901                	addi	s2,s2,0
 91e:	0002                	0x2
 920:	0301                	addi	t1,t1,0
 922:	0902                	slli	s2,s2,0x0
 924:	0002                	0x2
 926:	0401                	addi	s0,s0,0
 928:	0301                	addi	t1,t1,0
 92a:	000a095b          	p.mac	s2,s4,zero,zero
 92e:	0301                	addi	t1,t1,0
 930:	00040903          	lb	s2,0(s0)
 934:	0401                	addi	s0,s0,0
 936:	0302                	slli	t1,t1,0x0
 938:	0924                	addi	s1,sp,152
 93a:	0002                	0x2
 93c:	0301                	addi	t1,t1,0
 93e:	0902                	slli	s2,s2,0x0
 940:	0002                	0x2
 942:	0301                	addi	t1,t1,0
 944:	0901                	addi	s2,s2,0
 946:	000a                	0xa
 948:	0301                	addi	t1,t1,0
 94a:	0901                	addi	s2,s2,0
 94c:	0002                	0x2
 94e:	0301                	addi	t1,t1,0
 950:	0902                	slli	s2,s2,0x0
 952:	0002                	0x2
 954:	0401                	addi	s0,s0,0
 956:	0301                	addi	t1,t1,0
 958:	000a0953          	fadd.s	fs2,fs4,ft0,rne
 95c:	0301                	addi	t1,t1,0
 95e:	00040903          	lb	s2,0(s0)
 962:	0401                	addi	s0,s0,0
 964:	0302                	slli	t1,t1,0x0
 966:	092c                	addi	a1,sp,152
 968:	0002                	0x2
 96a:	0301                	addi	t1,t1,0
 96c:	0902                	slli	s2,s2,0x0
 96e:	0002                	0x2
 970:	0301                	addi	t1,t1,0
 972:	0901                	addi	s2,s2,0
 974:	000a                	0xa
 976:	0301                	addi	t1,t1,0
 978:	0901                	addi	s2,s2,0
 97a:	0002                	0x2
 97c:	0301                	addi	t1,t1,0
 97e:	0902                	slli	s2,s2,0x0
 980:	0002                	0x2
 982:	0401                	addi	s0,s0,0
 984:	0301                	addi	t1,t1,0
 986:	000a094b          	fnmsub.s	fs2,fs4,ft0,ft0,rne
 98a:	0301                	addi	t1,t1,0
 98c:	00040903          	lb	s2,0(s0)
 990:	0401                	addi	s0,s0,0
 992:	0302                	slli	t1,t1,0x0
 994:	0934                	addi	a3,sp,152
 996:	0002                	0x2
 998:	0301                	addi	t1,t1,0
 99a:	0902                	slli	s2,s2,0x0
 99c:	0002                	0x2
 99e:	0301                	addi	t1,t1,0
 9a0:	0901                	addi	s2,s2,0
 9a2:	000a                	0xa
 9a4:	0301                	addi	t1,t1,0
 9a6:	0901                	addi	s2,s2,0
 9a8:	0002                	0x2
 9aa:	0301                	addi	t1,t1,0
 9ac:	0902                	slli	s2,s2,0x0
 9ae:	0002                	0x2
 9b0:	0301                	addi	t1,t1,0
 9b2:	000a0903          	lb	s2,0(s4)
 9b6:	0901                	addi	s2,s2,0
 9b8:	000e                	0xe
 9ba:	0100                	addi	s0,sp,128
 9bc:	be01                	j	4cc <_min_stack-0x1b34>
 9be:	0001                	nop
 9c0:	0200                	addi	s0,sp,256
 9c2:	7300                	flw	fs0,32(a4)
 9c4:	0000                	unimp
 9c6:	0100                	addi	s0,sp,128
 9c8:	fb01                	bnez	a4,8d8 <_min_stack-0x1728>
 9ca:	0d0e                	slli	s10,s10,0x3
 9cc:	0100                	addi	s0,sp,128
 9ce:	0101                	addi	sp,sp,0
 9d0:	0001                	nop
 9d2:	0000                	unimp
 9d4:	0001                	nop
 9d6:	0100                	addi	s0,sp,128
 9d8:	7263732f          	0x7263732f
 9dc:	7461                	lui	s0,0xffff8
 9de:	6d2f6863          	bltu	t5,s2,10ae <_min_stack-0xf52>
 9e2:	6e616963          	bltu	sp,t1,10d4 <_min_stack-0xf2c>
 9e6:	2f69                	jal	1180 <_min_stack-0xe80>
 9e8:	6568                	flw	fa0,76(a0)
 9ea:	732d                	lui	t1,0xfffeb
 9ec:	682f636f          	jal	t1,f706e <tohost+0xd7066>
 9f0:	7261                	lui	tp,0xffff8
 9f2:	7764                	flw	fs1,108(a4)
 9f4:	7261                	lui	tp,0xffff8
 9f6:	2f65                	jal	11ae <_min_stack-0xe52>
 9f8:	6b726f77          	0x6b726f77
 9fc:	6e69                	lui	t3,0x1a
 9fe:	69645f67          	0x69645f67
 a02:	2f72                	fld	ft10,280(sp)
 a04:	6e65706f          	j	580ea <tohost+0x380e2>
 a08:	6974                	flw	fa3,84(a0)
 a0a:	6174                	flw	fa3,68(a0)
 a0c:	2f6e                	fld	ft10,216(sp)
 a0e:	7768                	flw	fa0,108(a4)
 a10:	706f742f          	0x706f742f
 a14:	655f 7261 676c      	0x676c7261655f
 a1a:	6572                	flw	fa0,28(sp)
 a1c:	2f79                	jal	11ba <_min_stack-0xe46>
 a1e:	742f7773          	csrrci	a4,0x742,30
 a22:	7365                	lui	t1,0xffff9
 a24:	7374                	flw	fa3,100(a4)
 a26:	6d6f632f          	0x6d6f632f
 a2a:	6f6d                	lui	t5,0x1b
 a2c:	006e                	0x6e
 a2e:	6300                	flw	fs0,0(a4)
 a30:	7472                	flw	fs0,60(sp)
 a32:	2e30                	fld	fa2,88(a2)
 a34:	00010053          	fadd.s	ft0,ft2,ft0,rne
 a38:	0000                	unimp
 a3a:	0500                	addi	s0,sp,640
 a3c:	5a02                	lw	s4,32(sp)
 a3e:	0006                	0x6
 a40:	1ae0                	addi	s0,sp,380
 a42:	04090403          	lb	s0,64(s2)
 a46:	0100                	addi	s0,sp,128
 a48:	04090103          	lb	sp,64(s2)
 a4c:	0100                	addi	s0,sp,128
 a4e:	02090103          	lb	sp,32(s2)
 a52:	0100                	addi	s0,sp,128
 a54:	02090103          	lb	sp,32(s2)
 a58:	0100                	addi	s0,sp,128
 a5a:	02090103          	lb	sp,32(s2)
 a5e:	0100                	addi	s0,sp,128
 a60:	02090103          	lb	sp,32(s2)
 a64:	0100                	addi	s0,sp,128
 a66:	02090103          	lb	sp,32(s2)
 a6a:	0100                	addi	s0,sp,128
 a6c:	02090103          	lb	sp,32(s2)
 a70:	0100                	addi	s0,sp,128
 a72:	02090103          	lb	sp,32(s2)
 a76:	0100                	addi	s0,sp,128
 a78:	02090103          	lb	sp,32(s2)
 a7c:	0100                	addi	s0,sp,128
 a7e:	02090103          	lb	sp,32(s2)
 a82:	0100                	addi	s0,sp,128
 a84:	02090103          	lb	sp,32(s2)
 a88:	0100                	addi	s0,sp,128
 a8a:	02090103          	lb	sp,32(s2)
 a8e:	0100                	addi	s0,sp,128
 a90:	02090103          	lb	sp,32(s2)
 a94:	0100                	addi	s0,sp,128
 a96:	02090103          	lb	sp,32(s2)
 a9a:	0100                	addi	s0,sp,128
 a9c:	02090103          	lb	sp,32(s2)
 aa0:	0100                	addi	s0,sp,128
 aa2:	02090103          	lb	sp,32(s2)
 aa6:	0100                	addi	s0,sp,128
 aa8:	02090103          	lb	sp,32(s2)
 aac:	0100                	addi	s0,sp,128
 aae:	02090103          	lb	sp,32(s2)
 ab2:	0100                	addi	s0,sp,128
 ab4:	02090103          	lb	sp,32(s2)
 ab8:	0100                	addi	s0,sp,128
 aba:	02090103          	lb	sp,32(s2)
 abe:	0100                	addi	s0,sp,128
 ac0:	02090103          	lb	sp,32(s2)
 ac4:	0100                	addi	s0,sp,128
 ac6:	02090103          	lb	sp,32(s2)
 aca:	0100                	addi	s0,sp,128
 acc:	02090103          	lb	sp,32(s2)
 ad0:	0100                	addi	s0,sp,128
 ad2:	02090103          	lb	sp,32(s2)
 ad6:	0100                	addi	s0,sp,128
 ad8:	02090103          	lb	sp,32(s2)
 adc:	0100                	addi	s0,sp,128
 ade:	02090103          	lb	sp,32(s2)
 ae2:	0100                	addi	s0,sp,128
 ae4:	02090103          	lb	sp,32(s2)
 ae8:	0100                	addi	s0,sp,128
 aea:	02090103          	lb	sp,32(s2)
 aee:	0100                	addi	s0,sp,128
 af0:	02090103          	lb	sp,32(s2)
 af4:	0100                	addi	s0,sp,128
 af6:	02090103          	lb	sp,32(s2)
 afa:	0100                	addi	s0,sp,128
 afc:	02090303          	lb	t1,32(s2)
 b00:	0100                	addi	s0,sp,128
 b02:	08090703          	lb	a4,128(s2)
 b06:	0100                	addi	s0,sp,128
 b08:	08090103          	lb	sp,128(s2)
 b0c:	0100                	addi	s0,sp,128
 b0e:	08090103          	lb	sp,128(s2)
 b12:	0100                	addi	s0,sp,128
 b14:	04090403          	lb	s0,64(s2)
 b18:	0100                	addi	s0,sp,128
 b1a:	04090103          	lb	sp,64(s2)
 b1e:	0100                	addi	s0,sp,128
 b20:	02090103          	lb	sp,32(s2)
 b24:	0100                	addi	s0,sp,128
 b26:	04090603          	lb	a2,64(s2)
 b2a:	0100                	addi	s0,sp,128
 b2c:	04090103          	lb	sp,64(s2)
 b30:	0100                	addi	s0,sp,128
 b32:	04090103          	lb	sp,64(s2)
 b36:	0100                	addi	s0,sp,128
 b38:	04090303          	lb	t1,64(s2)
 b3c:	0100                	addi	s0,sp,128
 b3e:	04090103          	lb	sp,64(s2)
 b42:	0100                	addi	s0,sp,128
 b44:	0209                	addi	tp,tp,2
 b46:	0000                	unimp
 b48:	0101                	addi	sp,sp,0
 b4a:	0500                	addi	s0,sp,640
 b4c:	0002                	0x2
 b4e:	0000                	unimp
 b50:	03e0                	addi	s0,sp,460
 b52:	00d4                	addi	a3,sp,68
 b54:	0301                	addi	t1,t1,0
 b56:	0902                	slli	s2,s2,0x0
 b58:	0028                	addi	a0,sp,8
 b5a:	0301                	addi	t1,t1,0
 b5c:	0902                	slli	s2,s2,0x0
 b5e:	0004                	addi	s1,sp,0
 b60:	0301                	addi	t1,t1,0
 b62:	0905                	addi	s2,s2,1
 b64:	0004                	addi	s1,sp,0
 b66:	0301                	addi	t1,t1,0
 b68:	0901                	addi	s2,s2,0
 b6a:	0048                	addi	a0,sp,4
 b6c:	0301                	addi	t1,t1,0
 b6e:	0901                	addi	s2,s2,0
 b70:	0004                	addi	s1,sp,0
 b72:	0301                	addi	t1,t1,0
 b74:	0905                	addi	s2,s2,1
 b76:	0004                	addi	s1,sp,0
 b78:	0901                	addi	s2,s2,0
 b7a:	0004                	addi	s1,sp,0
 b7c:	0100                	addi	s0,sp,128
 b7e:	01 00 08 00 1c          	Address 0x0000000000000b7e is out of bounds.


Disassembly of section .debug_str:

00000000 <.debug_str>:
   0:	7071                	0x7071
   2:	6972                	flw	fs2,28(sp)
   4:	746e                	flw	fs0,248(sp)
   6:	68730073          	0x68730073
   a:	2074726f          	jal	tp,47a10 <tohost+0x27a08>
   e:	6e69                	lui	t3,0x1a
  10:	0074                	addi	a3,sp,12
  12:	5f70                	lw	a2,124(a4)
  14:	6572                	flw	fa0,28(sp)
  16:	75700067          	jr	1879(zero) # 757 <_min_stack-0x18a9>
  1a:	6374                	flw	fa3,68(a4)
  1c:	6168                	flw	fa0,68(a0)
  1e:	0072                	0x72
  20:	6170                	flw	fa2,68(a0)
  22:	6364                	flw	fs1,68(a4)
  24:	6168                	flw	fa0,68(a0)
  26:	0072                	0x72
  28:	6175                	addi	sp,sp,368
  2a:	7472                	flw	fs0,60(sp)
  2c:	735f 7465 635f      	0x635f7465735f
  32:	6766                	flw	fa4,88(sp)
  34:	7000                	flw	fs0,32(s0)
  36:	7475                	lui	s0,0xffffd
  38:	69770073          	0x69770073
  3c:	7464                	flw	fs1,108(s0)
  3e:	0068                	addi	a0,sp,12
  40:	7263732f          	0x7263732f
  44:	7461                	lui	s0,0xffff8
  46:	6d2f6863          	bltu	t5,s2,716 <_min_stack-0x18ea>
  4a:	6e616963          	bltu	sp,t1,73c <_min_stack-0x18c4>
  4e:	2f69                	jal	7e8 <_min_stack-0x1818>
  50:	6568                	flw	fa0,76(a0)
  52:	732d                	lui	t1,0xfffeb
  54:	682f636f          	jal	t1,f66d6 <tohost+0xd66ce>
  58:	7261                	lui	tp,0xffff8
  5a:	7764                	flw	fs1,108(a4)
  5c:	7261                	lui	tp,0xffff8
  5e:	2f65                	jal	816 <_min_stack-0x17ea>
  60:	6b726f77          	0x6b726f77
  64:	6e69                	lui	t3,0x1a
  66:	69645f67          	0x69645f67
  6a:	2f72                	fld	ft10,280(sp)
  6c:	6e65706f          	j	57752 <tohost+0x3774a>
  70:	6974                	flw	fa3,84(a0)
  72:	6174                	flw	fa3,68(a0)
  74:	2f6e                	fld	ft10,216(sp)
  76:	7768                	flw	fa0,108(a4)
  78:	706f742f          	0x706f742f
  7c:	655f 7261 676c      	0x676c7261655f
  82:	6572                	flw	fa0,28(sp)
  84:	2f79                	jal	822 <_min_stack-0x17de>
  86:	742f7773          	csrrci	a4,0x742,30
  8a:	7365                	lui	t1,0xffff9
  8c:	7374                	flw	fa3,100(a4)
  8e:	6d6f632f          	0x6d6f632f
  92:	6f6d                	lui	t5,0x1b
  94:	2f6e                	fld	ft10,216(sp)
  96:	7475                	lui	s0,0xffffd
  98:	6c69                	lui	s8,0x1a
  9a:	00632e73          	csrrs	t3,0x6,t1
  9e:	706d6973          	csrrsi	s2,0x706,26
  a2:	656c                	flw	fa1,76(a0)
  a4:	655f 6378 685f      	0x685f6378655f
  aa:	6e61                	lui	t3,0x18
  ac:	6c64                	flw	fs1,92(s0)
  ae:	7265                	lui	tp,0xffff9
  b0:	6c00                	flw	fs0,24(s0)
  b2:	20676e6f          	jal	t3,762b8 <tohost+0x562b0>
  b6:	6f6c                	flw	fa1,92(a4)
  b8:	676e                	flw	fa4,216(sp)
  ba:	6920                	flw	fs0,80(a0)
  bc:	746e                	flw	fs0,248(sp)
  be:	7200                	flw	fs0,32(a2)
  c0:	6d65                	lui	s10,0x19
  c2:	3175                	jal	fffffd6e <pulp__FC+0xfffffd6f>
  c4:	5f30                	lw	a2,120(a4)
  c6:	6174                	flw	fa3,68(a0)
  c8:	6c62                	flw	fs8,24(sp)
  ca:	0065                	c.addi	zero,25
  cc:	6175                	addi	sp,sp,368
  ce:	7472                	flw	fs0,60(sp)
  d0:	675f 7465 6863      	0x68637465675f
  d6:	7261                	lui	tp,0xffff8
  d8:	7200                	flw	fs0,32(a2)
  da:	6d65                	lui	s10,0x19
  dc:	3175                	jal	fffffd88 <pulp__FC+0xfffffd89>
  de:	0030                	addi	a2,sp,8
  e0:	656c                	flw	fa1,76(a0)
  e2:	6274                	flw	fa3,68(a2)
  e4:	7361                	lui	t1,0xffff8
  e6:	0065                	c.addi	zero,25
  e8:	69727473          	csrrci	s0,0x697,4
  ec:	676e                	flw	fa4,216(sp)
  ee:	7000                	flw	fs0,32(s0)
  f0:	6972                	flw	fs2,28(sp)
  f2:	746e                	flw	fs0,248(sp)
  f4:	0066                	0x66
  f6:	7071                	0x7071
  f8:	6972                	flw	fs2,28(sp)
  fa:	746e                	flw	fs0,248(sp)
  fc:	0069                	c.addi	zero,26
  fe:	6170                	flw	fa2,68(a0)
 100:	6972                	flw	fs2,28(sp)
 102:	7974                	flw	fa3,116(a0)
 104:	7000                	flw	fs0,32(s0)
 106:	725f 6765 0031      	0x316765725f
 10c:	5f70                	lw	a2,124(a4)
 10e:	6572                	flw	fa0,28(sp)
 110:	70003267          	0x70003267
 114:	725f 6765 0033      	0x336765725f
 11a:	5f70                	lw	a2,124(a4)
 11c:	6572                	flw	fa0,28(sp)
 11e:	6c003467          	0x6c003467
 122:	20676e6f          	jal	t3,76328 <tohost+0x56320>
 126:	6f64                	flw	fs1,92(a4)
 128:	6275                	lui	tp,0x1d
 12a:	656c                	flw	fa1,76(a0)
 12c:	7500                	flw	fs0,40(a0)
 12e:	736e                	flw	ft6,248(sp)
 130:	6769                	lui	a4,0x1a
 132:	656e                	flw	fa0,216(sp)
 134:	2064                	fld	fs1,192(s0)
 136:	72616863          	bltu	sp,t1,866 <_min_stack-0x179a>
 13a:	7500                	flw	fs0,40(a0)
 13c:	7261                	lui	tp,0xffff8
 13e:	5f74                	lw	a3,124(a4)
 140:	74696177          	0x74696177
 144:	745f 5f78 6f64      	0x6f645f78745f
 14a:	656e                	flw	fa0,216(sp)
 14c:	4700                	lw	s0,8(a4)
 14e:	554e                	lw	a0,240(sp)
 150:	4320                	lw	s0,64(a4)
 152:	3131                	jal	fffffd5e <pulp__FC+0xfffffd5f>
 154:	3720                	fld	fs0,104(a4)
 156:	312e                	fld	ft2,232(sp)
 158:	312e                	fld	ft2,232(sp)
 15a:	3220                	fld	fs0,96(a2)
 15c:	3130                	fld	fa2,96(a0)
 15e:	30353037          	lui	zero,0x30353
 162:	2039                	jal	170 <_min_stack-0x1e90>
 164:	6d2d                	lui	s10,0xb
 166:	7261                	lui	tp,0xffff8
 168:	723d6863          	bltu	s10,gp,898 <_min_stack-0x1768>
 16c:	3376                	fld	ft6,376(sp)
 16e:	6932                	flw	fs2,12(sp)
 170:	636d                	lui	t1,0x1b
 172:	2d20                	fld	fs0,88(a0)
 174:	616d                	addi	sp,sp,240
 176:	6962                	flw	fs2,24(sp)
 178:	693d                	lui	s2,0xf
 17a:	706c                	flw	fa1,100(s0)
 17c:	2d203233          	0x2d203233
 180:	636d                	lui	t1,0x1b
 182:	6f6d                	lui	t5,0x1b
 184:	6564                	flw	fs1,76(a0)
 186:	3d6c                	fld	fa1,248(a0)
 188:	656d                	lui	a0,0x1b
 18a:	6164                	flw	fs1,68(a0)
 18c:	796e                	flw	fs2,248(sp)
 18e:	2d20                	fld	fs0,88(a0)
 190:	4f2d2067          	0x4f2d2067
 194:	662d2073          	csrs	0x662,s10
 198:	6976                	flw	fs2,92(sp)
 19a:	69626973          	csrrsi	s2,0x696,4
 19e:	696c                	flw	fa1,84(a0)
 1a0:	7974                	flw	fa3,116(a0)
 1a2:	683d                	lui	a6,0xf
 1a4:	6469                	lui	s0,0x1a
 1a6:	6564                	flw	fs1,76(a0)
 1a8:	206e                	fld	ft0,216(sp)
 1aa:	662d                	lui	a2,0xb
 1ac:	7266                	flw	ft4,120(sp)
 1ae:	6565                	lui	a0,0x19
 1b0:	6e617473          	csrrci	s0,0x6e6,2
 1b4:	6964                	flw	fs1,84(a0)
 1b6:	676e                	flw	fa4,216(sp)
 1b8:	6c00                	flw	fs0,24(s0)
 1ba:	20676e6f          	jal	t3,763c0 <tohost+0x563b8>
 1be:	6f6c                	flw	fa1,92(a4)
 1c0:	676e                	flw	fa4,216(sp)
 1c2:	7520                	flw	fs0,104(a0)
 1c4:	736e                	flw	ft6,248(sp)
 1c6:	6769                	lui	a4,0x1a
 1c8:	656e                	flw	fa0,216(sp)
 1ca:	2064                	fld	fs1,192(s0)
 1cc:	6e69                	lui	t3,0x1a
 1ce:	0074                	addi	a3,sp,12
 1d0:	7071                	0x7071
 1d2:	6972                	flw	fs2,28(sp)
 1d4:	746e                	flw	fs0,248(sp)
 1d6:	7500                	flw	fs0,40(a0)
 1d8:	6e69                	lui	t3,0x1a
 1da:	3174                	fld	fa3,224(a0)
 1dc:	5f36                	lw	t5,108(sp)
 1de:	0074                	addi	a3,sp,12
 1e0:	6c70                	flw	fa2,92(s0)
 1e2:	6369                	lui	t1,0x1a
 1e4:	635f 6568 6b63      	0x6b636568635f
 1ea:	7300                	flw	fs0,32(a4)
 1ec:	6f68                	flw	fa0,92(a4)
 1ee:	7472                	flw	fs0,60(sp)
 1f0:	7520                	flw	fs0,104(a0)
 1f2:	736e                	flw	ft6,248(sp)
 1f4:	6769                	lui	a4,0x1a
 1f6:	656e                	flw	fa0,216(sp)
 1f8:	2064                	fld	fs1,192(s0)
 1fa:	6e69                	lui	t3,0x1a
 1fc:	0074                	addi	a3,sp,12
 1fe:	7263732f          	0x7263732f
 202:	7461                	lui	s0,0xffff8
 204:	6d2f6863          	bltu	t5,s2,8d4 <_min_stack-0x172c>
 208:	6e616963          	bltu	sp,t1,8fa <_min_stack-0x1706>
 20c:	2f69                	jal	9a6 <_min_stack-0x165a>
 20e:	6568                	flw	fa0,76(a0)
 210:	732d                	lui	t1,0xfffeb
 212:	682f636f          	jal	t1,f6894 <tohost+0xd688c>
 216:	7261                	lui	tp,0xffff8
 218:	7764                	flw	fs1,108(a4)
 21a:	7261                	lui	tp,0xffff8
 21c:	2f65                	jal	9d4 <_min_stack-0x162c>
 21e:	6b726f77          	0x6b726f77
 222:	6e69                	lui	t3,0x1a
 224:	69645f67          	0x69645f67
 228:	2f72                	fld	ft10,280(sp)
 22a:	6e65706f          	j	57910 <tohost+0x37908>
 22e:	6974                	flw	fa3,84(a0)
 230:	6174                	flw	fa3,68(a0)
 232:	2f6e                	fld	ft10,216(sp)
 234:	7768                	flw	fa0,108(a4)
 236:	706f742f          	0x706f742f
 23a:	655f 7261 676c      	0x676c7261655f
 240:	6572                	flw	fa0,28(sp)
 242:	2f79                	jal	9e0 <_min_stack-0x1620>
 244:	742f7773          	csrrci	a4,0x742,30
 248:	7365                	lui	t1,0xffff9
 24a:	7374                	flw	fa3,100(a4)
 24c:	616d682f          	0x616d682f
 250:	65745f63          	ble	s7,s0,8ae <_min_stack-0x1752>
 254:	70007473          	csrrci	s0,0x700,0
 258:	6972                	flw	fs2,28(sp)
 25a:	746e                	flw	fs0,248(sp)
 25c:	625f 6675 7100      	0x71006675625f
 262:	7270                	flw	fa2,100(a2)
 264:	6e69                	lui	t3,0x1a
 266:	6374                	flw	fa3,68(a4)
 268:	6168                	flw	fa0,68(a0)
 26a:	0072                	0x72
 26c:	5f5f 7562 6c69      	0x6c6975625f5f
 272:	6974                	flw	fa3,84(a0)
 274:	5f6e                	lw	t5,248(sp)
 276:	6176                	flw	ft2,92(sp)
 278:	6c5f 7369 0074      	0x7473696c5f
 27e:	6964                	flw	fs1,84(a0)
 280:	7576                	flw	fa0,124(sp)
 282:	3031                	jal	fffffa8e <pulp__FC+0xfffffa8f>
 284:	7500                	flw	fs0,40(a0)
 286:	7261                	lui	tp,0xffff8
 288:	5f74                	lw	a3,124(a4)
 28a:	646e6573          	csrrsi	a0,0x646,28
 28e:	72616863          	bltu	sp,t1,9be <_min_stack-0x1642>
 292:	6300                	flw	fs0,0(a4)
 294:	6b6c                	flw	fa1,84(a4)
 296:	635f 756f 746e      	0x746e756f635f
 29c:	7265                	lui	tp,0xffff9
 29e:	5f00                	lw	s0,56(a4)
 2a0:	675f 756e 5f63      	0x5f63756e675f
 2a6:	6176                	flw	ft2,92(sp)
 2a8:	6c5f 7369 0074      	0x7473696c5f
 2ae:	7865                	lui	a6,0xffff9
 2b0:	6574                	flw	fa3,76(a0)
 2b2:	6e72                	flw	ft8,28(sp)
 2b4:	6c61                	lui	s8,0x18
 2b6:	695f 7172 685f      	0x685f7172695f
 2bc:	6e61                	lui	t3,0x18
 2be:	6c64                	flw	fs1,92(s0)
 2c0:	7265                	lui	tp,0xffff9
 2c2:	7500                	flw	fs0,40(a0)
 2c4:	7261                	lui	tp,0xffff8
 2c6:	5f74                	lw	a3,124(a4)
 2c8:	646e6573          	csrrsi	a0,0x646,28
 2cc:	6d00                	flw	fs0,24(a0)
 2ce:	6f62                	flw	ft10,24(sp)
 2d0:	5f78                	lw	a4,124(a4)
 2d2:	6469                	lui	s0,0x1a
 2d4:	6600                	flw	fs0,8(a2)
 2d6:	616d726f          	jal	tp,d78ec <tohost+0xb78e4>
 2da:	0074                	addi	a3,sp,12
 2dc:	5f70                	lw	a2,124(a4)
 2de:	6572                	flw	fa0,28(sp)
 2e0:	65003567          	0x65003567
 2e4:	746e                	flw	fs0,248(sp)
 2e6:	6f72                	flw	ft10,28(sp)
 2e8:	7970                	flw	fa2,116(a0)
 2ea:	735f 6372 655f      	0x655f6372735f
 2f0:	616e                	flw	ft2,216(sp)
 2f2:	6c62                	flw	fs8,24(sp)
 2f4:	0065                	c.addi	zero,25
 2f6:	6d68                	flw	fa0,92(a0)
 2f8:	6361                	lui	t1,0x18
 2fa:	315f 6800 616d      	0x616d6800315f
 300:	00325f63          	ble	gp,tp,31e <_min_stack-0x1ce2>
 304:	6d68                	flw	fa0,92(a0)
 306:	6361                	lui	t1,0x18
 308:	335f 6800 616d      	0x616d6800335f
 30e:	00345f63          	ble	gp,s0,32c <_min_stack-0x1cd4>
 312:	6d68                	flw	fa0,92(a0)
 314:	6361                	lui	t1,0x18
 316:	745f 7365 2e74      	0x2e747365745f
 31c:	72700063          	beq	zero,t2,a3c <_min_stack-0x15c4>
 320:	6c65                	lui	s8,0x19
 322:	5f64616f          	jal	sp,46918 <tohost+0x26910>
 326:	6269                	lui	tp,0x1a
 328:	7865                	lui	a6,0xffff9
 32a:	6800                	flw	fs0,16(s0)
 32c:	616d                	addi	sp,sp,240
 32e:	6e695f63          	ble	t1,s2,a2c <_min_stack-0x15d4>
 332:	7570                	flw	fa2,108(a0)
 334:	5f74                	lw	a3,124(a4)
 336:	7968                	flw	fa0,116(a0)
 338:	6570                	flw	fa2,76(a0)
 33a:	0072                	0x72
 33c:	6d68                	flw	fa0,92(a0)
 33e:	6361                	lui	t1,0x18
 340:	655f 636e 7972      	0x7972636e655f
 346:	7470                	flw	fa2,108(s0)
 348:	6d00                	flw	fs0,24(a0)
 34a:	6961                	lui	s2,0x18
 34c:	006e                	0x6e
 34e:	6e727363          	bleu	t2,tp,a34 <_min_stack-0x15cc>
 352:	6e655f67          	0x6e655f67
 356:	6261                	lui	tp,0x18
 358:	656c                	flw	fa1,76(a0)
 35a:	6500                	flw	fs0,8(a0)
 35c:	746e                	flw	fs0,248(sp)
 35e:	6f72                	flw	ft10,28(sp)
 360:	7970                	flw	fa2,116(a0)
 362:	695f 696e 0074      	0x74696e695f
 368:	6269                	lui	tp,0x1a
 36a:	7865                	lui	a6,0xffff9
 36c:	705f 696f 746e      	0x746e696f705f
 372:	7265                	lui	tp,0xffff9
 374:	6200                	flw	fs0,0(a2)
 376:	7561                	lui	a0,0xffff8
 378:	5f64                	lw	s1,124(a4)
 37a:	6172                	flw	ft2,28(sp)
 37c:	6574                	flw	fa3,76(a0)
 37e:	6800                	flw	fs0,16(s0)
 380:	616d                	addi	sp,sp,240
 382:	62690063          	beq	s2,t1,9a2 <_min_stack-0x165e>
 386:	7865                	lui	a6,0xffff9
 388:	315f 6900 6562      	0x65626900315f
 38e:	5f78                	lw	a4,124(a4)
 390:	0032                	0x32
 392:	6269                	lui	tp,0x1a
 394:	7865                	lui	a6,0xffff9
 396:	335f 6900 6562      	0x65626900335f
 39c:	5f78                	lw	a4,124(a4)
 39e:	0034                	addi	a3,sp,8
 3a0:	626d                	lui	tp,0x1b
 3a2:	315f786f          	jal	a6,f7eb6 <tohost+0xd7eae>
 3a6:	6d00                	flw	fs0,24(a0)
 3a8:	6f62                	flw	ft10,24(sp)
 3aa:	5f78                	lw	a4,124(a4)
 3ac:	0032                	0x32
 3ae:	626d                	lui	tp,0x1b
 3b0:	335f786f          	jal	a6,f7ee4 <tohost+0xd7edc>
 3b4:	6d00                	flw	fs0,24(a0)
 3b6:	6f62                	flw	ft10,24(sp)
 3b8:	5f78                	lw	a4,124(a4)
 3ba:	0034                	addi	a3,sp,8
 3bc:	626d                	lui	tp,0x1b
 3be:	705f786f          	jal	a6,f82c2 <tohost+0xd82ba>
 3c2:	746e696f          	jal	s2,e6b08 <tohost+0xc6b00>
 3c6:	7265                	lui	tp,0xffff9
 3c8:	6100                	flw	fs0,0(a0)
 3ca:	6772                	flw	fa4,28(sp)
 3cc:	6d680063          	beq	a6,s6,a8c <_min_stack-0x1574>
 3d0:	6361                	lui	t1,0x18
 3d2:	695f 706e 7475      	0x7475706e695f
 3d8:	6d5f 6f62 0078      	0x786f626d5f
 3de:	7261                	lui	tp,0xffff8
 3e0:	6169                	addi	sp,sp,208
 3e2:	656e                	flw	fa0,216(sp)
 3e4:	325f 6100 6972      	0x69726100325f
 3ea:	6e61                	lui	t3,0x18
 3ec:	5f65                	li	t5,-7
 3ee:	72610033          	0x72610033
 3f2:	6169                	addi	sp,sp,208
 3f4:	656e                	flw	fa0,216(sp)
 3f6:	345f 6800 616d      	0x616d6800345f
 3fc:	6e695f63          	ble	t1,s2,afa <_min_stack-0x1506>
 400:	7469                	lui	s0,0xffffa
 402:	7400                	flw	fs0,40(s0)
 404:	7365                	lui	t1,0xffff9
 406:	5f74                	lw	a3,124(a4)
 408:	7266                	flw	ft4,120(sp)
 40a:	7165                	addi	sp,sp,-400
 40c:	6100                	flw	fs0,0(a0)
 40e:	6772                	flw	fa4,28(sp)
 410:	0076                	0x76
 412:	6d68                	flw	fa0,92(a0)
 414:	6361                	lui	t1,0x18
 416:	695f 706e 7475      	0x7475706e695f
 41c:	695f 6562 0078      	0x786562695f
 422:	6465                	lui	s0,0x19
 424:	5f6e                	lw	t5,248(sp)
 426:	6e65                	lui	t3,0x19
 428:	6261                	lui	tp,0x18
 42a:	656c                	flw	fa1,76(a0)
 42c:	6800                	flw	fs0,16(s0)
 42e:	616d                	addi	sp,sp,240
 430:	72775f63          	ble	t2,a4,b6e <_min_stack-0x1492>
 434:	7469                	lui	s0,0xffffa
 436:	5f65                	li	t5,-7
 438:	0079656b          	0x79656b
 43c:	425f 6f6f 006c      	0x6c6f6f425f
 442:	7270                	flw	fa2,100(a2)
 444:	6c65                	lui	s8,0x19
 446:	5f64616f          	jal	sp,46a3c <tohost+0x26a34>
 44a:	7968                	flw	fa0,116(a0)
 44c:	6570                	flw	fa2,76(a0)
 44e:	0072                	0x72
 450:	7270                	flw	fa2,100(a2)
 452:	6c65                	lui	s8,0x19
 454:	5f64616f          	jal	sp,46a4a <tohost+0x26a42>
 458:	7261                	lui	tp,0xffff8
 45a:	6169                	addi	sp,sp,208
 45c:	656e                	flw	fa0,216(sp)
 45e:	6800                	flw	fs0,16(s0)
 460:	616d                	addi	sp,sp,240
 462:	65725f63          	ble	s7,tp,ac0 <_min_stack-0x1540>
 466:	6461                	lui	s0,0x18
 468:	6f5f 7475 6800      	0x680074756f5f
 46e:	616d                	addi	sp,sp,240
 470:	6e695f63          	ble	t1,s2,b6e <_min_stack-0x1492>
 474:	7570                	flw	fa2,108(a0)
 476:	5f74                	lw	a3,124(a4)
 478:	7261                	lui	tp,0xffff8
 47a:	6169                	addi	sp,sp,208
 47c:	656e                	flw	fa0,216(sp)
 47e:	6800                	flw	fs0,16(s0)
 480:	7079                	0x7079
 482:	7265                	lui	tp,0xffff9
 484:	705f 696f 746e      	0x746e696f705f
 48a:	7265                	lui	tp,0xffff9
 48c:	6100                	flw	fs0,0(a0)
 48e:	6972                	flw	fs2,28(sp)
 490:	6e61                	lui	t3,0x18
 492:	5f65                	li	t5,-7
 494:	6f70                	flw	fa2,92(a4)
 496:	6e69                	lui	t3,0x1a
 498:	6574                	flw	fa3,76(a0)
 49a:	0072                	0x72
 49c:	7261                	lui	tp,0xffff8
 49e:	6169                	addi	sp,sp,208
 4a0:	656e                	flw	fa0,216(sp)
 4a2:	315f 6800 7079      	0x70796800315f
 4a8:	7265                	lui	tp,0xffff9
 4aa:	315f 6800 7079      	0x70796800315f
 4b0:	7265                	lui	tp,0xffff9
 4b2:	325f 6800 7079      	0x70796800325f
 4b8:	7265                	lui	tp,0xffff9
 4ba:	335f 6800 7079      	0x70796800335f
 4c0:	7265                	lui	tp,0xffff9
 4c2:	345f 7000 6572      	0x65727000345f
 4c8:	6f6c                	flw	fa1,92(a4)
 4ca:	6461                	lui	s0,0x18
 4cc:	6d5f 6f62 0078      	0x786f626d5f

Disassembly of section .comment:

00000000 <.comment>:
   0:	3a434347          	fmsub.d	ft6,ft6,ft4,ft7,rmm
   4:	2820                	fld	fs0,80(s0)
   6:	29554e47          	fmsub.s	ft8,fa0,fs5,ft5,rmm
   a:	3720                	fld	fs0,104(a4)
   c:	312e                	fld	ft2,232(sp)
   e:	312e                	fld	ft2,232(sp)
  10:	3220                	fld	fs0,96(a2)
  12:	3130                	fld	fa2,96(a0)
  14:	30353037          	lui	zero,0x30353
  18:	0039                	c.addi	zero,14

Disassembly of section .Pulp_Chip.Info:

00000000 <.Pulp_Chip.Info>:
   0:	000a                	0xa
   2:	0000                	unimp
   4:	0038                	addi	a4,sp,8
   6:	0000                	unimp
   8:	0001                	nop
   a:	0000                	unimp
   c:	7550                	flw	fa2,44(a0)
   e:	706c                	flw	fa1,100(s0)
  10:	495f 666e 006f      	0x6f666e495f
  16:	70696863          	bltu	s2,t1,726 <_min_stack-0x18da>
  1a:	6e3d                	lui	t3,0xf
  1c:	20656e6f          	jal	t3,56222 <tohost+0x3621a>
  20:	3d757063          	bleu	s7,a0,3e0 <_min_stack-0x1c20>
  24:	6f6e                	flw	ft10,216(sp)
  26:	656e                	flw	fa0,216(sp)
  28:	7020                	flw	fs0,96(s0)
  2a:	3d65                	jal	fffffee2 <pulp__FC+0xfffffee3>
  2c:	312d                	jal	fffffc56 <pulp__FC+0xfffffc57>
  2e:	6620                	flw	fs0,72(a2)
  30:	312d3d63          	p.bneimm	s10,-14,34a <_min_stack-0x1cb6>
  34:	6c20                	flw	fs0,88(s0)
  36:	3d32                	fld	fs10,296(sp)
  38:	312d                	jal	fffffc62 <pulp__FC+0xfffffc63>
  3a:	6c20                	flw	fs0,88(s0)
  3c:	6331                	lui	t1,0xc
  3e:	3d6c                	fld	fa1,248(a0)
  40:	312d                	jal	fffffc6a <pulp__FC+0xfffffc6b>
  42:	6c20                	flw	fs0,88(s0)
  44:	6631                	lui	a2,0xc
  46:	312d3d63          	p.bneimm	s10,-14,360 <_min_stack-0x1ca0>
  4a:	0000                	unimp
	...
