
mbox_test.elf:     file format elf32-littleriscv
architecture: riscv:rv32, flags 0x00000112:
EXEC_P, HAS_SYMS, D_PAGED
start address 0xe0000080

Sections:
Idx Name          Size      VMA       LMA       File off  Algn
  0 .vectors      00000084  e0000000  e0000000  00001000  2**0
                  CONTENTS, ALLOC, LOAD, READONLY, CODE
  1 .text         000024a6  e0000084  e0000084  00001084  2**1
                  CONTENTS, ALLOC, LOAD, READONLY, CODE
  2 .rodata       0000006e  e000252c  e000252c  0000352c  2**2
                  CONTENTS, ALLOC, LOAD, READONLY, DATA
  3 .data         00000010  e000259c  e000259c  0000359c  2**2
                  CONTENTS, ALLOC, LOAD, DATA
  4 .bss          00000000  e00025ac  e00025ac  000035ac  2**0
                  ALLOC
  5 .logs.fields  00000000  e00025ac  e00025ac  000035ac  2**0
                  CONTENTS
  6 .stack        00002000  e0008000  e0008000  00004000  2**0
                  ALLOC
  7 .debug_info   00000b6a  00000000  00000000  000035ac  2**0
                  CONTENTS, READONLY, DEBUGGING, OCTETS
  8 .debug_abbrev 0000050f  00000000  00000000  00004116  2**0
                  CONTENTS, READONLY, DEBUGGING, OCTETS
  9 .debug_loclists 00000929  00000000  00000000  00004625  2**0
                  CONTENTS, READONLY, DEBUGGING, OCTETS
 10 .debug_aranges 00000070  00000000  00000000  00004f50  2**3
                  CONTENTS, READONLY, DEBUGGING, OCTETS
 11 .debug_rnglists 00000129  00000000  00000000  00004fc0  2**0
                  CONTENTS, READONLY, DEBUGGING, OCTETS
 12 .debug_line   00004df6  00000000  00000000  000050e9  2**0
                  CONTENTS, READONLY, DEBUGGING, OCTETS
 13 .debug_str    00000321  00000000  00000000  00009edf  2**0
                  CONTENTS, READONLY, DEBUGGING, OCTETS
 14 .debug_line_str 0000027d  00000000  00000000  0000a200  2**0
                  CONTENTS, READONLY, DEBUGGING, OCTETS
 15 .comment      00000026  00000000  00000000  0000a47d  2**0
                  CONTENTS, READONLY
 16 .riscv.attributes 0000003f  00000000  00000000  0000a4a3  2**0
                  CONTENTS, READONLY
 17 .debug_frame  000001d8  00000000  00000000  0000a4e4  2**2
                  CONTENTS, READONLY, DEBUGGING, OCTETS

Disassembly of section .vectors:

e0000000 <_vectors_start>:
  .option norvc;
  
  .org 0x00
  .rept 10
  jal x0, default_exc_handler
  .endr
e0000000:	3e60206f          	j	e00023e6 <default_exc_handler>
e0000004:	3e20206f          	j	e00023e6 <default_exc_handler>
e0000008:	3de0206f          	j	e00023e6 <default_exc_handler>
e000000c:	3da0206f          	j	e00023e6 <default_exc_handler>
e0000010:	3d60206f          	j	e00023e6 <default_exc_handler>
e0000014:	3d20206f          	j	e00023e6 <default_exc_handler>
e0000018:	3ce0206f          	j	e00023e6 <default_exc_handler>
e000001c:	3ca0206f          	j	e00023e6 <default_exc_handler>
e0000020:	3c60206f          	j	e00023e6 <default_exc_handler>
e0000024:	3c20206f          	j	e00023e6 <default_exc_handler>
  
  jal x0, default_exc_handler
e0000028:	3be0206f          	j	e00023e6 <default_exc_handler>
  
  jal x0, external_irq_handler
e000002c:	3860206f          	j	e00023b2 <external_irq_handler>

  .org 0x30
  .rept 18
  jal x0, default_exc_handler
  .endr
e0000030:	3b60206f          	j	e00023e6 <default_exc_handler>
e0000034:	3b20206f          	j	e00023e6 <default_exc_handler>
e0000038:	3ae0206f          	j	e00023e6 <default_exc_handler>
e000003c:	3aa0206f          	j	e00023e6 <default_exc_handler>
e0000040:	3a60206f          	j	e00023e6 <default_exc_handler>
e0000044:	3a20206f          	j	e00023e6 <default_exc_handler>
e0000048:	39e0206f          	j	e00023e6 <default_exc_handler>
e000004c:	39a0206f          	j	e00023e6 <default_exc_handler>
e0000050:	3960206f          	j	e00023e6 <default_exc_handler>
e0000054:	3920206f          	j	e00023e6 <default_exc_handler>
e0000058:	38e0206f          	j	e00023e6 <default_exc_handler>
e000005c:	38a0206f          	j	e00023e6 <default_exc_handler>
e0000060:	3860206f          	j	e00023e6 <default_exc_handler>
e0000064:	3820206f          	j	e00023e6 <default_exc_handler>
e0000068:	37e0206f          	j	e00023e6 <default_exc_handler>
e000006c:	37a0206f          	j	e00023e6 <default_exc_handler>
e0000070:	3760206f          	j	e00023e6 <default_exc_handler>
e0000074:	3720206f          	j	e00023e6 <default_exc_handler>
  jal x0, default_exc_handler
e0000078:	36e0206f          	j	e00023e6 <default_exc_handler>
  jal x0, default_exc_handler
e000007c:	36a0206f          	j	e00023e6 <default_exc_handler>


  // reset vector
  .org 0x80
  jal x0, reset_handler
e0000080:	36a0206f          	j	e00023ea <reset_handler>

Disassembly of section .text:

e0000084 <uart_set_cfg>:
}


void uart_set_cfg(int parity, uint16_t clk_counter) {
  unsigned int i;
  *(volatile unsigned int*)(UART_REG_LCR) = 0x83; //sets 8N1 and set DLAB to 1
e0000084:	400007b7          	lui	a5,0x40000
e0000088:	08300713          	li	a4,131
e000008c:	c7d8                	sw	a4,12(a5)
  *(volatile unsigned int*)(UART_REG_DLM) = (clk_counter >> 8) & 0xFF;
e000008e:	0085d713          	srli	a4,a1,0x8
e0000092:	c3d8                	sw	a4,4(a5)
  *(volatile unsigned int*)(UART_REG_DLL) =  clk_counter       & 0xFF;
e0000094:	0ff5f593          	zext.b	a1,a1
e0000098:	c38c                	sw	a1,0(a5)
  *(volatile unsigned int*)(UART_REG_FCR) = 0xA7; //enables 16byte FIFO and clear FIFOs
e000009a:	0a700713          	li	a4,167
e000009e:	c798                	sw	a4,8(a5)
  *(volatile unsigned int*)(UART_REG_LCR) = 0x03; //sets 8N1 and set DLAB to 0
e00000a0:	470d                	li	a4,3
e00000a2:	c7d8                	sw	a4,12(a5)

  *(volatile unsigned int*)(UART_REG_IER) = ((*(volatile unsigned int*)(UART_REG_IER)) & 0xF0) | 0x02; // set IER (interrupt enable register) on UART
e00000a4:	43d8                	lw	a4,4(a5)
e00000a6:	0f077713          	andi	a4,a4,240
e00000aa:	00276713          	ori	a4,a4,2
e00000ae:	c3d8                	sw	a4,4(a5)
}
e00000b0:	8082                	ret

e00000b2 <uart_send>:

  while(len > 0) {
    // process this in batches of 16 bytes to actually use the FIFO in the UART

    // wait until there is space in the fifo
    while( (*(volatile unsigned int*)(UART_REG_LSR) & 0x20) == 0);
e00000b2:	40000737          	lui	a4,0x40000
  while(len > 0) {
e00000b6:	e191                	bnez	a1,e00000ba <uart_send+0x8>
      *(volatile unsigned int*)(UART_REG_THR) = *str++;

      len--;
    }
  }
}
e00000b8:	8082                	ret
    while( (*(volatile unsigned int*)(UART_REG_LSR) & 0x20) == 0);
e00000ba:	4b5c                	lw	a5,20(a4)
e00000bc:	0207f793          	andi	a5,a5,32
e00000c0:	dfed                	beqz	a5,e00000ba <uart_send+0x8>
e00000c2:	04050793          	addi	a5,a0,64
      *(volatile unsigned int*)(UART_REG_THR) = *str++;
e00000c6:	00054683          	lbu	a3,0(a0)
e00000ca:	0505                	addi	a0,a0,1
      len--;
e00000cc:	15fd                	addi	a1,a1,-1
      *(volatile unsigned int*)(UART_REG_THR) = *str++;
e00000ce:	c314                	sw	a3,0(a4)
    for(i = 0; (i < UART_FIFO_DEPTH) && (len > 0); i++) {
e00000d0:	fea783e3          	beq	a5,a0,e00000b6 <uart_send+0x4>
e00000d4:	f9ed                	bnez	a1,e00000c6 <uart_send+0x14>
e00000d6:	8082                	ret

e00000d8 <uart_getchar>:

char uart_getchar() {
  while((*((volatile int*)UART_REG_LSR) & 0x1) != 0x1);
e00000d8:	40000737          	lui	a4,0x40000
e00000dc:	4b5c                	lw	a5,20(a4)
e00000de:	8b85                	andi	a5,a5,1
e00000e0:	dff5                	beqz	a5,e00000dc <uart_getchar+0x4>

  return *(volatile int*)UART_REG_RBR;
e00000e2:	4308                	lw	a0,0(a4)
}
e00000e4:	0ff57513          	zext.b	a0,a0
e00000e8:	8082                	ret

e00000ea <uart_sendchar>:

void uart_sendchar(const char c) {
  // wait until there is space in the fifo
  while( (*(volatile unsigned int*)(UART_REG_LSR) & 0x20) == 0);
e00000ea:	40000737          	lui	a4,0x40000
e00000ee:	4b5c                	lw	a5,20(a4)
e00000f0:	0207f793          	andi	a5,a5,32
e00000f4:	dfed                	beqz	a5,e00000ee <uart_sendchar+0x4>

  // load FIFO
  *(volatile unsigned int*)(UART_REG_THR) = c;
e00000f6:	c308                	sw	a0,0(a4)
}
e00000f8:	8082                	ret

e00000fa <qprints.constprop.0>:
  }
  else
    putchar((char)c);
}

static int qprints(char **out, const char *string, int width, int pad)
e00000fa:	1101                	addi	sp,sp,-32
e00000fc:	cc22                	sw	s0,24(sp)
e00000fe:	ca26                	sw	s1,20(sp)
e0000100:	c452                	sw	s4,8(sp)
e0000102:	ce06                	sw	ra,28(sp)
e0000104:	c84a                	sw	s2,16(sp)
e0000106:	c64e                	sw	s3,12(sp)
e0000108:	8a2a                	mv	s4,a0
e000010a:	842e                	mv	s0,a1
{
  register int pc = 0, padchar = ' ';
e000010c:	02000493          	li	s1,32

  if (width > 0) {
e0000110:	02b05463          	blez	a1,e0000138 <qprints.constprop.0+0x3e>
e0000114:	4781                	li	a5,0
e0000116:	a011                	j	e000011a <qprints.constprop.0+0x20>
    register int len = 0;
    register const char *ptr;
    for (ptr = string; *ptr; ++ptr) ++len;
e0000118:	0785                	addi	a5,a5,1 # 40000001 <tohost+0x3ffdfff9>
e000011a:	00fa0733          	add	a4,s4,a5
e000011e:	00074703          	lbu	a4,0(a4) # 40000000 <tohost+0x3ffdfff8>
e0000122:	fb7d                	bnez	a4,e0000118 <qprints.constprop.0+0x1e>
    if (len >= width) width = 0;
e0000124:	0287d163          	bge	a5,s0,e0000146 <qprints.constprop.0+0x4c>
    else width -= len;
e0000128:	8c1d                	sub	s0,s0,a5
    if (pad & PAD_ZERO) padchar = '0';
e000012a:	00267793          	andi	a5,a2,2
  register int pc = 0, padchar = ' ';
e000012e:	02000493          	li	s1,32
    if (pad & PAD_ZERO) padchar = '0';
e0000132:	c399                	beqz	a5,e0000138 <qprints.constprop.0+0x3e>
e0000134:	03000493          	li	s1,48
  }
  if (!(pad & PAD_RIGHT)) {
e0000138:	8a05                	andi	a2,a2,1
  register int pc = 0, padchar = ' ';
e000013a:	4901                	li	s2,0
  if (!(pad & PAD_RIGHT)) {
e000013c:	e215                	bnez	a2,e0000160 <qprints.constprop.0+0x66>
e000013e:	8922                	mv	s2,s0
  uart_sendchar(s);
e0000140:	0ff4f993          	zext.b	s3,s1
e0000144:	a031                	j	e0000150 <qprints.constprop.0+0x56>
    if (len >= width) width = 0;
e0000146:	4401                	li	s0,0
e0000148:	b7cd                	j	e000012a <qprints.constprop.0+0x30>
  uart_sendchar(s);
e000014a:	854e                	mv	a0,s3
e000014c:	3f79                	jal	e00000ea <uart_sendchar>
    for ( ; width > 0; --width) {
e000014e:	197d                	addi	s2,s2,-1
e0000150:	ff204de3          	bgtz	s2,e000014a <qprints.constprop.0+0x50>
e0000154:	8922                	mv	s2,s0
e0000156:	00045363          	bgez	s0,e000015c <qprints.constprop.0+0x62>
e000015a:	4901                	li	s2,0
e000015c:	41240433          	sub	s0,s0,s2
  register int pc = 0, padchar = ' ';
e0000160:	89ca                	mv	s3,s2
e0000162:	a019                	j	e0000168 <qprints.constprop.0+0x6e>
  uart_sendchar(s);
e0000164:	3759                	jal	e00000ea <uart_sendchar>
      ++pc;
    }
  }
  for ( ; *string ; ++string) {
    qprintchar (out, *string);
    ++pc;
e0000166:	0985                	addi	s3,s3,1
  for ( ; *string ; ++string) {
e0000168:	412987b3          	sub	a5,s3,s2
e000016c:	97d2                	add	a5,a5,s4
e000016e:	0007c503          	lbu	a0,0(a5)
e0000172:	f96d                	bnez	a0,e0000164 <qprints.constprop.0+0x6a>
e0000174:	8922                	mv	s2,s0
  uart_sendchar(s);
e0000176:	0ff4f493          	zext.b	s1,s1
  }
  for ( ; width > 0; --width) {
e000017a:	01204f63          	bgtz	s2,e0000198 <qprints.constprop.0+0x9e>
    qprintchar (out, padchar);
    ++pc;
  }

  return pc;
e000017e:	00045363          	bgez	s0,e0000184 <qprints.constprop.0+0x8a>
e0000182:	4401                	li	s0,0
}
e0000184:	01340533          	add	a0,s0,s3
e0000188:	40f2                	lw	ra,28(sp)
e000018a:	4462                	lw	s0,24(sp)
e000018c:	44d2                	lw	s1,20(sp)
e000018e:	4942                	lw	s2,16(sp)
e0000190:	49b2                	lw	s3,12(sp)
e0000192:	4a22                	lw	s4,8(sp)
e0000194:	6105                	addi	sp,sp,32
e0000196:	8082                	ret
  uart_sendchar(s);
e0000198:	8526                	mv	a0,s1
e000019a:	3f81                	jal	e00000ea <uart_sendchar>
  for ( ; width > 0; --width) {
e000019c:	197d                	addi	s2,s2,-1
e000019e:	bff1                	j	e000017a <qprints.constprop.0+0x80>

e00001a0 <qprinti.constprop.0>:

static int qprinti(char **out, int i, int b, int sg, int width, int pad, char letbase)
e00001a0:	7139                	addi	sp,sp,-64
e00001a2:	da26                	sw	s1,52(sp)
e00001a4:	de06                	sw	ra,60(sp)
e00001a6:	dc22                	sw	s0,56(sp)
e00001a8:	88ae                	mv	a7,a1
e00001aa:	84b2                	mv	s1,a2
e00001ac:	85b6                	mv	a1,a3
e00001ae:	863a                	mv	a2,a4
  char print_buf[PRINT_BUF_LEN];
  register char *s;
  register int neg = 0, pc = 0;
  unsigned int t,u = i;

  if (i == 0)
e00001b0:	ed01                	bnez	a0,e00001c8 <qprinti.constprop.0+0x28>
  {
    print_buf[0] = '0';
e00001b2:	03000793          	li	a5,48
    print_buf[1] = '\0';
    return qprints (out, print_buf, width, pad);
e00001b6:	0808                	addi	a0,sp,16
    print_buf[0] = '0';
e00001b8:	00f11823          	sh	a5,16(sp)
    return qprints (out, print_buf, width, pad);
e00001bc:	3f3d                	jal	e00000fa <qprints.constprop.0>
    {
      *--s = '-';
    }
  }
  return pc + qprints (out, s, width, pad);
}
e00001be:	50f2                	lw	ra,60(sp)
e00001c0:	5462                	lw	s0,56(sp)
e00001c2:	54d2                	lw	s1,52(sp)
e00001c4:	6121                	addi	sp,sp,64
e00001c6:	8082                	ret
e00001c8:	882a                	mv	a6,a0
  if (sg && b == 10 && i < 0)
e00001ca:	c881                	beqz	s1,e00001da <qprinti.constprop.0+0x3a>
e00001cc:	4729                	li	a4,10
e00001ce:	06e89f63          	bne	a7,a4,e000024c <qprinti.constprop.0+0xac>
e00001d2:	06055d63          	bgez	a0,e000024c <qprinti.constprop.0+0xac>
    u = -i;
e00001d6:	40a00833          	neg	a6,a0
  *s = '\0';
e00001da:	020107a3          	sb	zero,47(sp)
  if(b == 16) {
e00001de:	4741                	li	a4,16
e00001e0:	02f10413          	addi	s0,sp,47
e00001e4:	06e88663          	beq	a7,a4,e0000250 <qprinti.constprop.0+0xb0>
  n = (0x19999999 * n + (n >> 1) + (n >> 3)) >> 28;
e00001e8:	1999a737          	lui	a4,0x1999a
  return remu10_table[n];
e00001ec:	00002897          	auipc	a7,0x2
e00001f0:	3b088893          	addi	a7,a7,944 # e000259c <remu10_table>
  n = (0x19999999 * n + (n >> 1) + (n >> 3)) >> 28;
e00001f4:	99970713          	addi	a4,a4,-1639 # 19999999 <tohost+0x19979991>
  r = n - q * 10;
e00001f8:	4529                	li	a0,10
  n = (0x19999999 * n + (n >> 1) + (n >> 3)) >> 28;
e00001fa:	02e807b3          	mul	a5,a6,a4
e00001fe:	00185693          	srli	a3,a6,0x1
e0000202:	00385313          	srli	t1,a6,0x3
      *--s = remu10(u) + '0';
e0000206:	147d                	addi	s0,s0,-1
  n = (0x19999999 * n + (n >> 1) + (n >> 3)) >> 28;
e0000208:	97b6                	add	a5,a5,a3
e000020a:	979a                	add	a5,a5,t1
e000020c:	83f1                	srli	a5,a5,0x1c
  return remu10_table[n];
e000020e:	97c6                	add	a5,a5,a7
      *--s = remu10(u) + '0';
e0000210:	0007c783          	lbu	a5,0(a5)
e0000214:	03078793          	addi	a5,a5,48
e0000218:	00f40023          	sb	a5,0(s0)
  q = (n >> 1) + (n >> 2);
e000021c:	00285793          	srli	a5,a6,0x2
e0000220:	97b6                	add	a5,a5,a3
  q = q + (q >> 4);
e0000222:	0047d693          	srli	a3,a5,0x4
e0000226:	97b6                	add	a5,a5,a3
  q = q + (q >> 8);
e0000228:	0087d693          	srli	a3,a5,0x8
e000022c:	97b6                	add	a5,a5,a3
  q = q + (q >> 16);
e000022e:	0107d693          	srli	a3,a5,0x10
e0000232:	97b6                	add	a5,a5,a3
  q = q >> 3;
e0000234:	838d                	srli	a5,a5,0x3
  r = n - q * 10;
e0000236:	02a786b3          	mul	a3,a5,a0
  return q + ((r + 6) >> 4);
e000023a:	0819                	addi	a6,a6,6
e000023c:	40d80833          	sub	a6,a6,a3
e0000240:	00485813          	srli	a6,a6,0x4
e0000244:	983e                	add	a6,a6,a5
    while (u) {
e0000246:	fa081ae3          	bnez	a6,e00001fa <qprinti.constprop.0+0x5a>
e000024a:	a025                	j	e0000272 <qprinti.constprop.0+0xd2>
  register int neg = 0, pc = 0;
e000024c:	4481                	li	s1,0
e000024e:	b771                	j	e00001da <qprinti.constprop.0+0x3a>
      if (t >= 10)
e0000250:	4725                	li	a4,9
        t += letbase - '0' - 10;
e0000252:	fc678793          	addi	a5,a5,-58
      int t = u & 0xF;
e0000256:	00f87513          	andi	a0,a6,15
      if (t >= 10)
e000025a:	00a75363          	bge	a4,a0,e0000260 <qprinti.constprop.0+0xc0>
        t += letbase - '0' - 10;
e000025e:	953e                	add	a0,a0,a5
      *--s = t + '0';
e0000260:	147d                	addi	s0,s0,-1
e0000262:	03050513          	addi	a0,a0,48
e0000266:	00a40023          	sb	a0,0(s0)
      u >>= 4;
e000026a:	00485813          	srli	a6,a6,0x4
    while (u) {
e000026e:	fe0814e3          	bnez	a6,e0000256 <qprinti.constprop.0+0xb6>
  if (neg) {
e0000272:	cc89                	beqz	s1,e000028c <qprinti.constprop.0+0xec>
    if( width && (pad & PAD_ZERO) )
e0000274:	c185                	beqz	a1,e0000294 <qprinti.constprop.0+0xf4>
e0000276:	00267793          	andi	a5,a2,2
e000027a:	cf89                	beqz	a5,e0000294 <qprinti.constprop.0+0xf4>
  uart_sendchar(s);
e000027c:	02d00513          	li	a0,45
e0000280:	c632                	sw	a2,12(sp)
e0000282:	c42e                	sw	a1,8(sp)
e0000284:	359d                	jal	e00000ea <uart_sendchar>
      --width;
e0000286:	45a2                	lw	a1,8(sp)
e0000288:	4632                	lw	a2,12(sp)
e000028a:	15fd                	addi	a1,a1,-1
  return pc + qprints (out, s, width, pad);
e000028c:	8522                	mv	a0,s0
e000028e:	35b5                	jal	e00000fa <qprints.constprop.0>
e0000290:	9526                	add	a0,a0,s1
e0000292:	b735                	j	e00001be <qprinti.constprop.0+0x1e>
      *--s = '-';
e0000294:	02d00793          	li	a5,45
e0000298:	fef40fa3          	sb	a5,-1(s0)
  register int neg = 0, pc = 0;
e000029c:	4481                	li	s1,0
      *--s = '-';
e000029e:	147d                	addi	s0,s0,-1
e00002a0:	b7f5                	j	e000028c <qprinti.constprop.0+0xec>

e00002a2 <uart_wait_tx_done>:
  while( (*(volatile unsigned int*)(UART_REG_LSR) & 0x40) == 0);
e00002a2:	40000737          	lui	a4,0x40000
e00002a6:	4b5c                	lw	a5,20(a4)
e00002a8:	0407f793          	andi	a5,a5,64
e00002ac:	dfed                	beqz	a5,e00002a6 <uart_wait_tx_done+0x4>
}
e00002ae:	8082                	ret

e00002b0 <putchar>:
{
e00002b0:	1141                	addi	sp,sp,-16
e00002b2:	c422                	sw	s0,8(sp)
e00002b4:	842a                	mv	s0,a0
  uart_sendchar(s);
e00002b6:	0ff57513          	zext.b	a0,a0
{
e00002ba:	c606                	sw	ra,12(sp)
  uart_sendchar(s);
e00002bc:	353d                	jal	e00000ea <uart_sendchar>
}
e00002be:	40b2                	lw	ra,12(sp)
e00002c0:	8522                	mv	a0,s0
e00002c2:	4422                	lw	s0,8(sp)
e00002c4:	0141                	addi	sp,sp,16
e00002c6:	8082                	ret

e00002c8 <printf>:

  return pc;
}

int printf(const char *format, ...)
{
e00002c8:	711d                	addi	sp,sp,-96
e00002ca:	dc22                	sw	s0,56(sp)
  int pc;
  va_list va;

  va_start(va, format);
e00002cc:	00c0                	addi	s0,sp,68
{
e00002ce:	da26                	sw	s1,52(sp)
e00002d0:	d84a                	sw	s2,48(sp)
e00002d2:	d64e                	sw	s3,44(sp)
e00002d4:	d452                	sw	s4,40(sp)
e00002d6:	d256                	sw	s5,36(sp)
e00002d8:	d05a                	sw	s6,32(sp)
e00002da:	ce5e                	sw	s7,28(sp)
e00002dc:	de06                	sw	ra,60(sp)
e00002de:	cc62                	sw	s8,24(sp)
e00002e0:	8b2a                	mv	s6,a0
e00002e2:	c2ae                	sw	a1,68(sp)
e00002e4:	c4b2                	sw	a2,72(sp)
e00002e6:	c6b6                	sw	a3,76(sp)
e00002e8:	c8ba                	sw	a4,80(sp)
e00002ea:	cabe                	sw	a5,84(sp)
e00002ec:	ccc2                	sw	a6,88(sp)
e00002ee:	cec6                	sw	a7,92(sp)
  va_start(va, format);
e00002f0:	c622                	sw	s0,12(sp)
  register int pc = 0;
e00002f2:	4b81                	li	s7,0
    if (*format == '%')
e00002f4:	02500493          	li	s1,37
      if (*format == '-')
e00002f8:	02d00913          	li	s2,45
      while (*format == '0')
e00002fc:	03000993          	li	s3,48
        width *= 10;
e0000300:	4a29                	li	s4,10
        pc += qprints (out, s?s:"(null)", width, pad);
e0000302:	00002a97          	auipc	s5,0x2
e0000306:	22aa8a93          	addi	s5,s5,554 # e000252c <main+0xc2>
  for (; *format != 0; ++format)
e000030a:	000b4783          	lbu	a5,0(s6)
e000030e:	ef91                	bnez	a5,e000032a <printf+0x62>

  va_end(va);

  return pc;

}
e0000310:	50f2                	lw	ra,60(sp)
e0000312:	5462                	lw	s0,56(sp)
e0000314:	54d2                	lw	s1,52(sp)
e0000316:	5942                	lw	s2,48(sp)
e0000318:	59b2                	lw	s3,44(sp)
e000031a:	5a22                	lw	s4,40(sp)
e000031c:	5a92                	lw	s5,36(sp)
e000031e:	5b02                	lw	s6,32(sp)
e0000320:	4c62                	lw	s8,24(sp)
e0000322:	855e                	mv	a0,s7
e0000324:	4bf2                	lw	s7,28(sp)
e0000326:	6125                	addi	sp,sp,96
e0000328:	8082                	ret
    if (*format == '%')
e000032a:	0e979663          	bne	a5,s1,e0000416 <printf+0x14e>
      if (*format == '\0') break;
e000032e:	001b4683          	lbu	a3,1(s6)
e0000332:	def9                	beqz	a3,e0000310 <printf+0x48>
      ++format;
e0000334:	001b0793          	addi	a5,s6,1
      if (*format == '%') goto out;
e0000338:	0c968e63          	beq	a3,s1,e0000414 <printf+0x14c>
      width = pad = 0;
e000033c:	4701                	li	a4,0
      if (*format == '-')
e000033e:	01269563          	bne	a3,s2,e0000348 <printf+0x80>
        ++format;
e0000342:	002b0793          	addi	a5,s6,2
        pad = PAD_RIGHT;
e0000346:	4705                	li	a4,1
e0000348:	8b3e                	mv	s6,a5
      while (*format == '0')
e000034a:	000b4783          	lbu	a5,0(s6)
        ++format;
e000034e:	001b0693          	addi	a3,s6,1
      while (*format == '0')
e0000352:	03378b63          	beq	a5,s3,e0000388 <printf+0xc0>
      width = pad = 0;
e0000356:	4681                	li	a3,0
      for ( ; *format >= '0' && *format <= '9'; ++format) {
e0000358:	45a5                	li	a1,9
e000035a:	000b4783          	lbu	a5,0(s6)
e000035e:	001b0813          	addi	a6,s6,1
e0000362:	fd078613          	addi	a2,a5,-48
e0000366:	0ff67513          	zext.b	a0,a2
e000036a:	02a5f363          	bgeu	a1,a0,e0000390 <printf+0xc8>
      if( *format == 's' ) {
e000036e:	07300613          	li	a2,115
e0000372:	02c79463          	bne	a5,a2,e000039a <printf+0xd2>
        register char *s = va_arg(va, char*);
e0000376:	4008                	lw	a0,0(s0)
e0000378:	00440c13          	addi	s8,s0,4
        pc += qprints (out, s?s:"(null)", width, pad);
e000037c:	e111                	bnez	a0,e0000380 <printf+0xb8>
e000037e:	8556                	mv	a0,s5
e0000380:	863a                	mv	a2,a4
e0000382:	85b6                	mv	a1,a3
        pc += qprints (out, scr, width, pad);
e0000384:	3b9d                	jal	e00000fa <qprints.constprop.0>
e0000386:	a035                	j	e00003b2 <printf+0xea>
        pad |= PAD_ZERO;
e0000388:	00276713          	ori	a4,a4,2
        ++format;
e000038c:	8b36                	mv	s6,a3
e000038e:	bf75                	j	e000034a <printf+0x82>
        width *= 10;
e0000390:	034686b3          	mul	a3,a3,s4
      for ( ; *format >= '0' && *format <= '9'; ++format) {
e0000394:	8b42                	mv	s6,a6
        width += *format - '0';
e0000396:	96b2                	add	a3,a3,a2
      for ( ; *format >= '0' && *format <= '9'; ++format) {
e0000398:	b7c9                	j	e000035a <printf+0x92>
      if( *format == 'd' ) {
e000039a:	06400613          	li	a2,100
e000039e:	00c79e63          	bne	a5,a2,e00003ba <printf+0xf2>
        pc += qprinti (out, va_arg(va, int), 10, 1, width, pad, 'a');
e00003a2:	00440c13          	addi	s8,s0,4
e00003a6:	06100793          	li	a5,97
e00003aa:	4605                	li	a2,1
e00003ac:	45a9                	li	a1,10
e00003ae:	4008                	lw	a0,0(s0)
e00003b0:	3bc5                	jal	e00001a0 <qprinti.constprop.0>
e00003b2:	9baa                	add	s7,s7,a0
e00003b4:	8462                	mv	s0,s8
  for (; *format != 0; ++format)
e00003b6:	0b05                	addi	s6,s6,1
e00003b8:	bf89                	j	e000030a <printf+0x42>
      if( *format == 'u' ) {
e00003ba:	07500613          	li	a2,117
e00003be:	00c79863          	bne	a5,a2,e00003ce <printf+0x106>
        pc += qprinti (out, va_arg(va, unsigned int), 10, 0, width, pad, 'a');
e00003c2:	00440c13          	addi	s8,s0,4
e00003c6:	06100793          	li	a5,97
e00003ca:	4601                	li	a2,0
e00003cc:	b7c5                	j	e00003ac <printf+0xe4>
      if( *format == 'x' ) {
e00003ce:	07800613          	li	a2,120
e00003d2:	00c79963          	bne	a5,a2,e00003e4 <printf+0x11c>
        pc += qprinti (out, va_arg(va, uint32_t), 16, 0, width, pad, 'a');
e00003d6:	00440c13          	addi	s8,s0,4
e00003da:	06100793          	li	a5,97
        pc += qprinti (out, va_arg(va, uint32_t), 16, 0, width, pad, 'A');
e00003de:	4601                	li	a2,0
e00003e0:	45c1                	li	a1,16
e00003e2:	b7f1                	j	e00003ae <printf+0xe6>
      if( *format == 'X' ) {
e00003e4:	05800613          	li	a2,88
e00003e8:	00c79763          	bne	a5,a2,e00003f6 <printf+0x12e>
        pc += qprinti (out, va_arg(va, uint32_t), 16, 0, width, pad, 'A');
e00003ec:	00440c13          	addi	s8,s0,4
e00003f0:	04100793          	li	a5,65
e00003f4:	b7ed                	j	e00003de <printf+0x116>
      if( *format == 'c' ) {
e00003f6:	06300613          	li	a2,99
e00003fa:	fac79ee3          	bne	a5,a2,e00003b6 <printf+0xee>
        scr[0] = va_arg(va, int);
e00003fe:	401c                	lw	a5,0(s0)
e0000400:	00440c13          	addi	s8,s0,4
        scr[1] = '\0';
e0000404:	000104a3          	sb	zero,9(sp)
        scr[0] = va_arg(va, int);
e0000408:	00f10423          	sb	a5,8(sp)
        pc += qprints (out, scr, width, pad);
e000040c:	863a                	mv	a2,a4
e000040e:	85b6                	mv	a1,a3
e0000410:	0028                	addi	a0,sp,8
e0000412:	bf8d                	j	e0000384 <printf+0xbc>
      ++format;
e0000414:	8b3e                	mv	s6,a5
  uart_sendchar(s);
e0000416:	000b4503          	lbu	a0,0(s6)
      ++pc;
e000041a:	0b85                	addi	s7,s7,1
  uart_sendchar(s);
e000041c:	31f9                	jal	e00000ea <uart_sendchar>
      ++pc;
e000041e:	bf61                	j	e00003b6 <printf+0xee>

e0000420 <simple_exc_handler>:
  printf("EXCEPTION!!!\r\n");
e0000420:	00002517          	auipc	a0,0x2
e0000424:	11450513          	addi	a0,a0,276 # e0002534 <main+0xca>
e0000428:	b545                	j	e00002c8 <printf>

e000042a <puts>:

int puts(const char *s)
{
e000042a:	1141                	addi	sp,sp,-16
e000042c:	c422                	sw	s0,8(sp)
e000042e:	c226                	sw	s1,4(sp)
e0000430:	c606                	sw	ra,12(sp)
e0000432:	84aa                	mv	s1,a0
  int i=0;
e0000434:	4401                	li	s0,0

  while(s[i] != '\0')
e0000436:	008487b3          	add	a5,s1,s0
e000043a:	0007c503          	lbu	a0,0(a5)
e000043e:	e909                	bnez	a0,e0000450 <puts+0x26>
  uart_sendchar(s);
e0000440:	4529                	li	a0,10
e0000442:	3165                	jal	e00000ea <uart_sendchar>
    putchar(s[i++]);

  putchar('\n');

  return i;
}
e0000444:	40b2                	lw	ra,12(sp)
e0000446:	8522                	mv	a0,s0
e0000448:	4422                	lw	s0,8(sp)
e000044a:	4492                	lw	s1,4(sp)
e000044c:	0141                	addi	sp,sp,16
e000044e:	8082                	ret
    putchar(s[i++]);
e0000450:	0405                	addi	s0,s0,1
  uart_sendchar(s);
e0000452:	3961                	jal	e00000ea <uart_sendchar>
  return s;
e0000454:	b7cd                	j	e0000436 <puts+0xc>

__attribute__ ((weak)) void external_irq_handler(void) {
   return;
}
e0000456:	30200073          	mret

e000045a <load_cluster_code>:
         while(p < end) {
          pulp_write32(addr++,pulp_read32(p++));
         }
       #endif
  #else
  (*(volatile unsigned int *)(long)(0x1C000100)) = 0x00000001 ;
e000045a:	1c0007b7          	lui	a5,0x1c000
e000045e:	10078713          	addi	a4,a5,256 # 1c000100 <tohost+0x1bfe00f8>
e0000462:	4685                	li	a3,1
e0000464:	c314                	sw	a3,0(a4)
  (*(volatile unsigned int *)(long)(0x1C000104)) = 0xFFFFFFFF ;
e0000466:	10478613          	addi	a2,a5,260
e000046a:	577d                	li	a4,-1
e000046c:	c218                	sw	a4,0(a2)
  (*(volatile unsigned int *)(long)(0x1C000108)) = 0x00000000 ;
e000046e:	10878613          	addi	a2,a5,264
e0000472:	00062023          	sw	zero,0(a2)
  (*(volatile unsigned int *)(long)(0x1C00010C)) = 0x00000001 ;
e0000476:	10c78613          	addi	a2,a5,268
e000047a:	c214                	sw	a3,0(a2)
  (*(volatile unsigned int *)(long)(0x1C000110)) = 0xFFFFFFFF ;
e000047c:	11078693          	addi	a3,a5,272
e0000480:	c298                	sw	a4,0(a3)
  (*(volatile unsigned int *)(long)(0x1C000114)) = 0x00000000 ;
e0000482:	11478713          	addi	a4,a5,276
e0000486:	00072023          	sw	zero,0(a4) # 40000000 <tohost+0x3ffdfff8>
  (*(volatile unsigned int *)(long)(0x1C000118)) = 0x00000000 ;
e000048a:	11878713          	addi	a4,a5,280
e000048e:	00072023          	sw	zero,0(a4)
  (*(volatile unsigned int *)(long)(0x1C00011C)) = 0x00000000 ;
e0000492:	11c78713          	addi	a4,a5,284
e0000496:	00072023          	sw	zero,0(a4)
  (*(volatile unsigned int *)(long)(0x1C000120)) = 0x00000000 ;
e000049a:	12078713          	addi	a4,a5,288
e000049e:	00072023          	sw	zero,0(a4)
  (*(volatile unsigned int *)(long)(0x1C000124)) = 0x00000000 ;
e00004a2:	12478713          	addi	a4,a5,292
e00004a6:	00072023          	sw	zero,0(a4)
  (*(volatile unsigned int *)(long)(0x1C000128)) = 0x00000000 ;
e00004aa:	12878713          	addi	a4,a5,296
e00004ae:	00072023          	sw	zero,0(a4)
  (*(volatile unsigned int *)(long)(0x1C00012C)) = 0x00000000 ;
e00004b2:	12c78713          	addi	a4,a5,300
e00004b6:	00072023          	sw	zero,0(a4)
  (*(volatile unsigned int *)(long)(0x1C000130)) = 0x00000000 ;
e00004ba:	13078713          	addi	a4,a5,304
e00004be:	00072023          	sw	zero,0(a4)
  (*(volatile unsigned int *)(long)(0x1C000134)) = 0x00000000 ;
e00004c2:	13478713          	addi	a4,a5,308
e00004c6:	00072023          	sw	zero,0(a4)
  (*(volatile unsigned int *)(long)(0x1C000138)) = 0x00000000 ;
e00004ca:	13878713          	addi	a4,a5,312
e00004ce:	00072023          	sw	zero,0(a4)
  (*(volatile unsigned int *)(long)(0x1C00013C)) = 0x00000000 ;
e00004d2:	13c78713          	addi	a4,a5,316
e00004d6:	00072023          	sw	zero,0(a4)
  (*(volatile unsigned int *)(long)(0x1C000140)) = 0x00000000 ;
e00004da:	14078713          	addi	a4,a5,320
e00004de:	00072023          	sw	zero,0(a4)
  (*(volatile unsigned int *)(long)(0x1C000144)) = 0x00000000 ;
e00004e2:	14478713          	addi	a4,a5,324
e00004e6:	00072023          	sw	zero,0(a4)
  (*(volatile unsigned int *)(long)(0x1C000148)) = 0x00000000 ;
e00004ea:	14878713          	addi	a4,a5,328
e00004ee:	00072023          	sw	zero,0(a4)
  (*(volatile unsigned int *)(long)(0x1C00014C)) = 0x00000000 ;
e00004f2:	14c78713          	addi	a4,a5,332
e00004f6:	00072023          	sw	zero,0(a4)
  (*(volatile unsigned int *)(long)(0x1C000150)) = 0x00000000 ;
e00004fa:	15078713          	addi	a4,a5,336
e00004fe:	00072023          	sw	zero,0(a4)
  (*(volatile unsigned int *)(long)(0x1C000154)) = 0x00000000 ;
e0000502:	15478713          	addi	a4,a5,340
e0000506:	00072023          	sw	zero,0(a4)
  (*(volatile unsigned int *)(long)(0x1C000158)) = 0x00000000 ;
e000050a:	15878713          	addi	a4,a5,344
e000050e:	00072023          	sw	zero,0(a4)
  (*(volatile unsigned int *)(long)(0x1C00015C)) = 0x00000000 ;
e0000512:	15c78713          	addi	a4,a5,348
e0000516:	00072023          	sw	zero,0(a4)
  (*(volatile unsigned int *)(long)(0x1C000160)) = 0x00000000 ;
e000051a:	16078713          	addi	a4,a5,352
e000051e:	00072023          	sw	zero,0(a4)
  (*(volatile unsigned int *)(long)(0x1C000164)) = 0x00000000 ;
e0000522:	16478713          	addi	a4,a5,356
e0000526:	00072023          	sw	zero,0(a4)
  (*(volatile unsigned int *)(long)(0x1C000168)) = 0x00000000 ;
e000052a:	16878713          	addi	a4,a5,360
e000052e:	00072023          	sw	zero,0(a4)
  (*(volatile unsigned int *)(long)(0x1C00016C)) = 0x00000000 ;
e0000532:	16c78713          	addi	a4,a5,364
e0000536:	00072023          	sw	zero,0(a4)
  (*(volatile unsigned int *)(long)(0x1C000170)) = 0x00000000 ;
e000053a:	17078713          	addi	a4,a5,368
e000053e:	00072023          	sw	zero,0(a4)
  (*(volatile unsigned int *)(long)(0x1C000174)) = 0x00000000 ;
e0000542:	17478713          	addi	a4,a5,372
e0000546:	00072023          	sw	zero,0(a4)
  (*(volatile unsigned int *)(long)(0x1C000178)) = 0x00000000 ;
e000054a:	17878713          	addi	a4,a5,376
e000054e:	00072023          	sw	zero,0(a4)
  (*(volatile unsigned int *)(long)(0x1C00017C)) = 0x00000000 ;
e0000552:	17c78713          	addi	a4,a5,380
e0000556:	00072023          	sw	zero,0(a4)
  (*(volatile unsigned int *)(long)(0x1C000180)) = 0x00000000 ;
e000055a:	18078713          	addi	a4,a5,384
e000055e:	00072023          	sw	zero,0(a4)
  (*(volatile unsigned int *)(long)(0x1C000184)) = 0x00000000 ;
e0000562:	18478713          	addi	a4,a5,388
e0000566:	00072023          	sw	zero,0(a4)
  (*(volatile unsigned int *)(long)(0x1C000188)) = 0x00000000 ;
e000056a:	18878713          	addi	a4,a5,392
e000056e:	00072023          	sw	zero,0(a4)
  (*(volatile unsigned int *)(long)(0x1C00018C)) = 0x00000000 ;
e0000572:	18c78713          	addi	a4,a5,396
e0000576:	00072023          	sw	zero,0(a4)
  (*(volatile unsigned int *)(long)(0x1C000190)) = 0x00000000 ;
e000057a:	19078713          	addi	a4,a5,400
e000057e:	00072023          	sw	zero,0(a4)
  (*(volatile unsigned int *)(long)(0x1C000194)) = 0x00000000 ;
e0000582:	19478713          	addi	a4,a5,404
e0000586:	00072023          	sw	zero,0(a4)
  (*(volatile unsigned int *)(long)(0x1C000198)) = 0x00000000 ;
e000058a:	19878713          	addi	a4,a5,408
e000058e:	00072023          	sw	zero,0(a4)
  (*(volatile unsigned int *)(long)(0x1C00019C)) = 0x00000000 ;
e0000592:	19c78713          	addi	a4,a5,412
e0000596:	00072023          	sw	zero,0(a4)
  (*(volatile unsigned int *)(long)(0x1C0001A0)) = 0x00000000 ;
e000059a:	1a078713          	addi	a4,a5,416
e000059e:	00072023          	sw	zero,0(a4)
  (*(volatile unsigned int *)(long)(0x1C0001A4)) = 0x00000000 ;
e00005a2:	1a478713          	addi	a4,a5,420
e00005a6:	00072023          	sw	zero,0(a4)
  (*(volatile unsigned int *)(long)(0x1C0001A8)) = 0x00000000 ;
e00005aa:	1a878713          	addi	a4,a5,424
e00005ae:	00072023          	sw	zero,0(a4)
  (*(volatile unsigned int *)(long)(0x1C0001AC)) = 0x00000000 ;
e00005b2:	1ac78713          	addi	a4,a5,428
e00005b6:	00072023          	sw	zero,0(a4)
  (*(volatile unsigned int *)(long)(0x1C0001B0)) = 0x00000000 ;
e00005ba:	1b078713          	addi	a4,a5,432
e00005be:	00072023          	sw	zero,0(a4)
  (*(volatile unsigned int *)(long)(0x1C0001B4)) = 0x00000000 ;
e00005c2:	1b478713          	addi	a4,a5,436
e00005c6:	00072023          	sw	zero,0(a4)
  (*(volatile unsigned int *)(long)(0x1C0001B8)) = 0x00000000 ;
e00005ca:	1b878713          	addi	a4,a5,440
e00005ce:	00072023          	sw	zero,0(a4)
  (*(volatile unsigned int *)(long)(0x1C0001BC)) = 0x00000000 ;
e00005d2:	1bc78713          	addi	a4,a5,444
e00005d6:	00072023          	sw	zero,0(a4)
  (*(volatile unsigned int *)(long)(0x1C0001C0)) = 0x00000000 ;
e00005da:	1c078713          	addi	a4,a5,448
e00005de:	00072023          	sw	zero,0(a4)
  (*(volatile unsigned int *)(long)(0x1C0001C4)) = 0x00000000 ;
e00005e2:	1c478713          	addi	a4,a5,452
e00005e6:	00072023          	sw	zero,0(a4)
  (*(volatile unsigned int *)(long)(0x1C0001C8)) = 0x00000000 ;
e00005ea:	1c878713          	addi	a4,a5,456
e00005ee:	00072023          	sw	zero,0(a4)
  (*(volatile unsigned int *)(long)(0x1C0001CC)) = 0x00000000 ;
e00005f2:	1cc78713          	addi	a4,a5,460
e00005f6:	00072023          	sw	zero,0(a4)
  (*(volatile unsigned int *)(long)(0x1C0001D0)) = 0x00000000 ;
e00005fa:	1d078713          	addi	a4,a5,464
e00005fe:	00072023          	sw	zero,0(a4)
  (*(volatile unsigned int *)(long)(0x1C0001D4)) = 0x00000000 ;
e0000602:	1d478713          	addi	a4,a5,468
e0000606:	00072023          	sw	zero,0(a4)
  (*(volatile unsigned int *)(long)(0x1C0001D8)) = 0x00000000 ;
e000060a:	1d878713          	addi	a4,a5,472
e000060e:	00072023          	sw	zero,0(a4)
  (*(volatile unsigned int *)(long)(0x1C0001DC)) = 0x00000000 ;
e0000612:	1dc78713          	addi	a4,a5,476
e0000616:	00072023          	sw	zero,0(a4)
  (*(volatile unsigned int *)(long)(0x1C0001E0)) = 0x00000000 ;
e000061a:	1e078713          	addi	a4,a5,480
e000061e:	00072023          	sw	zero,0(a4)
  (*(volatile unsigned int *)(long)(0x1C0001E4)) = 0x00000000 ;
e0000622:	1e478713          	addi	a4,a5,484
e0000626:	00072023          	sw	zero,0(a4)
  (*(volatile unsigned int *)(long)(0x1C0001E8)) = 0x00000000 ;
e000062a:	1e878713          	addi	a4,a5,488
e000062e:	00072023          	sw	zero,0(a4)
  (*(volatile unsigned int *)(long)(0x1C0001EC)) = 0x00000000 ;
e0000632:	1ec78713          	addi	a4,a5,492
e0000636:	00072023          	sw	zero,0(a4)
  (*(volatile unsigned int *)(long)(0x1C0001F0)) = 0x00000000 ;
e000063a:	1f078713          	addi	a4,a5,496
e000063e:	00072023          	sw	zero,0(a4)
  (*(volatile unsigned int *)(long)(0x1C0001F4)) = 0x00000000 ;
e0000642:	1f478713          	addi	a4,a5,500
e0000646:	00072023          	sw	zero,0(a4)
  (*(volatile unsigned int *)(long)(0x1C0001F8)) = 0x00000000 ;
e000064a:	1f878713          	addi	a4,a5,504
e000064e:	00072023          	sw	zero,0(a4)
  (*(volatile unsigned int *)(long)(0x1C0001FC)) = 0x00000000 ;
e0000652:	1fc78713          	addi	a4,a5,508
e0000656:	00072023          	sw	zero,0(a4)
  (*(volatile unsigned int *)(long)(0x1C000200)) = 0x00000000 ;
e000065a:	20078713          	addi	a4,a5,512
e000065e:	00072023          	sw	zero,0(a4)
  (*(volatile unsigned int *)(long)(0x1C000204)) = 0x00000000 ;
e0000662:	20478713          	addi	a4,a5,516
e0000666:	00072023          	sw	zero,0(a4)
  (*(volatile unsigned int *)(long)(0x1C000208)) = 0x00000000 ;
e000066a:	20878713          	addi	a4,a5,520
e000066e:	00072023          	sw	zero,0(a4)
  (*(volatile unsigned int *)(long)(0x1C00020C)) = 0x00000000 ;
e0000672:	20c78713          	addi	a4,a5,524
e0000676:	00072023          	sw	zero,0(a4)
  (*(volatile unsigned int *)(long)(0x1C000210)) = 0x00000000 ;
e000067a:	21078713          	addi	a4,a5,528
e000067e:	00072023          	sw	zero,0(a4)
  (*(volatile unsigned int *)(long)(0x1C000214)) = 0x00000000 ;
e0000682:	21478713          	addi	a4,a5,532
e0000686:	00072023          	sw	zero,0(a4)
  (*(volatile unsigned int *)(long)(0x1C000218)) = 0x00000000 ;
e000068a:	21878713          	addi	a4,a5,536
e000068e:	00072023          	sw	zero,0(a4)
  (*(volatile unsigned int *)(long)(0x1C00021C)) = 0x00000000 ;
e0000692:	21c78713          	addi	a4,a5,540
e0000696:	00072023          	sw	zero,0(a4)
  (*(volatile unsigned int *)(long)(0x1C000220)) = 0x00000000 ;
e000069a:	22078713          	addi	a4,a5,544
e000069e:	00072023          	sw	zero,0(a4)
  (*(volatile unsigned int *)(long)(0x1C000224)) = 0x00000000 ;
e00006a2:	22478713          	addi	a4,a5,548
e00006a6:	00072023          	sw	zero,0(a4)
  (*(volatile unsigned int *)(long)(0x1C000228)) = 0x00000000 ;
e00006aa:	22878713          	addi	a4,a5,552
e00006ae:	00072023          	sw	zero,0(a4)
  (*(volatile unsigned int *)(long)(0x1C00022C)) = 0x00000000 ;
e00006b2:	22c78713          	addi	a4,a5,556
e00006b6:	00072023          	sw	zero,0(a4)
  (*(volatile unsigned int *)(long)(0x1C000230)) = 0x00000000 ;
e00006ba:	23078713          	addi	a4,a5,560
e00006be:	00072023          	sw	zero,0(a4)
  (*(volatile unsigned int *)(long)(0x1C000234)) = 0x00000000 ;
e00006c2:	23478713          	addi	a4,a5,564
e00006c6:	00072023          	sw	zero,0(a4)
  (*(volatile unsigned int *)(long)(0x1C000238)) = 0x00000000 ;
e00006ca:	23878713          	addi	a4,a5,568
e00006ce:	00072023          	sw	zero,0(a4)
  (*(volatile unsigned int *)(long)(0x1C00023C)) = 0x00000000 ;
e00006d2:	23c78713          	addi	a4,a5,572
e00006d6:	00072023          	sw	zero,0(a4)
  (*(volatile unsigned int *)(long)(0x1C000240)) = 0x00000000 ;
e00006da:	24078713          	addi	a4,a5,576
e00006de:	00072023          	sw	zero,0(a4)
  (*(volatile unsigned int *)(long)(0x1C000244)) = 0x00000000 ;
e00006e2:	24478713          	addi	a4,a5,580
e00006e6:	00072023          	sw	zero,0(a4)
  (*(volatile unsigned int *)(long)(0x1C000248)) = 0x00000000 ;
e00006ea:	24878713          	addi	a4,a5,584
e00006ee:	00072023          	sw	zero,0(a4)
  (*(volatile unsigned int *)(long)(0x1C00024C)) = 0x00000000 ;
e00006f2:	24c78713          	addi	a4,a5,588
e00006f6:	00072023          	sw	zero,0(a4)
  (*(volatile unsigned int *)(long)(0x1C000250)) = 0x00000000 ;
e00006fa:	25078713          	addi	a4,a5,592
e00006fe:	00072023          	sw	zero,0(a4)
  (*(volatile unsigned int *)(long)(0x1C000254)) = 0x00000000 ;
e0000702:	25478713          	addi	a4,a5,596
e0000706:	00072023          	sw	zero,0(a4)
  (*(volatile unsigned int *)(long)(0x1C000258)) = 0x00000000 ;
e000070a:	25878713          	addi	a4,a5,600
e000070e:	00072023          	sw	zero,0(a4)
  (*(volatile unsigned int *)(long)(0x1C00025C)) = 0x00000000 ;
e0000712:	25c78713          	addi	a4,a5,604
e0000716:	00072023          	sw	zero,0(a4)
  (*(volatile unsigned int *)(long)(0x1C000260)) = 0x00000000 ;
e000071a:	26078713          	addi	a4,a5,608
e000071e:	00072023          	sw	zero,0(a4)
  (*(volatile unsigned int *)(long)(0x1C000264)) = 0x00000000 ;
e0000722:	26478713          	addi	a4,a5,612
e0000726:	00072023          	sw	zero,0(a4)
  (*(volatile unsigned int *)(long)(0x1C000268)) = 0x00000000 ;
e000072a:	26878713          	addi	a4,a5,616
e000072e:	00072023          	sw	zero,0(a4)
  (*(volatile unsigned int *)(long)(0x1C00026C)) = 0x00000000 ;
e0000732:	26c78713          	addi	a4,a5,620
e0000736:	00072023          	sw	zero,0(a4)
  (*(volatile unsigned int *)(long)(0x1C000270)) = 0x00000000 ;
e000073a:	27078713          	addi	a4,a5,624
e000073e:	00072023          	sw	zero,0(a4)
  (*(volatile unsigned int *)(long)(0x1C000274)) = 0x00000000 ;
e0000742:	27478713          	addi	a4,a5,628
e0000746:	00072023          	sw	zero,0(a4)
  (*(volatile unsigned int *)(long)(0x1C000278)) = 0x00000000 ;
e000074a:	27878713          	addi	a4,a5,632
e000074e:	00072023          	sw	zero,0(a4)
  (*(volatile unsigned int *)(long)(0x1C00027C)) = 0x00000000 ;
e0000752:	27c78713          	addi	a4,a5,636
e0000756:	00072023          	sw	zero,0(a4)
  (*(volatile unsigned int *)(long)(0x1C000280)) = 0x00000000 ;
e000075a:	28078713          	addi	a4,a5,640
e000075e:	00072023          	sw	zero,0(a4)
  (*(volatile unsigned int *)(long)(0x1C000284)) = 0x00000000 ;
e0000762:	28478713          	addi	a4,a5,644
e0000766:	00072023          	sw	zero,0(a4)
  (*(volatile unsigned int *)(long)(0x1C000288)) = 0x00000000 ;
e000076a:	28878713          	addi	a4,a5,648
e000076e:	00072023          	sw	zero,0(a4)
  (*(volatile unsigned int *)(long)(0x1C00028C)) = 0x00000000 ;
e0000772:	28c78713          	addi	a4,a5,652
e0000776:	00072023          	sw	zero,0(a4)
  (*(volatile unsigned int *)(long)(0x1C000290)) = 0x00000000 ;
e000077a:	29078713          	addi	a4,a5,656
e000077e:	00072023          	sw	zero,0(a4)
  (*(volatile unsigned int *)(long)(0x1C000294)) = 0x00000000 ;
e0000782:	29478713          	addi	a4,a5,660
e0000786:	00072023          	sw	zero,0(a4)
  (*(volatile unsigned int *)(long)(0x1C000298)) = 0x00000000 ;
e000078a:	29878713          	addi	a4,a5,664
e000078e:	00072023          	sw	zero,0(a4)
  (*(volatile unsigned int *)(long)(0x1C00029C)) = 0x00000000 ;
e0000792:	29c78713          	addi	a4,a5,668
e0000796:	00072023          	sw	zero,0(a4)
  (*(volatile unsigned int *)(long)(0x1C0002A0)) = 0x00000000 ;
e000079a:	2a078713          	addi	a4,a5,672
e000079e:	00072023          	sw	zero,0(a4)
  (*(volatile unsigned int *)(long)(0x1C0002A4)) = 0x00000000 ;
e00007a2:	2a478713          	addi	a4,a5,676
e00007a6:	00072023          	sw	zero,0(a4)
  (*(volatile unsigned int *)(long)(0x1C0002A8)) = 0x00000000 ;
e00007aa:	2a878713          	addi	a4,a5,680
e00007ae:	00072023          	sw	zero,0(a4)
  (*(volatile unsigned int *)(long)(0x1C0002AC)) = 0x00000000 ;
e00007b2:	2ac78713          	addi	a4,a5,684
e00007b6:	00072023          	sw	zero,0(a4)
  (*(volatile unsigned int *)(long)(0x1C0002B0)) = 0x00000000 ;
e00007ba:	2b078713          	addi	a4,a5,688
e00007be:	00072023          	sw	zero,0(a4)
  (*(volatile unsigned int *)(long)(0x1C0002B4)) = 0x00000000 ;
e00007c2:	2b478713          	addi	a4,a5,692
e00007c6:	00072023          	sw	zero,0(a4)
  (*(volatile unsigned int *)(long)(0x1C0002B8)) = 0x00000000 ;
e00007ca:	2b878713          	addi	a4,a5,696
e00007ce:	00072023          	sw	zero,0(a4)
  (*(volatile unsigned int *)(long)(0x1C0002BC)) = 0x00000000 ;
e00007d2:	2bc78713          	addi	a4,a5,700
e00007d6:	00072023          	sw	zero,0(a4)
  (*(volatile unsigned int *)(long)(0x1C0002C0)) = 0x00000000 ;
e00007da:	2c078713          	addi	a4,a5,704
e00007de:	00072023          	sw	zero,0(a4)
  (*(volatile unsigned int *)(long)(0x1C0002C4)) = 0x00000000 ;
e00007e2:	2c478713          	addi	a4,a5,708
e00007e6:	00072023          	sw	zero,0(a4)
  (*(volatile unsigned int *)(long)(0x1C0002C8)) = 0x00000000 ;
e00007ea:	2c878713          	addi	a4,a5,712
e00007ee:	00072023          	sw	zero,0(a4)
  (*(volatile unsigned int *)(long)(0x1C0002CC)) = 0x00000000 ;
e00007f2:	2cc78713          	addi	a4,a5,716
e00007f6:	00072023          	sw	zero,0(a4)
  (*(volatile unsigned int *)(long)(0x1C0002D0)) = 0x00000000 ;
e00007fa:	2d078713          	addi	a4,a5,720
e00007fe:	00072023          	sw	zero,0(a4)
  (*(volatile unsigned int *)(long)(0x1C0002D4)) = 0x00000000 ;
e0000802:	2d478713          	addi	a4,a5,724
e0000806:	00072023          	sw	zero,0(a4)
  (*(volatile unsigned int *)(long)(0x1C0002D8)) = 0x00000000 ;
e000080a:	2d878713          	addi	a4,a5,728
e000080e:	00072023          	sw	zero,0(a4)
  (*(volatile unsigned int *)(long)(0x1C0002DC)) = 0x00000000 ;
e0000812:	2dc78713          	addi	a4,a5,732
e0000816:	00072023          	sw	zero,0(a4)
  (*(volatile unsigned int *)(long)(0x1C0002E0)) = 0x00000000 ;
e000081a:	2e078713          	addi	a4,a5,736
e000081e:	00072023          	sw	zero,0(a4)
  (*(volatile unsigned int *)(long)(0x1C0002E4)) = 0x00000000 ;
e0000822:	2e478713          	addi	a4,a5,740
e0000826:	00072023          	sw	zero,0(a4)
  (*(volatile unsigned int *)(long)(0x1C0002E8)) = 0x00000000 ;
e000082a:	2e878713          	addi	a4,a5,744
e000082e:	00072023          	sw	zero,0(a4)
  (*(volatile unsigned int *)(long)(0x1C0002EC)) = 0x00000000 ;
e0000832:	2ec78713          	addi	a4,a5,748
e0000836:	00072023          	sw	zero,0(a4)
  (*(volatile unsigned int *)(long)(0x1C0002F0)) = 0x00000000 ;
e000083a:	2f078713          	addi	a4,a5,752
e000083e:	00072023          	sw	zero,0(a4)
  (*(volatile unsigned int *)(long)(0x1C0002F4)) = 0x00000000 ;
e0000842:	2f478713          	addi	a4,a5,756
e0000846:	00072023          	sw	zero,0(a4)
  (*(volatile unsigned int *)(long)(0x1C0002F8)) = 0x00000000 ;
e000084a:	2f878713          	addi	a4,a5,760
e000084e:	00072023          	sw	zero,0(a4)
  (*(volatile unsigned int *)(long)(0x1C0002FC)) = 0x00000000 ;
e0000852:	2fc78713          	addi	a4,a5,764
e0000856:	00072023          	sw	zero,0(a4)
  (*(volatile unsigned int *)(long)(0x1C000300)) = 0x00000000 ;
e000085a:	30078713          	addi	a4,a5,768
e000085e:	00072023          	sw	zero,0(a4)
  (*(volatile unsigned int *)(long)(0x1C000304)) = 0x00000000 ;
e0000862:	30478713          	addi	a4,a5,772
e0000866:	00072023          	sw	zero,0(a4)
  (*(volatile unsigned int *)(long)(0x1C000308)) = 0x00000000 ;
e000086a:	30878713          	addi	a4,a5,776
e000086e:	00072023          	sw	zero,0(a4)
  (*(volatile unsigned int *)(long)(0x1C00030C)) = 0x00000000 ;
e0000872:	30c78713          	addi	a4,a5,780
e0000876:	00072023          	sw	zero,0(a4)
  (*(volatile unsigned int *)(long)(0x1C000310)) = 0x00000000 ;
e000087a:	31078713          	addi	a4,a5,784
e000087e:	00072023          	sw	zero,0(a4)
  (*(volatile unsigned int *)(long)(0x1C000314)) = 0x00000000 ;
e0000882:	31478713          	addi	a4,a5,788
e0000886:	00072023          	sw	zero,0(a4)
  (*(volatile unsigned int *)(long)(0x1C000318)) = 0x00000000 ;
e000088a:	31878713          	addi	a4,a5,792
e000088e:	00072023          	sw	zero,0(a4)
  (*(volatile unsigned int *)(long)(0x1C00031C)) = 0x00000000 ;
e0000892:	31c78713          	addi	a4,a5,796
e0000896:	00072023          	sw	zero,0(a4)
  (*(volatile unsigned int *)(long)(0x1C000320)) = 0x00000000 ;
e000089a:	32078713          	addi	a4,a5,800
e000089e:	00072023          	sw	zero,0(a4)
  (*(volatile unsigned int *)(long)(0x1C000324)) = 0x00000000 ;
e00008a2:	32478713          	addi	a4,a5,804
e00008a6:	00072023          	sw	zero,0(a4)
  (*(volatile unsigned int *)(long)(0x1C000328)) = 0x00000000 ;
e00008aa:	32878713          	addi	a4,a5,808
e00008ae:	00072023          	sw	zero,0(a4)
  (*(volatile unsigned int *)(long)(0x1C00032C)) = 0x00000000 ;
e00008b2:	32c78713          	addi	a4,a5,812
e00008b6:	00072023          	sw	zero,0(a4)
  (*(volatile unsigned int *)(long)(0x1C000330)) = 0x00000000 ;
e00008ba:	33078713          	addi	a4,a5,816
e00008be:	00072023          	sw	zero,0(a4)
  (*(volatile unsigned int *)(long)(0x1C000334)) = 0x00000000 ;
e00008c2:	33478713          	addi	a4,a5,820
e00008c6:	00072023          	sw	zero,0(a4)
  (*(volatile unsigned int *)(long)(0x1C000338)) = 0x00000000 ;
e00008ca:	33878713          	addi	a4,a5,824
e00008ce:	00072023          	sw	zero,0(a4)
  (*(volatile unsigned int *)(long)(0x1C00033C)) = 0x00000000 ;
e00008d2:	33c78713          	addi	a4,a5,828
e00008d6:	00072023          	sw	zero,0(a4)
  (*(volatile unsigned int *)(long)(0x1C000340)) = 0x00000000 ;
e00008da:	34078713          	addi	a4,a5,832
e00008de:	00072023          	sw	zero,0(a4)
  (*(volatile unsigned int *)(long)(0x1C000344)) = 0x00000000 ;
e00008e2:	34478713          	addi	a4,a5,836
e00008e6:	00072023          	sw	zero,0(a4)
  (*(volatile unsigned int *)(long)(0x1C000348)) = 0x00000000 ;
e00008ea:	34878713          	addi	a4,a5,840
e00008ee:	00072023          	sw	zero,0(a4)
  (*(volatile unsigned int *)(long)(0x1C00034C)) = 0x00000000 ;
e00008f2:	34c78713          	addi	a4,a5,844
e00008f6:	00072023          	sw	zero,0(a4)
  (*(volatile unsigned int *)(long)(0x1C000350)) = 0x00000000 ;
e00008fa:	35078713          	addi	a4,a5,848
e00008fe:	00072023          	sw	zero,0(a4)
  (*(volatile unsigned int *)(long)(0x1C000354)) = 0x00000000 ;
e0000902:	35478713          	addi	a4,a5,852
e0000906:	00072023          	sw	zero,0(a4)
  (*(volatile unsigned int *)(long)(0x1C000358)) = 0x00000000 ;
e000090a:	35878713          	addi	a4,a5,856
e000090e:	00072023          	sw	zero,0(a4)
  (*(volatile unsigned int *)(long)(0x1C00035C)) = 0x00000000 ;
e0000912:	35c78713          	addi	a4,a5,860
e0000916:	00072023          	sw	zero,0(a4)
  (*(volatile unsigned int *)(long)(0x1C000360)) = 0x00000000 ;
e000091a:	36078713          	addi	a4,a5,864
e000091e:	00072023          	sw	zero,0(a4)
  (*(volatile unsigned int *)(long)(0x1C000364)) = 0x00000000 ;
e0000922:	36478713          	addi	a4,a5,868
e0000926:	00072023          	sw	zero,0(a4)
  (*(volatile unsigned int *)(long)(0x1C000368)) = 0x00000000 ;
e000092a:	36878713          	addi	a4,a5,872
e000092e:	00072023          	sw	zero,0(a4)
  (*(volatile unsigned int *)(long)(0x1C00036C)) = 0x00000000 ;
e0000932:	36c78713          	addi	a4,a5,876
e0000936:	00072023          	sw	zero,0(a4)
  (*(volatile unsigned int *)(long)(0x1C000370)) = 0x00000000 ;
e000093a:	37078713          	addi	a4,a5,880
e000093e:	00072023          	sw	zero,0(a4)
  (*(volatile unsigned int *)(long)(0x1C000374)) = 0x00000000 ;
e0000942:	37478713          	addi	a4,a5,884
e0000946:	00072023          	sw	zero,0(a4)
  (*(volatile unsigned int *)(long)(0x1C000378)) = 0x00000000 ;
e000094a:	37878713          	addi	a4,a5,888
e000094e:	00072023          	sw	zero,0(a4)
  (*(volatile unsigned int *)(long)(0x1C00037C)) = 0x00000000 ;
e0000952:	37c78713          	addi	a4,a5,892
e0000956:	00072023          	sw	zero,0(a4)
  (*(volatile unsigned int *)(long)(0x1C000380)) = 0x00000000 ;
e000095a:	38078713          	addi	a4,a5,896
e000095e:	00072023          	sw	zero,0(a4)
  (*(volatile unsigned int *)(long)(0x1C000384)) = 0x00000000 ;
e0000962:	38478713          	addi	a4,a5,900
e0000966:	00072023          	sw	zero,0(a4)
  (*(volatile unsigned int *)(long)(0x1C000388)) = 0x00000000 ;
e000096a:	38878713          	addi	a4,a5,904
e000096e:	00072023          	sw	zero,0(a4)
  (*(volatile unsigned int *)(long)(0x1C00038C)) = 0x00000000 ;
e0000972:	38c78713          	addi	a4,a5,908
e0000976:	00072023          	sw	zero,0(a4)
  (*(volatile unsigned int *)(long)(0x1C000390)) = 0x00000000 ;
e000097a:	39078713          	addi	a4,a5,912
e000097e:	00072023          	sw	zero,0(a4)
  (*(volatile unsigned int *)(long)(0x1C000394)) = 0x00000000 ;
e0000982:	39478713          	addi	a4,a5,916
e0000986:	00072023          	sw	zero,0(a4)
  (*(volatile unsigned int *)(long)(0x1C000398)) = 0x00000000 ;
e000098a:	39878713          	addi	a4,a5,920
e000098e:	00072023          	sw	zero,0(a4)
  (*(volatile unsigned int *)(long)(0x1C00039C)) = 0x00000000 ;
e0000992:	39c78713          	addi	a4,a5,924
e0000996:	00072023          	sw	zero,0(a4)
  (*(volatile unsigned int *)(long)(0x1C0003A0)) = 0x00000000 ;
e000099a:	3a078713          	addi	a4,a5,928
e000099e:	00072023          	sw	zero,0(a4)
  (*(volatile unsigned int *)(long)(0x1C0003A4)) = 0x00000000 ;
e00009a2:	3a478713          	addi	a4,a5,932
e00009a6:	00072023          	sw	zero,0(a4)
  (*(volatile unsigned int *)(long)(0x1C0003A8)) = 0x00000000 ;
e00009aa:	3a878713          	addi	a4,a5,936
e00009ae:	00072023          	sw	zero,0(a4)
  (*(volatile unsigned int *)(long)(0x1C0003AC)) = 0x00000000 ;
e00009b2:	3ac78713          	addi	a4,a5,940
e00009b6:	00072023          	sw	zero,0(a4)
  (*(volatile unsigned int *)(long)(0x1C0003B0)) = 0x00000000 ;
e00009ba:	3b078713          	addi	a4,a5,944
e00009be:	00072023          	sw	zero,0(a4)
  (*(volatile unsigned int *)(long)(0x1C0003B4)) = 0x00000000 ;
e00009c2:	3b478713          	addi	a4,a5,948
e00009c6:	00072023          	sw	zero,0(a4)
  (*(volatile unsigned int *)(long)(0x1C0003B8)) = 0x00000000 ;
e00009ca:	3b878713          	addi	a4,a5,952
e00009ce:	00072023          	sw	zero,0(a4)
  (*(volatile unsigned int *)(long)(0x1C0003BC)) = 0x00000000 ;
e00009d2:	3bc78713          	addi	a4,a5,956
e00009d6:	00072023          	sw	zero,0(a4)
  (*(volatile unsigned int *)(long)(0x1C0003C0)) = 0x00000000 ;
e00009da:	3c078713          	addi	a4,a5,960
e00009de:	00072023          	sw	zero,0(a4)
  (*(volatile unsigned int *)(long)(0x1C0003C4)) = 0x00000000 ;
e00009e2:	3c478713          	addi	a4,a5,964
e00009e6:	00072023          	sw	zero,0(a4)
  (*(volatile unsigned int *)(long)(0x1C0003C8)) = 0x00000000 ;
e00009ea:	3c878713          	addi	a4,a5,968
e00009ee:	00072023          	sw	zero,0(a4)
  (*(volatile unsigned int *)(long)(0x1C0003CC)) = 0x00000000 ;
e00009f2:	3cc78713          	addi	a4,a5,972
e00009f6:	00072023          	sw	zero,0(a4)
  (*(volatile unsigned int *)(long)(0x1C0003D0)) = 0x00000000 ;
e00009fa:	3d078713          	addi	a4,a5,976
e00009fe:	00072023          	sw	zero,0(a4)
  (*(volatile unsigned int *)(long)(0x1C0003D4)) = 0x00000000 ;
e0000a02:	3d478713          	addi	a4,a5,980
e0000a06:	00072023          	sw	zero,0(a4)
  (*(volatile unsigned int *)(long)(0x1C0003D8)) = 0x00000000 ;
e0000a0a:	3d878713          	addi	a4,a5,984
e0000a0e:	00072023          	sw	zero,0(a4)
  (*(volatile unsigned int *)(long)(0x1C0003DC)) = 0x00000000 ;
e0000a12:	3dc78713          	addi	a4,a5,988
e0000a16:	00072023          	sw	zero,0(a4)
  (*(volatile unsigned int *)(long)(0x1C0003E0)) = 0x00000000 ;
e0000a1a:	3e078713          	addi	a4,a5,992
e0000a1e:	00072023          	sw	zero,0(a4)
  (*(volatile unsigned int *)(long)(0x1C0003E4)) = 0x00000000 ;
e0000a22:	3e478713          	addi	a4,a5,996
e0000a26:	00072023          	sw	zero,0(a4)
  (*(volatile unsigned int *)(long)(0x1C0003E8)) = 0x00000000 ;
e0000a2a:	3e878713          	addi	a4,a5,1000
e0000a2e:	00072023          	sw	zero,0(a4)
  (*(volatile unsigned int *)(long)(0x1C0003EC)) = 0x00000000 ;
e0000a32:	3ec78713          	addi	a4,a5,1004
e0000a36:	00072023          	sw	zero,0(a4)
  (*(volatile unsigned int *)(long)(0x1C0003F0)) = 0x00000000 ;
e0000a3a:	3f078713          	addi	a4,a5,1008
e0000a3e:	00072023          	sw	zero,0(a4)
  (*(volatile unsigned int *)(long)(0x1C0003F4)) = 0x00000000 ;
e0000a42:	3f478713          	addi	a4,a5,1012
e0000a46:	00072023          	sw	zero,0(a4)
  (*(volatile unsigned int *)(long)(0x1C0003F8)) = 0x00000000 ;
e0000a4a:	3f878713          	addi	a4,a5,1016
e0000a4e:	00072023          	sw	zero,0(a4)
  (*(volatile unsigned int *)(long)(0x1C0003FC)) = 0x00000000 ;
e0000a52:	3fc78713          	addi	a4,a5,1020
e0000a56:	00072023          	sw	zero,0(a4)
  (*(volatile unsigned int *)(long)(0x1C000400)) = 0x00000000 ;
e0000a5a:	40078713          	addi	a4,a5,1024
e0000a5e:	00072023          	sw	zero,0(a4)
  (*(volatile unsigned int *)(long)(0x1C000404)) = 0x00000000 ;
e0000a62:	40478713          	addi	a4,a5,1028
e0000a66:	00072023          	sw	zero,0(a4)
  (*(volatile unsigned int *)(long)(0x1C000408)) = 0x00000000 ;
e0000a6a:	40878713          	addi	a4,a5,1032
e0000a6e:	00072023          	sw	zero,0(a4)
  (*(volatile unsigned int *)(long)(0x1C00040C)) = 0x00000000 ;
e0000a72:	40c78713          	addi	a4,a5,1036
e0000a76:	00072023          	sw	zero,0(a4)
  (*(volatile unsigned int *)(long)(0x1C000410)) = 0x00000000 ;
e0000a7a:	41078713          	addi	a4,a5,1040
e0000a7e:	00072023          	sw	zero,0(a4)
  (*(volatile unsigned int *)(long)(0x1C000414)) = 0x00000000 ;
e0000a82:	41478713          	addi	a4,a5,1044
e0000a86:	00072023          	sw	zero,0(a4)
  (*(volatile unsigned int *)(long)(0x1C000418)) = 0x00000000 ;
e0000a8a:	41878713          	addi	a4,a5,1048
e0000a8e:	00072023          	sw	zero,0(a4)
  (*(volatile unsigned int *)(long)(0x1C00041C)) = 0x00000000 ;
e0000a92:	41c78713          	addi	a4,a5,1052
e0000a96:	00072023          	sw	zero,0(a4)
  (*(volatile unsigned int *)(long)(0x1C000420)) = 0x00000000 ;
e0000a9a:	42078713          	addi	a4,a5,1056
e0000a9e:	00072023          	sw	zero,0(a4)
  (*(volatile unsigned int *)(long)(0x1C000424)) = 0x00000000 ;
e0000aa2:	42478713          	addi	a4,a5,1060
e0000aa6:	00072023          	sw	zero,0(a4)
  (*(volatile unsigned int *)(long)(0x1C000428)) = 0x00000000 ;
e0000aaa:	42878713          	addi	a4,a5,1064
e0000aae:	00072023          	sw	zero,0(a4)
  (*(volatile unsigned int *)(long)(0x1C00042C)) = 0x00000000 ;
e0000ab2:	42c78713          	addi	a4,a5,1068
e0000ab6:	00072023          	sw	zero,0(a4)
  (*(volatile unsigned int *)(long)(0x1C000430)) = 0x00000000 ;
e0000aba:	43078713          	addi	a4,a5,1072
e0000abe:	00072023          	sw	zero,0(a4)
  (*(volatile unsigned int *)(long)(0x1C000434)) = 0x00000000 ;
e0000ac2:	43478713          	addi	a4,a5,1076
e0000ac6:	00072023          	sw	zero,0(a4)
  (*(volatile unsigned int *)(long)(0x1C000438)) = 0x00000000 ;
e0000aca:	43878713          	addi	a4,a5,1080
e0000ace:	00072023          	sw	zero,0(a4)
  (*(volatile unsigned int *)(long)(0x1C00043C)) = 0x00000000 ;
e0000ad2:	43c78713          	addi	a4,a5,1084
e0000ad6:	00072023          	sw	zero,0(a4)
  (*(volatile unsigned int *)(long)(0x1C000440)) = 0x00000000 ;
e0000ada:	44078713          	addi	a4,a5,1088
e0000ade:	00072023          	sw	zero,0(a4)
  (*(volatile unsigned int *)(long)(0x1C000444)) = 0x00000000 ;
e0000ae2:	44478713          	addi	a4,a5,1092
e0000ae6:	00072023          	sw	zero,0(a4)
  (*(volatile unsigned int *)(long)(0x1C000448)) = 0x00000000 ;
e0000aea:	44878713          	addi	a4,a5,1096
e0000aee:	00072023          	sw	zero,0(a4)
  (*(volatile unsigned int *)(long)(0x1C00044C)) = 0x00000000 ;
e0000af2:	44c78713          	addi	a4,a5,1100
e0000af6:	00072023          	sw	zero,0(a4)
  (*(volatile unsigned int *)(long)(0x1C000450)) = 0x00000000 ;
e0000afa:	45078713          	addi	a4,a5,1104
e0000afe:	00072023          	sw	zero,0(a4)
  (*(volatile unsigned int *)(long)(0x1C000454)) = 0x00000000 ;
e0000b02:	45478713          	addi	a4,a5,1108
e0000b06:	00072023          	sw	zero,0(a4)
  (*(volatile unsigned int *)(long)(0x1C000458)) = 0x00000000 ;
e0000b0a:	45878713          	addi	a4,a5,1112
e0000b0e:	00072023          	sw	zero,0(a4)
  (*(volatile unsigned int *)(long)(0x1C00045C)) = 0x00000000 ;
e0000b12:	45c78713          	addi	a4,a5,1116
e0000b16:	00072023          	sw	zero,0(a4)
  (*(volatile unsigned int *)(long)(0x1C000460)) = 0x00000000 ;
e0000b1a:	46078713          	addi	a4,a5,1120
e0000b1e:	00072023          	sw	zero,0(a4)
  (*(volatile unsigned int *)(long)(0x1C000464)) = 0x00000000 ;
e0000b22:	46478713          	addi	a4,a5,1124
e0000b26:	00072023          	sw	zero,0(a4)
  (*(volatile unsigned int *)(long)(0x1C000468)) = 0x00000000 ;
e0000b2a:	46878713          	addi	a4,a5,1128
e0000b2e:	00072023          	sw	zero,0(a4)
  (*(volatile unsigned int *)(long)(0x1C00046C)) = 0x00000000 ;
e0000b32:	46c78713          	addi	a4,a5,1132
e0000b36:	00072023          	sw	zero,0(a4)
  (*(volatile unsigned int *)(long)(0x1C000470)) = 0x00000000 ;
e0000b3a:	47078713          	addi	a4,a5,1136
e0000b3e:	00072023          	sw	zero,0(a4)
  (*(volatile unsigned int *)(long)(0x1C000474)) = 0x00000000 ;
e0000b42:	47478713          	addi	a4,a5,1140
e0000b46:	00072023          	sw	zero,0(a4)
  (*(volatile unsigned int *)(long)(0x1C000478)) = 0x00000000 ;
e0000b4a:	47878713          	addi	a4,a5,1144
e0000b4e:	00072023          	sw	zero,0(a4)
  (*(volatile unsigned int *)(long)(0x1C00047C)) = 0x00000000 ;
e0000b52:	47c78713          	addi	a4,a5,1148
e0000b56:	00072023          	sw	zero,0(a4)
  (*(volatile unsigned int *)(long)(0x1C000480)) = 0x00000000 ;
e0000b5a:	48078713          	addi	a4,a5,1152
e0000b5e:	00072023          	sw	zero,0(a4)
  (*(volatile unsigned int *)(long)(0x1C000484)) = 0x00000000 ;
e0000b62:	48478713          	addi	a4,a5,1156
e0000b66:	00072023          	sw	zero,0(a4)
  (*(volatile unsigned int *)(long)(0x1C000488)) = 0x00000000 ;
e0000b6a:	48878713          	addi	a4,a5,1160
e0000b6e:	00072023          	sw	zero,0(a4)
  (*(volatile unsigned int *)(long)(0x1C00048C)) = 0x00000000 ;
e0000b72:	48c78713          	addi	a4,a5,1164
e0000b76:	00072023          	sw	zero,0(a4)
  (*(volatile unsigned int *)(long)(0x1C000490)) = 0x00000000 ;
e0000b7a:	49078713          	addi	a4,a5,1168
e0000b7e:	00072023          	sw	zero,0(a4)
  (*(volatile unsigned int *)(long)(0x1C000494)) = 0x00000000 ;
e0000b82:	49478713          	addi	a4,a5,1172
e0000b86:	00072023          	sw	zero,0(a4)
  (*(volatile unsigned int *)(long)(0x1C000498)) = 0x00000000 ;
e0000b8a:	49878713          	addi	a4,a5,1176
e0000b8e:	00072023          	sw	zero,0(a4)
  (*(volatile unsigned int *)(long)(0x1C00049C)) = 0x00000000 ;
e0000b92:	49c78713          	addi	a4,a5,1180
e0000b96:	00072023          	sw	zero,0(a4)
  (*(volatile unsigned int *)(long)(0x1C0004A0)) = 0x00000000 ;
e0000b9a:	4a078713          	addi	a4,a5,1184
e0000b9e:	00072023          	sw	zero,0(a4)
  (*(volatile unsigned int *)(long)(0x1C0004A4)) = 0x00000000 ;
e0000ba2:	4a478713          	addi	a4,a5,1188
e0000ba6:	00072023          	sw	zero,0(a4)
  (*(volatile unsigned int *)(long)(0x1C0004A8)) = 0x00000000 ;
e0000baa:	4a878713          	addi	a4,a5,1192
e0000bae:	00072023          	sw	zero,0(a4)
  (*(volatile unsigned int *)(long)(0x1C0004AC)) = 0x00000000 ;
e0000bb2:	4ac78713          	addi	a4,a5,1196
e0000bb6:	00072023          	sw	zero,0(a4)
  (*(volatile unsigned int *)(long)(0x1C0004B0)) = 0x00000000 ;
e0000bba:	4b078713          	addi	a4,a5,1200
e0000bbe:	00072023          	sw	zero,0(a4)
  (*(volatile unsigned int *)(long)(0x1C0004B4)) = 0x00000000 ;
e0000bc2:	4b478713          	addi	a4,a5,1204
e0000bc6:	00072023          	sw	zero,0(a4)
  (*(volatile unsigned int *)(long)(0x1C0004B8)) = 0x00000000 ;
e0000bca:	4b878713          	addi	a4,a5,1208
e0000bce:	00072023          	sw	zero,0(a4)
  (*(volatile unsigned int *)(long)(0x1C0004BC)) = 0x00000000 ;
e0000bd2:	4bc78713          	addi	a4,a5,1212
e0000bd6:	00072023          	sw	zero,0(a4)
  (*(volatile unsigned int *)(long)(0x1C0004C0)) = 0x00000000 ;
e0000bda:	4c078713          	addi	a4,a5,1216
e0000bde:	00072023          	sw	zero,0(a4)
  (*(volatile unsigned int *)(long)(0x1C0004C4)) = 0x00000000 ;
e0000be2:	4c478713          	addi	a4,a5,1220
e0000be6:	00072023          	sw	zero,0(a4)
  (*(volatile unsigned int *)(long)(0x1C0004C8)) = 0x00000000 ;
e0000bea:	4c878713          	addi	a4,a5,1224
e0000bee:	00072023          	sw	zero,0(a4)
  (*(volatile unsigned int *)(long)(0x1C0004CC)) = 0x00000000 ;
e0000bf2:	4cc78713          	addi	a4,a5,1228
e0000bf6:	00072023          	sw	zero,0(a4)
  (*(volatile unsigned int *)(long)(0x1C0004D0)) = 0x00000000 ;
e0000bfa:	4d078713          	addi	a4,a5,1232
e0000bfe:	00072023          	sw	zero,0(a4)
  (*(volatile unsigned int *)(long)(0x1C0004D4)) = 0x00000000 ;
e0000c02:	4d478713          	addi	a4,a5,1236
e0000c06:	00072023          	sw	zero,0(a4)
  (*(volatile unsigned int *)(long)(0x1C0004D8)) = 0x00000000 ;
e0000c0a:	4d878713          	addi	a4,a5,1240
e0000c0e:	00072023          	sw	zero,0(a4)
  (*(volatile unsigned int *)(long)(0x1C0004DC)) = 0x00000000 ;
e0000c12:	4dc78713          	addi	a4,a5,1244
e0000c16:	00072023          	sw	zero,0(a4)
  (*(volatile unsigned int *)(long)(0x1C0004E0)) = 0x00000000 ;
e0000c1a:	4e078713          	addi	a4,a5,1248
e0000c1e:	00072023          	sw	zero,0(a4)
  (*(volatile unsigned int *)(long)(0x1C0004E4)) = 0x00000000 ;
e0000c22:	4e478713          	addi	a4,a5,1252
e0000c26:	00072023          	sw	zero,0(a4)
  (*(volatile unsigned int *)(long)(0x1C0004E8)) = 0x00000000 ;
e0000c2a:	4e878713          	addi	a4,a5,1256
e0000c2e:	00072023          	sw	zero,0(a4)
  (*(volatile unsigned int *)(long)(0x1C0004EC)) = 0x00000000 ;
e0000c32:	4ec78713          	addi	a4,a5,1260
e0000c36:	00072023          	sw	zero,0(a4)
  (*(volatile unsigned int *)(long)(0x1C0004F0)) = 0x00000000 ;
e0000c3a:	4f078713          	addi	a4,a5,1264
e0000c3e:	00072023          	sw	zero,0(a4)
  (*(volatile unsigned int *)(long)(0x1C0004F4)) = 0x00000000 ;
e0000c42:	4f478713          	addi	a4,a5,1268
e0000c46:	00072023          	sw	zero,0(a4)
  (*(volatile unsigned int *)(long)(0x1C0004F8)) = 0x00000000 ;
e0000c4a:	4f878713          	addi	a4,a5,1272
e0000c4e:	00072023          	sw	zero,0(a4)
  (*(volatile unsigned int *)(long)(0x1C0004FC)) = 0x00000000 ;
e0000c52:	4fc78713          	addi	a4,a5,1276
e0000c56:	00072023          	sw	zero,0(a4)
  (*(volatile unsigned int *)(long)(0x1C000500)) = 0x00000000 ;
e0000c5a:	50078713          	addi	a4,a5,1280
e0000c5e:	00072023          	sw	zero,0(a4)
  (*(volatile unsigned int *)(long)(0x1C000504)) = 0x00000000 ;
e0000c62:	50478713          	addi	a4,a5,1284
e0000c66:	00072023          	sw	zero,0(a4)
  (*(volatile unsigned int *)(long)(0x1C000508)) = 0x00000000 ;
e0000c6a:	50878713          	addi	a4,a5,1288
e0000c6e:	00072023          	sw	zero,0(a4)
  (*(volatile unsigned int *)(long)(0x1C00050C)) = 0x00000000 ;
e0000c72:	50c78713          	addi	a4,a5,1292
e0000c76:	00072023          	sw	zero,0(a4)
  (*(volatile unsigned int *)(long)(0x1C000510)) = 0x00000000 ;
e0000c7a:	51078713          	addi	a4,a5,1296
e0000c7e:	00072023          	sw	zero,0(a4)
  (*(volatile unsigned int *)(long)(0x1C000514)) = 0x00000000 ;
e0000c82:	51478713          	addi	a4,a5,1300
e0000c86:	00072023          	sw	zero,0(a4)
  (*(volatile unsigned int *)(long)(0x1C000518)) = 0x00000000 ;
e0000c8a:	51878713          	addi	a4,a5,1304
e0000c8e:	00072023          	sw	zero,0(a4)
  (*(volatile unsigned int *)(long)(0x1C00051C)) = 0x00000000 ;
e0000c92:	51c78713          	addi	a4,a5,1308
e0000c96:	00072023          	sw	zero,0(a4)
  (*(volatile unsigned int *)(long)(0x1C000520)) = 0x00000000 ;
e0000c9a:	52078713          	addi	a4,a5,1312
e0000c9e:	00072023          	sw	zero,0(a4)
  (*(volatile unsigned int *)(long)(0x1C000524)) = 0x00000000 ;
e0000ca2:	52478713          	addi	a4,a5,1316
e0000ca6:	00072023          	sw	zero,0(a4)
  (*(volatile unsigned int *)(long)(0x1C000528)) = 0x00000000 ;
e0000caa:	52878713          	addi	a4,a5,1320
e0000cae:	00072023          	sw	zero,0(a4)
  (*(volatile unsigned int *)(long)(0x1C00052C)) = 0x00000000 ;
e0000cb2:	52c78713          	addi	a4,a5,1324
e0000cb6:	00072023          	sw	zero,0(a4)
  (*(volatile unsigned int *)(long)(0x1C000530)) = 0x00000000 ;
e0000cba:	53078713          	addi	a4,a5,1328
e0000cbe:	00072023          	sw	zero,0(a4)
  (*(volatile unsigned int *)(long)(0x1C000534)) = 0x00000000 ;
e0000cc2:	53478713          	addi	a4,a5,1332
e0000cc6:	00072023          	sw	zero,0(a4)
  (*(volatile unsigned int *)(long)(0x1C000538)) = 0x00000000 ;
e0000cca:	53878713          	addi	a4,a5,1336
e0000cce:	00072023          	sw	zero,0(a4)
  (*(volatile unsigned int *)(long)(0x1C00053C)) = 0x00000000 ;
e0000cd2:	53c78713          	addi	a4,a5,1340
e0000cd6:	00072023          	sw	zero,0(a4)
  (*(volatile unsigned int *)(long)(0x1C000540)) = 0x00000000 ;
e0000cda:	54078713          	addi	a4,a5,1344
e0000cde:	00072023          	sw	zero,0(a4)
  (*(volatile unsigned int *)(long)(0x1C000544)) = 0x00000000 ;
e0000ce2:	54478713          	addi	a4,a5,1348
e0000ce6:	00072023          	sw	zero,0(a4)
  (*(volatile unsigned int *)(long)(0x1C000548)) = 0x00000000 ;
e0000cea:	54878713          	addi	a4,a5,1352
e0000cee:	00072023          	sw	zero,0(a4)
  (*(volatile unsigned int *)(long)(0x1C00054C)) = 0x00000000 ;
e0000cf2:	54c78713          	addi	a4,a5,1356
e0000cf6:	00072023          	sw	zero,0(a4)
  (*(volatile unsigned int *)(long)(0x1C000550)) = 0x00000000 ;
e0000cfa:	55078713          	addi	a4,a5,1360
e0000cfe:	00072023          	sw	zero,0(a4)
  (*(volatile unsigned int *)(long)(0x1C000554)) = 0x00000000 ;
e0000d02:	55478713          	addi	a4,a5,1364
e0000d06:	00072023          	sw	zero,0(a4)
  (*(volatile unsigned int *)(long)(0x1C000558)) = 0x00000000 ;
e0000d0a:	55878713          	addi	a4,a5,1368
e0000d0e:	00072023          	sw	zero,0(a4)
  (*(volatile unsigned int *)(long)(0x1C00055C)) = 0x00000000 ;
e0000d12:	55c78713          	addi	a4,a5,1372
e0000d16:	00072023          	sw	zero,0(a4)
  (*(volatile unsigned int *)(long)(0x1C000560)) = 0x00000000 ;
e0000d1a:	56078713          	addi	a4,a5,1376
e0000d1e:	00072023          	sw	zero,0(a4)
  (*(volatile unsigned int *)(long)(0x1C000564)) = 0x00000000 ;
e0000d22:	56478713          	addi	a4,a5,1380
e0000d26:	00072023          	sw	zero,0(a4)
  (*(volatile unsigned int *)(long)(0x1C000568)) = 0x00000000 ;
e0000d2a:	56878713          	addi	a4,a5,1384
e0000d2e:	00072023          	sw	zero,0(a4)
  (*(volatile unsigned int *)(long)(0x1C00056C)) = 0x00000000 ;
e0000d32:	56c78713          	addi	a4,a5,1388
e0000d36:	00072023          	sw	zero,0(a4)
  (*(volatile unsigned int *)(long)(0x1C000570)) = 0x00000000 ;
e0000d3a:	57078713          	addi	a4,a5,1392
e0000d3e:	00072023          	sw	zero,0(a4)
  (*(volatile unsigned int *)(long)(0x1C000574)) = 0x00000000 ;
e0000d42:	57478713          	addi	a4,a5,1396
e0000d46:	00072023          	sw	zero,0(a4)
  (*(volatile unsigned int *)(long)(0x1C000578)) = 0x00000000 ;
e0000d4a:	57878713          	addi	a4,a5,1400
e0000d4e:	00072023          	sw	zero,0(a4)
  (*(volatile unsigned int *)(long)(0x1C00057C)) = 0x00000000 ;
e0000d52:	57c78713          	addi	a4,a5,1404
e0000d56:	00072023          	sw	zero,0(a4)
  (*(volatile unsigned int *)(long)(0x1C000580)) = 0x00000000 ;
e0000d5a:	58078713          	addi	a4,a5,1408
e0000d5e:	00072023          	sw	zero,0(a4)
  (*(volatile unsigned int *)(long)(0x1C000584)) = 0x00000000 ;
e0000d62:	58478713          	addi	a4,a5,1412
e0000d66:	00072023          	sw	zero,0(a4)
  (*(volatile unsigned int *)(long)(0x1C000588)) = 0x00000000 ;
e0000d6a:	58878713          	addi	a4,a5,1416
e0000d6e:	00072023          	sw	zero,0(a4)
  (*(volatile unsigned int *)(long)(0x1C00058C)) = 0x00000000 ;
e0000d72:	58c78713          	addi	a4,a5,1420
e0000d76:	00072023          	sw	zero,0(a4)
  (*(volatile unsigned int *)(long)(0x1C000590)) = 0x00000000 ;
e0000d7a:	59078713          	addi	a4,a5,1424
e0000d7e:	00072023          	sw	zero,0(a4)
  (*(volatile unsigned int *)(long)(0x1C000594)) = 0x00000000 ;
e0000d82:	59478713          	addi	a4,a5,1428
e0000d86:	00072023          	sw	zero,0(a4)
  (*(volatile unsigned int *)(long)(0x1C000598)) = 0x00000000 ;
e0000d8a:	59878713          	addi	a4,a5,1432
e0000d8e:	00072023          	sw	zero,0(a4)
  (*(volatile unsigned int *)(long)(0x1C00059C)) = 0x00000000 ;
e0000d92:	59c78713          	addi	a4,a5,1436
e0000d96:	00072023          	sw	zero,0(a4)
  (*(volatile unsigned int *)(long)(0x1C0005A0)) = 0x00000000 ;
e0000d9a:	5a078713          	addi	a4,a5,1440
e0000d9e:	00072023          	sw	zero,0(a4)
  (*(volatile unsigned int *)(long)(0x1C0005A4)) = 0x00000000 ;
e0000da2:	5a478713          	addi	a4,a5,1444
e0000da6:	00072023          	sw	zero,0(a4)
  (*(volatile unsigned int *)(long)(0x1C0005A8)) = 0x00000000 ;
e0000daa:	5a878713          	addi	a4,a5,1448
e0000dae:	00072023          	sw	zero,0(a4)
  (*(volatile unsigned int *)(long)(0x1C0005AC)) = 0x00000000 ;
e0000db2:	5ac78713          	addi	a4,a5,1452
e0000db6:	00072023          	sw	zero,0(a4)
  (*(volatile unsigned int *)(long)(0x1C0005B0)) = 0x00000000 ;
e0000dba:	5b078713          	addi	a4,a5,1456
e0000dbe:	00072023          	sw	zero,0(a4)
  (*(volatile unsigned int *)(long)(0x1C0005B4)) = 0x00000000 ;
e0000dc2:	5b478713          	addi	a4,a5,1460
e0000dc6:	00072023          	sw	zero,0(a4)
  (*(volatile unsigned int *)(long)(0x1C0005B8)) = 0x00000000 ;
e0000dca:	5b878713          	addi	a4,a5,1464
e0000dce:	00072023          	sw	zero,0(a4)
  (*(volatile unsigned int *)(long)(0x1C0005BC)) = 0x00000000 ;
e0000dd2:	5bc78713          	addi	a4,a5,1468
e0000dd6:	00072023          	sw	zero,0(a4)
  (*(volatile unsigned int *)(long)(0x1C0005C0)) = 0x00000000 ;
e0000dda:	5c078713          	addi	a4,a5,1472
e0000dde:	00072023          	sw	zero,0(a4)
  (*(volatile unsigned int *)(long)(0x1C0005C4)) = 0x00000000 ;
e0000de2:	5c478713          	addi	a4,a5,1476
e0000de6:	00072023          	sw	zero,0(a4)
  (*(volatile unsigned int *)(long)(0x1C0005C8)) = 0x00000000 ;
e0000dea:	5c878713          	addi	a4,a5,1480
e0000dee:	00072023          	sw	zero,0(a4)
  (*(volatile unsigned int *)(long)(0x1C0005CC)) = 0x00000000 ;
e0000df2:	5cc78713          	addi	a4,a5,1484
e0000df6:	00072023          	sw	zero,0(a4)
  (*(volatile unsigned int *)(long)(0x1C0005D0)) = 0x00000000 ;
e0000dfa:	5d078713          	addi	a4,a5,1488
e0000dfe:	00072023          	sw	zero,0(a4)
  (*(volatile unsigned int *)(long)(0x1C0005D4)) = 0x00000000 ;
e0000e02:	5d478713          	addi	a4,a5,1492
e0000e06:	00072023          	sw	zero,0(a4)
  (*(volatile unsigned int *)(long)(0x1C0005D8)) = 0x00000000 ;
e0000e0a:	5d878713          	addi	a4,a5,1496
e0000e0e:	00072023          	sw	zero,0(a4)
  (*(volatile unsigned int *)(long)(0x1C0005DC)) = 0x00000000 ;
e0000e12:	5dc78713          	addi	a4,a5,1500
e0000e16:	00072023          	sw	zero,0(a4)
  (*(volatile unsigned int *)(long)(0x1C0005E0)) = 0x00000000 ;
e0000e1a:	5e078713          	addi	a4,a5,1504
e0000e1e:	00072023          	sw	zero,0(a4)
  (*(volatile unsigned int *)(long)(0x1C0005E4)) = 0x00000000 ;
e0000e22:	5e478713          	addi	a4,a5,1508
e0000e26:	00072023          	sw	zero,0(a4)
  (*(volatile unsigned int *)(long)(0x1C0005E8)) = 0x00000000 ;
e0000e2a:	5e878713          	addi	a4,a5,1512
e0000e2e:	00072023          	sw	zero,0(a4)
  (*(volatile unsigned int *)(long)(0x1C0005EC)) = 0x00000000 ;
e0000e32:	5ec78713          	addi	a4,a5,1516
e0000e36:	00072023          	sw	zero,0(a4)
  (*(volatile unsigned int *)(long)(0x1C0005F0)) = 0x00000000 ;
e0000e3a:	5f078713          	addi	a4,a5,1520
e0000e3e:	00072023          	sw	zero,0(a4)
  (*(volatile unsigned int *)(long)(0x1C0005F4)) = 0x00000000 ;
e0000e42:	5f478713          	addi	a4,a5,1524
e0000e46:	00072023          	sw	zero,0(a4)
  (*(volatile unsigned int *)(long)(0x1C0005F8)) = 0x00000000 ;
e0000e4a:	5f878713          	addi	a4,a5,1528
e0000e4e:	00072023          	sw	zero,0(a4)
  (*(volatile unsigned int *)(long)(0x1C0005FC)) = 0x00000000 ;
e0000e52:	5fc78713          	addi	a4,a5,1532
e0000e56:	00072023          	sw	zero,0(a4)
  (*(volatile unsigned int *)(long)(0x1C000600)) = 0x00000000 ;
e0000e5a:	60078713          	addi	a4,a5,1536
e0000e5e:	00072023          	sw	zero,0(a4)
  (*(volatile unsigned int *)(long)(0x1C000604)) = 0x00000000 ;
e0000e62:	60478713          	addi	a4,a5,1540
e0000e66:	00072023          	sw	zero,0(a4)
  (*(volatile unsigned int *)(long)(0x1C000608)) = 0x00000000 ;
e0000e6a:	60878713          	addi	a4,a5,1544
e0000e6e:	00072023          	sw	zero,0(a4)
  (*(volatile unsigned int *)(long)(0x1C00060C)) = 0x00000000 ;
e0000e72:	60c78713          	addi	a4,a5,1548
e0000e76:	00072023          	sw	zero,0(a4)
  (*(volatile unsigned int *)(long)(0x1C000610)) = 0x00000000 ;
e0000e7a:	61078713          	addi	a4,a5,1552
e0000e7e:	00072023          	sw	zero,0(a4)
  (*(volatile unsigned int *)(long)(0x1C000614)) = 0x00000000 ;
e0000e82:	61478713          	addi	a4,a5,1556
e0000e86:	00072023          	sw	zero,0(a4)
  (*(volatile unsigned int *)(long)(0x1C000618)) = 0x00000000 ;
e0000e8a:	61878713          	addi	a4,a5,1560
e0000e8e:	00072023          	sw	zero,0(a4)
  (*(volatile unsigned int *)(long)(0x1C00061C)) = 0x00000000 ;
e0000e92:	61c78713          	addi	a4,a5,1564
e0000e96:	00072023          	sw	zero,0(a4)
  (*(volatile unsigned int *)(long)(0x1C000620)) = 0x00000000 ;
e0000e9a:	62078713          	addi	a4,a5,1568
e0000e9e:	00072023          	sw	zero,0(a4)
  (*(volatile unsigned int *)(long)(0x1C000624)) = 0x00000000 ;
e0000ea2:	62478713          	addi	a4,a5,1572
e0000ea6:	00072023          	sw	zero,0(a4)
  (*(volatile unsigned int *)(long)(0x1C000628)) = 0x00000000 ;
e0000eaa:	62878713          	addi	a4,a5,1576
e0000eae:	00072023          	sw	zero,0(a4)
  (*(volatile unsigned int *)(long)(0x1C00062C)) = 0x00000000 ;
e0000eb2:	62c78713          	addi	a4,a5,1580
e0000eb6:	00072023          	sw	zero,0(a4)
  (*(volatile unsigned int *)(long)(0x1C000630)) = 0x00000000 ;
e0000eba:	63078713          	addi	a4,a5,1584
e0000ebe:	00072023          	sw	zero,0(a4)
  (*(volatile unsigned int *)(long)(0x1C000634)) = 0x00000000 ;
e0000ec2:	63478713          	addi	a4,a5,1588
e0000ec6:	00072023          	sw	zero,0(a4)
  (*(volatile unsigned int *)(long)(0x1C000638)) = 0x00000000 ;
e0000eca:	63878713          	addi	a4,a5,1592
e0000ece:	00072023          	sw	zero,0(a4)
  (*(volatile unsigned int *)(long)(0x1C00063C)) = 0x00000000 ;
e0000ed2:	63c78713          	addi	a4,a5,1596
e0000ed6:	00072023          	sw	zero,0(a4)
  (*(volatile unsigned int *)(long)(0x1C000640)) = 0x00000000 ;
e0000eda:	64078713          	addi	a4,a5,1600
e0000ede:	00072023          	sw	zero,0(a4)
  (*(volatile unsigned int *)(long)(0x1C000644)) = 0x00000000 ;
e0000ee2:	64478713          	addi	a4,a5,1604
e0000ee6:	00072023          	sw	zero,0(a4)
  (*(volatile unsigned int *)(long)(0x1C000648)) = 0x00000000 ;
e0000eea:	64878713          	addi	a4,a5,1608
e0000eee:	00072023          	sw	zero,0(a4)
  (*(volatile unsigned int *)(long)(0x1C00064C)) = 0x00000000 ;
e0000ef2:	64c78713          	addi	a4,a5,1612
e0000ef6:	00072023          	sw	zero,0(a4)
  (*(volatile unsigned int *)(long)(0x1C000650)) = 0x00000000 ;
e0000efa:	65078713          	addi	a4,a5,1616
e0000efe:	00072023          	sw	zero,0(a4)
  (*(volatile unsigned int *)(long)(0x1C000654)) = 0x00000000 ;
e0000f02:	65478713          	addi	a4,a5,1620
e0000f06:	00072023          	sw	zero,0(a4)
  (*(volatile unsigned int *)(long)(0x1C000658)) = 0x00000000 ;
e0000f0a:	65878713          	addi	a4,a5,1624
e0000f0e:	00072023          	sw	zero,0(a4)
  (*(volatile unsigned int *)(long)(0x1C00065C)) = 0x00000000 ;
e0000f12:	65c78713          	addi	a4,a5,1628
e0000f16:	00072023          	sw	zero,0(a4)
  (*(volatile unsigned int *)(long)(0x1C000660)) = 0x00000000 ;
e0000f1a:	66078713          	addi	a4,a5,1632
e0000f1e:	00072023          	sw	zero,0(a4)
  (*(volatile unsigned int *)(long)(0x1C000664)) = 0x00000000 ;
e0000f22:	66478713          	addi	a4,a5,1636
e0000f26:	00072023          	sw	zero,0(a4)
  (*(volatile unsigned int *)(long)(0x1C000668)) = 0x00000000 ;
e0000f2a:	66878713          	addi	a4,a5,1640
e0000f2e:	00072023          	sw	zero,0(a4)
  (*(volatile unsigned int *)(long)(0x1C00066C)) = 0x00000000 ;
e0000f32:	66c78713          	addi	a4,a5,1644
e0000f36:	00072023          	sw	zero,0(a4)
  (*(volatile unsigned int *)(long)(0x1C000670)) = 0x00000000 ;
e0000f3a:	67078713          	addi	a4,a5,1648
e0000f3e:	00072023          	sw	zero,0(a4)
  (*(volatile unsigned int *)(long)(0x1C000674)) = 0x00000000 ;
e0000f42:	67478713          	addi	a4,a5,1652
e0000f46:	00072023          	sw	zero,0(a4)
  (*(volatile unsigned int *)(long)(0x1C000678)) = 0x00000000 ;
e0000f4a:	67878713          	addi	a4,a5,1656
e0000f4e:	00072023          	sw	zero,0(a4)
  (*(volatile unsigned int *)(long)(0x1C00067C)) = 0x00000000 ;
e0000f52:	67c78713          	addi	a4,a5,1660
e0000f56:	00072023          	sw	zero,0(a4)
  (*(volatile unsigned int *)(long)(0x1C000680)) = 0x00000000 ;
e0000f5a:	68078713          	addi	a4,a5,1664
e0000f5e:	00072023          	sw	zero,0(a4)
  (*(volatile unsigned int *)(long)(0x1C000684)) = 0x00000000 ;
e0000f62:	68478713          	addi	a4,a5,1668
e0000f66:	00072023          	sw	zero,0(a4)
  (*(volatile unsigned int *)(long)(0x1C000688)) = 0x00000000 ;
e0000f6a:	68878713          	addi	a4,a5,1672
e0000f6e:	00072023          	sw	zero,0(a4)
  (*(volatile unsigned int *)(long)(0x1C00068C)) = 0x00000000 ;
e0000f72:	68c78713          	addi	a4,a5,1676
e0000f76:	00072023          	sw	zero,0(a4)
  (*(volatile unsigned int *)(long)(0x1C000690)) = 0x00000000 ;
e0000f7a:	69078713          	addi	a4,a5,1680
e0000f7e:	00072023          	sw	zero,0(a4)
  (*(volatile unsigned int *)(long)(0x1C000694)) = 0x00000000 ;
e0000f82:	69478713          	addi	a4,a5,1684
e0000f86:	00072023          	sw	zero,0(a4)
  (*(volatile unsigned int *)(long)(0x1C000698)) = 0x00000000 ;
e0000f8a:	69878713          	addi	a4,a5,1688
e0000f8e:	00072023          	sw	zero,0(a4)
  (*(volatile unsigned int *)(long)(0x1C00069C)) = 0x00000000 ;
e0000f92:	69c78713          	addi	a4,a5,1692
e0000f96:	00072023          	sw	zero,0(a4)
  (*(volatile unsigned int *)(long)(0x1C0006A0)) = 0x00000000 ;
e0000f9a:	6a078713          	addi	a4,a5,1696
e0000f9e:	00072023          	sw	zero,0(a4)
  (*(volatile unsigned int *)(long)(0x1C0006A4)) = 0x00000000 ;
e0000fa2:	6a478713          	addi	a4,a5,1700
e0000fa6:	00072023          	sw	zero,0(a4)
  (*(volatile unsigned int *)(long)(0x1C0006A8)) = 0x00000000 ;
e0000faa:	6a878713          	addi	a4,a5,1704
e0000fae:	00072023          	sw	zero,0(a4)
  (*(volatile unsigned int *)(long)(0x1C0006AC)) = 0x00000000 ;
e0000fb2:	6ac78713          	addi	a4,a5,1708
e0000fb6:	00072023          	sw	zero,0(a4)
  (*(volatile unsigned int *)(long)(0x1C0006B0)) = 0x00000000 ;
e0000fba:	6b078713          	addi	a4,a5,1712
e0000fbe:	00072023          	sw	zero,0(a4)
  (*(volatile unsigned int *)(long)(0x1C0006B4)) = 0x00000000 ;
e0000fc2:	6b478713          	addi	a4,a5,1716
e0000fc6:	00072023          	sw	zero,0(a4)
  (*(volatile unsigned int *)(long)(0x1C0006B8)) = 0x00000000 ;
e0000fca:	6b878713          	addi	a4,a5,1720
e0000fce:	00072023          	sw	zero,0(a4)
  (*(volatile unsigned int *)(long)(0x1C0006BC)) = 0x00000000 ;
e0000fd2:	6bc78713          	addi	a4,a5,1724
e0000fd6:	00072023          	sw	zero,0(a4)
  (*(volatile unsigned int *)(long)(0x1C0006C0)) = 0x00000000 ;
e0000fda:	6c078713          	addi	a4,a5,1728
e0000fde:	00072023          	sw	zero,0(a4)
  (*(volatile unsigned int *)(long)(0x1C0006C4)) = 0x00000000 ;
e0000fe2:	6c478713          	addi	a4,a5,1732
e0000fe6:	00072023          	sw	zero,0(a4)
  (*(volatile unsigned int *)(long)(0x1C0006C8)) = 0x00000000 ;
e0000fea:	6c878713          	addi	a4,a5,1736
e0000fee:	00072023          	sw	zero,0(a4)
  (*(volatile unsigned int *)(long)(0x1C0006CC)) = 0x00000000 ;
e0000ff2:	6cc78713          	addi	a4,a5,1740
e0000ff6:	00072023          	sw	zero,0(a4)
  (*(volatile unsigned int *)(long)(0x1C0006D0)) = 0x00000000 ;
e0000ffa:	6d078713          	addi	a4,a5,1744
e0000ffe:	00072023          	sw	zero,0(a4)
  (*(volatile unsigned int *)(long)(0x1C0006D4)) = 0x00000000 ;
e0001002:	6d478713          	addi	a4,a5,1748
e0001006:	00072023          	sw	zero,0(a4)
  (*(volatile unsigned int *)(long)(0x1C0006D8)) = 0x00000000 ;
e000100a:	6d878713          	addi	a4,a5,1752
e000100e:	00072023          	sw	zero,0(a4)
  (*(volatile unsigned int *)(long)(0x1C0006DC)) = 0x00000000 ;
e0001012:	6dc78713          	addi	a4,a5,1756
e0001016:	00072023          	sw	zero,0(a4)
  (*(volatile unsigned int *)(long)(0x1C0006E0)) = 0x00000000 ;
e000101a:	6e078713          	addi	a4,a5,1760
e000101e:	00072023          	sw	zero,0(a4)
  (*(volatile unsigned int *)(long)(0x1C0006E4)) = 0x00000000 ;
e0001022:	6e478713          	addi	a4,a5,1764
e0001026:	00072023          	sw	zero,0(a4)
  (*(volatile unsigned int *)(long)(0x1C0006E8)) = 0x00000000 ;
e000102a:	6e878713          	addi	a4,a5,1768
e000102e:	00072023          	sw	zero,0(a4)
  (*(volatile unsigned int *)(long)(0x1C0006EC)) = 0x00000000 ;
e0001032:	6ec78713          	addi	a4,a5,1772
e0001036:	00072023          	sw	zero,0(a4)
  (*(volatile unsigned int *)(long)(0x1C0006F0)) = 0x00000000 ;
e000103a:	6f078713          	addi	a4,a5,1776
e000103e:	00072023          	sw	zero,0(a4)
  (*(volatile unsigned int *)(long)(0x1C0006F4)) = 0x00000000 ;
e0001042:	6f478713          	addi	a4,a5,1780
e0001046:	00072023          	sw	zero,0(a4)
  (*(volatile unsigned int *)(long)(0x1C0006F8)) = 0x00000000 ;
e000104a:	6f878713          	addi	a4,a5,1784
e000104e:	00072023          	sw	zero,0(a4)
  (*(volatile unsigned int *)(long)(0x1C0006FC)) = 0x00000000 ;
e0001052:	6fc78713          	addi	a4,a5,1788
e0001056:	00072023          	sw	zero,0(a4)
  (*(volatile unsigned int *)(long)(0x1C000700)) = 0x00000000 ;
e000105a:	70078713          	addi	a4,a5,1792
e000105e:	00072023          	sw	zero,0(a4)
  (*(volatile unsigned int *)(long)(0x1C000704)) = 0x00000000 ;
e0001062:	70478713          	addi	a4,a5,1796
e0001066:	00072023          	sw	zero,0(a4)
  (*(volatile unsigned int *)(long)(0x1C000708)) = 0x00000000 ;
e000106a:	70878713          	addi	a4,a5,1800
e000106e:	00072023          	sw	zero,0(a4)
  (*(volatile unsigned int *)(long)(0x1C00070C)) = 0x00000000 ;
e0001072:	70c78713          	addi	a4,a5,1804
e0001076:	00072023          	sw	zero,0(a4)
  (*(volatile unsigned int *)(long)(0x1C000710)) = 0x00000000 ;
e000107a:	71078713          	addi	a4,a5,1808
e000107e:	00072023          	sw	zero,0(a4)
  (*(volatile unsigned int *)(long)(0x1C000714)) = 0x00000000 ;
e0001082:	71478713          	addi	a4,a5,1812
e0001086:	00072023          	sw	zero,0(a4)
  (*(volatile unsigned int *)(long)(0x1C000718)) = 0x00000000 ;
e000108a:	71878713          	addi	a4,a5,1816
e000108e:	00072023          	sw	zero,0(a4)
  (*(volatile unsigned int *)(long)(0x1C00071C)) = 0x00000000 ;
e0001092:	71c78713          	addi	a4,a5,1820
e0001096:	00072023          	sw	zero,0(a4)
  (*(volatile unsigned int *)(long)(0x1C000720)) = 0x00000000 ;
e000109a:	72078713          	addi	a4,a5,1824
e000109e:	00072023          	sw	zero,0(a4)
  (*(volatile unsigned int *)(long)(0x1C000724)) = 0x00000000 ;
e00010a2:	72478713          	addi	a4,a5,1828
e00010a6:	00072023          	sw	zero,0(a4)
  (*(volatile unsigned int *)(long)(0x1C000728)) = 0x00000000 ;
e00010aa:	72878713          	addi	a4,a5,1832
e00010ae:	00072023          	sw	zero,0(a4)
  (*(volatile unsigned int *)(long)(0x1C00072C)) = 0x00000000 ;
e00010b2:	72c78713          	addi	a4,a5,1836
e00010b6:	00072023          	sw	zero,0(a4)
  (*(volatile unsigned int *)(long)(0x1C000730)) = 0x00000000 ;
e00010ba:	73078713          	addi	a4,a5,1840
e00010be:	00072023          	sw	zero,0(a4)
  (*(volatile unsigned int *)(long)(0x1C000734)) = 0x00000000 ;
e00010c2:	73478713          	addi	a4,a5,1844
e00010c6:	00072023          	sw	zero,0(a4)
  (*(volatile unsigned int *)(long)(0x1C000738)) = 0x00000000 ;
e00010ca:	73878713          	addi	a4,a5,1848
e00010ce:	00072023          	sw	zero,0(a4)
  (*(volatile unsigned int *)(long)(0x1C00073C)) = 0x00000000 ;
e00010d2:	73c78713          	addi	a4,a5,1852
e00010d6:	00072023          	sw	zero,0(a4)
  (*(volatile unsigned int *)(long)(0x1C000740)) = 0x00000000 ;
e00010da:	74078713          	addi	a4,a5,1856
e00010de:	00072023          	sw	zero,0(a4)
  (*(volatile unsigned int *)(long)(0x1C000744)) = 0x00000000 ;
e00010e2:	74478713          	addi	a4,a5,1860
e00010e6:	00072023          	sw	zero,0(a4)
  (*(volatile unsigned int *)(long)(0x1C000748)) = 0x00000000 ;
e00010ea:	74878713          	addi	a4,a5,1864
e00010ee:	00072023          	sw	zero,0(a4)
  (*(volatile unsigned int *)(long)(0x1C00074C)) = 0x00000000 ;
e00010f2:	74c78713          	addi	a4,a5,1868
e00010f6:	00072023          	sw	zero,0(a4)
  (*(volatile unsigned int *)(long)(0x1C000750)) = 0x00000000 ;
e00010fa:	75078713          	addi	a4,a5,1872
e00010fe:	00072023          	sw	zero,0(a4)
  (*(volatile unsigned int *)(long)(0x1C000754)) = 0x00000000 ;
e0001102:	75478713          	addi	a4,a5,1876
e0001106:	00072023          	sw	zero,0(a4)
  (*(volatile unsigned int *)(long)(0x1C000758)) = 0x00000000 ;
e000110a:	75878713          	addi	a4,a5,1880
e000110e:	00072023          	sw	zero,0(a4)
  (*(volatile unsigned int *)(long)(0x1C00075C)) = 0x00000000 ;
e0001112:	75c78713          	addi	a4,a5,1884
e0001116:	00072023          	sw	zero,0(a4)
  (*(volatile unsigned int *)(long)(0x1C000760)) = 0x00000000 ;
e000111a:	76078713          	addi	a4,a5,1888
e000111e:	00072023          	sw	zero,0(a4)
  (*(volatile unsigned int *)(long)(0x1C000764)) = 0x00000000 ;
e0001122:	76478713          	addi	a4,a5,1892
e0001126:	00072023          	sw	zero,0(a4)
  (*(volatile unsigned int *)(long)(0x1C000768)) = 0x00000000 ;
e000112a:	76878713          	addi	a4,a5,1896
e000112e:	00072023          	sw	zero,0(a4)
  (*(volatile unsigned int *)(long)(0x1C00076C)) = 0x00000000 ;
e0001132:	76c78713          	addi	a4,a5,1900
e0001136:	00072023          	sw	zero,0(a4)
  (*(volatile unsigned int *)(long)(0x1C000770)) = 0x00000000 ;
e000113a:	77078713          	addi	a4,a5,1904
e000113e:	00072023          	sw	zero,0(a4)
  (*(volatile unsigned int *)(long)(0x1C000774)) = 0x00000000 ;
e0001142:	77478713          	addi	a4,a5,1908
e0001146:	00072023          	sw	zero,0(a4)
  (*(volatile unsigned int *)(long)(0x1C000778)) = 0x00000000 ;
e000114a:	77878713          	addi	a4,a5,1912
e000114e:	00072023          	sw	zero,0(a4)
  (*(volatile unsigned int *)(long)(0x1C00077C)) = 0x00000000 ;
e0001152:	77c78713          	addi	a4,a5,1916
e0001156:	00072023          	sw	zero,0(a4)
  (*(volatile unsigned int *)(long)(0x1C000780)) = 0x00000000 ;
e000115a:	78078713          	addi	a4,a5,1920
e000115e:	00072023          	sw	zero,0(a4)
  (*(volatile unsigned int *)(long)(0x1C000784)) = 0x00000000 ;
e0001162:	78478713          	addi	a4,a5,1924
e0001166:	00072023          	sw	zero,0(a4)
  (*(volatile unsigned int *)(long)(0x1C000788)) = 0x00000000 ;
e000116a:	78878713          	addi	a4,a5,1928
e000116e:	00072023          	sw	zero,0(a4)
  (*(volatile unsigned int *)(long)(0x1C00078C)) = 0x00000000 ;
e0001172:	78c78713          	addi	a4,a5,1932
e0001176:	00072023          	sw	zero,0(a4)
  (*(volatile unsigned int *)(long)(0x1C000790)) = 0x00000000 ;
e000117a:	79078713          	addi	a4,a5,1936
e000117e:	00072023          	sw	zero,0(a4)
  (*(volatile unsigned int *)(long)(0x1C000794)) = 0x00000000 ;
e0001182:	79478713          	addi	a4,a5,1940
e0001186:	00072023          	sw	zero,0(a4)
  (*(volatile unsigned int *)(long)(0x1C000798)) = 0x00000000 ;
e000118a:	79878713          	addi	a4,a5,1944
e000118e:	00072023          	sw	zero,0(a4)
  (*(volatile unsigned int *)(long)(0x1C00079C)) = 0x00000000 ;
e0001192:	79c78713          	addi	a4,a5,1948
e0001196:	00072023          	sw	zero,0(a4)
  (*(volatile unsigned int *)(long)(0x1C0007A0)) = 0x00000000 ;
e000119a:	7a078713          	addi	a4,a5,1952
e000119e:	00072023          	sw	zero,0(a4)
  (*(volatile unsigned int *)(long)(0x1C0007A4)) = 0x00000000 ;
e00011a2:	7a478713          	addi	a4,a5,1956
e00011a6:	00072023          	sw	zero,0(a4)
  (*(volatile unsigned int *)(long)(0x1C0007A8)) = 0x00000000 ;
e00011aa:	7a878713          	addi	a4,a5,1960
e00011ae:	00072023          	sw	zero,0(a4)
  (*(volatile unsigned int *)(long)(0x1C0007AC)) = 0x00000000 ;
e00011b2:	7ac78713          	addi	a4,a5,1964
e00011b6:	00072023          	sw	zero,0(a4)
  (*(volatile unsigned int *)(long)(0x1C0007B0)) = 0x00000000 ;
e00011ba:	7b078713          	addi	a4,a5,1968
e00011be:	00072023          	sw	zero,0(a4)
  (*(volatile unsigned int *)(long)(0x1C0007B4)) = 0x00000000 ;
e00011c2:	7b478713          	addi	a4,a5,1972
e00011c6:	00072023          	sw	zero,0(a4)
  (*(volatile unsigned int *)(long)(0x1C0007B8)) = 0x00000000 ;
e00011ca:	7b878713          	addi	a4,a5,1976
e00011ce:	00072023          	sw	zero,0(a4)
  (*(volatile unsigned int *)(long)(0x1C0007BC)) = 0x00000000 ;
e00011d2:	7bc78713          	addi	a4,a5,1980
e00011d6:	00072023          	sw	zero,0(a4)
  (*(volatile unsigned int *)(long)(0x1C0007C0)) = 0x00000000 ;
e00011da:	7c078713          	addi	a4,a5,1984
e00011de:	00072023          	sw	zero,0(a4)
  (*(volatile unsigned int *)(long)(0x1C0007C4)) = 0x00000000 ;
e00011e2:	7c478713          	addi	a4,a5,1988
e00011e6:	00072023          	sw	zero,0(a4)
  (*(volatile unsigned int *)(long)(0x1C0007C8)) = 0x00000000 ;
e00011ea:	7c878713          	addi	a4,a5,1992
e00011ee:	00072023          	sw	zero,0(a4)
  (*(volatile unsigned int *)(long)(0x1C0007CC)) = 0x00000000 ;
e00011f2:	7cc78713          	addi	a4,a5,1996
e00011f6:	00072023          	sw	zero,0(a4)
  (*(volatile unsigned int *)(long)(0x1C0007D0)) = 0x00000000 ;
e00011fa:	7d078713          	addi	a4,a5,2000
e00011fe:	00072023          	sw	zero,0(a4)
  (*(volatile unsigned int *)(long)(0x1C0007D4)) = 0x00000000 ;
e0001202:	7d478713          	addi	a4,a5,2004
e0001206:	00072023          	sw	zero,0(a4)
  (*(volatile unsigned int *)(long)(0x1C0007D8)) = 0x00000000 ;
e000120a:	7d878713          	addi	a4,a5,2008
e000120e:	00072023          	sw	zero,0(a4)
  (*(volatile unsigned int *)(long)(0x1C0007DC)) = 0x00000000 ;
e0001212:	7dc78713          	addi	a4,a5,2012
e0001216:	00072023          	sw	zero,0(a4)
  (*(volatile unsigned int *)(long)(0x1C0007E0)) = 0x00000000 ;
e000121a:	7e078713          	addi	a4,a5,2016
e000121e:	00072023          	sw	zero,0(a4)
  (*(volatile unsigned int *)(long)(0x1C0007E4)) = 0x00000000 ;
e0001222:	7e478713          	addi	a4,a5,2020
e0001226:	00072023          	sw	zero,0(a4)
  (*(volatile unsigned int *)(long)(0x1C0007E8)) = 0x00000000 ;
e000122a:	7e878713          	addi	a4,a5,2024
e000122e:	00072023          	sw	zero,0(a4)
  (*(volatile unsigned int *)(long)(0x1C0007EC)) = 0x00000000 ;
e0001232:	7ec78713          	addi	a4,a5,2028
e0001236:	00072023          	sw	zero,0(a4)
  (*(volatile unsigned int *)(long)(0x1C0007F0)) = 0x00000000 ;
e000123a:	7f078713          	addi	a4,a5,2032
e000123e:	00072023          	sw	zero,0(a4)
  (*(volatile unsigned int *)(long)(0x1C0007F4)) = 0x00000000 ;
e0001242:	7f478713          	addi	a4,a5,2036
e0001246:	00072023          	sw	zero,0(a4)
  (*(volatile unsigned int *)(long)(0x1C0007F8)) = 0x00000000 ;
e000124a:	7f878713          	addi	a4,a5,2040
e000124e:	00072023          	sw	zero,0(a4)
  (*(volatile unsigned int *)(long)(0x1C0007FC)) = 0x00000000 ;
e0001252:	7fc78793          	addi	a5,a5,2044
e0001256:	0007a023          	sw	zero,0(a5)
  (*(volatile unsigned int *)(long)(0x1C000800)) = 0x00000000 ;
e000125a:	1c0017b7          	lui	a5,0x1c001
e000125e:	80078713          	addi	a4,a5,-2048 # 1c000800 <tohost+0x1bfe07f8>
e0001262:	00072023          	sw	zero,0(a4)
  (*(volatile unsigned int *)(long)(0x1C000804)) = 0x00000000 ;
e0001266:	80478713          	addi	a4,a5,-2044
e000126a:	00072023          	sw	zero,0(a4)
  (*(volatile unsigned int *)(long)(0x1C000808)) = 0x00000000 ;
e000126e:	80878713          	addi	a4,a5,-2040
e0001272:	00072023          	sw	zero,0(a4)
  (*(volatile unsigned int *)(long)(0x1C00080C)) = 0x00000000 ;
e0001276:	80c78713          	addi	a4,a5,-2036
e000127a:	00072023          	sw	zero,0(a4)
  (*(volatile unsigned int *)(long)(0x1C000810)) = 0x00000000 ;
e000127e:	81078713          	addi	a4,a5,-2032
e0001282:	00072023          	sw	zero,0(a4)
  (*(volatile unsigned int *)(long)(0x1C000814)) = 0x00000000 ;
e0001286:	81478713          	addi	a4,a5,-2028
e000128a:	00072023          	sw	zero,0(a4)
  (*(volatile unsigned int *)(long)(0x1C000818)) = 0x00000000 ;
e000128e:	81878713          	addi	a4,a5,-2024
e0001292:	00072023          	sw	zero,0(a4)
  (*(volatile unsigned int *)(long)(0x1C00081C)) = 0x00000000 ;
e0001296:	81c78713          	addi	a4,a5,-2020
e000129a:	00072023          	sw	zero,0(a4)
  (*(volatile unsigned int *)(long)(0x1C000820)) = 0x00000000 ;
e000129e:	82078713          	addi	a4,a5,-2016
e00012a2:	00072023          	sw	zero,0(a4)
  (*(volatile unsigned int *)(long)(0x1C000824)) = 0x00000000 ;
e00012a6:	82478713          	addi	a4,a5,-2012
e00012aa:	00072023          	sw	zero,0(a4)
  (*(volatile unsigned int *)(long)(0x1C000828)) = 0x00000000 ;
e00012ae:	82878713          	addi	a4,a5,-2008
e00012b2:	00072023          	sw	zero,0(a4)
  (*(volatile unsigned int *)(long)(0x1C00082C)) = 0x00000000 ;
e00012b6:	82c78713          	addi	a4,a5,-2004
e00012ba:	00072023          	sw	zero,0(a4)
  (*(volatile unsigned int *)(long)(0x1C000830)) = 0x00000000 ;
e00012be:	83078713          	addi	a4,a5,-2000
e00012c2:	00072023          	sw	zero,0(a4)
  (*(volatile unsigned int *)(long)(0x1C000834)) = 0x00000000 ;
e00012c6:	83478713          	addi	a4,a5,-1996
e00012ca:	00072023          	sw	zero,0(a4)
  (*(volatile unsigned int *)(long)(0x1C000838)) = 0x00000000 ;
e00012ce:	83878713          	addi	a4,a5,-1992
e00012d2:	00072023          	sw	zero,0(a4)
  (*(volatile unsigned int *)(long)(0x1C00083C)) = 0x00000000 ;
e00012d6:	83c78713          	addi	a4,a5,-1988
e00012da:	00072023          	sw	zero,0(a4)
  (*(volatile unsigned int *)(long)(0x1C000840)) = 0x00000000 ;
e00012de:	84078713          	addi	a4,a5,-1984
e00012e2:	00072023          	sw	zero,0(a4)
  (*(volatile unsigned int *)(long)(0x1C000844)) = 0x00000000 ;
e00012e6:	84478713          	addi	a4,a5,-1980
e00012ea:	00072023          	sw	zero,0(a4)
  (*(volatile unsigned int *)(long)(0x1C000848)) = 0x00000000 ;
e00012ee:	84878713          	addi	a4,a5,-1976
e00012f2:	00072023          	sw	zero,0(a4)
  (*(volatile unsigned int *)(long)(0x1C00084C)) = 0x00000000 ;
e00012f6:	84c78713          	addi	a4,a5,-1972
e00012fa:	00072023          	sw	zero,0(a4)
  (*(volatile unsigned int *)(long)(0x1C000850)) = 0x00000000 ;
e00012fe:	85078713          	addi	a4,a5,-1968
e0001302:	00072023          	sw	zero,0(a4)
  (*(volatile unsigned int *)(long)(0x1C000854)) = 0x00000000 ;
e0001306:	85478713          	addi	a4,a5,-1964
e000130a:	00072023          	sw	zero,0(a4)
  (*(volatile unsigned int *)(long)(0x1C000858)) = 0x00000000 ;
e000130e:	85878713          	addi	a4,a5,-1960
e0001312:	00072023          	sw	zero,0(a4)
  (*(volatile unsigned int *)(long)(0x1C00085C)) = 0x00000000 ;
e0001316:	85c78713          	addi	a4,a5,-1956
e000131a:	00072023          	sw	zero,0(a4)
  (*(volatile unsigned int *)(long)(0x1C000860)) = 0x00000000 ;
e000131e:	86078713          	addi	a4,a5,-1952
e0001322:	00072023          	sw	zero,0(a4)
  (*(volatile unsigned int *)(long)(0x1C000864)) = 0x00000000 ;
e0001326:	86478713          	addi	a4,a5,-1948
e000132a:	00072023          	sw	zero,0(a4)
  (*(volatile unsigned int *)(long)(0x1C000868)) = 0x00000000 ;
e000132e:	86878713          	addi	a4,a5,-1944
e0001332:	00072023          	sw	zero,0(a4)
  (*(volatile unsigned int *)(long)(0x1C00086C)) = 0x00000000 ;
e0001336:	86c78713          	addi	a4,a5,-1940
e000133a:	00072023          	sw	zero,0(a4)
  (*(volatile unsigned int *)(long)(0x1C000870)) = 0x00000000 ;
e000133e:	87078713          	addi	a4,a5,-1936
e0001342:	00072023          	sw	zero,0(a4)
  (*(volatile unsigned int *)(long)(0x1C000874)) = 0x00000000 ;
e0001346:	87478713          	addi	a4,a5,-1932
e000134a:	00072023          	sw	zero,0(a4)
  (*(volatile unsigned int *)(long)(0x1C000878)) = 0x00000000 ;
e000134e:	87878713          	addi	a4,a5,-1928
e0001352:	00072023          	sw	zero,0(a4)
  (*(volatile unsigned int *)(long)(0x1C00087C)) = 0x00000000 ;
e0001356:	87c78713          	addi	a4,a5,-1924
e000135a:	00072023          	sw	zero,0(a4)
  (*(volatile unsigned int *)(long)(0x1C000880)) = 0x00000000 ;
e000135e:	88078713          	addi	a4,a5,-1920
e0001362:	00072023          	sw	zero,0(a4)
  (*(volatile unsigned int *)(long)(0x1C000884)) = 0x00000000 ;
e0001366:	88478713          	addi	a4,a5,-1916
e000136a:	00072023          	sw	zero,0(a4)
  (*(volatile unsigned int *)(long)(0x1C000888)) = 0x00000000 ;
e000136e:	88878713          	addi	a4,a5,-1912
e0001372:	00072023          	sw	zero,0(a4)
  (*(volatile unsigned int *)(long)(0x1C00088C)) = 0x00000000 ;
e0001376:	88c78713          	addi	a4,a5,-1908
e000137a:	00072023          	sw	zero,0(a4)
  (*(volatile unsigned int *)(long)(0x1C000890)) = 0x00000000 ;
e000137e:	89078713          	addi	a4,a5,-1904
e0001382:	00072023          	sw	zero,0(a4)
  (*(volatile unsigned int *)(long)(0x1C000894)) = 0x00000000 ;
e0001386:	89478713          	addi	a4,a5,-1900
e000138a:	00072023          	sw	zero,0(a4)
  (*(volatile unsigned int *)(long)(0x1C000898)) = 0x00000000 ;
e000138e:	89878713          	addi	a4,a5,-1896
e0001392:	00072023          	sw	zero,0(a4)
  (*(volatile unsigned int *)(long)(0x1C00089C)) = 0x00000000 ;
e0001396:	89c78713          	addi	a4,a5,-1892
e000139a:	00072023          	sw	zero,0(a4)
  (*(volatile unsigned int *)(long)(0x1C0008A0)) = 0x00000000 ;
e000139e:	8a078713          	addi	a4,a5,-1888
e00013a2:	00072023          	sw	zero,0(a4)
  (*(volatile unsigned int *)(long)(0x1C0008A4)) = 0x00000000 ;
e00013a6:	8a478713          	addi	a4,a5,-1884
e00013aa:	00072023          	sw	zero,0(a4)
  (*(volatile unsigned int *)(long)(0x1C0008A8)) = 0x00000000 ;
e00013ae:	8a878713          	addi	a4,a5,-1880
e00013b2:	00072023          	sw	zero,0(a4)
  (*(volatile unsigned int *)(long)(0x1C0008AC)) = 0x00000000 ;
e00013b6:	8ac78713          	addi	a4,a5,-1876
e00013ba:	00072023          	sw	zero,0(a4)
  (*(volatile unsigned int *)(long)(0x1C0008B0)) = 0x00000000 ;
e00013be:	8b078713          	addi	a4,a5,-1872
e00013c2:	00072023          	sw	zero,0(a4)
  (*(volatile unsigned int *)(long)(0x1C0008B4)) = 0x00000000 ;
e00013c6:	8b478713          	addi	a4,a5,-1868
e00013ca:	00072023          	sw	zero,0(a4)
  (*(volatile unsigned int *)(long)(0x1C0008B8)) = 0x00000000 ;
e00013ce:	8b878713          	addi	a4,a5,-1864
e00013d2:	00072023          	sw	zero,0(a4)
  (*(volatile unsigned int *)(long)(0x1C0008BC)) = 0x00000000 ;
e00013d6:	8bc78713          	addi	a4,a5,-1860
e00013da:	00072023          	sw	zero,0(a4)
  (*(volatile unsigned int *)(long)(0x1C0008C0)) = 0x00000000 ;
e00013de:	8c078713          	addi	a4,a5,-1856
e00013e2:	00072023          	sw	zero,0(a4)
  (*(volatile unsigned int *)(long)(0x1C0008C4)) = 0x00000000 ;
e00013e6:	8c478713          	addi	a4,a5,-1852
e00013ea:	00072023          	sw	zero,0(a4)
  (*(volatile unsigned int *)(long)(0x1C0008C8)) = 0x00000000 ;
e00013ee:	8c878713          	addi	a4,a5,-1848
e00013f2:	00072023          	sw	zero,0(a4)
  (*(volatile unsigned int *)(long)(0x1C0008CC)) = 0x00000000 ;
e00013f6:	8cc78713          	addi	a4,a5,-1844
e00013fa:	00072023          	sw	zero,0(a4)
  (*(volatile unsigned int *)(long)(0x1C0008D0)) = 0x00000000 ;
e00013fe:	8d078713          	addi	a4,a5,-1840
e0001402:	00072023          	sw	zero,0(a4)
  (*(volatile unsigned int *)(long)(0x1C0008D4)) = 0x00000000 ;
e0001406:	8d478713          	addi	a4,a5,-1836
e000140a:	00072023          	sw	zero,0(a4)
  (*(volatile unsigned int *)(long)(0x1C0008D8)) = 0x00000000 ;
e000140e:	8d878713          	addi	a4,a5,-1832
e0001412:	00072023          	sw	zero,0(a4)
  (*(volatile unsigned int *)(long)(0x1C0008DC)) = 0x00000000 ;
e0001416:	8dc78713          	addi	a4,a5,-1828
e000141a:	00072023          	sw	zero,0(a4)
  (*(volatile unsigned int *)(long)(0x1C0008E0)) = 0x00000000 ;
e000141e:	8e078713          	addi	a4,a5,-1824
e0001422:	00072023          	sw	zero,0(a4)
  (*(volatile unsigned int *)(long)(0x1C0008E4)) = 0x00000000 ;
e0001426:	8e478713          	addi	a4,a5,-1820
e000142a:	00072023          	sw	zero,0(a4)
  (*(volatile unsigned int *)(long)(0x1C0008E8)) = 0x00000000 ;
e000142e:	8e878713          	addi	a4,a5,-1816
e0001432:	00072023          	sw	zero,0(a4)
  (*(volatile unsigned int *)(long)(0x1C0008EC)) = 0x00000000 ;
e0001436:	8ec78713          	addi	a4,a5,-1812
e000143a:	00072023          	sw	zero,0(a4)
  (*(volatile unsigned int *)(long)(0x1C0008F0)) = 0x00000000 ;
e000143e:	8f078713          	addi	a4,a5,-1808
e0001442:	00072023          	sw	zero,0(a4)
  (*(volatile unsigned int *)(long)(0x1C0008F4)) = 0x00000000 ;
e0001446:	8f478713          	addi	a4,a5,-1804
e000144a:	00072023          	sw	zero,0(a4)
  (*(volatile unsigned int *)(long)(0x1C0008F8)) = 0x00000000 ;
e000144e:	8f878713          	addi	a4,a5,-1800
e0001452:	00072023          	sw	zero,0(a4)
  (*(volatile unsigned int *)(long)(0x1C0008FC)) = 0x00000000 ;
e0001456:	8fc78713          	addi	a4,a5,-1796
e000145a:	00072023          	sw	zero,0(a4)
  (*(volatile unsigned int *)(long)(0x1C000900)) = 0x00000000 ;
e000145e:	90078713          	addi	a4,a5,-1792
e0001462:	00072023          	sw	zero,0(a4)
  (*(volatile unsigned int *)(long)(0x1C000904)) = 0x00000000 ;
e0001466:	90478713          	addi	a4,a5,-1788
e000146a:	00072023          	sw	zero,0(a4)
  (*(volatile unsigned int *)(long)(0x1C000908)) = 0x00000000 ;
e000146e:	90878713          	addi	a4,a5,-1784
e0001472:	00072023          	sw	zero,0(a4)
  (*(volatile unsigned int *)(long)(0x1C00090C)) = 0x00000000 ;
e0001476:	90c78713          	addi	a4,a5,-1780
e000147a:	00072023          	sw	zero,0(a4)
  (*(volatile unsigned int *)(long)(0x1C000910)) = 0x00000000 ;
e000147e:	91078713          	addi	a4,a5,-1776
e0001482:	00072023          	sw	zero,0(a4)
  (*(volatile unsigned int *)(long)(0x1C000914)) = 0x00000000 ;
e0001486:	91478713          	addi	a4,a5,-1772
e000148a:	00072023          	sw	zero,0(a4)
  (*(volatile unsigned int *)(long)(0x1C000918)) = 0x00000000 ;
e000148e:	91878713          	addi	a4,a5,-1768
e0001492:	00072023          	sw	zero,0(a4)
  (*(volatile unsigned int *)(long)(0x1C00091C)) = 0x00000000 ;
e0001496:	91c78713          	addi	a4,a5,-1764
e000149a:	00072023          	sw	zero,0(a4)
  (*(volatile unsigned int *)(long)(0x1C000920)) = 0x00000000 ;
e000149e:	92078713          	addi	a4,a5,-1760
e00014a2:	00072023          	sw	zero,0(a4)
  (*(volatile unsigned int *)(long)(0x1C000924)) = 0x00000000 ;
e00014a6:	92478713          	addi	a4,a5,-1756
e00014aa:	00072023          	sw	zero,0(a4)
  (*(volatile unsigned int *)(long)(0x1C000928)) = 0x00000000 ;
e00014ae:	92878713          	addi	a4,a5,-1752
e00014b2:	00072023          	sw	zero,0(a4)
  (*(volatile unsigned int *)(long)(0x1C00092C)) = 0x00000000 ;
e00014b6:	92c78713          	addi	a4,a5,-1748
e00014ba:	00072023          	sw	zero,0(a4)
  (*(volatile unsigned int *)(long)(0x1C000930)) = 0x00000000 ;
e00014be:	93078713          	addi	a4,a5,-1744
e00014c2:	00072023          	sw	zero,0(a4)
  (*(volatile unsigned int *)(long)(0x1C000934)) = 0x00000000 ;
e00014c6:	93478713          	addi	a4,a5,-1740
e00014ca:	00072023          	sw	zero,0(a4)
  (*(volatile unsigned int *)(long)(0x1C000938)) = 0x00000000 ;
e00014ce:	93878713          	addi	a4,a5,-1736
e00014d2:	00072023          	sw	zero,0(a4)
  (*(volatile unsigned int *)(long)(0x1C00093C)) = 0x00000000 ;
e00014d6:	93c78713          	addi	a4,a5,-1732
e00014da:	00072023          	sw	zero,0(a4)
  (*(volatile unsigned int *)(long)(0x1C000940)) = 0x00000000 ;
e00014de:	94078713          	addi	a4,a5,-1728
e00014e2:	00072023          	sw	zero,0(a4)
  (*(volatile unsigned int *)(long)(0x1C000944)) = 0x00000000 ;
e00014e6:	94478793          	addi	a5,a5,-1724
  (*(volatile unsigned int *)(long)(0x1C002000)) = 0x1040006F ;
e00014ea:	10400737          	lui	a4,0x10400
  (*(volatile unsigned int *)(long)(0x1C000944)) = 0x00000000 ;
e00014ee:	0007a023          	sw	zero,0(a5)
  (*(volatile unsigned int *)(long)(0x1C002000)) = 0x1040006F ;
e00014f2:	06f70713          	addi	a4,a4,111 # 1040006f <tohost+0x103e0067>
e00014f6:	1c0027b7          	lui	a5,0x1c002
  (*(volatile unsigned int *)(long)(0x1C002004)) = 0x1000006F ;
e00014fa:	10000637          	lui	a2,0x10000
  (*(volatile unsigned int *)(long)(0x1C002000)) = 0x1040006F ;
e00014fe:	c398                	sw	a4,0(a5)
  (*(volatile unsigned int *)(long)(0x1C002004)) = 0x1000006F ;
e0001500:	06f60713          	addi	a4,a2,111 # 1000006f <tohost+0xffe0067>
e0001504:	c3d8                	sw	a4,4(a5)
  (*(volatile unsigned int *)(long)(0x1C002008)) = 0x0FC0006F ;
e0001506:	0fc00737          	lui	a4,0xfc00
e000150a:	06f70713          	addi	a4,a4,111 # fc0006f <tohost+0xfbe0067>
e000150e:	c798                	sw	a4,8(a5)
  (*(volatile unsigned int *)(long)(0x1C00200C)) = 0x0F80006F ;
e0001510:	0f800737          	lui	a4,0xf800
e0001514:	06f70713          	addi	a4,a4,111 # f80006f <tohost+0xf7e0067>
e0001518:	c7d8                	sw	a4,12(a5)
  (*(volatile unsigned int *)(long)(0x1C002010)) = 0x0F40006F ;
e000151a:	0f400737          	lui	a4,0xf400
e000151e:	06f70713          	addi	a4,a4,111 # f40006f <tohost+0xf3e0067>
e0001522:	cb98                	sw	a4,16(a5)
  (*(volatile unsigned int *)(long)(0x1C002014)) = 0x0F00006F ;
e0001524:	0f000737          	lui	a4,0xf000
e0001528:	06f70713          	addi	a4,a4,111 # f00006f <tohost+0xefe0067>
e000152c:	cbd8                	sw	a4,20(a5)
  (*(volatile unsigned int *)(long)(0x1C002018)) = 0x0EC0006F ;
e000152e:	0ec00737          	lui	a4,0xec00
e0001532:	06f70713          	addi	a4,a4,111 # ec0006f <tohost+0xebe0067>
e0001536:	cf98                	sw	a4,24(a5)
  (*(volatile unsigned int *)(long)(0x1C00201C)) = 0x0E80006F ;
e0001538:	0e800737          	lui	a4,0xe800
e000153c:	06f70713          	addi	a4,a4,111 # e80006f <tohost+0xe7e0067>
e0001540:	cfd8                	sw	a4,28(a5)
  (*(volatile unsigned int *)(long)(0x1C002020)) = 0x0E40006F ;
e0001542:	0e400737          	lui	a4,0xe400
e0001546:	06f70713          	addi	a4,a4,111 # e40006f <tohost+0xe3e0067>
e000154a:	d398                	sw	a4,32(a5)
  (*(volatile unsigned int *)(long)(0x1C002024)) = 0x0E00006F ;
e000154c:	0e000737          	lui	a4,0xe000
e0001550:	06f70713          	addi	a4,a4,111 # e00006f <tohost+0xdfe0067>
e0001554:	d3d8                	sw	a4,36(a5)
  (*(volatile unsigned int *)(long)(0x1C002028)) = 0x0DC0006F ;
e0001556:	0dc00737          	lui	a4,0xdc00
e000155a:	06f70713          	addi	a4,a4,111 # dc0006f <tohost+0xdbe0067>
e000155e:	d798                	sw	a4,40(a5)
  (*(volatile unsigned int *)(long)(0x1C00202C)) = 0x0D80006F ;
e0001560:	0d800737          	lui	a4,0xd800
e0001564:	06f70713          	addi	a4,a4,111 # d80006f <tohost+0xd7e0067>
e0001568:	d7d8                	sw	a4,44(a5)
  (*(volatile unsigned int *)(long)(0x1C002030)) = 0x0D40006F ;
e000156a:	0d400737          	lui	a4,0xd400
e000156e:	06f70713          	addi	a4,a4,111 # d40006f <tohost+0xd3e0067>
e0001572:	db98                	sw	a4,48(a5)
  (*(volatile unsigned int *)(long)(0x1C002034)) = 0x0D00006F ;
e0001574:	0d000737          	lui	a4,0xd000
e0001578:	06f70713          	addi	a4,a4,111 # d00006f <tohost+0xcfe0067>
e000157c:	dbd8                	sw	a4,52(a5)
  (*(volatile unsigned int *)(long)(0x1C002038)) = 0x0CC0006F ;
e000157e:	0cc00737          	lui	a4,0xcc00
e0001582:	06f70713          	addi	a4,a4,111 # cc0006f <tohost+0xcbe0067>
e0001586:	df98                	sw	a4,56(a5)
  (*(volatile unsigned int *)(long)(0x1C00203C)) = 0x0C80006F ;
e0001588:	0c800737          	lui	a4,0xc800
e000158c:	06f70713          	addi	a4,a4,111 # c80006f <tohost+0xc7e0067>
e0001590:	dfd8                	sw	a4,60(a5)
  (*(volatile unsigned int *)(long)(0x1C002040)) = 0x0C40006F ;
e0001592:	0c400737          	lui	a4,0xc400
e0001596:	06f70713          	addi	a4,a4,111 # c40006f <tohost+0xc3e0067>
e000159a:	c3b8                	sw	a4,64(a5)
  (*(volatile unsigned int *)(long)(0x1C002044)) = 0x0C00006F ;
e000159c:	0c000737          	lui	a4,0xc000
e00015a0:	06f70713          	addi	a4,a4,111 # c00006f <tohost+0xbfe0067>
e00015a4:	c3f8                	sw	a4,68(a5)
  (*(volatile unsigned int *)(long)(0x1C002048)) = 0x0BC0006F ;
e00015a6:	0bc00737          	lui	a4,0xbc00
e00015aa:	06f70713          	addi	a4,a4,111 # bc0006f <tohost+0xbbe0067>
e00015ae:	c7b8                	sw	a4,72(a5)
  (*(volatile unsigned int *)(long)(0x1C00204C)) = 0x0B80006F ;
e00015b0:	0b800737          	lui	a4,0xb800
e00015b4:	06f70713          	addi	a4,a4,111 # b80006f <tohost+0xb7e0067>
e00015b8:	c7f8                	sw	a4,76(a5)
  (*(volatile unsigned int *)(long)(0x1C002050)) = 0x0B40006F ;
e00015ba:	0b400737          	lui	a4,0xb400
e00015be:	06f70713          	addi	a4,a4,111 # b40006f <tohost+0xb3e0067>
e00015c2:	cbb8                	sw	a4,80(a5)
  (*(volatile unsigned int *)(long)(0x1C002054)) = 0x0B00006F ;
e00015c4:	0b000737          	lui	a4,0xb000
e00015c8:	06f70713          	addi	a4,a4,111 # b00006f <tohost+0xafe0067>
e00015cc:	cbf8                	sw	a4,84(a5)
  (*(volatile unsigned int *)(long)(0x1C002058)) = 0x0AC0006F ;
e00015ce:	0ac00737          	lui	a4,0xac00
e00015d2:	06f70713          	addi	a4,a4,111 # ac0006f <tohost+0xabe0067>
e00015d6:	cfb8                	sw	a4,88(a5)
  (*(volatile unsigned int *)(long)(0x1C00205C)) = 0x0A80006F ;
e00015d8:	0a800737          	lui	a4,0xa800
e00015dc:	06f70713          	addi	a4,a4,111 # a80006f <tohost+0xa7e0067>
e00015e0:	cff8                	sw	a4,92(a5)
  (*(volatile unsigned int *)(long)(0x1C002060)) = 0x0A40006F ;
e00015e2:	0a400737          	lui	a4,0xa400
e00015e6:	06f70713          	addi	a4,a4,111 # a40006f <tohost+0xa3e0067>
e00015ea:	d3b8                	sw	a4,96(a5)
  (*(volatile unsigned int *)(long)(0x1C002064)) = 0x0A00006F ;
e00015ec:	0a000737          	lui	a4,0xa000
e00015f0:	06f70713          	addi	a4,a4,111 # a00006f <tohost+0x9fe0067>
e00015f4:	d3f8                	sw	a4,100(a5)
  (*(volatile unsigned int *)(long)(0x1C002068)) = 0x09C0006F ;
e00015f6:	09c00737          	lui	a4,0x9c00
e00015fa:	06f70713          	addi	a4,a4,111 # 9c0006f <tohost+0x9be0067>
e00015fe:	d7b8                	sw	a4,104(a5)
  (*(volatile unsigned int *)(long)(0x1C00206C)) = 0x0980006F ;
e0001600:	09800737          	lui	a4,0x9800
e0001604:	06f70713          	addi	a4,a4,111 # 980006f <tohost+0x97e0067>
e0001608:	d7f8                	sw	a4,108(a5)
  (*(volatile unsigned int *)(long)(0x1C002070)) = 0x0940006F ;
e000160a:	09400737          	lui	a4,0x9400
e000160e:	06f70713          	addi	a4,a4,111 # 940006f <tohost+0x93e0067>
e0001612:	dbb8                	sw	a4,112(a5)
  (*(volatile unsigned int *)(long)(0x1C002074)) = 0x0900006F ;
e0001614:	09000737          	lui	a4,0x9000
e0001618:	06f70713          	addi	a4,a4,111 # 900006f <tohost+0x8fe0067>
e000161c:	dbf8                	sw	a4,116(a5)
  (*(volatile unsigned int *)(long)(0x1C002078)) = 0x08C0006F ;
e000161e:	08c00737          	lui	a4,0x8c00
e0001622:	06f70713          	addi	a4,a4,111 # 8c0006f <tohost+0x8be0067>
e0001626:	dfb8                	sw	a4,120(a5)
  (*(volatile unsigned int *)(long)(0x1C00207C)) = 0x0880006F ;
e0001628:	08800737          	lui	a4,0x8800
e000162c:	06f70713          	addi	a4,a4,111 # 880006f <tohost+0x87e0067>
e0001630:	dff8                	sw	a4,124(a5)
  (*(volatile unsigned int *)(long)(0x1C002080)) = 0x000000B7 ;
e0001632:	0b700693          	li	a3,183
e0001636:	08078713          	addi	a4,a5,128 # 1c002080 <tohost+0x1bfe2078>
e000163a:	c314                	sw	a3,0(a4)
  (*(volatile unsigned int *)(long)(0x1C002084)) = 0x00000137 ;
e000163c:	08478713          	addi	a4,a5,132
e0001640:	13700693          	li	a3,311
e0001644:	c314                	sw	a3,0(a4)
  (*(volatile unsigned int *)(long)(0x1C002088)) = 0x000001B7 ;
e0001646:	08878713          	addi	a4,a5,136
e000164a:	1b700693          	li	a3,439
e000164e:	c314                	sw	a3,0(a4)
  (*(volatile unsigned int *)(long)(0x1C00208C)) = 0x00000237 ;
e0001650:	08c78713          	addi	a4,a5,140
e0001654:	23700693          	li	a3,567
e0001658:	c314                	sw	a3,0(a4)
  (*(volatile unsigned int *)(long)(0x1C002090)) = 0x000002B7 ;
e000165a:	09078713          	addi	a4,a5,144
e000165e:	2b700693          	li	a3,695
e0001662:	c314                	sw	a3,0(a4)
  (*(volatile unsigned int *)(long)(0x1C002094)) = 0x00000337 ;
e0001664:	09478713          	addi	a4,a5,148
e0001668:	33700693          	li	a3,823
e000166c:	c314                	sw	a3,0(a4)
  (*(volatile unsigned int *)(long)(0x1C002098)) = 0x000003B7 ;
e000166e:	09878713          	addi	a4,a5,152
e0001672:	3b700693          	li	a3,951
e0001676:	c314                	sw	a3,0(a4)
  (*(volatile unsigned int *)(long)(0x1C00209C)) = 0x00000437 ;
e0001678:	09c78713          	addi	a4,a5,156
e000167c:	43700693          	li	a3,1079
e0001680:	c314                	sw	a3,0(a4)
  (*(volatile unsigned int *)(long)(0x1C0020A0)) = 0x000004B7 ;
e0001682:	0a078713          	addi	a4,a5,160
e0001686:	4b700693          	li	a3,1207
e000168a:	c314                	sw	a3,0(a4)
  (*(volatile unsigned int *)(long)(0x1C0020A4)) = 0x00000537 ;
e000168c:	0a478713          	addi	a4,a5,164
e0001690:	53700693          	li	a3,1335
e0001694:	c314                	sw	a3,0(a4)
  (*(volatile unsigned int *)(long)(0x1C0020A8)) = 0x000005B7 ;
e0001696:	0a878713          	addi	a4,a5,168
e000169a:	5b700693          	li	a3,1463
e000169e:	c314                	sw	a3,0(a4)
  (*(volatile unsigned int *)(long)(0x1C0020AC)) = 0x00000637 ;
e00016a0:	0ac78713          	addi	a4,a5,172
e00016a4:	63700693          	li	a3,1591
e00016a8:	c314                	sw	a3,0(a4)
  (*(volatile unsigned int *)(long)(0x1C0020B0)) = 0x000006B7 ;
e00016aa:	0b078713          	addi	a4,a5,176
e00016ae:	6b700693          	li	a3,1719
e00016b2:	c314                	sw	a3,0(a4)
  (*(volatile unsigned int *)(long)(0x1C0020B4)) = 0x00000737 ;
e00016b4:	0b478713          	addi	a4,a5,180
e00016b8:	73700693          	li	a3,1847
e00016bc:	c314                	sw	a3,0(a4)
  (*(volatile unsigned int *)(long)(0x1C0020B8)) = 0x000007B7 ;
e00016be:	0b878713          	addi	a4,a5,184
e00016c2:	7b700693          	li	a3,1975
e00016c6:	c314                	sw	a3,0(a4)
  (*(volatile unsigned int *)(long)(0x1C0020BC)) = 0x00000837 ;
e00016c8:	6705                	lui	a4,0x1
e00016ca:	0bc78693          	addi	a3,a5,188
e00016ce:	83770593          	addi	a1,a4,-1993 # 837 <_min_stack-0x17c9>
e00016d2:	c28c                	sw	a1,0(a3)
  (*(volatile unsigned int *)(long)(0x1C0020C0)) = 0x000008B7 ;
e00016d4:	0c078693          	addi	a3,a5,192
e00016d8:	8b770593          	addi	a1,a4,-1865
e00016dc:	c28c                	sw	a1,0(a3)
  (*(volatile unsigned int *)(long)(0x1C0020C4)) = 0x00000937 ;
e00016de:	0c478693          	addi	a3,a5,196
e00016e2:	93770593          	addi	a1,a4,-1737
e00016e6:	c28c                	sw	a1,0(a3)
  (*(volatile unsigned int *)(long)(0x1C0020C8)) = 0x000009B7 ;
e00016e8:	0c878693          	addi	a3,a5,200
e00016ec:	9b770593          	addi	a1,a4,-1609
e00016f0:	c28c                	sw	a1,0(a3)
  (*(volatile unsigned int *)(long)(0x1C0020CC)) = 0x00000A37 ;
e00016f2:	0cc78693          	addi	a3,a5,204
e00016f6:	a3770593          	addi	a1,a4,-1481
e00016fa:	c28c                	sw	a1,0(a3)
  (*(volatile unsigned int *)(long)(0x1C0020D0)) = 0x00000AB7 ;
e00016fc:	0d078693          	addi	a3,a5,208
e0001700:	ab770593          	addi	a1,a4,-1353
e0001704:	c28c                	sw	a1,0(a3)
  (*(volatile unsigned int *)(long)(0x1C0020D4)) = 0x00000B37 ;
e0001706:	0d478693          	addi	a3,a5,212
e000170a:	b3770593          	addi	a1,a4,-1225
e000170e:	c28c                	sw	a1,0(a3)
  (*(volatile unsigned int *)(long)(0x1C0020D8)) = 0x00000BB7 ;
e0001710:	0d878693          	addi	a3,a5,216
e0001714:	bb770593          	addi	a1,a4,-1097
e0001718:	c28c                	sw	a1,0(a3)
  (*(volatile unsigned int *)(long)(0x1C0020DC)) = 0x00000C37 ;
e000171a:	0dc78693          	addi	a3,a5,220
e000171e:	c3770593          	addi	a1,a4,-969
e0001722:	c28c                	sw	a1,0(a3)
  (*(volatile unsigned int *)(long)(0x1C0020E0)) = 0x00000CB7 ;
e0001724:	0e078693          	addi	a3,a5,224
e0001728:	cb770593          	addi	a1,a4,-841
e000172c:	c28c                	sw	a1,0(a3)
  (*(volatile unsigned int *)(long)(0x1C0020E4)) = 0x00000D37 ;
e000172e:	0e478693          	addi	a3,a5,228
e0001732:	d3770593          	addi	a1,a4,-713
e0001736:	c28c                	sw	a1,0(a3)
  (*(volatile unsigned int *)(long)(0x1C0020E8)) = 0x00000DB7 ;
e0001738:	0e878693          	addi	a3,a5,232
e000173c:	db770593          	addi	a1,a4,-585
e0001740:	c28c                	sw	a1,0(a3)
  (*(volatile unsigned int *)(long)(0x1C0020EC)) = 0x00000E37 ;
e0001742:	0ec78693          	addi	a3,a5,236
e0001746:	e3770593          	addi	a1,a4,-457
e000174a:	c28c                	sw	a1,0(a3)
  (*(volatile unsigned int *)(long)(0x1C0020F0)) = 0x00000EB7 ;
e000174c:	0f078693          	addi	a3,a5,240
e0001750:	eb770593          	addi	a1,a4,-329
e0001754:	c28c                	sw	a1,0(a3)
  (*(volatile unsigned int *)(long)(0x1C0020F4)) = 0x00000F37 ;
e0001756:	0f478693          	addi	a3,a5,244
e000175a:	f3770593          	addi	a1,a4,-201
e000175e:	c28c                	sw	a1,0(a3)
  (*(volatile unsigned int *)(long)(0x1C0020F8)) = 0x00000FB7 ;
e0001760:	0f878693          	addi	a3,a5,248
e0001764:	fb770593          	addi	a1,a4,-73
e0001768:	c28c                	sw	a1,0(a3)
  (*(volatile unsigned int *)(long)(0x1C0020FC)) = 0x0700006F ;
e000176a:	070006b7          	lui	a3,0x7000
e000176e:	0fc78593          	addi	a1,a5,252
e0001772:	06f68693          	addi	a3,a3,111 # 700006f <tohost+0x6fe0067>
e0001776:	c194                	sw	a3,0(a1)
  (*(volatile unsigned int *)(long)(0x1C002100)) = 0x3240006F ;
e0001778:	324006b7          	lui	a3,0x32400
e000177c:	10078593          	addi	a1,a5,256
e0001780:	06f68693          	addi	a3,a3,111 # 3240006f <tohost+0x323e0067>
e0001784:	c194                	sw	a3,0(a1)
  (*(volatile unsigned int *)(long)(0x1C002104)) = 0x30200073 ;
e0001786:	302006b7          	lui	a3,0x30200
e000178a:	10478593          	addi	a1,a5,260
e000178e:	07368693          	addi	a3,a3,115 # 30200073 <tohost+0x301e006b>
e0001792:	c194                	sw	a3,0(a1)
  (*(volatile unsigned int *)(long)(0x1C002108)) = 0x00100073 ;
e0001794:	001005b7          	lui	a1,0x100
e0001798:	10878693          	addi	a3,a5,264
e000179c:	07358513          	addi	a0,a1,115 # 100073 <tohost+0xe006b>
e00017a0:	c288                	sw	a0,0(a3)
  (*(volatile unsigned int *)(long)(0x1C00210C)) = 0x00008067 ;
e00017a2:	66a1                	lui	a3,0x8
e00017a4:	10c78513          	addi	a0,a5,268
e00017a8:	06768693          	addi	a3,a3,103 # 8067 <_stack_len+0x67>
e00017ac:	c114                	sw	a3,0(a0)
  (*(volatile unsigned int *)(long)(0x1C002110)) = 0xF3FFE117 ;
e00017ae:	f3ffe6b7          	lui	a3,0xf3ffe
e00017b2:	11078513          	addi	a0,a5,272
e00017b6:	11768693          	addi	a3,a3,279 # f3ffe117 <fromhost+0x13fee107>
e00017ba:	c114                	sw	a3,0(a0)
  (*(volatile unsigned int *)(long)(0x1C002114)) = 0xEF410113 ;
e00017bc:	ef4106b7          	lui	a3,0xef410
e00017c0:	11478513          	addi	a0,a5,276
e00017c4:	11368693          	addi	a3,a3,275 # ef410113 <fromhost+0xf400103>
e00017c8:	c114                	sw	a3,0(a0)
  (*(volatile unsigned int *)(long)(0x1C002118)) = 0x00012103 ;
e00017ca:	66c9                	lui	a3,0x12
e00017cc:	11878513          	addi	a0,a5,280
e00017d0:	10368813          	addi	a6,a3,259 # 12103 <_stack_len+0xa103>
e00017d4:	01052023          	sw	a6,0(a0)
  (*(volatile unsigned int *)(long)(0x1C00211C)) = 0x000011B7 ;
e00017d8:	1b770713          	addi	a4,a4,439
e00017dc:	11c78513          	addi	a0,a5,284
e00017e0:	c118                	sw	a4,0(a0)
  (*(volatile unsigned int *)(long)(0x1C002120)) = 0x80018193 ;
e00017e2:	80018737          	lui	a4,0x80018
e00017e6:	12078513          	addi	a0,a5,288
e00017ea:	19370713          	addi	a4,a4,403 # 80018193 <fromhost+0xa0008183>
e00017ee:	c118                	sw	a4,0(a0)
  (*(volatile unsigned int *)(long)(0x1C002124)) = 0x00158593 ;
e00017f0:	00158737          	lui	a4,0x158
e00017f4:	12478513          	addi	a0,a5,292
e00017f8:	59370713          	addi	a4,a4,1427 # 158593 <tohost+0x13858b>
e00017fc:	c118                	sw	a4,0(a0)
  (*(volatile unsigned int *)(long)(0x1C002128)) = 0x02B180B3 ;
e00017fe:	02b18737          	lui	a4,0x2b18
e0001802:	12878513          	addi	a0,a5,296
e0001806:	0b370713          	addi	a4,a4,179 # 2b180b3 <tohost+0x2af80ab>
e000180a:	c118                	sw	a4,0(a0)
  (*(volatile unsigned int *)(long)(0x1C00212C)) = 0x00110133 ;
e000180c:	00110737          	lui	a4,0x110
e0001810:	12c78513          	addi	a0,a5,300
e0001814:	13370713          	addi	a4,a4,307 # 110133 <tohost+0xf012b>
e0001818:	c118                	sw	a4,0(a0)
  (*(volatile unsigned int *)(long)(0x1C002130)) = 0x3100006F ;
e000181a:	31000737          	lui	a4,0x31000
e000181e:	13078513          	addi	a0,a5,304
e0001822:	06f70713          	addi	a4,a4,111 # 3100006f <tohost+0x30fe0067>
e0001826:	c118                	sw	a4,0(a0)
  (*(volatile unsigned int *)(long)(0x1C002134)) = 0x10200137 ;
e0001828:	10200737          	lui	a4,0x10200
e000182c:	13478513          	addi	a0,a5,308
e0001830:	13770713          	addi	a4,a4,311 # 10200137 <tohost+0x101e012f>
e0001834:	c118                	sw	a4,0(a0)
  (*(volatile unsigned int *)(long)(0x1C002138)) = 0x00100193 ;
e0001836:	19358593          	addi	a1,a1,403
e000183a:	13878713          	addi	a4,a5,312
e000183e:	c30c                	sw	a1,0(a4)
  (*(volatile unsigned int *)(long)(0x1C00213C)) = 0x00000217 ;
e0001840:	13c78713          	addi	a4,a5,316
e0001844:	21700593          	li	a1,535
e0001848:	c30c                	sw	a1,0(a4)
  (*(volatile unsigned int *)(long)(0x1C002140)) = 0xF4420213 ;
e000184a:	f4420737          	lui	a4,0xf4420
e000184e:	14078593          	addi	a1,a5,320
e0001852:	21370713          	addi	a4,a4,531 # f4420213 <fromhost+0x14410203>
e0001856:	c198                	sw	a4,0(a1)
  (*(volatile unsigned int *)(long)(0x1C002144)) = 0x04412023 ;
e0001858:	04412737          	lui	a4,0x4412
e000185c:	14478593          	addi	a1,a5,324
e0001860:	02370713          	addi	a4,a4,35 # 4412023 <tohost+0x43f201b>
e0001864:	c198                	sw	a4,0(a1)
  (*(volatile unsigned int *)(long)(0x1C002148)) = 0x00312423 ;
e0001866:	00312737          	lui	a4,0x312
e000186a:	14878593          	addi	a1,a5,328
e000186e:	42370713          	addi	a4,a4,1059 # 312423 <tohost+0x2f241b>
e0001872:	c198                	sw	a4,0(a1)
  (*(volatile unsigned int *)(long)(0x1C00214C)) = 0x1A10A137 ;
e0001874:	1a10a737          	lui	a4,0x1a10a
e0001878:	14c78593          	addi	a1,a5,332
e000187c:	13770713          	addi	a4,a4,311 # 1a10a137 <tohost+0x1a0ea12f>
e0001880:	c198                	sw	a4,0(a1)
  (*(volatile unsigned int *)(long)(0x1C002150)) = 0x80010113 ;
e0001882:	80010737          	lui	a4,0x80010
e0001886:	15078593          	addi	a1,a5,336
e000188a:	11370713          	addi	a4,a4,275 # 80010113 <fromhost+0xa0000103>
e000188e:	c198                	sw	a4,0(a1)
  (*(volatile unsigned int *)(long)(0x1C002154)) = 0x00012023 ;
e0001890:	02368693          	addi	a3,a3,35
e0001894:	15478713          	addi	a4,a5,340
e0001898:	c314                	sw	a3,0(a4)
  (*(volatile unsigned int *)(long)(0x1C002158)) = 0x10500073 ;
e000189a:	105006b7          	lui	a3,0x10500
e000189e:	15878593          	addi	a1,a5,344
e00018a2:	07368693          	addi	a3,a3,115 # 10500073 <tohost+0x104e006b>
e00018a6:	c194                	sw	a3,0(a1)
  (*(volatile unsigned int *)(long)(0x1C00215C)) = 0xFF1FF06F ;
e00018a8:	ff1ff6b7          	lui	a3,0xff1ff
e00018ac:	15c78593          	addi	a1,a5,348
e00018b0:	06f68693          	addi	a3,a3,111 # ff1ff06f <fromhost+0x1f1ef05f>
e00018b4:	c194                	sw	a3,0(a1)
  (*(volatile unsigned int *)(long)(0x1C002160)) = 0x0002A303 ;
e00018b6:	0002a6b7          	lui	a3,0x2a
e00018ba:	16078593          	addi	a1,a5,352
e00018be:	30368513          	addi	a0,a3,771 # 2a303 <tohost+0xa2fb>
e00018c2:	c188                	sw	a0,0(a1)
  (*(volatile unsigned int *)(long)(0x1C002164)) = 0xFA0316E3 ;
e00018c4:	fa0315b7          	lui	a1,0xfa031
e00018c8:	16478513          	addi	a0,a5,356
e00018cc:	6e358593          	addi	a1,a1,1763 # fa0316e3 <fromhost+0x1a0216d3>
e00018d0:	c10c                	sw	a1,0(a0)
  (*(volatile unsigned int *)(long)(0x1C002168)) = 0xFF9FF06F ;
e00018d2:	ff9ff5b7          	lui	a1,0xff9ff
e00018d6:	16878513          	addi	a0,a5,360
  (*(volatile unsigned int *)(long)(0x1C00216C)) = 0xF1402573 ;
e00018da:	f1402337          	lui	t1,0xf1402
  (*(volatile unsigned int *)(long)(0x1C002168)) = 0xFF9FF06F ;
e00018de:	06f58593          	addi	a1,a1,111 # ff9ff06f <fromhost+0x1f9ef05f>
e00018e2:	c10c                	sw	a1,0(a0)
  (*(volatile unsigned int *)(long)(0x1C00216C)) = 0xF1402573 ;
e00018e4:	16c78593          	addi	a1,a5,364
e00018e8:	57330513          	addi	a0,t1,1395 # f1402573 <fromhost+0x113f2563>
e00018ec:	c188                	sw	a0,0(a1)
  (*(volatile unsigned int *)(long)(0x1C002170)) = 0x01F57593 ;
e00018ee:	01f575b7          	lui	a1,0x1f57
e00018f2:	17078513          	addi	a0,a5,368
e00018f6:	59358593          	addi	a1,a1,1427 # 1f57593 <tohost+0x1f3758b>
e00018fa:	c10c                	sw	a1,0(a0)
  (*(volatile unsigned int *)(long)(0x1C002174)) = 0x100002B7 ;
e00018fc:	2b760613          	addi	a2,a2,695
e0001900:	17478593          	addi	a1,a5,372
e0001904:	c190                	sw	a2,0(a1)
  (*(volatile unsigned int *)(long)(0x1C002178)) = 0x0002A023 ;
e0001906:	02368693          	addi	a3,a3,35
e000190a:	17878613          	addi	a2,a5,376
e000190e:	c214                	sw	a3,0(a2)
  (*(volatile unsigned int *)(long)(0x1C00217C)) = 0x00050463 ;
e0001910:	00050637          	lui	a2,0x50
e0001914:	17c78593          	addi	a1,a5,380
e0001918:	46360613          	addi	a2,a2,1123 # 50463 <tohost+0x3045b>
e000191c:	c190                	sw	a2,0(a1)
  (*(volatile unsigned int *)(long)(0x1C002180)) = 0xFE1FF06F ;
e000191e:	fe1ff637          	lui	a2,0xfe1ff
e0001922:	18078593          	addi	a1,a5,384
e0001926:	06f60613          	addi	a2,a2,111 # fe1ff06f <fromhost+0x1e1ef05f>
e000192a:	c190                	sw	a2,0(a1)
  (*(volatile unsigned int *)(long)(0x1C002184)) = 0xFFFFE297 ;
e000192c:	7679                	lui	a2,0xffffe
e000192e:	18478593          	addi	a1,a5,388
e0001932:	29760513          	addi	a0,a2,663 # ffffe297 <fromhost+0x1ffee287>
e0001936:	c188                	sw	a0,0(a1)
  (*(volatile unsigned int *)(long)(0x1C002188)) = 0x79C28293 ;
e0001938:	79c285b7          	lui	a1,0x79c28
e000193c:	18878513          	addi	a0,a5,392
e0001940:	29358593          	addi	a1,a1,659 # 79c28293 <tohost+0x79c0828b>
e0001944:	c10c                	sw	a1,0(a0)
  (*(volatile unsigned int *)(long)(0x1C00218C)) = 0xFFFFE317 ;
e0001946:	31760613          	addi	a2,a2,791
e000194a:	18c78593          	addi	a1,a5,396
e000194e:	c190                	sw	a2,0(a1)
  (*(volatile unsigned int *)(long)(0x1C002190)) = 0x7BC30313 ;
e0001950:	7bc30637          	lui	a2,0x7bc30
e0001954:	19078593          	addi	a1,a5,400
e0001958:	31360613          	addi	a2,a2,787 # 7bc30313 <tohost+0x7bc1030b>
e000195c:	c190                	sw	a2,0(a1)
  (*(volatile unsigned int *)(long)(0x1C002194)) = 0x0002A023 ;
e000195e:	19478613          	addi	a2,a5,404
e0001962:	c214                	sw	a3,0(a2)
  (*(volatile unsigned int *)(long)(0x1C002198)) = 0xEDE30291 ;
e0001964:	ede306b7          	lui	a3,0xede30
e0001968:	19878613          	addi	a2,a5,408
e000196c:	29168693          	addi	a3,a3,657 # ede30291 <fromhost+0xde20281>
e0001970:	c214                	sw	a3,0(a2)
  (*(volatile unsigned int *)(long)(0x1C00219C)) = 0xE117FE62 ;
e0001972:	e11806b7          	lui	a3,0xe1180
e0001976:	19c78613          	addi	a2,a5,412
e000197a:	e6268693          	addi	a3,a3,-414 # e117fe62 <fromhost+0x116fe52>
e000197e:	c214                	sw	a3,0(a2)
  (*(volatile unsigned int *)(long)(0x1C0021A0)) = 0x0113FFFF ;
e0001980:	011406b7          	lui	a3,0x1140
e0001984:	1a078613          	addi	a2,a5,416
e0001988:	16fd                	addi	a3,a3,-1 # 113ffff <tohost+0x111fff7>
e000198a:	c214                	sw	a3,0(a2)
  (*(volatile unsigned int *)(long)(0x1C0021A4)) = 0x00EF7821 ;
e000198c:	00ef86b7          	lui	a3,0xef8
e0001990:	1a478613          	addi	a2,a5,420
e0001994:	82168593          	addi	a1,a3,-2015 # ef7821 <tohost+0xed7819>
e0001998:	c20c                	sw	a1,0(a2)
  (*(volatile unsigned int *)(long)(0x1C0021A8)) = 0x25730F20 ;
e000199a:	25731637          	lui	a2,0x25731
e000199e:	1a878593          	addi	a1,a5,424
e00019a2:	f2060613          	addi	a2,a2,-224 # 25730f20 <tohost+0x25710f18>
e00019a6:	c190                	sw	a2,0(a1)
  (*(volatile unsigned int *)(long)(0x1C0021AC)) = 0x7593F140 ;
e00019a8:	7593f637          	lui	a2,0x7593f
e00019ac:	1ac78593          	addi	a1,a5,428
e00019b0:	14060613          	addi	a2,a2,320 # 7593f140 <tohost+0x7591f138>
e00019b4:	c190                	sw	a2,0(a1)
  (*(volatile unsigned int *)(long)(0x1C0021B0)) = 0x02B701F5 ;
e00019b6:	02b70637          	lui	a2,0x2b70
e00019ba:	1b078593          	addi	a1,a5,432
e00019be:	1f560613          	addi	a2,a2,501 # 2b701f5 <tohost+0x2b501ed>
e00019c2:	c190                	sw	a2,0(a1)
  (*(volatile unsigned int *)(long)(0x1C0021B4)) = 0x43051000 ;
e00019c4:	1b478613          	addi	a2,a5,436
e00019c8:	430515b7          	lui	a1,0x43051
e00019cc:	c20c                	sw	a1,0(a2)
  (*(volatile unsigned int *)(long)(0x1C0021B8)) = 0x0062A023 ;
e00019ce:	0062a637          	lui	a2,0x62a
e00019d2:	1b878593          	addi	a1,a5,440
e00019d6:	02360613          	addi	a2,a2,35 # 62a023 <tohost+0x60a01b>
e00019da:	c190                	sw	a2,0(a1)
  (*(volatile unsigned int *)(long)(0x1C0021BC)) = 0xF55FF06F ;
e00019dc:	f55ff637          	lui	a2,0xf55ff
e00019e0:	1bc78593          	addi	a1,a5,444
e00019e4:	06f60613          	addi	a2,a2,111 # f55ff06f <fromhost+0x155ef05f>
e00019e8:	c190                	sw	a2,0(a1)
  (*(volatile unsigned int *)(long)(0x1C0021C0)) = 0x00000513 ;
e00019ea:	1c078613          	addi	a2,a5,448
e00019ee:	51300593          	li	a1,1299
e00019f2:	c20c                	sw	a1,0(a2)
  (*(volatile unsigned int *)(long)(0x1C0021C4)) = 0x00000593 ;
e00019f4:	1c478613          	addi	a2,a5,452
e00019f8:	59300593          	li	a1,1427
e00019fc:	c20c                	sw	a1,0(a2)
  (*(volatile unsigned int *)(long)(0x1C0021C8)) = 0x00000397 ;
e00019fe:	1c878613          	addi	a2,a5,456
e0001a02:	39700593          	li	a1,919
e0001a06:	c20c                	sw	a1,0(a2)
  (*(volatile unsigned int *)(long)(0x1C0021CC)) = 0x01838393 ;
e0001a08:	01838637          	lui	a2,0x1838
e0001a0c:	1cc78593          	addi	a1,a5,460
e0001a10:	39360613          	addi	a2,a2,915 # 1838393 <tohost+0x181838b>
e0001a14:	c190                	sw	a2,0(a1)
  (*(volatile unsigned int *)(long)(0x1C0021D0)) = 0x000380E7 ;
e0001a16:	00038637          	lui	a2,0x38
e0001a1a:	1d078593          	addi	a1,a5,464
e0001a1e:	0e760613          	addi	a2,a2,231 # 380e7 <tohost+0x180df>
e0001a22:	c190                	sw	a2,0(a1)
  (*(volatile unsigned int *)(long)(0x1C0021D4)) = 0x00EF842A ;
e0001a24:	42a68693          	addi	a3,a3,1066
e0001a28:	1d478613          	addi	a2,a5,468
e0001a2c:	c214                	sw	a3,0(a2)
  (*(volatile unsigned int *)(long)(0x1C0021D8)) = 0x85221060 ;
e0001a2e:	852216b7          	lui	a3,0x85221
e0001a32:	1d878613          	addi	a2,a5,472
e0001a36:	06068693          	addi	a3,a3,96 # 85221060 <fromhost+0xa5211050>
e0001a3a:	c214                	sw	a3,0(a2)
  (*(volatile unsigned int *)(long)(0x1C0021DC)) = 0x09A000EF ;
e0001a3c:	09a006b7          	lui	a3,0x9a00
e0001a40:	1dc78613          	addi	a2,a5,476
e0001a44:	0ef68693          	addi	a3,a3,239 # 9a000ef <tohost+0x99e00e7>
e0001a48:	c214                	sw	a3,0(a2)
  (*(volatile unsigned int *)(long)(0x1C0021E0)) = 0x27F31141 ;
e0001a4a:	27f31637          	lui	a2,0x27f31
e0001a4e:	1e078693          	addi	a3,a5,480
e0001a52:	14160593          	addi	a1,a2,321 # 27f31141 <tohost+0x27f11139>
e0001a56:	c28c                	sw	a1,0(a3)
  (*(volatile unsigned int *)(long)(0x1C0021E4)) = 0xC606F140 ;
e0001a58:	c606f6b7          	lui	a3,0xc606f
e0001a5c:	1e478593          	addi	a1,a5,484
e0001a60:	14068693          	addi	a3,a3,320 # c606f140 <fromhost+0xe605f130>
  (*(volatile unsigned int *)(long)(0x1C0021E8)) = 0xF457B7B3 ;
e0001a64:	f457b8b7          	lui	a7,0xf457b
  (*(volatile unsigned int *)(long)(0x1C0021E4)) = 0xC606F140 ;
e0001a68:	c194                	sw	a3,0(a1)
  (*(volatile unsigned int *)(long)(0x1C0021E8)) = 0xF457B7B3 ;
e0001a6a:	7b388893          	addi	a7,a7,1971 # f457b7b3 <fromhost+0x1456b7a3>
e0001a6e:	1e878693          	addi	a3,a5,488
e0001a72:	0116a023          	sw	a7,0(a3)
  (*(volatile unsigned int *)(long)(0x1C0021EC)) = 0x07B7EB81 ;
e0001a76:	07b7f6b7          	lui	a3,0x7b7f
e0001a7a:	1ec78593          	addi	a1,a5,492
e0001a7e:	b8168693          	addi	a3,a3,-1151 # 7b7eb81 <tohost+0x7b5eb79>
e0001a82:	c194                	sw	a3,0(a1)
  (*(volatile unsigned int *)(long)(0x1C0021F0)) = 0xA0231000 ;
e0001a84:	1f078693          	addi	a3,a5,496
e0001a88:	a02315b7          	lui	a1,0xa0231
e0001a8c:	c28c                	sw	a1,0(a3)
  (*(volatile unsigned int *)(long)(0x1C0021F4)) = 0x43980007 ;
e0001a8e:	439806b7          	lui	a3,0x43980
e0001a92:	1f478593          	addi	a1,a5,500
e0001a96:	069d                	addi	a3,a3,7 # 43980007 <tohost+0x4395ffff>
e0001a98:	c194                	sw	a3,0(a1)
  (*(volatile unsigned int *)(long)(0x1C0021F8)) = 0xC3980705 ;
e0001a9a:	c39806b7          	lui	a3,0xc3980
e0001a9e:	1f878593          	addi	a1,a5,504
e0001aa2:	70568693          	addi	a3,a3,1797 # c3980705 <fromhost+0xe39706f5>
e0001aa6:	c194                	sw	a3,0(a1)
  (*(volatile unsigned int *)(long)(0x1C0021FC)) = 0x07372CDD ;
e0001aa8:	073736b7          	lui	a3,0x7373
e0001aac:	1fc78593          	addi	a1,a5,508
e0001ab0:	cdd68693          	addi	a3,a3,-803 # 7372cdd <tohost+0x7352cd5>
e0001ab4:	c194                	sw	a3,0(a1)
  (*(volatile unsigned int *)(long)(0x1C002200)) = 0x27F31000 ;
e0001ab6:	20078693          	addi	a3,a5,512
e0001aba:	c290                	sw	a2,0(a3)
  (*(volatile unsigned int *)(long)(0x1C002204)) = 0xB7B3F140 ;
e0001abc:	b7b3f6b7          	lui	a3,0xb7b3f
e0001ac0:	20478613          	addi	a2,a5,516
e0001ac4:	14068693          	addi	a3,a3,320 # b7b3f140 <fromhost+0xd7b2f130>
e0001ac8:	c214                	sw	a3,0(a2)
  (*(volatile unsigned int *)(long)(0x1C002208)) = 0x4314F457 ;
e0001aca:	4314f637          	lui	a2,0x4314f
e0001ace:	20878593          	addi	a1,a5,520
e0001ad2:	45760613          	addi	a2,a2,1111 # 4314f457 <tohost+0x4312f44f>
e0001ad6:	c190                	sw	a2,0(a1)
  (*(volatile unsigned int *)(long)(0x1C00220C)) = 0xFEF6EFE3 ;
e0001ad8:	fef6f637          	lui	a2,0xfef6f
e0001adc:	20c78593          	addi	a1,a5,524
e0001ae0:	160d                	addi	a2,a2,-29 # fef6efe3 <fromhost+0x1ef5efd3>
e0001ae2:	c190                	sw	a2,0(a1)
  (*(volatile unsigned int *)(long)(0x1C002210)) = 0x431CC781 ;
e0001ae4:	431cc637          	lui	a2,0x431cc
e0001ae8:	21078593          	addi	a1,a5,528
e0001aec:	78160613          	addi	a2,a2,1921 # 431cc781 <tohost+0x431ac779>
e0001af0:	c190                	sw	a2,0(a1)
  (*(volatile unsigned int *)(long)(0x1C002214)) = 0xC31C0785 ;
e0001af2:	c31c0637          	lui	a2,0xc31c0
e0001af6:	21478593          	addi	a1,a5,532
e0001afa:	78560613          	addi	a2,a2,1925 # c31c0785 <fromhost+0xe31b0775>
e0001afe:	c190                	sw	a2,0(a1)
  (*(volatile unsigned int *)(long)(0x1C002218)) = 0x27F32CE9 ;
e0001b00:	27f33637          	lui	a2,0x27f33
e0001b04:	21878593          	addi	a1,a5,536
e0001b08:	ce960613          	addi	a2,a2,-791 # 27f32ce9 <tohost+0x27f12ce1>
e0001b0c:	c190                	sw	a2,0(a1)
  (*(volatile unsigned int *)(long)(0x1C00221C)) = 0xB7B3F140 ;
e0001b0e:	21c78613          	addi	a2,a5,540
e0001b12:	c214                	sw	a3,0(a2)
  (*(volatile unsigned int *)(long)(0x1C002220)) = 0xEB95F457 ;
e0001b14:	eb95f6b7          	lui	a3,0xeb95f
e0001b18:	22078613          	addi	a2,a5,544
e0001b1c:	45768693          	addi	a3,a3,1111 # eb95f457 <fromhost+0xb94f447>
e0001b20:	c214                	sw	a3,0(a2)
  (*(volatile unsigned int *)(long)(0x1C002224)) = 0x104047B7 ;
e0001b22:	104046b7          	lui	a3,0x10404
e0001b26:	22478613          	addi	a2,a5,548
e0001b2a:	7b768693          	addi	a3,a3,1975 # 104047b7 <tohost+0x103e47af>
e0001b2e:	c214                	sw	a3,0(a2)
  (*(volatile unsigned int *)(long)(0x1C002228)) = 0xBAADC737 ;
e0001b30:	baadc6b7          	lui	a3,0xbaadc
e0001b34:	22878613          	addi	a2,a5,552
e0001b38:	73768693          	addi	a3,a3,1847 # baadc737 <fromhost+0xdaacc727>
e0001b3c:	c214                	sw	a3,0(a2)
  (*(volatile unsigned int *)(long)(0x1C00222C)) = 0x0DE70713 ;
e0001b3e:	0de706b7          	lui	a3,0xde70
e0001b42:	22c78613          	addi	a2,a5,556
e0001b46:	71368693          	addi	a3,a3,1811 # de70713 <tohost+0xde5070b>
e0001b4a:	c214                	sw	a3,0(a2)
  (*(volatile unsigned int *)(long)(0x1C002230)) = 0x00878693 ;
e0001b4c:	008786b7          	lui	a3,0x878
e0001b50:	23078613          	addi	a2,a5,560
e0001b54:	69368693          	addi	a3,a3,1683 # 878693 <tohost+0x85868b>
e0001b58:	c214                	sw	a3,0(a2)
  (*(volatile unsigned int *)(long)(0x1C002234)) = 0x8693C298 ;
e0001b5a:	8693c637          	lui	a2,0x8693c
e0001b5e:	23478693          	addi	a3,a5,564
e0001b62:	29860613          	addi	a2,a2,664 # 8693c298 <fromhost+0xa692c288>
e0001b66:	c290                	sw	a2,0(a3)
  (*(volatile unsigned int *)(long)(0x1C002238)) = 0xC2980107 ;
e0001b68:	c29806b7          	lui	a3,0xc2980
e0001b6c:	23878593          	addi	a1,a5,568
e0001b70:	10768513          	addi	a0,a3,263 # c2980107 <fromhost+0xe29700f7>
e0001b74:	c188                	sw	a0,0(a1)
  (*(volatile unsigned int *)(long)(0x1C00223C)) = 0x01478693 ;
e0001b76:	014785b7          	lui	a1,0x1478
e0001b7a:	23c78513          	addi	a0,a5,572
e0001b7e:	69358593          	addi	a1,a1,1683 # 1478693 <tohost+0x145868b>
e0001b82:	c10c                	sw	a1,0(a0)
  (*(volatile unsigned int *)(long)(0x1C002240)) = 0x8693C298 ;
e0001b84:	24078593          	addi	a1,a5,576
e0001b88:	c190                	sw	a2,0(a1)
  (*(volatile unsigned int *)(long)(0x1C002244)) = 0xC2980187 ;
e0001b8a:	18768693          	addi	a3,a3,391
e0001b8e:	24478613          	addi	a2,a5,580
e0001b92:	c214                	sw	a3,0(a2)
  (*(volatile unsigned int *)(long)(0x1C002248)) = 0x01C78693 ;
e0001b94:	01c786b7          	lui	a3,0x1c78
e0001b98:	24878613          	addi	a2,a5,584
e0001b9c:	69368693          	addi	a3,a3,1683 # 1c78693 <tohost+0x1c5868b>
  (*(volatile unsigned int *)(long)(0x1C00224C)) = 0x8793C298 ;
e0001ba0:	8793ce37          	lui	t3,0x8793c
  (*(volatile unsigned int *)(long)(0x1C002248)) = 0x01C78693 ;
e0001ba4:	c214                	sw	a3,0(a2)
  (*(volatile unsigned int *)(long)(0x1C00224C)) = 0x8793C298 ;
e0001ba6:	24c78693          	addi	a3,a5,588
e0001baa:	298e0613          	addi	a2,t3,664 # 8793c298 <fromhost+0xa792c288>
e0001bae:	c290                	sw	a2,0(a3)
  (*(volatile unsigned int *)(long)(0x1C002250)) = 0x47050207 ;
e0001bb0:	470506b7          	lui	a3,0x47050
e0001bb4:	25078613          	addi	a2,a5,592
e0001bb8:	20768693          	addi	a3,a3,519 # 47050207 <tohost+0x470301ff>
e0001bbc:	c214                	sw	a3,0(a2)
  (*(volatile unsigned int *)(long)(0x1C002254)) = 0x0073C398 ;
e0001bbe:	0073c6b7          	lui	a3,0x73c
e0001bc2:	25478613          	addi	a2,a5,596
e0001bc6:	39868693          	addi	a3,a3,920 # 73c398 <tohost+0x71c390>
e0001bca:	c214                	sw	a3,0(a2)
  (*(volatile unsigned int *)(long)(0x1C002258)) = 0xBFF51050 ;
e0001bcc:	bff516b7          	lui	a3,0xbff51
  (*(volatile unsigned int *)(long)(0x1C00225C)) = 0x1C0016B7 ;
e0001bd0:	1c001837          	lui	a6,0x1c001
  (*(volatile unsigned int *)(long)(0x1C002258)) = 0xBFF51050 ;
e0001bd4:	25878613          	addi	a2,a5,600
e0001bd8:	05068693          	addi	a3,a3,80 # bff51050 <fromhost+0xdff41040>
e0001bdc:	c214                	sw	a3,0(a2)
  (*(volatile unsigned int *)(long)(0x1C00225C)) = 0x1C0016B7 ;
e0001bde:	25c78693          	addi	a3,a5,604
e0001be2:	6b780613          	addi	a2,a6,1719 # 1c0016b7 <tohost+0x1bfe16af>
e0001be6:	c290                	sw	a2,0(a3)
  (*(volatile unsigned int *)(long)(0x1C002260)) = 0x004C57B7 ;
e0001be8:	004c56b7          	lui	a3,0x4c5
e0001bec:	26078613          	addi	a2,a5,608
e0001bf0:	7b768693          	addi	a3,a3,1975 # 4c57b7 <tohost+0x4a57af>
e0001bf4:	c214                	sw	a3,0(a2)
  (*(volatile unsigned int *)(long)(0x1C002264)) = 0xB4078793 ;
e0001bf6:	b40786b7          	lui	a3,0xb4078
e0001bfa:	26478613          	addi	a2,a5,612
e0001bfe:	79368693          	addi	a3,a3,1939 # b4078793 <fromhost+0xd4068783>
e0001c02:	c214                	sw	a3,0(a2)
  (*(volatile unsigned int *)(long)(0x1C002268)) = 0x92868713 ;
e0001c04:	928686b7          	lui	a3,0x92868
e0001c08:	26878613          	addi	a2,a5,616
e0001c0c:	71368693          	addi	a3,a3,1811 # 92868713 <fromhost+0xb2858703>
e0001c10:	c214                	sw	a3,0(a2)
  (*(volatile unsigned int *)(long)(0x1C00226C)) = 0x92F6A423 ;
e0001c12:	92f6a6b7          	lui	a3,0x92f6a
e0001c16:	26c78613          	addi	a2,a5,620
e0001c1a:	42368693          	addi	a3,a3,1059 # 92f6a423 <fromhost+0xb2f5a413>
e0001c1e:	c214                	sw	a3,0(a2)
  (*(volatile unsigned int *)(long)(0x1C002270)) = 0xC35CC71C ;
e0001c20:	c35cc6b7          	lui	a3,0xc35cc
e0001c24:	27078613          	addi	a2,a5,624
e0001c28:	71c68693          	addi	a3,a3,1820 # c35cc71c <fromhost+0xe35bc70c>
  (*(volatile unsigned int *)(long)(0x1C002274)) = 0x47B78082 ;
e0001c2c:	47b78537          	lui	a0,0x47b78
  (*(volatile unsigned int *)(long)(0x1C002270)) = 0xC35CC71C ;
e0001c30:	c214                	sw	a3,0(a2)
  (*(volatile unsigned int *)(long)(0x1C002274)) = 0x47B78082 ;
e0001c32:	08250513          	addi	a0,a0,130 # 47b78082 <tohost+0x47b5807a>
e0001c36:	27478693          	addi	a3,a5,628
e0001c3a:	c288                	sw	a0,0(a3)
  (*(volatile unsigned int *)(long)(0x1C002278)) = 0x45331A10 ;
e0001c3c:	453326b7          	lui	a3,0x45332
e0001c40:	27878613          	addi	a2,a5,632
e0001c44:	a1068693          	addi	a3,a3,-1520 # 45331a10 <tohost+0x45311a08>
e0001c48:	c214                	sw	a3,0(a2)
  (*(volatile unsigned int *)(long)(0x1C00227C)) = 0xA023C1F5 ;
e0001c4a:	a023c6b7          	lui	a3,0xa023c
e0001c4e:	27c78613          	addi	a2,a5,636
e0001c52:	1f568693          	addi	a3,a3,501 # a023c1f5 <fromhost+0xc022c1e5>
e0001c56:	c214                	sw	a3,0(a2)
  (*(volatile unsigned int *)(long)(0x1C002280)) = 0x577D0AA7 ;
e0001c58:	577d16b7          	lui	a3,0x577d1
e0001c5c:	28078613          	addi	a2,a5,640
e0001c60:	aa768693          	addi	a3,a3,-1369 # 577d0aa7 <tohost+0x577b0a9f>
e0001c64:	c214                	sw	a3,0(a2)
  (*(volatile unsigned int *)(long)(0x1C002284)) = 0x002047B7 ;
e0001c66:	00204637          	lui	a2,0x204
e0001c6a:	28478693          	addi	a3,a5,644
e0001c6e:	7b760593          	addi	a1,a2,1975 # 2047b7 <tohost+0x1e47af>
e0001c72:	c28c                	sw	a1,0(a3)
  (*(volatile unsigned int *)(long)(0x1C002288)) = 0xE703C3D8 ;
e0001c74:	e703c6b7          	lui	a3,0xe703c
e0001c78:	28878593          	addi	a1,a5,648
e0001c7c:	3d868693          	addi	a3,a3,984 # e703c3d8 <fromhost+0x702c3c8>
e0001c80:	c194                	sw	a3,0(a1)
  (*(volatile unsigned int *)(long)(0x1C00228C)) = 0xA0010387 ;
e0001c82:	a00106b7          	lui	a3,0xa0010
e0001c86:	28c78593          	addi	a1,a5,652
e0001c8a:	38768693          	addi	a3,a3,903 # a0010387 <fromhost+0xc0000377>
e0001c8e:	c194                	sw	a3,0(a1)
  (*(volatile unsigned int *)(long)(0x1C002290)) = 0x80824501 ;
e0001c90:	808246b7          	lui	a3,0x80824
e0001c94:	29078593          	addi	a1,a5,656
e0001c98:	50168693          	addi	a3,a3,1281 # 80824501 <fromhost+0xa08144f1>
e0001c9c:	c194                	sw	a3,0(a1)
  (*(volatile unsigned int *)(long)(0x1C002294)) = 0x80824501 ;
e0001c9e:	29478593          	addi	a1,a5,660
e0001ca2:	c194                	sw	a3,0(a1)
  (*(volatile unsigned int *)(long)(0x1C002298)) = 0xC4221141 ;
e0001ca4:	c42216b7          	lui	a3,0xc4221
e0001ca8:	14168693          	addi	a3,a3,321 # c4221141 <fromhost+0xe4211131>
e0001cac:	29878593          	addi	a1,a5,664
  (*(volatile unsigned int *)(long)(0x1C00229C)) = 0x1C000437 ;
e0001cb0:	1c000eb7          	lui	t4,0x1c000
  (*(volatile unsigned int *)(long)(0x1C002298)) = 0xC4221141 ;
e0001cb4:	c194                	sw	a3,0(a1)
  (*(volatile unsigned int *)(long)(0x1C00229C)) = 0x1C000437 ;
e0001cb6:	437e8e93          	addi	t4,t4,1079 # 1c000437 <tohost+0x1bfe042f>
e0001cba:	29c78593          	addi	a1,a5,668
e0001cbe:	01d5a023          	sw	t4,0(a1)
  (*(volatile unsigned int *)(long)(0x1C0022A0)) = 0x0413C606 ;
e0001cc2:	0413c5b7          	lui	a1,0x413c
e0001cc6:	60658593          	addi	a1,a1,1542 # 413c606 <tohost+0x411c5fe>
  (*(volatile unsigned int *)(long)(0x1C0022A4)) = 0x3F5D1044 ;
e0001cca:	3f5d1f37          	lui	t5,0x3f5d1
  (*(volatile unsigned int *)(long)(0x1C0022A0)) = 0x0413C606 ;
e0001cce:	2ab7a023          	sw	a1,672(a5)
  (*(volatile unsigned int *)(long)(0x1C0022A4)) = 0x3F5D1044 ;
e0001cd2:	044f0f13          	addi	t5,t5,68 # 3f5d1044 <tohost+0x3f5b103c>
e0001cd6:	2be7a223          	sw	t5,676(a5)
  (*(volatile unsigned int *)(long)(0x1C0022A8)) = 0x2A512ABD ;
e0001cda:	2a513f37          	lui	t5,0x2a513
e0001cde:	abdf0f13          	addi	t5,t5,-1347 # 2a512abd <tohost+0x2a4f2ab5>
e0001ce2:	2be7a423          	sw	t5,680(a5)
  (*(volatile unsigned int *)(long)(0x1C0022AC)) = 0x405C28D9 ;
e0001ce6:	405c3f37          	lui	t5,0x405c3
e0001cea:	8d9f0f13          	addi	t5,t5,-1831 # 405c28d9 <tohost+0x405a28d1>
e0001cee:	2be7a623          	sw	t5,684(a5)
  (*(volatile unsigned int *)(long)(0x1C0022B0)) = 0x0421C791 ;
e0001cf2:	0421cf37          	lui	t5,0x421c
e0001cf6:	791f0f13          	addi	t5,t5,1937 # 421c791 <tohost+0x41fc789>
e0001cfa:	2be7a823          	sw	t5,688(a5)
  (*(volatile unsigned int *)(long)(0x1C0022B4)) = 0x278B9782 ;
e0001cfe:	278b9f37          	lui	t5,0x278b9
e0001d02:	782f0f13          	addi	t5,t5,1922 # 278b9782 <tohost+0x2789977a>
e0001d06:	2be7aa23          	sw	t5,692(a5)
  (*(volatile unsigned int *)(long)(0x1C0022B8)) = 0xFFED0044 ;
e0001d0a:	ffed0f37          	lui	t5,0xffed0
e0001d0e:	044f0f13          	addi	t5,t5,68 # ffed0044 <fromhost+0x1fec0034>
e0001d12:	2be7ac23          	sw	t5,696(a5)
  (*(volatile unsigned int *)(long)(0x1C0022BC)) = 0x67F33FD1 ;
e0001d16:	67f34f37          	lui	t5,0x67f34
e0001d1a:	fd1f0f13          	addi	t5,t5,-47 # 67f33fd1 <tohost+0x67f13fc9>
e0001d1e:	2be7ae23          	sw	t5,700(a5)
  (*(volatile unsigned int *)(long)(0x1C0022C0)) = 0x44223004 ;
e0001d22:	44223f37          	lui	t5,0x44223
e0001d26:	0f11                	addi	t5,t5,4 # 44223004 <tohost+0x44202ffc>
e0001d28:	2de7a023          	sw	t5,704(a5)
  (*(volatile unsigned int *)(long)(0x1C0022C4)) = 0x257340B2 ;
e0001d2c:	25734f37          	lui	t5,0x25734
e0001d30:	0b2f0f13          	addi	t5,t5,178 # 257340b2 <tohost+0x257140aa>
e0001d34:	2de7a223          	sw	t5,708(a5)
  (*(volatile unsigned int *)(long)(0x1C0022C8)) = 0x25B7F140 ;
e0001d38:	25b7ff37          	lui	t5,0x25b7f
e0001d3c:	140f0f13          	addi	t5,t5,320 # 25b7f140 <tohost+0x25b5f138>
e0001d40:	2de7a423          	sw	t5,712(a5)
  (*(volatile unsigned int *)(long)(0x1C0022CC)) = 0x85151C00 ;
e0001d44:	85152f37          	lui	t5,0x85152
e0001d48:	c00f0f13          	addi	t5,t5,-1024 # 85151c00 <fromhost+0xa5141bf0>
e0001d4c:	2de7a623          	sw	t5,716(a5)
  (*(volatile unsigned int *)(long)(0x1C0022D0)) = 0x1E058593 ;
e0001d50:	1e058f37          	lui	t5,0x1e058
e0001d54:	593f0f13          	addi	t5,t5,1427 # 1e058593 <tohost+0x1e03858b>
e0001d58:	2de7a823          	sw	t5,720(a5)
  (*(volatile unsigned int *)(long)(0x1C0022D4)) = 0xF2653533 ;
e0001d5c:	f2653f37          	lui	t5,0xf2653
e0001d60:	533f0f13          	addi	t5,t5,1331 # f2653533 <fromhost+0x12643523>
e0001d64:	2de7aa23          	sw	t5,724(a5)
  (*(volatile unsigned int *)(long)(0x1C0022D8)) = 0xA2D10141 ;
e0001d68:	a2d10f37          	lui	t5,0xa2d10
e0001d6c:	141f0f13          	addi	t5,t5,321 # a2d10141 <fromhost+0xc2d00131>
e0001d70:	2de7ac23          	sw	t5,728(a5)
  (*(volatile unsigned int *)(long)(0x1C0022DC)) = 0xC4221141 ;
e0001d74:	2cd7ae23          	sw	a3,732(a5)
  (*(volatile unsigned int *)(long)(0x1C0022E0)) = 0x1C000437 ;
e0001d78:	2fd7a023          	sw	t4,736(a5)
  (*(volatile unsigned int *)(long)(0x1C0022E4)) = 0x0413C606 ;
e0001d7c:	2eb7a223          	sw	a1,740(a5)
  (*(volatile unsigned int *)(long)(0x1C0022E8)) = 0x376D1104 ;
e0001d80:	376d15b7          	lui	a1,0x376d1
e0001d84:	10458593          	addi	a1,a1,260 # 376d1104 <tohost+0x376b10fc>
e0001d88:	2eb7a423          	sw	a1,744(a5)
  (*(volatile unsigned int *)(long)(0x1C0022EC)) = 0xC791405C ;
e0001d8c:	c79145b7          	lui	a1,0xc7914
e0001d90:	05c58593          	addi	a1,a1,92 # c791405c <fromhost+0xe790404c>
e0001d94:	2eb7a623          	sw	a1,748(a5)
  (*(volatile unsigned int *)(long)(0x1C0022F0)) = 0x97820421 ;
e0001d98:	978205b7          	lui	a1,0x97820
e0001d9c:	42158593          	addi	a1,a1,1057 # 97820421 <fromhost+0xb7810411>
e0001da0:	2eb7a823          	sw	a1,752(a5)
  (*(volatile unsigned int *)(long)(0x1C0022F4)) = 0x0044278B ;
e0001da4:	004425b7          	lui	a1,0x442
e0001da8:	78b58593          	addi	a1,a1,1931 # 44278b <tohost+0x422783>
e0001dac:	2eb7aa23          	sw	a1,756(a5)
  (*(volatile unsigned int *)(long)(0x1C0022F8)) = 0x40B2FFED ;
e0001db0:	40b305b7          	lui	a1,0x40b30
e0001db4:	15b5                	addi	a1,a1,-19 # 40b2ffed <tohost+0x40b0ffe5>
e0001db6:	2eb7ac23          	sw	a1,760(a5)
  (*(volatile unsigned int *)(long)(0x1C0022FC)) = 0x01414422 ;
e0001dba:	014145b7          	lui	a1,0x1414
e0001dbe:	42258593          	addi	a1,a1,1058 # 1414422 <tohost+0x13f441a>
e0001dc2:	2eb7ae23          	sw	a1,764(a5)
  (*(volatile unsigned int *)(long)(0x1C002300)) = 0x87938082 ;
e0001dc6:	879385b7          	lui	a1,0x87938
e0001dca:	08258593          	addi	a1,a1,130 # 87938082 <fromhost+0xa7928072>
e0001dce:	30b7a023          	sw	a1,768(a5)
  (*(volatile unsigned int *)(long)(0x1C002304)) = 0xB7B30075 ;
e0001dd2:	b7b305b7          	lui	a1,0xb7b30
e0001dd6:	07558593          	addi	a1,a1,117 # b7b30075 <fromhost+0xd7b20065>
e0001dda:	30b7a223          	sw	a1,772(a5)
  (*(volatile unsigned int *)(long)(0x1C002308)) = 0x85B3C407 ;
e0001dde:	85b3c5b7          	lui	a1,0x85b3c
e0001de2:	40758593          	addi	a1,a1,1031 # 85b3c407 <fromhost+0xa5b2c3f7>
e0001de6:	30b7a423          	sw	a1,776(a5)
  (*(volatile unsigned int *)(long)(0x1C00230C)) = 0xC11C40B7 ;
e0001dea:	c11c45b7          	lui	a1,0xc11c4
e0001dee:	0b758593          	addi	a1,a1,183 # c11c40b7 <fromhost+0xe11b40a7>
e0001df2:	30b7a623          	sw	a1,780(a5)
  (*(volatile unsigned int *)(long)(0x1C002310)) = 0x57638E0D ;
e0001df6:	576395b7          	lui	a1,0x57639
e0001dfa:	e0d58593          	addi	a1,a1,-499 # 57638e0d <tohost+0x57618e05>
e0001dfe:	30b7a823          	sw	a1,784(a5)
  (*(volatile unsigned int *)(long)(0x1C002314)) = 0x363300C0 ;
e0001e02:	363305b7          	lui	a1,0x36330
e0001e06:	0c058593          	addi	a1,a1,192 # 363300c0 <tohost+0x363100b8>
e0001e0a:	30b7aa23          	sw	a1,788(a5)
  (*(volatile unsigned int *)(long)(0x1C002318)) = 0xC390C406 ;
e0001e0e:	c390c5b7          	lui	a1,0xc390c
e0001e12:	40658593          	addi	a1,a1,1030 # c390c406 <fromhost+0xe38fc3f6>
e0001e16:	30b7ac23          	sw	a1,792(a5)
  (*(volatile unsigned int *)(long)(0x1C00231C)) = 0x0007A223 ;
e0001e1a:	0007a5b7          	lui	a1,0x7a
e0001e1e:	22358593          	addi	a1,a1,547 # 7a223 <tohost+0x5a21b>
e0001e22:	30b7ae23          	sw	a1,796(a5)
  (*(volatile unsigned int *)(long)(0x1C002320)) = 0x41108082 ;
e0001e26:	411085b7          	lui	a1,0x41108
e0001e2a:	08258593          	addi	a1,a1,130 # 41108082 <tohost+0x410e807a>
e0001e2e:	32b7a023          	sw	a1,800(a5)
  (*(volatile unsigned int *)(long)(0x1C002324)) = 0xB5B3059D ;
e0001e32:	b5b305b7          	lui	a1,0xb5b30
e0001e36:	59d58593          	addi	a1,a1,1437 # b5b3059d <fromhost+0xd5b2058d>
e0001e3a:	32b7a223          	sw	a1,804(a5)
  (*(volatile unsigned int *)(long)(0x1C002328)) = 0xCA31C405 ;
e0001e3e:	ca31c5b7          	lui	a1,0xca31c
e0001e42:	40558593          	addi	a1,a1,1029 # ca31c405 <fromhost+0xea30c3f5>
e0001e46:	32b7a423          	sw	a1,808(a5)
  (*(volatile unsigned int *)(long)(0x1C00232C)) = 0x425C4218 ;
e0001e4a:	425c45b7          	lui	a1,0x425c4
e0001e4e:	21858593          	addi	a1,a1,536 # 425c4218 <tohost+0x425a4210>
e0001e52:	32b7a623          	sw	a1,812(a5)
  (*(volatile unsigned int *)(long)(0x1C002330)) = 0x02B75963 ;
e0001e56:	02b765b7          	lui	a1,0x2b76
e0001e5a:	96358593          	addi	a1,a1,-1693 # 2b75963 <tohost+0x2b5595b>
e0001e5e:	32b7a823          	sw	a1,816(a5)
  (*(volatile unsigned int *)(long)(0x1C002334)) = 0x4398CB81 ;
e0001e62:	4398d5b7          	lui	a1,0x4398d
e0001e66:	b8158593          	addi	a1,a1,-1151 # 4398cb81 <tohost+0x4396cb79>
e0001e6a:	32b7aa23          	sw	a1,820(a5)
  (*(volatile unsigned int *)(long)(0x1C002338)) = 0x576343D4 ;
e0001e6e:	576345b7          	lui	a1,0x57634
e0001e72:	3d458593          	addi	a1,a1,980 # 576343d4 <tohost+0x576143cc>
e0001e76:	32b7ac23          	sw	a1,824(a5)
  (*(volatile unsigned int *)(long)(0x1C00233C)) = 0x863E00B7 ;
e0001e7a:	863e05b7          	lui	a1,0x863e0
e0001e7e:	0b758593          	addi	a1,a1,183 # 863e00b7 <fromhost+0xa63d00a7>
e0001e82:	32b7ae23          	sw	a1,828(a5)
  (*(volatile unsigned int *)(long)(0x1C002340)) = 0xFBF587B6 ;
e0001e86:	fbf585b7          	lui	a1,0xfbf58
e0001e8a:	7b658593          	addi	a1,a1,1974 # fbf587b6 <fromhost+0x1bf487a6>
e0001e8e:	34b7a023          	sw	a1,832(a5)
  (*(volatile unsigned int *)(long)(0x1C002344)) = 0x8082853E ;
e0001e92:	808285b7          	lui	a1,0x80828
e0001e96:	53e58e93          	addi	t4,a1,1342 # 8082853e <fromhost+0xa081852e>
  (*(volatile unsigned int *)(long)(0x1C002348)) = 0x00B70A63 ;
e0001e9a:	00b71f37          	lui	t5,0xb71
  (*(volatile unsigned int *)(long)(0x1C002344)) = 0x8082853E ;
e0001e9e:	35d7a223          	sw	t4,836(a5)
  (*(volatile unsigned int *)(long)(0x1C002348)) = 0x00B70A63 ;
e0001ea2:	a63f0f13          	addi	t5,t5,-1437 # b70a63 <tohost+0xb50a5b>
e0001ea6:	35e7a423          	sw	t5,840(a5)
  (*(volatile unsigned int *)(long)(0x1C00234C)) = 0x00B78533 ;
e0001eaa:	00b78f37          	lui	t5,0xb78
e0001eae:	533f0f13          	addi	t5,t5,1331 # b78533 <tohost+0xb5852b>
e0001eb2:	35e7a623          	sw	t5,844(a5)
  (*(volatile unsigned int *)(long)(0x1C002350)) = 0xC1188F0D ;
e0001eb6:	c1189f37          	lui	t5,0xc1189
e0001eba:	f0df0f13          	addi	t5,t5,-243 # c1188f0d <fromhost+0xe1178efd>
e0001ebe:	35e7a823          	sw	t5,848(a5)
  (*(volatile unsigned int *)(long)(0x1C002354)) = 0xC248C154 ;
e0001ec2:	c248cf37          	lui	t5,0xc248c
e0001ec6:	154f0f13          	addi	t5,t5,340 # c248c154 <fromhost+0xe247c144>
e0001eca:	35e7aa23          	sw	t5,852(a5)
  (*(volatile unsigned int *)(long)(0x1C002358)) = 0x8082853E ;
  (*(volatile unsigned int *)(long)(0x1C00235C)) = 0x853EC254 ;
e0001ece:	853ecf37          	lui	t5,0x853ec
  (*(volatile unsigned int *)(long)(0x1C002358)) = 0x8082853E ;
e0001ed2:	35d7ac23          	sw	t4,856(a5)
  (*(volatile unsigned int *)(long)(0x1C00235C)) = 0x853EC254 ;
e0001ed6:	254f0f13          	addi	t5,t5,596 # 853ec254 <fromhost+0xa53dc244>
e0001eda:	35e7ae23          	sw	t5,860(a5)
  (*(volatile unsigned int *)(long)(0x1C002360)) = 0x8B638082 ;
e0001ede:	8b638f37          	lui	t5,0x8b638
e0001ee2:	082f0f13          	addi	t5,t5,130 # 8b638082 <fromhost+0xab628072>
e0001ee6:	37e7a023          	sw	t5,864(a5)
  (*(volatile unsigned int *)(long)(0x1C002364)) = 0x06B300E5 ;
e0001eea:	06b30f37          	lui	t5,0x6b30
e0001eee:	0e5f0f13          	addi	t5,t5,229 # 6b300e5 <tohost+0x6b100dd>
e0001ef2:	37e7a223          	sw	t5,868(a5)
  (*(volatile unsigned int *)(long)(0x1C002368)) = 0x8F0D00B6 ;
e0001ef6:	8f0d0f37          	lui	t5,0x8f0d0
e0001efa:	0b6f0f13          	addi	t5,t5,182 # 8f0d00b6 <fromhost+0xaf0c00a6>
e0001efe:	37e7a423          	sw	t5,872(a5)
  (*(volatile unsigned int *)(long)(0x1C00236C)) = 0xC298C2DC ;
e0001f02:	c298cf37          	lui	t5,0xc298c
e0001f06:	2dcf0f13          	addi	t5,t5,732 # c298c2dc <fromhost+0xe297c2cc>
e0001f0a:	37e7a623          	sw	t5,876(a5)
  (*(volatile unsigned int *)(long)(0x1C002370)) = 0xC11487B2 ;
e0001f0e:	c1148f37          	lui	t5,0xc1148
e0001f12:	7b2f0f13          	addi	t5,t5,1970 # c11487b2 <fromhost+0xe11387a2>
e0001f16:	37e7a823          	sw	t5,880(a5)
  (*(volatile unsigned int *)(long)(0x1C002374)) = 0x8082853E ;
e0001f1a:	37d7aa23          	sw	t4,884(a5)
  (*(volatile unsigned int *)(long)(0x1C002378)) = 0x87B2C11C ;
e0001f1e:	87b2ceb7          	lui	t4,0x87b2c
e0001f22:	11ce8e93          	addi	t4,t4,284 # 87b2c11c <fromhost+0xa7b1c10c>
e0001f26:	37d7ac23          	sw	t4,888(a5)
  (*(volatile unsigned int *)(long)(0x1C00237C)) = 0x4781B7E1 ;
e0001f2a:	4781beb7          	lui	t4,0x4781b
e0001f2e:	7e1e8e93          	addi	t4,t4,2017 # 4781b7e1 <tohost+0x477fb7d9>
e0001f32:	37d7ae23          	sw	t4,892(a5)
  (*(volatile unsigned int *)(long)(0x1C002380)) = 0x1141B7D1 ;
e0001f36:	1141beb7          	lui	t4,0x1141b
e0001f3a:	7d1e8e93          	addi	t4,t4,2001 # 1141b7d1 <tohost+0x113fb7c9>
e0001f3e:	39d7a023          	sw	t4,896(a5)
  (*(volatile unsigned int *)(long)(0x1C002384)) = 0x1C0015B7 ;
e0001f42:	5b780f13          	addi	t5,a6,1463
e0001f46:	39e7a223          	sw	t5,900(a5)
  (*(volatile unsigned int *)(long)(0x1C002388)) = 0x8793C606 ;
e0001f4a:	606e0e13          	addi	t3,t3,1542
e0001f4e:	39c7a423          	sw	t3,904(a5)
  (*(volatile unsigned int *)(long)(0x1C00238C)) = 0x26379485 ;
e0001f52:	26379e37          	lui	t3,0x26379
e0001f56:	485e0e13          	addi	t3,t3,1157 # 26379485 <tohost+0x2635947d>
e0001f5a:	39c7a623          	sw	t3,908(a5)
  (*(volatile unsigned int *)(long)(0x1C002390)) = 0xCC631C00 ;
e0001f5e:	cc632e37          	lui	t3,0xcc632
e0001f62:	c00e0e13          	addi	t3,t3,-1024 # cc631c00 <fromhost+0xec621bf0>
e0001f66:	39c7a823          	sw	t3,912(a5)
  (*(volatile unsigned int *)(long)(0x1C002394)) = 0x458104C7 ;
e0001f6a:	45810e37          	lui	t3,0x45810
e0001f6e:	4c7e0e13          	addi	t3,t3,1223 # 458104c7 <tohost+0x457f04bf>
e0001f72:	39c7aa23          	sw	t3,916(a5)
  (*(volatile unsigned int *)(long)(0x1C002398)) = 0x15374601 ;
e0001f76:	15374e37          	lui	t3,0x15374
e0001f7a:	601e0e13          	addi	t3,t3,1537 # 15374601 <tohost+0x153545f9>
e0001f7e:	39c7ac23          	sw	t3,920(a5)
  (*(volatile unsigned int *)(long)(0x1C00239C)) = 0x05131C00 ;
e0001f82:	05132e37          	lui	t3,0x5132
e0001f86:	c00e0e13          	addi	t3,t3,-1024 # 5131c00 <tohost+0x5111bf8>
e0001f8a:	39c7ae23          	sw	t3,924(a5)
  (*(volatile unsigned int *)(long)(0x1C0023A0)) = 0x37859385 ;
e0001f8e:	37859e37          	lui	t3,0x37859
e0001f92:	385e0e13          	addi	t3,t3,901 # 37859385 <tohost+0x3783937d>
e0001f96:	3bc7a023          	sw	t3,928(a5)
  (*(volatile unsigned int *)(long)(0x1C0023A4)) = 0x1C0025B7 ;
e0001f9a:	5b778e93          	addi	t4,a5,1463
  (*(volatile unsigned int *)(long)(0x1C0023A8)) = 0x50058793 ;
e0001f9e:	50058e37          	lui	t3,0x50058
  (*(volatile unsigned int *)(long)(0x1C0023A4)) = 0x1C0025B7 ;
e0001fa2:	3bd7a223          	sw	t4,932(a5)
  (*(volatile unsigned int *)(long)(0x1C0023A8)) = 0x50058793 ;
e0001fa6:	793e0f13          	addi	t5,t3,1939 # 50058793 <tohost+0x5003878b>
  (*(volatile unsigned int *)(long)(0x1C0023AC)) = 0x1C004637 ;
e0001faa:	1c004eb7          	lui	t4,0x1c004
  (*(volatile unsigned int *)(long)(0x1C0023A8)) = 0x50058793 ;
e0001fae:	3be7a423          	sw	t5,936(a5)
  (*(volatile unsigned int *)(long)(0x1C0023AC)) = 0x1C004637 ;
e0001fb2:	637e8e93          	addi	t4,t4,1591 # 1c004637 <tohost+0x1bfe462f>
e0001fb6:	3bd7a623          	sw	t4,940(a5)
  (*(volatile unsigned int *)(long)(0x1C0023B0)) = 0x02C7C963 ;
e0001fba:	02c7deb7          	lui	t4,0x2c7d
e0001fbe:	963e8e93          	addi	t4,t4,-1693 # 2c7c963 <tohost+0x2c5c95b>
e0001fc2:	3bd7a823          	sw	t4,944(a5)
  (*(volatile unsigned int *)(long)(0x1C0023B4)) = 0x46014581 ;
e0001fc6:	46014eb7          	lui	t4,0x46014
e0001fca:	581e8e93          	addi	t4,t4,1409 # 46014581 <tohost+0x45ff4579>
e0001fce:	3bd7aa23          	sw	t4,948(a5)
  (*(volatile unsigned int *)(long)(0x1C0023B8)) = 0x1C001537 ;
e0001fd2:	53780f13          	addi	t5,a6,1335
  (*(volatile unsigned int *)(long)(0x1C0023BC)) = 0x93C50513 ;
e0001fd6:	93c50eb7          	lui	t4,0x93c50
  (*(volatile unsigned int *)(long)(0x1C0023B8)) = 0x1C001537 ;
e0001fda:	3be7ac23          	sw	t5,952(a5)
  (*(volatile unsigned int *)(long)(0x1C0023BC)) = 0x93C50513 ;
e0001fde:	513e8e93          	addi	t4,t4,1299 # 93c50513 <fromhost+0xb3c40503>
e0001fe2:	3bd7ae23          	sw	t4,956(a5)
  (*(volatile unsigned int *)(long)(0x1C0023C0)) = 0x05B73789 ;
e0001fe6:	05b73eb7          	lui	t4,0x5b73
e0001fea:	789e8e93          	addi	t4,t4,1929 # 5b73789 <tohost+0x5b53781>
e0001fee:	3dd7a023          	sw	t4,960(a5)
  (*(volatile unsigned int *)(long)(0x1C0023C4)) = 0x40B21000 ;
e0001ff2:	40b21fb7          	lui	t6,0x40b21
  (*(volatile unsigned int *)(long)(0x1C0023C8)) = 0x00858793 ;
e0001ff6:	00858eb7          	lui	t4,0x858
  (*(volatile unsigned int *)(long)(0x1C0023C4)) = 0x40B21000 ;
e0001ffa:	3df7a223          	sw	t6,964(a5)
  (*(volatile unsigned int *)(long)(0x1C0023C8)) = 0x00858793 ;
e0001ffe:	793e8e93          	addi	t4,t4,1939 # 858793 <tohost+0x83878b>
e0002002:	3dd7a423          	sw	t4,968(a5)
  (*(volatile unsigned int *)(long)(0x1C0023CC)) = 0x1C010637 ;
e0002006:	1c010eb7          	lui	t4,0x1c010
e000200a:	637e8e93          	addi	t4,t4,1591 # 1c010637 <tohost+0x1bff062f>
e000200e:	3dd7a623          	sw	t4,972(a5)
  (*(volatile unsigned int *)(long)(0x1C0023D0)) = 0x1C001537 ;
  (*(volatile unsigned int *)(long)(0x1C0023D4)) = 0x85938E1D ;
e0002012:	85939eb7          	lui	t4,0x85939
  (*(volatile unsigned int *)(long)(0x1C0023D0)) = 0x1C001537 ;
e0002016:	3de7a823          	sw	t5,976(a5)
  (*(volatile unsigned int *)(long)(0x1C0023D4)) = 0x85938E1D ;
e000201a:	e1de8e93          	addi	t4,t4,-483 # 85938e1d <fromhost+0xa5928e0d>
e000201e:	3dd7aa23          	sw	t4,980(a5)
  (*(volatile unsigned int *)(long)(0x1C0023D8)) = 0x05130085 ;
e0002022:	05130eb7          	lui	t4,0x5130
e0002026:	085e8e93          	addi	t4,t4,133 # 5130085 <tohost+0x511007d>
e000202a:	3dd7ac23          	sw	t4,984(a5)
  (*(volatile unsigned int *)(long)(0x1C0023DC)) = 0x01419405 ;
e000202e:	01419eb7          	lui	t4,0x1419
e0002032:	405e8e93          	addi	t4,t4,1029 # 1419405 <tohost+0x13f93fd>
e0002036:	3dd7ae23          	sw	t4,988(a5)
  (*(volatile unsigned int *)(long)(0x1C0023E0)) = 0x8E1DB70D ;
e000203a:	8e1dbeb7          	lui	t4,0x8e1db
e000203e:	70de8e93          	addi	t4,t4,1805 # 8e1db70d <fromhost+0xae1cb6fd>
e0002042:	3fd7a023          	sw	t4,992(a5)
  (*(volatile unsigned int *)(long)(0x1C0023E4)) = 0x50058593 ;
e0002046:	593e0e13          	addi	t3,t3,1427
e000204a:	3fc7a223          	sw	t3,996(a5)
  (*(volatile unsigned int *)(long)(0x1C0023E8)) = 0x8E1DBFC1 ;
e000204e:	8e1dce37          	lui	t3,0x8e1dc
e0002052:	fc1e0e13          	addi	t3,t3,-63 # 8e1dbfc1 <fromhost+0xae1cbfb1>
e0002056:	3fc7a423          	sw	t3,1000(a5)
  (*(volatile unsigned int *)(long)(0x1C0023EC)) = 0x94858593 ;
e000205a:	94858e37          	lui	t3,0x94858
e000205e:	3ec78793          	addi	a5,a5,1004
e0002062:	593e0e13          	addi	t3,t3,1427 # 94858593 <fromhost+0xb4848583>
e0002066:	01c7a023          	sw	t3,0(a5)
  (*(volatile unsigned int *)(long)(0x1C0023F0)) = 0x07B7B76D ;
e000206a:	07b7b7b7          	lui	a5,0x7b7b
  (*(volatile unsigned int *)(long)(0x1C002158)) = 0x10500073 ;
e000206e:	1c002737          	lui	a4,0x1c002
  (*(volatile unsigned int *)(long)(0x1C0023F0)) = 0x07B7B76D ;
e0002072:	76d78793          	addi	a5,a5,1901 # 7b7b76d <tohost+0x7b5b765>
e0002076:	3ef72823          	sw	a5,1008(a4) # 1c0023f0 <tohost+0x1bfe23e8>
  (*(volatile unsigned int *)(long)(0x1C0023F4)) = 0x15931000 ;
e000207a:	15931e37          	lui	t3,0x15931
e000207e:	3f470793          	addi	a5,a4,1012
e0002082:	01c7a023          	sw	t3,0(a5)
  (*(volatile unsigned int *)(long)(0x1C0023F8)) = 0x87930165 ;
e0002086:	879307b7          	lui	a5,0x87930
e000208a:	16578e93          	addi	t4,a5,357 # 87930165 <fromhost+0xa7920155>
  (*(volatile unsigned int *)(long)(0x1C0023FC)) = 0x95BE0087 ;
e000208e:	95be0e37          	lui	t3,0x95be0
  (*(volatile unsigned int *)(long)(0x1C0023F8)) = 0x87930165 ;
e0002092:	3fd72c23          	sw	t4,1016(a4)
  (*(volatile unsigned int *)(long)(0x1C0023FC)) = 0x95BE0087 ;
e0002096:	087e0e13          	addi	t3,t3,135 # 95be0087 <fromhost+0xb5bd0077>
e000209a:	3fc72e23          	sw	t3,1020(a4)
  (*(volatile unsigned int *)(long)(0x1C002400)) = 0x1C0017B7 ;
e000209e:	7b780813          	addi	a6,a6,1975
  (*(volatile unsigned int *)(long)(0x1C002404)) = 0x0637050A ;
e00020a2:	06370e37          	lui	t3,0x6370
  (*(volatile unsigned int *)(long)(0x1C002400)) = 0x1C0017B7 ;
e00020a6:	41072023          	sw	a6,1024(a4)
  (*(volatile unsigned int *)(long)(0x1C002404)) = 0x0637050A ;
e00020aa:	50ae0e13          	addi	t3,t3,1290 # 637050a <tohost+0x6350502>
e00020ae:	41c72223          	sw	t3,1028(a4)
  (*(volatile unsigned int *)(long)(0x1C002408)) = 0x87930004 ;
e00020b2:	00478e93          	addi	t4,a5,4
  (*(volatile unsigned int *)(long)(0x1C00240C)) = 0x06139347 ;
e00020b6:	06139e37          	lui	t3,0x6139
  (*(volatile unsigned int *)(long)(0x1C002408)) = 0x87930004 ;
e00020ba:	41d72423          	sw	t4,1032(a4)
  (*(volatile unsigned int *)(long)(0x1C00240C)) = 0x06139347 ;
e00020be:	347e0e13          	addi	t3,t3,839 # 6139347 <tohost+0x611933f>
e00020c2:	41c72623          	sw	t3,1036(a4)
  (*(volatile unsigned int *)(long)(0x1C002410)) = 0x953EFF46 ;
e00020c6:	953f0e37          	lui	t3,0x953f0
e00020ca:	f46e0e13          	addi	t3,t3,-186 # 953eff46 <fromhost+0xb53dff36>
e00020ce:	41c72823          	sw	t3,1040(a4)
  (*(volatile unsigned int *)(long)(0x1C002414)) = 0x17B7B5FD ;
e00020d2:	17b7be37          	lui	t3,0x17b7b
e00020d6:	5fde0e13          	addi	t3,t3,1533 # 17b7b5fd <tohost+0x17b5b5f5>
e00020da:	41c72a23          	sw	t3,1044(a4)
  (*(volatile unsigned int *)(long)(0x1C002418)) = 0x050A1C00 ;
e00020de:	050a2e37          	lui	t3,0x50a2
e00020e2:	c00e0e13          	addi	t3,t3,-1024 # 50a1c00 <tohost+0x5081bf8>
e00020e6:	41c72c23          	sw	t3,1048(a4)
  (*(volatile unsigned int *)(long)(0x1C00241C)) = 0x93478793 ;
e00020ea:	93478e37          	lui	t3,0x93478
e00020ee:	793e0e13          	addi	t3,t3,1939 # 93478793 <fromhost+0xb3468783>
e00020f2:	41c72e23          	sw	t3,1052(a4)
  (*(volatile unsigned int *)(long)(0x1C002420)) = 0xB701953E ;
e00020f6:	b7019e37          	lui	t3,0xb7019
e00020fa:	53ee0e13          	addi	t3,t3,1342 # b701953e <fromhost+0xd700952e>
e00020fe:	43c72023          	sw	t3,1056(a4)
  (*(volatile unsigned int *)(long)(0x1C002424)) = 0x47B78082 ;
e0002102:	42a72223          	sw	a0,1060(a4)
  (*(volatile unsigned int *)(long)(0x1C002428)) = 0x56FD0020 ;
e0002106:	56fd0537          	lui	a0,0x56fd0
e000210a:	02050513          	addi	a0,a0,32 # 56fd0020 <tohost+0x56fb0018>
e000210e:	42a72423          	sw	a0,1064(a4)
  (*(volatile unsigned int *)(long)(0x1C00242C)) = 0x27B7CB94 ;
e0002112:	27b7d537          	lui	a0,0x27b7d
e0002116:	b9450513          	addi	a0,a0,-1132 # 27b7cb94 <tohost+0x27b5cb8c>
e000211a:	42a72623          	sw	a0,1068(a4)
  (*(volatile unsigned int *)(long)(0x1C002430)) = 0x07371C00 ;
e000211e:	07372537          	lui	a0,0x7372
e0002122:	c0050513          	addi	a0,a0,-1024 # 7371c00 <tohost+0x7351bf8>
e0002126:	42a72823          	sw	a0,1072(a4)
  (*(volatile unsigned int *)(long)(0x1C002434)) = 0x87930020 ;
e000212a:	02078513          	addi	a0,a5,32
  (*(volatile unsigned int *)(long)(0x1C002438)) = 0xC33C0007 ;
e000212e:	c33c07b7          	lui	a5,0xc33c0
  (*(volatile unsigned int *)(long)(0x1C002434)) = 0x87930020 ;
e0002132:	42a72a23          	sw	a0,1076(a4)
  (*(volatile unsigned int *)(long)(0x1C002438)) = 0xC33C0007 ;
e0002136:	079d                	addi	a5,a5,7 # c33c0007 <fromhost+0xe33afff7>
e0002138:	42f72c23          	sw	a5,1080(a4)
  (*(volatile unsigned int *)(long)(0x1C00243C)) = 0x80828082 ;
e000213c:	08258593          	addi	a1,a1,130
e0002140:	43c70793          	addi	a5,a4,1084
e0002144:	c38c                	sw	a1,0(a5)
  (*(volatile unsigned int *)(long)(0x1C002440)) = 0xC4221141 ;
e0002146:	44070793          	addi	a5,a4,1088
e000214a:	c394                	sw	a3,0(a5)
  (*(volatile unsigned int *)(long)(0x1C002444)) = 0xC226C606 ;
e000214c:	c226c7b7          	lui	a5,0xc226c
e0002150:	44470693          	addi	a3,a4,1092
e0002154:	60678793          	addi	a5,a5,1542 # c226c606 <fromhost+0xe225c5f6>
e0002158:	c29c                	sw	a5,0(a3)
  (*(volatile unsigned int *)(long)(0x1C002448)) = 0x00204437 ;
e000215a:	43760613          	addi	a2,a2,1079
e000215e:	44870793          	addi	a5,a4,1096
e0002162:	c390                	sw	a2,0(a5)
  (*(volatile unsigned int *)(long)(0x1C00244C)) = 0x000707B7 ;
e0002164:	000707b7          	lui	a5,0x70
e0002168:	44c70693          	addi	a3,a4,1100
e000216c:	7b778793          	addi	a5,a5,1975 # 707b7 <tohost+0x507af>
e0002170:	c29c                	sw	a5,0(a3)
  (*(volatile unsigned int *)(long)(0x1C002450)) = 0x0793C41C ;
e0002172:	0793c7b7          	lui	a5,0x793c
e0002176:	45070693          	addi	a3,a4,1104
e000217a:	41c78793          	addi	a5,a5,1052 # 793c41c <tohost+0x791c414>
e000217e:	c29c                	sw	a5,0(a3)
  (*(volatile unsigned int *)(long)(0x1C002454)) = 0x04930FF0 ;
e0002180:	049317b7          	lui	a5,0x4931
e0002184:	45470693          	addi	a3,a4,1108
e0002188:	17c1                	addi	a5,a5,-16 # 4930ff0 <tohost+0x4910fe8>
e000218a:	c29c                	sw	a5,0(a3)
  (*(volatile unsigned int *)(long)(0x1C002458)) = 0xA0232004 ;
e000218c:	a02327b7          	lui	a5,0xa0232
e0002190:	45870693          	addi	a3,a4,1112
e0002194:	0791                	addi	a5,a5,4 # a0232004 <fromhost+0xc0221ff4>
e0002196:	c29c                	sw	a5,0(a3)
  (*(volatile unsigned int *)(long)(0x1C00245C)) = 0xA62300F4 ;
e0002198:	a62307b7          	lui	a5,0xa6230
e000219c:	45c70693          	addi	a3,a4,1116
e00021a0:	0f478793          	addi	a5,a5,244 # a62300f4 <fromhost+0xc62200e4>
e00021a4:	c29c                	sw	a5,0(a3)
  (*(volatile unsigned int *)(long)(0x1C002460)) = 0xE78300F4 ;
e00021a6:	e78307b7          	lui	a5,0xe7830
e00021aa:	46070693          	addi	a3,a4,1120
e00021ae:	0f478793          	addi	a5,a5,244 # e78300f4 <fromhost+0x78200e4>
e00021b2:	c29c                	sw	a5,0(a3)
  (*(volatile unsigned int *)(long)(0x1C002464)) = 0x17B701C4 ;
e00021b4:	17b707b7          	lui	a5,0x17b70
e00021b8:	46470693          	addi	a3,a4,1124
e00021bc:	1c478793          	addi	a5,a5,452 # 17b701c4 <tohost+0x17b501bc>
e00021c0:	c29c                	sw	a5,0(a3)
  (*(volatile unsigned int *)(long)(0x1C002468)) = 0xA7831C00 ;
e00021c2:	a78327b7          	lui	a5,0xa7832
e00021c6:	46870693          	addi	a3,a4,1128
e00021ca:	c0078793          	addi	a5,a5,-1024 # a7831c00 <fromhost+0xc7821bf0>
e00021ce:	c29c                	sw	a5,0(a3)
  (*(volatile unsigned int *)(long)(0x1C00246C)) = 0x97829447 ;
e00021d0:	978297b7          	lui	a5,0x97829
e00021d4:	46c70693          	addi	a3,a4,1132
e00021d8:	44778793          	addi	a5,a5,1095 # 97829447 <fromhost+0xb7819437>
e00021dc:	c29c                	sw	a5,0(a3)
  (*(volatile unsigned int *)(long)(0x1C002470)) = 0x01C4E783 ;
e00021de:	01c4e7b7          	lui	a5,0x1c4e
e00021e2:	47070693          	addi	a3,a4,1136
e00021e6:	78378793          	addi	a5,a5,1923 # 1c4e783 <tohost+0x1c2e77b>
e00021ea:	c29c                	sw	a5,0(a3)
  (*(volatile unsigned int *)(long)(0x1C002474)) = 0xF14027F3 ;
e00021ec:	47470693          	addi	a3,a4,1140
e00021f0:	7f330793          	addi	a5,t1,2035
e00021f4:	c29c                	sw	a5,0(a3)
  (*(volatile unsigned int *)(long)(0x1C002478)) = 0xF457B7B3 ;
e00021f6:	47870713          	addi	a4,a4,1144
  (*(volatile unsigned int *)(long)(0x1C00247C)) = 0x17B7EF81 ;
e00021fa:	1c0027b7          	lui	a5,0x1c002
  (*(volatile unsigned int *)(long)(0x1C002478)) = 0xF457B7B3 ;
e00021fe:	01172023          	sw	a7,0(a4)
  (*(volatile unsigned int *)(long)(0x1C00247C)) = 0x17B7EF81 ;
e0002202:	17b7f737          	lui	a4,0x17b7f
e0002206:	47c78693          	addi	a3,a5,1148 # 1c00247c <tohost+0x1bfe2474>
e000220a:	f8170713          	addi	a4,a4,-127 # 17b7ef81 <tohost+0x17b5ef79>
e000220e:	c298                	sw	a4,0(a3)
  (*(volatile unsigned int *)(long)(0x1C002480)) = 0x87931C00 ;
e0002210:	87932737          	lui	a4,0x87932
e0002214:	48078693          	addi	a3,a5,1152
e0002218:	c0070713          	addi	a4,a4,-1024 # 87931c00 <fromhost+0xa7921bf0>
e000221c:	c298                	sw	a4,0(a3)
  (*(volatile unsigned int *)(long)(0x1C002484)) = 0xC3889207 ;
e000221e:	c3889737          	lui	a4,0xc3889
e0002222:	48478693          	addi	a3,a5,1156
e0002226:	20770713          	addi	a4,a4,519 # c3889207 <fromhost+0xe38791f7>
e000222a:	c298                	sw	a4,0(a3)
  (*(volatile unsigned int *)(long)(0x1C002488)) = 0x1C001737 ;
e000222c:	1c001737          	lui	a4,0x1c001
e0002230:	48878693          	addi	a3,a5,1160
e0002234:	73770713          	addi	a4,a4,1847 # 1c001737 <tohost+0x1bfe172f>
e0002238:	c298                	sw	a4,0(a3)
  (*(volatile unsigned int *)(long)(0x1C00248C)) = 0x92072223 ;
e000223a:	92072737          	lui	a4,0x92072
e000223e:	48c78693          	addi	a3,a5,1164
e0002242:	22370713          	addi	a4,a4,547 # 92072223 <fromhost+0xb2062213>
e0002246:	c298                	sw	a4,0(a3)
  (*(volatile unsigned int *)(long)(0x1C002490)) = 0x33D54388 ;
e0002248:	33d54737          	lui	a4,0x33d54
e000224c:	49078693          	addi	a3,a5,1168
e0002250:	38870713          	addi	a4,a4,904 # 33d54388 <tohost+0x33d34380>
e0002254:	c298                	sw	a4,0(a3)
  (*(volatile unsigned int *)(long)(0x1C002494)) = 0xC05C57FD ;
e0002256:	c05c5737          	lui	a4,0xc05c5
e000225a:	49478693          	addi	a3,a5,1172
e000225e:	7fd70713          	addi	a4,a4,2045 # c05c57fd <fromhost+0xe05b57ed>
e0002262:	c298                	sw	a4,0(a3)
  (*(volatile unsigned int *)(long)(0x1C002498)) = 0x03846783 ;
e0002264:	03846737          	lui	a4,0x3846
e0002268:	49878693          	addi	a3,a5,1176
e000226c:	78370713          	addi	a4,a4,1923 # 3846783 <tohost+0x382677b>
e0002270:	c298                	sw	a4,0(a3)
  (*(volatile unsigned int *)(long)(0x1C00249C)) = 0x1141A001 ;
e0002272:	1141a737          	lui	a4,0x1141a
e0002276:	49c78693          	addi	a3,a5,1180
e000227a:	0705                	addi	a4,a4,1 # 1141a001 <tohost+0x113f9ff9>
e000227c:	c298                	sw	a4,0(a3)
  (*(volatile unsigned int *)(long)(0x1C0024A0)) = 0x1C0017B7 ;
e000227e:	4a078713          	addi	a4,a5,1184
e0002282:	01072023          	sw	a6,0(a4)
  (*(volatile unsigned int *)(long)(0x1C0024A4)) = 0x94B7A223 ;
e0002286:	94b7a737          	lui	a4,0x94b7a
e000228a:	4a478693          	addi	a3,a5,1188
e000228e:	22370713          	addi	a4,a4,547 # 94b7a223 <fromhost+0xb4b6a213>
e0002292:	c298                	sw	a4,0(a3)
  (*(volatile unsigned int *)(long)(0x1C0024A8)) = 0xC422C606 ;
e0002294:	c422c737          	lui	a4,0xc422c
e0002298:	4a878693          	addi	a3,a5,1192
e000229c:	60670713          	addi	a4,a4,1542 # c422c606 <fromhost+0xe421c5f6>
e00022a0:	c298                	sw	a4,0(a3)
  (*(volatile unsigned int *)(long)(0x1C0024AC)) = 0x3791842A ;
e00022a2:	37918737          	lui	a4,0x37918
e00022a6:	4ac78693          	addi	a3,a5,1196
e00022aa:	42a70713          	addi	a4,a4,1066 # 3791842a <tohost+0x378f8422>
e00022ae:	c298                	sw	a4,0(a3)
  (*(volatile unsigned int *)(long)(0x1C0024B0)) = 0x002017B7 ;
e00022b0:	00201737          	lui	a4,0x201
e00022b4:	4b078693          	addi	a3,a5,1200
e00022b8:	7b770713          	addi	a4,a4,1975 # 2017b7 <tohost+0x1e17af>
e00022bc:	c298                	sw	a4,0(a3)
  (*(volatile unsigned int *)(long)(0x1C0024B4)) = 0x04040713 ;
e00022be:	04040737          	lui	a4,0x4040
e00022c2:	4b478693          	addi	a3,a5,1204
e00022c6:	71370713          	addi	a4,a4,1811 # 4040713 <tohost+0x402070b>
e00022ca:	c298                	sw	a4,0(a3)
  (*(volatile unsigned int *)(long)(0x1C0024B8)) = 0x8613075A ;
e00022cc:	86130737          	lui	a4,0x86130
e00022d0:	4b878693          	addi	a3,a5,1208
e00022d4:	75a70713          	addi	a4,a4,1882 # 8613075a <fromhost+0xa612074a>
e00022d8:	c298                	sw	a4,0(a3)
  (*(volatile unsigned int *)(long)(0x1C0024BC)) = 0x56FD4007 ;
e00022da:	56fd4737          	lui	a4,0x56fd4
e00022de:	4bc78693          	addi	a3,a5,1212
e00022e2:	071d                	addi	a4,a4,7 # 56fd4007 <tohost+0x56fb3fff>
e00022e4:	c298                	sw	a4,0(a3)
  (*(volatile unsigned int *)(long)(0x1C0024C0)) = 0x41C78793 ;
e00022e6:	41c78737          	lui	a4,0x41c78
e00022ea:	4c078693          	addi	a3,a5,1216
e00022ee:	79370713          	addi	a4,a4,1939 # 41c78793 <tohost+0x41c5878b>
e00022f2:	c298                	sw	a4,0(a3)
  (*(volatile unsigned int *)(long)(0x1C0024C4)) = 0x00D76623 ;
e00022f4:	00d76737          	lui	a4,0xd76
e00022f8:	4c478693          	addi	a3,a5,1220
e00022fc:	62370613          	addi	a2,a4,1571 # d76623 <tohost+0xd5661b>
e0002300:	c290                	sw	a2,0(a3)
  (*(volatile unsigned int *)(long)(0x1C0024C8)) = 0x00D767A3 ;
e0002302:	7a370713          	addi	a4,a4,1955
e0002306:	4c878693          	addi	a3,a5,1224
e000230a:	c298                	sw	a4,0(a3)
  (*(volatile unsigned int *)(long)(0x1C0024CC)) = 0x37158522 ;
e000230c:	37158737          	lui	a4,0x37158
e0002310:	4cc78693          	addi	a3,a5,1228
e0002314:	52270713          	addi	a4,a4,1314 # 37158522 <tohost+0x3713851a>
e0002318:	c298                	sw	a4,0(a3)
  (*(volatile unsigned int *)(long)(0x1C0024D0)) = 0x85226591 ;
e000231a:	85226737          	lui	a4,0x85226
e000231e:	4d078693          	addi	a3,a5,1232
e0002322:	59170713          	addi	a4,a4,1425 # 85226591 <fromhost+0xa5216581>
e0002326:	c298                	sw	a4,0(a3)
  (*(volatile unsigned int *)(long)(0x1C0024D4)) = 0x07B73789 ;
e0002328:	07b73737          	lui	a4,0x7b73
e000232c:	4d478693          	addi	a3,a5,1236
e0002330:	78970713          	addi	a4,a4,1929 # 7b73789 <tohost+0x7b53781>
e0002334:	c298                	sw	a4,0(a3)
  (*(volatile unsigned int *)(long)(0x1C0024D8)) = 0xA2231000 ;
e0002336:	4d878713          	addi	a4,a5,1240
e000233a:	a22316b7          	lui	a3,0xa2231
e000233e:	c314                	sw	a3,0(a4)
  (*(volatile unsigned int *)(long)(0x1C0024DC)) = 0xC51100A7 ;
e0002340:	c5110737          	lui	a4,0xc5110
e0002344:	4dc78693          	addi	a3,a5,1244
e0002348:	0a770713          	addi	a4,a4,167 # c51100a7 <fromhost+0xe5100097>
e000234c:	c298                	sw	a4,0(a3)
  (*(volatile unsigned int *)(long)(0x1C0024E0)) = 0x1C0017B7 ;
e000234e:	4e078713          	addi	a4,a5,1248
e0002352:	01072023          	sw	a6,0(a4)
  (*(volatile unsigned int *)(long)(0x1C0024E4)) = 0xA2234705 ;
e0002356:	a2234737          	lui	a4,0xa2234
e000235a:	4e478693          	addi	a3,a5,1252
e000235e:	70570713          	addi	a4,a4,1797 # a2234705 <fromhost+0xc22246f5>
e0002362:	c298                	sw	a4,0(a3)
  (*(volatile unsigned int *)(long)(0x1C0024E8)) = 0x40B292E7 ;
e0002364:	40b29737          	lui	a4,0x40b29
e0002368:	4e878693          	addi	a3,a5,1256
e000236c:	2e770713          	addi	a4,a4,743 # 40b292e7 <tohost+0x40b092df>
e0002370:	c298                	sw	a4,0(a3)
  (*(volatile unsigned int *)(long)(0x1C0024EC)) = 0x01414422 ;
e0002372:	01414737          	lui	a4,0x1414
e0002376:	4ec78693          	addi	a3,a5,1260
e000237a:	42270713          	addi	a4,a4,1058 # 1414422 <tohost+0x13f441a>
e000237e:	c298                	sw	a4,0(a3)
  (*(volatile unsigned int *)(long)(0x1C0024F0)) = 0x47B78082 ;
e0002380:	47b78737          	lui	a4,0x47b78
e0002384:	4f078693          	addi	a3,a5,1264
e0002388:	08270713          	addi	a4,a4,130 # 47b78082 <tohost+0x47b5807a>
e000238c:	c298                	sw	a4,0(a3)
  (*(volatile unsigned int *)(long)(0x1C0024F4)) = 0x87930020 ;
e000238e:	4f478713          	addi	a4,a5,1268
e0002392:	c308                	sw	a0,0(a4)
  (*(volatile unsigned int *)(long)(0x1C0024F8)) = 0xE7032007 ;
e0002394:	e7032737          	lui	a4,0xe7032
e0002398:	4f878693          	addi	a3,a5,1272
e000239c:	071d                	addi	a4,a4,7 # e7032007 <fromhost+0x7021ff7>
e000239e:	c298                	sw	a4,0(a3)
  (*(volatile unsigned int *)(long)(0x1C0024FC)) = 0x808201C7 ;
e00023a0:	80820737          	lui	a4,0x80820
e00023a4:	4fc78793          	addi	a5,a5,1276
e00023a8:	1c770713          	addi	a4,a4,455 # 808201c7 <fromhost+0xa08101b7>
e00023ac:	c398                	sw	a4,0(a5)
#endif
return 0; 
 }
e00023ae:	4501                	li	a0,0
e00023b0:	8082                	ret

e00023b2 <external_irq_handler>:
  }

  return err;
}

void external_irq_handler(void){
e00023b2:	1141                	addi	sp,sp,-16
e00023b4:	c23a                	sw	a4,4(sp)
e00023b6:	c03e                	sw	a5,0(sp)
e00023b8:	c632                	sw	a2,12(sp)
e00023ba:	c436                	sw	a3,8(sp)
  int volatile * p_reg, * plic_check;

  // start of """Interrupt Service Routine"""

  plic_check = (int *) 0xC8200004;
  while(*plic_check != mbox_id);   //check wether the intr is the correct one
e00023bc:	c8200737          	lui	a4,0xc8200
e00023c0:	09f00793          	li	a5,159
e00023c4:	4350                	lw	a2,4(a4)
e00023c6:	00470693          	addi	a3,a4,4 # c8200004 <fromhost+0xe81efff4>
e00023ca:	fef61de3          	bne	a2,a5,e00023c4 <external_irq_handler+0x12>

  p_reg = (int *) 0x10404020;
 *p_reg = 0x00000000;        //clearing the pending interrupt signal
e00023ce:	10404737          	lui	a4,0x10404
e00023d2:	02072023          	sw	zero,32(a4) # 10404020 <tohost+0x103e4018>

 *plic_check = mbox_id;      //completing interrupt
e00023d6:	c29c                	sw	a5,0(a3)

  return;
}
e00023d8:	4632                	lw	a2,12(sp)
e00023da:	46a2                	lw	a3,8(sp)
e00023dc:	4712                	lw	a4,4(sp)
e00023de:	4782                	lw	a5,0(sp)
e00023e0:	0141                	addi	sp,sp,16
e00023e2:	30200073          	mret

e00023e6 <default_exc_handler>:
  jal x0, sleep_loop //exc handler
e00023e6:	07e0006f          	j	e0002464 <sleep_loop>

e00023ea <reset_handler>:
  mv  x1, x0
e00023ea:	00000093          	li	ra,0
  mv  x2, x1
e00023ee:	8106                	mv	sp,ra
  mv  x3, x1
e00023f0:	8186                	mv	gp,ra
  mv  x4, x1
e00023f2:	8206                	mv	tp,ra
  mv  x5, x1
e00023f4:	8286                	mv	t0,ra
  mv  x6, x1
e00023f6:	8306                	mv	t1,ra
  mv  x7, x1
e00023f8:	8386                	mv	t2,ra
  mv  x8, x1
e00023fa:	8406                	mv	s0,ra
  mv  x9, x1
e00023fc:	8486                	mv	s1,ra
  mv x10, x1
e00023fe:	8506                	mv	a0,ra
  mv x11, x1
e0002400:	8586                	mv	a1,ra
  mv x12, x1
e0002402:	8606                	mv	a2,ra
  mv x13, x1
e0002404:	8686                	mv	a3,ra
  mv x14, x1
e0002406:	8706                	mv	a4,ra
  mv x15, x1
e0002408:	8786                	mv	a5,ra
  mv x16, x1
e000240a:	8806                	mv	a6,ra
  mv x17, x1
e000240c:	8886                	mv	a7,ra
  mv x18, x1
e000240e:	8906                	mv	s2,ra
  mv x19, x1
e0002410:	8986                	mv	s3,ra
  mv x20, x1
e0002412:	8a06                	mv	s4,ra
  mv x21, x1
e0002414:	8a86                	mv	s5,ra
  mv x22, x1
e0002416:	8b06                	mv	s6,ra
  mv x23, x1
e0002418:	8b86                	mv	s7,ra
  mv x24, x1
e000241a:	8c06                	mv	s8,ra
  mv x25, x1
e000241c:	8c86                	mv	s9,ra
  mv x26, x1
e000241e:	8d06                	mv	s10,ra
  mv x27, x1
e0002420:	8d86                	mv	s11,ra
  mv x28, x1
e0002422:	8e06                	mv	t3,ra
  mv x29, x1
e0002424:	8e86                	mv	t4,ra
  mv x30, x1
e0002426:	8f06                	mv	t5,ra
  mv x31, x1
e0002428:	8f86                	mv	t6,ra
  la   x2, _stack_start
e000242a:	0000e117          	auipc	sp,0xe
e000242e:	bd610113          	addi	sp,sp,-1066 # e0010000 <_stack_start>

e0002432 <_start>:
  la x26, _bss_start
e0002432:	00000d17          	auipc	s10,0x0
e0002436:	17ad0d13          	addi	s10,s10,378 # e00025ac <_bss_end>
  la x27, _bss_end
e000243a:	00000d97          	auipc	s11,0x0
e000243e:	172d8d93          	addi	s11,s11,370 # e00025ac <_bss_end>
  bge x26, x27, zero_loop_end
e0002442:	01bd5763          	bge	s10,s11,e0002450 <main_entry>

e0002446 <zero_loop>:
  sw x0, 0(x26)
e0002446:	000d2023          	sw	zero,0(s10)
  addi x26, x26, 4
e000244a:	0d11                	addi	s10,s10,4
  ble x26, x27, zero_loop
e000244c:	ffaddde3          	bge	s11,s10,e0002446 <zero_loop>

e0002450 <main_entry>:
  addi x10, x0, 0
e0002450:	4501                	li	a0,0
  addi x11, x0, 0
e0002452:	4581                	li	a1,0
  jal x1, main
e0002454:	016000ef          	jal	ra,e000246a <main>
  li a0, 0xc11c0018
e0002458:	c11c0537          	lui	a0,0xc11c0
e000245c:	0561                	addi	a0,a0,24 # c11c0018 <fromhost+0xe11b0008>
  li t0, 0x1	
e000245e:	4285                	li	t0,1
  sw t0, 0(a0)
e0002460:	00552023          	sw	t0,0(a0)

e0002464 <sleep_loop>:
  wfi
e0002464:	10500073          	wfi
  j sleep_loop
e0002468:	bff5                	j	e0002464 <sleep_loop>

e000246a <main>:
int main() {
e000246a:	1141                	addi	sp,sp,-16
  uart_set_cfg(0,(test_freq/baud_rate)>>4);
e000246c:	03600593          	li	a1,54
e0002470:	4501                	li	a0,0
int main() {
e0002472:	c606                	sw	ra,12(sp)
e0002474:	c422                	sw	s0,8(sp)
e0002476:	c226                	sw	s1,4(sp)
  uart_set_cfg(0,(test_freq/baud_rate)>>4);
e0002478:	c0dfd0ef          	jal	ra,e0000084 <uart_set_cfg>
  asm volatile("csrw mtvec, %0\n" : : "r"(val));
e000247c:	e00007b7          	lui	a5,0xe0000
e0002480:	0785                	addi	a5,a5,1 # e0000001 <fromhost+0xfffefff1>
e0002482:	30579073          	csrw	mtvec,a5
  asm volatile("csrw  mstatus, %0\n" : : "r"(val_1));
e0002486:	6789                	lui	a5,0x2
e0002488:	80878793          	addi	a5,a5,-2040 # 1808 <_min_stack-0x7f8>
e000248c:	30079073          	csrw	mstatus,a5
  asm volatile("csrw  mie, %0\n"     : : "r"(val_2));
e0002490:	6785                	lui	a5,0x1
e0002492:	80078793          	addi	a5,a5,-2048 # 800 <_min_stack-0x1800>
e0002496:	30479073          	csrw	mie,a5
 *plic_prio  = 1;                   // Set mbox interrupt priority to 1
e000249a:	c80007b7          	lui	a5,0xc8000
e000249e:	4485                	li	s1,1
e00024a0:	2697ae23          	sw	s1,636(a5) # c800027c <fromhost+0xe7ff026c>
 *plic_en    = 0x80000000;          // Enable interrupt
e00024a4:	80000737          	lui	a4,0x80000
e00024a8:	c80027b7          	lui	a5,0xc8002
e00024ac:	cb98                	sw	a4,16(a5)
  *edn_enable = 0x9996;
e00024ae:	67a9                	lui	a5,0xa
e00024b0:	99678793          	addi	a5,a5,-1642 # 9996 <_stack_len+0x1996>
e00024b4:	c1170737          	lui	a4,0xc1170
e00024b8:	cb5c                	sw	a5,20(a4)
  err = load_cluster_code();
e00024ba:	fa1fd0ef          	jal	ra,e000045a <load_cluster_code>
  *fetch_en = 0x1;
e00024be:	ff0007b7          	lui	a5,0xff000
e00024c2:	d384                	sw	s1,32(a5)
  err = load_cluster_code();
e00024c4:	842a                	mv	s0,a0
  if(err==0) printf("Cluster preloaded, now wfi!\r\n");
e00024c6:	e519                	bnez	a0,e00024d4 <main+0x6a>
e00024c8:	00000517          	auipc	a0,0x0
e00024cc:	07c50513          	addi	a0,a0,124 # e0002544 <main+0xda>
e00024d0:	df9fd0ef          	jal	ra,e00002c8 <printf>
  asm volatile ("wfi");
e00024d4:	10500073          	wfi
  a = *p_reg1;
e00024d8:	104047b7          	lui	a5,0x10404
e00024dc:	478c                	lw	a1,8(a5)
  b = *p_reg2;
e00024de:	4b90                	lw	a2,16(a5)
  c = *p_reg3;
e00024e0:	4bd4                	lw	a3,20(a5)
  d = *p_reg4;
e00024e2:	4f98                	lw	a4,24(a5)
  e = *p_reg5;
e00024e4:	4fc8                	lw	a0,28(a5)
  if( a == 0xBAADC0DE &&  b == 0xBAADC0DE && c == 0xBAADC0DE && d == 0xBAADC0DE && e == 0xBAADC0DE)
e00024e6:	baadc7b7          	lui	a5,0xbaadc
e00024ea:	0de78793          	addi	a5,a5,222 # baadc0de <fromhost+0xdaacc0ce>
e00024ee:	02f59663          	bne	a1,a5,e000251a <main+0xb0>
e00024f2:	02b61463          	bne	a2,a1,e000251a <main+0xb0>
e00024f6:	02c69263          	bne	a3,a2,e000251a <main+0xb0>
e00024fa:	02d71063          	bne	a4,a3,e000251a <main+0xb0>
e00024fe:	00e51e63          	bne	a0,a4,e000251a <main+0xb0>
    printf("Msg ok, test succeeded!\r\n");
e0002502:	00000517          	auipc	a0,0x0
e0002506:	06250513          	addi	a0,a0,98 # e0002564 <main+0xfa>
e000250a:	dbffd0ef          	jal	ra,e00002c8 <printf>
}
e000250e:	40b2                	lw	ra,12(sp)
e0002510:	8522                	mv	a0,s0
e0002512:	4422                	lw	s0,8(sp)
e0002514:	4492                	lw	s1,4(sp)
e0002516:	0141                	addi	sp,sp,16
e0002518:	8082                	ret
    printf("Msg wrong, test failed!\r\n");
e000251a:	00000517          	auipc	a0,0x0
e000251e:	06650513          	addi	a0,a0,102 # e0002580 <main+0x116>
e0002522:	da7fd0ef          	jal	ra,e00002c8 <printf>
    err++;
e0002526:	0405                	addi	s0,s0,1
  return err;
e0002528:	b7dd                	j	e000250e <main+0xa4>

Disassembly of section .rodata:

e000252c <.rodata>:
e000252c:	6e28                	.2byte	0x6e28
e000252e:	6c75                	lui	s8,0x1d
e0002530:	296c                	.2byte	0x296c
e0002532:	0000                	unimp
e0002534:	5845                	li	a6,-15
e0002536:	54504543          	.4byte	0x54504543
e000253a:	4f49                	li	t5,18
e000253c:	214e                	.2byte	0x214e
e000253e:	2121                	jal	e0002946 <_bss_end+0x39a>
e0002540:	0a0d                	addi	s4,s4,3
e0002542:	0000                	unimp
e0002544:	73756c43          	.4byte	0x73756c43
e0002548:	6574                	.2byte	0x6574
e000254a:	2072                	.2byte	0x2072
e000254c:	7270                	.2byte	0x7270
e000254e:	6c65                	lui	s8,0x19
e0002550:	6564616f          	jal	sp,e0048ba6 <fromhost+0x38b96>
e0002554:	2c64                	.2byte	0x2c64
e0002556:	6e20                	.2byte	0x6e20
e0002558:	7720776f          	jal	a4,e0009cca <_bss_end+0x771e>
e000255c:	6966                	.2byte	0x6966
e000255e:	0d21                	addi	s10,s10,8
e0002560:	000a                	c.slli	zero,0x2
e0002562:	0000                	unimp
e0002564:	734d                	lui	t1,0xffff3
e0002566:	6b6f2067          	.4byte	0x6b6f2067
e000256a:	202c                	.2byte	0x202c
e000256c:	6574                	.2byte	0x6574
e000256e:	73207473          	csrrci	s0,0x732,0
e0002572:	6375                	lui	t1,0x1d
e0002574:	64656563          	bltu	a0,t1,e0002bbe <_bss_end+0x612>
e0002578:	6465                	lui	s0,0x19
e000257a:	0d21                	addi	s10,s10,8
e000257c:	000a                	c.slli	zero,0x2
e000257e:	0000                	unimp
e0002580:	734d                	lui	t1,0xffff3
e0002582:	72772067          	.4byte	0x72772067
e0002586:	2c676e6f          	jal	t3,e007884c <fromhost+0x6883c>
e000258a:	7420                	.2byte	0x7420
e000258c:	7365                	lui	t1,0xffff9
e000258e:	2074                	.2byte	0x2074
e0002590:	6166                	.2byte	0x6166
e0002592:	6c69                	lui	s8,0x1a
e0002594:	6465                	lui	s0,0x19
e0002596:	0d21                	addi	s10,s10,8
e0002598:	000a                	c.slli	zero,0x2

Disassembly of section .data:

e000259c <remu10_table>:
char remu10_table[16] = {
e000259c:	0100                	addi	s0,sp,128
e000259e:	0202                	c.slli64	tp
e00025a0:	05040303          	lb	t1,80(s0) # 19050 <_stack_len+0x11050>
e00025a4:	0605                	addi	a2,a2,1
e00025a6:	08080707          	.4byte	0x8080707
e00025aa:	0009                	c.nop	2

Disassembly of section .stack:

e0008000 <_stack-0x2000>:
	...

Disassembly of section .debug_info:

00000000 <.debug_info>:
   0:	00000877          	.4byte	0x877
   4:	0005                	c.nop	1
   6:	0401                	addi	s0,s0,0
   8:	0000                	unimp
   a:	0000                	unimp
   c:	8a1f 0000 1d00      	.byte	0x1f, 0x8a, 0x00, 0x00, 0x00, 0x1d
  12:	00000047          	.4byte	0x47
  16:	0000                	unimp
  18:	0000                	unimp
  1a:	0084                	addi	s1,sp,64
  1c:	e000                	.2byte	0xe000
  1e:	03d6                	slli	t2,t2,0x15
  20:	0000                	unimp
  22:	0000                	unimp
  24:	0000                	unimp
  26:	0000650f          	.4byte	0x650f
  2a:	0200                	addi	s0,sp,256
  2c:	1b28                	addi	a0,sp,440
  2e:	0032                	c.slli	zero,0xc
  30:	0000                	unimp
  32:	0420                	addi	s0,sp,520
  34:	000d                	c.nop	3
  36:	0000                	unimp
  38:	00006c0f          	.4byte	0x6c0f
  3c:	0200                	addi	s0,sp,256
  3e:	00261863          	bne	a2,sp,4e <_min_stack-0x1fb2>
  42:	0000                	unimp
  44:	0421                	addi	s0,s0,8
  46:	6905                	lui	s2,0x1
  48:	746e                	.2byte	0x746e
  4a:	0500                	addi	s0,sp,640
  4c:	0704                	addi	s1,sp,896
  4e:	00000153          	.4byte	0x153
  52:	0805                	addi	a6,a6,1
  54:	7e05                	lui	t3,0xfffe1
  56:	0001                	nop
  58:	0500                	addi	s0,sp,640
  5a:	0410                	addi	a2,sp,512
  5c:	01b6                	slli	gp,gp,0xd
  5e:	0000                	unimp
  60:	0105                	addi	sp,sp,1
  62:	7e06                	.2byte	0x7e06
  64:	0000                	unimp
  66:	0500                	addi	s0,sp,640
  68:	0502                	c.slli64	a0
  6a:	01a4                	addi	s1,sp,200
  6c:	0000                	unimp
  6e:	0405                	addi	s0,s0,1
  70:	8305                	srli	a4,a4,0x1
  72:	0001                	nop
  74:	0500                	addi	s0,sp,640
  76:	0801                	addi	a6,a6,0
  78:	007c                	addi	a5,sp,12
  7a:	0000                	unimp
  7c:	0002310f          	.4byte	0x2310f
  80:	0300                	addi	s0,sp,384
  82:	1931                	addi	s2,s2,-20 # fec <_min_stack-0x1014>
  84:	0088                	addi	a0,sp,64
  86:	0000                	unimp
  88:	0205                	addi	tp,tp,1 # 1 <_min_stack-0x1fff>
  8a:	0000fa07          	.4byte	0xfa07
  8e:	0500                	addi	s0,sp,640
  90:	0704                	addi	s1,sp,896
  92:	014e                	slli	sp,sp,0x13
  94:	0000                	unimp
  96:	0805                	addi	a6,a6,1
  98:	00014907          	.4byte	0x14907
  9c:	1000                	addi	s0,sp,32
  9e:	00ad                	addi	ra,ra,11
  a0:	0000                	unimp
  a2:	00ad                	addi	ra,ra,11
  a4:	0000                	unimp
  a6:	4b11                	li	s6,4
  a8:	0000                	unimp
  aa:	0f00                	addi	s0,sp,912
  ac:	0500                	addi	s0,sp,640
  ae:	0801                	addi	a6,a6,0
  b0:	0085                	addi	ra,ra,1
  b2:	0000                	unimp
  b4:	ad22                	.2byte	0xad22
  b6:	0000                	unimp
  b8:	2300                	.2byte	0x2300
  ba:	010d                	addi	sp,sp,3
  bc:	0000                	unimp
  be:	8001                	c.srli64	s0
  c0:	9d06                	add	s10,s10,ra
  c2:	0000                	unimp
  c4:	0500                	addi	s0,sp,640
  c6:	00259c03          	lh	s8,2(a1)
  ca:	24e0                	.2byte	0x24e0
  cc:	0134                	addi	a3,sp,136
  ce:	0000                	unimp
  d0:	5201                	li	tp,-32
  d2:	1d01                	addi	s10,s10,-32
  d4:	0456                	slli	s0,s0,0x15
  d6:	e000                	.2byte	0xe000
  d8:	0004                	.2byte	0x4
  da:	0000                	unimp
  dc:	9c01                	.2byte	0x9c01
  de:	2818                	.2byte	0x2818
  e0:	0001                	nop
  e2:	4600                	lw	s0,8(a2)
  e4:	4401                	li	s0,0
  e6:	0000                	unimp
  e8:	2a00                	.2byte	0x2a00
  ea:	0004                	.2byte	0x4
  ec:	2ce0                	.2byte	0x2ce0
  ee:	0000                	unimp
  f0:	0100                	addi	s0,sp,128
  f2:	689c                	.2byte	0x689c
  f4:	0001                	nop
  f6:	2500                	.2byte	0x2500
  f8:	46010073          	.4byte	0x46010073
  fc:	1601                	addi	a2,a2,-32
  fe:	0168                	addi	a0,sp,140
 100:	0000                	unimp
 102:	000c                	.2byte	0xc
 104:	0000                	unimp
 106:	6926                	.2byte	0x6926
 108:	0100                	addi	s0,sp,128
 10a:	0148                	addi	a0,sp,132
 10c:	00004407          	.4byte	0x4407
 110:	3c00                	.2byte	0x3c00
 112:	0000                	unimp
 114:	2700                	.2byte	0x2700
 116:	00000457          	.4byte	0x457
 11a:	0440                	addi	s0,sp,516
 11c:	e000                	.2byte	0xe000
 11e:	0004                	.2byte	0x4
 120:	0000                	unimp
 122:	4d01                	li	s10,0
 124:	0301                	addi	t1,t1,0 # ffff9000 <fromhost+0x1ffe8ff0>
 126:	00000143          	.4byte	0x143
 12a:	6801                	.2byte	0x6801
 12c:	0004                	.2byte	0x4
 12e:	6a00                	.2byte	0x6a00
 130:	0000                	unimp
 132:	0700                	addi	s0,sp,896
 134:	0444                	addi	s1,sp,516
 136:	e000                	.2byte	0xe000
 138:	04c8                	addi	a0,sp,580
 13a:	0000                	unimp
 13c:	0106                	slli	sp,sp,0x1
 13e:	015a                	slli	sp,sp,0x16
 140:	003a                	c.slli	zero,0xe
 142:	2800                	.2byte	0x2800
 144:	00000457          	.4byte	0x457
 148:	0452                	slli	s0,s0,0x14
 14a:	e000                	.2byte	0xe000
 14c:	0004                	.2byte	0x4
 14e:	0000                	unimp
 150:	4b01                	li	s6,0
 152:	0501                	addi	a0,a0,0
 154:	6801                	.2byte	0x6801
 156:	0004                	.2byte	0x4
 158:	7700                	.2byte	0x7700
 15a:	0000                	unimp
 15c:	1200                	addi	s0,sp,288
 15e:	0454                	addi	a3,sp,516
 160:	e000                	.2byte	0xe000
 162:	04c8                	addi	a0,sp,580
 164:	0000                	unimp
 166:	0000                	unimp
 168:	0000b413          	sltiu	s0,ra,0
 16c:	1800                	addi	s0,sp,48
 16e:	00000193          	li	gp,0
 172:	00440137          	lui	sp,0x440
 176:	0000                	unimp
 178:	02c8                	addi	a0,sp,324
 17a:	e000                	.2byte	0xe000
 17c:	0158                	addi	a4,sp,132
 17e:	0000                	unimp
 180:	9c01                	.2byte	0x9c01
 182:	0294                	addi	a3,sp,320
 184:	0000                	unimp
 186:	2d29                	jal	7a0 <_min_stack-0x1860>
 188:	0001                	nop
 18a:	0100                	addi	s0,sp,128
 18c:	68180137          	lui	sp,0x68180
 190:	0001                	nop
 192:	8800                	.2byte	0x8800
 194:	0000                	unimp
 196:	2a00                	.2byte	0x2a00
 198:	7019                	c.lui	zero,0xfffe6
 19a:	01390063          	beq	s2,s3,19a <_min_stack-0x1e66>
 19e:	00004407          	.4byte	0x4407
 1a2:	2b00                	.2byte	0x2b00
 1a4:	6176                	.2byte	0x6176
 1a6:	0100                	addi	s0,sp,128
 1a8:	013a                	slli	sp,sp,0xe
 1aa:	0000380b          	.4byte	0x380b
 1ae:	0300                	addi	s0,sp,384
 1b0:	ac91                	j	404 <_min_stack-0x1bfc>
 1b2:	2c7f                	.2byte	0x2c7f
 1b4:	0294                	addi	a3,sp,320
 1b6:	0000                	unimp
 1b8:	02f2                	slli	t0,t0,0x1c
 1ba:	e000                	.2byte	0xe000
 1bc:	00b6                	slli	ra,ra,0xd
 1be:	0000                	unimp
 1c0:	3e01                	jal	fffffcd0 <fromhost+0x1ffefcc0>
 1c2:	0801                	addi	a6,a6,0
 1c4:	a314                	.2byte	0xa314
 1c6:	0002                	c.slli64	zero
 1c8:	0100                	addi	s0,sp,128
 1ca:	02b9                	addi	t0,t0,14
 1cc:	0000                	unimp
 1ce:	00a2                	slli	ra,ra,0x8
 1d0:	0000                	unimp
 1d2:	ae01                	j	4e2 <_min_stack-0x1b1e>
 1d4:	0002                	c.slli64	zero
 1d6:	3d00                	.2byte	0x3d00
 1d8:	0001                	nop
 1da:	1a00                	addi	s0,sp,304
 1dc:	00b6                	slli	ra,ra,0xd
 1de:	0000                	unimp
 1e0:	0002c303          	lbu	t1,0(t0)
 1e4:	fc00                	.2byte	0xfc00
 1e6:	0001                	nop
 1e8:	0300                	addi	s0,sp,384
 1ea:	02ce                	slli	t0,t0,0x13
 1ec:	0000                	unimp
 1ee:	024d                	addi	tp,tp,19 # 13 <_min_stack-0x1fed>
 1f0:	0000                	unimp
 1f2:	0002d903          	lhu	s2,0(t0)
 1f6:	9e00                	.2byte	0x9e00
 1f8:	0002                	c.slli64	zero
 1fa:	1500                	addi	s0,sp,672
 1fc:	000002e3          	beqz	zero,a00 <_min_stack-0x1600>
 200:	7fa89103          	lh	sp,2042(a7)
 204:	ee2d                	bnez	a2,27e <_min_stack-0x1d82>
 206:	0002                	c.slli64	zero
 208:	1600                	addi	s0,sp,800
 20a:	0004                	.2byte	0x4
 20c:	1be0                	addi	s0,sp,508
 20e:	000002f7          	.4byte	0x2f7
 212:	00c9                	addi	ra,ra,18
 214:	0000                	unimp
 216:	0222                	slli	tp,tp,0x8
 218:	0000                	unimp
 21a:	f815                	bnez	s0,14e <_min_stack-0x1eb2>
 21c:	0002                	c.slli64	zero
 21e:	0100                	addi	s0,sp,128
 220:	005a                	c.slli	zero,0x16
 222:	352e                	.2byte	0x352e
 224:	0004                	.2byte	0x4
 226:	1600                	addi	s0,sp,800
 228:	0004                	.2byte	0x4
 22a:	dce0                	sw	s0,124(s1)
 22c:	0000                	unimp
 22e:	0100                	addi	s0,sp,128
 230:	012e                	slli	sp,sp,0xb
 232:	00026b07          	.4byte	0x26b07
 236:	0100                	addi	s0,sp,128
 238:	0442                	slli	s0,s0,0x10
 23a:	0000                	unimp
 23c:	02d8                	addi	a4,sp,324
 23e:	0000                	unimp
 240:	4d01                	li	s10,0
 242:	0004                	.2byte	0x4
 244:	e500                	.2byte	0xe500
 246:	0002                	c.slli64	zero
 248:	0800                	addi	s0,sp,16
 24a:	00000457          	.4byte	0x457
 24e:	0416                	slli	s0,s0,0x5
 250:	e000                	.2byte	0xe000
 252:	00dc                	addi	a5,sp,68
 254:	0000                	unimp
 256:	0198                	addi	a4,sp,192
 258:	0468                	addi	a0,sp,524
 25a:	0000                	unimp
 25c:	02e5                	addi	t0,t0,25
 25e:	0000                	unimp
 260:	1e12                	slli	t3,t3,0x24
 262:	0004                	.2byte	0x4
 264:	c8e0                	sw	s0,84(s1)
 266:	0004                	.2byte	0x4
 268:	0000                	unimp
 26a:	1c00                	addi	s0,sp,560
 26c:	0386                	slli	t2,t2,0x1
 26e:	e000                	.2byte	0xe000
 270:	059f 0000 0280      	.byte	0x9f, 0x05, 0x00, 0x00, 0x80, 0x02
 276:	0000                	unimp
 278:	0003db0b          	.4byte	0x3db0b
 27c:	0100                	addi	s0,sp,128
 27e:	0030                	addi	a2,sp,8
 280:	0003b207          	.4byte	0x3b207
 284:	d6e0                	sw	s0,108(a3)
 286:	0006                	c.slli	zero,0x1
 288:	0b00                	addi	s0,sp,400
 28a:	032d                	addi	t1,t1,11
 28c:	0000                	unimp
 28e:	3001                	jal	fffffa8e <fromhost+0x1ffefa7e>
 290:	0000                	unimp
 292:	0000                	unimp
 294:	8c09                	sub	s0,s0,a0
 296:	0001                	nop
 298:	f300                	.2byte	0xf300
 29a:	440c                	lw	a1,8(s0)
 29c:	0000                	unimp
 29e:	0400                	addi	s0,sp,512
 2a0:	04000003          	lb	zero,64(zero) # 40 <_min_stack-0x1fc0>
 2a4:	0074756f          	jal	a0,47aaa <tohost+0x27aa2>
 2a8:	03041af3          	csrrw	s5,0x30,s0
 2ac:	0000                	unimp
 2ae:	2d0a                	.2byte	0x2d0a
 2b0:	0001                	nop
 2b2:	f300                	.2byte	0xf300
 2b4:	0001682b          	.4byte	0x1682b
 2b8:	0400                	addi	s0,sp,512
 2ba:	6176                	.2byte	0x6176
 2bc:	f300                	.2byte	0xf300
 2be:	0000383b          	.4byte	0x383b
 2c2:	1600                	addi	s0,sp,800
 2c4:	0122                	slli	sp,sp,0x8
 2c6:	0000                	unimp
 2c8:	10f5                	addi	ra,ra,-3
 2ca:	0044                	addi	s1,sp,4
 2cc:	0000                	unimp
 2ce:	7002                	.2byte	0x7002
 2d0:	6461                	lui	s0,0x18
 2d2:	f500                	.2byte	0xf500
 2d4:	00004417          	auipc	s0,0x4
 2d8:	0200                	addi	s0,sp,256
 2da:	6370                	.2byte	0x6370
 2dc:	f600                	.2byte	0xf600
 2de:	4410                	lw	a2,8(s0)
 2e0:	0000                	unimp
 2e2:	0200                	addi	s0,sp,256
 2e4:	00726373          	csrrsi	t1,0x7,4
 2e8:	030e08f7          	.4byte	0x30e08f7
 2ec:	0000                	unimp
 2ee:	74756f2f          	.4byte	0x74756f2f
 2f2:	0100                	addi	s0,sp,128
 2f4:	012d                	addi	sp,sp,11 # 6818000b <tohost+0x68160003>
 2f6:	1701                	addi	a4,a4,-32 # c116ffe0 <fromhost+0xe115ffd0>
 2f8:	7319                	lui	t1,0xfffe6
 2fa:	1000                	addi	s0,sp,32
 2fc:	1801                	addi	a6,a6,-32
 2fe:	0309                	addi	t1,t1,2 # fffe6002 <fromhost+0x1ffd5ff2>
 300:	0000                	unimp
 302:	0000                	unimp
 304:	00030913          	mv	s2,t1
 308:	1300                	addi	s0,sp,416
 30a:	00ad                	addi	ra,ra,11
 30c:	0000                	unimp
 30e:	ad10                	.2byte	0xad10
 310:	0000                	unimp
 312:	1e00                	addi	s0,sp,816
 314:	11000003          	lb	zero,272(zero) # 110 <_min_stack-0x1ef0>
 318:	0000004b          	.4byte	0x4b
 31c:	0001                	nop
 31e:	5d09                	li	s10,-30
 320:	0000                	unimp
 322:	b900                	.2byte	0xb900
 324:	440c                	lw	a1,8(s0)
 326:	0000                	unimp
 328:	bc00                	.2byte	0xbc00
 32a:	04000003          	lb	zero,64(zero) # 40 <_min_stack-0x1fc0>
 32e:	0074756f          	jal	a0,47b34 <tohost+0x27b2c>
 332:	1bb9                	addi	s7,s7,-18
 334:	0304                	addi	s1,sp,384
 336:	0000                	unimp
 338:	6904                	.2byte	0x6904
 33a:	b900                	.2byte	0xb900
 33c:	4424                	lw	s1,72(s0)
 33e:	0000                	unimp
 340:	0400                	addi	s0,sp,512
 342:	0062                	c.slli	zero,0x18
 344:	2bb9                	jal	8a2 <_min_stack-0x175e>
 346:	0044                	addi	s1,sp,4
 348:	0000                	unimp
 34a:	7304                	.2byte	0x7304
 34c:	32b90067          	jr	811(s2)
 350:	0044                	addi	s1,sp,4
 352:	0000                	unimp
 354:	220a                	.2byte	0x220a
 356:	0001                	nop
 358:	b900                	.2byte	0xb900
 35a:	443a                	lw	s0,140(sp)
 35c:	0000                	unimp
 35e:	0400                	addi	s0,sp,512
 360:	6170                	.2byte	0x6170
 362:	0064                	addi	s1,sp,12
 364:	45b9                	li	a1,14
 366:	0044                	addi	s1,sp,4
 368:	0000                	unimp
 36a:	ae0a                	.2byte	0xae0a
 36c:	0001                	nop
 36e:	b900                	.2byte	0xb900
 370:	0000ad4f          	.4byte	0xad4f
 374:	1600                	addi	s0,sp,800
 376:	0160                	addi	s0,sp,140
 378:	0000                	unimp
 37a:	03bc08bb          	.4byte	0x3bc08bb
 37e:	0000                	unimp
 380:	7302                	.2byte	0x7302
 382:	bc00                	.2byte	0xbc00
 384:	0912                	slli	s2,s2,0x4
 386:	02000003          	lb	zero,32(zero) # 20 <_min_stack-0x1fe0>
 38a:	656e                	.2byte	0x656e
 38c:	10bd0067          	jr	267(s10)
 390:	0044                	addi	s1,sp,4
 392:	0000                	unimp
 394:	7002                	.2byte	0x7002
 396:	19bd0063          	beq	s10,s11,516 <_min_stack-0x1aea>
 39a:	0044                	addi	s1,sp,4
 39c:	0000                	unimp
 39e:	7402                	.2byte	0x7402
 3a0:	be00                	.2byte	0xbe00
 3a2:	4b10                	lw	a2,16(a4)
 3a4:	0000                	unimp
 3a6:	0200                	addi	s0,sp,256
 3a8:	0075                	c.nop	29
 3aa:	12be                	slli	t0,t0,0x2f
 3ac:	0000004b          	.4byte	0x4b
 3b0:	00740217          	auipc	tp,0x740
 3b4:	0bd4                	addi	a3,sp,468
 3b6:	0044                	addi	s1,sp,4
 3b8:	0000                	unimp
 3ba:	0000                	unimp
 3bc:	ad10                	.2byte	0xad10
 3be:	0000                	unimp
 3c0:	cc00                	sw	s0,24(s0)
 3c2:	11000003          	lb	zero,272(zero) # 110 <_min_stack-0x1ef0>
 3c6:	0000004b          	.4byte	0x4b
 3ca:	001f d009 0001      	.byte	0x1f, 0x00, 0x09, 0xd0, 0x01, 0x00
 3d0:	9b00                	.2byte	0x9b00
 3d2:	440c                	lw	a1,8(s0)
 3d4:	0000                	unimp
 3d6:	3500                	.2byte	0x3500
 3d8:	0004                	.2byte	0x4
 3da:	0400                	addi	s0,sp,512
 3dc:	0074756f          	jal	a0,47be2 <tohost+0x27bda>
 3e0:	03041b9b          	.4byte	0x3041b9b
 3e4:	0000                	unimp
 3e6:	4f0a                	lw	t5,128(sp)
 3e8:	0000                	unimp
 3ea:	9b00                	.2byte	0x9b00
 3ec:	682c                	.2byte	0x682c
 3ee:	0001                	nop
 3f0:	0a00                	addi	s0,sp,272
 3f2:	0122                	slli	sp,sp,0x8
 3f4:	0000                	unimp
 3f6:	0044389b          	.4byte	0x44389b
 3fa:	0000                	unimp
 3fc:	7004                	.2byte	0x7004
 3fe:	6461                	lui	s0,0x18
 400:	9b00                	.2byte	0x9b00
 402:	00004443          	.4byte	0x4443
 406:	0200                	addi	s0,sp,256
 408:	6370                	.2byte	0x6370
 40a:	9d00                	.2byte	0x9d00
 40c:	4410                	lw	a2,8(s0)
 40e:	0000                	unimp
 410:	1600                	addi	s0,sp,800
 412:	0074                	addi	a3,sp,12
 414:	0000                	unimp
 416:	189d                	addi	a7,a7,-25
 418:	0044                	addi	s1,sp,4
 41a:	0000                	unimp
 41c:	656c0217          	auipc	tp,0x656c0
 420:	006e                	c.slli	zero,0x1b
 422:	12a0                	addi	s0,sp,360
 424:	0044                	addi	s1,sp,4
 426:	0000                	unimp
 428:	7002                	.2byte	0x7002
 42a:	7274                	.2byte	0x7274
 42c:	a100                	.2byte	0xa100
 42e:	681a                	.2byte	0x681a
 430:	0001                	nop
 432:	0000                	unimp
 434:	3000                	.2byte	0x3000
 436:	001f 0000 9001      	.byte	0x1f, 0x00, 0x00, 0x00, 0x01, 0x90
 43c:	010d                	addi	sp,sp,3
 43e:	00000457          	.4byte	0x457
 442:	7304                	.2byte	0x7304
 444:	7274                	.2byte	0x7274
 446:	9000                	.2byte	0x9000
 448:	041f 0003 0400      	.byte	0x1f, 0x04, 0x03, 0x00, 0x00, 0x04
 44e:	28900063          	beq	zero,s1,6ce <_min_stack-0x1932>
 452:	0044                	addi	s1,sp,4
 454:	0000                	unimp
 456:	3100                	.2byte	0x3100
 458:	011a                	slli	sp,sp,0x6
 45a:	0000                	unimp
 45c:	8a01                	andi	a2,a2,0
 45e:	4405                	li	s0,1
 460:	0000                	unimp
 462:	0100                	addi	s0,sp,128
 464:	0472                	slli	s0,s0,0x1c
 466:	0000                	unimp
 468:	7304                	.2byte	0x7304
 46a:	8a00                	.2byte	0x8a00
 46c:	4411                	li	s0,4
 46e:	0000                	unimp
 470:	0000                	unimp
 472:	6a09                	lui	s4,0x2
 474:	0001                	nop
 476:	8500                	.2byte	0x8500
 478:	4b11                	li	s6,4
 47a:	0000                	unimp
 47c:	8b00                	.2byte	0x8b00
 47e:	0004                	.2byte	0x4
 480:	0400                	addi	s0,sp,512
 482:	006e                	c.slli	zero,0x1b
 484:	2185                	jal	8e4 <_min_stack-0x171c>
 486:	0000004b          	.4byte	0x4b
 48a:	0900                	addi	s0,sp,144
 48c:	0056                	c.slli	zero,0x15
 48e:	0000                	unimp
 490:	004b1173          	csrrw	sp,uie,s6
 494:	0000                	unimp
 496:	04b6                	slli	s1,s1,0xd
 498:	0000                	unimp
 49a:	6e04                	.2byte	0x6e04
 49c:	7300                	.2byte	0x7300
 49e:	4b21                	li	s6,8
 4a0:	0000                	unimp
 4a2:	0200                	addi	s0,sp,256
 4a4:	0071                	c.nop	28
 4a6:	0c74                	addi	a3,sp,540
 4a8:	0000004b          	.4byte	0x4b
 4ac:	7202                	.2byte	0x7202
 4ae:	7400                	.2byte	0x7400
 4b0:	00004b0f          	.4byte	0x4b0f
 4b4:	0000                	unimp
 4b6:	2a32                	.2byte	0x2a32
 4b8:	0000                	unimp
 4ba:	0100                	addi	s0,sp,128
 4bc:	0655                	addi	a2,a2,21
 4be:	02a2                	slli	t0,t0,0x8
 4c0:	e000                	.2byte	0xe000
 4c2:	000e                	c.slli	zero,0x3
 4c4:	0000                	unimp
 4c6:	9c01                	.2byte	0x9c01
 4c8:	c20c                	sw	a1,0(a2)
 4ca:	0001                	nop
 4cc:	4d00                	lw	s0,24(a0)
 4ce:	00ea                	slli	ra,ra,0x1a
 4d0:	e000                	.2byte	0xe000
 4d2:	0010                	.2byte	0x10
 4d4:	0000                	unimp
 4d6:	9c01                	.2byte	0x9c01
 4d8:	04e9                	addi	s1,s1,26
 4da:	0000                	unimp
 4dc:	01006333          	or	t1,zero,a6
 4e0:	1f4d                	addi	t5,t5,-13
 4e2:	00b4                	addi	a3,sp,72
 4e4:	0000                	unimp
 4e6:	5a01                	li	s4,-32
 4e8:	3400                	.2byte	0x3400
 4ea:	0000                	unimp
 4ec:	0000                	unimp
 4ee:	4701                	li	a4,0
 4f0:	ad06                	.2byte	0xad06
 4f2:	0000                	unimp
 4f4:	d800                	sw	s0,48(s0)
 4f6:	0000                	unimp
 4f8:	12e0                	addi	s0,sp,364
 4fa:	0000                	unimp
 4fc:	0100                	addi	s0,sp,128
 4fe:	0c9c                	addi	a5,sp,592
 500:	019a                	slli	gp,gp,0x6
 502:	0000                	unimp
 504:	b235                	j	fffffe30 <fromhost+0x1ffefe20>
 506:	0000                	unimp
 508:	26e0                	.2byte	0x26e0
 50a:	0000                	unimp
 50c:	0100                	addi	s0,sp,128
 50e:	3b9c                	.2byte	0x3b9c
 510:	0005                	c.nop	1
 512:	1d00                	addi	s0,sp,688
 514:	00727473          	csrrci	s0,0x7,4
 518:	681c                	.2byte	0x681c
 51a:	0001                	nop
 51c:	f800                	.2byte	0xf800
 51e:	0002                	c.slli64	zero
 520:	1d00                	addi	s0,sp,688
 522:	656c                	.2byte	0x656c
 524:	006e                	c.slli	zero,0x1b
 526:	4b2e                	lw	s6,200(sp)
 528:	0000                	unimp
 52a:	0f00                	addi	s0,sp,912
 52c:	35000003          	lb	zero,848(zero) # 350 <_min_stack-0x1cb0>
 530:	0069                	c.nop	26
 532:	3601                	jal	32 <_min_stack-0x1fce>
 534:	4b10                	lw	a2,16(a4)
 536:	0000                	unimp
 538:	0000                	unimp
 53a:	0c00                	addi	s0,sp,528
 53c:	0171                	addi	sp,sp,28
 53e:	0000                	unimp
 540:	842a                	mv	s0,a0
 542:	0000                	unimp
 544:	2ee0                	.2byte	0x2ee0
 546:	0000                	unimp
 548:	0100                	addi	s0,sp,128
 54a:	779c                	.2byte	0x779c
 54c:	0005                	c.nop	1
 54e:	3600                	.2byte	0x3600
 550:	01d8                	addi	a4,sp,196
 552:	0000                	unimp
 554:	2a01                	jal	664 <_min_stack-0x199c>
 556:	00004417          	auipc	s0,0x4
 55a:	0100                	addi	s0,sp,128
 55c:	375a                	.2byte	0x375a
 55e:	00ee                	slli	ra,ra,0x1b
 560:	0000                	unimp
 562:	2a01                	jal	672 <_min_stack-0x198e>
 564:	7c28                	.2byte	0x7c28
 566:	0000                	unimp
 568:	3300                	.2byte	0x3300
 56a:	02000003          	lb	zero,32(zero) # 20 <_min_stack-0x1fe0>
 56e:	0069                	c.nop	26
 570:	004b102b          	.4byte	0x4b102b
 574:	0000                	unimp
 576:	0c00                	addi	s0,sp,528
 578:	003c                	addi	a5,sp,8
 57a:	0000                	unimp
 57c:	0004201b          	.4byte	0x4201b
 580:	0ae0                	addi	s0,sp,348
 582:	0000                	unimp
 584:	0100                	addi	s0,sp,128
 586:	9f9c                	.2byte	0x9f9c
 588:	0005                	c.nop	1
 58a:	3800                	.2byte	0x3800
 58c:	042a                	slli	s0,s0,0xa
 58e:	e000                	.2byte	0xe000
 590:	016d                	addi	sp,sp,27
 592:	0000                	unimp
 594:	0106                	slli	sp,sp,0x1
 596:	055a                	slli	a0,a0,0x16
 598:	00253403          	.4byte	0x253403
 59c:	00e0                	addi	s0,sp,76
 59e:	1e00                	addi	s0,sp,816
 5a0:	03cc                	addi	a1,sp,452
 5a2:	0000                	unimp
 5a4:	00fa                	slli	ra,ra,0x1e
 5a6:	e000                	.2byte	0xe000
 5a8:	00a6                	slli	ra,ra,0x9
 5aa:	0000                	unimp
 5ac:	9c01                	.2byte	0x9c01
 5ae:	06d6                	slli	a3,a3,0x15
 5b0:	0000                	unimp
 5b2:	e601                	bnez	a2,5ba <_min_stack-0x1a46>
 5b4:	4d000003          	lb	zero,1232(zero) # 4d0 <_min_stack-0x1b30>
 5b8:	01000003          	lb	zero,16(zero) # 10 <_min_stack-0x1ff0>
 5bc:	03f1                	addi	t2,t2,28
 5be:	0000                	unimp
 5c0:	00000377          	.4byte	0x377
 5c4:	fc01                	bnez	s0,4dc <_min_stack-0x1b24>
 5c6:	dd000003          	lb	zero,-560(zero) # fffffdd0 <fromhost+0x1ffefdc0>
 5ca:	03000003          	lb	zero,48(zero) # 30 <_min_stack-0x1fd0>
 5ce:	00000407          	.4byte	0x407
 5d2:	0410                	addi	a2,sp,512
 5d4:	0000                	unimp
 5d6:	00041103          	lh	sp,0(s0) # 4556 <_min_stack+0x2556>
 5da:	2800                	.2byte	0x2800
 5dc:	0004                	.2byte	0x4
 5de:	1400                	addi	s0,sp,544
 5e0:	000003db          	.4byte	0x3db
 5e4:	00041c1b          	.4byte	0x41c1b
 5e8:	0c00                	addi	s0,sp,528
 5ea:	0000                	unimp
 5ec:	0400                	addi	s0,sp,512
 5ee:	0006                	c.slli	zero,0x1
 5f0:	0300                	addi	s0,sp,384
 5f2:	041d                	addi	s0,s0,7
 5f4:	0000                	unimp
 5f6:	00000443          	.4byte	0x443
 5fa:	00042803          	lw	a6,0(s0)
 5fe:	5a00                	lw	s0,48(a2)
 600:	0004                	.2byte	0x4
 602:	0000                	unimp
 604:	350d                	jal	426 <_min_stack-0x1bda>
 606:	0004                	.2byte	0x4
 608:	4000                	lw	s0,0(s0)
 60a:	0001                	nop
 60c:	28e0                	.2byte	0x28e0
 60e:	0000                	unimp
 610:	a900                	.2byte	0xa900
 612:	00064a07          	.4byte	0x64a07
 616:	0100                	addi	s0,sp,128
 618:	0442                	slli	s0,s0,0x10
 61a:	0000                	unimp
 61c:	0496                	slli	s1,s1,0x5
 61e:	0000                	unimp
 620:	4d0e                	lw	s10,192(sp)
 622:	0004                	.2byte	0x4
 624:	0800                	addi	s0,sp,16
 626:	00000457          	.4byte	0x457
 62a:	0140                	addi	s0,sp,132
 62c:	e000                	.2byte	0xe000
 62e:	0000003b          	.4byte	0x3b
 632:	0e98                	addi	a4,sp,848
 634:	0468                	addi	a0,sp,524
 636:	0000                	unimp
 638:	00014e07          	.4byte	0x14e07
 63c:	c8e0                	sw	s0,84(s1)
 63e:	0004                	.2byte	0x4
 640:	0600                	addi	s0,sp,768
 642:	5a01                	li	s4,-32
 644:	8302                	jr	t1
 646:	0000                	unimp
 648:	0000                	unimp
 64a:	3539                	jal	458 <_min_stack-0x1ba8>
 64c:	0004                	.2byte	0x4
 64e:	6400                	.2byte	0x6400
 650:	0001                	nop
 652:	02e0                	addi	s0,sp,332
 654:	0000                	unimp
 656:	0100                	addi	s0,sp,128
 658:	05ae                	slli	a1,a1,0xb
 65a:	0694                	addi	a3,sp,832
 65c:	0000                	unimp
 65e:	4201                	li	tp,0
 660:	0004                	.2byte	0x4
 662:	a300                	.2byte	0xa300
 664:	0004                	.2byte	0x4
 666:	0100                	addi	s0,sp,128
 668:	044d                	addi	s0,s0,19
 66a:	0000                	unimp
 66c:	04b0                	addi	a2,sp,584
 66e:	0000                	unimp
 670:	573a                	lw	a4,172(sp)
 672:	0004                	.2byte	0x4
 674:	6400                	.2byte	0x6400
 676:	0001                	nop
 678:	02e0                	addi	s0,sp,332
 67a:	0000                	unimp
 67c:	0100                	addi	s0,sp,128
 67e:	0598                	addi	a4,sp,704
 680:	6801                	.2byte	0x6801
 682:	0004                	.2byte	0x4
 684:	b000                	.2byte	0xb000
 686:	0004                	.2byte	0x4
 688:	1200                	addi	s0,sp,288
 68a:	0166                	slli	sp,sp,0x19
 68c:	e000                	.2byte	0xe000
 68e:	04c8                	addi	a0,sp,580
 690:	0000                	unimp
 692:	0000                	unimp
 694:	3508                	.2byte	0x3508
 696:	0004                	.2byte	0x4
 698:	7600                	.2byte	0x7600
 69a:	0001                	nop
 69c:	4ee0                	lw	s0,92(a3)
 69e:	0000                	unimp
 6a0:	b200                	.2byte	0xb200
 6a2:	4201                	li	tp,0
 6a4:	0004                	.2byte	0x4
 6a6:	c100                	sw	s0,0(a0)
 6a8:	0004                	.2byte	0x4
 6aa:	0e00                	addi	s0,sp,784
 6ac:	044d                	addi	s0,s0,19
 6ae:	0000                	unimp
 6b0:	5708                	lw	a0,40(a4)
 6b2:	0004                	.2byte	0x4
 6b4:	7600                	.2byte	0x7600
 6b6:	0001                	nop
 6b8:	61e0                	.2byte	0x61e0
 6ba:	0000                	unimp
 6bc:	9800                	.2byte	0x9800
 6be:	680e                	.2byte	0x680e
 6c0:	0004                	.2byte	0x4
 6c2:	0700                	addi	s0,sp,896
 6c4:	019c                	addi	a5,sp,192
 6c6:	e000                	.2byte	0xe000
 6c8:	04c8                	addi	a0,sp,580
 6ca:	0000                	unimp
 6cc:	0106                	slli	sp,sp,0x1
 6ce:	025a                	slli	tp,tp,0x16
 6d0:	0079                	c.nop	30
 6d2:	0000                	unimp
 6d4:	0000                	unimp
 6d6:	1e1e                	slli	t3,t3,0x27
 6d8:	a0000003          	lb	zero,-1536(zero) # fffffa00 <fromhost+0x1ffef9f0>
 6dc:	0001                	nop
 6de:	02e0                	addi	s0,sp,332
 6e0:	0001                	nop
 6e2:	0100                	addi	s0,sp,128
 6e4:	519c                	lw	a5,32(a1)
 6e6:	0008                	.2byte	0x8
 6e8:	0100                	addi	s0,sp,128
 6ea:	0338                	addi	a4,sp,392
 6ec:	0000                	unimp
 6ee:	04ce                	slli	s1,s1,0x13
 6f0:	0000                	unimp
 6f2:	4101                	li	sp,0
 6f4:	1a000003          	lb	zero,416(zero) # 1a0 <_min_stack-0x1e60>
 6f8:	0005                	c.nop	1
 6fa:	0100                	addi	s0,sp,128
 6fc:	034a                	slli	t1,t1,0x12
 6fe:	0000                	unimp
 700:	0571                	addi	a0,a0,28
 702:	0000                	unimp
 704:	5401                	li	s0,-32
 706:	c8000003          	lb	zero,-896(zero) # fffffc80 <fromhost+0x1ffefc70>
 70a:	0005                	c.nop	1
 70c:	0100                	addi	s0,sp,128
 70e:	035f 0000 060f      	.byte	0x5f, 0x03, 0x00, 0x00, 0x0f, 0x06
 714:	0000                	unimp
 716:	6a01                	.2byte	0x6a01
 718:	59000003          	lb	zero,1424(zero) # 590 <_min_stack-0x1a70>
 71c:	0006                	c.slli	zero,0x1
 71e:	1500                	addi	s0,sp,672
 720:	0375                	addi	t1,t1,29
 722:	0000                	unimp
 724:	9102                	jalr	sp
 726:	0350                	addi	a2,sp,388
 728:	0380                	addi	s0,sp,448
 72a:	0000                	unimp
 72c:	06a5                	addi	a3,a3,9 # a2231009 <fromhost+0xc2220ff9>
 72e:	0000                	unimp
 730:	00038903          	lb	s2,0(t2)
 734:	e100                	.2byte	0xe100
 736:	0006                	c.slli	zero,0x1
 738:	0300                	addi	s0,sp,384
 73a:	0394                	addi	a3,sp,448
 73c:	0000                	unimp
 73e:	00000733          	add	a4,zero,zero
 742:	00039e3b          	.4byte	0x39e3b
 746:	0300                	addi	s0,sp,384
 748:	000003a7          	.4byte	0x3a7
 74c:	0000076f          	jal	a4,74c <_min_stack-0x18b4>
 750:	2d14                	.2byte	0x2d14
 752:	0d000003          	lb	zero,208(zero) # d0 <_min_stack-0x1f30>
 756:	0472                	slli	s0,s0,0x1c
 758:	0000                	unimp
 75a:	01e8                	addi	a0,sp,204
 75c:	e000                	.2byte	0xe000
 75e:	0074                	addi	a3,sp,12
 760:	0000                	unimp
 762:	0edf 0772 0000      	.byte	0xdf, 0x0e, 0x72, 0x07, 0x00, 0x00
 768:	8101                	c.srli64	a0
 76a:	0004                	.2byte	0x4
 76c:	d800                	sw	s0,48(s0)
 76e:	00000007          	.4byte	0x7
 772:	8b0d                	andi	a4,a4,3
 774:	0004                	.2byte	0x4
 776:	f800                	.2byte	0xf800
 778:	0001                	nop
 77a:	90e0                	.2byte	0x90e0
 77c:	0000                	unimp
 77e:	e000                	.2byte	0xe000
 780:	0007a70b          	.4byte	0x7a70b
 784:	0100                	addi	s0,sp,128
 786:	049a                	slli	s1,s1,0x6
 788:	0000                	unimp
 78a:	07e4                	addi	s1,sp,972
 78c:	0000                	unimp
 78e:	901a                	c.add	zero,t1
 790:	0000                	unimp
 792:	0300                	addi	s0,sp,384
 794:	000004a3          	sb	zero,9(zero) # 9 <_min_stack-0x1ff7>
 798:	07fd                	addi	a5,a5,31
 79a:	0000                	unimp
 79c:	0004ac03          	lw	s8,0(s1)
 7a0:	0900                	addi	s0,sp,144
 7a2:	0008                	.2byte	0x8
 7a4:	0000                	unimp
 7a6:	3c00                	.2byte	0x3c00
 7a8:	03b0                	addi	a2,sp,456
 7aa:	0000                	unimp
 7ac:	0250                	addi	a2,sp,260
 7ae:	e000                	.2byte	0xe000
 7b0:	001e                	c.slli	zero,0x7
 7b2:	0000                	unimp
 7b4:	07c2                	slli	a5,a5,0x10
 7b6:	0000                	unimp
 7b8:	0003b103          	.4byte	0x3b103
 7bc:	3200                	.2byte	0x3200
 7be:	0008                	.2byte	0x8
 7c0:	0000                	unimp
 7c2:	350d                	jal	5e4 <_min_stack-0x1a1c>
 7c4:	0004                	.2byte	0x4
 7c6:	7c00                	.2byte	0x7c00
 7c8:	0002                	c.slli64	zero
 7ca:	a3e0                	.2byte	0xa3e0
 7cc:	0000                	unimp
 7ce:	e700                	.2byte	0xe700
 7d0:	00081007          	.4byte	0x81007
 7d4:	0100                	addi	s0,sp,128
 7d6:	0442                	slli	s0,s0,0x10
 7d8:	0000                	unimp
 7da:	0000084b          	.4byte	0x84b
 7de:	4d01                	li	s10,0
 7e0:	0004                	.2byte	0x4
 7e2:	5800                	lw	s0,48(s0)
 7e4:	0008                	.2byte	0x8
 7e6:	0800                	addi	s0,sp,16
 7e8:	00000457          	.4byte	0x457
 7ec:	027c                	addi	a5,sp,268
 7ee:	e000                	.2byte	0xe000
 7f0:	000000a3          	sb	zero,1(zero) # 1 <_min_stack-0x1fff>
 7f4:	0198                	addi	a4,sp,192
 7f6:	0468                	addi	a0,sp,524
 7f8:	0000                	unimp
 7fa:	0858                	addi	a4,sp,20
 7fc:	0000                	unimp
 7fe:	00028607          	.4byte	0x28607
 802:	c8e0                	sw	s0,84(s1)
 804:	0004                	.2byte	0x4
 806:	0600                	addi	s0,sp,768
 808:	5a01                	li	s4,-32
 80a:	0802                	c.slli64	a6
 80c:	002d                	c.nop	11
 80e:	0000                	unimp
 810:	be1c                	.2byte	0xbe1c
 812:	0001                	nop
 814:	9fe0                	.2byte	0x9fe0
 816:	0005                	c.nop	1
 818:	3900                	.2byte	0x3900
 81a:	0008                	.2byte	0x8
 81c:	0600                	addi	s0,sp,768
 81e:	5a01                	li	s4,-32
 820:	9102                	jalr	sp
 822:	0650                	addi	a2,sp,772
 824:	5b01                	li	s6,-32
 826:	5d01a303          	lw	t1,1488(gp)
 82a:	0106                	slli	sp,sp,0x1
 82c:	035c                	addi	a5,sp,388
 82e:	0b5e01a3          	sb	s5,163(t3) # fffe10a3 <fromhost+0x1ffd1093>
 832:	000003db          	.4byte	0x3db
 836:	3001                	jal	36 <_min_stack-0x1fca>
 838:	0700                	addi	s0,sp,896
 83a:	0290                	addi	a2,sp,320
 83c:	e000                	.2byte	0xe000
 83e:	059f 0000 0106      	.byte	0x9f, 0x05, 0x00, 0x00, 0x06, 0x01
 844:	025a                	slli	tp,tp,0x16
 846:	0078                	addi	a4,sp,12
 848:	0003db0b          	.4byte	0x3db0b
 84c:	0100                	addi	s0,sp,128
 84e:	0030                	addi	a2,sp,8
 850:	3d00                	.2byte	0x3d00
 852:	00000457          	.4byte	0x457
 856:	02b0                	addi	a2,sp,328
 858:	e000                	.2byte	0xe000
 85a:	0018                	.2byte	0x18
 85c:	0000                	unimp
 85e:	9c01                	.2byte	0x9c01
 860:	6801                	.2byte	0x6801
 862:	0004                	.2byte	0x4
 864:	6600                	.2byte	0x6600
 866:	0008                	.2byte	0x8
 868:	0700                	addi	s0,sp,896
 86a:	02be                	slli	t0,t0,0xf
 86c:	e000                	.2byte	0xe000
 86e:	04c8                	addi	a0,sp,580
 870:	0000                	unimp
 872:	0106                	slli	sp,sp,0x1
 874:	025a                	slli	tp,tp,0x16
 876:	0078                	addi	a4,sp,12
 878:	0000                	unimp
 87a:	c800                	sw	s0,16(s0)
 87c:	0002                	c.slli64	zero
 87e:	0500                	addi	s0,sp,640
 880:	0100                	addi	s0,sp,128
 882:	8c04                	.2byte	0x8c04
 884:	0b000003          	lb	zero,176(zero) # b0 <_min_stack-0x1f50>
 888:	008a                	slli	ra,ra,0x2
 88a:	0000                	unimp
 88c:	431d                	li	t1,7
 88e:	0001                	nop
 890:	0000                	unimp
 892:	0000                	unimp
 894:	fb00                	.2byte	0xfb00
 896:	0000                	unimp
 898:	0000                	unimp
 89a:	0000                	unimp
 89c:	7500                	.2byte	0x7500
 89e:	000c                	.2byte	0xc
 8a0:	0100                	addi	s0,sp,128
 8a2:	0601                	addi	a2,a2,0
 8a4:	007e                	c.slli	zero,0x1f
 8a6:	0000                	unimp
 8a8:	0101                	addi	sp,sp,0
 8aa:	7c08                	.2byte	0x7c08
 8ac:	0000                	unimp
 8ae:	0100                	addi	s0,sp,128
 8b0:	0502                	c.slli64	a0
 8b2:	01a4                	addi	s1,sp,200
 8b4:	0000                	unimp
 8b6:	2f08                	.2byte	0x2f08
 8b8:	0002                	c.slli64	zero
 8ba:	0300                	addi	s0,sp,384
 8bc:	1939                	addi	s2,s2,-18
 8be:	00000047          	.4byte	0x47
 8c2:	0201                	addi	tp,tp,0 # 656c041c <tohost+0x656a0414>
 8c4:	0000fa07          	.4byte	0xfa07
 8c8:	0100                	addi	s0,sp,128
 8ca:	0504                	addi	s1,sp,640
 8cc:	00000183          	lb	gp,0(zero) # 0 <_min_stack-0x2000>
 8d0:	0401                	addi	s0,s0,0
 8d2:	00014e07          	.4byte	0x14e07
 8d6:	0100                	addi	s0,sp,128
 8d8:	0508                	addi	a0,sp,640
 8da:	017e                	slli	sp,sp,0x1f
 8dc:	0000                	unimp
 8de:	0801                	addi	a6,a6,0
 8e0:	00014907          	.4byte	0x14907
 8e4:	0c00                	addi	s0,sp,528
 8e6:	0504                	addi	s1,sp,640
 8e8:	6e69                	lui	t3,0x1a
 8ea:	0074                	addi	a3,sp,12
 8ec:	6a0d                	lui	s4,0x3
 8ee:	0000                	unimp
 8f0:	0100                	addi	s0,sp,128
 8f2:	0704                	addi	s1,sp,896
 8f4:	00000153          	.4byte	0x153
 8f8:	1001                	c.nop	-32
 8fa:	b604                	.2byte	0xb604
 8fc:	0001                	nop
 8fe:	0100                	addi	s0,sp,128
 900:	0801                	addi	a6,a6,0
 902:	0085                	addi	ra,ra,1
 904:	0000                	unimp
 906:	840e                	mv	s0,gp
 908:	0000                	unimp
 90a:	0900                	addi	s0,sp,144
 90c:	0000008b          	.4byte	0x8b
 910:	0000900f          	.4byte	0x900f
 914:	0800                	addi	s0,sp,16
 916:	0231                	addi	tp,tp,12 # c <_min_stack-0x1ff4>
 918:	0000                	unimp
 91a:	2404                	.2byte	0x2404
 91c:	3b14                	.2byte	0x3b14
 91e:	0000                	unimp
 920:	1000                	addi	s0,sp,32
 922:	00000193          	li	gp,0
 926:	c805                	beqz	s0,956 <_min_stack-0x16aa>
 928:	6a05                	lui	s4,0x1
 92a:	0000                	unimp
 92c:	bd00                	.2byte	0xbd00
 92e:	0000                	unimp
 930:	0600                	addi	s0,sp,768
 932:	0095                	addi	ra,ra,5
 934:	0000                	unimp
 936:	0011                	c.nop	4
 938:	7112                	.2byte	0x7112
 93a:	0001                	nop
 93c:	0600                	addi	s0,sp,768
 93e:	00d4063b          	.4byte	0xd4063b
 942:	0000                	unimp
 944:	6a06                	.2byte	0x6a06
 946:	0000                	unimp
 948:	0600                	addi	s0,sp,768
 94a:	009a                	slli	ra,ra,0x6
 94c:	0000                	unimp
 94e:	1300                	addi	s0,sp,416
 950:	0134                	addi	a3,sp,136
 952:	0000                	unimp
 954:	5102                	lw	sp,32(sp)
 956:	b206                	.2byte	0xb206
 958:	34e00023          	sb	a4,832(zero) # 340 <_min_stack-0x1cc0>
 95c:	0000                	unimp
 95e:	0100                	addi	s0,sp,128
 960:	179c                	addi	a5,sp,992
 962:	0001                	nop
 964:	1400                	addi	s0,sp,544
 966:	00000227          	.4byte	0x227
 96a:	5202                	lw	tp,32(sp)
 96c:	00006a07          	.4byte	0x6a07
 970:	9f00                	.2byte	0x9f00
 972:	7d02                	.2byte	0x7d02
 974:	0002                	c.slli64	zero
 976:	5300                	lw	s0,32(a4)
 978:	1712                	slli	a4,a4,0x24
 97a:	0001                	nop
 97c:	2000                	.2byte	0x2000
 97e:	4040                	lw	s0,4(s0)
 980:	0410                	addi	a2,sp,512
 982:	0200                	addi	s0,sp,256
 984:	0000                	unimp
 986:	01171b53          	.4byte	0x1171b53
 98a:	0000                	unimp
 98c:	8084                	.2byte	0x8084
 98e:	c180                	sw	s0,0(a1)
 990:	007c                	addi	a5,sp,12
 992:	7109                	addi	sp,sp,-384
 994:	0000                	unimp
 996:	1500                	addi	s0,sp,672
 998:	023a                	slli	tp,tp,0xe
 99a:	0000                	unimp
 99c:	0802                	c.slli64	a6
 99e:	6a05                	lui	s4,0x1
 9a0:	0000                	unimp
 9a2:	6a00                	.2byte	0x6a00
 9a4:	0024                	addi	s1,sp,8
 9a6:	c0e0                	sw	s0,68(s1)
 9a8:	0000                	unimp
 9aa:	0100                	addi	s0,sp,128
 9ac:	b59c                	.2byte	0xb59c
 9ae:	0002                	c.slli64	zero
 9b0:	0200                	addi	s0,sp,256
 9b2:	021d                	addi	tp,tp,7 # 7 <_min_stack-0x1ff9>
 9b4:	0000                	unimp
 9b6:	0712                	slli	a4,a4,0x4
 9b8:	006a                	c.slli	zero,0x1a
 9ba:	0000                	unimp
 9bc:	c200                	sw	s0,0(a2)
 9be:	0001                	nop
 9c0:	6a02                	.2byte	0x6a02
 9c2:	0002                	c.slli64	zero
 9c4:	1300                	addi	s0,sp,416
 9c6:	00006a07          	.4byte	0x6a07
 9ca:	0000                	unimp
 9cc:	f5e1                	bnez	a1,994 <_min_stack-0x166c>
 9ce:	0405                	addi	s0,s0,1
 9d0:	0274                	addi	a3,sp,268
 9d2:	0000                	unimp
 9d4:	01171217          	auipc	tp,0x1171
 9d8:	0000                	unimp
 9da:	80a0                	.2byte	0x80a0
 9dc:	7880                	.2byte	0x7880
 9de:	f504                	.2byte	0xf504
 9e0:	0001                	nop
 9e2:	1700                	addi	s0,sp,928
 9e4:	171e                	slli	a4,a4,0x27
 9e6:	0001                	nop
 9e8:	9400                	.2byte	0x9400
 9ea:	dc80                	sw	s0,56(s1)
 9ec:	7c88                	.2byte	0x7c88
 9ee:	df04                	sw	s1,56(a4)
 9f0:	0001                	nop
 9f2:	1700                	addi	s0,sp,928
 9f4:	172c                	addi	a1,sp,936
 9f6:	0001                	nop
 9f8:	fc00                	.2byte	0xfc00
 9fa:	8084                	.2byte	0x8084
 9fc:	7cc0                	.2byte	0x7cc0
 9fe:	6204                	.2byte	0x6204
 a00:	0002                	c.slli64	zero
 a02:	1700                	addi	s0,sp,928
 a04:	1739                	addi	a4,a4,-18
 a06:	0001                	nop
 a08:	9000                	.2byte	0x9000
 a0a:	80c0                	.2byte	0x80c0
 a0c:	7cc0                	.2byte	0x7cc0
 a0e:	3f02                	.2byte	0x3f02
 a10:	0002                	c.slli64	zero
 a12:	1800                	addi	s0,sp,48
 a14:	1712                	slli	a4,a4,0x24
 a16:	0001                	nop
 a18:	0800                	addi	s0,sp,16
 a1a:	4040                	lw	s0,4(s0)
 a1c:	0210                	addi	a2,sp,256
 a1e:	0246                	slli	tp,tp,0x11
 a20:	0000                	unimp
 a22:	1c18                	addi	a4,sp,560
 a24:	00000117          	auipc	sp,0x0
 a28:	4010                	lw	a2,0(s0)
 a2a:	1040                	addi	s0,sp,36
 a2c:	4d02                	lw	s10,0(sp)
 a2e:	0002                	c.slli64	zero
 a30:	1800                	addi	s0,sp,48
 a32:	1726                	slli	a4,a4,0x29
 a34:	0001                	nop
 a36:	1400                	addi	s0,sp,544
 a38:	4040                	lw	s0,4(s0)
 a3a:	0210                	addi	a2,sp,256
 a3c:	0254                	addi	a3,sp,260
 a3e:	0000                	unimp
 a40:	3018                	.2byte	0x3018
 a42:	00000117          	auipc	sp,0x0
 a46:	4018                	lw	a4,0(s0)
 a48:	1040                	addi	s0,sp,36
 a4a:	5b02                	lw	s6,32(sp)
 a4c:	0002                	c.slli64	zero
 a4e:	1800                	addi	s0,sp,48
 a50:	173a                	slli	a4,a4,0x2e
 a52:	0001                	nop
 a54:	1c00                	addi	s0,sp,560
 a56:	4040                	lw	s0,4(s0)
 a58:	0310                	addi	a2,sp,384
 a5a:	0061                	c.nop	24
 a5c:	00006a07          	.4byte	0x6a07
 a60:	9400                	.2byte	0x9400
 a62:	0008                	.2byte	0x8
 a64:	0300                	addi	s0,sp,384
 a66:	0062                	c.slli	zero,0x18
 a68:	6a0a                	.2byte	0x6a0a
 a6a:	0000                	unimp
 a6c:	ab00                	.2byte	0xab00
 a6e:	0008                	.2byte	0x8
 a70:	0300                	addi	s0,sp,384
 a72:	6a0d0063          	beqz	s10,1112 <_min_stack-0xeee>
 a76:	0000                	unimp
 a78:	c200                	sw	s0,0(a2)
 a7a:	0008                	.2byte	0x8
 a7c:	0300                	addi	s0,sp,384
 a7e:	0065                	c.nop	25
 a80:	6a10                	.2byte	0x6a10
 a82:	0000                	unimp
 a84:	d900                	sw	s0,48(a0)
 a86:	0008                	.2byte	0x8
 a88:	0300                	addi	s0,sp,384
 a8a:	0064                	addi	s1,sp,12
 a8c:	00006a13          	ori	s4,zero,0
 a90:	f000                	.2byte	0xf000
 a92:	0008                	.2byte	0x8
 a94:	0300                	addi	s0,sp,384
 a96:	7265                	lui	tp,0xffff9
 a98:	0072                	c.slli	zero,0x1c
 a9a:	6a16                	.2byte	0x6a16
 a9c:	0000                	unimp
 a9e:	0700                	addi	s0,sp,896
 aa0:	0009                	c.nop	2
 aa2:	1600                	addi	s0,sp,800
 aa4:	6176                	.2byte	0x6176
 aa6:	006c                	addi	a1,sp,12
 aa8:	1e02                	slli	t3,t3,0x20
 aaa:	760c                	.2byte	0x760c
 aac:	0000                	unimp
 aae:	8100                	.2byte	0x8100
 ab0:	8080                	.2byte	0x8080
 ab2:	7e80                	.2byte	0x7e80
 ab4:	e90a                	.2byte	0xe90a
 ab6:	0001                	nop
 ab8:	2100                	.2byte	0x2100
 aba:	0076                	c.slli	zero,0x1d
 abc:	0000                	unimp
 abe:	1808                	addi	a0,sp,48
 ac0:	ef0a                	.2byte	0xef0a
 ac2:	0001                	nop
 ac4:	2200                	.2byte	0x2200
 ac6:	0076                	c.slli	zero,0x1d
 ac8:	0000                	unimp
 aca:	0800                	addi	s0,sp,16
 acc:	00247c07          	.4byte	0x247c07
 ad0:	bde0                	.2byte	0xbde0
 ad2:	0000                	unimp
 ad4:	6a00                	.2byte	0x6a00
 ad6:	0002                	c.slli64	zero
 ad8:	0500                	addi	s0,sp,640
 ada:	5a01                	li	s4,-32
 adc:	3001                	jal	2dc <_min_stack-0x1d24>
 ade:	0105                	addi	sp,sp,1 # a43 <_min_stack-0x15bd>
 ae0:	3608025b          	.4byte	0x3608025b
 ae4:	1700                	addi	s0,sp,928
 ae6:	24be                	.2byte	0x24be
 ae8:	e000                	.2byte	0xe000
 aea:	02b5                	addi	t0,t0,13
 aec:	0000                	unimp
 aee:	0024d407          	.4byte	0x24d407
 af2:	a6e0                	.2byte	0xa6e0
 af4:	0000                	unimp
 af6:	8a00                	.2byte	0x8a00
 af8:	0002                	c.slli64	zero
 afa:	0500                	addi	s0,sp,640
 afc:	5a01                	li	s4,-32
 afe:	0305                	addi	t1,t1,1
 b00:	2544                	.2byte	0x2544
 b02:	e000                	.2byte	0xe000
 b04:	0700                	addi	s0,sp,896
 b06:	250e                	.2byte	0x250e
 b08:	e000                	.2byte	0xe000
 b0a:	00a6                	slli	ra,ra,0x9
 b0c:	0000                	unimp
 b0e:	02a1                	addi	t0,t0,8
 b10:	0000                	unimp
 b12:	0105                	addi	sp,sp,1
 b14:	055a                	slli	a0,a0,0x16
 b16:	00256403          	.4byte	0x256403
 b1a:	00e0                	addi	s0,sp,76
 b1c:	2618                	.2byte	0x2618
 b1e:	0025                	c.nop	9
 b20:	a6e0                	.2byte	0xa6e0
 b22:	0000                	unimp
 b24:	0500                	addi	s0,sp,640
 b26:	5a01                	li	s4,-32
 b28:	0305                	addi	t1,t1,1
 b2a:	2580                	.2byte	0x2580
 b2c:	e000                	.2byte	0xe000
 b2e:	0000                	unimp
 b30:	0b19                	addi	s6,s6,6
 b32:	0002                	c.slli64	zero
 b34:	0100                	addi	s0,sp,128
 b36:	0509                	addi	a0,a0,2
 b38:	006a                	c.slli	zero,0x1a
 b3a:	0000                	unimp
 b3c:	045a                	slli	s0,s0,0x16
 b3e:	e000                	.2byte	0xe000
 b40:	1f58                	addi	a4,sp,948
 b42:	0000                	unimp
 b44:	9c01                	.2byte	0x9c01
 b46:	1f00                	addi	s0,sp,944
 b48:	0000                	unimp
 b4a:	0500                	addi	s0,sp,640
 b4c:	0100                	addi	s0,sp,128
 b4e:	fd04                	.2byte	0xfd04
 b50:	0004                	.2byte	0x4
 b52:	0100                	addi	s0,sp,128
 b54:	4c65                	li	s8,25
 b56:	0000                	unimp
 b58:	011a                	slli	sp,sp,0x6
 b5a:	0000                	unimp
 b5c:	00000283          	lb	t0,0(zero) # 0 <_min_stack-0x2000>
 b60:	02ce                	slli	t0,t0,0x13
 b62:	0000                	unimp
 b64:	0315                	addi	t1,t1,5
 b66:	0000                	unimp
 b68:	8001                	c.srli64	s0

Disassembly of section .debug_abbrev:

00000000 <.debug_abbrev>:
   0:	0501                	addi	a0,a0,0
   2:	3100                	.2byte	0x3100
   4:	00170213          	addi	tp,a4,1
   8:	0200                	addi	s0,sp,256
   a:	0034                	addi	a3,sp,8
   c:	213a0803          	lb	a6,531(s4) # 1213 <_min_stack-0xded>
  10:	3b01                	jal	fffffd20 <fromhost+0x1ffefd10>
  12:	490b390b          	.4byte	0x490b390b
  16:	03000013          	li	zero,48
  1a:	0034                	addi	a3,sp,8
  1c:	1331                	addi	t1,t1,-20
  1e:	1702                	slli	a4,a4,0x20
  20:	0000                	unimp
  22:	0504                	addi	s1,sp,640
  24:	0300                	addi	s0,sp,384
  26:	3a08                	.2byte	0x3a08
  28:	0121                	addi	sp,sp,8
  2a:	0b390b3b          	.4byte	0xb390b3b
  2e:	1349                	addi	t1,t1,-14
  30:	0000                	unimp
  32:	2405                	jal	252 <_min_stack-0x1dae>
  34:	0b00                	addi	s0,sp,400
  36:	030b3e0b          	.4byte	0x30b3e0b
  3a:	000e                	c.slli	zero,0x3
  3c:	0600                	addi	s0,sp,768
  3e:	0049                	c.nop	18
  40:	1802                	slli	a6,a6,0x20
  42:	187e                	slli	a6,a6,0x3f
  44:	0000                	unimp
  46:	7d014807          	.4byte	0x7d014807
  4a:	7f01                	lui	t5,0xfffe0
  4c:	08000013          	li	zero,128
  50:	011d                	addi	sp,sp,7
  52:	1331                	addi	t1,t1,-20
  54:	0152                	slli	sp,sp,0x14
  56:	1755                	addi	a4,a4,-11
  58:	2158                	.2byte	0x2158
  5a:	5901                	li	s2,-32
  5c:	0521570b          	.4byte	0x521570b
  60:	0000                	unimp
  62:	2e09                	jal	374 <_min_stack-0x1c8c>
  64:	0301                	addi	t1,t1,0
  66:	3a0e                	.2byte	0x3a0e
  68:	0121                	addi	sp,sp,8
  6a:	0b390b3b          	.4byte	0xb390b3b
  6e:	13491927          	.4byte	0x13491927
  72:	2120                	.2byte	0x2120
  74:	0101                	addi	sp,sp,0
  76:	0a000013          	li	zero,160
  7a:	0005                	c.nop	1
  7c:	213a0e03          	lb	t3,531(s4)
  80:	3b01                	jal	fffffd90 <fromhost+0x1ffefd80>
  82:	490b390b          	.4byte	0x490b390b
  86:	0b000013          	li	zero,176
  8a:	0049                	c.nop	18
  8c:	0180                	addi	s0,sp,192
  8e:	00187e13          	andi	t3,a6,1
  92:	0c00                	addi	s0,sp,528
  94:	012e                	slli	sp,sp,0xb
  96:	0e03193f 3b01213a 	.8byte	0x3b01213a0e03193f
  9e:	0621390b          	.4byte	0x621390b
  a2:	01111927          	.4byte	0x1111927
  a6:	0612                	slli	a2,a2,0x4
  a8:	1840                	addi	s0,sp,52
  aa:	197a                	slli	s2,s2,0x3e
  ac:	1301                	addi	t1,t1,-32
  ae:	0000                	unimp
  b0:	1d0d                	addi	s10,s10,-29
  b2:	3101                	jal	fffffcb2 <fromhost+0x1ffefca2>
  b4:	55015213          	.4byte	0x55015213
  b8:	01215817          	auipc	a6,0x1215
  bc:	0b59                	addi	s6,s6,22
  be:	13010b57          	.4byte	0x13010b57
  c2:	0000                	unimp
  c4:	050e                	slli	a0,a0,0x3
  c6:	3100                	.2byte	0x3100
  c8:	0f000013          	li	zero,240
  cc:	0016                	c.slli	zero,0x5
  ce:	0b3a0e03          	lb	t3,179(s4)
  d2:	0b390b3b          	.4byte	0xb390b3b
  d6:	1349                	addi	t1,t1,-14
  d8:	0000                	unimp
  da:	0110                	addi	a2,sp,128
  dc:	4901                	li	s2,0
  de:	00130113          	addi	sp,t1,1
  e2:	1100                	addi	s0,sp,160
  e4:	0021                	c.nop	8
  e6:	1349                	addi	t1,t1,-14
  e8:	00000b2f          	.4byte	0xb2f
  ec:	4812                	lw	a6,4(sp)
  ee:	7d00                	.2byte	0x7d00
  f0:	7f01                	lui	t5,0xfffe0
  f2:	13000013          	li	zero,304
  f6:	210b000f          	.4byte	0x210b000f
  fa:	4904                	lw	s1,16(a0)
  fc:	14000013          	li	zero,320
 100:	0005                	c.nop	1
 102:	1331                	addi	t1,t1,-20
 104:	211c                	.2byte	0x211c
 106:	0000                	unimp
 108:	1500                	addi	s0,sp,672
 10a:	0034                	addi	a3,sp,8
 10c:	1331                	addi	t1,t1,-20
 10e:	1802                	slli	a6,a6,0x20
 110:	0000                	unimp
 112:	3416                	.2byte	0x3416
 114:	0300                	addi	s0,sp,384
 116:	3a0e                	.2byte	0x3a0e
 118:	0121                	addi	sp,sp,8
 11a:	0b390b3b          	.4byte	0xb390b3b
 11e:	1349                	addi	t1,t1,-14
 120:	0000                	unimp
 122:	00010b17          	auipc	s6,0x10
 126:	1800                	addi	s0,sp,48
 128:	012e                	slli	sp,sp,0xb
 12a:	0e03193f 3b01213a 	.8byte	0x3b01213a0e03193f
 132:	3905                	jal	fffffd62 <fromhost+0x1ffefd52>
 134:	0521                	addi	a0,a0,8
 136:	13491927          	.4byte	0x13491927
 13a:	0111                	addi	sp,sp,4
 13c:	0612                	slli	a2,a2,0x4
 13e:	1840                	addi	s0,sp,52
 140:	197a                	slli	s2,s2,0x3e
 142:	1301                	addi	t1,t1,-32
 144:	0000                	unimp
 146:	3419                	jal	fffffb4c <fromhost+0x1ffefb3c>
 148:	0300                	addi	s0,sp,384
 14a:	3a08                	.2byte	0x3a08
 14c:	0121                	addi	sp,sp,8
 14e:	0b39053b          	.4byte	0xb39053b
 152:	1349                	addi	t1,t1,-14
 154:	0000                	unimp
 156:	0b1a                	slli	s6,s6,0x6
 158:	5501                	li	a0,-32
 15a:	1b000017          	auipc	zero,0x1b000
 15e:	1331010b          	.4byte	0x1331010b
 162:	1755                	addi	a4,a4,-11
 164:	1301                	addi	t1,t1,-32
 166:	0000                	unimp
 168:	481c                	lw	a5,16(s0)
 16a:	7d01                	lui	s10,0xfffe0
 16c:	7f01                	lui	t5,0xfffe0
 16e:	00130113          	addi	sp,t1,1
 172:	1d00                	addi	s0,sp,688
 174:	0005                	c.nop	1
 176:	213a0803          	lb	a6,531(s4)
 17a:	3b01                	jal	fffffe8a <fromhost+0x1ffefe7a>
 17c:	3521                	jal	ffffff84 <fromhost+0x1ffeff74>
 17e:	0b39                	addi	s6,s6,14 # 10130 <_stack_len+0x8130>
 180:	1349                	addi	t1,t1,-14
 182:	1702                	slli	a4,a4,0x20
 184:	0000                	unimp
 186:	2e1e                	.2byte	0x2e1e
 188:	3101                	jal	fffffd88 <fromhost+0x1ffefd78>
 18a:	12011113          	.4byte	0x12011113
 18e:	4006                	.2byte	0x4006
 190:	7a18                	.2byte	0x7a18
 192:	0119                	addi	sp,sp,6
 194:	1f000013          	li	zero,496
 198:	0111                	addi	sp,sp,4
 19a:	0e25                	addi	t3,t3,9 # 1a009 <_stack_len+0x12009>
 19c:	1f030b13          	addi	s6,t1,496
 1a0:	01111f1b          	.4byte	0x1111f1b
 1a4:	0612                	slli	a2,a2,0x4
 1a6:	1710                	addi	a2,sp,928
 1a8:	0000                	unimp
 1aa:	0f20                	addi	s0,sp,920
 1ac:	0b00                	addi	s0,sp,400
 1ae:	000e030b          	.4byte	0xe030b
 1b2:	2100                	.2byte	0x2100
 1b4:	0024                	addi	s1,sp,8
 1b6:	0b3e0b0b          	.4byte	0xb3e0b0b
 1ba:	00000803          	lb	a6,0(zero) # 0 <_min_stack-0x2000>
 1be:	2622                	.2byte	0x2622
 1c0:	4900                	lw	s0,16(a0)
 1c2:	23000013          	li	zero,560
 1c6:	0034                	addi	a3,sp,8
 1c8:	0b3a0e03          	lb	t3,179(s4)
 1cc:	0b390b3b          	.4byte	0xb390b3b
 1d0:	1349                	addi	t1,t1,-14
 1d2:	1802193f 2e240000 	.8byte	0x2e2400001802193f
 1da:	3f00                	.2byte	0x3f00
 1dc:	0319                	addi	t1,t1,6
 1de:	3a0e                	.2byte	0x3a0e
 1e0:	39053b0b          	.4byte	0x39053b0b
 1e4:	1119270b          	.4byte	0x1119270b
 1e8:	1201                	addi	tp,tp,-32 # ffff8fe0 <fromhost+0x1ffe8fd0>
 1ea:	4006                	.2byte	0x4006
 1ec:	7a18                	.2byte	0x7a18
 1ee:	0019                	c.nop	6
 1f0:	2500                	.2byte	0x2500
 1f2:	0005                	c.nop	1
 1f4:	0b3a0803          	lb	a6,179(s4)
 1f8:	0b39053b          	.4byte	0xb39053b
 1fc:	1349                	addi	t1,t1,-14
 1fe:	1702                	slli	a4,a4,0x20
 200:	0000                	unimp
 202:	3426                	.2byte	0x3426
 204:	0300                	addi	s0,sp,384
 206:	3a08                	.2byte	0x3a08
 208:	39053b0b          	.4byte	0x39053b0b
 20c:	0213490b          	.4byte	0x213490b
 210:	27000017          	auipc	zero,0x27000
 214:	011d                	addi	sp,sp,7
 216:	1331                	addi	t1,t1,-20
 218:	0111                	addi	sp,sp,4
 21a:	0612                	slli	a2,a2,0x4
 21c:	0b58                	addi	a4,sp,404
 21e:	0559                	addi	a0,a0,22
 220:	13010b57          	.4byte	0x13010b57
 224:	0000                	unimp
 226:	1d28                	addi	a0,sp,696
 228:	3101                	jal	fffffe28 <fromhost+0x1ffefe18>
 22a:	12011113          	.4byte	0x12011113
 22e:	5806                	lw	a6,96(sp)
 230:	5705590b          	.4byte	0x5705590b
 234:	2900000b          	.4byte	0x2900000b
 238:	0005                	c.nop	1
 23a:	0b3a0e03          	lb	t3,179(s4)
 23e:	0b39053b          	.4byte	0xb39053b
 242:	1349                	addi	t1,t1,-14
 244:	1702                	slli	a4,a4,0x20
 246:	0000                	unimp
 248:	182a                	slli	a6,a6,0x2a
 24a:	0000                	unimp
 24c:	2b00                	.2byte	0x2b00
 24e:	0034                	addi	a3,sp,8
 250:	0b3a0803          	lb	a6,179(s4)
 254:	0b39053b          	.4byte	0xb39053b
 258:	1349                	addi	t1,t1,-14
 25a:	1802                	slli	a6,a6,0x20
 25c:	0000                	unimp
 25e:	1d2c                	addi	a1,sp,696
 260:	3101                	jal	fffffe60 <fromhost+0x1ffefe50>
 262:	55015213          	.4byte	0x55015213
 266:	590b5817          	auipc	a6,0x590b5
 26a:	5705                	li	a4,-31
 26c:	2d00000b          	.4byte	0x2d00000b
 270:	000a                	c.slli	zero,0x2
 272:	1331                	addi	t1,t1,-20
 274:	0111                	addi	sp,sp,4
 276:	0000                	unimp
 278:	1d2e                	slli	s10,s10,0x2b
 27a:	3101                	jal	fffffe7a <fromhost+0x1ffefe6a>
 27c:	55015213          	.4byte	0x55015213
 280:	590b5817          	auipc	a6,0x590b5
 284:	5705                	li	a4,-31
 286:	0013010b          	.4byte	0x13010b
 28a:	2f00                	.2byte	0x2f00
 28c:	000a                	c.slli	zero,0x2
 28e:	0b3a0803          	lb	a6,179(s4)
 292:	0b39053b          	.4byte	0xb39053b
 296:	0000                	unimp
 298:	2e30                	.2byte	0x2e30
 29a:	0301                	addi	t1,t1,0
 29c:	3a0e                	.2byte	0x3a0e
 29e:	390b3b0b          	.4byte	0x390b3b0b
 2a2:	2019270b          	.4byte	0x2019270b
 2a6:	0013010b          	.4byte	0x13010b
 2aa:	3100                	.2byte	0x3100
 2ac:	012e                	slli	sp,sp,0xb
 2ae:	0e03193f 0b3b0b3a 	.8byte	0xb3b0b3a0e03193f
 2b6:	0b39                	addi	s6,s6,14
 2b8:	13491927          	.4byte	0x13491927
 2bc:	0b20                	addi	s0,sp,408
 2be:	1301                	addi	t1,t1,-32
 2c0:	0000                	unimp
 2c2:	2e32                	.2byte	0x2e32
 2c4:	3f00                	.2byte	0x3f00
 2c6:	0319                	addi	t1,t1,6
 2c8:	3a0e                	.2byte	0x3a0e
 2ca:	390b3b0b          	.4byte	0x390b3b0b
 2ce:	1119270b          	.4byte	0x1119270b
 2d2:	1201                	addi	tp,tp,-32 # ffffffe0 <fromhost+0x1ffeffd0>
 2d4:	4006                	.2byte	0x4006
 2d6:	7a18                	.2byte	0x7a18
 2d8:	0019                	c.nop	6
 2da:	3300                	.2byte	0x3300
 2dc:	0005                	c.nop	1
 2de:	0b3a0803          	lb	a6,179(s4)
 2e2:	0b390b3b          	.4byte	0xb390b3b
 2e6:	1349                	addi	t1,t1,-14
 2e8:	1802                	slli	a6,a6,0x20
 2ea:	0000                	unimp
 2ec:	2e34                	.2byte	0x2e34
 2ee:	3f00                	.2byte	0x3f00
 2f0:	0319                	addi	t1,t1,6
 2f2:	3a0e                	.2byte	0x3a0e
 2f4:	390b3b0b          	.4byte	0x390b3b0b
 2f8:	1113490b          	.4byte	0x1113490b
 2fc:	1201                	addi	tp,tp,-32 # ffffffe0 <fromhost+0x1ffeffd0>
 2fe:	4006                	.2byte	0x4006
 300:	7a18                	.2byte	0x7a18
 302:	0019                	c.nop	6
 304:	3500                	.2byte	0x3500
 306:	0034                	addi	a3,sp,8
 308:	0b3a0803          	lb	a6,179(s4)
 30c:	0b390b3b          	.4byte	0xb390b3b
 310:	1349                	addi	t1,t1,-14
 312:	0b1c                	addi	a5,sp,400
 314:	0000                	unimp
 316:	0536                	slli	a0,a0,0xd
 318:	0300                	addi	s0,sp,384
 31a:	3a0e                	.2byte	0x3a0e
 31c:	390b3b0b          	.4byte	0x390b3b0b
 320:	0213490b          	.4byte	0x213490b
 324:	0018                	.2byte	0x18
 326:	3700                	.2byte	0x3700
 328:	0005                	c.nop	1
 32a:	0b3a0e03          	lb	t3,179(s4)
 32e:	0b390b3b          	.4byte	0xb390b3b
 332:	1349                	addi	t1,t1,-14
 334:	1702                	slli	a4,a4,0x20
 336:	0000                	unimp
 338:	4838                	lw	a4,80(s0)
 33a:	7d01                	lui	s10,0xfffe0
 33c:	8201                	c.srli64	a2
 33e:	1901                	addi	s2,s2,-32
 340:	137f                	.2byte	0x137f
 342:	0000                	unimp
 344:	1d39                	addi	s10,s10,-18 # fffdffee <fromhost+0x1ffcffde>
 346:	3101                	jal	ffffff46 <fromhost+0x1ffeff36>
 348:	12011113          	.4byte	0x12011113
 34c:	5806                	lw	a6,96(sp)
 34e:	570b590b          	.4byte	0x570b590b
 352:	0013010b          	.4byte	0x13010b
 356:	3a00                	.2byte	0x3a00
 358:	011d                	addi	sp,sp,7
 35a:	1331                	addi	t1,t1,-20
 35c:	0111                	addi	sp,sp,4
 35e:	0612                	slli	a2,a2,0x4
 360:	0b58                	addi	a4,sp,404
 362:	0b59                	addi	s6,s6,22
 364:	00000b57          	.4byte	0xb57
 368:	3100343b          	.4byte	0x3100343b
 36c:	3c000013          	li	zero,960
 370:	1331010b          	.4byte	0x1331010b
 374:	0111                	addi	sp,sp,4
 376:	0612                	slli	a2,a2,0x4
 378:	1301                	addi	t1,t1,-32
 37a:	0000                	unimp
 37c:	2e3d                	jal	6ba <_min_stack-0x1946>
 37e:	3101                	jal	ffffff7e <fromhost+0x1ffeff6e>
 380:	12011113          	.4byte	0x12011113
 384:	4006                	.2byte	0x4006
 386:	7a18                	.2byte	0x7a18
 388:	0019                	c.nop	6
 38a:	0000                	unimp
 38c:	2401                	jal	58c <_min_stack-0x1a74>
 38e:	0b00                	addi	s0,sp,400
 390:	030b3e0b          	.4byte	0x30b3e0b
 394:	000e                	c.slli	zero,0x3
 396:	0200                	addi	s0,sp,256
 398:	0034                	addi	a3,sp,8
 39a:	213a0e03          	lb	t3,531(s4)
 39e:	3b02                	.2byte	0x3b02
 3a0:	490b390b          	.4byte	0x490b390b
 3a4:	00061c13          	slli	s8,a2,0x0
 3a8:	0300                	addi	s0,sp,384
 3aa:	0034                	addi	a3,sp,8
 3ac:	213a0803          	lb	a6,531(s4)
 3b0:	3b02                	.2byte	0x3b02
 3b2:	1a21                	addi	s4,s4,-24
 3b4:	0b39                	addi	s6,s6,14
 3b6:	1349                	addi	t1,t1,-14
 3b8:	1702                	slli	a4,a4,0x20
 3ba:	0000                	unimp
 3bc:	3404                	.2byte	0x3404
 3be:	0300                	addi	s0,sp,384
 3c0:	3a0e                	.2byte	0x3a0e
 3c2:	0221                	addi	tp,tp,8 # 8 <_min_stack-0x1ff8>
 3c4:	0b390b3b          	.4byte	0xb390b3b
 3c8:	1349                	addi	t1,t1,-14
 3ca:	0d1c                	addi	a5,sp,656
 3cc:	0000                	unimp
 3ce:	4905                	li	s2,1
 3d0:	0200                	addi	s0,sp,256
 3d2:	7e18                	.2byte	0x7e18
 3d4:	0018                	.2byte	0x18
 3d6:	0600                	addi	s0,sp,768
 3d8:	0005                	c.nop	1
 3da:	1349                	addi	t1,t1,-14
 3dc:	0000                	unimp
 3de:	7d014807          	.4byte	0x7d014807
 3e2:	7f01                	lui	t5,0xfffe0
 3e4:	00130113          	addi	sp,t1,1
 3e8:	0800                	addi	s0,sp,16
 3ea:	0016                	c.slli	zero,0x5
 3ec:	0b3a0e03          	lb	t3,179(s4)
 3f0:	0b390b3b          	.4byte	0xb390b3b
 3f4:	1349                	addi	t1,t1,-14
 3f6:	0000                	unimp
 3f8:	0f09                	addi	t5,t5,2 # fffe0002 <fromhost+0x1ffcfff2>
 3fa:	0b00                	addi	s0,sp,400
 3fc:	0421                	addi	s0,s0,8
 3fe:	1349                	addi	t1,t1,-14
 400:	0000                	unimp
 402:	340a                	.2byte	0x340a
 404:	0300                	addi	s0,sp,384
 406:	3a0e                	.2byte	0x3a0e
 408:	0221                	addi	tp,tp,8 # 8 <_min_stack-0x1ff8>
 40a:	21390b3b          	.4byte	0x21390b3b
 40e:	490c                	lw	a1,16(a0)
 410:	00051c13          	slli	s8,a0,0x0
 414:	0b00                	addi	s0,sp,400
 416:	0111                	addi	sp,sp,4
 418:	0e25                	addi	t3,t3,9
 41a:	1f030b13          	addi	s6,t1,496
 41e:	17551f1b          	.4byte	0x17551f1b
 422:	0111                	addi	sp,sp,4
 424:	1710                	addi	a2,sp,928
 426:	0000                	unimp
 428:	240c                	.2byte	0x240c
 42a:	0b00                	addi	s0,sp,400
 42c:	030b3e0b          	.4byte	0x30b3e0b
 430:	0008                	.2byte	0x8
 432:	0d00                	addi	s0,sp,656
 434:	0035                	c.nop	13
 436:	1349                	addi	t1,t1,-14
 438:	0000                	unimp
 43a:	260e                	.2byte	0x260e
 43c:	4900                	lw	s0,16(a0)
 43e:	0f000013          	li	zero,240
 442:	13490037          	lui	zero,0x13490
 446:	0000                	unimp
 448:	2e10                	.2byte	0x2e10
 44a:	3f01                	jal	35a <_min_stack-0x1ca6>
 44c:	0319                	addi	t1,t1,6
 44e:	3a0e                	.2byte	0x3a0e
 450:	390b3b0b          	.4byte	0x390b3b0b
 454:	4919270b          	.4byte	0x4919270b
 458:	01193c13          	sltiu	s8,s2,17
 45c:	11000013          	li	zero,272
 460:	0018                	.2byte	0x18
 462:	0000                	unimp
 464:	2e12                	.2byte	0x2e12
 466:	3f01                	jal	376 <_min_stack-0x1c8a>
 468:	0319                	addi	t1,t1,6
 46a:	3a0e                	.2byte	0x3a0e
 46c:	390b3b0b          	.4byte	0x390b3b0b
 470:	3c19270b          	.4byte	0x3c19270b
 474:	0119                	addi	sp,sp,6
 476:	13000013          	li	zero,304
 47a:	012e                	slli	sp,sp,0xb
 47c:	0e03193f 0b3b0b3a 	.8byte	0xb3b0b3a0e03193f
 484:	0b39                	addi	s6,s6,14
 486:	01111927          	.4byte	0x1111927
 48a:	0612                	slli	a2,a2,0x4
 48c:	1840                	addi	s0,sp,52
 48e:	197a                	slli	s2,s2,0x3e
 490:	1301                	addi	t1,t1,-32
 492:	0000                	unimp
 494:	3414                	.2byte	0x3414
 496:	0300                	addi	s0,sp,384
 498:	3a0e                	.2byte	0x3a0e
 49a:	390b3b0b          	.4byte	0x390b3b0b
 49e:	1c13490b          	.4byte	0x1c13490b
 4a2:	1500000b          	.4byte	0x1500000b
 4a6:	012e                	slli	sp,sp,0xb
 4a8:	0e03193f 0b3b0b3a 	.8byte	0xb3b0b3a0e03193f
 4b0:	0b39                	addi	s6,s6,14
 4b2:	1349                	addi	t1,t1,-14
 4b4:	0111                	addi	sp,sp,4
 4b6:	0612                	slli	a2,a2,0x4
 4b8:	1840                	addi	s0,sp,52
 4ba:	197a                	slli	s2,s2,0x3e
 4bc:	1301                	addi	t1,t1,-32
 4be:	0000                	unimp
 4c0:	3416                	.2byte	0x3416
 4c2:	0300                	addi	s0,sp,384
 4c4:	3a08                	.2byte	0x3a08
 4c6:	390b3b0b          	.4byte	0x390b3b0b
 4ca:	1c13490b          	.4byte	0x1c13490b
 4ce:	000d                	c.nop	3
 4d0:	1700                	addi	s0,sp,928
 4d2:	0048                	addi	a0,sp,4
 4d4:	017d                	addi	sp,sp,31
 4d6:	137f                	.2byte	0x137f
 4d8:	0000                	unimp
 4da:	4818                	lw	a4,16(s0)
 4dc:	7d01                	lui	s10,0xfffe0
 4de:	7f01                	lui	t5,0xfffe0
 4e0:	19000013          	li	zero,400
 4e4:	002e                	c.slli	zero,0xb
 4e6:	0e03193f 0b3b0b3a 	.8byte	0xb3b0b3a0e03193f
 4ee:	0b39                	addi	s6,s6,14
 4f0:	1349                	addi	t1,t1,-14
 4f2:	0111                	addi	sp,sp,4
 4f4:	0612                	slli	a2,a2,0x4
 4f6:	1840                	addi	s0,sp,52
 4f8:	197a                	slli	s2,s2,0x3e
 4fa:	0000                	unimp
 4fc:	0100                	addi	s0,sp,128
 4fe:	0011                	c.nop	4
 500:	1710                	addi	a2,sp,928
 502:	1755                	addi	a4,a4,-11
 504:	0e1b0e03          	lb	t3,225(s6)
 508:	0e25                	addi	t3,t3,9
 50a:	00000513          	li	a0,0
	...

Disassembly of section .debug_loclists:

00000000 <.debug_loclists>:
   0:	0884                	addi	s1,sp,80
   2:	0000                	unimp
   4:	0005                	c.nop	1
   6:	0004                	.2byte	0x4
   8:	0000                	unimp
   a:	0000                	unimp
   c:	00042a07          	.4byte	0x42a07
  10:	36e0                	.2byte	0x36e0
  12:	0004                	.2byte	0x4
  14:	01e0                	addi	s0,sp,204
  16:	075a                	slli	a4,a4,0x16
  18:	0436                	slli	s0,s0,0xd
  1a:	e000                	.2byte	0xe000
  1c:	044c                	addi	a1,sp,516
  1e:	e000                	.2byte	0xe000
  20:	5901                	li	s2,-32
  22:	00044c07          	.4byte	0x44c07
  26:	50e0                	lw	s0,100(s1)
  28:	0004                	.2byte	0x4
  2a:	04e0                	addi	s0,sp,588
  2c:	9f5a01a3          	sb	s5,-1565(s4)
  30:	00045007          	.4byte	0x45007
  34:	56e0                	lw	s0,108(a3)
  36:	0004                	.2byte	0x4
  38:	01e0                	addi	s0,sp,204
  3a:	0059                	c.nop	22
  3c:	00042a07          	.4byte	0x42a07
  40:	36e0                	.2byte	0x36e0
  42:	0004                	.2byte	0x4
  44:	02e0                	addi	s0,sp,332
  46:	9f30                	.2byte	0x9f30
  48:	00043607          	.4byte	0x43607
  4c:	4ae0                	lw	s0,84(a3)
  4e:	0004                	.2byte	0x4
  50:	01e0                	addi	s0,sp,204
  52:	0758                	addi	a4,sp,900
  54:	044a                	slli	s0,s0,0x12
  56:	e000                	.2byte	0xe000
  58:	0450                	addi	a2,sp,516
  5a:	e000                	.2byte	0xe000
  5c:	5a01                	li	s4,-32
  5e:	00045007          	.4byte	0x45007
  62:	56e0                	lw	s0,108(a3)
  64:	0004                	.2byte	0x4
  66:	01e0                	addi	s0,sp,204
  68:	0058                	addi	a4,sp,4
  6a:	00044007          	.4byte	0x44007
  6e:	44e0                	lw	s0,76(s1)
  70:	0004                	.2byte	0x4
  72:	02e0                	addi	s0,sp,332
  74:	9f3a                	add	t5,t5,a4
  76:	0700                	addi	s0,sp,896
  78:	0452                	slli	s0,s0,0x14
  7a:	e000                	.2byte	0xe000
  7c:	e0000453          	.4byte	0xe0000453
  80:	7a06                	.2byte	0x7a06
  82:	0800                	addi	s0,sp,16
  84:	1aff                	.2byte	0x1aff
  86:	009f c807 0002      	.byte	0x9f, 0x00, 0x07, 0xc8, 0x02, 0x00
  8c:	0ae0                	addi	s0,sp,348
  8e:	01e00003          	lb	zero,30(zero) # 1e <_min_stack-0x1fe2>
  92:	075a                	slli	a4,a4,0x16
  94:	030a                	slli	t1,t1,0x2
  96:	e000                	.2byte	0xe000
  98:	0420                	addi	s0,sp,520
  9a:	e000                	.2byte	0xe000
  9c:	a304                	.2byte	0xa304
  9e:	5a01                	li	s4,-32
  a0:	009f f207 0002      	.byte	0x9f, 0x00, 0x07, 0xf2, 0x02, 0x00
  a6:	14e0                	addi	s0,sp,620
  a8:	01e00003          	lb	zero,30(zero) # 1e <_min_stack-0x1fe2>
  ac:	0758                	addi	a4,sp,900
  ae:	032a                	slli	t1,t1,0xa
  b0:	e000                	.2byte	0xe000
  b2:	037c                	addi	a5,sp,396
  b4:	e000                	.2byte	0xe000
  b6:	5801                	li	a6,-32
  b8:	00037c07          	.4byte	0x37c07
  bc:	88e0                	.2byte	0x88e0
  be:	01e00003          	lb	zero,30(zero) # 1e <_min_stack-0x1fe2>
  c2:	0768                	addi	a0,sp,908
  c4:	0388                	addi	a0,sp,448
  c6:	e000                	.2byte	0xe000
  c8:	03a6                	slli	t2,t2,0x9
  ca:	e000                	.2byte	0xe000
  cc:	5801                	li	a6,-32
  ce:	0003a607          	.4byte	0x3a607
  d2:	b6e0                	.2byte	0xb6e0
  d4:	01e00003          	lb	zero,30(zero) # 1e <_min_stack-0x1fe2>
  d8:	0768                	addi	a0,sp,908
  da:	03b6                	slli	t2,t2,0xd
  dc:	e000                	.2byte	0xe000
  de:	03c6                	slli	t2,t2,0x11
  e0:	e000                	.2byte	0xe000
  e2:	5801                	li	a6,-32
  e4:	0003c607          	.4byte	0x3c607
  e8:	cee0                	sw	s0,92(a3)
  ea:	01e00003          	lb	zero,30(zero) # 1e <_min_stack-0x1fe2>
  ee:	0768                	addi	a0,sp,908
  f0:	03ce                	slli	t2,t2,0x13
  f2:	e000                	.2byte	0xe000
  f4:	03da                	slli	t2,t2,0x16
  f6:	e000                	.2byte	0xe000
  f8:	5801                	li	a6,-32
  fa:	0003da07          	.4byte	0x3da07
  fe:	e4e0                	.2byte	0xe4e0
 100:	01e00003          	lb	zero,30(zero) # 1e <_min_stack-0x1fe2>
 104:	0768                	addi	a0,sp,908
 106:	03e4                	addi	s1,sp,460
 108:	e000                	.2byte	0xe000
 10a:	03f0                	addi	a2,sp,460
 10c:	e000                	.2byte	0xe000
 10e:	5801                	li	a6,-32
 110:	0003f007          	.4byte	0x3f007
 114:	f6e0                	.2byte	0xf6e0
 116:	01e00003          	lb	zero,30(zero) # 1e <_min_stack-0x1fe2>
 11a:	0768                	addi	a0,sp,908
 11c:	03f6                	slli	t2,t2,0x1d
 11e:	e000                	.2byte	0xe000
 120:	0404                	addi	s1,sp,512
 122:	e000                	.2byte	0xe000
 124:	5801                	li	a6,-32
 126:	00040407          	.4byte	0x40407
 12a:	14e0                	addi	s0,sp,620
 12c:	0004                	.2byte	0x4
 12e:	01e0                	addi	s0,sp,204
 130:	0768                	addi	a0,sp,908
 132:	0414                	addi	a3,sp,512
 134:	e000                	.2byte	0xe000
 136:	0420                	addi	s0,sp,520
 138:	e000                	.2byte	0xe000
 13a:	5801                	li	a6,-32
 13c:	0700                	addi	s0,sp,896
 13e:	02f2                	slli	t0,t0,0x1c
 140:	e000                	.2byte	0xe000
 142:	030a                	slli	t1,t1,0x2
 144:	e000                	.2byte	0xe000
 146:	5a01                	li	s4,-32
 148:	00030a07          	.4byte	0x30a07
 14c:	10e0                	addi	s0,sp,108
 14e:	01e00003          	lb	zero,30(zero) # 1e <_min_stack-0x1fe2>
 152:	0766                	slli	a4,a4,0x19
 154:	032a                	slli	t1,t1,0xa
 156:	e000                	.2byte	0xe000
 158:	032e                	slli	t1,t1,0xb
 15a:	e000                	.2byte	0xe000
 15c:	6601                	.2byte	0x6601
 15e:	00032e07          	.4byte	0x32e07
 162:	46e0                	lw	s0,76(a3)
 164:	03e00003          	lb	zero,62(zero) # 3e <_min_stack-0x1fc2>
 168:	0186                	slli	gp,gp,0x1
 16a:	079f 0346 e000      	.byte	0x9f, 0x07, 0x46, 0x03, 0x00, 0xe0
 170:	0348                	addi	a0,sp,388
 172:	e000                	.2byte	0xe000
 174:	5f01                	li	t5,-32
 176:	00034a07          	.4byte	0x34a07
 17a:	88e0                	.2byte	0x88e0
 17c:	01e00003          	lb	zero,30(zero) # 1e <_min_stack-0x1fe2>
 180:	0766                	slli	a4,a4,0x19
 182:	0388                	addi	a0,sp,448
 184:	e000                	.2byte	0xe000
 186:	038c                	addi	a1,sp,448
 188:	e000                	.2byte	0xe000
 18a:	9f018603          	lb	a2,-1552(gp)
 18e:	00038c07          	.4byte	0x38c07
 192:	90e0                	.2byte	0x90e0
 194:	03e00003          	lb	zero,62(zero) # 3e <_min_stack-0x1fc2>
 198:	017d                	addi	sp,sp,31
 19a:	079f 0390 e000      	.byte	0x9f, 0x07, 0x90, 0x03, 0x00, 0xe0
 1a0:	0396                	slli	t2,t2,0x5
 1a2:	e000                	.2byte	0xe000
 1a4:	6601                	.2byte	0x6601
 1a6:	00039607          	.4byte	0x39607
 1aa:	98e0                	.2byte	0x98e0
 1ac:	03e00003          	lb	zero,62(zero) # 3e <_min_stack-0x1fc2>
 1b0:	7f80                	.2byte	0x7f80
 1b2:	079f 0398 e000      	.byte	0x9f, 0x07, 0x98, 0x03, 0x00, 0xe0
 1b8:	039a                	slli	t2,t2,0x6
 1ba:	e000                	.2byte	0xe000
 1bc:	9f018603          	lb	a2,-1552(gp)
 1c0:	00039a07          	.4byte	0x39a07
 1c4:	b6e0                	.2byte	0xb6e0
 1c6:	01e00003          	lb	zero,30(zero) # 1e <_min_stack-0x1fe2>
 1ca:	0766                	slli	a4,a4,0x19
 1cc:	03b6                	slli	t2,t2,0xd
 1ce:	e000                	.2byte	0xe000
 1d0:	03b8                	addi	a4,sp,456
 1d2:	e000                	.2byte	0xe000
 1d4:	9f018603          	lb	a2,-1552(gp)
 1d8:	0003b807          	.4byte	0x3b807
 1dc:	14e0                	addi	s0,sp,620
 1de:	0004                	.2byte	0x4
 1e0:	01e0                	addi	s0,sp,204
 1e2:	0766                	slli	a4,a4,0x19
 1e4:	0414                	addi	a3,sp,512
 1e6:	e000                	.2byte	0xe000
 1e8:	0416                	slli	s0,s0,0x5
 1ea:	e000                	.2byte	0xe000
 1ec:	9f017f03          	.4byte	0x9f017f03
 1f0:	00041607          	.4byte	0x41607
 1f4:	20e0                	.2byte	0x20e0
 1f6:	0004                	.2byte	0x4
 1f8:	01e0                	addi	s0,sp,204
 1fa:	0066                	c.slli	zero,0x19
 1fc:	00032e07          	.4byte	0x32e07
 200:	5ae0                	lw	s0,116(a3)
 202:	02e00003          	lb	zero,46(zero) # 2e <_min_stack-0x1fd2>
 206:	9f30                	.2byte	0x9f30
 208:	00035a07          	.4byte	0x35a07
 20c:	84e0                	.2byte	0x84e0
 20e:	01e00003          	lb	zero,30(zero) # 1e <_min_stack-0x1fe2>
 212:	075d                	addi	a4,a4,23
 214:	0384                	addi	s1,sp,448
 216:	e000                	.2byte	0xe000
 218:	0385                	addi	t2,t2,1
 21a:	e000                	.2byte	0xe000
 21c:	5b01                	li	s6,-32
 21e:	00038807          	.4byte	0x38807
 222:	90e0                	.2byte	0x90e0
 224:	02e00003          	lb	zero,46(zero) # 2e <_min_stack-0x1fd2>
 228:	9f30                	.2byte	0x9f30
 22a:	00039007          	.4byte	0x39007
 22e:	b1e0                	.2byte	0xb1e0
 230:	01e00003          	lb	zero,30(zero) # 1e <_min_stack-0x1fe2>
 234:	075d                	addi	a4,a4,23
 236:	03ba                	slli	t2,t2,0xe
 238:	e000                	.2byte	0xe000
 23a:	0414                	addi	a3,sp,512
 23c:	e000                	.2byte	0xe000
 23e:	5d01                	li	s10,-32
 240:	00041407          	.4byte	0x41407
 244:	16e0                	addi	s0,sp,876
 246:	0004                	.2byte	0x4
 248:	02e0                	addi	s0,sp,332
 24a:	9f30                	.2byte	0x9f30
 24c:	0700                	addi	s0,sp,896
 24e:	032e                	slli	t1,t1,0xb
 250:	e000                	.2byte	0xe000
 252:	0346                	slli	t1,t1,0x11
 254:	e000                	.2byte	0xe000
 256:	3002                	.2byte	0x3002
 258:	079f 0346 e000      	.byte	0x9f, 0x07, 0x46, 0x03, 0x00, 0xe0
 25e:	0348                	addi	a0,sp,388
 260:	e000                	.2byte	0xe000
 262:	3102                	.2byte	0x3102
 264:	079f 034a e000      	.byte	0x9f, 0x07, 0x4a, 0x03, 0x00, 0xe0
 26a:	0384                	addi	s1,sp,448
 26c:	e000                	.2byte	0xe000
 26e:	5e01                	li	t3,-32
 270:	00038407          	.4byte	0x38407
 274:	85e0                	.2byte	0x85e0
 276:	01e00003          	lb	zero,30(zero) # 1e <_min_stack-0x1fe2>
 27a:	075c                	addi	a5,sp,900
 27c:	0388                	addi	a0,sp,448
 27e:	e000                	.2byte	0xe000
 280:	03b1                	addi	t2,t2,12
 282:	e000                	.2byte	0xe000
 284:	5e01                	li	t3,-32
 286:	0003ba07          	.4byte	0x3ba07
 28a:	14e0                	addi	s0,sp,620
 28c:	0004                	.2byte	0x4
 28e:	01e0                	addi	s0,sp,204
 290:	075e                	slli	a4,a4,0x17
 292:	0414                	addi	a3,sp,512
 294:	e000                	.2byte	0xe000
 296:	0416                	slli	s0,s0,0x5
 298:	e000                	.2byte	0xe000
 29a:	3002                	.2byte	0x3002
 29c:	009f 0a07 0003      	.byte	0x9f, 0x00, 0x07, 0x0a, 0x03, 0x00
 2a2:	26e0                	.2byte	0x26e0
 2a4:	01e00003          	lb	zero,30(zero) # 1e <_min_stack-0x1fe2>
 2a8:	03260767          	jalr	a4,50(a2)
 2ac:	e000                	.2byte	0xe000
 2ae:	032a                	slli	t1,t1,0xa
 2b0:	e000                	.2byte	0xe000
 2b2:	5a01                	li	s4,-32
 2b4:	00032a07          	.4byte	0x32a07
 2b8:	1ce0                	addi	s0,sp,636
 2ba:	0004                	.2byte	0x4
 2bc:	01e0                	addi	s0,sp,204
 2be:	041c0767          	jalr	a4,65(s8) # 1a041 <_stack_len+0x12041>
 2c2:	e000                	.2byte	0xe000
 2c4:	041e                	slli	s0,s0,0x7
 2c6:	e000                	.2byte	0xe000
 2c8:	9f7f8703          	lb	a4,-1545(t6) # 40b209f7 <tohost+0x40b009ef>
 2cc:	00041e07          	.4byte	0x41e07
 2d0:	20e0                	.2byte	0x20e0
 2d2:	0004                	.2byte	0x4
 2d4:	01e0                	addi	s0,sp,204
 2d6:	16070067          	jr	352(a4)
 2da:	0004                	.2byte	0x4
 2dc:	1ee0                	addi	s0,sp,892
 2de:	0004                	.2byte	0x4
 2e0:	02e0                	addi	s0,sp,332
 2e2:	9f30                	.2byte	0x9f30
 2e4:	0700                	addi	s0,sp,896
 2e6:	0416                	slli	s0,s0,0x5
 2e8:	e000                	.2byte	0xe000
 2ea:	041d                	addi	s0,s0,7
 2ec:	e000                	.2byte	0xe000
 2ee:	8608                	.2byte	0x8608
 2f0:	9400                	.2byte	0x9400
 2f2:	0801                	addi	a6,a6,0 # 590b5280 <tohost+0x59095278>
 2f4:	1aff                	.2byte	0x1aff
 2f6:	009f b207 0000      	.byte	0x9f, 0x00, 0x07, 0xb2, 0x00, 0x00
 2fc:	cce0                	sw	s0,92(s1)
 2fe:	0000                	unimp
 300:	01e0                	addi	s0,sp,204
 302:	075a                	slli	a4,a4,0x16
 304:	00cc                	addi	a1,sp,68
 306:	e000                	.2byte	0xe000
 308:	00d8                	addi	a4,sp,68
 30a:	e000                	.2byte	0xe000
 30c:	5a01                	li	s4,-32
 30e:	0700                	addi	s0,sp,896
 310:	00b2                	slli	ra,ra,0xc
 312:	e000                	.2byte	0xe000
 314:	00ce                	slli	ra,ra,0x13
 316:	e000                	.2byte	0xe000
 318:	5b01                	li	s6,-32
 31a:	0000ce07          	.4byte	0xce07
 31e:	d0e0                	sw	s0,100(s1)
 320:	0000                	unimp
 322:	03e0                	addi	s0,sp,460
 324:	079f017b          	.4byte	0x79f017b
 328:	00d0                	addi	a2,sp,68
 32a:	e000                	.2byte	0xe000
 32c:	00d8                	addi	a4,sp,68
 32e:	e000                	.2byte	0xe000
 330:	5b01                	li	s6,-32
 332:	0700                	addi	s0,sp,896
 334:	0084                	addi	s1,sp,64
 336:	e000                	.2byte	0xe000
 338:	0098                	addi	a4,sp,64
 33a:	e000                	.2byte	0xe000
 33c:	5b01                	li	s6,-32
 33e:	00009807          	.4byte	0x9807
 342:	b2e0                	.2byte	0xb2e0
 344:	0000                	unimp
 346:	04e0                	addi	s0,sp,588
 348:	9f5b01a3          	sb	s5,-1565(s6)
 34c:	0700                	addi	s0,sp,896
 34e:	00fa                	slli	ra,ra,0x1e
 350:	e000                	.2byte	0xe000
 352:	014a                	slli	sp,sp,0x12
 354:	e000                	.2byte	0xe000
 356:	5a01                	li	s4,-32
 358:	00014a07          	.4byte	0x14a07
 35c:	64e0                	.2byte	0x64e0
 35e:	0001                	nop
 360:	01e0                	addi	s0,sp,204
 362:	0764                	addi	s1,sp,908
 364:	0164                	addi	s1,sp,140
 366:	e000                	.2byte	0xe000
 368:	0176                	slli	sp,sp,0x1d
 36a:	e000                	.2byte	0xe000
 36c:	8409                	srai	s0,s0,0x2
 36e:	8200                	.2byte	0x8200
 370:	1c00                	addi	s0,sp,560
 372:	9f220083          	lb	ra,-1550(tp) # fffff9f2 <fromhost+0x1ffef9e2>
 376:	0700                	addi	s0,sp,896
 378:	00fa                	slli	ra,ra,0x1e
 37a:	e000                	.2byte	0xe000
 37c:	012a                	slli	sp,sp,0xa
 37e:	e000                	.2byte	0xe000
 380:	5b01                	li	s6,-32
 382:	00012a07          	.4byte	0x12a07
 386:	48e0                	lw	s0,84(s1)
 388:	0001                	nop
 38a:	01e0                	addi	s0,sp,204
 38c:	0758                	addi	a4,sp,900
 38e:	0148                	addi	a0,sp,132
 390:	e000                	.2byte	0xe000
 392:	014a                	slli	sp,sp,0x12
 394:	e000                	.2byte	0xe000
 396:	5b01                	li	s6,-32
 398:	00014a07          	.4byte	0x14a07
 39c:	4ee0                	lw	s0,92(a3)
 39e:	0001                	nop
 3a0:	01e0                	addi	s0,sp,204
 3a2:	0762                	slli	a4,a4,0x18
 3a4:	014e                	slli	sp,sp,0x13
 3a6:	e000                	.2byte	0xe000
 3a8:	0150                	addi	a2,sp,132
 3aa:	e000                	.2byte	0xe000
 3ac:	9f7f8203          	lb	tp,-1545(t6)
 3b0:	00015007          	.4byte	0x15007
 3b4:	56e0                	lw	s0,108(a3)
 3b6:	0001                	nop
 3b8:	01e0                	addi	s0,sp,204
 3ba:	0762                	slli	a4,a4,0x18
 3bc:	0164                	addi	s1,sp,140
 3be:	e000                	.2byte	0xe000
 3c0:	017a                	slli	sp,sp,0x1e
 3c2:	e000                	.2byte	0xe000
 3c4:	5801                	li	a6,-32
 3c6:	00017a07          	.4byte	0x17a07
 3ca:	90e0                	.2byte	0x90e0
 3cc:	0001                	nop
 3ce:	01e0                	addi	s0,sp,204
 3d0:	0762                	slli	a4,a4,0x18
 3d2:	0198                	addi	a4,sp,192
 3d4:	e000                	.2byte	0xe000
 3d6:	01a0                	addi	s0,sp,200
 3d8:	e000                	.2byte	0xe000
 3da:	6201                	.2byte	0x6201
 3dc:	0700                	addi	s0,sp,896
 3de:	00fa                	slli	ra,ra,0x1e
 3e0:	e000                	.2byte	0xe000
 3e2:	013a                	slli	sp,sp,0xe
 3e4:	e000                	.2byte	0xe000
 3e6:	5c01                	li	s8,-32
 3e8:	00013a07          	.4byte	0x13a07
 3ec:	46e0                	lw	s0,76(a3)
 3ee:	0001                	nop
 3f0:	04e0                	addi	s0,sp,588
 3f2:	9f5c01a3          	sb	s5,-1565(s8)
 3f6:	00014607          	.4byte	0x14607
 3fa:	4ae0                	lw	s0,84(a3)
 3fc:	0001                	nop
 3fe:	01e0                	addi	s0,sp,204
 400:	075c                	addi	a5,sp,900
 402:	014a                	slli	sp,sp,0x12
 404:	e000                	.2byte	0xe000
 406:	01a0                	addi	s0,sp,200
 408:	e000                	.2byte	0xe000
 40a:	a304                	.2byte	0xa304
 40c:	5c01                	li	s8,-32
 40e:	009f fa07 0000      	.byte	0x9f, 0x00, 0x07, 0xfa, 0x00, 0x00
 414:	4ae0                	lw	s0,84(a3)
 416:	0001                	nop
 418:	02e0                	addi	s0,sp,332
 41a:	9f30                	.2byte	0x9f30
 41c:	00016407          	.4byte	0x16407
 420:	7ae0                	.2byte	0x7ae0
 422:	0001                	nop
 424:	01e0                	addi	s0,sp,204
 426:	fa070063          	beqz	a4,fffffbc6 <fromhost+0x1ffefbb6>
 42a:	0000                	unimp
 42c:	38e0                	.2byte	0x38e0
 42e:	0001                	nop
 430:	03e0                	addi	s0,sp,460
 432:	2008                	.2byte	0x2008
 434:	079f 0146 e000      	.byte	0x9f, 0x07, 0x46, 0x01, 0x00, 0xe0
 43a:	014a                	slli	sp,sp,0x12
 43c:	e000                	.2byte	0xe000
 43e:	9f200803          	lb	a6,-1550(zero) # fffff9f2 <fromhost+0x1ffef9e2>
 442:	0700                	addi	s0,sp,896
 444:	0118                	addi	a4,sp,128
 446:	e000                	.2byte	0xe000
 448:	012e                	slli	sp,sp,0xb
 44a:	e000                	.2byte	0xe000
 44c:	5f01                	li	t5,-32
 44e:	00014607          	.4byte	0x14607
 452:	4ae0                	lw	s0,84(a3)
 454:	0001                	nop
 456:	01e0                	addi	s0,sp,204
 458:	005f 1807 0001      	.byte	0x5f, 0x00, 0x07, 0x18, 0x01, 0x00
 45e:	1ee0                	addi	s0,sp,892
 460:	0001                	nop
 462:	06e0                	addi	s0,sp,844
 464:	007a                	c.slli	zero,0x1e
 466:	007f                	.2byte	0x7f
 468:	9f22                	add	t5,t5,s0
 46a:	00011e07          	.4byte	0x11e07
 46e:	22e0                	.2byte	0x22e0
 470:	0001                	nop
 472:	01e0                	addi	s0,sp,204
 474:	075e                	slli	a4,a4,0x17
 476:	0122                	slli	sp,sp,0x8
 478:	e000                	.2byte	0xe000
 47a:	012e                	slli	sp,sp,0xb
 47c:	e000                	.2byte	0xe000
 47e:	7a06                	.2byte	0x7a06
 480:	7f00                	.2byte	0x7f00
 482:	2200                	.2byte	0x2200
 484:	079f 0146 e000      	.byte	0x9f, 0x07, 0x46, 0x01, 0x00, 0xe0
 48a:	014a                	slli	sp,sp,0x12
 48c:	e000                	.2byte	0xe000
 48e:	7a06                	.2byte	0x7a06
 490:	7f00                	.2byte	0x7f00
 492:	2200                	.2byte	0x2200
 494:	009f 4a07 0001      	.byte	0x9f, 0x00, 0x07, 0x4a, 0x01, 0x00
 49a:	4ee0                	lw	s0,92(a3)
 49c:	0001                	nop
 49e:	02e0                	addi	s0,sp,332
 4a0:	9f30                	.2byte	0x9f30
 4a2:	0700                	addi	s0,sp,896
 4a4:	0164                	addi	s1,sp,140
 4a6:	e000                	.2byte	0xe000
 4a8:	0166                	slli	sp,sp,0x19
 4aa:	e000                	.2byte	0xe000
 4ac:	3002                	.2byte	0x3002
 4ae:	009f 6407 0001      	.byte	0x9f, 0x00, 0x07, 0x64, 0x01, 0x00
 4b4:	65e0                	.2byte	0x65e0
 4b6:	0001                	nop
 4b8:	06e0                	addi	s0,sp,844
 4ba:	007a                	c.slli	zero,0x1e
 4bc:	ff08                	.2byte	0xff08
 4be:	9f1a                	add	t5,t5,t1
 4c0:	0700                	addi	s0,sp,896
 4c2:	0198                	addi	a4,sp,192
 4c4:	e000                	.2byte	0xe000
 4c6:	019c                	addi	a5,sp,192
 4c8:	e000                	.2byte	0xe000
 4ca:	3002                	.2byte	0x3002
 4cc:	009f a007 0001      	.byte	0x9f, 0x00, 0x07, 0xa0, 0x01, 0x00
 4d2:	b8e0                	.2byte	0xb8e0
 4d4:	0001                	nop
 4d6:	01e0                	addi	s0,sp,204
 4d8:	075a                	slli	a4,a4,0x16
 4da:	01b8                	addi	a4,sp,200
 4dc:	e000                	.2byte	0xe000
 4de:	01c8                	addi	a0,sp,196
 4e0:	e000                	.2byte	0xe000
 4e2:	a304                	.2byte	0xa304
 4e4:	5a01                	li	s4,-32
 4e6:	079f 01c8 e000      	.byte	0x9f, 0x07, 0xc8, 0x01, 0x00, 0xe0
 4ec:	01fa                	slli	gp,gp,0x1e
 4ee:	e000                	.2byte	0xe000
 4f0:	5a01                	li	s4,-32
 4f2:	0001fa07          	.4byte	0x1fa07
 4f6:	4ce0                	lw	s0,92(s1)
 4f8:	0002                	c.slli64	zero
 4fa:	04e0                	addi	s0,sp,588
 4fc:	9f5a01a3          	sb	s5,-1565(s4)
 500:	00024c07          	.4byte	0x24c07
 504:	56e0                	lw	s0,108(a3)
 506:	0002                	c.slli64	zero
 508:	01e0                	addi	s0,sp,204
 50a:	075a                	slli	a4,a4,0x16
 50c:	0256                	slli	tp,tp,0x15
 50e:	e000                	.2byte	0xe000
 510:	02a2                	slli	t0,t0,0x8
 512:	e000                	.2byte	0xe000
 514:	a304                	.2byte	0xa304
 516:	5a01                	li	s4,-32
 518:	009f a007 0001      	.byte	0x9f, 0x00, 0x07, 0xa0, 0x01, 0x00
 51e:	aee0                	.2byte	0xaee0
 520:	0001                	nop
 522:	01e0                	addi	s0,sp,204
 524:	01ae075b          	.4byte	0x1ae075b
 528:	e000                	.2byte	0xe000
 52a:	01bd                	addi	gp,gp,15
 52c:	e000                	.2byte	0xe000
 52e:	6101                	addi	sp,sp,0
 530:	0001bd07          	.4byte	0x1bd07
 534:	c8e0                	sw	s0,84(s1)
 536:	0001                	nop
 538:	04e0                	addi	s0,sp,588
 53a:	9f5b01a3          	sb	s5,-1565(s6)
 53e:	0001c807          	.4byte	0x1c807
 542:	f4e0                	.2byte	0xf4e0
 544:	0001                	nop
 546:	01e0                	addi	s0,sp,204
 548:	0761                	addi	a4,a4,24
 54a:	01f4                	addi	a3,sp,204
 54c:	e000                	.2byte	0xe000
 54e:	024c                	addi	a1,sp,260
 550:	e000                	.2byte	0xe000
 552:	a304                	.2byte	0xa304
 554:	5b01                	li	s6,-32
 556:	079f 024c e000      	.byte	0x9f, 0x07, 0x4c, 0x02, 0x00, 0xe0
 55c:	0272                	slli	tp,tp,0x1c
 55e:	e000                	.2byte	0xe000
 560:	6101                	addi	sp,sp,0
 562:	00027207          	.4byte	0x27207
 566:	a2e0                	.2byte	0xa2e0
 568:	0002                	c.slli64	zero
 56a:	04e0                	addi	s0,sp,588
 56c:	9f5b01a3          	sb	s5,-1565(s6)
 570:	0700                	addi	s0,sp,896
 572:	01a0                	addi	s0,sp,200
 574:	e000                	.2byte	0xe000
 576:	01b0                	addi	a2,sp,200
 578:	e000                	.2byte	0xe000
 57a:	5c01                	li	s8,-32
 57c:	0001b007          	.4byte	0x1b007
 580:	bee0                	.2byte	0xbee0
 582:	0001                	nop
 584:	01e0                	addi	s0,sp,204
 586:	0759                	addi	a4,a4,22
 588:	01be                	slli	gp,gp,0xf
 58a:	e000                	.2byte	0xe000
 58c:	01c8                	addi	a0,sp,196
 58e:	e000                	.2byte	0xe000
 590:	a304                	.2byte	0xa304
 592:	5c01                	li	s8,-32
 594:	079f 01c8 e000      	.byte	0x9f, 0x07, 0xc8, 0x01, 0x00, 0xe0
 59a:	01da                	slli	gp,gp,0x16
 59c:	e000                	.2byte	0xe000
 59e:	5901                	li	s2,-32
 5a0:	0001da07          	.4byte	0x1da07
 5a4:	4ce0                	lw	s0,92(s1)
 5a6:	0002                	c.slli64	zero
 5a8:	04e0                	addi	s0,sp,588
 5aa:	9f5c01a3          	sb	s5,-1565(s8)
 5ae:	00024c07          	.4byte	0x24c07
 5b2:	4ee0                	lw	s0,92(a3)
 5b4:	0002                	c.slli64	zero
 5b6:	01e0                	addi	s0,sp,204
 5b8:	0759                	addi	a4,a4,22
 5ba:	024e                	slli	tp,tp,0x13
 5bc:	e000                	.2byte	0xe000
 5be:	02a2                	slli	t0,t0,0x8
 5c0:	e000                	.2byte	0xe000
 5c2:	a304                	.2byte	0xa304
 5c4:	5c01                	li	s8,-32
 5c6:	009f a007 0001      	.byte	0x9f, 0x00, 0x07, 0xa0, 0x01, 0x00
 5cc:	bde0                	.2byte	0xbde0
 5ce:	0001                	nop
 5d0:	01e0                	addi	s0,sp,204
 5d2:	075d                	addi	a4,a4,23
 5d4:	01bd                	addi	gp,gp,15
 5d6:	e000                	.2byte	0xe000
 5d8:	01be                	slli	gp,gp,0xf
 5da:	e000                	.2byte	0xe000
 5dc:	a304                	.2byte	0xa304
 5de:	5d01                	li	s10,-32
 5e0:	079f 01c8 e000      	.byte	0x9f, 0x07, 0xc8, 0x01, 0x00, 0xe0
 5e6:	0285                	addi	t0,t0,1
 5e8:	e000                	.2byte	0xe000
 5ea:	5b01                	li	s6,-32
 5ec:	00028507          	.4byte	0x28507
 5f0:	8ce0                	.2byte	0x8ce0
 5f2:	0002                	c.slli64	zero
 5f4:	02e0                	addi	s0,sp,332
 5f6:	4891                	li	a7,4
 5f8:	00028c07          	.4byte	0x28c07
 5fc:	8fe0                	.2byte	0x8fe0
 5fe:	0002                	c.slli64	zero
 600:	01e0                	addi	s0,sp,204
 602:	0294075b          	.4byte	0x294075b
 606:	e000                	.2byte	0xe000
 608:	02a2                	slli	t0,t0,0x8
 60a:	e000                	.2byte	0xe000
 60c:	5b01                	li	s6,-32
 60e:	0700                	addi	s0,sp,896
 610:	01a0                	addi	s0,sp,200
 612:	e000                	.2byte	0xe000
 614:	01bd                	addi	gp,gp,15
 616:	e000                	.2byte	0xe000
 618:	5e01                	li	t3,-32
 61a:	0001bd07          	.4byte	0x1bd07
 61e:	c8e0                	sw	s0,84(s1)
 620:	0001                	nop
 622:	04e0                	addi	s0,sp,588
 624:	9f5e01a3          	sb	s5,-1565(t3)
 628:	0001c807          	.4byte	0x1c807
 62c:	85e0                	.2byte	0x85e0
 62e:	0002                	c.slli64	zero
 630:	01e0                	addi	s0,sp,204
 632:	075c                	addi	a5,sp,900
 634:	0285                	addi	t0,t0,1
 636:	e000                	.2byte	0xe000
 638:	028c                	addi	a1,sp,320
 63a:	e000                	.2byte	0xe000
 63c:	9102                	jalr	sp
 63e:	074c                	addi	a1,sp,900
 640:	028c                	addi	a1,sp,320
 642:	e000                	.2byte	0xe000
 644:	0294                	addi	a3,sp,320
 646:	e000                	.2byte	0xe000
 648:	a304                	.2byte	0xa304
 64a:	5e01                	li	t3,-32
 64c:	079f 0294 e000      	.byte	0x9f, 0x07, 0x94, 0x02, 0x00, 0xe0
 652:	02a2                	slli	t0,t0,0x8
 654:	e000                	.2byte	0xe000
 656:	5c01                	li	s8,-32
 658:	0700                	addi	s0,sp,896
 65a:	01a0                	addi	s0,sp,200
 65c:	e000                	.2byte	0xe000
 65e:	01b6                	slli	gp,gp,0xd
 660:	e000                	.2byte	0xe000
 662:	5f01                	li	t5,-32
 664:	0001b607          	.4byte	0x1b607
 668:	c8e0                	sw	s0,84(s1)
 66a:	0001                	nop
 66c:	04e0                	addi	s0,sp,588
 66e:	9f5f01a3          	sb	s5,-1565(t5) # fffdf9e3 <fromhost+0x1ffcf9d3>
 672:	0001c807          	.4byte	0x1c807
 676:	fae0                	.2byte	0xfae0
 678:	0001                	nop
 67a:	01e0                	addi	s0,sp,204
 67c:	075f 01fa e000      	.byte	0x5f, 0x07, 0xfa, 0x01, 0x00, 0xe0
 682:	024c                	addi	a1,sp,260
 684:	e000                	.2byte	0xe000
 686:	a304                	.2byte	0xa304
 688:	5f01                	li	t5,-32
 68a:	079f 024c e000      	.byte	0x9f, 0x07, 0x4c, 0x02, 0x00, 0xe0
 690:	0256                	slli	tp,tp,0x15
 692:	e000                	.2byte	0xe000
 694:	5f01                	li	t5,-32
 696:	00025607          	.4byte	0x25607
 69a:	a2e0                	.2byte	0xa2e0
 69c:	0002                	c.slli64	zero
 69e:	04e0                	addi	s0,sp,588
 6a0:	9f5f01a3          	sb	s5,-1565(t5)
 6a4:	0700                	addi	s0,sp,896
 6a6:	01da                	slli	gp,gp,0x16
 6a8:	e000                	.2byte	0xe000
 6aa:	01e4                	addi	s1,sp,204
 6ac:	e000                	.2byte	0xe000
 6ae:	9f6f9103          	lh	sp,-1546(t6)
 6b2:	0001e407          	.4byte	0x1e407
 6b6:	4ce0                	lw	s0,92(s1)
 6b8:	0002                	c.slli64	zero
 6ba:	01e0                	addi	s0,sp,204
 6bc:	0758                	addi	a4,sp,900
 6be:	0250                	addi	a2,sp,260
 6c0:	e000                	.2byte	0xe000
 6c2:	0294                	addi	a3,sp,320
 6c4:	e000                	.2byte	0xe000
 6c6:	5801                	li	a6,-32
 6c8:	00029407          	.4byte	0x29407
 6cc:	a0e0                	.2byte	0xa0e0
 6ce:	0002                	c.slli64	zero
 6d0:	03e0                	addi	s0,sp,460
 6d2:	7f78                	.2byte	0x7f78
 6d4:	079f 02a0 e000      	.byte	0x9f, 0x07, 0xa0, 0x02, 0x00, 0xe0
 6da:	02a2                	slli	t0,t0,0x8
 6dc:	e000                	.2byte	0xe000
 6de:	5801                	li	a6,-32
 6e0:	0700                	addi	s0,sp,896
 6e2:	01a0                	addi	s0,sp,200
 6e4:	e000                	.2byte	0xe000
 6e6:	01be                	slli	gp,gp,0xf
 6e8:	e000                	.2byte	0xe000
 6ea:	3002                	.2byte	0x3002
 6ec:	079f 01c8 e000      	.byte	0x9f, 0x07, 0xc8, 0x01, 0x00, 0xe0
 6f2:	01d6                	slli	gp,gp,0x15
 6f4:	e000                	.2byte	0xe000
 6f6:	3002                	.2byte	0x3002
 6f8:	079f 01d6 e000      	.byte	0x9f, 0x07, 0xd6, 0x01, 0x00, 0xe0
 6fe:	01da                	slli	gp,gp,0x16
 700:	e000                	.2byte	0xe000
 702:	3102                	.2byte	0x3102
 704:	079f 01da e000      	.byte	0x9f, 0x07, 0xda, 0x01, 0x00, 0xe0
 70a:	024c                	addi	a1,sp,260
 70c:	e000                	.2byte	0xe000
 70e:	5901                	li	s2,-32
 710:	00024c07          	.4byte	0x24c07
 714:	50e0                	lw	s0,100(s1)
 716:	0002                	c.slli64	zero
 718:	02e0                	addi	s0,sp,332
 71a:	9f30                	.2byte	0x9f30
 71c:	00025007          	.4byte	0x25007
 720:	8ce0                	.2byte	0x8ce0
 722:	0002                	c.slli64	zero
 724:	01e0                	addi	s0,sp,204
 726:	0759                	addi	a4,a4,22
 728:	0294                	addi	a3,sp,320
 72a:	e000                	.2byte	0xe000
 72c:	029e                	slli	t0,t0,0x7
 72e:	e000                	.2byte	0xe000
 730:	5901                	li	s2,-32
 732:	0700                	addi	s0,sp,896
 734:	01a0                	addi	s0,sp,200
 736:	e000                	.2byte	0xe000
 738:	01be                	slli	gp,gp,0xf
 73a:	e000                	.2byte	0xe000
 73c:	3002                	.2byte	0x3002
 73e:	079f 01c8 e000      	.byte	0x9f, 0x07, 0xc8, 0x01, 0x00, 0xe0
 744:	0286                	slli	t0,t0,0x1
 746:	e000                	.2byte	0xe000
 748:	3002                	.2byte	0x3002
 74a:	079f 0286 e000      	.byte	0x9f, 0x07, 0x86, 0x02, 0x00, 0xe0
 750:	028c                	addi	a1,sp,320
 752:	e000                	.2byte	0xe000
 754:	3102                	.2byte	0x3102
 756:	079f 028c e000      	.byte	0x9f, 0x07, 0x8c, 0x02, 0x00, 0xe0
 75c:	0294                	addi	a3,sp,320
 75e:	e000                	.2byte	0xe000
 760:	5901                	li	s2,-32
 762:	00029407          	.4byte	0x29407
 766:	a2e0                	.2byte	0xa2e0
 768:	0002                	c.slli64	zero
 76a:	02e0                	addi	s0,sp,332
 76c:	9f30                	.2byte	0x9f30
 76e:	0700                	addi	s0,sp,896
 770:	01a0                	addi	s0,sp,200
 772:	e000                	.2byte	0xe000
 774:	01b8                	addi	a4,sp,200
 776:	e000                	.2byte	0xe000
 778:	5a01                	li	s4,-32
 77a:	0001b807          	.4byte	0x1b807
 77e:	bee0                	.2byte	0xbee0
 780:	0001                	nop
 782:	04e0                	addi	s0,sp,588
 784:	9f5a01a3          	sb	s5,-1565(s4)
 788:	0001c807          	.4byte	0x1c807
 78c:	dae0                	sw	s0,116(a3)
 78e:	0001                	nop
 790:	01e0                	addi	s0,sp,204
 792:	075a                	slli	a4,a4,0x16
 794:	01da                	slli	gp,gp,0x16
 796:	e000                	.2byte	0xe000
 798:	023c                	addi	a5,sp,264
 79a:	e000                	.2byte	0xe000
 79c:	6001                	.2byte	0x6001
 79e:	00023c07          	.4byte	0x23c07
 7a2:	40e0                	lw	s0,68(s1)
 7a4:	0002                	c.slli64	zero
 7a6:	03e0                	addi	s0,sp,460
 7a8:	7a80                	.2byte	0x7a80
 7aa:	079f 0246 e000      	.byte	0x9f, 0x07, 0x46, 0x02, 0x00, 0xe0
 7b0:	024c                	addi	a1,sp,260
 7b2:	e000                	.2byte	0xe000
 7b4:	6001                	.2byte	0x6001
 7b6:	00024c07          	.4byte	0x24c07
 7ba:	50e0                	lw	s0,100(s1)
 7bc:	0002                	c.slli64	zero
 7be:	01e0                	addi	s0,sp,204
 7c0:	075a                	slli	a4,a4,0x16
 7c2:	0250                	addi	a2,sp,260
 7c4:	e000                	.2byte	0xe000
 7c6:	0285                	addi	t0,t0,1
 7c8:	e000                	.2byte	0xe000
 7ca:	6001                	.2byte	0x6001
 7cc:	00029407          	.4byte	0x29407
 7d0:	a2e0                	.2byte	0xa2e0
 7d2:	0002                	c.slli64	zero
 7d4:	01e0                	addi	s0,sp,204
 7d6:	0060                	addi	s0,sp,12
 7d8:	0001fa07          	.4byte	0x1fa07
 7dc:	02e0                	addi	s0,sp,332
 7de:	0002                	c.slli64	zero
 7e0:	01e0                	addi	s0,sp,204
 7e2:	0060                	addi	s0,sp,12
 7e4:	00021c07          	.4byte	0x21c07
 7e8:	3ce0                	.2byte	0x3ce0
 7ea:	0002                	c.slli64	zero
 7ec:	01e0                	addi	s0,sp,204
 7ee:	0760                	addi	s0,sp,908
 7f0:	023c                	addi	a5,sp,264
 7f2:	e000                	.2byte	0xe000
 7f4:	0240                	addi	s0,sp,260
 7f6:	e000                	.2byte	0xe000
 7f8:	9f7a8003          	lb	zero,-1545(s5)
 7fc:	0700                	addi	s0,sp,896
 7fe:	0222                	slli	tp,tp,0x8
 800:	e000                	.2byte	0xe000
 802:	0246                	slli	tp,tp,0x11
 804:	e000                	.2byte	0xe000
 806:	5f01                	li	t5,-32
 808:	0700                	addi	s0,sp,896
 80a:	0236                	slli	tp,tp,0xd
 80c:	e000                	.2byte	0xe000
 80e:	023c                	addi	a5,sp,264
 810:	e000                	.2byte	0xe000
 812:	7f09                	lui	t5,0xfffe2
 814:	0900                	addi	s0,sp,144
 816:	1ef6                	slli	t4,t4,0x3d
 818:	0080                	addi	s0,sp,64
 81a:	9f22                	add	t5,t5,s0
 81c:	00023c07          	.4byte	0x23c07
 820:	40e0                	lw	s0,68(s1)
 822:	0002                	c.slli64	zero
 824:	0be0                	addi	s0,sp,476
 826:	007f                	.2byte	0x7f
 828:	f609                	bnez	a2,732 <_min_stack-0x18ce>
 82a:	801e                	c.mv	zero,t2
 82c:	2200                	.2byte	0x2200
 82e:	1c36                	slli	s8,s8,0x2d
 830:	009f 5a07 0002      	.byte	0x9f, 0x00, 0x07, 0x5a, 0x02, 0x00
 836:	66e0                	.2byte	0x66e0
 838:	0002                	c.slli64	zero
 83a:	01e0                	addi	s0,sp,204
 83c:	075a                	slli	a4,a4,0x16
 83e:	0266                	slli	tp,tp,0x19
 840:	e000                	.2byte	0xe000
 842:	0272                	slli	tp,tp,0x1c
 844:	e000                	.2byte	0xe000
 846:	9f507a03          	.4byte	0x9f507a03
 84a:	0700                	addi	s0,sp,896
 84c:	0284                	addi	s1,sp,320
 84e:	e000                	.2byte	0xe000
 850:	0286                	slli	t0,t0,0x1
 852:	e000                	.2byte	0xe000
 854:	3002                	.2byte	0x3002
 856:	009f 8407 0002      	.byte	0x9f, 0x00, 0x07, 0x84, 0x02, 0x00
 85c:	86e0                	.2byte	0x86e0
 85e:	0002                	c.slli64	zero
 860:	03e0                	addi	s0,sp,460
 862:	2d08                	.2byte	0x2d08
 864:	009f b007 0002      	.byte	0x9f, 0x00, 0x07, 0xb0, 0x02, 0x00
 86a:	bae0                	.2byte	0xbae0
 86c:	0002                	c.slli64	zero
 86e:	01e0                	addi	s0,sp,204
 870:	075a                	slli	a4,a4,0x16
 872:	02ba                	slli	t0,t0,0xe
 874:	e000                	.2byte	0xe000
 876:	02c4                	addi	s1,sp,324
 878:	e000                	.2byte	0xe000
 87a:	5801                	li	a6,-32
 87c:	0002c407          	.4byte	0x2c407
 880:	c8e0                	sw	s0,84(s1)
 882:	0002                	c.slli64	zero
 884:	01e0                	addi	s0,sp,204
 886:	005a                	c.slli	zero,0x16
 888:	009d                	addi	ra,ra,7
 88a:	0000                	unimp
 88c:	0005                	c.nop	1
 88e:	0004                	.2byte	0x4
 890:	0000                	unimp
 892:	0000                	unimp
 894:	0024de07          	.4byte	0x24de07
 898:	0de0                	addi	s0,sp,732
 89a:	0025                	c.nop	9
 89c:	01e0                	addi	s0,sp,204
 89e:	251a075b          	.4byte	0x251a075b
 8a2:	e000                	.2byte	0xe000
 8a4:	2525                	jal	ecc <_min_stack-0x1134>
 8a6:	e000                	.2byte	0xe000
 8a8:	5b01                	li	s6,-32
 8aa:	0700                	addi	s0,sp,896
 8ac:	24e0                	.2byte	0x24e0
 8ae:	e000                	.2byte	0xe000
 8b0:	250d                	jal	ed2 <_min_stack-0x112e>
 8b2:	e000                	.2byte	0xe000
 8b4:	5c01                	li	s8,-32
 8b6:	00251a07          	.4byte	0x251a07
 8ba:	25e0                	.2byte	0x25e0
 8bc:	0025                	c.nop	9
 8be:	01e0                	addi	s0,sp,204
 8c0:	005c                	addi	a5,sp,4
 8c2:	0024e207          	.4byte	0x24e207
 8c6:	0de0                	addi	s0,sp,732
 8c8:	0025                	c.nop	9
 8ca:	01e0                	addi	s0,sp,204
 8cc:	075d                	addi	a4,a4,23
 8ce:	251a                	.2byte	0x251a
 8d0:	e000                	.2byte	0xe000
 8d2:	2525                	jal	efa <_min_stack-0x1106>
 8d4:	e000                	.2byte	0xe000
 8d6:	5d01                	li	s10,-32
 8d8:	0700                	addi	s0,sp,896
 8da:	24e6                	.2byte	0x24e6
 8dc:	e000                	.2byte	0xe000
 8de:	250a                	.2byte	0x250a
 8e0:	e000                	.2byte	0xe000
 8e2:	5a01                	li	s4,-32
 8e4:	00251a07          	.4byte	0x251a07
 8e8:	22e0                	.2byte	0x22e0
 8ea:	0025                	c.nop	9
 8ec:	01e0                	addi	s0,sp,204
 8ee:	005a                	c.slli	zero,0x16
 8f0:	0024e407          	.4byte	0x24e407
 8f4:	0de0                	addi	s0,sp,732
 8f6:	0025                	c.nop	9
 8f8:	01e0                	addi	s0,sp,204
 8fa:	075e                	slli	a4,a4,0x17
 8fc:	251a                	.2byte	0x251a
 8fe:	e000                	.2byte	0xe000
 900:	2525                	jal	f28 <_min_stack-0x10d8>
 902:	e000                	.2byte	0xe000
 904:	5e01                	li	t3,-32
 906:	0700                	addi	s0,sp,896
 908:	24c6                	.2byte	0x24c6
 90a:	e000                	.2byte	0xe000
 90c:	2514                	.2byte	0x2514
 90e:	e000                	.2byte	0xe000
 910:	5801                	li	a6,-32
 912:	00251407          	.4byte	0x251407
 916:	1ae0                	addi	s0,sp,380
 918:	0025                	c.nop	9
 91a:	01e0                	addi	s0,sp,204
 91c:	075a                	slli	a4,a4,0x16
 91e:	251a                	.2byte	0x251a
 920:	e000                	.2byte	0xe000
 922:	252a                	.2byte	0x252a
 924:	e000                	.2byte	0xe000
 926:	5801                	li	a6,-32
	...

Disassembly of section .debug_aranges:

00000000 <.debug_aranges>:
   0:	001c                	.2byte	0x1c
   2:	0000                	unimp
   4:	0002                	c.slli64	zero
   6:	0000                	unimp
   8:	0000                	unimp
   a:	0004                	.2byte	0x4
   c:	0000                	unimp
   e:	0000                	unimp
  10:	0084                	addi	s1,sp,64
  12:	e000                	.2byte	0xe000
  14:	03d6                	slli	t2,t2,0x15
	...
  1e:	0000                	unimp
  20:	0024                	addi	s1,sp,8
  22:	0000                	unimp
  24:	0002                	c.slli64	zero
  26:	0000087b          	.4byte	0x87b
  2a:	0004                	.2byte	0x4
  2c:	0000                	unimp
  2e:	0000                	unimp
  30:	045a                	slli	s0,s0,0x16
  32:	e000                	.2byte	0xe000
  34:	1f8c                	addi	a1,sp,1008
  36:	0000                	unimp
  38:	246a                	.2byte	0x246a
  3a:	e000                	.2byte	0xe000
  3c:	00c0                	addi	s0,sp,68
	...
  46:	0000                	unimp
  48:	0024                	addi	s1,sp,8
  4a:	0000                	unimp
  4c:	0002                	c.slli64	zero
  4e:	00000b47          	.4byte	0xb47
  52:	0004                	.2byte	0x4
  54:	0000                	unimp
  56:	0000                	unimp
  58:	23e6                	.2byte	0x23e6
  5a:	e000                	.2byte	0xe000
  5c:	0084                	addi	s1,sp,64
  5e:	0000                	unimp
  60:	0000                	unimp
  62:	e000                	.2byte	0xe000
  64:	0084                	addi	s1,sp,64
	...

Disassembly of section .debug_rnglists:

00000000 <.debug_rnglists>:
   0:	000000eb          	.4byte	0xeb
   4:	0005                	c.nop	1
   6:	0004                	.2byte	0x4
   8:	0000                	unimp
   a:	0000                	unimp
   c:	1806                	slli	a6,a6,0x21
   e:	0001                	nop
  10:	2ee0                	.2byte	0x2ee0
  12:	0001                	nop
  14:	06e0                	addi	s0,sp,844
  16:	0132                	slli	sp,sp,0xc
  18:	e000                	.2byte	0xe000
  1a:	0138                	addi	a4,sp,136
  1c:	e000                	.2byte	0xe000
  1e:	4606                	lw	a2,64(sp)
  20:	0001                	nop
  22:	4ae0                	lw	s0,84(a3)
  24:	0001                	nop
  26:	00e0                	addi	s0,sp,76
  28:	4006                	.2byte	0x4006
  2a:	0001                	nop
  2c:	46e0                	lw	s0,76(a3)
  2e:	0001                	nop
  30:	06e0                	addi	s0,sp,844
  32:	014a                	slli	sp,sp,0x12
  34:	e000                	.2byte	0xe000
  36:	014e                	slli	sp,sp,0x13
  38:	e000                	.2byte	0xe000
  3a:	0600                	addi	s0,sp,768
  3c:	0140                	addi	s0,sp,132
  3e:	e000                	.2byte	0xe000
  40:	0146                	slli	sp,sp,0x11
  42:	e000                	.2byte	0xe000
  44:	4a06                	lw	s4,64(sp)
  46:	0001                	nop
  48:	4ee0                	lw	s0,92(a3)
  4a:	0001                	nop
  4c:	00e0                	addi	s0,sp,76
  4e:	7606                	.2byte	0x7606
  50:	0001                	nop
  52:	7ae0                	.2byte	0x7ae0
  54:	0001                	nop
  56:	06e0                	addi	s0,sp,844
  58:	0198                	addi	a4,sp,192
  5a:	e000                	.2byte	0xe000
  5c:	019c                	addi	a5,sp,192
  5e:	e000                	.2byte	0xe000
  60:	0600                	addi	s0,sp,768
  62:	0176                	slli	sp,sp,0x1d
  64:	e000                	.2byte	0xe000
  66:	017a                	slli	sp,sp,0x1e
  68:	e000                	.2byte	0xe000
  6a:	9806                	add	a6,a6,ra
  6c:	0001                	nop
  6e:	9ce0                	.2byte	0x9ce0
  70:	0001                	nop
  72:	00e0                	addi	s0,sp,76
  74:	e806                	.2byte	0xe806
  76:	0001                	nop
  78:	f8e0                	.2byte	0xf8e0
  7a:	0001                	nop
  7c:	06e0                	addi	s0,sp,844
  7e:	01fa                	slli	gp,gp,0x1e
  80:	e000                	.2byte	0xe000
  82:	0206                	slli	tp,tp,0x1
  84:	e000                	.2byte	0xe000
  86:	0806                	slli	a6,a6,0x1
  88:	0002                	c.slli64	zero
  8a:	10e0                	addi	s0,sp,108
  8c:	0002                	c.slli64	zero
  8e:	00e0                	addi	s0,sp,76
  90:	f806                	.2byte	0xf806
  92:	0001                	nop
  94:	fae0                	.2byte	0xfae0
  96:	0001                	nop
  98:	06e0                	addi	s0,sp,844
  9a:	021c                	addi	a5,sp,256
  9c:	e000                	.2byte	0xe000
  9e:	0246                	slli	tp,tp,0x11
  a0:	e000                	.2byte	0xe000
  a2:	0600                	addi	s0,sp,768
  a4:	027c                	addi	a5,sp,268
  a6:	e000                	.2byte	0xe000
  a8:	0284                	addi	s1,sp,320
  aa:	e000                	.2byte	0xe000
  ac:	8406                	mv	s0,ra
  ae:	0002                	c.slli64	zero
  b0:	86e0                	.2byte	0x86e0
  b2:	0002                	c.slli64	zero
  b4:	00e0                	addi	s0,sp,76
  b6:	f206                	.2byte	0xf206
  b8:	0002                	c.slli64	zero
  ba:	10e0                	addi	s0,sp,108
  bc:	06e00003          	lb	zero,110(zero) # 6e <_min_stack-0x1f92>
  c0:	032a                	slli	t1,t1,0xa
  c2:	e000                	.2byte	0xe000
  c4:	0420                	addi	s0,sp,520
  c6:	e000                	.2byte	0xe000
  c8:	0600                	addi	s0,sp,768
  ca:	0302                	c.slli64	t1
  cc:	e000                	.2byte	0xe000
  ce:	030a                	slli	t1,t1,0x2
  d0:	e000                	.2byte	0xe000
  d2:	7606                	.2byte	0x7606
  d4:	84e00003          	lb	zero,-1970(zero) # fffff84e <fromhost+0x1ffef83e>
  d8:	00e00003          	lb	zero,14(zero) # e <_min_stack-0x1ff2>
  dc:	1606                	slli	a2,a2,0x21
  de:	0004                	.2byte	0x4
  e0:	1ae0                	addi	s0,sp,380
  e2:	0004                	.2byte	0x4
  e4:	06e0                	addi	s0,sp,844
  e6:	041c                	addi	a5,sp,512
  e8:	e000                	.2byte	0xe000
  ea:	041e                	slli	s0,s0,0x7
  ec:	e000                	.2byte	0xe000
  ee:	1b00                	addi	s0,sp,432
  f0:	0000                	unimp
  f2:	0500                	addi	s0,sp,640
  f4:	0400                	addi	s0,sp,512
  f6:	0000                	unimp
  f8:	0000                	unimp
  fa:	0600                	addi	s0,sp,768
  fc:	045a                	slli	s0,s0,0x16
  fe:	e000                	.2byte	0xe000
 100:	23e6                	.2byte	0x23e6
 102:	e000                	.2byte	0xe000
 104:	6a06                	.2byte	0x6a06
 106:	0024                	addi	s1,sp,8
 108:	2ae0                	.2byte	0x2ae0
 10a:	0025                	c.nop	9
 10c:	00e0                	addi	s0,sp,76
 10e:	00000017          	auipc	zero,0x0
 112:	0005                	c.nop	1
 114:	0004                	.2byte	0x4
 116:	0000                	unimp
 118:	0000                	unimp
 11a:	0023e607          	.4byte	0x23e607
 11e:	84e0                	.2byte	0x84e0
 120:	0701                	addi	a4,a4,0
 122:	0000                	unimp
 124:	e000                	.2byte	0xe000
 126:	0184                	addi	s1,sp,192
	...

Disassembly of section .debug_line:

00000000 <.debug_line>:
       0:	0c71                	addi	s8,s8,28
       2:	0000                	unimp
       4:	0005                	c.nop	1
       6:	0004                	.2byte	0x4
       8:	003c                	addi	a5,sp,8
       a:	0000                	unimp
       c:	0101                	addi	sp,sp,0
       e:	fb01                	bnez	a4,ffffff1e <fromhost+0x1ffeff0e>
      10:	0d0e                	slli	s10,s10,0x3
      12:	0100                	addi	s0,sp,128
      14:	0101                	addi	sp,sp,0
      16:	0001                	nop
      18:	0000                	unimp
      1a:	0001                	nop
      1c:	0100                	addi	s0,sp,128
      1e:	0101                	addi	sp,sp,0
      20:	031f 0000 0000      	.byte	0x1f, 0x03, 0x00, 0x00, 0x00, 0x00
      26:	00000093          	li	ra,0
      2a:	000000d7          	.4byte	0xd7
      2e:	0102                	c.slli64	sp
      30:	021f 040f 008b      	.byte	0x1f, 0x02, 0x0f, 0x04, 0x8b, 0x00
      36:	0000                	unimp
      38:	8b01                	andi	a4,a4,0
      3a:	0000                	unimp
      3c:	0100                	addi	s0,sp,128
      3e:	012d                	addi	sp,sp,11
      40:	0000                	unimp
      42:	3602                	.2byte	0x3602
      44:	0001                	nop
      46:	0200                	addi	s0,sp,256
      48:	3505                	jal	fffffe68 <fromhost+0x1ffefe58>
      4a:	0500                	addi	s0,sp,640
      4c:	8402                	jr	s0
      4e:	0000                	unimp
      50:	03e0                	addi	s0,sp,460
      52:	0129                	addi	sp,sp,10
      54:	0305                	addi	t1,t1,1
      56:	00090103          	lb	sp,0(s2)
      5a:	0100                	addi	s0,sp,128
      5c:	00090103          	lb	sp,0(s2)
      60:	0100                	addi	s0,sp,128
      62:	2b05                	jal	592 <_min_stack-0x1a6e>
      64:	0306                	slli	t1,t1,0x1
      66:	0900                	addi	s0,sp,144
      68:	0000                	unimp
      6a:	0501                	addi	a0,a0,0
      6c:	01030603          	lb	a2,16(t1)
      70:	0a09                	addi	s4,s4,2
      72:	0100                	addi	s0,sp,128
      74:	4005                	c.li	zero,1
      76:	0306                	slli	t1,t1,0x1
      78:	0900                	addi	s0,sp,144
      7a:	0000                	unimp
      7c:	0501                	addi	a0,a0,0
      7e:	0900032b          	.4byte	0x900032b
      82:	0004                	.2byte	0x4
      84:	0501                	addi	a0,a0,0
      86:	01030603          	lb	a2,16(t1)
      8a:	0209                	addi	tp,tp,2 # 2 <_min_stack-0x1ffe>
      8c:	0100                	addi	s0,sp,128
      8e:	4005                	c.li	zero,1
      90:	0306                	slli	t1,t1,0x1
      92:	0900                	addi	s0,sp,144
      94:	0000                	unimp
      96:	0501                	addi	a0,a0,0
      98:	0900032b          	.4byte	0x900032b
      9c:	0004                	.2byte	0x4
      9e:	0501                	addi	a0,a0,0
      a0:	01030603          	lb	a2,16(t1)
      a4:	0209                	addi	tp,tp,2 # 2 <_min_stack-0x1ffe>
      a6:	0100                	addi	s0,sp,128
      a8:	2b05                	jal	5d8 <_min_stack-0x1a28>
      aa:	0306                	slli	t1,t1,0x1
      ac:	0900                	addi	s0,sp,144
      ae:	0000                	unimp
      b0:	0501                	addi	a0,a0,0
      b2:	01030603          	lb	a2,16(t1)
      b6:	0609                	addi	a2,a2,2
      b8:	0100                	addi	s0,sp,128
      ba:	2b05                	jal	5ea <_min_stack-0x1a16>
      bc:	0306                	slli	t1,t1,0x1
      be:	0900                	addi	s0,sp,144
      c0:	0000                	unimp
      c2:	0501                	addi	a0,a0,0
      c4:	02030603          	lb	a2,32(t1)
      c8:	0409                	addi	s0,s0,2
      ca:	0100                	addi	s0,sp,128
      cc:	2f05                	jal	7fc <_min_stack-0x1804>
      ce:	0306                	slli	t1,t1,0x1
      d0:	0900                	addi	s0,sp,144
      d2:	0000                	unimp
      d4:	0501                	addi	a0,a0,0
      d6:	0358                	addi	a4,sp,388
      d8:	0900                	addi	s0,sp,144
      da:	0002                	c.slli64	zero
      dc:	0501                	addi	a0,a0,0
      de:	0360                	addi	s0,sp,396
      e0:	0900                	addi	s0,sp,144
      e2:	0004                	.2byte	0x4
      e4:	0501                	addi	a0,a0,0
      e6:	0900032b          	.4byte	0x900032b
      ea:	0004                	.2byte	0x4
      ec:	0501                	addi	a0,a0,0
      ee:	0301                	addi	t1,t1,0
      f0:	0901                	addi	s2,s2,0
      f2:	0002                	c.slli64	zero
      f4:	0501                	addi	a0,a0,0
      f6:	02030633          	mul	a2,t1,zero
      fa:	0209                	addi	tp,tp,2 # 2 <_min_stack-0x1ffe>
      fc:	0100                	addi	s0,sp,128
      fe:	0305                	addi	t1,t1,1
     100:	00090103          	lb	sp,0(s2)
     104:	0100                	addi	s0,sp,128
     106:	00090203          	lb	tp,0(s2)
     10a:	0100                	addi	s0,sp,128
     10c:	0d05                	addi	s10,s10,1 # fffe0001 <fromhost+0x1ffcfff1>
     10e:	0306                	slli	t1,t1,0x1
     110:	0904                	addi	s1,sp,144
     112:	0000                	unimp
     114:	0601                	addi	a2,a2,0
     116:	04097c03          	.4byte	0x4097c03
     11a:	0100                	addi	s0,sp,128
     11c:	0105                	addi	sp,sp,1
     11e:	0306                	slli	t1,t1,0x1
     120:	090d                	addi	s2,s2,3
     122:	0002                	c.slli64	zero
     124:	0501                	addi	a0,a0,0
     126:	003d                	c.nop	15
     128:	0402                	c.slli64	s0
     12a:	0601                	addi	a2,a2,0
     12c:	02097703          	.4byte	0x2097703
     130:	0100                	addi	s0,sp,128
     132:	0d05                	addi	s10,s10,1
     134:	0200                	addi	s0,sp,256
     136:	0104                	addi	s1,sp,128
     138:	0306                	slli	t1,t1,0x1
     13a:	0900                	addi	s0,sp,144
     13c:	0000                	unimp
     13e:	0501                	addi	a0,a0,0
     140:	0035                	c.nop	13
     142:	0402                	c.slli64	s0
     144:	0301                	addi	t1,t1,0
     146:	0900                	addi	s0,sp,144
     148:	0002                	c.slli64	zero
     14a:	0501                	addi	a0,a0,0
     14c:	003d                	c.nop	15
     14e:	0402                	c.slli64	s0
     150:	0301                	addi	t1,t1,0
     152:	0900                	addi	s0,sp,144
     154:	0004                	.2byte	0x4
     156:	0501                	addi	a0,a0,0
     158:	04020007          	.4byte	0x4020007
     15c:	0604                	addi	s1,sp,768
     15e:	06090403          	lb	s0,96(s2)
     162:	0100                	addi	s0,sp,128
     164:	3105                	jal	fffffd84 <fromhost+0x1ffefd74>
     166:	0200                	addi	s0,sp,256
     168:	0404                	addi	s1,sp,512
     16a:	0306                	slli	t1,t1,0x1
     16c:	0900                	addi	s0,sp,144
     16e:	0000                	unimp
     170:	0501                	addi	a0,a0,0
     172:	0035                	c.nop	13
     174:	0402                	c.slli64	s0
     176:	0304                	addi	s1,sp,384
     178:	0900                	addi	s0,sp,144
     17a:	0004                	.2byte	0x4
     17c:	0501                	addi	a0,a0,0
     17e:	000a                	c.slli	zero,0x2
     180:	0402                	c.slli64	s0
     182:	0304                	addi	s1,sp,384
     184:	0902                	c.slli64	s2
     186:	0002                	c.slli64	zero
     188:	0501                	addi	a0,a0,0
     18a:	0402002f          	.4byte	0x402002f
     18e:	0304                	addi	s1,sp,384
     190:	097e                	slli	s2,s2,0x1f
     192:	0002                	c.slli64	zero
     194:	0501                	addi	a0,a0,0
     196:	04020007          	.4byte	0x4020007
     19a:	0604                	addi	s1,sp,768
     19c:	02090203          	lb	tp,32(s2)
     1a0:	0100                	addi	s0,sp,128
     1a2:	3505                	jal	ffffffc2 <fromhost+0x1ffeffb2>
     1a4:	0200                	addi	s0,sp,256
     1a6:	0404                	addi	s1,sp,512
     1a8:	00097c03          	.4byte	0x97c03
     1ac:	0100                	addi	s0,sp,128
     1ae:	2605                	jal	4ce <_min_stack-0x1b32>
     1b0:	0200                	addi	s0,sp,256
     1b2:	0404                	addi	s1,sp,512
     1b4:	00090003          	lb	zero,0(s2)
     1b8:	0100                	addi	s0,sp,128
     1ba:	0200                	addi	s0,sp,256
     1bc:	0304                	addi	s1,sp,384
     1be:	0306                	slli	t1,t1,0x1
     1c0:	0900                	addi	s0,sp,144
     1c2:	0004                	.2byte	0x4
     1c4:	0501                	addi	a0,a0,0
     1c6:	0615                	addi	a2,a2,5
     1c8:	04090903          	lb	s2,64(s2)
     1cc:	0100                	addi	s0,sp,128
     1ce:	0305                	addi	t1,t1,1
     1d0:	00090103          	lb	sp,0(s2)
     1d4:	0100                	addi	s0,sp,128
     1d6:	0a05                	addi	s4,s4,1
     1d8:	0306                	slli	t1,t1,0x1
     1da:	0900                	addi	s0,sp,144
     1dc:	0000                	unimp
     1de:	0501                	addi	a0,a0,0
     1e0:	0030                	addi	a2,sp,8
     1e2:	0402                	c.slli64	s0
     1e4:	0601                	addi	a2,a2,0
     1e6:	04090003          	lb	zero,64(s2)
     1ea:	0100                	addi	s0,sp,128
     1ec:	0a05                	addi	s4,s4,1
     1ee:	0200                	addi	s0,sp,256
     1f0:	0104                	addi	s1,sp,128
     1f2:	0306                	slli	t1,t1,0x1
     1f4:	0900                	addi	s0,sp,144
     1f6:	0000                	unimp
     1f8:	0501                	addi	a0,a0,0
     1fa:	0029                	c.nop	10
     1fc:	0402                	c.slli64	s0
     1fe:	0301                	addi	t1,t1,0
     200:	0900                	addi	s0,sp,144
     202:	0002                	c.slli64	zero
     204:	0501                	addi	a0,a0,0
     206:	0030                	addi	a2,sp,8
     208:	0402                	c.slli64	s0
     20a:	0301                	addi	t1,t1,0
     20c:	0900                	addi	s0,sp,144
     20e:	0002                	c.slli64	zero
     210:	0501                	addi	a0,a0,0
     212:	02030603          	lb	a2,32(t1)
     216:	0209                	addi	tp,tp,2 # 2 <_min_stack-0x1ffe>
     218:	0100                	addi	s0,sp,128
     21a:	0a05                	addi	s4,s4,1
     21c:	0306                	slli	t1,t1,0x1
     21e:	0900                	addi	s0,sp,144
     220:	0000                	unimp
     222:	0501                	addi	a0,a0,0
     224:	0301                	addi	t1,t1,0
     226:	0901                	addi	s2,s2,0
     228:	0002                	c.slli64	zero
     22a:	0501                	addi	a0,a0,0
     22c:	0622                	slli	a2,a2,0x8
     22e:	06090203          	lb	tp,96(s2)
     232:	0100                	addi	s0,sp,128
     234:	0305                	addi	t1,t1,1
     236:	00090203          	lb	tp,0(s2)
     23a:	0100                	addi	s0,sp,128
     23c:	0b05                	addi	s6,s6,1
     23e:	0306                	slli	t1,t1,0x1
     240:	0900                	addi	s0,sp,144
     242:	0000                	unimp
     244:	0501                	addi	a0,a0,0
     246:	0402003b          	.4byte	0x402003b
     24a:	0601                	addi	a2,a2,0
     24c:	04090003          	lb	zero,64(s2)
     250:	0100                	addi	s0,sp,128
     252:	0b05                	addi	s6,s6,1
     254:	0200                	addi	s0,sp,256
     256:	0104                	addi	s1,sp,128
     258:	0306                	slli	t1,t1,0x1
     25a:	0900                	addi	s0,sp,144
     25c:	0000                	unimp
     25e:	0501                	addi	a0,a0,0
     260:	04020033          	.4byte	0x4020033
     264:	0301                	addi	t1,t1,0
     266:	0900                	addi	s0,sp,144
     268:	0002                	c.slli64	zero
     26a:	0501                	addi	a0,a0,0
     26c:	0402003b          	.4byte	0x402003b
     270:	0301                	addi	t1,t1,0
     272:	0900                	addi	s0,sp,144
     274:	0004                	.2byte	0x4
     276:	0501                	addi	a0,a0,0
     278:	03030603          	lb	a2,48(t1)
     27c:	0209                	addi	tp,tp,2 # 2 <_min_stack-0x1ffe>
     27e:	0100                	addi	s0,sp,128
     280:	2b05                	jal	7b0 <_min_stack-0x1850>
     282:	0306                	slli	t1,t1,0x1
     284:	0900                	addi	s0,sp,144
     286:	0000                	unimp
     288:	0501                	addi	a0,a0,0
     28a:	0301                	addi	t1,t1,0
     28c:	0901                	addi	s2,s2,0
     28e:	0002                	c.slli64	zero
     290:	0501                	addi	a0,a0,0
     292:	060c                	addi	a1,sp,768
     294:	0900c803          	lbu	a6,144(ra)
     298:	0002                	c.slli64	zero
     29a:	0501                	addi	a0,a0,0
     29c:	09020303          	lb	t1,144(tp) # 90 <_min_stack-0x1f70>
     2a0:	0000                	unimp
     2a2:	0301                	addi	t1,t1,0
     2a4:	0902                	c.slli64	s2
     2a6:	0000                	unimp
     2a8:	0501                	addi	a0,a0,0
     2aa:	060c                	addi	a1,sp,768
     2ac:	00097c03          	.4byte	0x97c03
     2b0:	0100                	addi	s0,sp,128
     2b2:	0e090003          	lb	zero,224(s2)
     2b6:	0100                	addi	s0,sp,128
     2b8:	1805                	addi	a6,a6,-31
     2ba:	04090203          	lb	tp,64(s2)
     2be:	0100                	addi	s0,sp,128
     2c0:	0605                	addi	a2,a2,1
     2c2:	04090203          	lb	tp,64(s2)
     2c6:	0100                	addi	s0,sp,128
     2c8:	2505                	jal	8e8 <_min_stack-0x1718>
     2ca:	0306                	slli	t1,t1,0x1
     2cc:	00080903          	lb	s2,0(a6)
     2d0:	0501                	addi	a0,a0,0
     2d2:	031e                	slli	t1,t1,0x7
     2d4:	0900                	addi	s0,sp,144
     2d6:	0002                	c.slli64	zero
     2d8:	0501                	addi	a0,a0,0
     2da:	0318                	addi	a4,sp,384
     2dc:	0900                	addi	s0,sp,144
     2de:	0000                	unimp
     2e0:	0501                	addi	a0,a0,0
     2e2:	0305                	addi	t1,t1,1
     2e4:	0901                	addi	s2,s2,0
     2e6:	000a                	c.slli	zero,0x2
     2e8:	0501                	addi	a0,a0,0
     2ea:	0608                	addi	a0,sp,768
     2ec:	00090003          	lb	zero,0(s2)
     2f0:	0100                	addi	s0,sp,128
     2f2:	0a05                	addi	s4,s4,1
     2f4:	0306                	slli	t1,t1,0x1
     2f6:	0901                	addi	s2,s2,0
     2f8:	0004                	.2byte	0x4
     2fa:	0501                	addi	a0,a0,0
     2fc:	0610                	addi	a2,sp,768
     2fe:	00090003          	lb	zero,0(s2)
     302:	0100                	addi	s0,sp,128
     304:	0505                	addi	a0,a0,1
     306:	0306                	slli	t1,t1,0x1
     308:	0901                	addi	s2,s2,0
     30a:	0002                	c.slli64	zero
     30c:	0501                	addi	a0,a0,0
     30e:	060d                	addi	a2,a2,3
     310:	00090003          	lb	zero,0(s2)
     314:	0100                	addi	s0,sp,128
     316:	1805                	addi	a6,a6,-31
     318:	04097803          	.4byte	0x4097803
     31c:	0100                	addi	s0,sp,128
     31e:	0805                	addi	a6,a6,1
     320:	04090803          	lb	a6,64(s2)
     324:	0100                	addi	s0,sp,128
     326:	2105                	jal	746 <_min_stack-0x18ba>
     328:	02090003          	lb	zero,32(s2)
     32c:	0100                	addi	s0,sp,128
     32e:	0305                	addi	t1,t1,1
     330:	0306                	slli	t1,t1,0x1
     332:	0902                	c.slli64	s2
     334:	0004                	.2byte	0x4
     336:	0501                	addi	a0,a0,0
     338:	060d                	addi	a2,a2,3
     33a:	00090003          	lb	zero,0(s2)
     33e:	0100                	addi	s0,sp,128
     340:	1005                	c.nop	-31
     342:	02097603          	.4byte	0x2097603
     346:	0100                	addi	s0,sp,128
     348:	0605                	addi	a2,a2,1
     34a:	02090a03          	lb	s4,32(s2)
     34e:	0100                	addi	s0,sp,128
     350:	0305                	addi	t1,t1,1
     352:	04096503          	.4byte	0x4096503
     356:	0100                	addi	s0,sp,128
     358:	1d05                	addi	s10,s10,-31
     35a:	06091703          	lh	a4,96(s2)
     35e:	0100                	addi	s0,sp,128
     360:	0705                	addi	a4,a4,1
     362:	0306                	slli	t1,t1,0x1
     364:	0906                	slli	s2,s2,0x1
     366:	0004                	.2byte	0x4
     368:	0501                	addi	a0,a0,0
     36a:	09690303          	lb	t1,150(s2)
     36e:	0000                	unimp
     370:	0501                	addi	a0,a0,0
     372:	0305                	addi	t1,t1,1
     374:	0906                	slli	s2,s2,0x1
     376:	0000                	unimp
     378:	0501                	addi	a0,a0,0
     37a:	09740303          	lb	t1,151(s0)
     37e:	0000                	unimp
     380:	0301                	addi	t1,t1,0
     382:	0901                	addi	s2,s2,0
     384:	0004                	.2byte	0x4
     386:	0501                	addi	a0,a0,0
     388:	091d0307          	.4byte	0x91d0307
     38c:	0000                	unimp
     38e:	0501                	addi	a0,a0,0
     390:	0318                	addi	a4,sp,384
     392:	097e                	slli	s2,s2,0x1f
     394:	0000                	unimp
     396:	0501                	addi	a0,a0,0
     398:	09000313          	li	t1,144
     39c:	0002                	c.slli64	zero
     39e:	0501                	addi	a0,a0,0
     3a0:	0610                	addi	a2,sp,768
     3a2:	10097503          	.4byte	0x10097503
     3a6:	0100                	addi	s0,sp,128
     3a8:	0505                	addi	a0,a0,1
     3aa:	0306                	slli	t1,t1,0x1
     3ac:	0911                	addi	s2,s2,4
     3ae:	0004                	.2byte	0x4
     3b0:	0501                	addi	a0,a0,0
     3b2:	09640303          	lb	t1,150(s0)
     3b6:	0000                	unimp
     3b8:	0501                	addi	a0,a0,0
     3ba:	0305                	addi	t1,t1,1
     3bc:	0906                	slli	s2,s2,0x1
     3be:	0000                	unimp
     3c0:	0501                	addi	a0,a0,0
     3c2:	09740303          	lb	t1,151(s0)
     3c6:	0000                	unimp
     3c8:	0301                	addi	t1,t1,0
     3ca:	0901                	addi	s2,s2,0
     3cc:	0002                	c.slli64	zero
     3ce:	0501                	addi	a0,a0,0
     3d0:	0305                	addi	t1,t1,1
     3d2:	0922                	slli	s2,s2,0x8
     3d4:	0000                	unimp
     3d6:	0501                	addi	a0,a0,0
     3d8:	0315                	addi	t1,t1,5
     3da:	097e                	slli	s2,s2,0x1f
     3dc:	0002                	c.slli64	zero
     3de:	0501                	addi	a0,a0,0
     3e0:	0900030b          	.4byte	0x900030b
     3e4:	0000                	unimp
     3e6:	0501                	addi	a0,a0,0
     3e8:	5f030603          	lb	a2,1520(t1)
     3ec:	0e09                	addi	t3,t3,2
     3ee:	0100                	addi	s0,sp,128
     3f0:	1105                	addi	sp,sp,-31
     3f2:	0306                	slli	t1,t1,0x1
     3f4:	0925                	addi	s2,s2,9
     3f6:	0004                	.2byte	0x4
     3f8:	0501                	addi	a0,a0,0
     3fa:	09050303          	lb	t1,144(a0)
     3fe:	0004                	.2byte	0x4
     400:	0501                	addi	a0,a0,0
     402:	060a                	slli	a2,a2,0x2
     404:	00090003          	lb	zero,0(s2)
     408:	0100                	addi	s0,sp,128
     40a:	0105                	addi	sp,sp,1
     40c:	06090103          	lb	sp,96(s2)
     410:	0100                	addi	s0,sp,128
     412:	0505                	addi	a0,a0,1
     414:	0306                	slli	t1,t1,0x1
     416:	0014097b          	.4byte	0x14097b
     41a:	0501                	addi	a0,a0,0
     41c:	09600303          	lb	t1,150(zero) # 96 <_min_stack-0x1f6a>
     420:	0000                	unimp
     422:	0501                	addi	a0,a0,0
     424:	0305                	addi	t1,t1,1
     426:	0906                	slli	s2,s2,0x1
     428:	0000                	unimp
     42a:	0501                	addi	a0,a0,0
     42c:	09740303          	lb	t1,151(s0)
     430:	0000                	unimp
     432:	0301                	addi	t1,t1,0
     434:	0901                	addi	s2,s2,0
     436:	0004                	.2byte	0x4
     438:	0501                	addi	a0,a0,0
     43a:	0305                	addi	t1,t1,1
     43c:	0926                	slli	s2,s2,0x9
     43e:	0000                	unimp
     440:	0501                	addi	a0,a0,0
     442:	0316                	slli	t1,t1,0x5
     444:	097e                	slli	s2,s2,0x1f
     446:	0000                	unimp
     448:	0501                	addi	a0,a0,0
     44a:	030c                	addi	a1,sp,384
     44c:	0908                	addi	a0,sp,144
     44e:	0004                	.2byte	0x4
     450:	0501                	addi	a0,a0,0
     452:	09020303          	lb	t1,144(tp) # 90 <_min_stack-0x1f70>
     456:	0000                	unimp
     458:	0301                	addi	t1,t1,0
     45a:	0901                	addi	s2,s2,0
     45c:	0000                	unimp
     45e:	0301                	addi	t1,t1,0
     460:	0901                	addi	s2,s2,0
     462:	0000                	unimp
     464:	0301                	addi	t1,t1,0
     466:	0901                	addi	s2,s2,0
     468:	0000                	unimp
     46a:	0301                	addi	t1,t1,0
     46c:	0902                	c.slli64	s2
     46e:	0000                	unimp
     470:	0501                	addi	a0,a0,0
     472:	060c                	addi	a1,sp,768
     474:	00097903          	.4byte	0x97903
     478:	0100                	addi	s0,sp,128
     47a:	08090003          	lb	zero,128(s2)
     47e:	0100                	addi	s0,sp,128
     480:	0605                	addi	a2,a2,1
     482:	08090703          	lb	a4,128(s2)
     486:	0100                	addi	s0,sp,128
     488:	0505                	addi	a0,a0,1
     48a:	0306                	slli	t1,t1,0x1
     48c:	0902                	c.slli64	s2
     48e:	0002                	c.slli64	zero
     490:	0301                	addi	t1,t1,0
     492:	0901                	addi	s2,s2,0
     494:	0000                	unimp
     496:	0501                	addi	a0,a0,0
     498:	0612                	slli	a2,a2,0x4
     49a:	00097f03          	.4byte	0x97f03
     49e:	0100                	addi	s0,sp,128
     4a0:	0c05                	addi	s8,s8,1
     4a2:	04090203          	lb	tp,64(s2)
     4a6:	0100                	addi	s0,sp,128
     4a8:	1205                	addi	tp,tp,-31 # ffffffe1 <fromhost+0x1ffeffd1>
     4aa:	02097e03          	.4byte	0x2097e03
     4ae:	0100                	addi	s0,sp,128
     4b0:	0505                	addi	a0,a0,1
     4b2:	0306                	slli	t1,t1,0x1
     4b4:	0902                	c.slli64	s2
     4b6:	0004                	.2byte	0x4
     4b8:	0501                	addi	a0,a0,0
     4ba:	060c                	addi	a1,sp,768
     4bc:	00090003          	lb	zero,0(s2)
     4c0:	0100                	addi	s0,sp,128
     4c2:	0105                	addi	sp,sp,1
     4c4:	02092d03          	lw	s10,32(s2)
     4c8:	0100                	addi	s0,sp,128
     4ca:	0305                	addi	t1,t1,1
     4cc:	0306                	slli	t1,t1,0x1
     4ce:	0956                	slli	s2,s2,0x15
     4d0:	000c                	.2byte	0xc
     4d2:	0501                	addi	a0,a0,0
     4d4:	0606                	slli	a2,a2,0x1
     4d6:	00090003          	lb	zero,0(s2)
     4da:	0100                	addi	s0,sp,128
     4dc:	0a05                	addi	s4,s4,1
     4de:	02090003          	lb	zero,32(s2)
     4e2:	0100                	addi	s0,sp,128
     4e4:	1505                	addi	a0,a0,-31
     4e6:	06090003          	lb	zero,96(s2)
     4ea:	0100                	addi	s0,sp,128
     4ec:	0505                	addi	a0,a0,1
     4ee:	0306                	slli	t1,t1,0x1
     4f0:	0902                	c.slli64	s2
     4f2:	0004                	.2byte	0x4
     4f4:	0301                	addi	t1,t1,0
     4f6:	0901                	addi	s2,s2,0
     4f8:	0000                	unimp
     4fa:	0501                	addi	a0,a0,0
     4fc:	0609                	addi	a2,a2,2
     4fe:	00090003          	lb	zero,0(s2)
     502:	0100                	addi	s0,sp,128
     504:	0305                	addi	t1,t1,1
     506:	0306                	slli	t1,t1,0x1
     508:	00040903          	lb	s2,0(s0)
     50c:	0301                	addi	t1,t1,0
     50e:	0901                	addi	s2,s2,0
     510:	0000                	unimp
     512:	0501                	addi	a0,a0,0
     514:	0606                	slli	a2,a2,0x1
     516:	00090003          	lb	zero,0(s2)
     51a:	0100                	addi	s0,sp,128
     51c:	0305                	addi	t1,t1,1
     51e:	0306                	slli	t1,t1,0x1
     520:	00040903          	lb	s2,0(s0)
     524:	0501                	addi	a0,a0,0
     526:	0605                	addi	a2,a2,1
     528:	00090003          	lb	zero,0(s2)
     52c:	0100                	addi	s0,sp,128
     52e:	1305                	addi	t1,t1,-31
     530:	097fb503          	.4byte	0x97fb503
     534:	000a                	c.slli	zero,0x2
     536:	0501                	addi	a0,a0,0
     538:	0316                	slli	t1,t1,0x5
     53a:	0901                	addi	s2,s2,0
     53c:	0004                	.2byte	0x4
     53e:	0501                	addi	a0,a0,0
     540:	097f0313          	addi	t1,t5,151 # fffe2097 <fromhost+0x1ffd2087>
     544:	0008                	.2byte	0x8
     546:	0501                	addi	a0,a0,0
     548:	030d                	addi	t1,t1,3
     54a:	0975                	addi	s2,s2,29
     54c:	0004                	.2byte	0x4
     54e:	0501                	addi	a0,a0,0
     550:	e4030607          	.4byte	0xe4030607
     554:	0900                	addi	s0,sp,144
     556:	0002                	c.slli64	zero
     558:	0501                	addi	a0,a0,0
     55a:	7fa70303          	lb	t1,2042(a4)
     55e:	0009                	c.nop	2
     560:	0100                	addi	s0,sp,128
     562:	1305                	addi	t1,t1,-31
     564:	0306                	slli	t1,t1,0x1
     566:	0900                	addi	s0,sp,144
     568:	0000                	unimp
     56a:	0501                	addi	a0,a0,0
     56c:	031c                	addi	a5,sp,384
     56e:	0900                	addi	s0,sp,144
     570:	0004                	.2byte	0x4
     572:	0501                	addi	a0,a0,0
     574:	01030603          	lb	a2,16(t1)
     578:	0409                	addi	s0,s0,2
     57a:	0100                	addi	s0,sp,128
     57c:	2705                	jal	c9c <_min_stack-0x1364>
     57e:	0306                	slli	t1,t1,0x1
     580:	097f                	.2byte	0x97f
     582:	0000                	unimp
     584:	0501                	addi	a0,a0,0
     586:	030c                	addi	a1,sp,384
     588:	00d9                	addi	ra,ra,22
     58a:	0409                	addi	s0,s0,2
     58c:	0100                	addi	s0,sp,128
     58e:	1705                	addi	a4,a4,-31
     590:	097fa703          	lw	a4,151(t6)
     594:	0002                	c.slli64	zero
     596:	0501                	addi	a0,a0,0
     598:	0322                	slli	t1,t1,0x8
     59a:	0900                	addi	s0,sp,144
     59c:	0002                	c.slli64	zero
     59e:	0501                	addi	a0,a0,0
     5a0:	0305                	addi	t1,t1,1
     5a2:	0900                	addi	s0,sp,144
     5a4:	0002                	c.slli64	zero
     5a6:	0501                	addi	a0,a0,0
     5a8:	0316                	slli	t1,t1,0x5
     5aa:	0901                	addi	s2,s2,0
     5ac:	0002                	c.slli64	zero
     5ae:	0501                	addi	a0,a0,0
     5b0:	0318                	addi	a4,sp,384
     5b2:	00d8                	addi	a4,sp,68
     5b4:	0209                	addi	tp,tp,2 # 2 <_min_stack-0x1ffe>
     5b6:	0100                	addi	s0,sp,128
     5b8:	0c05                	addi	s8,s8,1
     5ba:	08090003          	lb	zero,128(s2)
     5be:	0100                	addi	s0,sp,128
     5c0:	0705                	addi	a4,a4,1
     5c2:	0306                	slli	t1,t1,0x1
     5c4:	0901                	addi	s2,s2,0
     5c6:	0004                	.2byte	0x4
     5c8:	0501                	addi	a0,a0,0
     5ca:	7f940303          	lb	t1,2041(s0)
     5ce:	0009                	c.nop	2
     5d0:	0100                	addi	s0,sp,128
     5d2:	00090203          	lb	tp,0(s2)
     5d6:	0100                	addi	s0,sp,128
     5d8:	1505                	addi	a0,a0,-31
     5da:	0306                	slli	t1,t1,0x1
     5dc:	0900                	addi	s0,sp,144
     5de:	0000                	unimp
     5e0:	0501                	addi	a0,a0,0
     5e2:	0305                	addi	t1,t1,1
     5e4:	0900                	addi	s0,sp,144
     5e6:	0004                	.2byte	0x4
     5e8:	0501                	addi	a0,a0,0
     5ea:	01030603          	lb	a2,16(t1)
     5ee:	0209                	addi	tp,tp,2 # 2 <_min_stack-0x1ffe>
     5f0:	0100                	addi	s0,sp,128
     5f2:	0e05                	addi	t3,t3,1
     5f4:	0306                	slli	t1,t1,0x1
     5f6:	0900                	addi	s0,sp,144
     5f8:	0000                	unimp
     5fa:	0501                	addi	a0,a0,0
     5fc:	0305                	addi	t1,t1,1
     5fe:	0900                	addi	s0,sp,144
     600:	0004                	.2byte	0x4
     602:	0501                	addi	a0,a0,0
     604:	01030603          	lb	a2,16(t1)
     608:	0209                	addi	tp,tp,2 # 2 <_min_stack-0x1ffe>
     60a:	0100                	addi	s0,sp,128
     60c:	0e05                	addi	t3,t3,1
     60e:	0306                	slli	t1,t1,0x1
     610:	0900                	addi	s0,sp,144
     612:	0000                	unimp
     614:	0501                	addi	a0,a0,0
     616:	0305                	addi	t1,t1,1
     618:	0900                	addi	s0,sp,144
     61a:	0004                	.2byte	0x4
     61c:	0501                	addi	a0,a0,0
     61e:	01030603          	lb	a2,16(t1)
     622:	0209                	addi	tp,tp,2 # 2 <_min_stack-0x1ffe>
     624:	0100                	addi	s0,sp,128
     626:	0e05                	addi	t3,t3,1
     628:	0306                	slli	t1,t1,0x1
     62a:	0900                	addi	s0,sp,144
     62c:	0000                	unimp
     62e:	0501                	addi	a0,a0,0
     630:	0305                	addi	t1,t1,1
     632:	0900                	addi	s0,sp,144
     634:	0004                	.2byte	0x4
     636:	0501                	addi	a0,a0,0
     638:	01030603          	lb	a2,16(t1)
     63c:	0209                	addi	tp,tp,2 # 2 <_min_stack-0x1ffe>
     63e:	0100                	addi	s0,sp,128
     640:	0505                	addi	a0,a0,1
     642:	0306                	slli	t1,t1,0x1
     644:	0900                	addi	s0,sp,144
     646:	0000                	unimp
     648:	0501                	addi	a0,a0,0
     64a:	01030603          	lb	a2,16(t1)
     64e:	0209                	addi	tp,tp,2 # 2 <_min_stack-0x1ffe>
     650:	0100                	addi	s0,sp,128
     652:	00090203          	lb	tp,0(s2)
     656:	0100                	addi	s0,sp,128
     658:	0d05                	addi	s10,s10,1
     65a:	0306                	slli	t1,t1,0x1
     65c:	097e                	slli	s2,s2,0x1f
     65e:	0000                	unimp
     660:	0501                	addi	a0,a0,0
     662:	0312                	slli	t1,t1,0x4
     664:	0902                	c.slli64	s2
     666:	0004                	.2byte	0x4
     668:	0501                	addi	a0,a0,0
     66a:	09000317          	auipc	t1,0x9000
     66e:	0006                	c.slli	zero,0x1
     670:	0501                	addi	a0,a0,0
     672:	030c                	addi	a1,sp,384
     674:	0900                	addi	s0,sp,144
     676:	0004                	.2byte	0x4
     678:	0601                	addi	a2,a2,0
     67a:	0900e103          	.4byte	0x900e103
     67e:	0002                	c.slli64	zero
     680:	0501                	addi	a0,a0,0
     682:	0610                	addi	a2,sp,768
     684:	06095f03          	lhu	t5,96(s2)
     688:	0100                	addi	s0,sp,128
     68a:	0a05                	addi	s4,s4,1
     68c:	04091903          	lh	s2,64(s2)
     690:	0100                	addi	s0,sp,128
     692:	1c05                	addi	s8,s8,-31
     694:	02090103          	lb	sp,32(s2)
     698:	0100                	addi	s0,sp,128
     69a:	0705                	addi	a4,a4,1
     69c:	0306                	slli	t1,t1,0x1
     69e:	097d                	addi	s2,s2,31
     6a0:	0004                	.2byte	0x4
     6a2:	0501                	addi	a0,a0,0
     6a4:	0003060b          	.4byte	0x3060b
     6a8:	0009                	c.nop	2
     6aa:	0100                	addi	s0,sp,128
     6ac:	0705                	addi	a4,a4,1
     6ae:	0306                	slli	t1,t1,0x1
     6b0:	0902                	c.slli64	s2
     6b2:	0004                	.2byte	0x4
     6b4:	0501                	addi	a0,a0,0
     6b6:	060a                	slli	a2,a2,0x2
     6b8:	00090003          	lb	zero,0(s2)
     6bc:	0100                	addi	s0,sp,128
     6be:	0905                	addi	s2,s2,1
     6c0:	0306                	slli	t1,t1,0x1
     6c2:	0901                	addi	s2,s2,0
     6c4:	0004                	.2byte	0x4
     6c6:	0501                	addi	a0,a0,0
     6c8:	0003060b          	.4byte	0x3060b
     6cc:	0009                	c.nop	2
     6ce:	0100                	addi	s0,sp,128
     6d0:	0705                	addi	a4,a4,1
     6d2:	0306                	slli	t1,t1,0x1
     6d4:	0902                	c.slli64	s2
     6d6:	0002                	c.slli64	zero
     6d8:	0501                	addi	a0,a0,0
     6da:	060c                	addi	a1,sp,768
     6dc:	00090003          	lb	zero,0(s2)
     6e0:	0100                	addi	s0,sp,128
     6e2:	1005                	c.nop	-31
     6e4:	02090003          	lb	zero,32(s2)
     6e8:	0100                	addi	s0,sp,128
     6ea:	0c05                	addi	s8,s8,1
     6ec:	04090003          	lb	zero,64(s2)
     6f0:	0100                	addi	s0,sp,128
     6f2:	0705                	addi	a4,a4,1
     6f4:	0306                	slli	t1,t1,0x1
     6f6:	0901                	addi	s2,s2,0
     6f8:	0004                	.2byte	0x4
     6fa:	0501                	addi	a0,a0,0
     6fc:	0609                	addi	a2,a2,2
     6fe:	00090003          	lb	zero,0(s2)
     702:	0100                	addi	s0,sp,128
     704:	0c05                	addi	s8,s8,1
     706:	0306                	slli	t1,t1,0x1
     708:	0979                	addi	s2,s2,30
     70a:	0004                	.2byte	0x4
     70c:	0501                	addi	a0,a0,0
     70e:	09110303          	lb	t1,145(sp)
     712:	0004                	.2byte	0x4
     714:	0501                	addi	a0,a0,0
     716:	0606                	slli	a2,a2,0x1
     718:	00090003          	lb	zero,0(s2)
     71c:	0100                	addi	s0,sp,128
     71e:	0505                	addi	a0,a0,1
     720:	0306                	slli	t1,t1,0x1
     722:	0901                	addi	s2,s2,0
     724:	0002                	c.slli64	zero
     726:	0501                	addi	a0,a0,0
     728:	00030607          	.4byte	0x30607
     72c:	0009                	c.nop	2
     72e:	0100                	addi	s0,sp,128
     730:	1705                	addi	a4,a4,-31
     732:	02090003          	lb	zero,32(s2)
     736:	0100                	addi	s0,sp,128
     738:	0f05                	addi	t5,t5,1
     73a:	04090003          	lb	zero,64(s2)
     73e:	0100                	addi	s0,sp,128
     740:	0305                	addi	t1,t1,1 # 900066b <tohost+0x8fe0663>
     742:	097fa703          	lw	a4,151(t6)
     746:	0002                	c.slli64	zero
     748:	0501                	addi	a0,a0,0
     74a:	db030607          	.4byte	0xdb030607
     74e:	0900                	addi	s0,sp,144
     750:	0008                	.2byte	0x8
     752:	0501                	addi	a0,a0,0
     754:	7fab0303          	lb	t1,2042(s6)
     758:	0009                	c.nop	2
     75a:	0100                	addi	s0,sp,128
     75c:	0505                	addi	a0,a0,1
     75e:	00090603          	lb	a2,0(s2)
     762:	0100                	addi	s0,sp,128
     764:	0305                	addi	t1,t1,1
     766:	00097403          	.4byte	0x97403
     76a:	0100                	addi	s0,sp,128
     76c:	02090103          	lb	sp,32(s2)
     770:	0100                	addi	s0,sp,128
     772:	0705                	addi	a4,a4,1
     774:	0900db03          	lhu	s6,144(ra)
     778:	0000                	unimp
     77a:	0301                	addi	t1,t1,0
     77c:	0901                	addi	s2,s2,0
     77e:	0000                	unimp
     780:	0501                	addi	a0,a0,0
     782:	09070303          	lb	t1,144(a4)
     786:	0006                	c.slli	zero,0x1
     788:	0501                	addi	a0,a0,0
     78a:	0003060f          	.4byte	0x3060f
     78e:	0009                	c.nop	2
     790:	0100                	addi	s0,sp,128
     792:	0d05                	addi	s10,s10,1
     794:	04090003          	lb	zero,64(s2)
     798:	0100                	addi	s0,sp,128
     79a:	0705                	addi	a4,a4,1
     79c:	0306                	slli	t1,t1,0x1
     79e:	097d                	addi	s2,s2,31
     7a0:	0004                	.2byte	0x4
     7a2:	0501                	addi	a0,a0,0
     7a4:	060c                	addi	a1,sp,768
     7a6:	00090003          	lb	zero,0(s2)
     7aa:	0100                	addi	s0,sp,128
     7ac:	1905                	addi	s2,s2,-31
     7ae:	08095003          	lhu	zero,128(s2)
     7b2:	0100                	addi	s0,sp,128
     7b4:	0c05                	addi	s8,s8,1
     7b6:	02093003          	.4byte	0x2093003
     7ba:	0100                	addi	s0,sp,128
     7bc:	1e05                	addi	t3,t3,-31
     7be:	0306                	slli	t1,t1,0x1
     7c0:	7ee8                	.2byte	0x7ee8
     7c2:	0409                	addi	s0,s0,2
     7c4:	0100                	addi	s0,sp,128
     7c6:	0305                	addi	t1,t1,1
     7c8:	00090203          	lb	tp,0(s2)
     7cc:	0100                	addi	s0,sp,128
     7ce:	0b05                	addi	s6,s6,1
     7d0:	0306                	slli	t1,t1,0x1
     7d2:	0900                	addi	s0,sp,144
     7d4:	0000                	unimp
     7d6:	0501                	addi	a0,a0,0
     7d8:	0402003b          	.4byte	0x402003b
     7dc:	0601                	addi	a2,a2,0
     7de:	04090003          	lb	zero,64(s2)
     7e2:	0100                	addi	s0,sp,128
     7e4:	0b05                	addi	s6,s6,1
     7e6:	0200                	addi	s0,sp,256
     7e8:	0104                	addi	s1,sp,128
     7ea:	0306                	slli	t1,t1,0x1
     7ec:	0900                	addi	s0,sp,144
     7ee:	0000                	unimp
     7f0:	0501                	addi	a0,a0,0
     7f2:	04020033          	.4byte	0x4020033
     7f6:	0301                	addi	t1,t1,0
     7f8:	0900                	addi	s0,sp,144
     7fa:	0002                	c.slli64	zero
     7fc:	0501                	addi	a0,a0,0
     7fe:	0402003b          	.4byte	0x402003b
     802:	0301                	addi	t1,t1,0
     804:	0900                	addi	s0,sp,144
     806:	0004                	.2byte	0x4
     808:	0501                	addi	a0,a0,0
     80a:	0301                	addi	t1,t1,0
     80c:	0901                	addi	s2,s2,0
     80e:	0002                	c.slli64	zero
     810:	0601                	addi	a2,a2,0
     812:	02093303          	.4byte	0x2093303
     816:	0100                	addi	s0,sp,128
     818:	0305                	addi	t1,t1,1
     81a:	00090103          	lb	sp,0(s2)
     81e:	0100                	addi	s0,sp,128
     820:	0105                	addi	sp,sp,1
     822:	0306                	slli	t1,t1,0x1
     824:	097f                	.2byte	0x97f
     826:	0000                	unimp
     828:	0501                	addi	a0,a0,0
     82a:	09010303          	lb	t1,144(sp)
     82e:	0006                	c.slli	zero,0x1
     830:	0501                	addi	a0,a0,0
     832:	0301                	addi	t1,t1,0
     834:	097f                	.2byte	0x97f
     836:	0004                	.2byte	0x4
     838:	0501                	addi	a0,a0,0
     83a:	09010303          	lb	t1,144(sp)
     83e:	0002                	c.slli64	zero
     840:	0601                	addi	a2,a2,0
     842:	02090103          	lb	sp,32(s2)
     846:	0100                	addi	s0,sp,128
     848:	0105                	addi	sp,sp,1
     84a:	0306                	slli	t1,t1,0x1
     84c:	0901                	addi	s2,s2,0
     84e:	0000                	unimp
     850:	0601                	addi	a2,a2,0
     852:	0901aa03          	lw	s4,144(gp)
     856:	000a                	c.slli	zero,0x2
     858:	0501                	addi	a0,a0,0
     85a:	09010303          	lb	t1,144(sp)
     85e:	0000                	unimp
     860:	0301                	addi	t1,t1,0
     862:	0901                	addi	s2,s2,0
     864:	0000                	unimp
     866:	0301                	addi	t1,t1,0
     868:	0902                	c.slli64	s2
     86a:	0000                	unimp
     86c:	0501                	addi	a0,a0,0
     86e:	0601                	addi	a2,a2,0
     870:	00097c03          	.4byte	0x97c03
     874:	0100                	addi	s0,sp,128
     876:	0305                	addi	t1,t1,1
     878:	04090403          	lb	s0,64(s2)
     87c:	0100                	addi	s0,sp,128
     87e:	0105                	addi	sp,sp,1
     880:	02097c03          	.4byte	0x2097c03
     884:	0100                	addi	s0,sp,128
     886:	12090003          	lb	zero,288(s2)
     88a:	0100                	addi	s0,sp,128
     88c:	0305                	addi	t1,t1,1
     88e:	10090403          	lb	s0,256(s2)
     892:	0100                	addi	s0,sp,128
     894:	0306                	slli	t1,t1,0x1
     896:	0902                	c.slli64	s2
     898:	0002                	c.slli64	zero
     89a:	0501                	addi	a0,a0,0
     89c:	0610                	addi	a2,sp,768
     89e:	097fb803          	.4byte	0x97fb803
     8a2:	0000                	unimp
     8a4:	0501                	addi	a0,a0,0
     8a6:	0308                	addi	a0,sp,384
     8a8:	0905                	addi	s2,s2,1
     8aa:	0002                	c.slli64	zero
     8ac:	0501                	addi	a0,a0,0
     8ae:	030a                	slli	t1,t1,0x2
     8b0:	0906                	slli	s2,s2,0x1
     8b2:	0004                	.2byte	0x4
     8b4:	0501                	addi	a0,a0,0
     8b6:	0316                	slli	t1,t1,0x5
     8b8:	0905                	addi	s2,s2,1
     8ba:	0004                	.2byte	0x4
     8bc:	0501                	addi	a0,a0,0
     8be:	0906030f          	.4byte	0x906030f
     8c2:	0004                	.2byte	0x4
     8c4:	0301                	addi	t1,t1,0
     8c6:	0905                	addi	s2,s2,1
     8c8:	0002                	c.slli64	zero
     8ca:	0501                	addi	a0,a0,0
     8cc:	0612                	slli	a2,a2,0x4
     8ce:	08096803          	.4byte	0x8096803
     8d2:	0100                	addi	s0,sp,128
     8d4:	0a05                	addi	s4,s4,1
     8d6:	0306                	slli	t1,t1,0x1
     8d8:	0900                	addi	s0,sp,144
     8da:	0000                	unimp
     8dc:	0501                	addi	a0,a0,0
     8de:	0312                	slli	t1,t1,0x4
     8e0:	0900                	addi	s0,sp,144
     8e2:	0004                	.2byte	0x4
     8e4:	0501                	addi	a0,a0,0
     8e6:	0301                	addi	t1,t1,0
     8e8:	020900cb          	.4byte	0x20900cb
     8ec:	0100                	addi	s0,sp,128
     8ee:	0505                	addi	a0,a0,1
     8f0:	0306                	slli	t1,t1,0x1
     8f2:	1a097fb7          	lui	t6,0x1a097
     8f6:	0100                	addi	s0,sp,128
     8f8:	0805                	addi	a6,a6,1
     8fa:	0306                	slli	t1,t1,0x1
     8fc:	0900                	addi	s0,sp,144
     8fe:	0000                	unimp
     900:	0501                	addi	a0,a0,0
     902:	02030607          	.4byte	0x2030607
     906:	0409                	addi	s0,s0,2
     908:	0100                	addi	s0,sp,128
     90a:	00090103          	lb	sp,0(s2)
     90e:	0100                	addi	s0,sp,128
     910:	00090103          	lb	sp,0(s2)
     914:	0100                	addi	s0,sp,128
     916:	0b05                	addi	s6,s6,1
     918:	0306                	slli	t1,t1,0x1
     91a:	0900                	addi	s0,sp,144
     91c:	0000                	unimp
     91e:	0501                	addi	a0,a0,0
     920:	030a                	slli	t1,t1,0x2
     922:	0900                	addi	s0,sp,144
     924:	0004                	.2byte	0x4
     926:	0501                	addi	a0,a0,0
     928:	097e0307          	.4byte	0x97e0307
     92c:	0002                	c.slli64	zero
     92e:	0601                	addi	a2,a2,0
     930:	04090303          	lb	t1,64(s2)
     934:	0100                	addi	s0,sp,128
     936:	0a05                	addi	s4,s4,1
     938:	0306                	slli	t1,t1,0x1
     93a:	0900                	addi	s0,sp,144
     93c:	0000                	unimp
     93e:	0501                	addi	a0,a0,0
     940:	01030607          	.4byte	0x1030607
     944:	0409                	addi	s0,s0,2
     946:	0100                	addi	s0,sp,128
     948:	1305                	addi	t1,t1,-31
     94a:	0306                	slli	t1,t1,0x1
     94c:	097d                	addi	s2,s2,31
     94e:	0000                	unimp
     950:	0501                	addi	a0,a0,0
     952:	030a                	slli	t1,t1,0x2
     954:	00020903          	lb	s2,0(tp) # 0 <_min_stack-0x2000>
     958:	0501                	addi	a0,a0,0
     95a:	0609                	addi	a2,a2,2
     95c:	04090203          	lb	tp,64(s2)
     960:	0100                	addi	s0,sp,128
     962:	04090103          	lb	sp,64(s2)
     966:	0100                	addi	s0,sp,128
     968:	0d05                	addi	s10,s10,1
     96a:	0306                	slli	t1,t1,0x1
     96c:	0900                	addi	s0,sp,144
     96e:	0000                	unimp
     970:	0501                	addi	a0,a0,0
     972:	0616                	slli	a2,a2,0x5
     974:	04090203          	lb	tp,64(s2)
     978:	0100                	addi	s0,sp,128
     97a:	0905                	addi	s2,s2,1
     97c:	0306                	slli	t1,t1,0x1
     97e:	0902                	c.slli64	s2
     980:	0004                	.2byte	0x4
     982:	0501                	addi	a0,a0,0
     984:	0316                	slli	t1,t1,0x5
     986:	097e                	slli	s2,s2,0x1f
     988:	0004                	.2byte	0x4
     98a:	0501                	addi	a0,a0,0
     98c:	030d                	addi	t1,t1,3
     98e:	0978                	addi	a4,sp,156
     990:	0004                	.2byte	0x4
     992:	0501                	addi	a0,a0,0
     994:	031e                	slli	t1,t1,0x7
     996:	090d                	addi	s2,s2,3
     998:	0002                	c.slli64	zero
     99a:	0601                	addi	a2,a2,0
     99c:	02090003          	lb	zero,32(s2)
     9a0:	0100                	addi	s0,sp,128
     9a2:	0f05                	addi	t5,t5,1
     9a4:	0306                	slli	t1,t1,0x1
     9a6:	0900                	addi	s0,sp,144
     9a8:	0000                	unimp
     9aa:	0501                	addi	a0,a0,0
     9ac:	0331                	addi	t1,t1,12
     9ae:	0900                	addi	s0,sp,144
     9b0:	0004                	.2byte	0x4
     9b2:	0501                	addi	a0,a0,0
     9b4:	031e                	slli	t1,t1,0x7
     9b6:	0900                	addi	s0,sp,144
     9b8:	0004                	.2byte	0x4
     9ba:	0501                	addi	a0,a0,0
     9bc:	04030607          	.4byte	0x4030607
     9c0:	0c09                	addi	s8,s8,2
     9c2:	0100                	addi	s0,sp,128
     9c4:	0905                	addi	s2,s2,1
     9c6:	0306                	slli	t1,t1,0x1
     9c8:	0900                	addi	s0,sp,144
     9ca:	0000                	unimp
     9cc:	0601                	addi	a2,a2,0
     9ce:	08090103          	lb	sp,128(s2)
     9d2:	0100                	addi	s0,sp,128
     9d4:	1805                	addi	a6,a6,-31
     9d6:	0306                	slli	t1,t1,0x1
     9d8:	0900                	addi	s0,sp,144
     9da:	0000                	unimp
     9dc:	0501                	addi	a0,a0,0
     9de:	0609                	addi	a2,a2,2
     9e0:	06090103          	lb	sp,96(s2)
     9e4:	0100                	addi	s0,sp,128
     9e6:	0f05                	addi	t5,t5,1
     9e8:	0306                	slli	t1,t1,0x1
     9ea:	0900                	addi	s0,sp,144
     9ec:	0000                	unimp
     9ee:	0301                	addi	t1,t1,0
     9f0:	0916                	slli	s2,s2,0x5
     9f2:	0008                	.2byte	0x8
     9f4:	0501                	addi	a0,a0,0
     9f6:	0609                	addi	a2,a2,2
     9f8:	04096103          	.4byte	0x4096103
     9fc:	0100                	addi	s0,sp,128
     9fe:	00090103          	lb	sp,0(s2)
     a02:	0100                	addi	s0,sp,128
     a04:	0d05                	addi	s10,s10,1
     a06:	0306                	slli	t1,t1,0x1
     a08:	0900                	addi	s0,sp,144
     a0a:	0000                	unimp
     a0c:	0501                	addi	a0,a0,0
     a0e:	0309                	addi	t1,t1,2
     a10:	097f                	.2byte	0x97f
     a12:	0004                	.2byte	0x4
     a14:	0601                	addi	a2,a2,0
     a16:	04090403          	lb	s0,64(s2)
     a1a:	0100                	addi	s0,sp,128
     a1c:	0f05                	addi	t5,t5,1
     a1e:	0306                	slli	t1,t1,0x1
     a20:	0900                	addi	s0,sp,144
     a22:	0000                	unimp
     a24:	0501                	addi	a0,a0,0
     a26:	0609                	addi	a2,a2,2
     a28:	04090103          	lb	sp,64(s2)
     a2c:	0100                	addi	s0,sp,128
     a2e:	3105                	jal	64e <_min_stack-0x19b2>
     a30:	0306                	slli	t1,t1,0x1
     a32:	097e                	slli	s2,s2,0x1f
     a34:	0000                	unimp
     a36:	0501                	addi	a0,a0,0
     a38:	0902030f          	.4byte	0x902030f
     a3c:	0002                	c.slli64	zero
     a3e:	0501                	addi	a0,a0,0
     a40:	0631                	addi	a2,a2,12
     a42:	02097e03          	.4byte	0x2097e03
     a46:	0100                	addi	s0,sp,128
     a48:	0705                	addi	a4,a4,1
     a4a:	02090903          	lb	s2,32(s2)
     a4e:	0100                	addi	s0,sp,128
     a50:	0905                	addi	s2,s2,1
     a52:	0306                	slli	t1,t1,0x1
     a54:	0900                	addi	s0,sp,144
     a56:	0000                	unimp
     a58:	0601                	addi	a2,a2,0
     a5a:	08090103          	lb	sp,128(s2)
     a5e:	0100                	addi	s0,sp,128
     a60:	0f05                	addi	t5,t5,1
     a62:	0306                	slli	t1,t1,0x1
     a64:	0900                	addi	s0,sp,144
     a66:	0000                	unimp
     a68:	0501                	addi	a0,a0,0
     a6a:	030c                	addi	a1,sp,384
     a6c:	0900                	addi	s0,sp,144
     a6e:	0010                	.2byte	0x10
     a70:	0501                	addi	a0,a0,0
     a72:	0609                	addi	a2,a2,2
     a74:	02090103          	lb	sp,32(s2)
     a78:	0100                	addi	s0,sp,128
     a7a:	0f05                	addi	t5,t5,1
     a7c:	0306                	slli	t1,t1,0x1
     a7e:	097f                	.2byte	0x97f
     a80:	0000                	unimp
     a82:	0501                	addi	a0,a0,0
     a84:	0618                	addi	a4,sp,768
     a86:	02096403          	.4byte	0x2096403
     a8a:	0100                	addi	s0,sp,128
     a8c:	0705                	addi	a4,a4,1
     a8e:	04091f03          	lh	t5,64(s2)
     a92:	0100                	addi	s0,sp,128
     a94:	0905                	addi	s2,s2,1
     a96:	0306                	slli	t1,t1,0x1
     a98:	0900                	addi	s0,sp,144
     a9a:	0000                	unimp
     a9c:	0601                	addi	a2,a2,0
     a9e:	08090103          	lb	sp,128(s2)
     aa2:	0100                	addi	s0,sp,128
     aa4:	1d05                	addi	s10,s10,-31
     aa6:	0306                	slli	t1,t1,0x1
     aa8:	0900                	addi	s0,sp,144
     aaa:	0000                	unimp
     aac:	0501                	addi	a0,a0,0
     aae:	0900030f          	.4byte	0x900030f
     ab2:	0004                	.2byte	0x4
     ab4:	0501                	addi	a0,a0,0
     ab6:	03030607          	.4byte	0x3030607
     aba:	0809                	addi	a6,a6,2
     abc:	0100                	addi	s0,sp,128
     abe:	0905                	addi	s2,s2,1
     ac0:	0306                	slli	t1,t1,0x1
     ac2:	0900                	addi	s0,sp,144
     ac4:	0000                	unimp
     ac6:	0601                	addi	a2,a2,0
     ac8:	08090103          	lb	sp,128(s2)
     acc:	0100                	addi	s0,sp,128
     ace:	1d05                	addi	s10,s10,-31
     ad0:	0306                	slli	t1,t1,0x1
     ad2:	0900                	addi	s0,sp,144
     ad4:	0000                	unimp
     ad6:	0501                	addi	a0,a0,0
     ad8:	0900030f          	.4byte	0x900030f
     adc:	0004                	.2byte	0x4
     ade:	0301                	addi	t1,t1,0
     ae0:	0904                	addi	s1,sp,144
     ae2:	0004                	.2byte	0x4
     ae4:	0501                	addi	a0,a0,0
     ae6:	7f030607          	.4byte	0x7f030607
     aea:	0609                	addi	a2,a2,2
     aec:	0100                	addi	s0,sp,128
     aee:	0905                	addi	s2,s2,1
     af0:	0306                	slli	t1,t1,0x1
     af2:	0900                	addi	s0,sp,144
     af4:	0000                	unimp
     af6:	0601                	addi	a2,a2,0
     af8:	08090103          	lb	sp,128(s2)
     afc:	0100                	addi	s0,sp,128
     afe:	1d05                	addi	s10,s10,-31
     b00:	0306                	slli	t1,t1,0x1
     b02:	0900                	addi	s0,sp,144
     b04:	0000                	unimp
     b06:	0501                	addi	a0,a0,0
     b08:	0900030f          	.4byte	0x900030f
     b0c:	0004                	.2byte	0x4
     b0e:	0501                	addi	a0,a0,0
     b10:	03030607          	.4byte	0x3030607
     b14:	0609                	addi	a2,a2,2
     b16:	0100                	addi	s0,sp,128
     b18:	0905                	addi	s2,s2,1
     b1a:	0306                	slli	t1,t1,0x1
     b1c:	0900                	addi	s0,sp,144
     b1e:	0000                	unimp
     b20:	0601                	addi	a2,a2,0
     b22:	08090103          	lb	sp,128(s2)
     b26:	0100                	addi	s0,sp,128
     b28:	1005                	c.nop	-31
     b2a:	0306                	slli	t1,t1,0x1
     b2c:	0900                	addi	s0,sp,144
     b2e:	0000                	unimp
     b30:	0501                	addi	a0,a0,0
     b32:	0312                	slli	t1,t1,0x4
     b34:	0900                	addi	s0,sp,144
     b36:	0002                	c.slli64	zero
     b38:	0501                	addi	a0,a0,0
     b3a:	0310                	addi	a2,sp,384
     b3c:	0901                	addi	s2,s2,0
     b3e:	0004                	.2byte	0x4
     b40:	0301                	addi	t1,t1,0
     b42:	097f                	.2byte	0x97f
     b44:	0004                	.2byte	0x4
     b46:	0501                	addi	a0,a0,0
     b48:	0609                	addi	a2,a2,2
     b4a:	04090103          	lb	sp,64(s2)
     b4e:	0100                	addi	s0,sp,128
     b50:	00090103          	lb	sp,0(s2)
     b54:	0100                	addi	s0,sp,128
     b56:	0f05                	addi	t5,t5,1
     b58:	0306                	slli	t1,t1,0x1
     b5a:	0900                	addi	s0,sp,144
     b5c:	0000                	unimp
     b5e:	0501                	addi	a0,a0,0
     b60:	09560307          	.4byte	0x9560307
     b64:	0008                	.2byte	0x8
     b66:	0601                	addi	a2,a2,0
     b68:	02093103          	.4byte	0x2093103
     b6c:	0100                	addi	s0,sp,128
     b6e:	0305                	addi	t1,t1,1
     b70:	097ee403          	.4byte	0x97ee403
     b74:	0000                	unimp
     b76:	0501                	addi	a0,a0,0
     b78:	0305                	addi	t1,t1,1
     b7a:	0906                	slli	s2,s2,0x1
     b7c:	0000                	unimp
     b7e:	0501                	addi	a0,a0,0
     b80:	09740303          	lb	t1,151(s0)
     b84:	0000                	unimp
     b86:	0501                	addi	a0,a0,0
     b88:	a3030607          	.4byte	0xa3030607
     b8c:	0901                	addi	s2,s2,0
     b8e:	0004                	.2byte	0x4
     b90:	0501                	addi	a0,a0,0
     b92:	7edd0303          	lb	t1,2029(s10)
     b96:	0209                	addi	tp,tp,2 # 2 <_min_stack-0x1ffe>
     b98:	0100                	addi	s0,sp,128
     b9a:	0306                	slli	t1,t1,0x1
     b9c:	0901                	addi	s2,s2,0
     b9e:	0002                	c.slli64	zero
     ba0:	0501                	addi	a0,a0,0
     ba2:	01a20307          	.4byte	0x1a20307
     ba6:	0009                	c.nop	2
     ba8:	0100                	addi	s0,sp,128
     baa:	1f05                	addi	t5,t5,-31
     bac:	097dec03          	.4byte	0x97dec03
     bb0:	0002                	c.slli64	zero
     bb2:	0501                	addi	a0,a0,0
     bb4:	09010303          	lb	t1,144(sp)
     bb8:	0000                	unimp
     bba:	0501                	addi	a0,a0,0
     bbc:	0301                	addi	t1,t1,0
     bbe:	0a0902ab          	.4byte	0xa0902ab
     bc2:	0100                	addi	s0,sp,128
     bc4:	0305                	addi	t1,t1,1
     bc6:	00090103          	lb	sp,0(s2)
     bca:	0100                	addi	s0,sp,128
     bcc:	00090203          	lb	tp,0(s2)
     bd0:	0100                	addi	s0,sp,128
     bd2:	0105                	addi	sp,sp,1
     bd4:	0306                	slli	t1,t1,0x1
     bd6:	097d                	addi	s2,s2,31
     bd8:	0000                	unimp
     bda:	0301                	addi	t1,t1,0
     bdc:	0900                	addi	s0,sp,144
     bde:	0008                	.2byte	0x8
     be0:	0501                	addi	a0,a0,0
     be2:	09010307          	.4byte	0x9010307
     be6:	0002                	c.slli64	zero
     be8:	0501                	addi	a0,a0,0
     bea:	060e                	slli	a2,a2,0x3
     bec:	02090203          	lb	tp,32(s2)
     bf0:	0100                	addi	s0,sp,128
     bf2:	0a05                	addi	s4,s4,1
     bf4:	0306                	slli	t1,t1,0x1
     bf6:	0900                	addi	s0,sp,144
     bf8:	0000                	unimp
     bfa:	0501                	addi	a0,a0,0
     bfc:	030e                	slli	t1,t1,0x3
     bfe:	0900                	addi	s0,sp,144
     c00:	0008                	.2byte	0x8
     c02:	0501                	addi	a0,a0,0
     c04:	03030603          	lb	a2,48(t1)
     c08:	0209                	addi	tp,tp,2 # 2 <_min_stack-0x1ffe>
     c0a:	0100                	addi	s0,sp,128
     c0c:	097ebf03          	.4byte	0x97ebf03
     c10:	0000                	unimp
     c12:	0301                	addi	t1,t1,0
     c14:	0901                	addi	s2,s2,0
     c16:	0004                	.2byte	0x4
     c18:	0301                	addi	t1,t1,0
     c1a:	01c2                	slli	gp,gp,0x10
     c1c:	0009                	c.nop	2
     c1e:	0100                	addi	s0,sp,128
     c20:	0105                	addi	sp,sp,1
     c22:	0306                	slli	t1,t1,0x1
     c24:	0901                	addi	s2,s2,0
     c26:	0000                	unimp
     c28:	0501                	addi	a0,a0,0
     c2a:	0605                	addi	a2,a2,1
     c2c:	0c097b03          	.4byte	0xc097b03
     c30:	0100                	addi	s0,sp,128
     c32:	1005                	c.nop	-31
     c34:	0306                	slli	t1,t1,0x1
     c36:	0900                	addi	s0,sp,144
     c38:	0000                	unimp
     c3a:	0501                	addi	a0,a0,0
     c3c:	c1030603          	lb	a2,-1008(t1)
     c40:	097e                	slli	s2,s2,0x1f
     c42:	0002                	c.slli64	zero
     c44:	0301                	addi	t1,t1,0
     c46:	0901                	addi	s2,s2,0
     c48:	0002                	c.slli64	zero
     c4a:	0501                	addi	a0,a0,0
     c4c:	060a                	slli	a2,a2,0x2
     c4e:	00090003          	lb	zero,0(s2)
     c52:	0100                	addi	s0,sp,128
     c54:	3805                	jal	484 <_min_stack-0x1b7c>
     c56:	0306                	slli	t1,t1,0x1
     c58:	01c5                	addi	gp,gp,17
     c5a:	0209                	addi	tp,tp,2 # 2 <_min_stack-0x1ffe>
     c5c:	0100                	addi	s0,sp,128
     c5e:	0405                	addi	s0,s0,1
     c60:	00090103          	lb	sp,0(s2)
     c64:	0100                	addi	s0,sp,128
     c66:	0105                	addi	sp,sp,1
     c68:	0306                	slli	t1,t1,0x1
     c6a:	0901                	addi	s2,s2,0
     c6c:	0000                	unimp
     c6e:	0901                	addi	s2,s2,0
     c70:	0004                	.2byte	0x4
     c72:	0100                	addi	s0,sp,128
     c74:	ec01                	bnez	s0,c8c <_min_stack-0x1374>
     c76:	0500003f 53000400 	.8byte	0x530004000500003f
     c7e:	0000                	unimp
     c80:	0100                	addi	s0,sp,128
     c82:	0101                	addi	sp,sp,0
     c84:	000d0efb          	.4byte	0xd0efb
     c88:	0101                	addi	sp,sp,0
     c8a:	0101                	addi	sp,sp,0
     c8c:	0000                	unimp
     c8e:	0100                	addi	s0,sp,128
     c90:	0000                	unimp
     c92:	0101                	addi	sp,sp,0
     c94:	1f01                	addi	t5,t5,-32
     c96:	0005                	c.nop	1
     c98:	0000                	unimp
     c9a:	4f00                	lw	s0,24(a4)
     c9c:	0001                	nop
     c9e:	a200                	.2byte	0xa200
     ca0:	0001                	nop
     ca2:	f100                	.2byte	0xf100
     ca4:	0001                	nop
     ca6:	9300                	.2byte	0x9300
     ca8:	0000                	unimp
     caa:	0200                	addi	s0,sp,256
     cac:	1f01                	addi	t5,t5,-32
     cae:	0f02                	c.slli64	t5
     cb0:	00014307          	.4byte	0x14307
     cb4:	0000                	unimp
     cb6:	023c                	addi	a5,sp,264
     cb8:	0000                	unimp
     cba:	4300                	lw	s0,0(a4)
     cbc:	0001                	nop
     cbe:	0000                	unimp
     cc0:	0000024b          	.4byte	0x24b
     cc4:	5c01                	li	s8,-32
     cc6:	0002                	c.slli64	zero
     cc8:	0200                	addi	s0,sp,256
     cca:	0266                	slli	tp,tp,0x19
     ccc:	0000                	unimp
     cce:	00026e03          	.4byte	0x26e03
     cd2:	0400                	addi	s0,sp,512
     cd4:	1905                	addi	s2,s2,-31
     cd6:	0500                	addi	s0,sp,640
     cd8:	5a02                	lw	s4,32(sp)
     cda:	0004                	.2byte	0x4
     cdc:	1ae0                	addi	s0,sp,380
     cde:	0305                	addi	t1,t1,1
     ce0:	00091a03          	lh	s4,0(s2)
     ce4:	0100                	addi	s0,sp,128
     ce6:	3205                	jal	606 <_min_stack-0x19fa>
     ce8:	0306                	slli	t1,t1,0x1
     cea:	0900                	addi	s0,sp,144
     cec:	0000                	unimp
     cee:	0501                	addi	a0,a0,0
     cf0:	01030603          	lb	a2,16(t1)
     cf4:	0c09                	addi	s8,s8,2
     cf6:	0100                	addi	s0,sp,128
     cf8:	3205                	jal	618 <_min_stack-0x19e8>
     cfa:	0306                	slli	t1,t1,0x1
     cfc:	0900                	addi	s0,sp,144
     cfe:	0000                	unimp
     d00:	0501                	addi	a0,a0,0
     d02:	01030603          	lb	a2,16(t1)
     d06:	0809                	addi	a6,a6,2
     d08:	0100                	addi	s0,sp,128
     d0a:	3205                	jal	62a <_min_stack-0x19d6>
     d0c:	0306                	slli	t1,t1,0x1
     d0e:	0900                	addi	s0,sp,144
     d10:	0000                	unimp
     d12:	0501                	addi	a0,a0,0
     d14:	01030603          	lb	a2,16(t1)
     d18:	0809                	addi	a6,a6,2
     d1a:	0100                	addi	s0,sp,128
     d1c:	3205                	jal	63c <_min_stack-0x19c4>
     d1e:	0306                	slli	t1,t1,0x1
     d20:	0900                	addi	s0,sp,144
     d22:	0000                	unimp
     d24:	0501                	addi	a0,a0,0
     d26:	01030603          	lb	a2,16(t1)
     d2a:	0609                	addi	a2,a2,2
     d2c:	0100                	addi	s0,sp,128
     d2e:	3205                	jal	64e <_min_stack-0x19b2>
     d30:	0306                	slli	t1,t1,0x1
     d32:	0900                	addi	s0,sp,144
     d34:	0000                	unimp
     d36:	0501                	addi	a0,a0,0
     d38:	01030603          	lb	a2,16(t1)
     d3c:	0609                	addi	a2,a2,2
     d3e:	0100                	addi	s0,sp,128
     d40:	3205                	jal	660 <_min_stack-0x19a0>
     d42:	0306                	slli	t1,t1,0x1
     d44:	0900                	addi	s0,sp,144
     d46:	0000                	unimp
     d48:	0501                	addi	a0,a0,0
     d4a:	01030603          	lb	a2,16(t1)
     d4e:	0809                	addi	a6,a6,2
     d50:	0100                	addi	s0,sp,128
     d52:	3205                	jal	672 <_min_stack-0x198e>
     d54:	0306                	slli	t1,t1,0x1
     d56:	0900                	addi	s0,sp,144
     d58:	0000                	unimp
     d5a:	0501                	addi	a0,a0,0
     d5c:	01030603          	lb	a2,16(t1)
     d60:	0809                	addi	a6,a6,2
     d62:	0100                	addi	s0,sp,128
     d64:	3205                	jal	684 <_min_stack-0x197c>
     d66:	0306                	slli	t1,t1,0x1
     d68:	0900                	addi	s0,sp,144
     d6a:	0000                	unimp
     d6c:	0501                	addi	a0,a0,0
     d6e:	01030603          	lb	a2,16(t1)
     d72:	0809                	addi	a6,a6,2
     d74:	0100                	addi	s0,sp,128
     d76:	3205                	jal	696 <_min_stack-0x196a>
     d78:	0306                	slli	t1,t1,0x1
     d7a:	0900                	addi	s0,sp,144
     d7c:	0000                	unimp
     d7e:	0501                	addi	a0,a0,0
     d80:	01030603          	lb	a2,16(t1)
     d84:	0809                	addi	a6,a6,2
     d86:	0100                	addi	s0,sp,128
     d88:	3205                	jal	6a8 <_min_stack-0x1958>
     d8a:	0306                	slli	t1,t1,0x1
     d8c:	0900                	addi	s0,sp,144
     d8e:	0000                	unimp
     d90:	0501                	addi	a0,a0,0
     d92:	01030603          	lb	a2,16(t1)
     d96:	0809                	addi	a6,a6,2
     d98:	0100                	addi	s0,sp,128
     d9a:	3205                	jal	6ba <_min_stack-0x1946>
     d9c:	0306                	slli	t1,t1,0x1
     d9e:	0900                	addi	s0,sp,144
     da0:	0000                	unimp
     da2:	0501                	addi	a0,a0,0
     da4:	01030603          	lb	a2,16(t1)
     da8:	0809                	addi	a6,a6,2
     daa:	0100                	addi	s0,sp,128
     dac:	3205                	jal	6cc <_min_stack-0x1934>
     dae:	0306                	slli	t1,t1,0x1
     db0:	0900                	addi	s0,sp,144
     db2:	0000                	unimp
     db4:	0501                	addi	a0,a0,0
     db6:	01030603          	lb	a2,16(t1)
     dba:	0809                	addi	a6,a6,2
     dbc:	0100                	addi	s0,sp,128
     dbe:	3205                	jal	6de <_min_stack-0x1922>
     dc0:	0306                	slli	t1,t1,0x1
     dc2:	0900                	addi	s0,sp,144
     dc4:	0000                	unimp
     dc6:	0501                	addi	a0,a0,0
     dc8:	01030603          	lb	a2,16(t1)
     dcc:	0809                	addi	a6,a6,2
     dce:	0100                	addi	s0,sp,128
     dd0:	3205                	jal	6f0 <_min_stack-0x1910>
     dd2:	0306                	slli	t1,t1,0x1
     dd4:	0900                	addi	s0,sp,144
     dd6:	0000                	unimp
     dd8:	0501                	addi	a0,a0,0
     dda:	01030603          	lb	a2,16(t1)
     dde:	0809                	addi	a6,a6,2
     de0:	0100                	addi	s0,sp,128
     de2:	3205                	jal	702 <_min_stack-0x18fe>
     de4:	0306                	slli	t1,t1,0x1
     de6:	0900                	addi	s0,sp,144
     de8:	0000                	unimp
     dea:	0501                	addi	a0,a0,0
     dec:	01030603          	lb	a2,16(t1)
     df0:	0809                	addi	a6,a6,2
     df2:	0100                	addi	s0,sp,128
     df4:	3205                	jal	714 <_min_stack-0x18ec>
     df6:	0306                	slli	t1,t1,0x1
     df8:	0900                	addi	s0,sp,144
     dfa:	0000                	unimp
     dfc:	0501                	addi	a0,a0,0
     dfe:	01030603          	lb	a2,16(t1)
     e02:	0809                	addi	a6,a6,2
     e04:	0100                	addi	s0,sp,128
     e06:	3205                	jal	726 <_min_stack-0x18da>
     e08:	0306                	slli	t1,t1,0x1
     e0a:	0900                	addi	s0,sp,144
     e0c:	0000                	unimp
     e0e:	0501                	addi	a0,a0,0
     e10:	01030603          	lb	a2,16(t1)
     e14:	0809                	addi	a6,a6,2
     e16:	0100                	addi	s0,sp,128
     e18:	3205                	jal	738 <_min_stack-0x18c8>
     e1a:	0306                	slli	t1,t1,0x1
     e1c:	0900                	addi	s0,sp,144
     e1e:	0000                	unimp
     e20:	0501                	addi	a0,a0,0
     e22:	01030603          	lb	a2,16(t1)
     e26:	0809                	addi	a6,a6,2
     e28:	0100                	addi	s0,sp,128
     e2a:	3205                	jal	74a <_min_stack-0x18b6>
     e2c:	0306                	slli	t1,t1,0x1
     e2e:	0900                	addi	s0,sp,144
     e30:	0000                	unimp
     e32:	0501                	addi	a0,a0,0
     e34:	01030603          	lb	a2,16(t1)
     e38:	0809                	addi	a6,a6,2
     e3a:	0100                	addi	s0,sp,128
     e3c:	3205                	jal	75c <_min_stack-0x18a4>
     e3e:	0306                	slli	t1,t1,0x1
     e40:	0900                	addi	s0,sp,144
     e42:	0000                	unimp
     e44:	0501                	addi	a0,a0,0
     e46:	01030603          	lb	a2,16(t1)
     e4a:	0809                	addi	a6,a6,2
     e4c:	0100                	addi	s0,sp,128
     e4e:	3205                	jal	76e <_min_stack-0x1892>
     e50:	0306                	slli	t1,t1,0x1
     e52:	0900                	addi	s0,sp,144
     e54:	0000                	unimp
     e56:	0501                	addi	a0,a0,0
     e58:	01030603          	lb	a2,16(t1)
     e5c:	0809                	addi	a6,a6,2
     e5e:	0100                	addi	s0,sp,128
     e60:	3205                	jal	780 <_min_stack-0x1880>
     e62:	0306                	slli	t1,t1,0x1
     e64:	0900                	addi	s0,sp,144
     e66:	0000                	unimp
     e68:	0501                	addi	a0,a0,0
     e6a:	01030603          	lb	a2,16(t1)
     e6e:	0809                	addi	a6,a6,2
     e70:	0100                	addi	s0,sp,128
     e72:	3205                	jal	792 <_min_stack-0x186e>
     e74:	0306                	slli	t1,t1,0x1
     e76:	0900                	addi	s0,sp,144
     e78:	0000                	unimp
     e7a:	0501                	addi	a0,a0,0
     e7c:	01030603          	lb	a2,16(t1)
     e80:	0809                	addi	a6,a6,2
     e82:	0100                	addi	s0,sp,128
     e84:	3205                	jal	7a4 <_min_stack-0x185c>
     e86:	0306                	slli	t1,t1,0x1
     e88:	0900                	addi	s0,sp,144
     e8a:	0000                	unimp
     e8c:	0501                	addi	a0,a0,0
     e8e:	01030603          	lb	a2,16(t1)
     e92:	0809                	addi	a6,a6,2
     e94:	0100                	addi	s0,sp,128
     e96:	3205                	jal	7b6 <_min_stack-0x184a>
     e98:	0306                	slli	t1,t1,0x1
     e9a:	0900                	addi	s0,sp,144
     e9c:	0000                	unimp
     e9e:	0501                	addi	a0,a0,0
     ea0:	01030603          	lb	a2,16(t1)
     ea4:	0809                	addi	a6,a6,2
     ea6:	0100                	addi	s0,sp,128
     ea8:	3205                	jal	7c8 <_min_stack-0x1838>
     eaa:	0306                	slli	t1,t1,0x1
     eac:	0900                	addi	s0,sp,144
     eae:	0000                	unimp
     eb0:	0501                	addi	a0,a0,0
     eb2:	01030603          	lb	a2,16(t1)
     eb6:	0809                	addi	a6,a6,2
     eb8:	0100                	addi	s0,sp,128
     eba:	3205                	jal	7da <_min_stack-0x1826>
     ebc:	0306                	slli	t1,t1,0x1
     ebe:	0900                	addi	s0,sp,144
     ec0:	0000                	unimp
     ec2:	0501                	addi	a0,a0,0
     ec4:	01030603          	lb	a2,16(t1)
     ec8:	0809                	addi	a6,a6,2
     eca:	0100                	addi	s0,sp,128
     ecc:	3205                	jal	7ec <_min_stack-0x1814>
     ece:	0306                	slli	t1,t1,0x1
     ed0:	0900                	addi	s0,sp,144
     ed2:	0000                	unimp
     ed4:	0501                	addi	a0,a0,0
     ed6:	01030603          	lb	a2,16(t1)
     eda:	0809                	addi	a6,a6,2
     edc:	0100                	addi	s0,sp,128
     ede:	3205                	jal	7fe <_min_stack-0x1802>
     ee0:	0306                	slli	t1,t1,0x1
     ee2:	0900                	addi	s0,sp,144
     ee4:	0000                	unimp
     ee6:	0501                	addi	a0,a0,0
     ee8:	01030603          	lb	a2,16(t1)
     eec:	0809                	addi	a6,a6,2
     eee:	0100                	addi	s0,sp,128
     ef0:	3205                	jal	810 <_min_stack-0x17f0>
     ef2:	0306                	slli	t1,t1,0x1
     ef4:	0900                	addi	s0,sp,144
     ef6:	0000                	unimp
     ef8:	0501                	addi	a0,a0,0
     efa:	01030603          	lb	a2,16(t1)
     efe:	0809                	addi	a6,a6,2
     f00:	0100                	addi	s0,sp,128
     f02:	3205                	jal	822 <_min_stack-0x17de>
     f04:	0306                	slli	t1,t1,0x1
     f06:	0900                	addi	s0,sp,144
     f08:	0000                	unimp
     f0a:	0501                	addi	a0,a0,0
     f0c:	01030603          	lb	a2,16(t1)
     f10:	0809                	addi	a6,a6,2
     f12:	0100                	addi	s0,sp,128
     f14:	3205                	jal	834 <_min_stack-0x17cc>
     f16:	0306                	slli	t1,t1,0x1
     f18:	0900                	addi	s0,sp,144
     f1a:	0000                	unimp
     f1c:	0501                	addi	a0,a0,0
     f1e:	01030603          	lb	a2,16(t1)
     f22:	0809                	addi	a6,a6,2
     f24:	0100                	addi	s0,sp,128
     f26:	3205                	jal	846 <_min_stack-0x17ba>
     f28:	0306                	slli	t1,t1,0x1
     f2a:	0900                	addi	s0,sp,144
     f2c:	0000                	unimp
     f2e:	0501                	addi	a0,a0,0
     f30:	01030603          	lb	a2,16(t1)
     f34:	0809                	addi	a6,a6,2
     f36:	0100                	addi	s0,sp,128
     f38:	3205                	jal	858 <_min_stack-0x17a8>
     f3a:	0306                	slli	t1,t1,0x1
     f3c:	0900                	addi	s0,sp,144
     f3e:	0000                	unimp
     f40:	0501                	addi	a0,a0,0
     f42:	01030603          	lb	a2,16(t1)
     f46:	0809                	addi	a6,a6,2
     f48:	0100                	addi	s0,sp,128
     f4a:	3205                	jal	86a <_min_stack-0x1796>
     f4c:	0306                	slli	t1,t1,0x1
     f4e:	0900                	addi	s0,sp,144
     f50:	0000                	unimp
     f52:	0501                	addi	a0,a0,0
     f54:	01030603          	lb	a2,16(t1)
     f58:	0809                	addi	a6,a6,2
     f5a:	0100                	addi	s0,sp,128
     f5c:	3205                	jal	87c <_min_stack-0x1784>
     f5e:	0306                	slli	t1,t1,0x1
     f60:	0900                	addi	s0,sp,144
     f62:	0000                	unimp
     f64:	0501                	addi	a0,a0,0
     f66:	01030603          	lb	a2,16(t1)
     f6a:	0809                	addi	a6,a6,2
     f6c:	0100                	addi	s0,sp,128
     f6e:	3205                	jal	88e <_min_stack-0x1772>
     f70:	0306                	slli	t1,t1,0x1
     f72:	0900                	addi	s0,sp,144
     f74:	0000                	unimp
     f76:	0501                	addi	a0,a0,0
     f78:	01030603          	lb	a2,16(t1)
     f7c:	0809                	addi	a6,a6,2
     f7e:	0100                	addi	s0,sp,128
     f80:	3205                	jal	8a0 <_min_stack-0x1760>
     f82:	0306                	slli	t1,t1,0x1
     f84:	0900                	addi	s0,sp,144
     f86:	0000                	unimp
     f88:	0501                	addi	a0,a0,0
     f8a:	01030603          	lb	a2,16(t1)
     f8e:	0809                	addi	a6,a6,2
     f90:	0100                	addi	s0,sp,128
     f92:	3205                	jal	8b2 <_min_stack-0x174e>
     f94:	0306                	slli	t1,t1,0x1
     f96:	0900                	addi	s0,sp,144
     f98:	0000                	unimp
     f9a:	0501                	addi	a0,a0,0
     f9c:	01030603          	lb	a2,16(t1)
     fa0:	0809                	addi	a6,a6,2
     fa2:	0100                	addi	s0,sp,128
     fa4:	3205                	jal	8c4 <_min_stack-0x173c>
     fa6:	0306                	slli	t1,t1,0x1
     fa8:	0900                	addi	s0,sp,144
     faa:	0000                	unimp
     fac:	0501                	addi	a0,a0,0
     fae:	01030603          	lb	a2,16(t1)
     fb2:	0809                	addi	a6,a6,2
     fb4:	0100                	addi	s0,sp,128
     fb6:	3205                	jal	8d6 <_min_stack-0x172a>
     fb8:	0306                	slli	t1,t1,0x1
     fba:	0900                	addi	s0,sp,144
     fbc:	0000                	unimp
     fbe:	0501                	addi	a0,a0,0
     fc0:	01030603          	lb	a2,16(t1)
     fc4:	0809                	addi	a6,a6,2
     fc6:	0100                	addi	s0,sp,128
     fc8:	3205                	jal	8e8 <_min_stack-0x1718>
     fca:	0306                	slli	t1,t1,0x1
     fcc:	0900                	addi	s0,sp,144
     fce:	0000                	unimp
     fd0:	0501                	addi	a0,a0,0
     fd2:	01030603          	lb	a2,16(t1)
     fd6:	0809                	addi	a6,a6,2
     fd8:	0100                	addi	s0,sp,128
     fda:	3205                	jal	8fa <_min_stack-0x1706>
     fdc:	0306                	slli	t1,t1,0x1
     fde:	0900                	addi	s0,sp,144
     fe0:	0000                	unimp
     fe2:	0501                	addi	a0,a0,0
     fe4:	01030603          	lb	a2,16(t1)
     fe8:	0809                	addi	a6,a6,2
     fea:	0100                	addi	s0,sp,128
     fec:	3205                	jal	90c <_min_stack-0x16f4>
     fee:	0306                	slli	t1,t1,0x1
     ff0:	0900                	addi	s0,sp,144
     ff2:	0000                	unimp
     ff4:	0501                	addi	a0,a0,0
     ff6:	01030603          	lb	a2,16(t1)
     ffa:	0809                	addi	a6,a6,2
     ffc:	0100                	addi	s0,sp,128
     ffe:	3205                	jal	91e <_min_stack-0x16e2>
    1000:	0306                	slli	t1,t1,0x1
    1002:	0900                	addi	s0,sp,144
    1004:	0000                	unimp
    1006:	0501                	addi	a0,a0,0
    1008:	01030603          	lb	a2,16(t1)
    100c:	0809                	addi	a6,a6,2
    100e:	0100                	addi	s0,sp,128
    1010:	3205                	jal	930 <_min_stack-0x16d0>
    1012:	0306                	slli	t1,t1,0x1
    1014:	0900                	addi	s0,sp,144
    1016:	0000                	unimp
    1018:	0501                	addi	a0,a0,0
    101a:	01030603          	lb	a2,16(t1)
    101e:	0809                	addi	a6,a6,2
    1020:	0100                	addi	s0,sp,128
    1022:	3205                	jal	942 <_min_stack-0x16be>
    1024:	0306                	slli	t1,t1,0x1
    1026:	0900                	addi	s0,sp,144
    1028:	0000                	unimp
    102a:	0501                	addi	a0,a0,0
    102c:	01030603          	lb	a2,16(t1)
    1030:	0809                	addi	a6,a6,2
    1032:	0100                	addi	s0,sp,128
    1034:	3205                	jal	954 <_min_stack-0x16ac>
    1036:	0306                	slli	t1,t1,0x1
    1038:	0900                	addi	s0,sp,144
    103a:	0000                	unimp
    103c:	0501                	addi	a0,a0,0
    103e:	01030603          	lb	a2,16(t1)
    1042:	0809                	addi	a6,a6,2
    1044:	0100                	addi	s0,sp,128
    1046:	3205                	jal	966 <_min_stack-0x169a>
    1048:	0306                	slli	t1,t1,0x1
    104a:	0900                	addi	s0,sp,144
    104c:	0000                	unimp
    104e:	0501                	addi	a0,a0,0
    1050:	01030603          	lb	a2,16(t1)
    1054:	0809                	addi	a6,a6,2
    1056:	0100                	addi	s0,sp,128
    1058:	3205                	jal	978 <_min_stack-0x1688>
    105a:	0306                	slli	t1,t1,0x1
    105c:	0900                	addi	s0,sp,144
    105e:	0000                	unimp
    1060:	0501                	addi	a0,a0,0
    1062:	01030603          	lb	a2,16(t1)
    1066:	0809                	addi	a6,a6,2
    1068:	0100                	addi	s0,sp,128
    106a:	3205                	jal	98a <_min_stack-0x1676>
    106c:	0306                	slli	t1,t1,0x1
    106e:	0900                	addi	s0,sp,144
    1070:	0000                	unimp
    1072:	0501                	addi	a0,a0,0
    1074:	01030603          	lb	a2,16(t1)
    1078:	0809                	addi	a6,a6,2
    107a:	0100                	addi	s0,sp,128
    107c:	3205                	jal	99c <_min_stack-0x1664>
    107e:	0306                	slli	t1,t1,0x1
    1080:	0900                	addi	s0,sp,144
    1082:	0000                	unimp
    1084:	0501                	addi	a0,a0,0
    1086:	01030603          	lb	a2,16(t1)
    108a:	0809                	addi	a6,a6,2
    108c:	0100                	addi	s0,sp,128
    108e:	3205                	jal	9ae <_min_stack-0x1652>
    1090:	0306                	slli	t1,t1,0x1
    1092:	0900                	addi	s0,sp,144
    1094:	0000                	unimp
    1096:	0501                	addi	a0,a0,0
    1098:	01030603          	lb	a2,16(t1)
    109c:	0809                	addi	a6,a6,2
    109e:	0100                	addi	s0,sp,128
    10a0:	3205                	jal	9c0 <_min_stack-0x1640>
    10a2:	0306                	slli	t1,t1,0x1
    10a4:	0900                	addi	s0,sp,144
    10a6:	0000                	unimp
    10a8:	0501                	addi	a0,a0,0
    10aa:	01030603          	lb	a2,16(t1)
    10ae:	0809                	addi	a6,a6,2
    10b0:	0100                	addi	s0,sp,128
    10b2:	3205                	jal	9d2 <_min_stack-0x162e>
    10b4:	0306                	slli	t1,t1,0x1
    10b6:	0900                	addi	s0,sp,144
    10b8:	0000                	unimp
    10ba:	0501                	addi	a0,a0,0
    10bc:	01030603          	lb	a2,16(t1)
    10c0:	0809                	addi	a6,a6,2
    10c2:	0100                	addi	s0,sp,128
    10c4:	3205                	jal	9e4 <_min_stack-0x161c>
    10c6:	0306                	slli	t1,t1,0x1
    10c8:	0900                	addi	s0,sp,144
    10ca:	0000                	unimp
    10cc:	0501                	addi	a0,a0,0
    10ce:	01030603          	lb	a2,16(t1)
    10d2:	0809                	addi	a6,a6,2
    10d4:	0100                	addi	s0,sp,128
    10d6:	3205                	jal	9f6 <_min_stack-0x160a>
    10d8:	0306                	slli	t1,t1,0x1
    10da:	0900                	addi	s0,sp,144
    10dc:	0000                	unimp
    10de:	0501                	addi	a0,a0,0
    10e0:	01030603          	lb	a2,16(t1)
    10e4:	0809                	addi	a6,a6,2
    10e6:	0100                	addi	s0,sp,128
    10e8:	3205                	jal	a08 <_min_stack-0x15f8>
    10ea:	0306                	slli	t1,t1,0x1
    10ec:	0900                	addi	s0,sp,144
    10ee:	0000                	unimp
    10f0:	0501                	addi	a0,a0,0
    10f2:	01030603          	lb	a2,16(t1)
    10f6:	0809                	addi	a6,a6,2
    10f8:	0100                	addi	s0,sp,128
    10fa:	3205                	jal	a1a <_min_stack-0x15e6>
    10fc:	0306                	slli	t1,t1,0x1
    10fe:	0900                	addi	s0,sp,144
    1100:	0000                	unimp
    1102:	0501                	addi	a0,a0,0
    1104:	01030603          	lb	a2,16(t1)
    1108:	0809                	addi	a6,a6,2
    110a:	0100                	addi	s0,sp,128
    110c:	3205                	jal	a2c <_min_stack-0x15d4>
    110e:	0306                	slli	t1,t1,0x1
    1110:	0900                	addi	s0,sp,144
    1112:	0000                	unimp
    1114:	0501                	addi	a0,a0,0
    1116:	01030603          	lb	a2,16(t1)
    111a:	0809                	addi	a6,a6,2
    111c:	0100                	addi	s0,sp,128
    111e:	3205                	jal	a3e <_min_stack-0x15c2>
    1120:	0306                	slli	t1,t1,0x1
    1122:	0900                	addi	s0,sp,144
    1124:	0000                	unimp
    1126:	0501                	addi	a0,a0,0
    1128:	01030603          	lb	a2,16(t1)
    112c:	0809                	addi	a6,a6,2
    112e:	0100                	addi	s0,sp,128
    1130:	3205                	jal	a50 <_min_stack-0x15b0>
    1132:	0306                	slli	t1,t1,0x1
    1134:	0900                	addi	s0,sp,144
    1136:	0000                	unimp
    1138:	0501                	addi	a0,a0,0
    113a:	01030603          	lb	a2,16(t1)
    113e:	0809                	addi	a6,a6,2
    1140:	0100                	addi	s0,sp,128
    1142:	3205                	jal	a62 <_min_stack-0x159e>
    1144:	0306                	slli	t1,t1,0x1
    1146:	0900                	addi	s0,sp,144
    1148:	0000                	unimp
    114a:	0501                	addi	a0,a0,0
    114c:	01030603          	lb	a2,16(t1)
    1150:	0809                	addi	a6,a6,2
    1152:	0100                	addi	s0,sp,128
    1154:	3205                	jal	a74 <_min_stack-0x158c>
    1156:	0306                	slli	t1,t1,0x1
    1158:	0900                	addi	s0,sp,144
    115a:	0000                	unimp
    115c:	0501                	addi	a0,a0,0
    115e:	01030603          	lb	a2,16(t1)
    1162:	0809                	addi	a6,a6,2
    1164:	0100                	addi	s0,sp,128
    1166:	3205                	jal	a86 <_min_stack-0x157a>
    1168:	0306                	slli	t1,t1,0x1
    116a:	0900                	addi	s0,sp,144
    116c:	0000                	unimp
    116e:	0501                	addi	a0,a0,0
    1170:	01030603          	lb	a2,16(t1)
    1174:	0809                	addi	a6,a6,2
    1176:	0100                	addi	s0,sp,128
    1178:	3205                	jal	a98 <_min_stack-0x1568>
    117a:	0306                	slli	t1,t1,0x1
    117c:	0900                	addi	s0,sp,144
    117e:	0000                	unimp
    1180:	0501                	addi	a0,a0,0
    1182:	01030603          	lb	a2,16(t1)
    1186:	0809                	addi	a6,a6,2
    1188:	0100                	addi	s0,sp,128
    118a:	3205                	jal	aaa <_min_stack-0x1556>
    118c:	0306                	slli	t1,t1,0x1
    118e:	0900                	addi	s0,sp,144
    1190:	0000                	unimp
    1192:	0501                	addi	a0,a0,0
    1194:	01030603          	lb	a2,16(t1)
    1198:	0809                	addi	a6,a6,2
    119a:	0100                	addi	s0,sp,128
    119c:	3205                	jal	abc <_min_stack-0x1544>
    119e:	0306                	slli	t1,t1,0x1
    11a0:	0900                	addi	s0,sp,144
    11a2:	0000                	unimp
    11a4:	0501                	addi	a0,a0,0
    11a6:	01030603          	lb	a2,16(t1)
    11aa:	0809                	addi	a6,a6,2
    11ac:	0100                	addi	s0,sp,128
    11ae:	3205                	jal	ace <_min_stack-0x1532>
    11b0:	0306                	slli	t1,t1,0x1
    11b2:	0900                	addi	s0,sp,144
    11b4:	0000                	unimp
    11b6:	0501                	addi	a0,a0,0
    11b8:	01030603          	lb	a2,16(t1)
    11bc:	0809                	addi	a6,a6,2
    11be:	0100                	addi	s0,sp,128
    11c0:	3205                	jal	ae0 <_min_stack-0x1520>
    11c2:	0306                	slli	t1,t1,0x1
    11c4:	0900                	addi	s0,sp,144
    11c6:	0000                	unimp
    11c8:	0501                	addi	a0,a0,0
    11ca:	01030603          	lb	a2,16(t1)
    11ce:	0809                	addi	a6,a6,2
    11d0:	0100                	addi	s0,sp,128
    11d2:	3205                	jal	af2 <_min_stack-0x150e>
    11d4:	0306                	slli	t1,t1,0x1
    11d6:	0900                	addi	s0,sp,144
    11d8:	0000                	unimp
    11da:	0501                	addi	a0,a0,0
    11dc:	01030603          	lb	a2,16(t1)
    11e0:	0809                	addi	a6,a6,2
    11e2:	0100                	addi	s0,sp,128
    11e4:	3205                	jal	b04 <_min_stack-0x14fc>
    11e6:	0306                	slli	t1,t1,0x1
    11e8:	0900                	addi	s0,sp,144
    11ea:	0000                	unimp
    11ec:	0501                	addi	a0,a0,0
    11ee:	01030603          	lb	a2,16(t1)
    11f2:	0809                	addi	a6,a6,2
    11f4:	0100                	addi	s0,sp,128
    11f6:	3205                	jal	b16 <_min_stack-0x14ea>
    11f8:	0306                	slli	t1,t1,0x1
    11fa:	0900                	addi	s0,sp,144
    11fc:	0000                	unimp
    11fe:	0501                	addi	a0,a0,0
    1200:	01030603          	lb	a2,16(t1)
    1204:	0809                	addi	a6,a6,2
    1206:	0100                	addi	s0,sp,128
    1208:	3205                	jal	b28 <_min_stack-0x14d8>
    120a:	0306                	slli	t1,t1,0x1
    120c:	0900                	addi	s0,sp,144
    120e:	0000                	unimp
    1210:	0501                	addi	a0,a0,0
    1212:	01030603          	lb	a2,16(t1)
    1216:	0809                	addi	a6,a6,2
    1218:	0100                	addi	s0,sp,128
    121a:	3205                	jal	b3a <_min_stack-0x14c6>
    121c:	0306                	slli	t1,t1,0x1
    121e:	0900                	addi	s0,sp,144
    1220:	0000                	unimp
    1222:	0501                	addi	a0,a0,0
    1224:	01030603          	lb	a2,16(t1)
    1228:	0809                	addi	a6,a6,2
    122a:	0100                	addi	s0,sp,128
    122c:	3205                	jal	b4c <_min_stack-0x14b4>
    122e:	0306                	slli	t1,t1,0x1
    1230:	0900                	addi	s0,sp,144
    1232:	0000                	unimp
    1234:	0501                	addi	a0,a0,0
    1236:	01030603          	lb	a2,16(t1)
    123a:	0809                	addi	a6,a6,2
    123c:	0100                	addi	s0,sp,128
    123e:	3205                	jal	b5e <_min_stack-0x14a2>
    1240:	0306                	slli	t1,t1,0x1
    1242:	0900                	addi	s0,sp,144
    1244:	0000                	unimp
    1246:	0501                	addi	a0,a0,0
    1248:	01030603          	lb	a2,16(t1)
    124c:	0809                	addi	a6,a6,2
    124e:	0100                	addi	s0,sp,128
    1250:	3205                	jal	b70 <_min_stack-0x1490>
    1252:	0306                	slli	t1,t1,0x1
    1254:	0900                	addi	s0,sp,144
    1256:	0000                	unimp
    1258:	0501                	addi	a0,a0,0
    125a:	01030603          	lb	a2,16(t1)
    125e:	0809                	addi	a6,a6,2
    1260:	0100                	addi	s0,sp,128
    1262:	3205                	jal	b82 <_min_stack-0x147e>
    1264:	0306                	slli	t1,t1,0x1
    1266:	0900                	addi	s0,sp,144
    1268:	0000                	unimp
    126a:	0501                	addi	a0,a0,0
    126c:	01030603          	lb	a2,16(t1)
    1270:	0809                	addi	a6,a6,2
    1272:	0100                	addi	s0,sp,128
    1274:	3205                	jal	b94 <_min_stack-0x146c>
    1276:	0306                	slli	t1,t1,0x1
    1278:	0900                	addi	s0,sp,144
    127a:	0000                	unimp
    127c:	0501                	addi	a0,a0,0
    127e:	01030603          	lb	a2,16(t1)
    1282:	0809                	addi	a6,a6,2
    1284:	0100                	addi	s0,sp,128
    1286:	3205                	jal	ba6 <_min_stack-0x145a>
    1288:	0306                	slli	t1,t1,0x1
    128a:	0900                	addi	s0,sp,144
    128c:	0000                	unimp
    128e:	0501                	addi	a0,a0,0
    1290:	01030603          	lb	a2,16(t1)
    1294:	0809                	addi	a6,a6,2
    1296:	0100                	addi	s0,sp,128
    1298:	3205                	jal	bb8 <_min_stack-0x1448>
    129a:	0306                	slli	t1,t1,0x1
    129c:	0900                	addi	s0,sp,144
    129e:	0000                	unimp
    12a0:	0501                	addi	a0,a0,0
    12a2:	01030603          	lb	a2,16(t1)
    12a6:	0809                	addi	a6,a6,2
    12a8:	0100                	addi	s0,sp,128
    12aa:	3205                	jal	bca <_min_stack-0x1436>
    12ac:	0306                	slli	t1,t1,0x1
    12ae:	0900                	addi	s0,sp,144
    12b0:	0000                	unimp
    12b2:	0501                	addi	a0,a0,0
    12b4:	01030603          	lb	a2,16(t1)
    12b8:	0809                	addi	a6,a6,2
    12ba:	0100                	addi	s0,sp,128
    12bc:	3205                	jal	bdc <_min_stack-0x1424>
    12be:	0306                	slli	t1,t1,0x1
    12c0:	0900                	addi	s0,sp,144
    12c2:	0000                	unimp
    12c4:	0501                	addi	a0,a0,0
    12c6:	01030603          	lb	a2,16(t1)
    12ca:	0809                	addi	a6,a6,2
    12cc:	0100                	addi	s0,sp,128
    12ce:	3205                	jal	bee <_min_stack-0x1412>
    12d0:	0306                	slli	t1,t1,0x1
    12d2:	0900                	addi	s0,sp,144
    12d4:	0000                	unimp
    12d6:	0501                	addi	a0,a0,0
    12d8:	01030603          	lb	a2,16(t1)
    12dc:	0809                	addi	a6,a6,2
    12de:	0100                	addi	s0,sp,128
    12e0:	3205                	jal	c00 <_min_stack-0x1400>
    12e2:	0306                	slli	t1,t1,0x1
    12e4:	0900                	addi	s0,sp,144
    12e6:	0000                	unimp
    12e8:	0501                	addi	a0,a0,0
    12ea:	01030603          	lb	a2,16(t1)
    12ee:	0809                	addi	a6,a6,2
    12f0:	0100                	addi	s0,sp,128
    12f2:	3205                	jal	c12 <_min_stack-0x13ee>
    12f4:	0306                	slli	t1,t1,0x1
    12f6:	0900                	addi	s0,sp,144
    12f8:	0000                	unimp
    12fa:	0501                	addi	a0,a0,0
    12fc:	01030603          	lb	a2,16(t1)
    1300:	0809                	addi	a6,a6,2
    1302:	0100                	addi	s0,sp,128
    1304:	3205                	jal	c24 <_min_stack-0x13dc>
    1306:	0306                	slli	t1,t1,0x1
    1308:	0900                	addi	s0,sp,144
    130a:	0000                	unimp
    130c:	0501                	addi	a0,a0,0
    130e:	01030603          	lb	a2,16(t1)
    1312:	0809                	addi	a6,a6,2
    1314:	0100                	addi	s0,sp,128
    1316:	3205                	jal	c36 <_min_stack-0x13ca>
    1318:	0306                	slli	t1,t1,0x1
    131a:	0900                	addi	s0,sp,144
    131c:	0000                	unimp
    131e:	0501                	addi	a0,a0,0
    1320:	01030603          	lb	a2,16(t1)
    1324:	0809                	addi	a6,a6,2
    1326:	0100                	addi	s0,sp,128
    1328:	3205                	jal	c48 <_min_stack-0x13b8>
    132a:	0306                	slli	t1,t1,0x1
    132c:	0900                	addi	s0,sp,144
    132e:	0000                	unimp
    1330:	0501                	addi	a0,a0,0
    1332:	01030603          	lb	a2,16(t1)
    1336:	0809                	addi	a6,a6,2
    1338:	0100                	addi	s0,sp,128
    133a:	3205                	jal	c5a <_min_stack-0x13a6>
    133c:	0306                	slli	t1,t1,0x1
    133e:	0900                	addi	s0,sp,144
    1340:	0000                	unimp
    1342:	0501                	addi	a0,a0,0
    1344:	01030603          	lb	a2,16(t1)
    1348:	0809                	addi	a6,a6,2
    134a:	0100                	addi	s0,sp,128
    134c:	3205                	jal	c6c <_min_stack-0x1394>
    134e:	0306                	slli	t1,t1,0x1
    1350:	0900                	addi	s0,sp,144
    1352:	0000                	unimp
    1354:	0501                	addi	a0,a0,0
    1356:	01030603          	lb	a2,16(t1)
    135a:	0809                	addi	a6,a6,2
    135c:	0100                	addi	s0,sp,128
    135e:	3205                	jal	c7e <_min_stack-0x1382>
    1360:	0306                	slli	t1,t1,0x1
    1362:	0900                	addi	s0,sp,144
    1364:	0000                	unimp
    1366:	0501                	addi	a0,a0,0
    1368:	01030603          	lb	a2,16(t1)
    136c:	0809                	addi	a6,a6,2
    136e:	0100                	addi	s0,sp,128
    1370:	3205                	jal	c90 <_min_stack-0x1370>
    1372:	0306                	slli	t1,t1,0x1
    1374:	0900                	addi	s0,sp,144
    1376:	0000                	unimp
    1378:	0501                	addi	a0,a0,0
    137a:	01030603          	lb	a2,16(t1)
    137e:	0809                	addi	a6,a6,2
    1380:	0100                	addi	s0,sp,128
    1382:	3205                	jal	ca2 <_min_stack-0x135e>
    1384:	0306                	slli	t1,t1,0x1
    1386:	0900                	addi	s0,sp,144
    1388:	0000                	unimp
    138a:	0501                	addi	a0,a0,0
    138c:	01030603          	lb	a2,16(t1)
    1390:	0809                	addi	a6,a6,2
    1392:	0100                	addi	s0,sp,128
    1394:	3205                	jal	cb4 <_min_stack-0x134c>
    1396:	0306                	slli	t1,t1,0x1
    1398:	0900                	addi	s0,sp,144
    139a:	0000                	unimp
    139c:	0501                	addi	a0,a0,0
    139e:	01030603          	lb	a2,16(t1)
    13a2:	0809                	addi	a6,a6,2
    13a4:	0100                	addi	s0,sp,128
    13a6:	3205                	jal	cc6 <_min_stack-0x133a>
    13a8:	0306                	slli	t1,t1,0x1
    13aa:	0900                	addi	s0,sp,144
    13ac:	0000                	unimp
    13ae:	0501                	addi	a0,a0,0
    13b0:	01030603          	lb	a2,16(t1)
    13b4:	0809                	addi	a6,a6,2
    13b6:	0100                	addi	s0,sp,128
    13b8:	3205                	jal	cd8 <_min_stack-0x1328>
    13ba:	0306                	slli	t1,t1,0x1
    13bc:	0900                	addi	s0,sp,144
    13be:	0000                	unimp
    13c0:	0501                	addi	a0,a0,0
    13c2:	01030603          	lb	a2,16(t1)
    13c6:	0809                	addi	a6,a6,2
    13c8:	0100                	addi	s0,sp,128
    13ca:	3205                	jal	cea <_min_stack-0x1316>
    13cc:	0306                	slli	t1,t1,0x1
    13ce:	0900                	addi	s0,sp,144
    13d0:	0000                	unimp
    13d2:	0501                	addi	a0,a0,0
    13d4:	01030603          	lb	a2,16(t1)
    13d8:	0809                	addi	a6,a6,2
    13da:	0100                	addi	s0,sp,128
    13dc:	3205                	jal	cfc <_min_stack-0x1304>
    13de:	0306                	slli	t1,t1,0x1
    13e0:	0900                	addi	s0,sp,144
    13e2:	0000                	unimp
    13e4:	0501                	addi	a0,a0,0
    13e6:	01030603          	lb	a2,16(t1)
    13ea:	0809                	addi	a6,a6,2
    13ec:	0100                	addi	s0,sp,128
    13ee:	3205                	jal	d0e <_min_stack-0x12f2>
    13f0:	0306                	slli	t1,t1,0x1
    13f2:	0900                	addi	s0,sp,144
    13f4:	0000                	unimp
    13f6:	0501                	addi	a0,a0,0
    13f8:	01030603          	lb	a2,16(t1)
    13fc:	0809                	addi	a6,a6,2
    13fe:	0100                	addi	s0,sp,128
    1400:	3205                	jal	d20 <_min_stack-0x12e0>
    1402:	0306                	slli	t1,t1,0x1
    1404:	0900                	addi	s0,sp,144
    1406:	0000                	unimp
    1408:	0501                	addi	a0,a0,0
    140a:	01030603          	lb	a2,16(t1)
    140e:	0809                	addi	a6,a6,2
    1410:	0100                	addi	s0,sp,128
    1412:	3205                	jal	d32 <_min_stack-0x12ce>
    1414:	0306                	slli	t1,t1,0x1
    1416:	0900                	addi	s0,sp,144
    1418:	0000                	unimp
    141a:	0501                	addi	a0,a0,0
    141c:	01030603          	lb	a2,16(t1)
    1420:	0809                	addi	a6,a6,2
    1422:	0100                	addi	s0,sp,128
    1424:	3205                	jal	d44 <_min_stack-0x12bc>
    1426:	0306                	slli	t1,t1,0x1
    1428:	0900                	addi	s0,sp,144
    142a:	0000                	unimp
    142c:	0501                	addi	a0,a0,0
    142e:	01030603          	lb	a2,16(t1)
    1432:	0809                	addi	a6,a6,2
    1434:	0100                	addi	s0,sp,128
    1436:	3205                	jal	d56 <_min_stack-0x12aa>
    1438:	0306                	slli	t1,t1,0x1
    143a:	0900                	addi	s0,sp,144
    143c:	0000                	unimp
    143e:	0501                	addi	a0,a0,0
    1440:	01030603          	lb	a2,16(t1)
    1444:	0809                	addi	a6,a6,2
    1446:	0100                	addi	s0,sp,128
    1448:	3205                	jal	d68 <_min_stack-0x1298>
    144a:	0306                	slli	t1,t1,0x1
    144c:	0900                	addi	s0,sp,144
    144e:	0000                	unimp
    1450:	0501                	addi	a0,a0,0
    1452:	01030603          	lb	a2,16(t1)
    1456:	0809                	addi	a6,a6,2
    1458:	0100                	addi	s0,sp,128
    145a:	3205                	jal	d7a <_min_stack-0x1286>
    145c:	0306                	slli	t1,t1,0x1
    145e:	0900                	addi	s0,sp,144
    1460:	0000                	unimp
    1462:	0501                	addi	a0,a0,0
    1464:	01030603          	lb	a2,16(t1)
    1468:	0809                	addi	a6,a6,2
    146a:	0100                	addi	s0,sp,128
    146c:	3205                	jal	d8c <_min_stack-0x1274>
    146e:	0306                	slli	t1,t1,0x1
    1470:	0900                	addi	s0,sp,144
    1472:	0000                	unimp
    1474:	0501                	addi	a0,a0,0
    1476:	01030603          	lb	a2,16(t1)
    147a:	0809                	addi	a6,a6,2
    147c:	0100                	addi	s0,sp,128
    147e:	3205                	jal	d9e <_min_stack-0x1262>
    1480:	0306                	slli	t1,t1,0x1
    1482:	0900                	addi	s0,sp,144
    1484:	0000                	unimp
    1486:	0501                	addi	a0,a0,0
    1488:	01030603          	lb	a2,16(t1)
    148c:	0809                	addi	a6,a6,2
    148e:	0100                	addi	s0,sp,128
    1490:	3205                	jal	db0 <_min_stack-0x1250>
    1492:	0306                	slli	t1,t1,0x1
    1494:	0900                	addi	s0,sp,144
    1496:	0000                	unimp
    1498:	0501                	addi	a0,a0,0
    149a:	01030603          	lb	a2,16(t1)
    149e:	0809                	addi	a6,a6,2
    14a0:	0100                	addi	s0,sp,128
    14a2:	3205                	jal	dc2 <_min_stack-0x123e>
    14a4:	0306                	slli	t1,t1,0x1
    14a6:	0900                	addi	s0,sp,144
    14a8:	0000                	unimp
    14aa:	0501                	addi	a0,a0,0
    14ac:	01030603          	lb	a2,16(t1)
    14b0:	0809                	addi	a6,a6,2
    14b2:	0100                	addi	s0,sp,128
    14b4:	3205                	jal	dd4 <_min_stack-0x122c>
    14b6:	0306                	slli	t1,t1,0x1
    14b8:	0900                	addi	s0,sp,144
    14ba:	0000                	unimp
    14bc:	0501                	addi	a0,a0,0
    14be:	01030603          	lb	a2,16(t1)
    14c2:	0809                	addi	a6,a6,2
    14c4:	0100                	addi	s0,sp,128
    14c6:	3205                	jal	de6 <_min_stack-0x121a>
    14c8:	0306                	slli	t1,t1,0x1
    14ca:	0900                	addi	s0,sp,144
    14cc:	0000                	unimp
    14ce:	0501                	addi	a0,a0,0
    14d0:	01030603          	lb	a2,16(t1)
    14d4:	0809                	addi	a6,a6,2
    14d6:	0100                	addi	s0,sp,128
    14d8:	3205                	jal	df8 <_min_stack-0x1208>
    14da:	0306                	slli	t1,t1,0x1
    14dc:	0900                	addi	s0,sp,144
    14de:	0000                	unimp
    14e0:	0501                	addi	a0,a0,0
    14e2:	01030603          	lb	a2,16(t1)
    14e6:	0809                	addi	a6,a6,2
    14e8:	0100                	addi	s0,sp,128
    14ea:	3205                	jal	e0a <_min_stack-0x11f6>
    14ec:	0306                	slli	t1,t1,0x1
    14ee:	0900                	addi	s0,sp,144
    14f0:	0000                	unimp
    14f2:	0501                	addi	a0,a0,0
    14f4:	01030603          	lb	a2,16(t1)
    14f8:	0809                	addi	a6,a6,2
    14fa:	0100                	addi	s0,sp,128
    14fc:	3205                	jal	e1c <_min_stack-0x11e4>
    14fe:	0306                	slli	t1,t1,0x1
    1500:	0900                	addi	s0,sp,144
    1502:	0000                	unimp
    1504:	0501                	addi	a0,a0,0
    1506:	01030603          	lb	a2,16(t1)
    150a:	0809                	addi	a6,a6,2
    150c:	0100                	addi	s0,sp,128
    150e:	3205                	jal	e2e <_min_stack-0x11d2>
    1510:	0306                	slli	t1,t1,0x1
    1512:	0900                	addi	s0,sp,144
    1514:	0000                	unimp
    1516:	0501                	addi	a0,a0,0
    1518:	01030603          	lb	a2,16(t1)
    151c:	0809                	addi	a6,a6,2
    151e:	0100                	addi	s0,sp,128
    1520:	3205                	jal	e40 <_min_stack-0x11c0>
    1522:	0306                	slli	t1,t1,0x1
    1524:	0900                	addi	s0,sp,144
    1526:	0000                	unimp
    1528:	0501                	addi	a0,a0,0
    152a:	01030603          	lb	a2,16(t1)
    152e:	0809                	addi	a6,a6,2
    1530:	0100                	addi	s0,sp,128
    1532:	3205                	jal	e52 <_min_stack-0x11ae>
    1534:	0306                	slli	t1,t1,0x1
    1536:	0900                	addi	s0,sp,144
    1538:	0000                	unimp
    153a:	0501                	addi	a0,a0,0
    153c:	01030603          	lb	a2,16(t1)
    1540:	0809                	addi	a6,a6,2
    1542:	0100                	addi	s0,sp,128
    1544:	3205                	jal	e64 <_min_stack-0x119c>
    1546:	0306                	slli	t1,t1,0x1
    1548:	0900                	addi	s0,sp,144
    154a:	0000                	unimp
    154c:	0501                	addi	a0,a0,0
    154e:	01030603          	lb	a2,16(t1)
    1552:	0809                	addi	a6,a6,2
    1554:	0100                	addi	s0,sp,128
    1556:	3205                	jal	e76 <_min_stack-0x118a>
    1558:	0306                	slli	t1,t1,0x1
    155a:	0900                	addi	s0,sp,144
    155c:	0000                	unimp
    155e:	0501                	addi	a0,a0,0
    1560:	01030603          	lb	a2,16(t1)
    1564:	0809                	addi	a6,a6,2
    1566:	0100                	addi	s0,sp,128
    1568:	3205                	jal	e88 <_min_stack-0x1178>
    156a:	0306                	slli	t1,t1,0x1
    156c:	0900                	addi	s0,sp,144
    156e:	0000                	unimp
    1570:	0501                	addi	a0,a0,0
    1572:	01030603          	lb	a2,16(t1)
    1576:	0809                	addi	a6,a6,2
    1578:	0100                	addi	s0,sp,128
    157a:	3205                	jal	e9a <_min_stack-0x1166>
    157c:	0306                	slli	t1,t1,0x1
    157e:	0900                	addi	s0,sp,144
    1580:	0000                	unimp
    1582:	0501                	addi	a0,a0,0
    1584:	01030603          	lb	a2,16(t1)
    1588:	0809                	addi	a6,a6,2
    158a:	0100                	addi	s0,sp,128
    158c:	3205                	jal	eac <_min_stack-0x1154>
    158e:	0306                	slli	t1,t1,0x1
    1590:	0900                	addi	s0,sp,144
    1592:	0000                	unimp
    1594:	0501                	addi	a0,a0,0
    1596:	01030603          	lb	a2,16(t1)
    159a:	0809                	addi	a6,a6,2
    159c:	0100                	addi	s0,sp,128
    159e:	3205                	jal	ebe <_min_stack-0x1142>
    15a0:	0306                	slli	t1,t1,0x1
    15a2:	0900                	addi	s0,sp,144
    15a4:	0000                	unimp
    15a6:	0501                	addi	a0,a0,0
    15a8:	01030603          	lb	a2,16(t1)
    15ac:	0809                	addi	a6,a6,2
    15ae:	0100                	addi	s0,sp,128
    15b0:	3205                	jal	ed0 <_min_stack-0x1130>
    15b2:	0306                	slli	t1,t1,0x1
    15b4:	0900                	addi	s0,sp,144
    15b6:	0000                	unimp
    15b8:	0501                	addi	a0,a0,0
    15ba:	01030603          	lb	a2,16(t1)
    15be:	0809                	addi	a6,a6,2
    15c0:	0100                	addi	s0,sp,128
    15c2:	3205                	jal	ee2 <_min_stack-0x111e>
    15c4:	0306                	slli	t1,t1,0x1
    15c6:	0900                	addi	s0,sp,144
    15c8:	0000                	unimp
    15ca:	0501                	addi	a0,a0,0
    15cc:	01030603          	lb	a2,16(t1)
    15d0:	0809                	addi	a6,a6,2
    15d2:	0100                	addi	s0,sp,128
    15d4:	3205                	jal	ef4 <_min_stack-0x110c>
    15d6:	0306                	slli	t1,t1,0x1
    15d8:	0900                	addi	s0,sp,144
    15da:	0000                	unimp
    15dc:	0501                	addi	a0,a0,0
    15de:	01030603          	lb	a2,16(t1)
    15e2:	0809                	addi	a6,a6,2
    15e4:	0100                	addi	s0,sp,128
    15e6:	3205                	jal	f06 <_min_stack-0x10fa>
    15e8:	0306                	slli	t1,t1,0x1
    15ea:	0900                	addi	s0,sp,144
    15ec:	0000                	unimp
    15ee:	0501                	addi	a0,a0,0
    15f0:	01030603          	lb	a2,16(t1)
    15f4:	0809                	addi	a6,a6,2
    15f6:	0100                	addi	s0,sp,128
    15f8:	3205                	jal	f18 <_min_stack-0x10e8>
    15fa:	0306                	slli	t1,t1,0x1
    15fc:	0900                	addi	s0,sp,144
    15fe:	0000                	unimp
    1600:	0501                	addi	a0,a0,0
    1602:	01030603          	lb	a2,16(t1)
    1606:	0809                	addi	a6,a6,2
    1608:	0100                	addi	s0,sp,128
    160a:	3205                	jal	f2a <_min_stack-0x10d6>
    160c:	0306                	slli	t1,t1,0x1
    160e:	0900                	addi	s0,sp,144
    1610:	0000                	unimp
    1612:	0501                	addi	a0,a0,0
    1614:	01030603          	lb	a2,16(t1)
    1618:	0809                	addi	a6,a6,2
    161a:	0100                	addi	s0,sp,128
    161c:	3205                	jal	f3c <_min_stack-0x10c4>
    161e:	0306                	slli	t1,t1,0x1
    1620:	0900                	addi	s0,sp,144
    1622:	0000                	unimp
    1624:	0501                	addi	a0,a0,0
    1626:	01030603          	lb	a2,16(t1)
    162a:	0809                	addi	a6,a6,2
    162c:	0100                	addi	s0,sp,128
    162e:	3205                	jal	f4e <_min_stack-0x10b2>
    1630:	0306                	slli	t1,t1,0x1
    1632:	0900                	addi	s0,sp,144
    1634:	0000                	unimp
    1636:	0501                	addi	a0,a0,0
    1638:	01030603          	lb	a2,16(t1)
    163c:	0809                	addi	a6,a6,2
    163e:	0100                	addi	s0,sp,128
    1640:	3205                	jal	f60 <_min_stack-0x10a0>
    1642:	0306                	slli	t1,t1,0x1
    1644:	0900                	addi	s0,sp,144
    1646:	0000                	unimp
    1648:	0501                	addi	a0,a0,0
    164a:	01030603          	lb	a2,16(t1)
    164e:	0809                	addi	a6,a6,2
    1650:	0100                	addi	s0,sp,128
    1652:	3205                	jal	f72 <_min_stack-0x108e>
    1654:	0306                	slli	t1,t1,0x1
    1656:	0900                	addi	s0,sp,144
    1658:	0000                	unimp
    165a:	0501                	addi	a0,a0,0
    165c:	01030603          	lb	a2,16(t1)
    1660:	0809                	addi	a6,a6,2
    1662:	0100                	addi	s0,sp,128
    1664:	3205                	jal	f84 <_min_stack-0x107c>
    1666:	0306                	slli	t1,t1,0x1
    1668:	0900                	addi	s0,sp,144
    166a:	0000                	unimp
    166c:	0501                	addi	a0,a0,0
    166e:	01030603          	lb	a2,16(t1)
    1672:	0809                	addi	a6,a6,2
    1674:	0100                	addi	s0,sp,128
    1676:	3205                	jal	f96 <_min_stack-0x106a>
    1678:	0306                	slli	t1,t1,0x1
    167a:	0900                	addi	s0,sp,144
    167c:	0000                	unimp
    167e:	0501                	addi	a0,a0,0
    1680:	01030603          	lb	a2,16(t1)
    1684:	0809                	addi	a6,a6,2
    1686:	0100                	addi	s0,sp,128
    1688:	3205                	jal	fa8 <_min_stack-0x1058>
    168a:	0306                	slli	t1,t1,0x1
    168c:	0900                	addi	s0,sp,144
    168e:	0000                	unimp
    1690:	0501                	addi	a0,a0,0
    1692:	01030603          	lb	a2,16(t1)
    1696:	0809                	addi	a6,a6,2
    1698:	0100                	addi	s0,sp,128
    169a:	3205                	jal	fba <_min_stack-0x1046>
    169c:	0306                	slli	t1,t1,0x1
    169e:	0900                	addi	s0,sp,144
    16a0:	0000                	unimp
    16a2:	0501                	addi	a0,a0,0
    16a4:	01030603          	lb	a2,16(t1)
    16a8:	0809                	addi	a6,a6,2
    16aa:	0100                	addi	s0,sp,128
    16ac:	3205                	jal	fcc <_min_stack-0x1034>
    16ae:	0306                	slli	t1,t1,0x1
    16b0:	0900                	addi	s0,sp,144
    16b2:	0000                	unimp
    16b4:	0501                	addi	a0,a0,0
    16b6:	01030603          	lb	a2,16(t1)
    16ba:	0809                	addi	a6,a6,2
    16bc:	0100                	addi	s0,sp,128
    16be:	3205                	jal	fde <_min_stack-0x1022>
    16c0:	0306                	slli	t1,t1,0x1
    16c2:	0900                	addi	s0,sp,144
    16c4:	0000                	unimp
    16c6:	0501                	addi	a0,a0,0
    16c8:	01030603          	lb	a2,16(t1)
    16cc:	0809                	addi	a6,a6,2
    16ce:	0100                	addi	s0,sp,128
    16d0:	3205                	jal	ff0 <_min_stack-0x1010>
    16d2:	0306                	slli	t1,t1,0x1
    16d4:	0900                	addi	s0,sp,144
    16d6:	0000                	unimp
    16d8:	0501                	addi	a0,a0,0
    16da:	01030603          	lb	a2,16(t1)
    16de:	0809                	addi	a6,a6,2
    16e0:	0100                	addi	s0,sp,128
    16e2:	3205                	jal	1002 <_min_stack-0xffe>
    16e4:	0306                	slli	t1,t1,0x1
    16e6:	0900                	addi	s0,sp,144
    16e8:	0000                	unimp
    16ea:	0501                	addi	a0,a0,0
    16ec:	01030603          	lb	a2,16(t1)
    16f0:	0809                	addi	a6,a6,2
    16f2:	0100                	addi	s0,sp,128
    16f4:	3205                	jal	1014 <_min_stack-0xfec>
    16f6:	0306                	slli	t1,t1,0x1
    16f8:	0900                	addi	s0,sp,144
    16fa:	0000                	unimp
    16fc:	0501                	addi	a0,a0,0
    16fe:	01030603          	lb	a2,16(t1)
    1702:	0809                	addi	a6,a6,2
    1704:	0100                	addi	s0,sp,128
    1706:	3205                	jal	1026 <_min_stack-0xfda>
    1708:	0306                	slli	t1,t1,0x1
    170a:	0900                	addi	s0,sp,144
    170c:	0000                	unimp
    170e:	0501                	addi	a0,a0,0
    1710:	01030603          	lb	a2,16(t1)
    1714:	0809                	addi	a6,a6,2
    1716:	0100                	addi	s0,sp,128
    1718:	3205                	jal	1038 <_min_stack-0xfc8>
    171a:	0306                	slli	t1,t1,0x1
    171c:	0900                	addi	s0,sp,144
    171e:	0000                	unimp
    1720:	0501                	addi	a0,a0,0
    1722:	01030603          	lb	a2,16(t1)
    1726:	0809                	addi	a6,a6,2
    1728:	0100                	addi	s0,sp,128
    172a:	3205                	jal	104a <_min_stack-0xfb6>
    172c:	0306                	slli	t1,t1,0x1
    172e:	0900                	addi	s0,sp,144
    1730:	0000                	unimp
    1732:	0501                	addi	a0,a0,0
    1734:	01030603          	lb	a2,16(t1)
    1738:	0809                	addi	a6,a6,2
    173a:	0100                	addi	s0,sp,128
    173c:	3205                	jal	105c <_min_stack-0xfa4>
    173e:	0306                	slli	t1,t1,0x1
    1740:	0900                	addi	s0,sp,144
    1742:	0000                	unimp
    1744:	0501                	addi	a0,a0,0
    1746:	01030603          	lb	a2,16(t1)
    174a:	0809                	addi	a6,a6,2
    174c:	0100                	addi	s0,sp,128
    174e:	3205                	jal	106e <_min_stack-0xf92>
    1750:	0306                	slli	t1,t1,0x1
    1752:	0900                	addi	s0,sp,144
    1754:	0000                	unimp
    1756:	0501                	addi	a0,a0,0
    1758:	01030603          	lb	a2,16(t1)
    175c:	0809                	addi	a6,a6,2
    175e:	0100                	addi	s0,sp,128
    1760:	3205                	jal	1080 <_min_stack-0xf80>
    1762:	0306                	slli	t1,t1,0x1
    1764:	0900                	addi	s0,sp,144
    1766:	0000                	unimp
    1768:	0501                	addi	a0,a0,0
    176a:	01030603          	lb	a2,16(t1)
    176e:	0809                	addi	a6,a6,2
    1770:	0100                	addi	s0,sp,128
    1772:	3205                	jal	1092 <_min_stack-0xf6e>
    1774:	0306                	slli	t1,t1,0x1
    1776:	0900                	addi	s0,sp,144
    1778:	0000                	unimp
    177a:	0501                	addi	a0,a0,0
    177c:	01030603          	lb	a2,16(t1)
    1780:	0809                	addi	a6,a6,2
    1782:	0100                	addi	s0,sp,128
    1784:	3205                	jal	10a4 <_min_stack-0xf5c>
    1786:	0306                	slli	t1,t1,0x1
    1788:	0900                	addi	s0,sp,144
    178a:	0000                	unimp
    178c:	0501                	addi	a0,a0,0
    178e:	01030603          	lb	a2,16(t1)
    1792:	0809                	addi	a6,a6,2
    1794:	0100                	addi	s0,sp,128
    1796:	3205                	jal	10b6 <_min_stack-0xf4a>
    1798:	0306                	slli	t1,t1,0x1
    179a:	0900                	addi	s0,sp,144
    179c:	0000                	unimp
    179e:	0501                	addi	a0,a0,0
    17a0:	01030603          	lb	a2,16(t1)
    17a4:	0809                	addi	a6,a6,2
    17a6:	0100                	addi	s0,sp,128
    17a8:	3205                	jal	10c8 <_min_stack-0xf38>
    17aa:	0306                	slli	t1,t1,0x1
    17ac:	0900                	addi	s0,sp,144
    17ae:	0000                	unimp
    17b0:	0501                	addi	a0,a0,0
    17b2:	01030603          	lb	a2,16(t1)
    17b6:	0809                	addi	a6,a6,2
    17b8:	0100                	addi	s0,sp,128
    17ba:	3205                	jal	10da <_min_stack-0xf26>
    17bc:	0306                	slli	t1,t1,0x1
    17be:	0900                	addi	s0,sp,144
    17c0:	0000                	unimp
    17c2:	0501                	addi	a0,a0,0
    17c4:	01030603          	lb	a2,16(t1)
    17c8:	0809                	addi	a6,a6,2
    17ca:	0100                	addi	s0,sp,128
    17cc:	3205                	jal	10ec <_min_stack-0xf14>
    17ce:	0306                	slli	t1,t1,0x1
    17d0:	0900                	addi	s0,sp,144
    17d2:	0000                	unimp
    17d4:	0501                	addi	a0,a0,0
    17d6:	01030603          	lb	a2,16(t1)
    17da:	0809                	addi	a6,a6,2
    17dc:	0100                	addi	s0,sp,128
    17de:	3205                	jal	10fe <_min_stack-0xf02>
    17e0:	0306                	slli	t1,t1,0x1
    17e2:	0900                	addi	s0,sp,144
    17e4:	0000                	unimp
    17e6:	0501                	addi	a0,a0,0
    17e8:	01030603          	lb	a2,16(t1)
    17ec:	0809                	addi	a6,a6,2
    17ee:	0100                	addi	s0,sp,128
    17f0:	3205                	jal	1110 <_min_stack-0xef0>
    17f2:	0306                	slli	t1,t1,0x1
    17f4:	0900                	addi	s0,sp,144
    17f6:	0000                	unimp
    17f8:	0501                	addi	a0,a0,0
    17fa:	01030603          	lb	a2,16(t1)
    17fe:	0809                	addi	a6,a6,2
    1800:	0100                	addi	s0,sp,128
    1802:	3205                	jal	1122 <_min_stack-0xede>
    1804:	0306                	slli	t1,t1,0x1
    1806:	0900                	addi	s0,sp,144
    1808:	0000                	unimp
    180a:	0501                	addi	a0,a0,0
    180c:	01030603          	lb	a2,16(t1)
    1810:	0809                	addi	a6,a6,2
    1812:	0100                	addi	s0,sp,128
    1814:	3205                	jal	1134 <_min_stack-0xecc>
    1816:	0306                	slli	t1,t1,0x1
    1818:	0900                	addi	s0,sp,144
    181a:	0000                	unimp
    181c:	0501                	addi	a0,a0,0
    181e:	01030603          	lb	a2,16(t1)
    1822:	0809                	addi	a6,a6,2
    1824:	0100                	addi	s0,sp,128
    1826:	3205                	jal	1146 <_min_stack-0xeba>
    1828:	0306                	slli	t1,t1,0x1
    182a:	0900                	addi	s0,sp,144
    182c:	0000                	unimp
    182e:	0501                	addi	a0,a0,0
    1830:	01030603          	lb	a2,16(t1)
    1834:	0809                	addi	a6,a6,2
    1836:	0100                	addi	s0,sp,128
    1838:	3205                	jal	1158 <_min_stack-0xea8>
    183a:	0306                	slli	t1,t1,0x1
    183c:	0900                	addi	s0,sp,144
    183e:	0000                	unimp
    1840:	0501                	addi	a0,a0,0
    1842:	01030603          	lb	a2,16(t1)
    1846:	0809                	addi	a6,a6,2
    1848:	0100                	addi	s0,sp,128
    184a:	3205                	jal	116a <_min_stack-0xe96>
    184c:	0306                	slli	t1,t1,0x1
    184e:	0900                	addi	s0,sp,144
    1850:	0000                	unimp
    1852:	0501                	addi	a0,a0,0
    1854:	01030603          	lb	a2,16(t1)
    1858:	0809                	addi	a6,a6,2
    185a:	0100                	addi	s0,sp,128
    185c:	3205                	jal	117c <_min_stack-0xe84>
    185e:	0306                	slli	t1,t1,0x1
    1860:	0900                	addi	s0,sp,144
    1862:	0000                	unimp
    1864:	0501                	addi	a0,a0,0
    1866:	01030603          	lb	a2,16(t1)
    186a:	0809                	addi	a6,a6,2
    186c:	0100                	addi	s0,sp,128
    186e:	3205                	jal	118e <_min_stack-0xe72>
    1870:	0306                	slli	t1,t1,0x1
    1872:	0900                	addi	s0,sp,144
    1874:	0000                	unimp
    1876:	0501                	addi	a0,a0,0
    1878:	01030603          	lb	a2,16(t1)
    187c:	0809                	addi	a6,a6,2
    187e:	0100                	addi	s0,sp,128
    1880:	3205                	jal	11a0 <_min_stack-0xe60>
    1882:	0306                	slli	t1,t1,0x1
    1884:	0900                	addi	s0,sp,144
    1886:	0000                	unimp
    1888:	0501                	addi	a0,a0,0
    188a:	01030603          	lb	a2,16(t1)
    188e:	0809                	addi	a6,a6,2
    1890:	0100                	addi	s0,sp,128
    1892:	3205                	jal	11b2 <_min_stack-0xe4e>
    1894:	0306                	slli	t1,t1,0x1
    1896:	0900                	addi	s0,sp,144
    1898:	0000                	unimp
    189a:	0501                	addi	a0,a0,0
    189c:	01030603          	lb	a2,16(t1)
    18a0:	0809                	addi	a6,a6,2
    18a2:	0100                	addi	s0,sp,128
    18a4:	3205                	jal	11c4 <_min_stack-0xe3c>
    18a6:	0306                	slli	t1,t1,0x1
    18a8:	0900                	addi	s0,sp,144
    18aa:	0000                	unimp
    18ac:	0501                	addi	a0,a0,0
    18ae:	01030603          	lb	a2,16(t1)
    18b2:	0809                	addi	a6,a6,2
    18b4:	0100                	addi	s0,sp,128
    18b6:	3205                	jal	11d6 <_min_stack-0xe2a>
    18b8:	0306                	slli	t1,t1,0x1
    18ba:	0900                	addi	s0,sp,144
    18bc:	0000                	unimp
    18be:	0501                	addi	a0,a0,0
    18c0:	01030603          	lb	a2,16(t1)
    18c4:	0809                	addi	a6,a6,2
    18c6:	0100                	addi	s0,sp,128
    18c8:	3205                	jal	11e8 <_min_stack-0xe18>
    18ca:	0306                	slli	t1,t1,0x1
    18cc:	0900                	addi	s0,sp,144
    18ce:	0000                	unimp
    18d0:	0501                	addi	a0,a0,0
    18d2:	01030603          	lb	a2,16(t1)
    18d6:	0809                	addi	a6,a6,2
    18d8:	0100                	addi	s0,sp,128
    18da:	3205                	jal	11fa <_min_stack-0xe06>
    18dc:	0306                	slli	t1,t1,0x1
    18de:	0900                	addi	s0,sp,144
    18e0:	0000                	unimp
    18e2:	0501                	addi	a0,a0,0
    18e4:	01030603          	lb	a2,16(t1)
    18e8:	0809                	addi	a6,a6,2
    18ea:	0100                	addi	s0,sp,128
    18ec:	3205                	jal	120c <_min_stack-0xdf4>
    18ee:	0306                	slli	t1,t1,0x1
    18f0:	0900                	addi	s0,sp,144
    18f2:	0000                	unimp
    18f4:	0501                	addi	a0,a0,0
    18f6:	01030603          	lb	a2,16(t1)
    18fa:	0809                	addi	a6,a6,2
    18fc:	0100                	addi	s0,sp,128
    18fe:	3205                	jal	121e <_min_stack-0xde2>
    1900:	0306                	slli	t1,t1,0x1
    1902:	0900                	addi	s0,sp,144
    1904:	0000                	unimp
    1906:	0501                	addi	a0,a0,0
    1908:	01030603          	lb	a2,16(t1)
    190c:	0809                	addi	a6,a6,2
    190e:	0100                	addi	s0,sp,128
    1910:	3205                	jal	1230 <_min_stack-0xdd0>
    1912:	0306                	slli	t1,t1,0x1
    1914:	0900                	addi	s0,sp,144
    1916:	0000                	unimp
    1918:	0501                	addi	a0,a0,0
    191a:	01030603          	lb	a2,16(t1)
    191e:	0809                	addi	a6,a6,2
    1920:	0100                	addi	s0,sp,128
    1922:	3205                	jal	1242 <_min_stack-0xdbe>
    1924:	0306                	slli	t1,t1,0x1
    1926:	0900                	addi	s0,sp,144
    1928:	0000                	unimp
    192a:	0501                	addi	a0,a0,0
    192c:	01030603          	lb	a2,16(t1)
    1930:	0809                	addi	a6,a6,2
    1932:	0100                	addi	s0,sp,128
    1934:	3205                	jal	1254 <_min_stack-0xdac>
    1936:	0306                	slli	t1,t1,0x1
    1938:	0900                	addi	s0,sp,144
    193a:	0000                	unimp
    193c:	0501                	addi	a0,a0,0
    193e:	01030603          	lb	a2,16(t1)
    1942:	0809                	addi	a6,a6,2
    1944:	0100                	addi	s0,sp,128
    1946:	3205                	jal	1266 <_min_stack-0xd9a>
    1948:	0306                	slli	t1,t1,0x1
    194a:	0900                	addi	s0,sp,144
    194c:	0000                	unimp
    194e:	0501                	addi	a0,a0,0
    1950:	01030603          	lb	a2,16(t1)
    1954:	0809                	addi	a6,a6,2
    1956:	0100                	addi	s0,sp,128
    1958:	3205                	jal	1278 <_min_stack-0xd88>
    195a:	0306                	slli	t1,t1,0x1
    195c:	0900                	addi	s0,sp,144
    195e:	0000                	unimp
    1960:	0501                	addi	a0,a0,0
    1962:	01030603          	lb	a2,16(t1)
    1966:	0809                	addi	a6,a6,2
    1968:	0100                	addi	s0,sp,128
    196a:	3205                	jal	128a <_min_stack-0xd76>
    196c:	0306                	slli	t1,t1,0x1
    196e:	0900                	addi	s0,sp,144
    1970:	0000                	unimp
    1972:	0501                	addi	a0,a0,0
    1974:	01030603          	lb	a2,16(t1)
    1978:	0809                	addi	a6,a6,2
    197a:	0100                	addi	s0,sp,128
    197c:	3205                	jal	129c <_min_stack-0xd64>
    197e:	0306                	slli	t1,t1,0x1
    1980:	0900                	addi	s0,sp,144
    1982:	0000                	unimp
    1984:	0501                	addi	a0,a0,0
    1986:	01030603          	lb	a2,16(t1)
    198a:	0809                	addi	a6,a6,2
    198c:	0100                	addi	s0,sp,128
    198e:	3205                	jal	12ae <_min_stack-0xd52>
    1990:	0306                	slli	t1,t1,0x1
    1992:	0900                	addi	s0,sp,144
    1994:	0000                	unimp
    1996:	0501                	addi	a0,a0,0
    1998:	01030603          	lb	a2,16(t1)
    199c:	0809                	addi	a6,a6,2
    199e:	0100                	addi	s0,sp,128
    19a0:	3205                	jal	12c0 <_min_stack-0xd40>
    19a2:	0306                	slli	t1,t1,0x1
    19a4:	0900                	addi	s0,sp,144
    19a6:	0000                	unimp
    19a8:	0501                	addi	a0,a0,0
    19aa:	01030603          	lb	a2,16(t1)
    19ae:	0809                	addi	a6,a6,2
    19b0:	0100                	addi	s0,sp,128
    19b2:	3205                	jal	12d2 <_min_stack-0xd2e>
    19b4:	0306                	slli	t1,t1,0x1
    19b6:	0900                	addi	s0,sp,144
    19b8:	0000                	unimp
    19ba:	0501                	addi	a0,a0,0
    19bc:	01030603          	lb	a2,16(t1)
    19c0:	0809                	addi	a6,a6,2
    19c2:	0100                	addi	s0,sp,128
    19c4:	3205                	jal	12e4 <_min_stack-0xd1c>
    19c6:	0306                	slli	t1,t1,0x1
    19c8:	0900                	addi	s0,sp,144
    19ca:	0000                	unimp
    19cc:	0501                	addi	a0,a0,0
    19ce:	01030603          	lb	a2,16(t1)
    19d2:	0809                	addi	a6,a6,2
    19d4:	0100                	addi	s0,sp,128
    19d6:	3205                	jal	12f6 <_min_stack-0xd0a>
    19d8:	0306                	slli	t1,t1,0x1
    19da:	0900                	addi	s0,sp,144
    19dc:	0000                	unimp
    19de:	0501                	addi	a0,a0,0
    19e0:	01030603          	lb	a2,16(t1)
    19e4:	0809                	addi	a6,a6,2
    19e6:	0100                	addi	s0,sp,128
    19e8:	3205                	jal	1308 <_min_stack-0xcf8>
    19ea:	0306                	slli	t1,t1,0x1
    19ec:	0900                	addi	s0,sp,144
    19ee:	0000                	unimp
    19f0:	0501                	addi	a0,a0,0
    19f2:	01030603          	lb	a2,16(t1)
    19f6:	0809                	addi	a6,a6,2
    19f8:	0100                	addi	s0,sp,128
    19fa:	3205                	jal	131a <_min_stack-0xce6>
    19fc:	0306                	slli	t1,t1,0x1
    19fe:	0900                	addi	s0,sp,144
    1a00:	0000                	unimp
    1a02:	0501                	addi	a0,a0,0
    1a04:	01030603          	lb	a2,16(t1)
    1a08:	0809                	addi	a6,a6,2
    1a0a:	0100                	addi	s0,sp,128
    1a0c:	3205                	jal	132c <_min_stack-0xcd4>
    1a0e:	0306                	slli	t1,t1,0x1
    1a10:	0900                	addi	s0,sp,144
    1a12:	0000                	unimp
    1a14:	0501                	addi	a0,a0,0
    1a16:	01030603          	lb	a2,16(t1)
    1a1a:	0809                	addi	a6,a6,2
    1a1c:	0100                	addi	s0,sp,128
    1a1e:	3205                	jal	133e <_min_stack-0xcc2>
    1a20:	0306                	slli	t1,t1,0x1
    1a22:	0900                	addi	s0,sp,144
    1a24:	0000                	unimp
    1a26:	0501                	addi	a0,a0,0
    1a28:	01030603          	lb	a2,16(t1)
    1a2c:	0809                	addi	a6,a6,2
    1a2e:	0100                	addi	s0,sp,128
    1a30:	3205                	jal	1350 <_min_stack-0xcb0>
    1a32:	0306                	slli	t1,t1,0x1
    1a34:	0900                	addi	s0,sp,144
    1a36:	0000                	unimp
    1a38:	0501                	addi	a0,a0,0
    1a3a:	01030603          	lb	a2,16(t1)
    1a3e:	0809                	addi	a6,a6,2
    1a40:	0100                	addi	s0,sp,128
    1a42:	3205                	jal	1362 <_min_stack-0xc9e>
    1a44:	0306                	slli	t1,t1,0x1
    1a46:	0900                	addi	s0,sp,144
    1a48:	0000                	unimp
    1a4a:	0501                	addi	a0,a0,0
    1a4c:	01030603          	lb	a2,16(t1)
    1a50:	0809                	addi	a6,a6,2
    1a52:	0100                	addi	s0,sp,128
    1a54:	3205                	jal	1374 <_min_stack-0xc8c>
    1a56:	0306                	slli	t1,t1,0x1
    1a58:	0900                	addi	s0,sp,144
    1a5a:	0000                	unimp
    1a5c:	0501                	addi	a0,a0,0
    1a5e:	01030603          	lb	a2,16(t1)
    1a62:	0809                	addi	a6,a6,2
    1a64:	0100                	addi	s0,sp,128
    1a66:	3205                	jal	1386 <_min_stack-0xc7a>
    1a68:	0306                	slli	t1,t1,0x1
    1a6a:	0900                	addi	s0,sp,144
    1a6c:	0000                	unimp
    1a6e:	0501                	addi	a0,a0,0
    1a70:	01030603          	lb	a2,16(t1)
    1a74:	0809                	addi	a6,a6,2
    1a76:	0100                	addi	s0,sp,128
    1a78:	3205                	jal	1398 <_min_stack-0xc68>
    1a7a:	0306                	slli	t1,t1,0x1
    1a7c:	0900                	addi	s0,sp,144
    1a7e:	0000                	unimp
    1a80:	0501                	addi	a0,a0,0
    1a82:	01030603          	lb	a2,16(t1)
    1a86:	0809                	addi	a6,a6,2
    1a88:	0100                	addi	s0,sp,128
    1a8a:	3205                	jal	13aa <_min_stack-0xc56>
    1a8c:	0306                	slli	t1,t1,0x1
    1a8e:	0900                	addi	s0,sp,144
    1a90:	0000                	unimp
    1a92:	0501                	addi	a0,a0,0
    1a94:	01030603          	lb	a2,16(t1)
    1a98:	0809                	addi	a6,a6,2
    1a9a:	0100                	addi	s0,sp,128
    1a9c:	3205                	jal	13bc <_min_stack-0xc44>
    1a9e:	0306                	slli	t1,t1,0x1
    1aa0:	0900                	addi	s0,sp,144
    1aa2:	0000                	unimp
    1aa4:	0501                	addi	a0,a0,0
    1aa6:	01030603          	lb	a2,16(t1)
    1aaa:	0809                	addi	a6,a6,2
    1aac:	0100                	addi	s0,sp,128
    1aae:	3205                	jal	13ce <_min_stack-0xc32>
    1ab0:	0306                	slli	t1,t1,0x1
    1ab2:	0900                	addi	s0,sp,144
    1ab4:	0000                	unimp
    1ab6:	0501                	addi	a0,a0,0
    1ab8:	01030603          	lb	a2,16(t1)
    1abc:	0809                	addi	a6,a6,2
    1abe:	0100                	addi	s0,sp,128
    1ac0:	3205                	jal	13e0 <_min_stack-0xc20>
    1ac2:	0306                	slli	t1,t1,0x1
    1ac4:	0900                	addi	s0,sp,144
    1ac6:	0000                	unimp
    1ac8:	0501                	addi	a0,a0,0
    1aca:	01030603          	lb	a2,16(t1)
    1ace:	0809                	addi	a6,a6,2
    1ad0:	0100                	addi	s0,sp,128
    1ad2:	3205                	jal	13f2 <_min_stack-0xc0e>
    1ad4:	0306                	slli	t1,t1,0x1
    1ad6:	0900                	addi	s0,sp,144
    1ad8:	0000                	unimp
    1ada:	0501                	addi	a0,a0,0
    1adc:	01030603          	lb	a2,16(t1)
    1ae0:	0809                	addi	a6,a6,2
    1ae2:	0100                	addi	s0,sp,128
    1ae4:	3205                	jal	1404 <_min_stack-0xbfc>
    1ae6:	0306                	slli	t1,t1,0x1
    1ae8:	0900                	addi	s0,sp,144
    1aea:	0000                	unimp
    1aec:	0501                	addi	a0,a0,0
    1aee:	01030603          	lb	a2,16(t1)
    1af2:	0809                	addi	a6,a6,2
    1af4:	0100                	addi	s0,sp,128
    1af6:	3205                	jal	1416 <_min_stack-0xbea>
    1af8:	0306                	slli	t1,t1,0x1
    1afa:	0900                	addi	s0,sp,144
    1afc:	0000                	unimp
    1afe:	0501                	addi	a0,a0,0
    1b00:	01030603          	lb	a2,16(t1)
    1b04:	0809                	addi	a6,a6,2
    1b06:	0100                	addi	s0,sp,128
    1b08:	3205                	jal	1428 <_min_stack-0xbd8>
    1b0a:	0306                	slli	t1,t1,0x1
    1b0c:	0900                	addi	s0,sp,144
    1b0e:	0000                	unimp
    1b10:	0501                	addi	a0,a0,0
    1b12:	01030603          	lb	a2,16(t1)
    1b16:	0809                	addi	a6,a6,2
    1b18:	0100                	addi	s0,sp,128
    1b1a:	3205                	jal	143a <_min_stack-0xbc6>
    1b1c:	0306                	slli	t1,t1,0x1
    1b1e:	0900                	addi	s0,sp,144
    1b20:	0000                	unimp
    1b22:	0501                	addi	a0,a0,0
    1b24:	01030603          	lb	a2,16(t1)
    1b28:	0809                	addi	a6,a6,2
    1b2a:	0100                	addi	s0,sp,128
    1b2c:	3205                	jal	144c <_min_stack-0xbb4>
    1b2e:	0306                	slli	t1,t1,0x1
    1b30:	0900                	addi	s0,sp,144
    1b32:	0000                	unimp
    1b34:	0501                	addi	a0,a0,0
    1b36:	01030603          	lb	a2,16(t1)
    1b3a:	0809                	addi	a6,a6,2
    1b3c:	0100                	addi	s0,sp,128
    1b3e:	3205                	jal	145e <_min_stack-0xba2>
    1b40:	0306                	slli	t1,t1,0x1
    1b42:	0900                	addi	s0,sp,144
    1b44:	0000                	unimp
    1b46:	0501                	addi	a0,a0,0
    1b48:	01030603          	lb	a2,16(t1)
    1b4c:	0809                	addi	a6,a6,2
    1b4e:	0100                	addi	s0,sp,128
    1b50:	3205                	jal	1470 <_min_stack-0xb90>
    1b52:	0306                	slli	t1,t1,0x1
    1b54:	0900                	addi	s0,sp,144
    1b56:	0000                	unimp
    1b58:	0501                	addi	a0,a0,0
    1b5a:	01030603          	lb	a2,16(t1)
    1b5e:	0809                	addi	a6,a6,2
    1b60:	0100                	addi	s0,sp,128
    1b62:	3205                	jal	1482 <_min_stack-0xb7e>
    1b64:	0306                	slli	t1,t1,0x1
    1b66:	0900                	addi	s0,sp,144
    1b68:	0000                	unimp
    1b6a:	0501                	addi	a0,a0,0
    1b6c:	01030603          	lb	a2,16(t1)
    1b70:	0809                	addi	a6,a6,2
    1b72:	0100                	addi	s0,sp,128
    1b74:	3205                	jal	1494 <_min_stack-0xb6c>
    1b76:	0306                	slli	t1,t1,0x1
    1b78:	0900                	addi	s0,sp,144
    1b7a:	0000                	unimp
    1b7c:	0501                	addi	a0,a0,0
    1b7e:	01030603          	lb	a2,16(t1)
    1b82:	0809                	addi	a6,a6,2
    1b84:	0100                	addi	s0,sp,128
    1b86:	3205                	jal	14a6 <_min_stack-0xb5a>
    1b88:	0306                	slli	t1,t1,0x1
    1b8a:	0900                	addi	s0,sp,144
    1b8c:	0000                	unimp
    1b8e:	0501                	addi	a0,a0,0
    1b90:	01030603          	lb	a2,16(t1)
    1b94:	0809                	addi	a6,a6,2
    1b96:	0100                	addi	s0,sp,128
    1b98:	3205                	jal	14b8 <_min_stack-0xb48>
    1b9a:	0306                	slli	t1,t1,0x1
    1b9c:	0900                	addi	s0,sp,144
    1b9e:	0000                	unimp
    1ba0:	0501                	addi	a0,a0,0
    1ba2:	01030603          	lb	a2,16(t1)
    1ba6:	0809                	addi	a6,a6,2
    1ba8:	0100                	addi	s0,sp,128
    1baa:	3205                	jal	14ca <_min_stack-0xb36>
    1bac:	0306                	slli	t1,t1,0x1
    1bae:	0900                	addi	s0,sp,144
    1bb0:	0000                	unimp
    1bb2:	0501                	addi	a0,a0,0
    1bb4:	01030603          	lb	a2,16(t1)
    1bb8:	0809                	addi	a6,a6,2
    1bba:	0100                	addi	s0,sp,128
    1bbc:	3205                	jal	14dc <_min_stack-0xb24>
    1bbe:	0306                	slli	t1,t1,0x1
    1bc0:	0900                	addi	s0,sp,144
    1bc2:	0000                	unimp
    1bc4:	0501                	addi	a0,a0,0
    1bc6:	01030603          	lb	a2,16(t1)
    1bca:	0809                	addi	a6,a6,2
    1bcc:	0100                	addi	s0,sp,128
    1bce:	3205                	jal	14ee <_min_stack-0xb12>
    1bd0:	0306                	slli	t1,t1,0x1
    1bd2:	0900                	addi	s0,sp,144
    1bd4:	0000                	unimp
    1bd6:	0501                	addi	a0,a0,0
    1bd8:	01030603          	lb	a2,16(t1)
    1bdc:	0809                	addi	a6,a6,2
    1bde:	0100                	addi	s0,sp,128
    1be0:	3205                	jal	1500 <_min_stack-0xb00>
    1be2:	0306                	slli	t1,t1,0x1
    1be4:	0900                	addi	s0,sp,144
    1be6:	0000                	unimp
    1be8:	0501                	addi	a0,a0,0
    1bea:	01030603          	lb	a2,16(t1)
    1bee:	0809                	addi	a6,a6,2
    1bf0:	0100                	addi	s0,sp,128
    1bf2:	3205                	jal	1512 <_min_stack-0xaee>
    1bf4:	0306                	slli	t1,t1,0x1
    1bf6:	0900                	addi	s0,sp,144
    1bf8:	0000                	unimp
    1bfa:	0501                	addi	a0,a0,0
    1bfc:	01030603          	lb	a2,16(t1)
    1c00:	0809                	addi	a6,a6,2
    1c02:	0100                	addi	s0,sp,128
    1c04:	3205                	jal	1524 <_min_stack-0xadc>
    1c06:	0306                	slli	t1,t1,0x1
    1c08:	0900                	addi	s0,sp,144
    1c0a:	0000                	unimp
    1c0c:	0501                	addi	a0,a0,0
    1c0e:	01030603          	lb	a2,16(t1)
    1c12:	0809                	addi	a6,a6,2
    1c14:	0100                	addi	s0,sp,128
    1c16:	3205                	jal	1536 <_min_stack-0xaca>
    1c18:	0306                	slli	t1,t1,0x1
    1c1a:	0900                	addi	s0,sp,144
    1c1c:	0000                	unimp
    1c1e:	0501                	addi	a0,a0,0
    1c20:	01030603          	lb	a2,16(t1)
    1c24:	0809                	addi	a6,a6,2
    1c26:	0100                	addi	s0,sp,128
    1c28:	3205                	jal	1548 <_min_stack-0xab8>
    1c2a:	0306                	slli	t1,t1,0x1
    1c2c:	0900                	addi	s0,sp,144
    1c2e:	0000                	unimp
    1c30:	0501                	addi	a0,a0,0
    1c32:	01030603          	lb	a2,16(t1)
    1c36:	0809                	addi	a6,a6,2
    1c38:	0100                	addi	s0,sp,128
    1c3a:	3205                	jal	155a <_min_stack-0xaa6>
    1c3c:	0306                	slli	t1,t1,0x1
    1c3e:	0900                	addi	s0,sp,144
    1c40:	0000                	unimp
    1c42:	0501                	addi	a0,a0,0
    1c44:	01030603          	lb	a2,16(t1)
    1c48:	0809                	addi	a6,a6,2
    1c4a:	0100                	addi	s0,sp,128
    1c4c:	3205                	jal	156c <_min_stack-0xa94>
    1c4e:	0306                	slli	t1,t1,0x1
    1c50:	0900                	addi	s0,sp,144
    1c52:	0000                	unimp
    1c54:	0501                	addi	a0,a0,0
    1c56:	01030603          	lb	a2,16(t1)
    1c5a:	0809                	addi	a6,a6,2
    1c5c:	0100                	addi	s0,sp,128
    1c5e:	3205                	jal	157e <_min_stack-0xa82>
    1c60:	0306                	slli	t1,t1,0x1
    1c62:	0900                	addi	s0,sp,144
    1c64:	0000                	unimp
    1c66:	0501                	addi	a0,a0,0
    1c68:	01030603          	lb	a2,16(t1)
    1c6c:	0809                	addi	a6,a6,2
    1c6e:	0100                	addi	s0,sp,128
    1c70:	3205                	jal	1590 <_min_stack-0xa70>
    1c72:	0306                	slli	t1,t1,0x1
    1c74:	0900                	addi	s0,sp,144
    1c76:	0000                	unimp
    1c78:	0501                	addi	a0,a0,0
    1c7a:	01030603          	lb	a2,16(t1)
    1c7e:	0809                	addi	a6,a6,2
    1c80:	0100                	addi	s0,sp,128
    1c82:	3205                	jal	15a2 <_min_stack-0xa5e>
    1c84:	0306                	slli	t1,t1,0x1
    1c86:	0900                	addi	s0,sp,144
    1c88:	0000                	unimp
    1c8a:	0501                	addi	a0,a0,0
    1c8c:	01030603          	lb	a2,16(t1)
    1c90:	0809                	addi	a6,a6,2
    1c92:	0100                	addi	s0,sp,128
    1c94:	3205                	jal	15b4 <_min_stack-0xa4c>
    1c96:	0306                	slli	t1,t1,0x1
    1c98:	0900                	addi	s0,sp,144
    1c9a:	0000                	unimp
    1c9c:	0501                	addi	a0,a0,0
    1c9e:	01030603          	lb	a2,16(t1)
    1ca2:	0809                	addi	a6,a6,2
    1ca4:	0100                	addi	s0,sp,128
    1ca6:	3205                	jal	15c6 <_min_stack-0xa3a>
    1ca8:	0306                	slli	t1,t1,0x1
    1caa:	0900                	addi	s0,sp,144
    1cac:	0000                	unimp
    1cae:	0501                	addi	a0,a0,0
    1cb0:	01030603          	lb	a2,16(t1)
    1cb4:	0809                	addi	a6,a6,2
    1cb6:	0100                	addi	s0,sp,128
    1cb8:	3205                	jal	15d8 <_min_stack-0xa28>
    1cba:	0306                	slli	t1,t1,0x1
    1cbc:	0900                	addi	s0,sp,144
    1cbe:	0000                	unimp
    1cc0:	0501                	addi	a0,a0,0
    1cc2:	01030603          	lb	a2,16(t1)
    1cc6:	0809                	addi	a6,a6,2
    1cc8:	0100                	addi	s0,sp,128
    1cca:	3205                	jal	15ea <_min_stack-0xa16>
    1ccc:	0306                	slli	t1,t1,0x1
    1cce:	0900                	addi	s0,sp,144
    1cd0:	0000                	unimp
    1cd2:	0501                	addi	a0,a0,0
    1cd4:	01030603          	lb	a2,16(t1)
    1cd8:	0809                	addi	a6,a6,2
    1cda:	0100                	addi	s0,sp,128
    1cdc:	3205                	jal	15fc <_min_stack-0xa04>
    1cde:	0306                	slli	t1,t1,0x1
    1ce0:	0900                	addi	s0,sp,144
    1ce2:	0000                	unimp
    1ce4:	0501                	addi	a0,a0,0
    1ce6:	01030603          	lb	a2,16(t1)
    1cea:	0809                	addi	a6,a6,2
    1cec:	0100                	addi	s0,sp,128
    1cee:	3205                	jal	160e <_min_stack-0x9f2>
    1cf0:	0306                	slli	t1,t1,0x1
    1cf2:	0900                	addi	s0,sp,144
    1cf4:	0000                	unimp
    1cf6:	0501                	addi	a0,a0,0
    1cf8:	01030603          	lb	a2,16(t1)
    1cfc:	0809                	addi	a6,a6,2
    1cfe:	0100                	addi	s0,sp,128
    1d00:	3205                	jal	1620 <_min_stack-0x9e0>
    1d02:	0306                	slli	t1,t1,0x1
    1d04:	0900                	addi	s0,sp,144
    1d06:	0000                	unimp
    1d08:	0501                	addi	a0,a0,0
    1d0a:	01030603          	lb	a2,16(t1)
    1d0e:	0809                	addi	a6,a6,2
    1d10:	0100                	addi	s0,sp,128
    1d12:	3205                	jal	1632 <_min_stack-0x9ce>
    1d14:	0306                	slli	t1,t1,0x1
    1d16:	0900                	addi	s0,sp,144
    1d18:	0000                	unimp
    1d1a:	0501                	addi	a0,a0,0
    1d1c:	01030603          	lb	a2,16(t1)
    1d20:	0809                	addi	a6,a6,2
    1d22:	0100                	addi	s0,sp,128
    1d24:	3205                	jal	1644 <_min_stack-0x9bc>
    1d26:	0306                	slli	t1,t1,0x1
    1d28:	0900                	addi	s0,sp,144
    1d2a:	0000                	unimp
    1d2c:	0501                	addi	a0,a0,0
    1d2e:	01030603          	lb	a2,16(t1)
    1d32:	0809                	addi	a6,a6,2
    1d34:	0100                	addi	s0,sp,128
    1d36:	3205                	jal	1656 <_min_stack-0x9aa>
    1d38:	0306                	slli	t1,t1,0x1
    1d3a:	0900                	addi	s0,sp,144
    1d3c:	0000                	unimp
    1d3e:	0501                	addi	a0,a0,0
    1d40:	01030603          	lb	a2,16(t1)
    1d44:	0809                	addi	a6,a6,2
    1d46:	0100                	addi	s0,sp,128
    1d48:	3205                	jal	1668 <_min_stack-0x998>
    1d4a:	0306                	slli	t1,t1,0x1
    1d4c:	0900                	addi	s0,sp,144
    1d4e:	0000                	unimp
    1d50:	0501                	addi	a0,a0,0
    1d52:	01030603          	lb	a2,16(t1)
    1d56:	0809                	addi	a6,a6,2
    1d58:	0100                	addi	s0,sp,128
    1d5a:	3205                	jal	167a <_min_stack-0x986>
    1d5c:	0306                	slli	t1,t1,0x1
    1d5e:	0900                	addi	s0,sp,144
    1d60:	0000                	unimp
    1d62:	0501                	addi	a0,a0,0
    1d64:	01030603          	lb	a2,16(t1)
    1d68:	0809                	addi	a6,a6,2
    1d6a:	0100                	addi	s0,sp,128
    1d6c:	3205                	jal	168c <_min_stack-0x974>
    1d6e:	0306                	slli	t1,t1,0x1
    1d70:	0900                	addi	s0,sp,144
    1d72:	0000                	unimp
    1d74:	0501                	addi	a0,a0,0
    1d76:	01030603          	lb	a2,16(t1)
    1d7a:	0809                	addi	a6,a6,2
    1d7c:	0100                	addi	s0,sp,128
    1d7e:	3205                	jal	169e <_min_stack-0x962>
    1d80:	0306                	slli	t1,t1,0x1
    1d82:	0900                	addi	s0,sp,144
    1d84:	0000                	unimp
    1d86:	0501                	addi	a0,a0,0
    1d88:	01030603          	lb	a2,16(t1)
    1d8c:	0809                	addi	a6,a6,2
    1d8e:	0100                	addi	s0,sp,128
    1d90:	3205                	jal	16b0 <_min_stack-0x950>
    1d92:	0306                	slli	t1,t1,0x1
    1d94:	0900                	addi	s0,sp,144
    1d96:	0000                	unimp
    1d98:	0501                	addi	a0,a0,0
    1d9a:	01030603          	lb	a2,16(t1)
    1d9e:	0809                	addi	a6,a6,2
    1da0:	0100                	addi	s0,sp,128
    1da2:	3205                	jal	16c2 <_min_stack-0x93e>
    1da4:	0306                	slli	t1,t1,0x1
    1da6:	0900                	addi	s0,sp,144
    1da8:	0000                	unimp
    1daa:	0501                	addi	a0,a0,0
    1dac:	01030603          	lb	a2,16(t1)
    1db0:	0809                	addi	a6,a6,2
    1db2:	0100                	addi	s0,sp,128
    1db4:	3205                	jal	16d4 <_min_stack-0x92c>
    1db6:	0306                	slli	t1,t1,0x1
    1db8:	0900                	addi	s0,sp,144
    1dba:	0000                	unimp
    1dbc:	0501                	addi	a0,a0,0
    1dbe:	01030603          	lb	a2,16(t1)
    1dc2:	0809                	addi	a6,a6,2
    1dc4:	0100                	addi	s0,sp,128
    1dc6:	3205                	jal	16e6 <_min_stack-0x91a>
    1dc8:	0306                	slli	t1,t1,0x1
    1dca:	0900                	addi	s0,sp,144
    1dcc:	0000                	unimp
    1dce:	0501                	addi	a0,a0,0
    1dd0:	01030603          	lb	a2,16(t1)
    1dd4:	0809                	addi	a6,a6,2
    1dd6:	0100                	addi	s0,sp,128
    1dd8:	3205                	jal	16f8 <_min_stack-0x908>
    1dda:	0306                	slli	t1,t1,0x1
    1ddc:	0900                	addi	s0,sp,144
    1dde:	0000                	unimp
    1de0:	0501                	addi	a0,a0,0
    1de2:	01030603          	lb	a2,16(t1)
    1de6:	0809                	addi	a6,a6,2
    1de8:	0100                	addi	s0,sp,128
    1dea:	3205                	jal	170a <_min_stack-0x8f6>
    1dec:	0306                	slli	t1,t1,0x1
    1dee:	0900                	addi	s0,sp,144
    1df0:	0000                	unimp
    1df2:	0501                	addi	a0,a0,0
    1df4:	01030603          	lb	a2,16(t1)
    1df8:	0809                	addi	a6,a6,2
    1dfa:	0100                	addi	s0,sp,128
    1dfc:	3205                	jal	171c <_min_stack-0x8e4>
    1dfe:	0306                	slli	t1,t1,0x1
    1e00:	0900                	addi	s0,sp,144
    1e02:	0000                	unimp
    1e04:	0501                	addi	a0,a0,0
    1e06:	01030603          	lb	a2,16(t1)
    1e0a:	0809                	addi	a6,a6,2
    1e0c:	0100                	addi	s0,sp,128
    1e0e:	3205                	jal	172e <_min_stack-0x8d2>
    1e10:	0306                	slli	t1,t1,0x1
    1e12:	0900                	addi	s0,sp,144
    1e14:	0000                	unimp
    1e16:	0501                	addi	a0,a0,0
    1e18:	01030603          	lb	a2,16(t1)
    1e1c:	0809                	addi	a6,a6,2
    1e1e:	0100                	addi	s0,sp,128
    1e20:	3205                	jal	1740 <_min_stack-0x8c0>
    1e22:	0306                	slli	t1,t1,0x1
    1e24:	0900                	addi	s0,sp,144
    1e26:	0000                	unimp
    1e28:	0501                	addi	a0,a0,0
    1e2a:	01030603          	lb	a2,16(t1)
    1e2e:	0809                	addi	a6,a6,2
    1e30:	0100                	addi	s0,sp,128
    1e32:	3205                	jal	1752 <_min_stack-0x8ae>
    1e34:	0306                	slli	t1,t1,0x1
    1e36:	0900                	addi	s0,sp,144
    1e38:	0000                	unimp
    1e3a:	0501                	addi	a0,a0,0
    1e3c:	01030603          	lb	a2,16(t1)
    1e40:	0809                	addi	a6,a6,2
    1e42:	0100                	addi	s0,sp,128
    1e44:	3205                	jal	1764 <_min_stack-0x89c>
    1e46:	0306                	slli	t1,t1,0x1
    1e48:	0900                	addi	s0,sp,144
    1e4a:	0000                	unimp
    1e4c:	0501                	addi	a0,a0,0
    1e4e:	01030603          	lb	a2,16(t1)
    1e52:	0809                	addi	a6,a6,2
    1e54:	0100                	addi	s0,sp,128
    1e56:	3205                	jal	1776 <_min_stack-0x88a>
    1e58:	0306                	slli	t1,t1,0x1
    1e5a:	0900                	addi	s0,sp,144
    1e5c:	0000                	unimp
    1e5e:	0501                	addi	a0,a0,0
    1e60:	01030603          	lb	a2,16(t1)
    1e64:	0809                	addi	a6,a6,2
    1e66:	0100                	addi	s0,sp,128
    1e68:	3205                	jal	1788 <_min_stack-0x878>
    1e6a:	0306                	slli	t1,t1,0x1
    1e6c:	0900                	addi	s0,sp,144
    1e6e:	0000                	unimp
    1e70:	0501                	addi	a0,a0,0
    1e72:	01030603          	lb	a2,16(t1)
    1e76:	0809                	addi	a6,a6,2
    1e78:	0100                	addi	s0,sp,128
    1e7a:	3205                	jal	179a <_min_stack-0x866>
    1e7c:	0306                	slli	t1,t1,0x1
    1e7e:	0900                	addi	s0,sp,144
    1e80:	0000                	unimp
    1e82:	0501                	addi	a0,a0,0
    1e84:	01030603          	lb	a2,16(t1)
    1e88:	0809                	addi	a6,a6,2
    1e8a:	0100                	addi	s0,sp,128
    1e8c:	3205                	jal	17ac <_min_stack-0x854>
    1e8e:	0306                	slli	t1,t1,0x1
    1e90:	0900                	addi	s0,sp,144
    1e92:	0000                	unimp
    1e94:	0501                	addi	a0,a0,0
    1e96:	01030603          	lb	a2,16(t1)
    1e9a:	0809                	addi	a6,a6,2
    1e9c:	0100                	addi	s0,sp,128
    1e9e:	3205                	jal	17be <_min_stack-0x842>
    1ea0:	0306                	slli	t1,t1,0x1
    1ea2:	0900                	addi	s0,sp,144
    1ea4:	0000                	unimp
    1ea6:	0501                	addi	a0,a0,0
    1ea8:	01030603          	lb	a2,16(t1)
    1eac:	0809                	addi	a6,a6,2
    1eae:	0100                	addi	s0,sp,128
    1eb0:	3205                	jal	17d0 <_min_stack-0x830>
    1eb2:	0306                	slli	t1,t1,0x1
    1eb4:	0900                	addi	s0,sp,144
    1eb6:	0000                	unimp
    1eb8:	0501                	addi	a0,a0,0
    1eba:	01030603          	lb	a2,16(t1)
    1ebe:	0809                	addi	a6,a6,2
    1ec0:	0100                	addi	s0,sp,128
    1ec2:	3205                	jal	17e2 <_min_stack-0x81e>
    1ec4:	0306                	slli	t1,t1,0x1
    1ec6:	0900                	addi	s0,sp,144
    1ec8:	0000                	unimp
    1eca:	0501                	addi	a0,a0,0
    1ecc:	01030603          	lb	a2,16(t1)
    1ed0:	0809                	addi	a6,a6,2
    1ed2:	0100                	addi	s0,sp,128
    1ed4:	3205                	jal	17f4 <_min_stack-0x80c>
    1ed6:	0306                	slli	t1,t1,0x1
    1ed8:	0900                	addi	s0,sp,144
    1eda:	0000                	unimp
    1edc:	0501                	addi	a0,a0,0
    1ede:	01030603          	lb	a2,16(t1)
    1ee2:	0809                	addi	a6,a6,2
    1ee4:	0100                	addi	s0,sp,128
    1ee6:	3205                	jal	1806 <_min_stack-0x7fa>
    1ee8:	0306                	slli	t1,t1,0x1
    1eea:	0900                	addi	s0,sp,144
    1eec:	0000                	unimp
    1eee:	0501                	addi	a0,a0,0
    1ef0:	01030603          	lb	a2,16(t1)
    1ef4:	0809                	addi	a6,a6,2
    1ef6:	0100                	addi	s0,sp,128
    1ef8:	3205                	jal	1818 <_min_stack-0x7e8>
    1efa:	0306                	slli	t1,t1,0x1
    1efc:	0900                	addi	s0,sp,144
    1efe:	0000                	unimp
    1f00:	0501                	addi	a0,a0,0
    1f02:	01030603          	lb	a2,16(t1)
    1f06:	0809                	addi	a6,a6,2
    1f08:	0100                	addi	s0,sp,128
    1f0a:	3205                	jal	182a <_min_stack-0x7d6>
    1f0c:	0306                	slli	t1,t1,0x1
    1f0e:	0900                	addi	s0,sp,144
    1f10:	0000                	unimp
    1f12:	0501                	addi	a0,a0,0
    1f14:	01030603          	lb	a2,16(t1)
    1f18:	0809                	addi	a6,a6,2
    1f1a:	0100                	addi	s0,sp,128
    1f1c:	3205                	jal	183c <_min_stack-0x7c4>
    1f1e:	0306                	slli	t1,t1,0x1
    1f20:	0900                	addi	s0,sp,144
    1f22:	0000                	unimp
    1f24:	0501                	addi	a0,a0,0
    1f26:	01030603          	lb	a2,16(t1)
    1f2a:	0809                	addi	a6,a6,2
    1f2c:	0100                	addi	s0,sp,128
    1f2e:	3205                	jal	184e <_min_stack-0x7b2>
    1f30:	0306                	slli	t1,t1,0x1
    1f32:	0900                	addi	s0,sp,144
    1f34:	0000                	unimp
    1f36:	0501                	addi	a0,a0,0
    1f38:	01030603          	lb	a2,16(t1)
    1f3c:	0809                	addi	a6,a6,2
    1f3e:	0100                	addi	s0,sp,128
    1f40:	3205                	jal	1860 <_min_stack-0x7a0>
    1f42:	0306                	slli	t1,t1,0x1
    1f44:	0900                	addi	s0,sp,144
    1f46:	0000                	unimp
    1f48:	0501                	addi	a0,a0,0
    1f4a:	01030603          	lb	a2,16(t1)
    1f4e:	0809                	addi	a6,a6,2
    1f50:	0100                	addi	s0,sp,128
    1f52:	3205                	jal	1872 <_min_stack-0x78e>
    1f54:	0306                	slli	t1,t1,0x1
    1f56:	0900                	addi	s0,sp,144
    1f58:	0000                	unimp
    1f5a:	0501                	addi	a0,a0,0
    1f5c:	01030603          	lb	a2,16(t1)
    1f60:	0809                	addi	a6,a6,2
    1f62:	0100                	addi	s0,sp,128
    1f64:	3205                	jal	1884 <_min_stack-0x77c>
    1f66:	0306                	slli	t1,t1,0x1
    1f68:	0900                	addi	s0,sp,144
    1f6a:	0000                	unimp
    1f6c:	0501                	addi	a0,a0,0
    1f6e:	01030603          	lb	a2,16(t1)
    1f72:	0809                	addi	a6,a6,2
    1f74:	0100                	addi	s0,sp,128
    1f76:	3205                	jal	1896 <_min_stack-0x76a>
    1f78:	0306                	slli	t1,t1,0x1
    1f7a:	0900                	addi	s0,sp,144
    1f7c:	0000                	unimp
    1f7e:	0501                	addi	a0,a0,0
    1f80:	01030603          	lb	a2,16(t1)
    1f84:	0809                	addi	a6,a6,2
    1f86:	0100                	addi	s0,sp,128
    1f88:	3205                	jal	18a8 <_min_stack-0x758>
    1f8a:	0306                	slli	t1,t1,0x1
    1f8c:	0900                	addi	s0,sp,144
    1f8e:	0000                	unimp
    1f90:	0501                	addi	a0,a0,0
    1f92:	01030603          	lb	a2,16(t1)
    1f96:	0809                	addi	a6,a6,2
    1f98:	0100                	addi	s0,sp,128
    1f9a:	3205                	jal	18ba <_min_stack-0x746>
    1f9c:	0306                	slli	t1,t1,0x1
    1f9e:	0900                	addi	s0,sp,144
    1fa0:	0000                	unimp
    1fa2:	0501                	addi	a0,a0,0
    1fa4:	01030603          	lb	a2,16(t1)
    1fa8:	0809                	addi	a6,a6,2
    1faa:	0100                	addi	s0,sp,128
    1fac:	3205                	jal	18cc <_min_stack-0x734>
    1fae:	0306                	slli	t1,t1,0x1
    1fb0:	0900                	addi	s0,sp,144
    1fb2:	0000                	unimp
    1fb4:	0501                	addi	a0,a0,0
    1fb6:	01030603          	lb	a2,16(t1)
    1fba:	0809                	addi	a6,a6,2
    1fbc:	0100                	addi	s0,sp,128
    1fbe:	3205                	jal	18de <_min_stack-0x722>
    1fc0:	0306                	slli	t1,t1,0x1
    1fc2:	0900                	addi	s0,sp,144
    1fc4:	0000                	unimp
    1fc6:	0501                	addi	a0,a0,0
    1fc8:	01030603          	lb	a2,16(t1)
    1fcc:	0809                	addi	a6,a6,2
    1fce:	0100                	addi	s0,sp,128
    1fd0:	3205                	jal	18f0 <_min_stack-0x710>
    1fd2:	0306                	slli	t1,t1,0x1
    1fd4:	0900                	addi	s0,sp,144
    1fd6:	0000                	unimp
    1fd8:	0501                	addi	a0,a0,0
    1fda:	01030603          	lb	a2,16(t1)
    1fde:	0809                	addi	a6,a6,2
    1fe0:	0100                	addi	s0,sp,128
    1fe2:	3205                	jal	1902 <_min_stack-0x6fe>
    1fe4:	0306                	slli	t1,t1,0x1
    1fe6:	0900                	addi	s0,sp,144
    1fe8:	0000                	unimp
    1fea:	0501                	addi	a0,a0,0
    1fec:	01030603          	lb	a2,16(t1)
    1ff0:	0809                	addi	a6,a6,2
    1ff2:	0100                	addi	s0,sp,128
    1ff4:	3205                	jal	1914 <_min_stack-0x6ec>
    1ff6:	0306                	slli	t1,t1,0x1
    1ff8:	0900                	addi	s0,sp,144
    1ffa:	0000                	unimp
    1ffc:	0501                	addi	a0,a0,0
    1ffe:	01030603          	lb	a2,16(t1)
    2002:	0809                	addi	a6,a6,2
    2004:	0100                	addi	s0,sp,128
    2006:	3205                	jal	1926 <_min_stack-0x6da>
    2008:	0306                	slli	t1,t1,0x1
    200a:	0900                	addi	s0,sp,144
    200c:	0000                	unimp
    200e:	0501                	addi	a0,a0,0
    2010:	01030603          	lb	a2,16(t1)
    2014:	0809                	addi	a6,a6,2
    2016:	0100                	addi	s0,sp,128
    2018:	3205                	jal	1938 <_min_stack-0x6c8>
    201a:	0306                	slli	t1,t1,0x1
    201c:	0900                	addi	s0,sp,144
    201e:	0000                	unimp
    2020:	0501                	addi	a0,a0,0
    2022:	01030603          	lb	a2,16(t1)
    2026:	0809                	addi	a6,a6,2
    2028:	0100                	addi	s0,sp,128
    202a:	3205                	jal	194a <_min_stack-0x6b6>
    202c:	0306                	slli	t1,t1,0x1
    202e:	0900                	addi	s0,sp,144
    2030:	0000                	unimp
    2032:	0501                	addi	a0,a0,0
    2034:	01030603          	lb	a2,16(t1)
    2038:	0809                	addi	a6,a6,2
    203a:	0100                	addi	s0,sp,128
    203c:	3205                	jal	195c <_min_stack-0x6a4>
    203e:	0306                	slli	t1,t1,0x1
    2040:	0900                	addi	s0,sp,144
    2042:	0000                	unimp
    2044:	0501                	addi	a0,a0,0
    2046:	01030603          	lb	a2,16(t1)
    204a:	0809                	addi	a6,a6,2
    204c:	0100                	addi	s0,sp,128
    204e:	3205                	jal	196e <_min_stack-0x692>
    2050:	0306                	slli	t1,t1,0x1
    2052:	0900                	addi	s0,sp,144
    2054:	0000                	unimp
    2056:	0501                	addi	a0,a0,0
    2058:	01030603          	lb	a2,16(t1)
    205c:	0809                	addi	a6,a6,2
    205e:	0100                	addi	s0,sp,128
    2060:	3205                	jal	1980 <_min_stack-0x680>
    2062:	0306                	slli	t1,t1,0x1
    2064:	0900                	addi	s0,sp,144
    2066:	0000                	unimp
    2068:	0501                	addi	a0,a0,0
    206a:	01030603          	lb	a2,16(t1)
    206e:	0809                	addi	a6,a6,2
    2070:	0100                	addi	s0,sp,128
    2072:	3205                	jal	1992 <_min_stack-0x66e>
    2074:	0306                	slli	t1,t1,0x1
    2076:	0900                	addi	s0,sp,144
    2078:	0000                	unimp
    207a:	0501                	addi	a0,a0,0
    207c:	01030603          	lb	a2,16(t1)
    2080:	0809                	addi	a6,a6,2
    2082:	0100                	addi	s0,sp,128
    2084:	3205                	jal	19a4 <_min_stack-0x65c>
    2086:	0306                	slli	t1,t1,0x1
    2088:	0900                	addi	s0,sp,144
    208a:	0000                	unimp
    208c:	0501                	addi	a0,a0,0
    208e:	01030603          	lb	a2,16(t1)
    2092:	0809                	addi	a6,a6,2
    2094:	0100                	addi	s0,sp,128
    2096:	3205                	jal	19b6 <_min_stack-0x64a>
    2098:	0306                	slli	t1,t1,0x1
    209a:	0900                	addi	s0,sp,144
    209c:	0000                	unimp
    209e:	0501                	addi	a0,a0,0
    20a0:	01030603          	lb	a2,16(t1)
    20a4:	0809                	addi	a6,a6,2
    20a6:	0100                	addi	s0,sp,128
    20a8:	3205                	jal	19c8 <_min_stack-0x638>
    20aa:	0306                	slli	t1,t1,0x1
    20ac:	0900                	addi	s0,sp,144
    20ae:	0000                	unimp
    20b0:	0501                	addi	a0,a0,0
    20b2:	01030603          	lb	a2,16(t1)
    20b6:	0809                	addi	a6,a6,2
    20b8:	0100                	addi	s0,sp,128
    20ba:	3205                	jal	19da <_min_stack-0x626>
    20bc:	0306                	slli	t1,t1,0x1
    20be:	0900                	addi	s0,sp,144
    20c0:	0000                	unimp
    20c2:	0501                	addi	a0,a0,0
    20c4:	01030603          	lb	a2,16(t1)
    20c8:	0809                	addi	a6,a6,2
    20ca:	0100                	addi	s0,sp,128
    20cc:	3205                	jal	19ec <_min_stack-0x614>
    20ce:	0306                	slli	t1,t1,0x1
    20d0:	0900                	addi	s0,sp,144
    20d2:	0000                	unimp
    20d4:	0501                	addi	a0,a0,0
    20d6:	01030603          	lb	a2,16(t1)
    20da:	0809                	addi	a6,a6,2
    20dc:	0100                	addi	s0,sp,128
    20de:	3205                	jal	19fe <_min_stack-0x602>
    20e0:	0306                	slli	t1,t1,0x1
    20e2:	0900                	addi	s0,sp,144
    20e4:	0000                	unimp
    20e6:	0501                	addi	a0,a0,0
    20e8:	01030603          	lb	a2,16(t1)
    20ec:	0809                	addi	a6,a6,2
    20ee:	0100                	addi	s0,sp,128
    20f0:	3205                	jal	1a10 <_min_stack-0x5f0>
    20f2:	0306                	slli	t1,t1,0x1
    20f4:	0900                	addi	s0,sp,144
    20f6:	0000                	unimp
    20f8:	0501                	addi	a0,a0,0
    20fa:	01030603          	lb	a2,16(t1)
    20fe:	0809                	addi	a6,a6,2
    2100:	0100                	addi	s0,sp,128
    2102:	3205                	jal	1a22 <_min_stack-0x5de>
    2104:	0306                	slli	t1,t1,0x1
    2106:	0900                	addi	s0,sp,144
    2108:	0000                	unimp
    210a:	0501                	addi	a0,a0,0
    210c:	01030603          	lb	a2,16(t1)
    2110:	0809                	addi	a6,a6,2
    2112:	0100                	addi	s0,sp,128
    2114:	3205                	jal	1a34 <_min_stack-0x5cc>
    2116:	0306                	slli	t1,t1,0x1
    2118:	0900                	addi	s0,sp,144
    211a:	0000                	unimp
    211c:	0501                	addi	a0,a0,0
    211e:	01030603          	lb	a2,16(t1)
    2122:	0809                	addi	a6,a6,2
    2124:	0100                	addi	s0,sp,128
    2126:	3205                	jal	1a46 <_min_stack-0x5ba>
    2128:	0306                	slli	t1,t1,0x1
    212a:	0900                	addi	s0,sp,144
    212c:	0000                	unimp
    212e:	0501                	addi	a0,a0,0
    2130:	01030603          	lb	a2,16(t1)
    2134:	0809                	addi	a6,a6,2
    2136:	0100                	addi	s0,sp,128
    2138:	3205                	jal	1a58 <_min_stack-0x5a8>
    213a:	0306                	slli	t1,t1,0x1
    213c:	0900                	addi	s0,sp,144
    213e:	0000                	unimp
    2140:	0501                	addi	a0,a0,0
    2142:	01030603          	lb	a2,16(t1)
    2146:	0809                	addi	a6,a6,2
    2148:	0100                	addi	s0,sp,128
    214a:	3205                	jal	1a6a <_min_stack-0x596>
    214c:	0306                	slli	t1,t1,0x1
    214e:	0900                	addi	s0,sp,144
    2150:	0000                	unimp
    2152:	0501                	addi	a0,a0,0
    2154:	01030603          	lb	a2,16(t1)
    2158:	0809                	addi	a6,a6,2
    215a:	0100                	addi	s0,sp,128
    215c:	3205                	jal	1a7c <_min_stack-0x584>
    215e:	0306                	slli	t1,t1,0x1
    2160:	0900                	addi	s0,sp,144
    2162:	0000                	unimp
    2164:	0501                	addi	a0,a0,0
    2166:	01030603          	lb	a2,16(t1)
    216a:	0809                	addi	a6,a6,2
    216c:	0100                	addi	s0,sp,128
    216e:	3205                	jal	1a8e <_min_stack-0x572>
    2170:	0306                	slli	t1,t1,0x1
    2172:	0900                	addi	s0,sp,144
    2174:	0000                	unimp
    2176:	0501                	addi	a0,a0,0
    2178:	01030603          	lb	a2,16(t1)
    217c:	0809                	addi	a6,a6,2
    217e:	0100                	addi	s0,sp,128
    2180:	3205                	jal	1aa0 <_min_stack-0x560>
    2182:	0306                	slli	t1,t1,0x1
    2184:	0900                	addi	s0,sp,144
    2186:	0000                	unimp
    2188:	0501                	addi	a0,a0,0
    218a:	01030603          	lb	a2,16(t1)
    218e:	0809                	addi	a6,a6,2
    2190:	0100                	addi	s0,sp,128
    2192:	3205                	jal	1ab2 <_min_stack-0x54e>
    2194:	0306                	slli	t1,t1,0x1
    2196:	0900                	addi	s0,sp,144
    2198:	0000                	unimp
    219a:	0501                	addi	a0,a0,0
    219c:	01030603          	lb	a2,16(t1)
    21a0:	0809                	addi	a6,a6,2
    21a2:	0100                	addi	s0,sp,128
    21a4:	3205                	jal	1ac4 <_min_stack-0x53c>
    21a6:	0306                	slli	t1,t1,0x1
    21a8:	0900                	addi	s0,sp,144
    21aa:	0000                	unimp
    21ac:	0501                	addi	a0,a0,0
    21ae:	01030603          	lb	a2,16(t1)
    21b2:	0809                	addi	a6,a6,2
    21b4:	0100                	addi	s0,sp,128
    21b6:	3205                	jal	1ad6 <_min_stack-0x52a>
    21b8:	0306                	slli	t1,t1,0x1
    21ba:	0900                	addi	s0,sp,144
    21bc:	0000                	unimp
    21be:	0501                	addi	a0,a0,0
    21c0:	01030603          	lb	a2,16(t1)
    21c4:	0809                	addi	a6,a6,2
    21c6:	0100                	addi	s0,sp,128
    21c8:	3205                	jal	1ae8 <_min_stack-0x518>
    21ca:	0306                	slli	t1,t1,0x1
    21cc:	0900                	addi	s0,sp,144
    21ce:	0000                	unimp
    21d0:	0501                	addi	a0,a0,0
    21d2:	01030603          	lb	a2,16(t1)
    21d6:	0809                	addi	a6,a6,2
    21d8:	0100                	addi	s0,sp,128
    21da:	3205                	jal	1afa <_min_stack-0x506>
    21dc:	0306                	slli	t1,t1,0x1
    21de:	0900                	addi	s0,sp,144
    21e0:	0000                	unimp
    21e2:	0501                	addi	a0,a0,0
    21e4:	01030603          	lb	a2,16(t1)
    21e8:	0809                	addi	a6,a6,2
    21ea:	0100                	addi	s0,sp,128
    21ec:	3205                	jal	1b0c <_min_stack-0x4f4>
    21ee:	0306                	slli	t1,t1,0x1
    21f0:	0900                	addi	s0,sp,144
    21f2:	0000                	unimp
    21f4:	0501                	addi	a0,a0,0
    21f6:	01030603          	lb	a2,16(t1)
    21fa:	0809                	addi	a6,a6,2
    21fc:	0100                	addi	s0,sp,128
    21fe:	3205                	jal	1b1e <_min_stack-0x4e2>
    2200:	0306                	slli	t1,t1,0x1
    2202:	0900                	addi	s0,sp,144
    2204:	0000                	unimp
    2206:	0501                	addi	a0,a0,0
    2208:	01030603          	lb	a2,16(t1)
    220c:	0809                	addi	a6,a6,2
    220e:	0100                	addi	s0,sp,128
    2210:	3205                	jal	1b30 <_min_stack-0x4d0>
    2212:	0306                	slli	t1,t1,0x1
    2214:	0900                	addi	s0,sp,144
    2216:	0000                	unimp
    2218:	0501                	addi	a0,a0,0
    221a:	01030603          	lb	a2,16(t1)
    221e:	0809                	addi	a6,a6,2
    2220:	0100                	addi	s0,sp,128
    2222:	3205                	jal	1b42 <_min_stack-0x4be>
    2224:	0306                	slli	t1,t1,0x1
    2226:	0900                	addi	s0,sp,144
    2228:	0000                	unimp
    222a:	0501                	addi	a0,a0,0
    222c:	01030603          	lb	a2,16(t1)
    2230:	0809                	addi	a6,a6,2
    2232:	0100                	addi	s0,sp,128
    2234:	3205                	jal	1b54 <_min_stack-0x4ac>
    2236:	0306                	slli	t1,t1,0x1
    2238:	0900                	addi	s0,sp,144
    223a:	0000                	unimp
    223c:	0501                	addi	a0,a0,0
    223e:	01030603          	lb	a2,16(t1)
    2242:	0809                	addi	a6,a6,2
    2244:	0100                	addi	s0,sp,128
    2246:	3205                	jal	1b66 <_min_stack-0x49a>
    2248:	0306                	slli	t1,t1,0x1
    224a:	0900                	addi	s0,sp,144
    224c:	0000                	unimp
    224e:	0501                	addi	a0,a0,0
    2250:	01030603          	lb	a2,16(t1)
    2254:	0809                	addi	a6,a6,2
    2256:	0100                	addi	s0,sp,128
    2258:	3205                	jal	1b78 <_min_stack-0x488>
    225a:	0306                	slli	t1,t1,0x1
    225c:	0900                	addi	s0,sp,144
    225e:	0000                	unimp
    2260:	0501                	addi	a0,a0,0
    2262:	01030603          	lb	a2,16(t1)
    2266:	0809                	addi	a6,a6,2
    2268:	0100                	addi	s0,sp,128
    226a:	3205                	jal	1b8a <_min_stack-0x476>
    226c:	0306                	slli	t1,t1,0x1
    226e:	0900                	addi	s0,sp,144
    2270:	0000                	unimp
    2272:	0501                	addi	a0,a0,0
    2274:	01030603          	lb	a2,16(t1)
    2278:	0809                	addi	a6,a6,2
    227a:	0100                	addi	s0,sp,128
    227c:	3205                	jal	1b9c <_min_stack-0x464>
    227e:	0306                	slli	t1,t1,0x1
    2280:	0900                	addi	s0,sp,144
    2282:	0000                	unimp
    2284:	0501                	addi	a0,a0,0
    2286:	01030603          	lb	a2,16(t1)
    228a:	0809                	addi	a6,a6,2
    228c:	0100                	addi	s0,sp,128
    228e:	3205                	jal	1bae <_min_stack-0x452>
    2290:	0306                	slli	t1,t1,0x1
    2292:	0900                	addi	s0,sp,144
    2294:	0000                	unimp
    2296:	0501                	addi	a0,a0,0
    2298:	01030603          	lb	a2,16(t1)
    229c:	0809                	addi	a6,a6,2
    229e:	0100                	addi	s0,sp,128
    22a0:	3205                	jal	1bc0 <_min_stack-0x440>
    22a2:	0306                	slli	t1,t1,0x1
    22a4:	0900                	addi	s0,sp,144
    22a6:	0000                	unimp
    22a8:	0501                	addi	a0,a0,0
    22aa:	01030603          	lb	a2,16(t1)
    22ae:	0809                	addi	a6,a6,2
    22b0:	0100                	addi	s0,sp,128
    22b2:	3205                	jal	1bd2 <_min_stack-0x42e>
    22b4:	0306                	slli	t1,t1,0x1
    22b6:	0900                	addi	s0,sp,144
    22b8:	0000                	unimp
    22ba:	0501                	addi	a0,a0,0
    22bc:	01030603          	lb	a2,16(t1)
    22c0:	0809                	addi	a6,a6,2
    22c2:	0100                	addi	s0,sp,128
    22c4:	3205                	jal	1be4 <_min_stack-0x41c>
    22c6:	0306                	slli	t1,t1,0x1
    22c8:	0900                	addi	s0,sp,144
    22ca:	0000                	unimp
    22cc:	0501                	addi	a0,a0,0
    22ce:	01030603          	lb	a2,16(t1)
    22d2:	0809                	addi	a6,a6,2
    22d4:	0100                	addi	s0,sp,128
    22d6:	3205                	jal	1bf6 <_min_stack-0x40a>
    22d8:	0306                	slli	t1,t1,0x1
    22da:	0900                	addi	s0,sp,144
    22dc:	0000                	unimp
    22de:	0501                	addi	a0,a0,0
    22e0:	01030603          	lb	a2,16(t1)
    22e4:	0809                	addi	a6,a6,2
    22e6:	0100                	addi	s0,sp,128
    22e8:	3205                	jal	1c08 <_min_stack-0x3f8>
    22ea:	0306                	slli	t1,t1,0x1
    22ec:	0900                	addi	s0,sp,144
    22ee:	0000                	unimp
    22f0:	0501                	addi	a0,a0,0
    22f2:	01030603          	lb	a2,16(t1)
    22f6:	0809                	addi	a6,a6,2
    22f8:	0100                	addi	s0,sp,128
    22fa:	3205                	jal	1c1a <_min_stack-0x3e6>
    22fc:	0306                	slli	t1,t1,0x1
    22fe:	0900                	addi	s0,sp,144
    2300:	0000                	unimp
    2302:	0501                	addi	a0,a0,0
    2304:	01030603          	lb	a2,16(t1)
    2308:	0809                	addi	a6,a6,2
    230a:	0100                	addi	s0,sp,128
    230c:	3205                	jal	1c2c <_min_stack-0x3d4>
    230e:	0306                	slli	t1,t1,0x1
    2310:	0900                	addi	s0,sp,144
    2312:	0000                	unimp
    2314:	0501                	addi	a0,a0,0
    2316:	01030603          	lb	a2,16(t1)
    231a:	0809                	addi	a6,a6,2
    231c:	0100                	addi	s0,sp,128
    231e:	3205                	jal	1c3e <_min_stack-0x3c2>
    2320:	0306                	slli	t1,t1,0x1
    2322:	0900                	addi	s0,sp,144
    2324:	0000                	unimp
    2326:	0501                	addi	a0,a0,0
    2328:	01030603          	lb	a2,16(t1)
    232c:	0809                	addi	a6,a6,2
    232e:	0100                	addi	s0,sp,128
    2330:	3205                	jal	1c50 <_min_stack-0x3b0>
    2332:	0306                	slli	t1,t1,0x1
    2334:	0900                	addi	s0,sp,144
    2336:	0000                	unimp
    2338:	0501                	addi	a0,a0,0
    233a:	01030603          	lb	a2,16(t1)
    233e:	0809                	addi	a6,a6,2
    2340:	0100                	addi	s0,sp,128
    2342:	3205                	jal	1c62 <_min_stack-0x39e>
    2344:	0306                	slli	t1,t1,0x1
    2346:	0900                	addi	s0,sp,144
    2348:	0000                	unimp
    234a:	0501                	addi	a0,a0,0
    234c:	01030603          	lb	a2,16(t1)
    2350:	0809                	addi	a6,a6,2
    2352:	0100                	addi	s0,sp,128
    2354:	3205                	jal	1c74 <_min_stack-0x38c>
    2356:	0306                	slli	t1,t1,0x1
    2358:	0900                	addi	s0,sp,144
    235a:	0000                	unimp
    235c:	0501                	addi	a0,a0,0
    235e:	01030603          	lb	a2,16(t1)
    2362:	0809                	addi	a6,a6,2
    2364:	0100                	addi	s0,sp,128
    2366:	3205                	jal	1c86 <_min_stack-0x37a>
    2368:	0306                	slli	t1,t1,0x1
    236a:	0900                	addi	s0,sp,144
    236c:	0000                	unimp
    236e:	0501                	addi	a0,a0,0
    2370:	01030603          	lb	a2,16(t1)
    2374:	0809                	addi	a6,a6,2
    2376:	0100                	addi	s0,sp,128
    2378:	3205                	jal	1c98 <_min_stack-0x368>
    237a:	0306                	slli	t1,t1,0x1
    237c:	0900                	addi	s0,sp,144
    237e:	0000                	unimp
    2380:	0501                	addi	a0,a0,0
    2382:	01030603          	lb	a2,16(t1)
    2386:	0809                	addi	a6,a6,2
    2388:	0100                	addi	s0,sp,128
    238a:	3205                	jal	1caa <_min_stack-0x356>
    238c:	0306                	slli	t1,t1,0x1
    238e:	0900                	addi	s0,sp,144
    2390:	0000                	unimp
    2392:	0501                	addi	a0,a0,0
    2394:	01030603          	lb	a2,16(t1)
    2398:	0809                	addi	a6,a6,2
    239a:	0100                	addi	s0,sp,128
    239c:	3205                	jal	1cbc <_min_stack-0x344>
    239e:	0306                	slli	t1,t1,0x1
    23a0:	0900                	addi	s0,sp,144
    23a2:	0000                	unimp
    23a4:	0501                	addi	a0,a0,0
    23a6:	01030603          	lb	a2,16(t1)
    23aa:	0809                	addi	a6,a6,2
    23ac:	0100                	addi	s0,sp,128
    23ae:	3205                	jal	1cce <_min_stack-0x332>
    23b0:	0306                	slli	t1,t1,0x1
    23b2:	0900                	addi	s0,sp,144
    23b4:	0000                	unimp
    23b6:	0501                	addi	a0,a0,0
    23b8:	01030603          	lb	a2,16(t1)
    23bc:	0809                	addi	a6,a6,2
    23be:	0100                	addi	s0,sp,128
    23c0:	3205                	jal	1ce0 <_min_stack-0x320>
    23c2:	0306                	slli	t1,t1,0x1
    23c4:	0900                	addi	s0,sp,144
    23c6:	0000                	unimp
    23c8:	0501                	addi	a0,a0,0
    23ca:	01030603          	lb	a2,16(t1)
    23ce:	0809                	addi	a6,a6,2
    23d0:	0100                	addi	s0,sp,128
    23d2:	3205                	jal	1cf2 <_min_stack-0x30e>
    23d4:	0306                	slli	t1,t1,0x1
    23d6:	0900                	addi	s0,sp,144
    23d8:	0000                	unimp
    23da:	0501                	addi	a0,a0,0
    23dc:	01030603          	lb	a2,16(t1)
    23e0:	0809                	addi	a6,a6,2
    23e2:	0100                	addi	s0,sp,128
    23e4:	3205                	jal	1d04 <_min_stack-0x2fc>
    23e6:	0306                	slli	t1,t1,0x1
    23e8:	0900                	addi	s0,sp,144
    23ea:	0000                	unimp
    23ec:	0501                	addi	a0,a0,0
    23ee:	01030603          	lb	a2,16(t1)
    23f2:	0809                	addi	a6,a6,2
    23f4:	0100                	addi	s0,sp,128
    23f6:	3205                	jal	1d16 <_min_stack-0x2ea>
    23f8:	0306                	slli	t1,t1,0x1
    23fa:	0900                	addi	s0,sp,144
    23fc:	0000                	unimp
    23fe:	0501                	addi	a0,a0,0
    2400:	01030603          	lb	a2,16(t1)
    2404:	0809                	addi	a6,a6,2
    2406:	0100                	addi	s0,sp,128
    2408:	3205                	jal	1d28 <_min_stack-0x2d8>
    240a:	0306                	slli	t1,t1,0x1
    240c:	0900                	addi	s0,sp,144
    240e:	0000                	unimp
    2410:	0501                	addi	a0,a0,0
    2412:	01030603          	lb	a2,16(t1)
    2416:	0809                	addi	a6,a6,2
    2418:	0100                	addi	s0,sp,128
    241a:	3205                	jal	1d3a <_min_stack-0x2c6>
    241c:	0306                	slli	t1,t1,0x1
    241e:	0900                	addi	s0,sp,144
    2420:	0000                	unimp
    2422:	0501                	addi	a0,a0,0
    2424:	01030603          	lb	a2,16(t1)
    2428:	0809                	addi	a6,a6,2
    242a:	0100                	addi	s0,sp,128
    242c:	3205                	jal	1d4c <_min_stack-0x2b4>
    242e:	0306                	slli	t1,t1,0x1
    2430:	0900                	addi	s0,sp,144
    2432:	0000                	unimp
    2434:	0501                	addi	a0,a0,0
    2436:	01030603          	lb	a2,16(t1)
    243a:	0809                	addi	a6,a6,2
    243c:	0100                	addi	s0,sp,128
    243e:	3205                	jal	1d5e <_min_stack-0x2a2>
    2440:	0306                	slli	t1,t1,0x1
    2442:	0900                	addi	s0,sp,144
    2444:	0000                	unimp
    2446:	0501                	addi	a0,a0,0
    2448:	01030603          	lb	a2,16(t1)
    244c:	0809                	addi	a6,a6,2
    244e:	0100                	addi	s0,sp,128
    2450:	3205                	jal	1d70 <_min_stack-0x290>
    2452:	0306                	slli	t1,t1,0x1
    2454:	0900                	addi	s0,sp,144
    2456:	0000                	unimp
    2458:	0501                	addi	a0,a0,0
    245a:	01030603          	lb	a2,16(t1)
    245e:	0809                	addi	a6,a6,2
    2460:	0100                	addi	s0,sp,128
    2462:	3205                	jal	1d82 <_min_stack-0x27e>
    2464:	0306                	slli	t1,t1,0x1
    2466:	0900                	addi	s0,sp,144
    2468:	0000                	unimp
    246a:	0501                	addi	a0,a0,0
    246c:	01030603          	lb	a2,16(t1)
    2470:	0809                	addi	a6,a6,2
    2472:	0100                	addi	s0,sp,128
    2474:	3205                	jal	1d94 <_min_stack-0x26c>
    2476:	0306                	slli	t1,t1,0x1
    2478:	0900                	addi	s0,sp,144
    247a:	0000                	unimp
    247c:	0501                	addi	a0,a0,0
    247e:	01030603          	lb	a2,16(t1)
    2482:	0809                	addi	a6,a6,2
    2484:	0100                	addi	s0,sp,128
    2486:	3205                	jal	1da6 <_min_stack-0x25a>
    2488:	0306                	slli	t1,t1,0x1
    248a:	0900                	addi	s0,sp,144
    248c:	0000                	unimp
    248e:	0501                	addi	a0,a0,0
    2490:	01030603          	lb	a2,16(t1)
    2494:	0809                	addi	a6,a6,2
    2496:	0100                	addi	s0,sp,128
    2498:	3205                	jal	1db8 <_min_stack-0x248>
    249a:	0306                	slli	t1,t1,0x1
    249c:	0900                	addi	s0,sp,144
    249e:	0000                	unimp
    24a0:	0501                	addi	a0,a0,0
    24a2:	01030603          	lb	a2,16(t1)
    24a6:	0809                	addi	a6,a6,2
    24a8:	0100                	addi	s0,sp,128
    24aa:	3205                	jal	1dca <_min_stack-0x236>
    24ac:	0306                	slli	t1,t1,0x1
    24ae:	0900                	addi	s0,sp,144
    24b0:	0000                	unimp
    24b2:	0501                	addi	a0,a0,0
    24b4:	01030603          	lb	a2,16(t1)
    24b8:	0809                	addi	a6,a6,2
    24ba:	0100                	addi	s0,sp,128
    24bc:	3205                	jal	1ddc <_min_stack-0x224>
    24be:	0306                	slli	t1,t1,0x1
    24c0:	0900                	addi	s0,sp,144
    24c2:	0000                	unimp
    24c4:	0501                	addi	a0,a0,0
    24c6:	01030603          	lb	a2,16(t1)
    24ca:	0809                	addi	a6,a6,2
    24cc:	0100                	addi	s0,sp,128
    24ce:	3205                	jal	1dee <_min_stack-0x212>
    24d0:	0306                	slli	t1,t1,0x1
    24d2:	0900                	addi	s0,sp,144
    24d4:	0000                	unimp
    24d6:	0501                	addi	a0,a0,0
    24d8:	01030603          	lb	a2,16(t1)
    24dc:	0809                	addi	a6,a6,2
    24de:	0100                	addi	s0,sp,128
    24e0:	3205                	jal	1e00 <_min_stack-0x200>
    24e2:	0306                	slli	t1,t1,0x1
    24e4:	0900                	addi	s0,sp,144
    24e6:	0000                	unimp
    24e8:	0501                	addi	a0,a0,0
    24ea:	01030603          	lb	a2,16(t1)
    24ee:	0809                	addi	a6,a6,2
    24f0:	0100                	addi	s0,sp,128
    24f2:	3205                	jal	1e12 <_min_stack-0x1ee>
    24f4:	0306                	slli	t1,t1,0x1
    24f6:	0900                	addi	s0,sp,144
    24f8:	0000                	unimp
    24fa:	0501                	addi	a0,a0,0
    24fc:	01030603          	lb	a2,16(t1)
    2500:	0809                	addi	a6,a6,2
    2502:	0100                	addi	s0,sp,128
    2504:	3205                	jal	1e24 <_min_stack-0x1dc>
    2506:	0306                	slli	t1,t1,0x1
    2508:	0900                	addi	s0,sp,144
    250a:	0000                	unimp
    250c:	0501                	addi	a0,a0,0
    250e:	01030603          	lb	a2,16(t1)
    2512:	0809                	addi	a6,a6,2
    2514:	0100                	addi	s0,sp,128
    2516:	3205                	jal	1e36 <_min_stack-0x1ca>
    2518:	0306                	slli	t1,t1,0x1
    251a:	0900                	addi	s0,sp,144
    251c:	0000                	unimp
    251e:	0501                	addi	a0,a0,0
    2520:	01030603          	lb	a2,16(t1)
    2524:	0809                	addi	a6,a6,2
    2526:	0100                	addi	s0,sp,128
    2528:	3205                	jal	1e48 <_min_stack-0x1b8>
    252a:	0306                	slli	t1,t1,0x1
    252c:	0900                	addi	s0,sp,144
    252e:	0000                	unimp
    2530:	0501                	addi	a0,a0,0
    2532:	01030603          	lb	a2,16(t1)
    2536:	0809                	addi	a6,a6,2
    2538:	0100                	addi	s0,sp,128
    253a:	3205                	jal	1e5a <_min_stack-0x1a6>
    253c:	0306                	slli	t1,t1,0x1
    253e:	0900                	addi	s0,sp,144
    2540:	0000                	unimp
    2542:	0501                	addi	a0,a0,0
    2544:	01030603          	lb	a2,16(t1)
    2548:	0809                	addi	a6,a6,2
    254a:	0100                	addi	s0,sp,128
    254c:	3205                	jal	1e6c <_min_stack-0x194>
    254e:	0306                	slli	t1,t1,0x1
    2550:	0900                	addi	s0,sp,144
    2552:	0000                	unimp
    2554:	0501                	addi	a0,a0,0
    2556:	01030603          	lb	a2,16(t1)
    255a:	0809                	addi	a6,a6,2
    255c:	0100                	addi	s0,sp,128
    255e:	3205                	jal	1e7e <_min_stack-0x182>
    2560:	0306                	slli	t1,t1,0x1
    2562:	0900                	addi	s0,sp,144
    2564:	0000                	unimp
    2566:	0501                	addi	a0,a0,0
    2568:	01030603          	lb	a2,16(t1)
    256c:	0809                	addi	a6,a6,2
    256e:	0100                	addi	s0,sp,128
    2570:	3205                	jal	1e90 <_min_stack-0x170>
    2572:	0306                	slli	t1,t1,0x1
    2574:	0900                	addi	s0,sp,144
    2576:	0000                	unimp
    2578:	0501                	addi	a0,a0,0
    257a:	01030603          	lb	a2,16(t1)
    257e:	0809                	addi	a6,a6,2
    2580:	0100                	addi	s0,sp,128
    2582:	3205                	jal	1ea2 <_min_stack-0x15e>
    2584:	0306                	slli	t1,t1,0x1
    2586:	0900                	addi	s0,sp,144
    2588:	0000                	unimp
    258a:	0501                	addi	a0,a0,0
    258c:	01030603          	lb	a2,16(t1)
    2590:	0809                	addi	a6,a6,2
    2592:	0100                	addi	s0,sp,128
    2594:	3205                	jal	1eb4 <_min_stack-0x14c>
    2596:	0306                	slli	t1,t1,0x1
    2598:	0900                	addi	s0,sp,144
    259a:	0000                	unimp
    259c:	0501                	addi	a0,a0,0
    259e:	01030603          	lb	a2,16(t1)
    25a2:	0809                	addi	a6,a6,2
    25a4:	0100                	addi	s0,sp,128
    25a6:	3205                	jal	1ec6 <_min_stack-0x13a>
    25a8:	0306                	slli	t1,t1,0x1
    25aa:	0900                	addi	s0,sp,144
    25ac:	0000                	unimp
    25ae:	0501                	addi	a0,a0,0
    25b0:	01030603          	lb	a2,16(t1)
    25b4:	0809                	addi	a6,a6,2
    25b6:	0100                	addi	s0,sp,128
    25b8:	3205                	jal	1ed8 <_min_stack-0x128>
    25ba:	0306                	slli	t1,t1,0x1
    25bc:	0900                	addi	s0,sp,144
    25be:	0000                	unimp
    25c0:	0501                	addi	a0,a0,0
    25c2:	01030603          	lb	a2,16(t1)
    25c6:	0809                	addi	a6,a6,2
    25c8:	0100                	addi	s0,sp,128
    25ca:	3205                	jal	1eea <_min_stack-0x116>
    25cc:	0306                	slli	t1,t1,0x1
    25ce:	0900                	addi	s0,sp,144
    25d0:	0000                	unimp
    25d2:	0501                	addi	a0,a0,0
    25d4:	01030603          	lb	a2,16(t1)
    25d8:	0809                	addi	a6,a6,2
    25da:	0100                	addi	s0,sp,128
    25dc:	3205                	jal	1efc <_min_stack-0x104>
    25de:	0306                	slli	t1,t1,0x1
    25e0:	0900                	addi	s0,sp,144
    25e2:	0000                	unimp
    25e4:	0501                	addi	a0,a0,0
    25e6:	01030603          	lb	a2,16(t1)
    25ea:	0809                	addi	a6,a6,2
    25ec:	0100                	addi	s0,sp,128
    25ee:	3205                	jal	1f0e <_min_stack-0xf2>
    25f0:	0306                	slli	t1,t1,0x1
    25f2:	0900                	addi	s0,sp,144
    25f4:	0000                	unimp
    25f6:	0501                	addi	a0,a0,0
    25f8:	01030603          	lb	a2,16(t1)
    25fc:	0809                	addi	a6,a6,2
    25fe:	0100                	addi	s0,sp,128
    2600:	3205                	jal	1f20 <_min_stack-0xe0>
    2602:	0306                	slli	t1,t1,0x1
    2604:	0900                	addi	s0,sp,144
    2606:	0000                	unimp
    2608:	0501                	addi	a0,a0,0
    260a:	01030603          	lb	a2,16(t1)
    260e:	0809                	addi	a6,a6,2
    2610:	0100                	addi	s0,sp,128
    2612:	3205                	jal	1f32 <_min_stack-0xce>
    2614:	0306                	slli	t1,t1,0x1
    2616:	0900                	addi	s0,sp,144
    2618:	0000                	unimp
    261a:	0501                	addi	a0,a0,0
    261c:	01030603          	lb	a2,16(t1)
    2620:	0809                	addi	a6,a6,2
    2622:	0100                	addi	s0,sp,128
    2624:	3205                	jal	1f44 <_min_stack-0xbc>
    2626:	0306                	slli	t1,t1,0x1
    2628:	0900                	addi	s0,sp,144
    262a:	0000                	unimp
    262c:	0501                	addi	a0,a0,0
    262e:	01030603          	lb	a2,16(t1)
    2632:	0809                	addi	a6,a6,2
    2634:	0100                	addi	s0,sp,128
    2636:	3205                	jal	1f56 <_min_stack-0xaa>
    2638:	0306                	slli	t1,t1,0x1
    263a:	0900                	addi	s0,sp,144
    263c:	0000                	unimp
    263e:	0501                	addi	a0,a0,0
    2640:	01030603          	lb	a2,16(t1)
    2644:	0809                	addi	a6,a6,2
    2646:	0100                	addi	s0,sp,128
    2648:	3205                	jal	1f68 <_min_stack-0x98>
    264a:	0306                	slli	t1,t1,0x1
    264c:	0900                	addi	s0,sp,144
    264e:	0000                	unimp
    2650:	0501                	addi	a0,a0,0
    2652:	01030603          	lb	a2,16(t1)
    2656:	0809                	addi	a6,a6,2
    2658:	0100                	addi	s0,sp,128
    265a:	3205                	jal	1f7a <_min_stack-0x86>
    265c:	0306                	slli	t1,t1,0x1
    265e:	0900                	addi	s0,sp,144
    2660:	0000                	unimp
    2662:	0501                	addi	a0,a0,0
    2664:	01030603          	lb	a2,16(t1)
    2668:	0809                	addi	a6,a6,2
    266a:	0100                	addi	s0,sp,128
    266c:	3205                	jal	1f8c <_min_stack-0x74>
    266e:	0306                	slli	t1,t1,0x1
    2670:	0900                	addi	s0,sp,144
    2672:	0000                	unimp
    2674:	0501                	addi	a0,a0,0
    2676:	01030603          	lb	a2,16(t1)
    267a:	0809                	addi	a6,a6,2
    267c:	0100                	addi	s0,sp,128
    267e:	3205                	jal	1f9e <_min_stack-0x62>
    2680:	0306                	slli	t1,t1,0x1
    2682:	0900                	addi	s0,sp,144
    2684:	0000                	unimp
    2686:	0501                	addi	a0,a0,0
    2688:	01030603          	lb	a2,16(t1)
    268c:	0809                	addi	a6,a6,2
    268e:	0100                	addi	s0,sp,128
    2690:	3205                	jal	1fb0 <_min_stack-0x50>
    2692:	0306                	slli	t1,t1,0x1
    2694:	0900                	addi	s0,sp,144
    2696:	0000                	unimp
    2698:	0501                	addi	a0,a0,0
    269a:	01030603          	lb	a2,16(t1)
    269e:	0809                	addi	a6,a6,2
    26a0:	0100                	addi	s0,sp,128
    26a2:	3205                	jal	1fc2 <_min_stack-0x3e>
    26a4:	0306                	slli	t1,t1,0x1
    26a6:	0900                	addi	s0,sp,144
    26a8:	0000                	unimp
    26aa:	0501                	addi	a0,a0,0
    26ac:	01030603          	lb	a2,16(t1)
    26b0:	0809                	addi	a6,a6,2
    26b2:	0100                	addi	s0,sp,128
    26b4:	3205                	jal	1fd4 <_min_stack-0x2c>
    26b6:	0306                	slli	t1,t1,0x1
    26b8:	0900                	addi	s0,sp,144
    26ba:	0000                	unimp
    26bc:	0501                	addi	a0,a0,0
    26be:	01030603          	lb	a2,16(t1)
    26c2:	0809                	addi	a6,a6,2
    26c4:	0100                	addi	s0,sp,128
    26c6:	3205                	jal	1fe6 <_min_stack-0x1a>
    26c8:	0306                	slli	t1,t1,0x1
    26ca:	0900                	addi	s0,sp,144
    26cc:	0000                	unimp
    26ce:	0501                	addi	a0,a0,0
    26d0:	01030603          	lb	a2,16(t1)
    26d4:	0809                	addi	a6,a6,2
    26d6:	0100                	addi	s0,sp,128
    26d8:	3205                	jal	1ff8 <_min_stack-0x8>
    26da:	0306                	slli	t1,t1,0x1
    26dc:	0900                	addi	s0,sp,144
    26de:	0000                	unimp
    26e0:	0501                	addi	a0,a0,0
    26e2:	01030603          	lb	a2,16(t1)
    26e6:	0809                	addi	a6,a6,2
    26e8:	0100                	addi	s0,sp,128
    26ea:	3205                	jal	200a <_min_stack+0xa>
    26ec:	0306                	slli	t1,t1,0x1
    26ee:	0900                	addi	s0,sp,144
    26f0:	0000                	unimp
    26f2:	0501                	addi	a0,a0,0
    26f4:	01030603          	lb	a2,16(t1)
    26f8:	0809                	addi	a6,a6,2
    26fa:	0100                	addi	s0,sp,128
    26fc:	3205                	jal	201c <_min_stack+0x1c>
    26fe:	0306                	slli	t1,t1,0x1
    2700:	0900                	addi	s0,sp,144
    2702:	0000                	unimp
    2704:	0501                	addi	a0,a0,0
    2706:	01030603          	lb	a2,16(t1)
    270a:	0809                	addi	a6,a6,2
    270c:	0100                	addi	s0,sp,128
    270e:	3205                	jal	202e <_min_stack+0x2e>
    2710:	0306                	slli	t1,t1,0x1
    2712:	0900                	addi	s0,sp,144
    2714:	0000                	unimp
    2716:	0501                	addi	a0,a0,0
    2718:	01030603          	lb	a2,16(t1)
    271c:	0809                	addi	a6,a6,2
    271e:	0100                	addi	s0,sp,128
    2720:	3205                	jal	2040 <_min_stack+0x40>
    2722:	0306                	slli	t1,t1,0x1
    2724:	0900                	addi	s0,sp,144
    2726:	0000                	unimp
    2728:	0501                	addi	a0,a0,0
    272a:	01030603          	lb	a2,16(t1)
    272e:	0809                	addi	a6,a6,2
    2730:	0100                	addi	s0,sp,128
    2732:	3205                	jal	2052 <_min_stack+0x52>
    2734:	0306                	slli	t1,t1,0x1
    2736:	0900                	addi	s0,sp,144
    2738:	0000                	unimp
    273a:	0501                	addi	a0,a0,0
    273c:	01030603          	lb	a2,16(t1)
    2740:	0809                	addi	a6,a6,2
    2742:	0100                	addi	s0,sp,128
    2744:	3205                	jal	2064 <_min_stack+0x64>
    2746:	0306                	slli	t1,t1,0x1
    2748:	0900                	addi	s0,sp,144
    274a:	0000                	unimp
    274c:	0501                	addi	a0,a0,0
    274e:	01030603          	lb	a2,16(t1)
    2752:	0809                	addi	a6,a6,2
    2754:	0100                	addi	s0,sp,128
    2756:	3205                	jal	2076 <_min_stack+0x76>
    2758:	0306                	slli	t1,t1,0x1
    275a:	0900                	addi	s0,sp,144
    275c:	0000                	unimp
    275e:	0501                	addi	a0,a0,0
    2760:	01030603          	lb	a2,16(t1)
    2764:	0809                	addi	a6,a6,2
    2766:	0100                	addi	s0,sp,128
    2768:	3205                	jal	2088 <_min_stack+0x88>
    276a:	0306                	slli	t1,t1,0x1
    276c:	0900                	addi	s0,sp,144
    276e:	0000                	unimp
    2770:	0501                	addi	a0,a0,0
    2772:	01030603          	lb	a2,16(t1)
    2776:	0809                	addi	a6,a6,2
    2778:	0100                	addi	s0,sp,128
    277a:	3205                	jal	209a <_min_stack+0x9a>
    277c:	0306                	slli	t1,t1,0x1
    277e:	0900                	addi	s0,sp,144
    2780:	0000                	unimp
    2782:	0501                	addi	a0,a0,0
    2784:	01030603          	lb	a2,16(t1)
    2788:	0809                	addi	a6,a6,2
    278a:	0100                	addi	s0,sp,128
    278c:	3205                	jal	20ac <_min_stack+0xac>
    278e:	0306                	slli	t1,t1,0x1
    2790:	0900                	addi	s0,sp,144
    2792:	0000                	unimp
    2794:	0501                	addi	a0,a0,0
    2796:	01030603          	lb	a2,16(t1)
    279a:	0809                	addi	a6,a6,2
    279c:	0100                	addi	s0,sp,128
    279e:	3205                	jal	20be <_min_stack+0xbe>
    27a0:	0306                	slli	t1,t1,0x1
    27a2:	0900                	addi	s0,sp,144
    27a4:	0000                	unimp
    27a6:	0501                	addi	a0,a0,0
    27a8:	01030603          	lb	a2,16(t1)
    27ac:	0809                	addi	a6,a6,2
    27ae:	0100                	addi	s0,sp,128
    27b0:	3205                	jal	20d0 <_min_stack+0xd0>
    27b2:	0306                	slli	t1,t1,0x1
    27b4:	0900                	addi	s0,sp,144
    27b6:	0000                	unimp
    27b8:	0501                	addi	a0,a0,0
    27ba:	01030603          	lb	a2,16(t1)
    27be:	0809                	addi	a6,a6,2
    27c0:	0100                	addi	s0,sp,128
    27c2:	3205                	jal	20e2 <_min_stack+0xe2>
    27c4:	0306                	slli	t1,t1,0x1
    27c6:	0900                	addi	s0,sp,144
    27c8:	0000                	unimp
    27ca:	0501                	addi	a0,a0,0
    27cc:	01030603          	lb	a2,16(t1)
    27d0:	0809                	addi	a6,a6,2
    27d2:	0100                	addi	s0,sp,128
    27d4:	3205                	jal	20f4 <_min_stack+0xf4>
    27d6:	0306                	slli	t1,t1,0x1
    27d8:	0900                	addi	s0,sp,144
    27da:	0000                	unimp
    27dc:	0501                	addi	a0,a0,0
    27de:	01030603          	lb	a2,16(t1)
    27e2:	0809                	addi	a6,a6,2
    27e4:	0100                	addi	s0,sp,128
    27e6:	3205                	jal	2106 <_min_stack+0x106>
    27e8:	0306                	slli	t1,t1,0x1
    27ea:	0900                	addi	s0,sp,144
    27ec:	0000                	unimp
    27ee:	0501                	addi	a0,a0,0
    27f0:	01030603          	lb	a2,16(t1)
    27f4:	0809                	addi	a6,a6,2
    27f6:	0100                	addi	s0,sp,128
    27f8:	3205                	jal	2118 <_min_stack+0x118>
    27fa:	0306                	slli	t1,t1,0x1
    27fc:	0900                	addi	s0,sp,144
    27fe:	0000                	unimp
    2800:	0501                	addi	a0,a0,0
    2802:	01030603          	lb	a2,16(t1)
    2806:	0809                	addi	a6,a6,2
    2808:	0100                	addi	s0,sp,128
    280a:	3205                	jal	212a <_min_stack+0x12a>
    280c:	0306                	slli	t1,t1,0x1
    280e:	0900                	addi	s0,sp,144
    2810:	0000                	unimp
    2812:	0501                	addi	a0,a0,0
    2814:	01030603          	lb	a2,16(t1)
    2818:	0809                	addi	a6,a6,2
    281a:	0100                	addi	s0,sp,128
    281c:	3205                	jal	213c <_min_stack+0x13c>
    281e:	0306                	slli	t1,t1,0x1
    2820:	0900                	addi	s0,sp,144
    2822:	0000                	unimp
    2824:	0501                	addi	a0,a0,0
    2826:	01030603          	lb	a2,16(t1)
    282a:	0809                	addi	a6,a6,2
    282c:	0100                	addi	s0,sp,128
    282e:	3205                	jal	214e <_min_stack+0x14e>
    2830:	0306                	slli	t1,t1,0x1
    2832:	0900                	addi	s0,sp,144
    2834:	0000                	unimp
    2836:	0501                	addi	a0,a0,0
    2838:	01030603          	lb	a2,16(t1)
    283c:	0809                	addi	a6,a6,2
    283e:	0100                	addi	s0,sp,128
    2840:	3205                	jal	2160 <_min_stack+0x160>
    2842:	0306                	slli	t1,t1,0x1
    2844:	0900                	addi	s0,sp,144
    2846:	0000                	unimp
    2848:	0501                	addi	a0,a0,0
    284a:	01030603          	lb	a2,16(t1)
    284e:	0809                	addi	a6,a6,2
    2850:	0100                	addi	s0,sp,128
    2852:	3205                	jal	2172 <_min_stack+0x172>
    2854:	0306                	slli	t1,t1,0x1
    2856:	0900                	addi	s0,sp,144
    2858:	0000                	unimp
    285a:	0501                	addi	a0,a0,0
    285c:	01030603          	lb	a2,16(t1)
    2860:	0809                	addi	a6,a6,2
    2862:	0100                	addi	s0,sp,128
    2864:	3205                	jal	2184 <_min_stack+0x184>
    2866:	0306                	slli	t1,t1,0x1
    2868:	0900                	addi	s0,sp,144
    286a:	0000                	unimp
    286c:	0501                	addi	a0,a0,0
    286e:	01030603          	lb	a2,16(t1)
    2872:	0809                	addi	a6,a6,2
    2874:	0100                	addi	s0,sp,128
    2876:	3205                	jal	2196 <_min_stack+0x196>
    2878:	0306                	slli	t1,t1,0x1
    287a:	0900                	addi	s0,sp,144
    287c:	0000                	unimp
    287e:	0501                	addi	a0,a0,0
    2880:	01030603          	lb	a2,16(t1)
    2884:	0809                	addi	a6,a6,2
    2886:	0100                	addi	s0,sp,128
    2888:	3205                	jal	21a8 <_min_stack+0x1a8>
    288a:	0306                	slli	t1,t1,0x1
    288c:	0900                	addi	s0,sp,144
    288e:	0000                	unimp
    2890:	0501                	addi	a0,a0,0
    2892:	01030603          	lb	a2,16(t1)
    2896:	0809                	addi	a6,a6,2
    2898:	0100                	addi	s0,sp,128
    289a:	3205                	jal	21ba <_min_stack+0x1ba>
    289c:	0306                	slli	t1,t1,0x1
    289e:	0900                	addi	s0,sp,144
    28a0:	0000                	unimp
    28a2:	0501                	addi	a0,a0,0
    28a4:	01030603          	lb	a2,16(t1)
    28a8:	0809                	addi	a6,a6,2
    28aa:	0100                	addi	s0,sp,128
    28ac:	3205                	jal	21cc <_min_stack+0x1cc>
    28ae:	0306                	slli	t1,t1,0x1
    28b0:	0900                	addi	s0,sp,144
    28b2:	0000                	unimp
    28b4:	0501                	addi	a0,a0,0
    28b6:	01030603          	lb	a2,16(t1)
    28ba:	0809                	addi	a6,a6,2
    28bc:	0100                	addi	s0,sp,128
    28be:	3205                	jal	21de <_min_stack+0x1de>
    28c0:	0306                	slli	t1,t1,0x1
    28c2:	0900                	addi	s0,sp,144
    28c4:	0000                	unimp
    28c6:	0501                	addi	a0,a0,0
    28c8:	01030603          	lb	a2,16(t1)
    28cc:	0809                	addi	a6,a6,2
    28ce:	0100                	addi	s0,sp,128
    28d0:	3205                	jal	21f0 <_min_stack+0x1f0>
    28d2:	0306                	slli	t1,t1,0x1
    28d4:	0900                	addi	s0,sp,144
    28d6:	0000                	unimp
    28d8:	0501                	addi	a0,a0,0
    28da:	01030603          	lb	a2,16(t1)
    28de:	0809                	addi	a6,a6,2
    28e0:	0100                	addi	s0,sp,128
    28e2:	3205                	jal	2202 <_min_stack+0x202>
    28e4:	0306                	slli	t1,t1,0x1
    28e6:	0900                	addi	s0,sp,144
    28e8:	0000                	unimp
    28ea:	0501                	addi	a0,a0,0
    28ec:	01030603          	lb	a2,16(t1)
    28f0:	0809                	addi	a6,a6,2
    28f2:	0100                	addi	s0,sp,128
    28f4:	3205                	jal	2214 <_min_stack+0x214>
    28f6:	0306                	slli	t1,t1,0x1
    28f8:	0900                	addi	s0,sp,144
    28fa:	0000                	unimp
    28fc:	0501                	addi	a0,a0,0
    28fe:	01030603          	lb	a2,16(t1)
    2902:	0809                	addi	a6,a6,2
    2904:	0100                	addi	s0,sp,128
    2906:	3205                	jal	2226 <_min_stack+0x226>
    2908:	0306                	slli	t1,t1,0x1
    290a:	0900                	addi	s0,sp,144
    290c:	0000                	unimp
    290e:	0501                	addi	a0,a0,0
    2910:	01030603          	lb	a2,16(t1)
    2914:	0809                	addi	a6,a6,2
    2916:	0100                	addi	s0,sp,128
    2918:	3205                	jal	2238 <_min_stack+0x238>
    291a:	0306                	slli	t1,t1,0x1
    291c:	0900                	addi	s0,sp,144
    291e:	0000                	unimp
    2920:	0501                	addi	a0,a0,0
    2922:	01030603          	lb	a2,16(t1)
    2926:	0809                	addi	a6,a6,2
    2928:	0100                	addi	s0,sp,128
    292a:	3205                	jal	224a <_min_stack+0x24a>
    292c:	0306                	slli	t1,t1,0x1
    292e:	0900                	addi	s0,sp,144
    2930:	0000                	unimp
    2932:	0501                	addi	a0,a0,0
    2934:	01030603          	lb	a2,16(t1)
    2938:	0809                	addi	a6,a6,2
    293a:	0100                	addi	s0,sp,128
    293c:	3205                	jal	225c <_min_stack+0x25c>
    293e:	0306                	slli	t1,t1,0x1
    2940:	0900                	addi	s0,sp,144
    2942:	0000                	unimp
    2944:	0501                	addi	a0,a0,0
    2946:	01030603          	lb	a2,16(t1)
    294a:	0809                	addi	a6,a6,2
    294c:	0100                	addi	s0,sp,128
    294e:	3205                	jal	226e <_min_stack+0x26e>
    2950:	0306                	slli	t1,t1,0x1
    2952:	0900                	addi	s0,sp,144
    2954:	0000                	unimp
    2956:	0501                	addi	a0,a0,0
    2958:	01030603          	lb	a2,16(t1)
    295c:	0809                	addi	a6,a6,2
    295e:	0100                	addi	s0,sp,128
    2960:	3205                	jal	2280 <_min_stack+0x280>
    2962:	0306                	slli	t1,t1,0x1
    2964:	0900                	addi	s0,sp,144
    2966:	0000                	unimp
    2968:	0501                	addi	a0,a0,0
    296a:	01030603          	lb	a2,16(t1)
    296e:	0809                	addi	a6,a6,2
    2970:	0100                	addi	s0,sp,128
    2972:	3205                	jal	2292 <_min_stack+0x292>
    2974:	0306                	slli	t1,t1,0x1
    2976:	0900                	addi	s0,sp,144
    2978:	0000                	unimp
    297a:	0501                	addi	a0,a0,0
    297c:	01030603          	lb	a2,16(t1)
    2980:	0809                	addi	a6,a6,2
    2982:	0100                	addi	s0,sp,128
    2984:	3205                	jal	22a4 <_min_stack+0x2a4>
    2986:	0306                	slli	t1,t1,0x1
    2988:	0900                	addi	s0,sp,144
    298a:	0000                	unimp
    298c:	0501                	addi	a0,a0,0
    298e:	01030603          	lb	a2,16(t1)
    2992:	0809                	addi	a6,a6,2
    2994:	0100                	addi	s0,sp,128
    2996:	3205                	jal	22b6 <_min_stack+0x2b6>
    2998:	0306                	slli	t1,t1,0x1
    299a:	0900                	addi	s0,sp,144
    299c:	0000                	unimp
    299e:	0501                	addi	a0,a0,0
    29a0:	01030603          	lb	a2,16(t1)
    29a4:	0809                	addi	a6,a6,2
    29a6:	0100                	addi	s0,sp,128
    29a8:	3205                	jal	22c8 <_min_stack+0x2c8>
    29aa:	0306                	slli	t1,t1,0x1
    29ac:	0900                	addi	s0,sp,144
    29ae:	0000                	unimp
    29b0:	0501                	addi	a0,a0,0
    29b2:	01030603          	lb	a2,16(t1)
    29b6:	0809                	addi	a6,a6,2
    29b8:	0100                	addi	s0,sp,128
    29ba:	3205                	jal	22da <_min_stack+0x2da>
    29bc:	0306                	slli	t1,t1,0x1
    29be:	0900                	addi	s0,sp,144
    29c0:	0000                	unimp
    29c2:	0501                	addi	a0,a0,0
    29c4:	01030603          	lb	a2,16(t1)
    29c8:	0809                	addi	a6,a6,2
    29ca:	0100                	addi	s0,sp,128
    29cc:	3205                	jal	22ec <_min_stack+0x2ec>
    29ce:	0306                	slli	t1,t1,0x1
    29d0:	0900                	addi	s0,sp,144
    29d2:	0000                	unimp
    29d4:	0501                	addi	a0,a0,0
    29d6:	01030603          	lb	a2,16(t1)
    29da:	0809                	addi	a6,a6,2
    29dc:	0100                	addi	s0,sp,128
    29de:	3205                	jal	22fe <_min_stack+0x2fe>
    29e0:	0306                	slli	t1,t1,0x1
    29e2:	0900                	addi	s0,sp,144
    29e4:	0000                	unimp
    29e6:	0501                	addi	a0,a0,0
    29e8:	01030603          	lb	a2,16(t1)
    29ec:	0809                	addi	a6,a6,2
    29ee:	0100                	addi	s0,sp,128
    29f0:	3205                	jal	2310 <_min_stack+0x310>
    29f2:	0306                	slli	t1,t1,0x1
    29f4:	0900                	addi	s0,sp,144
    29f6:	0000                	unimp
    29f8:	0501                	addi	a0,a0,0
    29fa:	01030603          	lb	a2,16(t1)
    29fe:	0809                	addi	a6,a6,2
    2a00:	0100                	addi	s0,sp,128
    2a02:	3205                	jal	2322 <_min_stack+0x322>
    2a04:	0306                	slli	t1,t1,0x1
    2a06:	0900                	addi	s0,sp,144
    2a08:	0000                	unimp
    2a0a:	0501                	addi	a0,a0,0
    2a0c:	01030603          	lb	a2,16(t1)
    2a10:	0809                	addi	a6,a6,2
    2a12:	0100                	addi	s0,sp,128
    2a14:	3205                	jal	2334 <_min_stack+0x334>
    2a16:	0306                	slli	t1,t1,0x1
    2a18:	0900                	addi	s0,sp,144
    2a1a:	0000                	unimp
    2a1c:	0501                	addi	a0,a0,0
    2a1e:	01030603          	lb	a2,16(t1)
    2a22:	0809                	addi	a6,a6,2
    2a24:	0100                	addi	s0,sp,128
    2a26:	3205                	jal	2346 <_min_stack+0x346>
    2a28:	0306                	slli	t1,t1,0x1
    2a2a:	0900                	addi	s0,sp,144
    2a2c:	0000                	unimp
    2a2e:	0501                	addi	a0,a0,0
    2a30:	01030603          	lb	a2,16(t1)
    2a34:	0809                	addi	a6,a6,2
    2a36:	0100                	addi	s0,sp,128
    2a38:	3205                	jal	2358 <_min_stack+0x358>
    2a3a:	0306                	slli	t1,t1,0x1
    2a3c:	0900                	addi	s0,sp,144
    2a3e:	0000                	unimp
    2a40:	0501                	addi	a0,a0,0
    2a42:	01030603          	lb	a2,16(t1)
    2a46:	0809                	addi	a6,a6,2
    2a48:	0100                	addi	s0,sp,128
    2a4a:	3205                	jal	236a <_min_stack+0x36a>
    2a4c:	0306                	slli	t1,t1,0x1
    2a4e:	0900                	addi	s0,sp,144
    2a50:	0000                	unimp
    2a52:	0501                	addi	a0,a0,0
    2a54:	01030603          	lb	a2,16(t1)
    2a58:	0809                	addi	a6,a6,2
    2a5a:	0100                	addi	s0,sp,128
    2a5c:	3205                	jal	237c <_min_stack+0x37c>
    2a5e:	0306                	slli	t1,t1,0x1
    2a60:	0900                	addi	s0,sp,144
    2a62:	0000                	unimp
    2a64:	0501                	addi	a0,a0,0
    2a66:	01030603          	lb	a2,16(t1)
    2a6a:	0809                	addi	a6,a6,2
    2a6c:	0100                	addi	s0,sp,128
    2a6e:	3205                	jal	238e <_min_stack+0x38e>
    2a70:	0306                	slli	t1,t1,0x1
    2a72:	0900                	addi	s0,sp,144
    2a74:	0000                	unimp
    2a76:	0501                	addi	a0,a0,0
    2a78:	01030603          	lb	a2,16(t1)
    2a7c:	0809                	addi	a6,a6,2
    2a7e:	0100                	addi	s0,sp,128
    2a80:	3205                	jal	23a0 <_min_stack+0x3a0>
    2a82:	0306                	slli	t1,t1,0x1
    2a84:	0900                	addi	s0,sp,144
    2a86:	0000                	unimp
    2a88:	0501                	addi	a0,a0,0
    2a8a:	01030603          	lb	a2,16(t1)
    2a8e:	0809                	addi	a6,a6,2
    2a90:	0100                	addi	s0,sp,128
    2a92:	3205                	jal	23b2 <_min_stack+0x3b2>
    2a94:	0306                	slli	t1,t1,0x1
    2a96:	0900                	addi	s0,sp,144
    2a98:	0000                	unimp
    2a9a:	0501                	addi	a0,a0,0
    2a9c:	01030603          	lb	a2,16(t1)
    2aa0:	0809                	addi	a6,a6,2
    2aa2:	0100                	addi	s0,sp,128
    2aa4:	3205                	jal	23c4 <_min_stack+0x3c4>
    2aa6:	0306                	slli	t1,t1,0x1
    2aa8:	0900                	addi	s0,sp,144
    2aaa:	0000                	unimp
    2aac:	0501                	addi	a0,a0,0
    2aae:	01030603          	lb	a2,16(t1)
    2ab2:	0809                	addi	a6,a6,2
    2ab4:	0100                	addi	s0,sp,128
    2ab6:	3205                	jal	23d6 <_min_stack+0x3d6>
    2ab8:	0306                	slli	t1,t1,0x1
    2aba:	0900                	addi	s0,sp,144
    2abc:	0000                	unimp
    2abe:	0501                	addi	a0,a0,0
    2ac0:	01030603          	lb	a2,16(t1)
    2ac4:	0809                	addi	a6,a6,2
    2ac6:	0100                	addi	s0,sp,128
    2ac8:	3205                	jal	23e8 <_min_stack+0x3e8>
    2aca:	0306                	slli	t1,t1,0x1
    2acc:	0900                	addi	s0,sp,144
    2ace:	0000                	unimp
    2ad0:	0501                	addi	a0,a0,0
    2ad2:	01030603          	lb	a2,16(t1)
    2ad6:	0809                	addi	a6,a6,2
    2ad8:	0100                	addi	s0,sp,128
    2ada:	3205                	jal	23fa <_min_stack+0x3fa>
    2adc:	0306                	slli	t1,t1,0x1
    2ade:	0900                	addi	s0,sp,144
    2ae0:	0000                	unimp
    2ae2:	0501                	addi	a0,a0,0
    2ae4:	01030603          	lb	a2,16(t1)
    2ae8:	0809                	addi	a6,a6,2
    2aea:	0100                	addi	s0,sp,128
    2aec:	3205                	jal	240c <_min_stack+0x40c>
    2aee:	0306                	slli	t1,t1,0x1
    2af0:	0900                	addi	s0,sp,144
    2af2:	0000                	unimp
    2af4:	0501                	addi	a0,a0,0
    2af6:	01030603          	lb	a2,16(t1)
    2afa:	0809                	addi	a6,a6,2
    2afc:	0100                	addi	s0,sp,128
    2afe:	3205                	jal	241e <_min_stack+0x41e>
    2b00:	0306                	slli	t1,t1,0x1
    2b02:	0900                	addi	s0,sp,144
    2b04:	0000                	unimp
    2b06:	0501                	addi	a0,a0,0
    2b08:	01030603          	lb	a2,16(t1)
    2b0c:	0809                	addi	a6,a6,2
    2b0e:	0100                	addi	s0,sp,128
    2b10:	3205                	jal	2430 <_min_stack+0x430>
    2b12:	0306                	slli	t1,t1,0x1
    2b14:	0900                	addi	s0,sp,144
    2b16:	0000                	unimp
    2b18:	0501                	addi	a0,a0,0
    2b1a:	01030603          	lb	a2,16(t1)
    2b1e:	0809                	addi	a6,a6,2
    2b20:	0100                	addi	s0,sp,128
    2b22:	3205                	jal	2442 <_min_stack+0x442>
    2b24:	0306                	slli	t1,t1,0x1
    2b26:	0900                	addi	s0,sp,144
    2b28:	0000                	unimp
    2b2a:	0501                	addi	a0,a0,0
    2b2c:	01030603          	lb	a2,16(t1)
    2b30:	0809                	addi	a6,a6,2
    2b32:	0100                	addi	s0,sp,128
    2b34:	3205                	jal	2454 <_min_stack+0x454>
    2b36:	0306                	slli	t1,t1,0x1
    2b38:	0900                	addi	s0,sp,144
    2b3a:	0000                	unimp
    2b3c:	0501                	addi	a0,a0,0
    2b3e:	01030603          	lb	a2,16(t1)
    2b42:	0809                	addi	a6,a6,2
    2b44:	0100                	addi	s0,sp,128
    2b46:	3205                	jal	2466 <_min_stack+0x466>
    2b48:	0306                	slli	t1,t1,0x1
    2b4a:	0900                	addi	s0,sp,144
    2b4c:	0000                	unimp
    2b4e:	0501                	addi	a0,a0,0
    2b50:	01030603          	lb	a2,16(t1)
    2b54:	0809                	addi	a6,a6,2
    2b56:	0100                	addi	s0,sp,128
    2b58:	3205                	jal	2478 <_min_stack+0x478>
    2b5a:	0306                	slli	t1,t1,0x1
    2b5c:	0900                	addi	s0,sp,144
    2b5e:	0000                	unimp
    2b60:	0501                	addi	a0,a0,0
    2b62:	01030603          	lb	a2,16(t1)
    2b66:	0809                	addi	a6,a6,2
    2b68:	0100                	addi	s0,sp,128
    2b6a:	3205                	jal	248a <_min_stack+0x48a>
    2b6c:	0306                	slli	t1,t1,0x1
    2b6e:	0900                	addi	s0,sp,144
    2b70:	0000                	unimp
    2b72:	0501                	addi	a0,a0,0
    2b74:	01030603          	lb	a2,16(t1)
    2b78:	0809                	addi	a6,a6,2
    2b7a:	0100                	addi	s0,sp,128
    2b7c:	3205                	jal	249c <_min_stack+0x49c>
    2b7e:	0306                	slli	t1,t1,0x1
    2b80:	0900                	addi	s0,sp,144
    2b82:	0000                	unimp
    2b84:	0501                	addi	a0,a0,0
    2b86:	01030603          	lb	a2,16(t1)
    2b8a:	0809                	addi	a6,a6,2
    2b8c:	0100                	addi	s0,sp,128
    2b8e:	3205                	jal	24ae <_min_stack+0x4ae>
    2b90:	0306                	slli	t1,t1,0x1
    2b92:	0900                	addi	s0,sp,144
    2b94:	0000                	unimp
    2b96:	0501                	addi	a0,a0,0
    2b98:	01030603          	lb	a2,16(t1)
    2b9c:	0809                	addi	a6,a6,2
    2b9e:	0100                	addi	s0,sp,128
    2ba0:	3205                	jal	24c0 <_min_stack+0x4c0>
    2ba2:	0306                	slli	t1,t1,0x1
    2ba4:	0900                	addi	s0,sp,144
    2ba6:	0000                	unimp
    2ba8:	0501                	addi	a0,a0,0
    2baa:	01030603          	lb	a2,16(t1)
    2bae:	0809                	addi	a6,a6,2
    2bb0:	0100                	addi	s0,sp,128
    2bb2:	3205                	jal	24d2 <_min_stack+0x4d2>
    2bb4:	0306                	slli	t1,t1,0x1
    2bb6:	0900                	addi	s0,sp,144
    2bb8:	0000                	unimp
    2bba:	0501                	addi	a0,a0,0
    2bbc:	01030603          	lb	a2,16(t1)
    2bc0:	0809                	addi	a6,a6,2
    2bc2:	0100                	addi	s0,sp,128
    2bc4:	3205                	jal	24e4 <_min_stack+0x4e4>
    2bc6:	0306                	slli	t1,t1,0x1
    2bc8:	0900                	addi	s0,sp,144
    2bca:	0000                	unimp
    2bcc:	0501                	addi	a0,a0,0
    2bce:	01030603          	lb	a2,16(t1)
    2bd2:	0809                	addi	a6,a6,2
    2bd4:	0100                	addi	s0,sp,128
    2bd6:	3205                	jal	24f6 <_min_stack+0x4f6>
    2bd8:	0306                	slli	t1,t1,0x1
    2bda:	0900                	addi	s0,sp,144
    2bdc:	0000                	unimp
    2bde:	0501                	addi	a0,a0,0
    2be0:	01030603          	lb	a2,16(t1)
    2be4:	0809                	addi	a6,a6,2
    2be6:	0100                	addi	s0,sp,128
    2be8:	3205                	jal	2508 <_min_stack+0x508>
    2bea:	0306                	slli	t1,t1,0x1
    2bec:	0900                	addi	s0,sp,144
    2bee:	0000                	unimp
    2bf0:	0501                	addi	a0,a0,0
    2bf2:	01030603          	lb	a2,16(t1)
    2bf6:	0809                	addi	a6,a6,2
    2bf8:	0100                	addi	s0,sp,128
    2bfa:	3205                	jal	251a <_min_stack+0x51a>
    2bfc:	0306                	slli	t1,t1,0x1
    2bfe:	0900                	addi	s0,sp,144
    2c00:	0000                	unimp
    2c02:	0501                	addi	a0,a0,0
    2c04:	01030603          	lb	a2,16(t1)
    2c08:	0809                	addi	a6,a6,2
    2c0a:	0100                	addi	s0,sp,128
    2c0c:	3205                	jal	252c <_min_stack+0x52c>
    2c0e:	0306                	slli	t1,t1,0x1
    2c10:	0900                	addi	s0,sp,144
    2c12:	0000                	unimp
    2c14:	0501                	addi	a0,a0,0
    2c16:	01030603          	lb	a2,16(t1)
    2c1a:	0809                	addi	a6,a6,2
    2c1c:	0100                	addi	s0,sp,128
    2c1e:	3205                	jal	253e <_min_stack+0x53e>
    2c20:	0306                	slli	t1,t1,0x1
    2c22:	0900                	addi	s0,sp,144
    2c24:	0000                	unimp
    2c26:	0501                	addi	a0,a0,0
    2c28:	01030603          	lb	a2,16(t1)
    2c2c:	0809                	addi	a6,a6,2
    2c2e:	0100                	addi	s0,sp,128
    2c30:	3205                	jal	2550 <_min_stack+0x550>
    2c32:	0306                	slli	t1,t1,0x1
    2c34:	0900                	addi	s0,sp,144
    2c36:	0000                	unimp
    2c38:	0501                	addi	a0,a0,0
    2c3a:	01030603          	lb	a2,16(t1)
    2c3e:	0809                	addi	a6,a6,2
    2c40:	0100                	addi	s0,sp,128
    2c42:	3205                	jal	2562 <_min_stack+0x562>
    2c44:	0306                	slli	t1,t1,0x1
    2c46:	0900                	addi	s0,sp,144
    2c48:	0000                	unimp
    2c4a:	0501                	addi	a0,a0,0
    2c4c:	01030603          	lb	a2,16(t1)
    2c50:	0809                	addi	a6,a6,2
    2c52:	0100                	addi	s0,sp,128
    2c54:	3205                	jal	2574 <_min_stack+0x574>
    2c56:	0306                	slli	t1,t1,0x1
    2c58:	0900                	addi	s0,sp,144
    2c5a:	0000                	unimp
    2c5c:	0501                	addi	a0,a0,0
    2c5e:	01030603          	lb	a2,16(t1)
    2c62:	0809                	addi	a6,a6,2
    2c64:	0100                	addi	s0,sp,128
    2c66:	3205                	jal	2586 <_min_stack+0x586>
    2c68:	0306                	slli	t1,t1,0x1
    2c6a:	0900                	addi	s0,sp,144
    2c6c:	0000                	unimp
    2c6e:	0501                	addi	a0,a0,0
    2c70:	01030603          	lb	a2,16(t1)
    2c74:	0c09                	addi	s8,s8,2
    2c76:	0100                	addi	s0,sp,128
    2c78:	3205                	jal	2598 <_min_stack+0x598>
    2c7a:	0306                	slli	t1,t1,0x1
    2c7c:	0900                	addi	s0,sp,144
    2c7e:	0000                	unimp
    2c80:	0501                	addi	a0,a0,0
    2c82:	01030603          	lb	a2,16(t1)
    2c86:	0809                	addi	a6,a6,2
    2c88:	0100                	addi	s0,sp,128
    2c8a:	3205                	jal	25aa <_min_stack+0x5aa>
    2c8c:	0306                	slli	t1,t1,0x1
    2c8e:	0900                	addi	s0,sp,144
    2c90:	0000                	unimp
    2c92:	0501                	addi	a0,a0,0
    2c94:	01030603          	lb	a2,16(t1)
    2c98:	0809                	addi	a6,a6,2
    2c9a:	0100                	addi	s0,sp,128
    2c9c:	3205                	jal	25bc <_min_stack+0x5bc>
    2c9e:	0306                	slli	t1,t1,0x1
    2ca0:	0900                	addi	s0,sp,144
    2ca2:	0000                	unimp
    2ca4:	0501                	addi	a0,a0,0
    2ca6:	01030603          	lb	a2,16(t1)
    2caa:	0809                	addi	a6,a6,2
    2cac:	0100                	addi	s0,sp,128
    2cae:	3205                	jal	25ce <_min_stack+0x5ce>
    2cb0:	0306                	slli	t1,t1,0x1
    2cb2:	0900                	addi	s0,sp,144
    2cb4:	0000                	unimp
    2cb6:	0501                	addi	a0,a0,0
    2cb8:	01030603          	lb	a2,16(t1)
    2cbc:	0809                	addi	a6,a6,2
    2cbe:	0100                	addi	s0,sp,128
    2cc0:	3205                	jal	25e0 <_min_stack+0x5e0>
    2cc2:	0306                	slli	t1,t1,0x1
    2cc4:	0900                	addi	s0,sp,144
    2cc6:	0000                	unimp
    2cc8:	0501                	addi	a0,a0,0
    2cca:	01030603          	lb	a2,16(t1)
    2cce:	0809                	addi	a6,a6,2
    2cd0:	0100                	addi	s0,sp,128
    2cd2:	3205                	jal	25f2 <_min_stack+0x5f2>
    2cd4:	0306                	slli	t1,t1,0x1
    2cd6:	0900                	addi	s0,sp,144
    2cd8:	0000                	unimp
    2cda:	0501                	addi	a0,a0,0
    2cdc:	01030603          	lb	a2,16(t1)
    2ce0:	0809                	addi	a6,a6,2
    2ce2:	0100                	addi	s0,sp,128
    2ce4:	3205                	jal	2604 <_min_stack+0x604>
    2ce6:	0306                	slli	t1,t1,0x1
    2ce8:	0900                	addi	s0,sp,144
    2cea:	0000                	unimp
    2cec:	0501                	addi	a0,a0,0
    2cee:	01030603          	lb	a2,16(t1)
    2cf2:	0809                	addi	a6,a6,2
    2cf4:	0100                	addi	s0,sp,128
    2cf6:	3205                	jal	2616 <_min_stack+0x616>
    2cf8:	0306                	slli	t1,t1,0x1
    2cfa:	0900                	addi	s0,sp,144
    2cfc:	0000                	unimp
    2cfe:	0501                	addi	a0,a0,0
    2d00:	01030603          	lb	a2,16(t1)
    2d04:	0809                	addi	a6,a6,2
    2d06:	0100                	addi	s0,sp,128
    2d08:	3205                	jal	2628 <_min_stack+0x628>
    2d0a:	0306                	slli	t1,t1,0x1
    2d0c:	0900                	addi	s0,sp,144
    2d0e:	0000                	unimp
    2d10:	0501                	addi	a0,a0,0
    2d12:	01030603          	lb	a2,16(t1)
    2d16:	0809                	addi	a6,a6,2
    2d18:	0100                	addi	s0,sp,128
    2d1a:	3205                	jal	263a <_min_stack+0x63a>
    2d1c:	0306                	slli	t1,t1,0x1
    2d1e:	0900                	addi	s0,sp,144
    2d20:	0000                	unimp
    2d22:	0501                	addi	a0,a0,0
    2d24:	01030603          	lb	a2,16(t1)
    2d28:	0809                	addi	a6,a6,2
    2d2a:	0100                	addi	s0,sp,128
    2d2c:	3205                	jal	264c <_min_stack+0x64c>
    2d2e:	0306                	slli	t1,t1,0x1
    2d30:	0900                	addi	s0,sp,144
    2d32:	0000                	unimp
    2d34:	0501                	addi	a0,a0,0
    2d36:	01030603          	lb	a2,16(t1)
    2d3a:	0809                	addi	a6,a6,2
    2d3c:	0100                	addi	s0,sp,128
    2d3e:	3205                	jal	265e <_min_stack+0x65e>
    2d40:	0306                	slli	t1,t1,0x1
    2d42:	0900                	addi	s0,sp,144
    2d44:	0000                	unimp
    2d46:	0501                	addi	a0,a0,0
    2d48:	01030603          	lb	a2,16(t1)
    2d4c:	0809                	addi	a6,a6,2
    2d4e:	0100                	addi	s0,sp,128
    2d50:	3205                	jal	2670 <_min_stack+0x670>
    2d52:	0306                	slli	t1,t1,0x1
    2d54:	0900                	addi	s0,sp,144
    2d56:	0000                	unimp
    2d58:	0501                	addi	a0,a0,0
    2d5a:	01030603          	lb	a2,16(t1)
    2d5e:	0809                	addi	a6,a6,2
    2d60:	0100                	addi	s0,sp,128
    2d62:	3205                	jal	2682 <_min_stack+0x682>
    2d64:	0306                	slli	t1,t1,0x1
    2d66:	0900                	addi	s0,sp,144
    2d68:	0000                	unimp
    2d6a:	0501                	addi	a0,a0,0
    2d6c:	01030603          	lb	a2,16(t1)
    2d70:	0809                	addi	a6,a6,2
    2d72:	0100                	addi	s0,sp,128
    2d74:	3205                	jal	2694 <_min_stack+0x694>
    2d76:	0306                	slli	t1,t1,0x1
    2d78:	0900                	addi	s0,sp,144
    2d7a:	0000                	unimp
    2d7c:	0501                	addi	a0,a0,0
    2d7e:	01030603          	lb	a2,16(t1)
    2d82:	0809                	addi	a6,a6,2
    2d84:	0100                	addi	s0,sp,128
    2d86:	3205                	jal	26a6 <_min_stack+0x6a6>
    2d88:	0306                	slli	t1,t1,0x1
    2d8a:	0900                	addi	s0,sp,144
    2d8c:	0000                	unimp
    2d8e:	0501                	addi	a0,a0,0
    2d90:	01030603          	lb	a2,16(t1)
    2d94:	0809                	addi	a6,a6,2
    2d96:	0100                	addi	s0,sp,128
    2d98:	3205                	jal	26b8 <_min_stack+0x6b8>
    2d9a:	0306                	slli	t1,t1,0x1
    2d9c:	0900                	addi	s0,sp,144
    2d9e:	0000                	unimp
    2da0:	0501                	addi	a0,a0,0
    2da2:	01030603          	lb	a2,16(t1)
    2da6:	0809                	addi	a6,a6,2
    2da8:	0100                	addi	s0,sp,128
    2daa:	3205                	jal	26ca <_min_stack+0x6ca>
    2dac:	0306                	slli	t1,t1,0x1
    2dae:	0900                	addi	s0,sp,144
    2db0:	0000                	unimp
    2db2:	0501                	addi	a0,a0,0
    2db4:	01030603          	lb	a2,16(t1)
    2db8:	0809                	addi	a6,a6,2
    2dba:	0100                	addi	s0,sp,128
    2dbc:	3205                	jal	26dc <_min_stack+0x6dc>
    2dbe:	0306                	slli	t1,t1,0x1
    2dc0:	0900                	addi	s0,sp,144
    2dc2:	0000                	unimp
    2dc4:	0501                	addi	a0,a0,0
    2dc6:	01030603          	lb	a2,16(t1)
    2dca:	0809                	addi	a6,a6,2
    2dcc:	0100                	addi	s0,sp,128
    2dce:	3205                	jal	26ee <_min_stack+0x6ee>
    2dd0:	0306                	slli	t1,t1,0x1
    2dd2:	0900                	addi	s0,sp,144
    2dd4:	0000                	unimp
    2dd6:	0501                	addi	a0,a0,0
    2dd8:	01030603          	lb	a2,16(t1)
    2ddc:	0809                	addi	a6,a6,2
    2dde:	0100                	addi	s0,sp,128
    2de0:	3205                	jal	2700 <_min_stack+0x700>
    2de2:	0306                	slli	t1,t1,0x1
    2de4:	0900                	addi	s0,sp,144
    2de6:	0000                	unimp
    2de8:	0501                	addi	a0,a0,0
    2dea:	01030603          	lb	a2,16(t1)
    2dee:	0809                	addi	a6,a6,2
    2df0:	0100                	addi	s0,sp,128
    2df2:	3205                	jal	2712 <_min_stack+0x712>
    2df4:	0306                	slli	t1,t1,0x1
    2df6:	0900                	addi	s0,sp,144
    2df8:	0000                	unimp
    2dfa:	0501                	addi	a0,a0,0
    2dfc:	01030603          	lb	a2,16(t1)
    2e00:	0809                	addi	a6,a6,2
    2e02:	0100                	addi	s0,sp,128
    2e04:	3205                	jal	2724 <_min_stack+0x724>
    2e06:	0306                	slli	t1,t1,0x1
    2e08:	0900                	addi	s0,sp,144
    2e0a:	0000                	unimp
    2e0c:	0501                	addi	a0,a0,0
    2e0e:	01030603          	lb	a2,16(t1)
    2e12:	0809                	addi	a6,a6,2
    2e14:	0100                	addi	s0,sp,128
    2e16:	3205                	jal	2736 <_min_stack+0x736>
    2e18:	0306                	slli	t1,t1,0x1
    2e1a:	0900                	addi	s0,sp,144
    2e1c:	0000                	unimp
    2e1e:	0501                	addi	a0,a0,0
    2e20:	01030603          	lb	a2,16(t1)
    2e24:	0809                	addi	a6,a6,2
    2e26:	0100                	addi	s0,sp,128
    2e28:	3205                	jal	2748 <_min_stack+0x748>
    2e2a:	0306                	slli	t1,t1,0x1
    2e2c:	0900                	addi	s0,sp,144
    2e2e:	0000                	unimp
    2e30:	0501                	addi	a0,a0,0
    2e32:	01030603          	lb	a2,16(t1)
    2e36:	0809                	addi	a6,a6,2
    2e38:	0100                	addi	s0,sp,128
    2e3a:	3205                	jal	275a <_min_stack+0x75a>
    2e3c:	0306                	slli	t1,t1,0x1
    2e3e:	0900                	addi	s0,sp,144
    2e40:	0000                	unimp
    2e42:	0501                	addi	a0,a0,0
    2e44:	01030603          	lb	a2,16(t1)
    2e48:	0809                	addi	a6,a6,2
    2e4a:	0100                	addi	s0,sp,128
    2e4c:	3205                	jal	276c <_min_stack+0x76c>
    2e4e:	0306                	slli	t1,t1,0x1
    2e50:	0900                	addi	s0,sp,144
    2e52:	0000                	unimp
    2e54:	0501                	addi	a0,a0,0
    2e56:	01030603          	lb	a2,16(t1)
    2e5a:	0809                	addi	a6,a6,2
    2e5c:	0100                	addi	s0,sp,128
    2e5e:	3205                	jal	277e <_min_stack+0x77e>
    2e60:	0306                	slli	t1,t1,0x1
    2e62:	0900                	addi	s0,sp,144
    2e64:	0000                	unimp
    2e66:	0501                	addi	a0,a0,0
    2e68:	01030603          	lb	a2,16(t1)
    2e6c:	0809                	addi	a6,a6,2
    2e6e:	0100                	addi	s0,sp,128
    2e70:	3205                	jal	2790 <_min_stack+0x790>
    2e72:	0306                	slli	t1,t1,0x1
    2e74:	0900                	addi	s0,sp,144
    2e76:	0000                	unimp
    2e78:	0501                	addi	a0,a0,0
    2e7a:	01030603          	lb	a2,16(t1)
    2e7e:	0809                	addi	a6,a6,2
    2e80:	0100                	addi	s0,sp,128
    2e82:	3205                	jal	27a2 <_min_stack+0x7a2>
    2e84:	0306                	slli	t1,t1,0x1
    2e86:	0900                	addi	s0,sp,144
    2e88:	0000                	unimp
    2e8a:	0501                	addi	a0,a0,0
    2e8c:	01030603          	lb	a2,16(t1)
    2e90:	0809                	addi	a6,a6,2
    2e92:	0100                	addi	s0,sp,128
    2e94:	3205                	jal	27b4 <_min_stack+0x7b4>
    2e96:	0306                	slli	t1,t1,0x1
    2e98:	0900                	addi	s0,sp,144
    2e9a:	0000                	unimp
    2e9c:	0501                	addi	a0,a0,0
    2e9e:	01030603          	lb	a2,16(t1)
    2ea2:	0809                	addi	a6,a6,2
    2ea4:	0100                	addi	s0,sp,128
    2ea6:	3205                	jal	27c6 <_min_stack+0x7c6>
    2ea8:	0306                	slli	t1,t1,0x1
    2eaa:	0900                	addi	s0,sp,144
    2eac:	0000                	unimp
    2eae:	0501                	addi	a0,a0,0
    2eb0:	01030603          	lb	a2,16(t1)
    2eb4:	0809                	addi	a6,a6,2
    2eb6:	0100                	addi	s0,sp,128
    2eb8:	3205                	jal	27d8 <_min_stack+0x7d8>
    2eba:	0306                	slli	t1,t1,0x1
    2ebc:	0900                	addi	s0,sp,144
    2ebe:	0000                	unimp
    2ec0:	0501                	addi	a0,a0,0
    2ec2:	01030603          	lb	a2,16(t1)
    2ec6:	0809                	addi	a6,a6,2
    2ec8:	0100                	addi	s0,sp,128
    2eca:	3205                	jal	27ea <_min_stack+0x7ea>
    2ecc:	0306                	slli	t1,t1,0x1
    2ece:	0900                	addi	s0,sp,144
    2ed0:	0000                	unimp
    2ed2:	0501                	addi	a0,a0,0
    2ed4:	01030603          	lb	a2,16(t1)
    2ed8:	0809                	addi	a6,a6,2
    2eda:	0100                	addi	s0,sp,128
    2edc:	3205                	jal	27fc <_min_stack+0x7fc>
    2ede:	0306                	slli	t1,t1,0x1
    2ee0:	0900                	addi	s0,sp,144
    2ee2:	0000                	unimp
    2ee4:	0501                	addi	a0,a0,0
    2ee6:	01030603          	lb	a2,16(t1)
    2eea:	0809                	addi	a6,a6,2
    2eec:	0100                	addi	s0,sp,128
    2eee:	3205                	jal	280e <_min_stack+0x80e>
    2ef0:	0306                	slli	t1,t1,0x1
    2ef2:	0900                	addi	s0,sp,144
    2ef4:	0000                	unimp
    2ef6:	0501                	addi	a0,a0,0
    2ef8:	01030603          	lb	a2,16(t1)
    2efc:	0809                	addi	a6,a6,2
    2efe:	0100                	addi	s0,sp,128
    2f00:	3205                	jal	2820 <_min_stack+0x820>
    2f02:	0306                	slli	t1,t1,0x1
    2f04:	0900                	addi	s0,sp,144
    2f06:	0000                	unimp
    2f08:	0501                	addi	a0,a0,0
    2f0a:	01030603          	lb	a2,16(t1)
    2f0e:	0809                	addi	a6,a6,2
    2f10:	0100                	addi	s0,sp,128
    2f12:	3205                	jal	2832 <_min_stack+0x832>
    2f14:	0306                	slli	t1,t1,0x1
    2f16:	0900                	addi	s0,sp,144
    2f18:	0000                	unimp
    2f1a:	0501                	addi	a0,a0,0
    2f1c:	01030603          	lb	a2,16(t1)
    2f20:	0809                	addi	a6,a6,2
    2f22:	0100                	addi	s0,sp,128
    2f24:	3205                	jal	2844 <_min_stack+0x844>
    2f26:	0306                	slli	t1,t1,0x1
    2f28:	0900                	addi	s0,sp,144
    2f2a:	0000                	unimp
    2f2c:	0501                	addi	a0,a0,0
    2f2e:	01030603          	lb	a2,16(t1)
    2f32:	0809                	addi	a6,a6,2
    2f34:	0100                	addi	s0,sp,128
    2f36:	3205                	jal	2856 <_min_stack+0x856>
    2f38:	0306                	slli	t1,t1,0x1
    2f3a:	0900                	addi	s0,sp,144
    2f3c:	0000                	unimp
    2f3e:	0501                	addi	a0,a0,0
    2f40:	01030603          	lb	a2,16(t1)
    2f44:	0809                	addi	a6,a6,2
    2f46:	0100                	addi	s0,sp,128
    2f48:	3205                	jal	2868 <_min_stack+0x868>
    2f4a:	0306                	slli	t1,t1,0x1
    2f4c:	0900                	addi	s0,sp,144
    2f4e:	0000                	unimp
    2f50:	0501                	addi	a0,a0,0
    2f52:	01030603          	lb	a2,16(t1)
    2f56:	0809                	addi	a6,a6,2
    2f58:	0100                	addi	s0,sp,128
    2f5a:	3205                	jal	287a <_min_stack+0x87a>
    2f5c:	0306                	slli	t1,t1,0x1
    2f5e:	0900                	addi	s0,sp,144
    2f60:	0000                	unimp
    2f62:	0501                	addi	a0,a0,0
    2f64:	01030603          	lb	a2,16(t1)
    2f68:	0809                	addi	a6,a6,2
    2f6a:	0100                	addi	s0,sp,128
    2f6c:	3205                	jal	288c <_min_stack+0x88c>
    2f6e:	0306                	slli	t1,t1,0x1
    2f70:	0900                	addi	s0,sp,144
    2f72:	0000                	unimp
    2f74:	0501                	addi	a0,a0,0
    2f76:	01030603          	lb	a2,16(t1)
    2f7a:	0809                	addi	a6,a6,2
    2f7c:	0100                	addi	s0,sp,128
    2f7e:	3205                	jal	289e <_min_stack+0x89e>
    2f80:	0306                	slli	t1,t1,0x1
    2f82:	0900                	addi	s0,sp,144
    2f84:	0000                	unimp
    2f86:	0501                	addi	a0,a0,0
    2f88:	01030603          	lb	a2,16(t1)
    2f8c:	0809                	addi	a6,a6,2
    2f8e:	0100                	addi	s0,sp,128
    2f90:	3205                	jal	28b0 <_min_stack+0x8b0>
    2f92:	0306                	slli	t1,t1,0x1
    2f94:	0900                	addi	s0,sp,144
    2f96:	0000                	unimp
    2f98:	0501                	addi	a0,a0,0
    2f9a:	01030603          	lb	a2,16(t1)
    2f9e:	0809                	addi	a6,a6,2
    2fa0:	0100                	addi	s0,sp,128
    2fa2:	3205                	jal	28c2 <_min_stack+0x8c2>
    2fa4:	0306                	slli	t1,t1,0x1
    2fa6:	0900                	addi	s0,sp,144
    2fa8:	0000                	unimp
    2faa:	0501                	addi	a0,a0,0
    2fac:	01030603          	lb	a2,16(t1)
    2fb0:	0809                	addi	a6,a6,2
    2fb2:	0100                	addi	s0,sp,128
    2fb4:	3205                	jal	28d4 <_min_stack+0x8d4>
    2fb6:	0306                	slli	t1,t1,0x1
    2fb8:	0900                	addi	s0,sp,144
    2fba:	0000                	unimp
    2fbc:	0501                	addi	a0,a0,0
    2fbe:	01030603          	lb	a2,16(t1)
    2fc2:	0809                	addi	a6,a6,2
    2fc4:	0100                	addi	s0,sp,128
    2fc6:	3205                	jal	28e6 <_min_stack+0x8e6>
    2fc8:	0306                	slli	t1,t1,0x1
    2fca:	0900                	addi	s0,sp,144
    2fcc:	0000                	unimp
    2fce:	0501                	addi	a0,a0,0
    2fd0:	01030603          	lb	a2,16(t1)
    2fd4:	0809                	addi	a6,a6,2
    2fd6:	0100                	addi	s0,sp,128
    2fd8:	3205                	jal	28f8 <_min_stack+0x8f8>
    2fda:	0306                	slli	t1,t1,0x1
    2fdc:	0900                	addi	s0,sp,144
    2fde:	0000                	unimp
    2fe0:	0501                	addi	a0,a0,0
    2fe2:	01030603          	lb	a2,16(t1)
    2fe6:	0809                	addi	a6,a6,2
    2fe8:	0100                	addi	s0,sp,128
    2fea:	3205                	jal	290a <_min_stack+0x90a>
    2fec:	0306                	slli	t1,t1,0x1
    2fee:	0900                	addi	s0,sp,144
    2ff0:	0000                	unimp
    2ff2:	0501                	addi	a0,a0,0
    2ff4:	01030603          	lb	a2,16(t1)
    2ff8:	0809                	addi	a6,a6,2
    2ffa:	0100                	addi	s0,sp,128
    2ffc:	3205                	jal	291c <_min_stack+0x91c>
    2ffe:	0306                	slli	t1,t1,0x1
    3000:	0900                	addi	s0,sp,144
    3002:	0000                	unimp
    3004:	0501                	addi	a0,a0,0
    3006:	01030603          	lb	a2,16(t1)
    300a:	0809                	addi	a6,a6,2
    300c:	0100                	addi	s0,sp,128
    300e:	3205                	jal	292e <_min_stack+0x92e>
    3010:	0306                	slli	t1,t1,0x1
    3012:	0900                	addi	s0,sp,144
    3014:	0000                	unimp
    3016:	0501                	addi	a0,a0,0
    3018:	01030603          	lb	a2,16(t1)
    301c:	0809                	addi	a6,a6,2
    301e:	0100                	addi	s0,sp,128
    3020:	3205                	jal	2940 <_min_stack+0x940>
    3022:	0306                	slli	t1,t1,0x1
    3024:	0900                	addi	s0,sp,144
    3026:	0000                	unimp
    3028:	0501                	addi	a0,a0,0
    302a:	01030603          	lb	a2,16(t1)
    302e:	0809                	addi	a6,a6,2
    3030:	0100                	addi	s0,sp,128
    3032:	3205                	jal	2952 <_min_stack+0x952>
    3034:	0306                	slli	t1,t1,0x1
    3036:	0900                	addi	s0,sp,144
    3038:	0000                	unimp
    303a:	0501                	addi	a0,a0,0
    303c:	01030603          	lb	a2,16(t1)
    3040:	0809                	addi	a6,a6,2
    3042:	0100                	addi	s0,sp,128
    3044:	3205                	jal	2964 <_min_stack+0x964>
    3046:	0306                	slli	t1,t1,0x1
    3048:	0900                	addi	s0,sp,144
    304a:	0000                	unimp
    304c:	0501                	addi	a0,a0,0
    304e:	01030603          	lb	a2,16(t1)
    3052:	0809                	addi	a6,a6,2
    3054:	0100                	addi	s0,sp,128
    3056:	3205                	jal	2976 <_min_stack+0x976>
    3058:	0306                	slli	t1,t1,0x1
    305a:	0900                	addi	s0,sp,144
    305c:	0000                	unimp
    305e:	0501                	addi	a0,a0,0
    3060:	01030603          	lb	a2,16(t1)
    3064:	0809                	addi	a6,a6,2
    3066:	0100                	addi	s0,sp,128
    3068:	3205                	jal	2988 <_min_stack+0x988>
    306a:	0306                	slli	t1,t1,0x1
    306c:	0900                	addi	s0,sp,144
    306e:	0000                	unimp
    3070:	0501                	addi	a0,a0,0
    3072:	01030603          	lb	a2,16(t1)
    3076:	0809                	addi	a6,a6,2
    3078:	0100                	addi	s0,sp,128
    307a:	3205                	jal	299a <_min_stack+0x99a>
    307c:	0306                	slli	t1,t1,0x1
    307e:	0900                	addi	s0,sp,144
    3080:	0000                	unimp
    3082:	0501                	addi	a0,a0,0
    3084:	01030603          	lb	a2,16(t1)
    3088:	0809                	addi	a6,a6,2
    308a:	0100                	addi	s0,sp,128
    308c:	3205                	jal	29ac <_min_stack+0x9ac>
    308e:	0306                	slli	t1,t1,0x1
    3090:	0900                	addi	s0,sp,144
    3092:	0000                	unimp
    3094:	0501                	addi	a0,a0,0
    3096:	01030603          	lb	a2,16(t1)
    309a:	0809                	addi	a6,a6,2
    309c:	0100                	addi	s0,sp,128
    309e:	3205                	jal	29be <_min_stack+0x9be>
    30a0:	0306                	slli	t1,t1,0x1
    30a2:	0900                	addi	s0,sp,144
    30a4:	0000                	unimp
    30a6:	0501                	addi	a0,a0,0
    30a8:	01030603          	lb	a2,16(t1)
    30ac:	0809                	addi	a6,a6,2
    30ae:	0100                	addi	s0,sp,128
    30b0:	3205                	jal	29d0 <_min_stack+0x9d0>
    30b2:	0306                	slli	t1,t1,0x1
    30b4:	0900                	addi	s0,sp,144
    30b6:	0000                	unimp
    30b8:	0501                	addi	a0,a0,0
    30ba:	01030603          	lb	a2,16(t1)
    30be:	0809                	addi	a6,a6,2
    30c0:	0100                	addi	s0,sp,128
    30c2:	3205                	jal	29e2 <_min_stack+0x9e2>
    30c4:	0306                	slli	t1,t1,0x1
    30c6:	0900                	addi	s0,sp,144
    30c8:	0000                	unimp
    30ca:	0501                	addi	a0,a0,0
    30cc:	01030603          	lb	a2,16(t1)
    30d0:	0809                	addi	a6,a6,2
    30d2:	0100                	addi	s0,sp,128
    30d4:	3205                	jal	29f4 <_min_stack+0x9f4>
    30d6:	0306                	slli	t1,t1,0x1
    30d8:	0900                	addi	s0,sp,144
    30da:	0000                	unimp
    30dc:	0501                	addi	a0,a0,0
    30de:	01030603          	lb	a2,16(t1)
    30e2:	0809                	addi	a6,a6,2
    30e4:	0100                	addi	s0,sp,128
    30e6:	3205                	jal	2a06 <_min_stack+0xa06>
    30e8:	0306                	slli	t1,t1,0x1
    30ea:	0900                	addi	s0,sp,144
    30ec:	0000                	unimp
    30ee:	0501                	addi	a0,a0,0
    30f0:	01030603          	lb	a2,16(t1)
    30f4:	0809                	addi	a6,a6,2
    30f6:	0100                	addi	s0,sp,128
    30f8:	3205                	jal	2a18 <_min_stack+0xa18>
    30fa:	0306                	slli	t1,t1,0x1
    30fc:	0900                	addi	s0,sp,144
    30fe:	0000                	unimp
    3100:	0501                	addi	a0,a0,0
    3102:	01030603          	lb	a2,16(t1)
    3106:	0809                	addi	a6,a6,2
    3108:	0100                	addi	s0,sp,128
    310a:	3205                	jal	2a2a <_min_stack+0xa2a>
    310c:	0306                	slli	t1,t1,0x1
    310e:	0900                	addi	s0,sp,144
    3110:	0000                	unimp
    3112:	0501                	addi	a0,a0,0
    3114:	01030603          	lb	a2,16(t1)
    3118:	0809                	addi	a6,a6,2
    311a:	0100                	addi	s0,sp,128
    311c:	3205                	jal	2a3c <_min_stack+0xa3c>
    311e:	0306                	slli	t1,t1,0x1
    3120:	0900                	addi	s0,sp,144
    3122:	0000                	unimp
    3124:	0501                	addi	a0,a0,0
    3126:	01030603          	lb	a2,16(t1)
    312a:	0809                	addi	a6,a6,2
    312c:	0100                	addi	s0,sp,128
    312e:	3205                	jal	2a4e <_min_stack+0xa4e>
    3130:	0306                	slli	t1,t1,0x1
    3132:	0900                	addi	s0,sp,144
    3134:	0000                	unimp
    3136:	0501                	addi	a0,a0,0
    3138:	01030603          	lb	a2,16(t1)
    313c:	0809                	addi	a6,a6,2
    313e:	0100                	addi	s0,sp,128
    3140:	3205                	jal	2a60 <_min_stack+0xa60>
    3142:	0306                	slli	t1,t1,0x1
    3144:	0900                	addi	s0,sp,144
    3146:	0000                	unimp
    3148:	0501                	addi	a0,a0,0
    314a:	01030603          	lb	a2,16(t1)
    314e:	0809                	addi	a6,a6,2
    3150:	0100                	addi	s0,sp,128
    3152:	3205                	jal	2a72 <_min_stack+0xa72>
    3154:	0306                	slli	t1,t1,0x1
    3156:	0900                	addi	s0,sp,144
    3158:	0000                	unimp
    315a:	0501                	addi	a0,a0,0
    315c:	01030603          	lb	a2,16(t1)
    3160:	0809                	addi	a6,a6,2
    3162:	0100                	addi	s0,sp,128
    3164:	3205                	jal	2a84 <_min_stack+0xa84>
    3166:	0306                	slli	t1,t1,0x1
    3168:	0900                	addi	s0,sp,144
    316a:	0000                	unimp
    316c:	0501                	addi	a0,a0,0
    316e:	01030603          	lb	a2,16(t1)
    3172:	0809                	addi	a6,a6,2
    3174:	0100                	addi	s0,sp,128
    3176:	3205                	jal	2a96 <_min_stack+0xa96>
    3178:	0306                	slli	t1,t1,0x1
    317a:	0900                	addi	s0,sp,144
    317c:	0000                	unimp
    317e:	0501                	addi	a0,a0,0
    3180:	01030603          	lb	a2,16(t1)
    3184:	0809                	addi	a6,a6,2
    3186:	0100                	addi	s0,sp,128
    3188:	3205                	jal	2aa8 <_min_stack+0xaa8>
    318a:	0306                	slli	t1,t1,0x1
    318c:	0900                	addi	s0,sp,144
    318e:	0000                	unimp
    3190:	0501                	addi	a0,a0,0
    3192:	01030603          	lb	a2,16(t1)
    3196:	0809                	addi	a6,a6,2
    3198:	0100                	addi	s0,sp,128
    319a:	3205                	jal	2aba <_min_stack+0xaba>
    319c:	0306                	slli	t1,t1,0x1
    319e:	0900                	addi	s0,sp,144
    31a0:	0000                	unimp
    31a2:	0501                	addi	a0,a0,0
    31a4:	01030603          	lb	a2,16(t1)
    31a8:	0809                	addi	a6,a6,2
    31aa:	0100                	addi	s0,sp,128
    31ac:	3205                	jal	2acc <_min_stack+0xacc>
    31ae:	0306                	slli	t1,t1,0x1
    31b0:	0900                	addi	s0,sp,144
    31b2:	0000                	unimp
    31b4:	0501                	addi	a0,a0,0
    31b6:	01030603          	lb	a2,16(t1)
    31ba:	0809                	addi	a6,a6,2
    31bc:	0100                	addi	s0,sp,128
    31be:	3205                	jal	2ade <_min_stack+0xade>
    31c0:	0306                	slli	t1,t1,0x1
    31c2:	0900                	addi	s0,sp,144
    31c4:	0000                	unimp
    31c6:	0501                	addi	a0,a0,0
    31c8:	01030603          	lb	a2,16(t1)
    31cc:	0809                	addi	a6,a6,2
    31ce:	0100                	addi	s0,sp,128
    31d0:	3205                	jal	2af0 <_min_stack+0xaf0>
    31d2:	0306                	slli	t1,t1,0x1
    31d4:	0900                	addi	s0,sp,144
    31d6:	0000                	unimp
    31d8:	0501                	addi	a0,a0,0
    31da:	01030603          	lb	a2,16(t1)
    31de:	0809                	addi	a6,a6,2
    31e0:	0100                	addi	s0,sp,128
    31e2:	3205                	jal	2b02 <_min_stack+0xb02>
    31e4:	0306                	slli	t1,t1,0x1
    31e6:	0900                	addi	s0,sp,144
    31e8:	0000                	unimp
    31ea:	0501                	addi	a0,a0,0
    31ec:	01030603          	lb	a2,16(t1)
    31f0:	0809                	addi	a6,a6,2
    31f2:	0100                	addi	s0,sp,128
    31f4:	3205                	jal	2b14 <_min_stack+0xb14>
    31f6:	0306                	slli	t1,t1,0x1
    31f8:	0900                	addi	s0,sp,144
    31fa:	0000                	unimp
    31fc:	0501                	addi	a0,a0,0
    31fe:	01030603          	lb	a2,16(t1)
    3202:	0809                	addi	a6,a6,2
    3204:	0100                	addi	s0,sp,128
    3206:	3205                	jal	2b26 <_min_stack+0xb26>
    3208:	0306                	slli	t1,t1,0x1
    320a:	0900                	addi	s0,sp,144
    320c:	0000                	unimp
    320e:	0501                	addi	a0,a0,0
    3210:	01030603          	lb	a2,16(t1)
    3214:	0809                	addi	a6,a6,2
    3216:	0100                	addi	s0,sp,128
    3218:	3205                	jal	2b38 <_min_stack+0xb38>
    321a:	0306                	slli	t1,t1,0x1
    321c:	0900                	addi	s0,sp,144
    321e:	0000                	unimp
    3220:	0301                	addi	t1,t1,0
    3222:	0901                	addi	s2,s2,0
    3224:	0004                	.2byte	0x4
    3226:	0301                	addi	t1,t1,0
    3228:	097f                	.2byte	0x97f
    322a:	0004                	.2byte	0x4
    322c:	0501                	addi	a0,a0,0
    322e:	01030603          	lb	a2,16(t1)
    3232:	0409                	addi	s0,s0,2
    3234:	0100                	addi	s0,sp,128
    3236:	3205                	jal	2b56 <_min_stack+0xb56>
    3238:	0306                	slli	t1,t1,0x1
    323a:	0900                	addi	s0,sp,144
    323c:	0000                	unimp
    323e:	0301                	addi	t1,t1,0
    3240:	0901                	addi	s2,s2,0
    3242:	0008                	.2byte	0x8
    3244:	0301                	addi	t1,t1,0
    3246:	097f                	.2byte	0x97f
    3248:	0004                	.2byte	0x4
    324a:	0501                	addi	a0,a0,0
    324c:	01030603          	lb	a2,16(t1)
    3250:	0209                	addi	tp,tp,2 # 2 <_min_stack-0x1ffe>
    3252:	0100                	addi	s0,sp,128
    3254:	3205                	jal	2b74 <_min_stack+0xb74>
    3256:	0306                	slli	t1,t1,0x1
    3258:	0900                	addi	s0,sp,144
    325a:	0000                	unimp
    325c:	0501                	addi	a0,a0,0
    325e:	01030603          	lb	a2,16(t1)
    3262:	0609                	addi	a2,a2,2
    3264:	0100                	addi	s0,sp,128
    3266:	3205                	jal	2b86 <_min_stack+0xb86>
    3268:	0306                	slli	t1,t1,0x1
    326a:	0900                	addi	s0,sp,144
    326c:	0000                	unimp
    326e:	0501                	addi	a0,a0,0
    3270:	01030603          	lb	a2,16(t1)
    3274:	0a09                	addi	s4,s4,2
    3276:	0100                	addi	s0,sp,128
    3278:	3205                	jal	2b98 <_min_stack+0xb98>
    327a:	0306                	slli	t1,t1,0x1
    327c:	0900                	addi	s0,sp,144
    327e:	0000                	unimp
    3280:	0501                	addi	a0,a0,0
    3282:	01030603          	lb	a2,16(t1)
    3286:	0a09                	addi	s4,s4,2
    3288:	0100                	addi	s0,sp,128
    328a:	3205                	jal	2baa <_min_stack+0xbaa>
    328c:	0306                	slli	t1,t1,0x1
    328e:	0900                	addi	s0,sp,144
    3290:	0000                	unimp
    3292:	0501                	addi	a0,a0,0
    3294:	01030603          	lb	a2,16(t1)
    3298:	0a09                	addi	s4,s4,2
    329a:	0100                	addi	s0,sp,128
    329c:	3205                	jal	2bbc <_min_stack+0xbbc>
    329e:	0306                	slli	t1,t1,0x1
    32a0:	0900                	addi	s0,sp,144
    32a2:	0000                	unimp
    32a4:	0501                	addi	a0,a0,0
    32a6:	01030603          	lb	a2,16(t1)
    32aa:	0a09                	addi	s4,s4,2
    32ac:	0100                	addi	s0,sp,128
    32ae:	3205                	jal	2bce <_min_stack+0xbce>
    32b0:	0306                	slli	t1,t1,0x1
    32b2:	0900                	addi	s0,sp,144
    32b4:	0000                	unimp
    32b6:	0501                	addi	a0,a0,0
    32b8:	01030603          	lb	a2,16(t1)
    32bc:	0a09                	addi	s4,s4,2
    32be:	0100                	addi	s0,sp,128
    32c0:	3205                	jal	2be0 <_min_stack+0xbe0>
    32c2:	0306                	slli	t1,t1,0x1
    32c4:	0900                	addi	s0,sp,144
    32c6:	0000                	unimp
    32c8:	0501                	addi	a0,a0,0
    32ca:	01030603          	lb	a2,16(t1)
    32ce:	0a09                	addi	s4,s4,2
    32d0:	0100                	addi	s0,sp,128
    32d2:	3205                	jal	2bf2 <_min_stack+0xbf2>
    32d4:	0306                	slli	t1,t1,0x1
    32d6:	0900                	addi	s0,sp,144
    32d8:	0000                	unimp
    32da:	0501                	addi	a0,a0,0
    32dc:	01030603          	lb	a2,16(t1)
    32e0:	0a09                	addi	s4,s4,2
    32e2:	0100                	addi	s0,sp,128
    32e4:	3205                	jal	2c04 <_min_stack+0xc04>
    32e6:	0306                	slli	t1,t1,0x1
    32e8:	0900                	addi	s0,sp,144
    32ea:	0000                	unimp
    32ec:	0501                	addi	a0,a0,0
    32ee:	01030603          	lb	a2,16(t1)
    32f2:	0a09                	addi	s4,s4,2
    32f4:	0100                	addi	s0,sp,128
    32f6:	3205                	jal	2c16 <_min_stack+0xc16>
    32f8:	0306                	slli	t1,t1,0x1
    32fa:	0900                	addi	s0,sp,144
    32fc:	0000                	unimp
    32fe:	0501                	addi	a0,a0,0
    3300:	01030603          	lb	a2,16(t1)
    3304:	0a09                	addi	s4,s4,2
    3306:	0100                	addi	s0,sp,128
    3308:	3205                	jal	2c28 <_min_stack+0xc28>
    330a:	0306                	slli	t1,t1,0x1
    330c:	0900                	addi	s0,sp,144
    330e:	0000                	unimp
    3310:	0501                	addi	a0,a0,0
    3312:	01030603          	lb	a2,16(t1)
    3316:	0a09                	addi	s4,s4,2
    3318:	0100                	addi	s0,sp,128
    331a:	3205                	jal	2c3a <_min_stack+0xc3a>
    331c:	0306                	slli	t1,t1,0x1
    331e:	0900                	addi	s0,sp,144
    3320:	0000                	unimp
    3322:	0501                	addi	a0,a0,0
    3324:	01030603          	lb	a2,16(t1)
    3328:	0a09                	addi	s4,s4,2
    332a:	0100                	addi	s0,sp,128
    332c:	3205                	jal	2c4c <_min_stack+0xc4c>
    332e:	0306                	slli	t1,t1,0x1
    3330:	0900                	addi	s0,sp,144
    3332:	0000                	unimp
    3334:	0501                	addi	a0,a0,0
    3336:	01030603          	lb	a2,16(t1)
    333a:	0a09                	addi	s4,s4,2
    333c:	0100                	addi	s0,sp,128
    333e:	3205                	jal	2c5e <_min_stack+0xc5e>
    3340:	0306                	slli	t1,t1,0x1
    3342:	0900                	addi	s0,sp,144
    3344:	0000                	unimp
    3346:	0501                	addi	a0,a0,0
    3348:	01030603          	lb	a2,16(t1)
    334c:	0a09                	addi	s4,s4,2
    334e:	0100                	addi	s0,sp,128
    3350:	3205                	jal	2c70 <_min_stack+0xc70>
    3352:	0306                	slli	t1,t1,0x1
    3354:	0900                	addi	s0,sp,144
    3356:	0000                	unimp
    3358:	0501                	addi	a0,a0,0
    335a:	01030603          	lb	a2,16(t1)
    335e:	0a09                	addi	s4,s4,2
    3360:	0100                	addi	s0,sp,128
    3362:	3205                	jal	2c82 <_min_stack+0xc82>
    3364:	0306                	slli	t1,t1,0x1
    3366:	0900                	addi	s0,sp,144
    3368:	0000                	unimp
    336a:	0501                	addi	a0,a0,0
    336c:	01030603          	lb	a2,16(t1)
    3370:	0a09                	addi	s4,s4,2
    3372:	0100                	addi	s0,sp,128
    3374:	3205                	jal	2c94 <_min_stack+0xc94>
    3376:	0306                	slli	t1,t1,0x1
    3378:	0900                	addi	s0,sp,144
    337a:	0000                	unimp
    337c:	0501                	addi	a0,a0,0
    337e:	01030603          	lb	a2,16(t1)
    3382:	0a09                	addi	s4,s4,2
    3384:	0100                	addi	s0,sp,128
    3386:	3205                	jal	2ca6 <_min_stack+0xca6>
    3388:	0306                	slli	t1,t1,0x1
    338a:	0900                	addi	s0,sp,144
    338c:	0000                	unimp
    338e:	0501                	addi	a0,a0,0
    3390:	01030603          	lb	a2,16(t1)
    3394:	0a09                	addi	s4,s4,2
    3396:	0100                	addi	s0,sp,128
    3398:	3205                	jal	2cb8 <_min_stack+0xcb8>
    339a:	0306                	slli	t1,t1,0x1
    339c:	0900                	addi	s0,sp,144
    339e:	0000                	unimp
    33a0:	0501                	addi	a0,a0,0
    33a2:	01030603          	lb	a2,16(t1)
    33a6:	0a09                	addi	s4,s4,2
    33a8:	0100                	addi	s0,sp,128
    33aa:	3205                	jal	2cca <_min_stack+0xcca>
    33ac:	0306                	slli	t1,t1,0x1
    33ae:	0900                	addi	s0,sp,144
    33b0:	0000                	unimp
    33b2:	0501                	addi	a0,a0,0
    33b4:	01030603          	lb	a2,16(t1)
    33b8:	0a09                	addi	s4,s4,2
    33ba:	0100                	addi	s0,sp,128
    33bc:	3205                	jal	2cdc <_min_stack+0xcdc>
    33be:	0306                	slli	t1,t1,0x1
    33c0:	0900                	addi	s0,sp,144
    33c2:	0000                	unimp
    33c4:	0501                	addi	a0,a0,0
    33c6:	01030603          	lb	a2,16(t1)
    33ca:	0a09                	addi	s4,s4,2
    33cc:	0100                	addi	s0,sp,128
    33ce:	3205                	jal	2cee <_min_stack+0xcee>
    33d0:	0306                	slli	t1,t1,0x1
    33d2:	0900                	addi	s0,sp,144
    33d4:	0000                	unimp
    33d6:	0501                	addi	a0,a0,0
    33d8:	01030603          	lb	a2,16(t1)
    33dc:	0a09                	addi	s4,s4,2
    33de:	0100                	addi	s0,sp,128
    33e0:	3205                	jal	2d00 <_min_stack+0xd00>
    33e2:	0306                	slli	t1,t1,0x1
    33e4:	0900                	addi	s0,sp,144
    33e6:	0000                	unimp
    33e8:	0501                	addi	a0,a0,0
    33ea:	01030603          	lb	a2,16(t1)
    33ee:	0a09                	addi	s4,s4,2
    33f0:	0100                	addi	s0,sp,128
    33f2:	3205                	jal	2d12 <_min_stack+0xd12>
    33f4:	0306                	slli	t1,t1,0x1
    33f6:	0900                	addi	s0,sp,144
    33f8:	0000                	unimp
    33fa:	0501                	addi	a0,a0,0
    33fc:	01030603          	lb	a2,16(t1)
    3400:	0a09                	addi	s4,s4,2
    3402:	0100                	addi	s0,sp,128
    3404:	3205                	jal	2d24 <_min_stack+0xd24>
    3406:	0306                	slli	t1,t1,0x1
    3408:	0900                	addi	s0,sp,144
    340a:	0000                	unimp
    340c:	0501                	addi	a0,a0,0
    340e:	01030603          	lb	a2,16(t1)
    3412:	0a09                	addi	s4,s4,2
    3414:	0100                	addi	s0,sp,128
    3416:	3205                	jal	2d36 <_min_stack+0xd36>
    3418:	0306                	slli	t1,t1,0x1
    341a:	0900                	addi	s0,sp,144
    341c:	0000                	unimp
    341e:	0501                	addi	a0,a0,0
    3420:	01030603          	lb	a2,16(t1)
    3424:	0a09                	addi	s4,s4,2
    3426:	0100                	addi	s0,sp,128
    3428:	3205                	jal	2d48 <_min_stack+0xd48>
    342a:	0306                	slli	t1,t1,0x1
    342c:	0900                	addi	s0,sp,144
    342e:	0000                	unimp
    3430:	0501                	addi	a0,a0,0
    3432:	01030603          	lb	a2,16(t1)
    3436:	0a09                	addi	s4,s4,2
    3438:	0100                	addi	s0,sp,128
    343a:	3205                	jal	2d5a <_min_stack+0xd5a>
    343c:	0306                	slli	t1,t1,0x1
    343e:	0900                	addi	s0,sp,144
    3440:	0000                	unimp
    3442:	0501                	addi	a0,a0,0
    3444:	01030603          	lb	a2,16(t1)
    3448:	0a09                	addi	s4,s4,2
    344a:	0100                	addi	s0,sp,128
    344c:	3205                	jal	2d6c <_min_stack+0xd6c>
    344e:	0306                	slli	t1,t1,0x1
    3450:	0900                	addi	s0,sp,144
    3452:	0000                	unimp
    3454:	0501                	addi	a0,a0,0
    3456:	01030603          	lb	a2,16(t1)
    345a:	0a09                	addi	s4,s4,2
    345c:	0100                	addi	s0,sp,128
    345e:	3205                	jal	2d7e <_min_stack+0xd7e>
    3460:	0306                	slli	t1,t1,0x1
    3462:	0900                	addi	s0,sp,144
    3464:	0000                	unimp
    3466:	0501                	addi	a0,a0,0
    3468:	01030603          	lb	a2,16(t1)
    346c:	0a09                	addi	s4,s4,2
    346e:	0100                	addi	s0,sp,128
    3470:	3205                	jal	2d90 <_min_stack+0xd90>
    3472:	0306                	slli	t1,t1,0x1
    3474:	0900                	addi	s0,sp,144
    3476:	0000                	unimp
    3478:	0501                	addi	a0,a0,0
    347a:	01030603          	lb	a2,16(t1)
    347e:	0a09                	addi	s4,s4,2
    3480:	0100                	addi	s0,sp,128
    3482:	3205                	jal	2da2 <_min_stack+0xda2>
    3484:	0306                	slli	t1,t1,0x1
    3486:	0900                	addi	s0,sp,144
    3488:	0000                	unimp
    348a:	0501                	addi	a0,a0,0
    348c:	01030603          	lb	a2,16(t1)
    3490:	0a09                	addi	s4,s4,2
    3492:	0100                	addi	s0,sp,128
    3494:	3205                	jal	2db4 <_min_stack+0xdb4>
    3496:	0306                	slli	t1,t1,0x1
    3498:	0900                	addi	s0,sp,144
    349a:	0000                	unimp
    349c:	0501                	addi	a0,a0,0
    349e:	01030603          	lb	a2,16(t1)
    34a2:	0a09                	addi	s4,s4,2
    34a4:	0100                	addi	s0,sp,128
    34a6:	3205                	jal	2dc6 <_min_stack+0xdc6>
    34a8:	0306                	slli	t1,t1,0x1
    34aa:	0900                	addi	s0,sp,144
    34ac:	0000                	unimp
    34ae:	0501                	addi	a0,a0,0
    34b0:	01030603          	lb	a2,16(t1)
    34b4:	0a09                	addi	s4,s4,2
    34b6:	0100                	addi	s0,sp,128
    34b8:	3205                	jal	2dd8 <_min_stack+0xdd8>
    34ba:	0306                	slli	t1,t1,0x1
    34bc:	0900                	addi	s0,sp,144
    34be:	0000                	unimp
    34c0:	0501                	addi	a0,a0,0
    34c2:	01030603          	lb	a2,16(t1)
    34c6:	0a09                	addi	s4,s4,2
    34c8:	0100                	addi	s0,sp,128
    34ca:	3205                	jal	2dea <_min_stack+0xdea>
    34cc:	0306                	slli	t1,t1,0x1
    34ce:	0900                	addi	s0,sp,144
    34d0:	0000                	unimp
    34d2:	0501                	addi	a0,a0,0
    34d4:	01030603          	lb	a2,16(t1)
    34d8:	0a09                	addi	s4,s4,2
    34da:	0100                	addi	s0,sp,128
    34dc:	3205                	jal	2dfc <_min_stack+0xdfc>
    34de:	0306                	slli	t1,t1,0x1
    34e0:	0900                	addi	s0,sp,144
    34e2:	0000                	unimp
    34e4:	0501                	addi	a0,a0,0
    34e6:	01030603          	lb	a2,16(t1)
    34ea:	0a09                	addi	s4,s4,2
    34ec:	0100                	addi	s0,sp,128
    34ee:	3205                	jal	2e0e <_min_stack+0xe0e>
    34f0:	0306                	slli	t1,t1,0x1
    34f2:	0900                	addi	s0,sp,144
    34f4:	0000                	unimp
    34f6:	0501                	addi	a0,a0,0
    34f8:	01030603          	lb	a2,16(t1)
    34fc:	0a09                	addi	s4,s4,2
    34fe:	0100                	addi	s0,sp,128
    3500:	3205                	jal	2e20 <_min_stack+0xe20>
    3502:	0306                	slli	t1,t1,0x1
    3504:	0900                	addi	s0,sp,144
    3506:	0000                	unimp
    3508:	0501                	addi	a0,a0,0
    350a:	01030603          	lb	a2,16(t1)
    350e:	0a09                	addi	s4,s4,2
    3510:	0100                	addi	s0,sp,128
    3512:	3205                	jal	2e32 <_min_stack+0xe32>
    3514:	0306                	slli	t1,t1,0x1
    3516:	0900                	addi	s0,sp,144
    3518:	0000                	unimp
    351a:	0501                	addi	a0,a0,0
    351c:	01030603          	lb	a2,16(t1)
    3520:	0a09                	addi	s4,s4,2
    3522:	0100                	addi	s0,sp,128
    3524:	3205                	jal	2e44 <_min_stack+0xe44>
    3526:	0306                	slli	t1,t1,0x1
    3528:	0900                	addi	s0,sp,144
    352a:	0000                	unimp
    352c:	0501                	addi	a0,a0,0
    352e:	01030603          	lb	a2,16(t1)
    3532:	0a09                	addi	s4,s4,2
    3534:	0100                	addi	s0,sp,128
    3536:	3205                	jal	2e56 <_min_stack+0xe56>
    3538:	0306                	slli	t1,t1,0x1
    353a:	0900                	addi	s0,sp,144
    353c:	0000                	unimp
    353e:	0501                	addi	a0,a0,0
    3540:	01030603          	lb	a2,16(t1)
    3544:	0a09                	addi	s4,s4,2
    3546:	0100                	addi	s0,sp,128
    3548:	3205                	jal	2e68 <_min_stack+0xe68>
    354a:	0306                	slli	t1,t1,0x1
    354c:	0900                	addi	s0,sp,144
    354e:	0000                	unimp
    3550:	0501                	addi	a0,a0,0
    3552:	01030603          	lb	a2,16(t1)
    3556:	0a09                	addi	s4,s4,2
    3558:	0100                	addi	s0,sp,128
    355a:	3205                	jal	2e7a <_min_stack+0xe7a>
    355c:	0306                	slli	t1,t1,0x1
    355e:	0900                	addi	s0,sp,144
    3560:	0000                	unimp
    3562:	0501                	addi	a0,a0,0
    3564:	01030603          	lb	a2,16(t1)
    3568:	0a09                	addi	s4,s4,2
    356a:	0100                	addi	s0,sp,128
    356c:	3205                	jal	2e8c <_min_stack+0xe8c>
    356e:	0306                	slli	t1,t1,0x1
    3570:	0900                	addi	s0,sp,144
    3572:	0000                	unimp
    3574:	0501                	addi	a0,a0,0
    3576:	01030603          	lb	a2,16(t1)
    357a:	0a09                	addi	s4,s4,2
    357c:	0100                	addi	s0,sp,128
    357e:	3205                	jal	2e9e <_min_stack+0xe9e>
    3580:	0306                	slli	t1,t1,0x1
    3582:	0900                	addi	s0,sp,144
    3584:	0000                	unimp
    3586:	0501                	addi	a0,a0,0
    3588:	01030603          	lb	a2,16(t1)
    358c:	0a09                	addi	s4,s4,2
    358e:	0100                	addi	s0,sp,128
    3590:	3205                	jal	2eb0 <_min_stack+0xeb0>
    3592:	0306                	slli	t1,t1,0x1
    3594:	0900                	addi	s0,sp,144
    3596:	0000                	unimp
    3598:	0501                	addi	a0,a0,0
    359a:	01030603          	lb	a2,16(t1)
    359e:	0c09                	addi	s8,s8,2
    35a0:	0100                	addi	s0,sp,128
    35a2:	3205                	jal	2ec2 <_min_stack+0xec2>
    35a4:	0306                	slli	t1,t1,0x1
    35a6:	0900                	addi	s0,sp,144
    35a8:	0000                	unimp
    35aa:	0501                	addi	a0,a0,0
    35ac:	01030603          	lb	a2,16(t1)
    35b0:	0a09                	addi	s4,s4,2
    35b2:	0100                	addi	s0,sp,128
    35b4:	3205                	jal	2ed4 <_min_stack+0xed4>
    35b6:	0306                	slli	t1,t1,0x1
    35b8:	0900                	addi	s0,sp,144
    35ba:	0000                	unimp
    35bc:	0501                	addi	a0,a0,0
    35be:	01030603          	lb	a2,16(t1)
    35c2:	0a09                	addi	s4,s4,2
    35c4:	0100                	addi	s0,sp,128
    35c6:	3205                	jal	2ee6 <_min_stack+0xee6>
    35c8:	0306                	slli	t1,t1,0x1
    35ca:	0900                	addi	s0,sp,144
    35cc:	0000                	unimp
    35ce:	0501                	addi	a0,a0,0
    35d0:	01030603          	lb	a2,16(t1)
    35d4:	0a09                	addi	s4,s4,2
    35d6:	0100                	addi	s0,sp,128
    35d8:	3205                	jal	2ef8 <_min_stack+0xef8>
    35da:	0306                	slli	t1,t1,0x1
    35dc:	0900                	addi	s0,sp,144
    35de:	0000                	unimp
    35e0:	0501                	addi	a0,a0,0
    35e2:	01030603          	lb	a2,16(t1)
    35e6:	0a09                	addi	s4,s4,2
    35e8:	0100                	addi	s0,sp,128
    35ea:	3205                	jal	2f0a <_min_stack+0xf0a>
    35ec:	0306                	slli	t1,t1,0x1
    35ee:	0900                	addi	s0,sp,144
    35f0:	0000                	unimp
    35f2:	0501                	addi	a0,a0,0
    35f4:	01030603          	lb	a2,16(t1)
    35f8:	0a09                	addi	s4,s4,2
    35fa:	0100                	addi	s0,sp,128
    35fc:	3205                	jal	2f1c <_min_stack+0xf1c>
    35fe:	0306                	slli	t1,t1,0x1
    3600:	0900                	addi	s0,sp,144
    3602:	0000                	unimp
    3604:	0501                	addi	a0,a0,0
    3606:	01030603          	lb	a2,16(t1)
    360a:	0a09                	addi	s4,s4,2
    360c:	0100                	addi	s0,sp,128
    360e:	3205                	jal	2f2e <_min_stack+0xf2e>
    3610:	0306                	slli	t1,t1,0x1
    3612:	0900                	addi	s0,sp,144
    3614:	0000                	unimp
    3616:	0501                	addi	a0,a0,0
    3618:	01030603          	lb	a2,16(t1)
    361c:	0a09                	addi	s4,s4,2
    361e:	0100                	addi	s0,sp,128
    3620:	3205                	jal	2f40 <_min_stack+0xf40>
    3622:	0306                	slli	t1,t1,0x1
    3624:	0900                	addi	s0,sp,144
    3626:	0000                	unimp
    3628:	0501                	addi	a0,a0,0
    362a:	01030603          	lb	a2,16(t1)
    362e:	0a09                	addi	s4,s4,2
    3630:	0100                	addi	s0,sp,128
    3632:	3205                	jal	2f52 <_min_stack+0xf52>
    3634:	0306                	slli	t1,t1,0x1
    3636:	0900                	addi	s0,sp,144
    3638:	0000                	unimp
    363a:	0501                	addi	a0,a0,0
    363c:	01030603          	lb	a2,16(t1)
    3640:	0a09                	addi	s4,s4,2
    3642:	0100                	addi	s0,sp,128
    3644:	3205                	jal	2f64 <_min_stack+0xf64>
    3646:	0306                	slli	t1,t1,0x1
    3648:	0900                	addi	s0,sp,144
    364a:	0000                	unimp
    364c:	0501                	addi	a0,a0,0
    364e:	01030603          	lb	a2,16(t1)
    3652:	0a09                	addi	s4,s4,2
    3654:	0100                	addi	s0,sp,128
    3656:	3205                	jal	2f76 <_min_stack+0xf76>
    3658:	0306                	slli	t1,t1,0x1
    365a:	0900                	addi	s0,sp,144
    365c:	0000                	unimp
    365e:	0501                	addi	a0,a0,0
    3660:	01030603          	lb	a2,16(t1)
    3664:	0a09                	addi	s4,s4,2
    3666:	0100                	addi	s0,sp,128
    3668:	3205                	jal	2f88 <_min_stack+0xf88>
    366a:	0306                	slli	t1,t1,0x1
    366c:	0900                	addi	s0,sp,144
    366e:	0000                	unimp
    3670:	0501                	addi	a0,a0,0
    3672:	01030603          	lb	a2,16(t1)
    3676:	0a09                	addi	s4,s4,2
    3678:	0100                	addi	s0,sp,128
    367a:	3205                	jal	2f9a <_min_stack+0xf9a>
    367c:	0306                	slli	t1,t1,0x1
    367e:	0900                	addi	s0,sp,144
    3680:	0000                	unimp
    3682:	0501                	addi	a0,a0,0
    3684:	01030603          	lb	a2,16(t1)
    3688:	0a09                	addi	s4,s4,2
    368a:	0100                	addi	s0,sp,128
    368c:	3205                	jal	2fac <_min_stack+0xfac>
    368e:	0306                	slli	t1,t1,0x1
    3690:	0900                	addi	s0,sp,144
    3692:	0000                	unimp
    3694:	0501                	addi	a0,a0,0
    3696:	01030603          	lb	a2,16(t1)
    369a:	0a09                	addi	s4,s4,2
    369c:	0100                	addi	s0,sp,128
    369e:	3205                	jal	2fbe <_min_stack+0xfbe>
    36a0:	0306                	slli	t1,t1,0x1
    36a2:	0900                	addi	s0,sp,144
    36a4:	0000                	unimp
    36a6:	0501                	addi	a0,a0,0
    36a8:	01030603          	lb	a2,16(t1)
    36ac:	0a09                	addi	s4,s4,2
    36ae:	0100                	addi	s0,sp,128
    36b0:	3205                	jal	2fd0 <_min_stack+0xfd0>
    36b2:	0306                	slli	t1,t1,0x1
    36b4:	0900                	addi	s0,sp,144
    36b6:	0000                	unimp
    36b8:	0501                	addi	a0,a0,0
    36ba:	01030603          	lb	a2,16(t1)
    36be:	0e09                	addi	t3,t3,2
    36c0:	0100                	addi	s0,sp,128
    36c2:	3205                	jal	2fe2 <_min_stack+0xfe2>
    36c4:	0306                	slli	t1,t1,0x1
    36c6:	0900                	addi	s0,sp,144
    36c8:	0000                	unimp
    36ca:	0501                	addi	a0,a0,0
    36cc:	01030603          	lb	a2,16(t1)
    36d0:	0e09                	addi	t3,t3,2
    36d2:	0100                	addi	s0,sp,128
    36d4:	3205                	jal	2ff4 <_min_stack+0xff4>
    36d6:	0306                	slli	t1,t1,0x1
    36d8:	0900                	addi	s0,sp,144
    36da:	0000                	unimp
    36dc:	0501                	addi	a0,a0,0
    36de:	01030603          	lb	a2,16(t1)
    36e2:	0e09                	addi	t3,t3,2
    36e4:	0100                	addi	s0,sp,128
    36e6:	3205                	jal	3006 <_min_stack+0x1006>
    36e8:	0306                	slli	t1,t1,0x1
    36ea:	0900                	addi	s0,sp,144
    36ec:	0000                	unimp
    36ee:	0501                	addi	a0,a0,0
    36f0:	01030603          	lb	a2,16(t1)
    36f4:	0e09                	addi	t3,t3,2
    36f6:	0100                	addi	s0,sp,128
    36f8:	3205                	jal	3018 <_min_stack+0x1018>
    36fa:	0306                	slli	t1,t1,0x1
    36fc:	0900                	addi	s0,sp,144
    36fe:	0000                	unimp
    3700:	0501                	addi	a0,a0,0
    3702:	01030603          	lb	a2,16(t1)
    3706:	0c09                	addi	s8,s8,2
    3708:	0100                	addi	s0,sp,128
    370a:	3205                	jal	302a <_min_stack+0x102a>
    370c:	0306                	slli	t1,t1,0x1
    370e:	0900                	addi	s0,sp,144
    3710:	0000                	unimp
    3712:	0501                	addi	a0,a0,0
    3714:	01030603          	lb	a2,16(t1)
    3718:	0e09                	addi	t3,t3,2
    371a:	0100                	addi	s0,sp,128
    371c:	3205                	jal	303c <_min_stack+0x103c>
    371e:	0306                	slli	t1,t1,0x1
    3720:	0900                	addi	s0,sp,144
    3722:	0000                	unimp
    3724:	0501                	addi	a0,a0,0
    3726:	01030603          	lb	a2,16(t1)
    372a:	0e09                	addi	t3,t3,2
    372c:	0100                	addi	s0,sp,128
    372e:	3205                	jal	304e <_min_stack+0x104e>
    3730:	0306                	slli	t1,t1,0x1
    3732:	0900                	addi	s0,sp,144
    3734:	0000                	unimp
    3736:	0501                	addi	a0,a0,0
    3738:	01030603          	lb	a2,16(t1)
    373c:	0e09                	addi	t3,t3,2
    373e:	0100                	addi	s0,sp,128
    3740:	3205                	jal	3060 <_min_stack+0x1060>
    3742:	0306                	slli	t1,t1,0x1
    3744:	0900                	addi	s0,sp,144
    3746:	0000                	unimp
    3748:	0501                	addi	a0,a0,0
    374a:	01030603          	lb	a2,16(t1)
    374e:	0a09                	addi	s4,s4,2
    3750:	0100                	addi	s0,sp,128
    3752:	3205                	jal	3072 <_min_stack+0x1072>
    3754:	0306                	slli	t1,t1,0x1
    3756:	0900                	addi	s0,sp,144
    3758:	0000                	unimp
    375a:	0501                	addi	a0,a0,0
    375c:	01030603          	lb	a2,16(t1)
    3760:	0e09                	addi	t3,t3,2
    3762:	0100                	addi	s0,sp,128
    3764:	3205                	jal	3084 <_min_stack+0x1084>
    3766:	0306                	slli	t1,t1,0x1
    3768:	0900                	addi	s0,sp,144
    376a:	0000                	unimp
    376c:	0501                	addi	a0,a0,0
    376e:	01030603          	lb	a2,16(t1)
    3772:	0e09                	addi	t3,t3,2
    3774:	0100                	addi	s0,sp,128
    3776:	3205                	jal	3096 <_min_stack+0x1096>
    3778:	0306                	slli	t1,t1,0x1
    377a:	0900                	addi	s0,sp,144
    377c:	0000                	unimp
    377e:	0501                	addi	a0,a0,0
    3780:	01030603          	lb	a2,16(t1)
    3784:	0e09                	addi	t3,t3,2
    3786:	0100                	addi	s0,sp,128
    3788:	3205                	jal	30a8 <_min_stack+0x10a8>
    378a:	0306                	slli	t1,t1,0x1
    378c:	0900                	addi	s0,sp,144
    378e:	0000                	unimp
    3790:	0501                	addi	a0,a0,0
    3792:	01030603          	lb	a2,16(t1)
    3796:	0e09                	addi	t3,t3,2
    3798:	0100                	addi	s0,sp,128
    379a:	3205                	jal	30ba <_min_stack+0x10ba>
    379c:	0306                	slli	t1,t1,0x1
    379e:	0900                	addi	s0,sp,144
    37a0:	0000                	unimp
    37a2:	0501                	addi	a0,a0,0
    37a4:	01030603          	lb	a2,16(t1)
    37a8:	0e09                	addi	t3,t3,2
    37aa:	0100                	addi	s0,sp,128
    37ac:	3205                	jal	30cc <_min_stack+0x10cc>
    37ae:	0306                	slli	t1,t1,0x1
    37b0:	0900                	addi	s0,sp,144
    37b2:	0000                	unimp
    37b4:	0501                	addi	a0,a0,0
    37b6:	01030603          	lb	a2,16(t1)
    37ba:	0e09                	addi	t3,t3,2
    37bc:	0100                	addi	s0,sp,128
    37be:	3205                	jal	30de <_min_stack+0x10de>
    37c0:	0306                	slli	t1,t1,0x1
    37c2:	0900                	addi	s0,sp,144
    37c4:	0000                	unimp
    37c6:	0501                	addi	a0,a0,0
    37c8:	01030603          	lb	a2,16(t1)
    37cc:	0a09                	addi	s4,s4,2
    37ce:	0100                	addi	s0,sp,128
    37d0:	3205                	jal	30f0 <_min_stack+0x10f0>
    37d2:	0306                	slli	t1,t1,0x1
    37d4:	0900                	addi	s0,sp,144
    37d6:	0000                	unimp
    37d8:	0501                	addi	a0,a0,0
    37da:	01030603          	lb	a2,16(t1)
    37de:	0a09                	addi	s4,s4,2
    37e0:	0100                	addi	s0,sp,128
    37e2:	3205                	jal	3102 <_min_stack+0x1102>
    37e4:	0306                	slli	t1,t1,0x1
    37e6:	0900                	addi	s0,sp,144
    37e8:	0000                	unimp
    37ea:	0501                	addi	a0,a0,0
    37ec:	01030603          	lb	a2,16(t1)
    37f0:	0e09                	addi	t3,t3,2
    37f2:	0100                	addi	s0,sp,128
    37f4:	3205                	jal	3114 <_min_stack+0x1114>
    37f6:	0306                	slli	t1,t1,0x1
    37f8:	0900                	addi	s0,sp,144
    37fa:	0000                	unimp
    37fc:	0501                	addi	a0,a0,0
    37fe:	01030603          	lb	a2,16(t1)
    3802:	0e09                	addi	t3,t3,2
    3804:	0100                	addi	s0,sp,128
    3806:	3205                	jal	3126 <_min_stack+0x1126>
    3808:	0306                	slli	t1,t1,0x1
    380a:	0900                	addi	s0,sp,144
    380c:	0000                	unimp
    380e:	0501                	addi	a0,a0,0
    3810:	01030603          	lb	a2,16(t1)
    3814:	0e09                	addi	t3,t3,2
    3816:	0100                	addi	s0,sp,128
    3818:	3205                	jal	3138 <_min_stack+0x1138>
    381a:	0306                	slli	t1,t1,0x1
    381c:	0900                	addi	s0,sp,144
    381e:	0000                	unimp
    3820:	0501                	addi	a0,a0,0
    3822:	01030603          	lb	a2,16(t1)
    3826:	0e09                	addi	t3,t3,2
    3828:	0100                	addi	s0,sp,128
    382a:	3205                	jal	314a <_min_stack+0x114a>
    382c:	0306                	slli	t1,t1,0x1
    382e:	0900                	addi	s0,sp,144
    3830:	0000                	unimp
    3832:	0501                	addi	a0,a0,0
    3834:	01030603          	lb	a2,16(t1)
    3838:	0e09                	addi	t3,t3,2
    383a:	0100                	addi	s0,sp,128
    383c:	3205                	jal	315c <_min_stack+0x115c>
    383e:	0306                	slli	t1,t1,0x1
    3840:	0900                	addi	s0,sp,144
    3842:	0000                	unimp
    3844:	0501                	addi	a0,a0,0
    3846:	01030603          	lb	a2,16(t1)
    384a:	0a09                	addi	s4,s4,2
    384c:	0100                	addi	s0,sp,128
    384e:	3205                	jal	316e <_min_stack+0x116e>
    3850:	0306                	slli	t1,t1,0x1
    3852:	0900                	addi	s0,sp,144
    3854:	0000                	unimp
    3856:	0501                	addi	a0,a0,0
    3858:	01030603          	lb	a2,16(t1)
    385c:	0e09                	addi	t3,t3,2
    385e:	0100                	addi	s0,sp,128
    3860:	3205                	jal	3180 <_min_stack+0x1180>
    3862:	0306                	slli	t1,t1,0x1
    3864:	0900                	addi	s0,sp,144
    3866:	0000                	unimp
    3868:	0501                	addi	a0,a0,0
    386a:	01030603          	lb	a2,16(t1)
    386e:	0e09                	addi	t3,t3,2
    3870:	0100                	addi	s0,sp,128
    3872:	3205                	jal	3192 <_min_stack+0x1192>
    3874:	0306                	slli	t1,t1,0x1
    3876:	0900                	addi	s0,sp,144
    3878:	0000                	unimp
    387a:	0501                	addi	a0,a0,0
    387c:	01030603          	lb	a2,16(t1)
    3880:	0e09                	addi	t3,t3,2
    3882:	0100                	addi	s0,sp,128
    3884:	3205                	jal	31a4 <_min_stack+0x11a4>
    3886:	0306                	slli	t1,t1,0x1
    3888:	0900                	addi	s0,sp,144
    388a:	0000                	unimp
    388c:	0501                	addi	a0,a0,0
    388e:	01030603          	lb	a2,16(t1)
    3892:	0e09                	addi	t3,t3,2
    3894:	0100                	addi	s0,sp,128
    3896:	3205                	jal	31b6 <_min_stack+0x11b6>
    3898:	0306                	slli	t1,t1,0x1
    389a:	0900                	addi	s0,sp,144
    389c:	0000                	unimp
    389e:	0301                	addi	t1,t1,0
    38a0:	0901                	addi	s2,s2,0
    38a2:	0008                	.2byte	0x8
    38a4:	0301                	addi	t1,t1,0
    38a6:	097f                	.2byte	0x97f
    38a8:	0004                	.2byte	0x4
    38aa:	0501                	addi	a0,a0,0
    38ac:	01030603          	lb	a2,16(t1)
    38b0:	0609                	addi	a2,a2,2
    38b2:	0100                	addi	s0,sp,128
    38b4:	3205                	jal	31d4 <_min_stack+0x11d4>
    38b6:	0306                	slli	t1,t1,0x1
    38b8:	0900                	addi	s0,sp,144
    38ba:	0000                	unimp
    38bc:	0501                	addi	a0,a0,0
    38be:	01030603          	lb	a2,16(t1)
    38c2:	0a09                	addi	s4,s4,2
    38c4:	0100                	addi	s0,sp,128
    38c6:	3205                	jal	31e6 <_min_stack+0x11e6>
    38c8:	0306                	slli	t1,t1,0x1
    38ca:	0900                	addi	s0,sp,144
    38cc:	0000                	unimp
    38ce:	0501                	addi	a0,a0,0
    38d0:	01030603          	lb	a2,16(t1)
    38d4:	0e09                	addi	t3,t3,2
    38d6:	0100                	addi	s0,sp,128
    38d8:	3205                	jal	31f8 <_min_stack+0x11f8>
    38da:	0306                	slli	t1,t1,0x1
    38dc:	0900                	addi	s0,sp,144
    38de:	0000                	unimp
    38e0:	0501                	addi	a0,a0,0
    38e2:	01030603          	lb	a2,16(t1)
    38e6:	0a09                	addi	s4,s4,2
    38e8:	0100                	addi	s0,sp,128
    38ea:	3205                	jal	320a <_min_stack+0x120a>
    38ec:	0306                	slli	t1,t1,0x1
    38ee:	0900                	addi	s0,sp,144
    38f0:	0000                	unimp
    38f2:	0501                	addi	a0,a0,0
    38f4:	01030603          	lb	a2,16(t1)
    38f8:	0a09                	addi	s4,s4,2
    38fa:	0100                	addi	s0,sp,128
    38fc:	3205                	jal	321c <_min_stack+0x121c>
    38fe:	0306                	slli	t1,t1,0x1
    3900:	0900                	addi	s0,sp,144
    3902:	0000                	unimp
    3904:	0501                	addi	a0,a0,0
    3906:	01030603          	lb	a2,16(t1)
    390a:	0e09                	addi	t3,t3,2
    390c:	0100                	addi	s0,sp,128
    390e:	3205                	jal	322e <_min_stack+0x122e>
    3910:	0306                	slli	t1,t1,0x1
    3912:	0900                	addi	s0,sp,144
    3914:	0000                	unimp
    3916:	0501                	addi	a0,a0,0
    3918:	01030603          	lb	a2,16(t1)
    391c:	0e09                	addi	t3,t3,2
    391e:	0100                	addi	s0,sp,128
    3920:	3205                	jal	3240 <_min_stack+0x1240>
    3922:	0306                	slli	t1,t1,0x1
    3924:	0900                	addi	s0,sp,144
    3926:	0000                	unimp
    3928:	0501                	addi	a0,a0,0
    392a:	01030603          	lb	a2,16(t1)
    392e:	0c09                	addi	s8,s8,2
    3930:	0100                	addi	s0,sp,128
    3932:	3205                	jal	3252 <_min_stack+0x1252>
    3934:	0306                	slli	t1,t1,0x1
    3936:	0900                	addi	s0,sp,144
    3938:	0000                	unimp
    393a:	0501                	addi	a0,a0,0
    393c:	01030603          	lb	a2,16(t1)
    3940:	0e09                	addi	t3,t3,2
    3942:	0100                	addi	s0,sp,128
    3944:	3205                	jal	3264 <_min_stack+0x1264>
    3946:	0306                	slli	t1,t1,0x1
    3948:	0900                	addi	s0,sp,144
    394a:	0000                	unimp
    394c:	0501                	addi	a0,a0,0
    394e:	01030603          	lb	a2,16(t1)
    3952:	0a09                	addi	s4,s4,2
    3954:	0100                	addi	s0,sp,128
    3956:	3205                	jal	3276 <_min_stack+0x1276>
    3958:	0306                	slli	t1,t1,0x1
    395a:	0900                	addi	s0,sp,144
    395c:	0000                	unimp
    395e:	0501                	addi	a0,a0,0
    3960:	01030603          	lb	a2,16(t1)
    3964:	0e09                	addi	t3,t3,2
    3966:	0100                	addi	s0,sp,128
    3968:	3205                	jal	3288 <_min_stack+0x1288>
    396a:	0306                	slli	t1,t1,0x1
    396c:	0900                	addi	s0,sp,144
    396e:	0000                	unimp
    3970:	0501                	addi	a0,a0,0
    3972:	01030603          	lb	a2,16(t1)
    3976:	0609                	addi	a2,a2,2
    3978:	0100                	addi	s0,sp,128
    397a:	3205                	jal	329a <_min_stack+0x129a>
    397c:	0306                	slli	t1,t1,0x1
    397e:	0900                	addi	s0,sp,144
    3980:	0000                	unimp
    3982:	0501                	addi	a0,a0,0
    3984:	01030603          	lb	a2,16(t1)
    3988:	0e09                	addi	t3,t3,2
    398a:	0100                	addi	s0,sp,128
    398c:	3205                	jal	32ac <_min_stack+0x12ac>
    398e:	0306                	slli	t1,t1,0x1
    3990:	0900                	addi	s0,sp,144
    3992:	0000                	unimp
    3994:	0501                	addi	a0,a0,0
    3996:	01030603          	lb	a2,16(t1)
    399a:	0e09                	addi	t3,t3,2
    399c:	0100                	addi	s0,sp,128
    399e:	3205                	jal	32be <_min_stack+0x12be>
    39a0:	0306                	slli	t1,t1,0x1
    39a2:	0900                	addi	s0,sp,144
    39a4:	0000                	unimp
    39a6:	0501                	addi	a0,a0,0
    39a8:	01030603          	lb	a2,16(t1)
    39ac:	0c09                	addi	s8,s8,2
    39ae:	0100                	addi	s0,sp,128
    39b0:	3205                	jal	32d0 <_min_stack+0x12d0>
    39b2:	0306                	slli	t1,t1,0x1
    39b4:	0900                	addi	s0,sp,144
    39b6:	0000                	unimp
    39b8:	0501                	addi	a0,a0,0
    39ba:	01030603          	lb	a2,16(t1)
    39be:	0e09                	addi	t3,t3,2
    39c0:	0100                	addi	s0,sp,128
    39c2:	3205                	jal	32e2 <_min_stack+0x12e2>
    39c4:	0306                	slli	t1,t1,0x1
    39c6:	0900                	addi	s0,sp,144
    39c8:	0000                	unimp
    39ca:	0501                	addi	a0,a0,0
    39cc:	01030603          	lb	a2,16(t1)
    39d0:	0e09                	addi	t3,t3,2
    39d2:	0100                	addi	s0,sp,128
    39d4:	3205                	jal	32f4 <_min_stack+0x12f4>
    39d6:	0306                	slli	t1,t1,0x1
    39d8:	0900                	addi	s0,sp,144
    39da:	0000                	unimp
    39dc:	0501                	addi	a0,a0,0
    39de:	01030603          	lb	a2,16(t1)
    39e2:	0e09                	addi	t3,t3,2
    39e4:	0100                	addi	s0,sp,128
    39e6:	3205                	jal	3306 <_min_stack+0x1306>
    39e8:	0306                	slli	t1,t1,0x1
    39ea:	0900                	addi	s0,sp,144
    39ec:	0000                	unimp
    39ee:	0501                	addi	a0,a0,0
    39f0:	01030603          	lb	a2,16(t1)
    39f4:	0e09                	addi	t3,t3,2
    39f6:	0100                	addi	s0,sp,128
    39f8:	3205                	jal	3318 <_min_stack+0x1318>
    39fa:	0306                	slli	t1,t1,0x1
    39fc:	0900                	addi	s0,sp,144
    39fe:	0000                	unimp
    3a00:	0501                	addi	a0,a0,0
    3a02:	01030603          	lb	a2,16(t1)
    3a06:	0a09                	addi	s4,s4,2
    3a08:	0100                	addi	s0,sp,128
    3a0a:	3205                	jal	332a <_min_stack+0x132a>
    3a0c:	0306                	slli	t1,t1,0x1
    3a0e:	0900                	addi	s0,sp,144
    3a10:	0000                	unimp
    3a12:	0501                	addi	a0,a0,0
    3a14:	01030603          	lb	a2,16(t1)
    3a18:	0e09                	addi	t3,t3,2
    3a1a:	0100                	addi	s0,sp,128
    3a1c:	3205                	jal	333c <_min_stack+0x133c>
    3a1e:	0306                	slli	t1,t1,0x1
    3a20:	0900                	addi	s0,sp,144
    3a22:	0000                	unimp
    3a24:	0501                	addi	a0,a0,0
    3a26:	01030603          	lb	a2,16(t1)
    3a2a:	0e09                	addi	t3,t3,2
    3a2c:	0100                	addi	s0,sp,128
    3a2e:	3205                	jal	334e <_min_stack+0x134e>
    3a30:	0306                	slli	t1,t1,0x1
    3a32:	0900                	addi	s0,sp,144
    3a34:	0000                	unimp
    3a36:	0501                	addi	a0,a0,0
    3a38:	01030603          	lb	a2,16(t1)
    3a3c:	0a09                	addi	s4,s4,2
    3a3e:	0100                	addi	s0,sp,128
    3a40:	3205                	jal	3360 <_min_stack+0x1360>
    3a42:	0306                	slli	t1,t1,0x1
    3a44:	0900                	addi	s0,sp,144
    3a46:	0000                	unimp
    3a48:	0501                	addi	a0,a0,0
    3a4a:	01030603          	lb	a2,16(t1)
    3a4e:	0a09                	addi	s4,s4,2
    3a50:	0100                	addi	s0,sp,128
    3a52:	3205                	jal	3372 <_min_stack+0x1372>
    3a54:	0306                	slli	t1,t1,0x1
    3a56:	0900                	addi	s0,sp,144
    3a58:	0000                	unimp
    3a5a:	0501                	addi	a0,a0,0
    3a5c:	01030603          	lb	a2,16(t1)
    3a60:	0a09                	addi	s4,s4,2
    3a62:	0100                	addi	s0,sp,128
    3a64:	3205                	jal	3384 <_min_stack+0x1384>
    3a66:	0306                	slli	t1,t1,0x1
    3a68:	0900                	addi	s0,sp,144
    3a6a:	0000                	unimp
    3a6c:	0501                	addi	a0,a0,0
    3a6e:	01030603          	lb	a2,16(t1)
    3a72:	0e09                	addi	t3,t3,2
    3a74:	0100                	addi	s0,sp,128
    3a76:	3205                	jal	3396 <_min_stack+0x1396>
    3a78:	0306                	slli	t1,t1,0x1
    3a7a:	0900                	addi	s0,sp,144
    3a7c:	0000                	unimp
    3a7e:	0501                	addi	a0,a0,0
    3a80:	01030603          	lb	a2,16(t1)
    3a84:	0e09                	addi	t3,t3,2
    3a86:	0100                	addi	s0,sp,128
    3a88:	3205                	jal	33a8 <_min_stack+0x13a8>
    3a8a:	0306                	slli	t1,t1,0x1
    3a8c:	0900                	addi	s0,sp,144
    3a8e:	0000                	unimp
    3a90:	0501                	addi	a0,a0,0
    3a92:	01030603          	lb	a2,16(t1)
    3a96:	0a09                	addi	s4,s4,2
    3a98:	0100                	addi	s0,sp,128
    3a9a:	3205                	jal	33ba <_min_stack+0x13ba>
    3a9c:	0306                	slli	t1,t1,0x1
    3a9e:	0900                	addi	s0,sp,144
    3aa0:	0000                	unimp
    3aa2:	0501                	addi	a0,a0,0
    3aa4:	01030603          	lb	a2,16(t1)
    3aa8:	0e09                	addi	t3,t3,2
    3aaa:	0100                	addi	s0,sp,128
    3aac:	3205                	jal	33cc <_min_stack+0x13cc>
    3aae:	0306                	slli	t1,t1,0x1
    3ab0:	0900                	addi	s0,sp,144
    3ab2:	0000                	unimp
    3ab4:	0501                	addi	a0,a0,0
    3ab6:	01030603          	lb	a2,16(t1)
    3aba:	0e09                	addi	t3,t3,2
    3abc:	0100                	addi	s0,sp,128
    3abe:	3205                	jal	33de <_min_stack+0x13de>
    3ac0:	0306                	slli	t1,t1,0x1
    3ac2:	0900                	addi	s0,sp,144
    3ac4:	0000                	unimp
    3ac6:	0501                	addi	a0,a0,0
    3ac8:	01030603          	lb	a2,16(t1)
    3acc:	0e09                	addi	t3,t3,2
    3ace:	0100                	addi	s0,sp,128
    3ad0:	3205                	jal	33f0 <_min_stack+0x13f0>
    3ad2:	0306                	slli	t1,t1,0x1
    3ad4:	0900                	addi	s0,sp,144
    3ad6:	0000                	unimp
    3ad8:	0301                	addi	t1,t1,0
    3ada:	0901                	addi	s2,s2,0
    3adc:	000c                	.2byte	0xc
    3ade:	0301                	addi	t1,t1,0
    3ae0:	097f                	.2byte	0x97f
    3ae2:	0004                	.2byte	0x4
    3ae4:	0501                	addi	a0,a0,0
    3ae6:	01030603          	lb	a2,16(t1)
    3aea:	0209                	addi	tp,tp,2 # 2 <_min_stack-0x1ffe>
    3aec:	0100                	addi	s0,sp,128
    3aee:	3205                	jal	340e <_min_stack+0x140e>
    3af0:	0306                	slli	t1,t1,0x1
    3af2:	0900                	addi	s0,sp,144
    3af4:	0000                	unimp
    3af6:	0501                	addi	a0,a0,0
    3af8:	01030603          	lb	a2,16(t1)
    3afc:	0c09                	addi	s8,s8,2
    3afe:	0100                	addi	s0,sp,128
    3b00:	3205                	jal	3420 <_min_stack+0x1420>
    3b02:	0306                	slli	t1,t1,0x1
    3b04:	0900                	addi	s0,sp,144
    3b06:	0000                	unimp
    3b08:	0501                	addi	a0,a0,0
    3b0a:	01030603          	lb	a2,16(t1)
    3b0e:	0e09                	addi	t3,t3,2
    3b10:	0100                	addi	s0,sp,128
    3b12:	3205                	jal	3432 <_min_stack+0x1432>
    3b14:	0306                	slli	t1,t1,0x1
    3b16:	0900                	addi	s0,sp,144
    3b18:	0000                	unimp
    3b1a:	0501                	addi	a0,a0,0
    3b1c:	01030603          	lb	a2,16(t1)
    3b20:	0a09                	addi	s4,s4,2
    3b22:	0100                	addi	s0,sp,128
    3b24:	3205                	jal	3444 <_min_stack+0x1444>
    3b26:	0306                	slli	t1,t1,0x1
    3b28:	0900                	addi	s0,sp,144
    3b2a:	0000                	unimp
    3b2c:	0501                	addi	a0,a0,0
    3b2e:	01030603          	lb	a2,16(t1)
    3b32:	0c09                	addi	s8,s8,2
    3b34:	0100                	addi	s0,sp,128
    3b36:	3205                	jal	3456 <_min_stack+0x1456>
    3b38:	0306                	slli	t1,t1,0x1
    3b3a:	0900                	addi	s0,sp,144
    3b3c:	0000                	unimp
    3b3e:	0501                	addi	a0,a0,0
    3b40:	01030603          	lb	a2,16(t1)
    3b44:	0e09                	addi	t3,t3,2
    3b46:	0100                	addi	s0,sp,128
    3b48:	3205                	jal	3468 <_min_stack+0x1468>
    3b4a:	0306                	slli	t1,t1,0x1
    3b4c:	0900                	addi	s0,sp,144
    3b4e:	0000                	unimp
    3b50:	0501                	addi	a0,a0,0
    3b52:	01030603          	lb	a2,16(t1)
    3b56:	0e09                	addi	t3,t3,2
    3b58:	0100                	addi	s0,sp,128
    3b5a:	3205                	jal	347a <_min_stack+0x147a>
    3b5c:	0306                	slli	t1,t1,0x1
    3b5e:	0900                	addi	s0,sp,144
    3b60:	0000                	unimp
    3b62:	0501                	addi	a0,a0,0
    3b64:	01030603          	lb	a2,16(t1)
    3b68:	0609                	addi	a2,a2,2
    3b6a:	0100                	addi	s0,sp,128
    3b6c:	3205                	jal	348c <_min_stack+0x148c>
    3b6e:	0306                	slli	t1,t1,0x1
    3b70:	0900                	addi	s0,sp,144
    3b72:	0000                	unimp
    3b74:	0501                	addi	a0,a0,0
    3b76:	01030603          	lb	a2,16(t1)
    3b7a:	0e09                	addi	t3,t3,2
    3b7c:	0100                	addi	s0,sp,128
    3b7e:	3205                	jal	349e <_min_stack+0x149e>
    3b80:	0306                	slli	t1,t1,0x1
    3b82:	0900                	addi	s0,sp,144
    3b84:	0000                	unimp
    3b86:	0501                	addi	a0,a0,0
    3b88:	01030603          	lb	a2,16(t1)
    3b8c:	0e09                	addi	t3,t3,2
    3b8e:	0100                	addi	s0,sp,128
    3b90:	3205                	jal	34b0 <_min_stack+0x14b0>
    3b92:	0306                	slli	t1,t1,0x1
    3b94:	0900                	addi	s0,sp,144
    3b96:	0000                	unimp
    3b98:	0501                	addi	a0,a0,0
    3b9a:	01030603          	lb	a2,16(t1)
    3b9e:	0c09                	addi	s8,s8,2
    3ba0:	0100                	addi	s0,sp,128
    3ba2:	3205                	jal	34c2 <_min_stack+0x14c2>
    3ba4:	0306                	slli	t1,t1,0x1
    3ba6:	0900                	addi	s0,sp,144
    3ba8:	0000                	unimp
    3baa:	0501                	addi	a0,a0,0
    3bac:	01030603          	lb	a2,16(t1)
    3bb0:	0e09                	addi	t3,t3,2
    3bb2:	0100                	addi	s0,sp,128
    3bb4:	3205                	jal	34d4 <_min_stack+0x14d4>
    3bb6:	0306                	slli	t1,t1,0x1
    3bb8:	0900                	addi	s0,sp,144
    3bba:	0000                	unimp
    3bbc:	0501                	addi	a0,a0,0
    3bbe:	01030603          	lb	a2,16(t1)
    3bc2:	0e09                	addi	t3,t3,2
    3bc4:	0100                	addi	s0,sp,128
    3bc6:	3205                	jal	34e6 <_min_stack+0x14e6>
    3bc8:	0306                	slli	t1,t1,0x1
    3bca:	0900                	addi	s0,sp,144
    3bcc:	0000                	unimp
    3bce:	0501                	addi	a0,a0,0
    3bd0:	01030603          	lb	a2,16(t1)
    3bd4:	0e09                	addi	t3,t3,2
    3bd6:	0100                	addi	s0,sp,128
    3bd8:	3205                	jal	34f8 <_min_stack+0x14f8>
    3bda:	0306                	slli	t1,t1,0x1
    3bdc:	0900                	addi	s0,sp,144
    3bde:	0000                	unimp
    3be0:	0501                	addi	a0,a0,0
    3be2:	01030603          	lb	a2,16(t1)
    3be6:	0609                	addi	a2,a2,2
    3be8:	0100                	addi	s0,sp,128
    3bea:	3205                	jal	350a <_min_stack+0x150a>
    3bec:	0306                	slli	t1,t1,0x1
    3bee:	0900                	addi	s0,sp,144
    3bf0:	0000                	unimp
    3bf2:	0501                	addi	a0,a0,0
    3bf4:	01030603          	lb	a2,16(t1)
    3bf8:	0e09                	addi	t3,t3,2
    3bfa:	0100                	addi	s0,sp,128
    3bfc:	3205                	jal	351c <_min_stack+0x151c>
    3bfe:	0306                	slli	t1,t1,0x1
    3c00:	0900                	addi	s0,sp,144
    3c02:	0000                	unimp
    3c04:	0501                	addi	a0,a0,0
    3c06:	01030603          	lb	a2,16(t1)
    3c0a:	0e09                	addi	t3,t3,2
    3c0c:	0100                	addi	s0,sp,128
    3c0e:	3205                	jal	352e <_min_stack+0x152e>
    3c10:	0306                	slli	t1,t1,0x1
    3c12:	0900                	addi	s0,sp,144
    3c14:	0000                	unimp
    3c16:	0501                	addi	a0,a0,0
    3c18:	01030603          	lb	a2,16(t1)
    3c1c:	0e09                	addi	t3,t3,2
    3c1e:	0100                	addi	s0,sp,128
    3c20:	3205                	jal	3540 <_min_stack+0x1540>
    3c22:	0306                	slli	t1,t1,0x1
    3c24:	0900                	addi	s0,sp,144
    3c26:	0000                	unimp
    3c28:	0501                	addi	a0,a0,0
    3c2a:	01030603          	lb	a2,16(t1)
    3c2e:	0e09                	addi	t3,t3,2
    3c30:	0100                	addi	s0,sp,128
    3c32:	3205                	jal	3552 <_min_stack+0x1552>
    3c34:	0306                	slli	t1,t1,0x1
    3c36:	0900                	addi	s0,sp,144
    3c38:	0000                	unimp
    3c3a:	0501                	addi	a0,a0,0
    3c3c:	01030603          	lb	a2,16(t1)
    3c40:	0e09                	addi	t3,t3,2
    3c42:	0100                	addi	s0,sp,128
    3c44:	3205                	jal	3564 <_min_stack+0x1564>
    3c46:	0306                	slli	t1,t1,0x1
    3c48:	0900                	addi	s0,sp,144
    3c4a:	0000                	unimp
    3c4c:	0501                	addi	a0,a0,0
    3c4e:	01030603          	lb	a2,16(t1)
    3c52:	0e09                	addi	t3,t3,2
    3c54:	0100                	addi	s0,sp,128
    3c56:	3205                	jal	3576 <_min_stack+0x1576>
    3c58:	0306                	slli	t1,t1,0x1
    3c5a:	0900                	addi	s0,sp,144
    3c5c:	0000                	unimp
    3c5e:	0501                	addi	a0,a0,0
    3c60:	01030603          	lb	a2,16(t1)
    3c64:	0e09                	addi	t3,t3,2
    3c66:	0100                	addi	s0,sp,128
    3c68:	3205                	jal	3588 <_min_stack+0x1588>
    3c6a:	0306                	slli	t1,t1,0x1
    3c6c:	0900                	addi	s0,sp,144
    3c6e:	0000                	unimp
    3c70:	0501                	addi	a0,a0,0
    3c72:	01030603          	lb	a2,16(t1)
    3c76:	0e09                	addi	t3,t3,2
    3c78:	0100                	addi	s0,sp,128
    3c7a:	3205                	jal	359a <_min_stack+0x159a>
    3c7c:	0306                	slli	t1,t1,0x1
    3c7e:	0900                	addi	s0,sp,144
    3c80:	0000                	unimp
    3c82:	0501                	addi	a0,a0,0
    3c84:	01030603          	lb	a2,16(t1)
    3c88:	0609                	addi	a2,a2,2
    3c8a:	0100                	addi	s0,sp,128
    3c8c:	3205                	jal	35ac <_min_stack+0x15ac>
    3c8e:	0306                	slli	t1,t1,0x1
    3c90:	0900                	addi	s0,sp,144
    3c92:	0000                	unimp
    3c94:	0501                	addi	a0,a0,0
    3c96:	01030603          	lb	a2,16(t1)
    3c9a:	0a09                	addi	s4,s4,2
    3c9c:	0100                	addi	s0,sp,128
    3c9e:	3205                	jal	35be <_min_stack+0x15be>
    3ca0:	0306                	slli	t1,t1,0x1
    3ca2:	0900                	addi	s0,sp,144
    3ca4:	0000                	unimp
    3ca6:	0301                	addi	t1,t1,0
    3ca8:	0901                	addi	s2,s2,0
    3caa:	000c                	.2byte	0xc
    3cac:	0301                	addi	t1,t1,0
    3cae:	097f                	.2byte	0x97f
    3cb0:	0004                	.2byte	0x4
    3cb2:	0501                	addi	a0,a0,0
    3cb4:	01030603          	lb	a2,16(t1)
    3cb8:	0209                	addi	tp,tp,2 # 2 <_min_stack-0x1ffe>
    3cba:	0100                	addi	s0,sp,128
    3cbc:	3205                	jal	35dc <_min_stack+0x15dc>
    3cbe:	0306                	slli	t1,t1,0x1
    3cc0:	0900                	addi	s0,sp,144
    3cc2:	0000                	unimp
    3cc4:	0501                	addi	a0,a0,0
    3cc6:	01030603          	lb	a2,16(t1)
    3cca:	0a09                	addi	s4,s4,2
    3ccc:	0100                	addi	s0,sp,128
    3cce:	3205                	jal	35ee <_min_stack+0x15ee>
    3cd0:	0306                	slli	t1,t1,0x1
    3cd2:	0900                	addi	s0,sp,144
    3cd4:	0000                	unimp
    3cd6:	0501                	addi	a0,a0,0
    3cd8:	01030603          	lb	a2,16(t1)
    3cdc:	0e09                	addi	t3,t3,2
    3cde:	0100                	addi	s0,sp,128
    3ce0:	3205                	jal	3600 <_min_stack+0x1600>
    3ce2:	0306                	slli	t1,t1,0x1
    3ce4:	0900                	addi	s0,sp,144
    3ce6:	0000                	unimp
    3ce8:	0501                	addi	a0,a0,0
    3cea:	01030603          	lb	a2,16(t1)
    3cee:	0e09                	addi	t3,t3,2
    3cf0:	0100                	addi	s0,sp,128
    3cf2:	3205                	jal	3612 <_min_stack+0x1612>
    3cf4:	0306                	slli	t1,t1,0x1
    3cf6:	0900                	addi	s0,sp,144
    3cf8:	0000                	unimp
    3cfa:	0301                	addi	t1,t1,0
    3cfc:	0901                	addi	s2,s2,0
    3cfe:	0004                	.2byte	0x4
    3d00:	0301                	addi	t1,t1,0
    3d02:	097f                	.2byte	0x97f
    3d04:	0004                	.2byte	0x4
    3d06:	0501                	addi	a0,a0,0
    3d08:	01030603          	lb	a2,16(t1)
    3d0c:	0a09                	addi	s4,s4,2
    3d0e:	0100                	addi	s0,sp,128
    3d10:	3205                	jal	3630 <_min_stack+0x1630>
    3d12:	0306                	slli	t1,t1,0x1
    3d14:	0900                	addi	s0,sp,144
    3d16:	0000                	unimp
    3d18:	0501                	addi	a0,a0,0
    3d1a:	01030603          	lb	a2,16(t1)
    3d1e:	0a09                	addi	s4,s4,2
    3d20:	0100                	addi	s0,sp,128
    3d22:	3205                	jal	3642 <_min_stack+0x1642>
    3d24:	0306                	slli	t1,t1,0x1
    3d26:	0900                	addi	s0,sp,144
    3d28:	0000                	unimp
    3d2a:	0501                	addi	a0,a0,0
    3d2c:	01030603          	lb	a2,16(t1)
    3d30:	0e09                	addi	t3,t3,2
    3d32:	0100                	addi	s0,sp,128
    3d34:	3205                	jal	3654 <_min_stack+0x1654>
    3d36:	0306                	slli	t1,t1,0x1
    3d38:	0900                	addi	s0,sp,144
    3d3a:	0000                	unimp
    3d3c:	0501                	addi	a0,a0,0
    3d3e:	01030603          	lb	a2,16(t1)
    3d42:	0e09                	addi	t3,t3,2
    3d44:	0100                	addi	s0,sp,128
    3d46:	3205                	jal	3666 <_min_stack+0x1666>
    3d48:	0306                	slli	t1,t1,0x1
    3d4a:	0900                	addi	s0,sp,144
    3d4c:	0000                	unimp
    3d4e:	0501                	addi	a0,a0,0
    3d50:	01030603          	lb	a2,16(t1)
    3d54:	0e09                	addi	t3,t3,2
    3d56:	0100                	addi	s0,sp,128
    3d58:	3205                	jal	3678 <_min_stack+0x1678>
    3d5a:	0306                	slli	t1,t1,0x1
    3d5c:	0900                	addi	s0,sp,144
    3d5e:	0000                	unimp
    3d60:	0501                	addi	a0,a0,0
    3d62:	01030603          	lb	a2,16(t1)
    3d66:	0e09                	addi	t3,t3,2
    3d68:	0100                	addi	s0,sp,128
    3d6a:	3205                	jal	368a <_min_stack+0x168a>
    3d6c:	0306                	slli	t1,t1,0x1
    3d6e:	0900                	addi	s0,sp,144
    3d70:	0000                	unimp
    3d72:	0301                	addi	t1,t1,0
    3d74:	0901                	addi	s2,s2,0
    3d76:	000c                	.2byte	0xc
    3d78:	0301                	addi	t1,t1,0
    3d7a:	097f                	.2byte	0x97f
    3d7c:	0004                	.2byte	0x4
    3d7e:	0501                	addi	a0,a0,0
    3d80:	01030603          	lb	a2,16(t1)
    3d84:	0209                	addi	tp,tp,2 # 2 <_min_stack-0x1ffe>
    3d86:	0100                	addi	s0,sp,128
    3d88:	3205                	jal	36a8 <_min_stack+0x16a8>
    3d8a:	0306                	slli	t1,t1,0x1
    3d8c:	0900                	addi	s0,sp,144
    3d8e:	0000                	unimp
    3d90:	0501                	addi	a0,a0,0
    3d92:	01030603          	lb	a2,16(t1)
    3d96:	0a09                	addi	s4,s4,2
    3d98:	0100                	addi	s0,sp,128
    3d9a:	3205                	jal	36ba <_min_stack+0x16ba>
    3d9c:	0306                	slli	t1,t1,0x1
    3d9e:	0900                	addi	s0,sp,144
    3da0:	0000                	unimp
    3da2:	0501                	addi	a0,a0,0
    3da4:	01030603          	lb	a2,16(t1)
    3da8:	0e09                	addi	t3,t3,2
    3daa:	0100                	addi	s0,sp,128
    3dac:	3205                	jal	36cc <_min_stack+0x16cc>
    3dae:	0306                	slli	t1,t1,0x1
    3db0:	0900                	addi	s0,sp,144
    3db2:	0000                	unimp
    3db4:	0501                	addi	a0,a0,0
    3db6:	01030603          	lb	a2,16(t1)
    3dba:	0e09                	addi	t3,t3,2
    3dbc:	0100                	addi	s0,sp,128
    3dbe:	3205                	jal	36de <_min_stack+0x16de>
    3dc0:	0306                	slli	t1,t1,0x1
    3dc2:	0900                	addi	s0,sp,144
    3dc4:	0000                	unimp
    3dc6:	0501                	addi	a0,a0,0
    3dc8:	01030603          	lb	a2,16(t1)
    3dcc:	0e09                	addi	t3,t3,2
    3dce:	0100                	addi	s0,sp,128
    3dd0:	3205                	jal	36f0 <_min_stack+0x16f0>
    3dd2:	0306                	slli	t1,t1,0x1
    3dd4:	0900                	addi	s0,sp,144
    3dd6:	0000                	unimp
    3dd8:	0501                	addi	a0,a0,0
    3dda:	01030603          	lb	a2,16(t1)
    3dde:	0e09                	addi	t3,t3,2
    3de0:	0100                	addi	s0,sp,128
    3de2:	3205                	jal	3702 <_min_stack+0x1702>
    3de4:	0306                	slli	t1,t1,0x1
    3de6:	0900                	addi	s0,sp,144
    3de8:	0000                	unimp
    3dea:	0501                	addi	a0,a0,0
    3dec:	01030603          	lb	a2,16(t1)
    3df0:	0e09                	addi	t3,t3,2
    3df2:	0100                	addi	s0,sp,128
    3df4:	3205                	jal	3714 <_min_stack+0x1714>
    3df6:	0306                	slli	t1,t1,0x1
    3df8:	0900                	addi	s0,sp,144
    3dfa:	0000                	unimp
    3dfc:	0501                	addi	a0,a0,0
    3dfe:	01030603          	lb	a2,16(t1)
    3e02:	0e09                	addi	t3,t3,2
    3e04:	0100                	addi	s0,sp,128
    3e06:	3205                	jal	3726 <_min_stack+0x1726>
    3e08:	0306                	slli	t1,t1,0x1
    3e0a:	0900                	addi	s0,sp,144
    3e0c:	0000                	unimp
    3e0e:	0501                	addi	a0,a0,0
    3e10:	01030603          	lb	a2,16(t1)
    3e14:	0e09                	addi	t3,t3,2
    3e16:	0100                	addi	s0,sp,128
    3e18:	3205                	jal	3738 <_min_stack+0x1738>
    3e1a:	0306                	slli	t1,t1,0x1
    3e1c:	0900                	addi	s0,sp,144
    3e1e:	0000                	unimp
    3e20:	0501                	addi	a0,a0,0
    3e22:	01030603          	lb	a2,16(t1)
    3e26:	0609                	addi	a2,a2,2
    3e28:	0100                	addi	s0,sp,128
    3e2a:	3205                	jal	374a <_min_stack+0x174a>
    3e2c:	0306                	slli	t1,t1,0x1
    3e2e:	0900                	addi	s0,sp,144
    3e30:	0000                	unimp
    3e32:	0301                	addi	t1,t1,0
    3e34:	0901                	addi	s2,s2,0
    3e36:	000c                	.2byte	0xc
    3e38:	0301                	addi	t1,t1,0
    3e3a:	097f                	.2byte	0x97f
    3e3c:	0004                	.2byte	0x4
    3e3e:	0501                	addi	a0,a0,0
    3e40:	01030603          	lb	a2,16(t1)
    3e44:	0209                	addi	tp,tp,2 # 2 <_min_stack-0x1ffe>
    3e46:	0100                	addi	s0,sp,128
    3e48:	3205                	jal	3768 <_min_stack+0x1768>
    3e4a:	0306                	slli	t1,t1,0x1
    3e4c:	0900                	addi	s0,sp,144
    3e4e:	0000                	unimp
    3e50:	0501                	addi	a0,a0,0
    3e52:	01030603          	lb	a2,16(t1)
    3e56:	0c09                	addi	s8,s8,2
    3e58:	0100                	addi	s0,sp,128
    3e5a:	3205                	jal	377a <_min_stack+0x177a>
    3e5c:	0306                	slli	t1,t1,0x1
    3e5e:	0900                	addi	s0,sp,144
    3e60:	0000                	unimp
    3e62:	0301                	addi	t1,t1,0
    3e64:	0901                	addi	s2,s2,0
    3e66:	0008                	.2byte	0x8
    3e68:	0301                	addi	t1,t1,0
    3e6a:	097f                	.2byte	0x97f
    3e6c:	0004                	.2byte	0x4
    3e6e:	0501                	addi	a0,a0,0
    3e70:	01030603          	lb	a2,16(t1)
    3e74:	0409                	addi	s0,s0,2
    3e76:	0100                	addi	s0,sp,128
    3e78:	3205                	jal	3798 <_min_stack+0x1798>
    3e7a:	0306                	slli	t1,t1,0x1
    3e7c:	0900                	addi	s0,sp,144
    3e7e:	0000                	unimp
    3e80:	0501                	addi	a0,a0,0
    3e82:	01030603          	lb	a2,16(t1)
    3e86:	0809                	addi	a6,a6,2
    3e88:	0100                	addi	s0,sp,128
    3e8a:	3205                	jal	37aa <_min_stack+0x17aa>
    3e8c:	0306                	slli	t1,t1,0x1
    3e8e:	0900                	addi	s0,sp,144
    3e90:	0000                	unimp
    3e92:	0501                	addi	a0,a0,0
    3e94:	01030603          	lb	a2,16(t1)
    3e98:	0c09                	addi	s8,s8,2
    3e9a:	0100                	addi	s0,sp,128
    3e9c:	3205                	jal	37bc <_min_stack+0x17bc>
    3e9e:	0306                	slli	t1,t1,0x1
    3ea0:	0900                	addi	s0,sp,144
    3ea2:	0000                	unimp
    3ea4:	0501                	addi	a0,a0,0
    3ea6:	01030603          	lb	a2,16(t1)
    3eaa:	0c09                	addi	s8,s8,2
    3eac:	0100                	addi	s0,sp,128
    3eae:	3205                	jal	37ce <_min_stack+0x17ce>
    3eb0:	0306                	slli	t1,t1,0x1
    3eb2:	0900                	addi	s0,sp,144
    3eb4:	0000                	unimp
    3eb6:	0501                	addi	a0,a0,0
    3eb8:	01030603          	lb	a2,16(t1)
    3ebc:	0c09                	addi	s8,s8,2
    3ebe:	0100                	addi	s0,sp,128
    3ec0:	3205                	jal	37e0 <_min_stack+0x17e0>
    3ec2:	0306                	slli	t1,t1,0x1
    3ec4:	0900                	addi	s0,sp,144
    3ec6:	0000                	unimp
    3ec8:	0501                	addi	a0,a0,0
    3eca:	01030603          	lb	a2,16(t1)
    3ece:	0c09                	addi	s8,s8,2
    3ed0:	0100                	addi	s0,sp,128
    3ed2:	3205                	jal	37f2 <_min_stack+0x17f2>
    3ed4:	0306                	slli	t1,t1,0x1
    3ed6:	0900                	addi	s0,sp,144
    3ed8:	0000                	unimp
    3eda:	0501                	addi	a0,a0,0
    3edc:	01030603          	lb	a2,16(t1)
    3ee0:	0c09                	addi	s8,s8,2
    3ee2:	0100                	addi	s0,sp,128
    3ee4:	3205                	jal	3804 <_min_stack+0x1804>
    3ee6:	0306                	slli	t1,t1,0x1
    3ee8:	0900                	addi	s0,sp,144
    3eea:	0000                	unimp
    3eec:	0501                	addi	a0,a0,0
    3eee:	01030603          	lb	a2,16(t1)
    3ef2:	0c09                	addi	s8,s8,2
    3ef4:	0100                	addi	s0,sp,128
    3ef6:	3205                	jal	3816 <_min_stack+0x1816>
    3ef8:	0306                	slli	t1,t1,0x1
    3efa:	0900                	addi	s0,sp,144
    3efc:	0000                	unimp
    3efe:	0501                	addi	a0,a0,0
    3f00:	01030603          	lb	a2,16(t1)
    3f04:	0a09                	addi	s4,s4,2
    3f06:	0100                	addi	s0,sp,128
    3f08:	3205                	jal	3828 <_min_stack+0x1828>
    3f0a:	0306                	slli	t1,t1,0x1
    3f0c:	0900                	addi	s0,sp,144
    3f0e:	0000                	unimp
    3f10:	0501                	addi	a0,a0,0
    3f12:	01030603          	lb	a2,16(t1)
    3f16:	0c09                	addi	s8,s8,2
    3f18:	0100                	addi	s0,sp,128
    3f1a:	3205                	jal	383a <_min_stack+0x183a>
    3f1c:	0306                	slli	t1,t1,0x1
    3f1e:	0900                	addi	s0,sp,144
    3f20:	0000                	unimp
    3f22:	0501                	addi	a0,a0,0
    3f24:	01030603          	lb	a2,16(t1)
    3f28:	0c09                	addi	s8,s8,2
    3f2a:	0100                	addi	s0,sp,128
    3f2c:	3205                	jal	384c <_min_stack+0x184c>
    3f2e:	0306                	slli	t1,t1,0x1
    3f30:	0900                	addi	s0,sp,144
    3f32:	0000                	unimp
    3f34:	0501                	addi	a0,a0,0
    3f36:	01030603          	lb	a2,16(t1)
    3f3a:	0c09                	addi	s8,s8,2
    3f3c:	0100                	addi	s0,sp,128
    3f3e:	3205                	jal	385e <_min_stack+0x185e>
    3f40:	0306                	slli	t1,t1,0x1
    3f42:	0900                	addi	s0,sp,144
    3f44:	0000                	unimp
    3f46:	0501                	addi	a0,a0,0
    3f48:	01030603          	lb	a2,16(t1)
    3f4c:	0c09                	addi	s8,s8,2
    3f4e:	0100                	addi	s0,sp,128
    3f50:	3205                	jal	3870 <_min_stack+0x1870>
    3f52:	0306                	slli	t1,t1,0x1
    3f54:	0900                	addi	s0,sp,144
    3f56:	0000                	unimp
    3f58:	0501                	addi	a0,a0,0
    3f5a:	01030603          	lb	a2,16(t1)
    3f5e:	0c09                	addi	s8,s8,2
    3f60:	0100                	addi	s0,sp,128
    3f62:	3205                	jal	3882 <_min_stack+0x1882>
    3f64:	0306                	slli	t1,t1,0x1
    3f66:	0900                	addi	s0,sp,144
    3f68:	0000                	unimp
    3f6a:	0501                	addi	a0,a0,0
    3f6c:	01030603          	lb	a2,16(t1)
    3f70:	0c09                	addi	s8,s8,2
    3f72:	0100                	addi	s0,sp,128
    3f74:	3205                	jal	3894 <_min_stack+0x1894>
    3f76:	0306                	slli	t1,t1,0x1
    3f78:	0900                	addi	s0,sp,144
    3f7a:	0000                	unimp
    3f7c:	0501                	addi	a0,a0,0
    3f7e:	01030603          	lb	a2,16(t1)
    3f82:	0409                	addi	s0,s0,2
    3f84:	0100                	addi	s0,sp,128
    3f86:	3205                	jal	38a6 <_min_stack+0x18a6>
    3f88:	0306                	slli	t1,t1,0x1
    3f8a:	0900                	addi	s0,sp,144
    3f8c:	0000                	unimp
    3f8e:	0501                	addi	a0,a0,0
    3f90:	01030603          	lb	a2,16(t1)
    3f94:	0409                	addi	s0,s0,2
    3f96:	0100                	addi	s0,sp,128
    3f98:	3205                	jal	38b8 <_min_stack+0x18b8>
    3f9a:	0306                	slli	t1,t1,0x1
    3f9c:	0900                	addi	s0,sp,144
    3f9e:	0000                	unimp
    3fa0:	0501                	addi	a0,a0,0
    3fa2:	01030603          	lb	a2,16(t1)
    3fa6:	0409                	addi	s0,s0,2
    3fa8:	0100                	addi	s0,sp,128
    3faa:	3205                	jal	38ca <_min_stack+0x18ca>
    3fac:	0306                	slli	t1,t1,0x1
    3fae:	0900                	addi	s0,sp,144
    3fb0:	0000                	unimp
    3fb2:	0501                	addi	a0,a0,0
    3fb4:	01030603          	lb	a2,16(t1)
    3fb8:	0c09                	addi	s8,s8,2
    3fba:	0100                	addi	s0,sp,128
    3fbc:	3205                	jal	38dc <_min_stack+0x18dc>
    3fbe:	0306                	slli	t1,t1,0x1
    3fc0:	0900                	addi	s0,sp,144
    3fc2:	0000                	unimp
    3fc4:	0501                	addi	a0,a0,0
    3fc6:	01030603          	lb	a2,16(t1)
    3fca:	0c09                	addi	s8,s8,2
    3fcc:	0100                	addi	s0,sp,128
    3fce:	3205                	jal	38ee <_min_stack+0x18ee>
    3fd0:	0306                	slli	t1,t1,0x1
    3fd2:	0900                	addi	s0,sp,144
    3fd4:	0000                	unimp
    3fd6:	0501                	addi	a0,a0,0
    3fd8:	01030603          	lb	a2,16(t1)
    3fdc:	0c09                	addi	s8,s8,2
    3fde:	0100                	addi	s0,sp,128
    3fe0:	3205                	jal	3900 <_min_stack+0x1900>
    3fe2:	0306                	slli	t1,t1,0x1
    3fe4:	0900                	addi	s0,sp,144
    3fe6:	0000                	unimp
    3fe8:	0501                	addi	a0,a0,0
    3fea:	01030603          	lb	a2,16(t1)
    3fee:	0c09                	addi	s8,s8,2
    3ff0:	0100                	addi	s0,sp,128
    3ff2:	3205                	jal	3912 <_min_stack+0x1912>
    3ff4:	0306                	slli	t1,t1,0x1
    3ff6:	0900                	addi	s0,sp,144
    3ff8:	0000                	unimp
    3ffa:	0501                	addi	a0,a0,0
    3ffc:	01030603          	lb	a2,16(t1)
    4000:	0a09                	addi	s4,s4,2
    4002:	0100                	addi	s0,sp,128
    4004:	3205                	jal	3924 <_min_stack+0x1924>
    4006:	0306                	slli	t1,t1,0x1
    4008:	0900                	addi	s0,sp,144
    400a:	0000                	unimp
    400c:	0501                	addi	a0,a0,0
    400e:	01030603          	lb	a2,16(t1)
    4012:	0c09                	addi	s8,s8,2
    4014:	0100                	addi	s0,sp,128
    4016:	3205                	jal	3936 <_min_stack+0x1936>
    4018:	0306                	slli	t1,t1,0x1
    401a:	0900                	addi	s0,sp,144
    401c:	0000                	unimp
    401e:	0501                	addi	a0,a0,0
    4020:	01030603          	lb	a2,16(t1)
    4024:	0c09                	addi	s8,s8,2
    4026:	0100                	addi	s0,sp,128
    4028:	3205                	jal	3948 <_min_stack+0x1948>
    402a:	0306                	slli	t1,t1,0x1
    402c:	0900                	addi	s0,sp,144
    402e:	0000                	unimp
    4030:	0501                	addi	a0,a0,0
    4032:	01030603          	lb	a2,16(t1)
    4036:	0c09                	addi	s8,s8,2
    4038:	0100                	addi	s0,sp,128
    403a:	3205                	jal	395a <_min_stack+0x195a>
    403c:	0306                	slli	t1,t1,0x1
    403e:	0900                	addi	s0,sp,144
    4040:	0000                	unimp
    4042:	0501                	addi	a0,a0,0
    4044:	01030603          	lb	a2,16(t1)
    4048:	0c09                	addi	s8,s8,2
    404a:	0100                	addi	s0,sp,128
    404c:	3205                	jal	396c <_min_stack+0x196c>
    404e:	0306                	slli	t1,t1,0x1
    4050:	0900                	addi	s0,sp,144
    4052:	0000                	unimp
    4054:	0501                	addi	a0,a0,0
    4056:	01030603          	lb	a2,16(t1)
    405a:	0c09                	addi	s8,s8,2
    405c:	0100                	addi	s0,sp,128
    405e:	3205                	jal	397e <_min_stack+0x197e>
    4060:	0306                	slli	t1,t1,0x1
    4062:	0900                	addi	s0,sp,144
    4064:	0000                	unimp
    4066:	0501                	addi	a0,a0,0
    4068:	01030603          	lb	a2,16(t1)
    406c:	0c09                	addi	s8,s8,2
    406e:	0100                	addi	s0,sp,128
    4070:	3205                	jal	3990 <_min_stack+0x1990>
    4072:	0306                	slli	t1,t1,0x1
    4074:	0900                	addi	s0,sp,144
    4076:	0000                	unimp
    4078:	0501                	addi	a0,a0,0
    407a:	01030603          	lb	a2,16(t1)
    407e:	0c09                	addi	s8,s8,2
    4080:	0100                	addi	s0,sp,128
    4082:	3205                	jal	39a2 <_min_stack+0x19a2>
    4084:	0306                	slli	t1,t1,0x1
    4086:	0900                	addi	s0,sp,144
    4088:	0000                	unimp
    408a:	0501                	addi	a0,a0,0
    408c:	01030603          	lb	a2,16(t1)
    4090:	0c09                	addi	s8,s8,2
    4092:	0100                	addi	s0,sp,128
    4094:	3205                	jal	39b4 <_min_stack+0x19b4>
    4096:	0306                	slli	t1,t1,0x1
    4098:	0900                	addi	s0,sp,144
    409a:	0000                	unimp
    409c:	0501                	addi	a0,a0,0
    409e:	01030603          	lb	a2,16(t1)
    40a2:	0c09                	addi	s8,s8,2
    40a4:	0100                	addi	s0,sp,128
    40a6:	3205                	jal	39c6 <_min_stack+0x19c6>
    40a8:	0306                	slli	t1,t1,0x1
    40aa:	0900                	addi	s0,sp,144
    40ac:	0000                	unimp
    40ae:	0501                	addi	a0,a0,0
    40b0:	01030603          	lb	a2,16(t1)
    40b4:	0c09                	addi	s8,s8,2
    40b6:	0100                	addi	s0,sp,128
    40b8:	3205                	jal	39d8 <_min_stack+0x19d8>
    40ba:	0306                	slli	t1,t1,0x1
    40bc:	0900                	addi	s0,sp,144
    40be:	0000                	unimp
    40c0:	0501                	addi	a0,a0,0
    40c2:	01030603          	lb	a2,16(t1)
    40c6:	0c09                	addi	s8,s8,2
    40c8:	0100                	addi	s0,sp,128
    40ca:	3205                	jal	39ea <_min_stack+0x19ea>
    40cc:	0306                	slli	t1,t1,0x1
    40ce:	0900                	addi	s0,sp,144
    40d0:	0000                	unimp
    40d2:	0501                	addi	a0,a0,0
    40d4:	01030603          	lb	a2,16(t1)
    40d8:	0c09                	addi	s8,s8,2
    40da:	0100                	addi	s0,sp,128
    40dc:	3205                	jal	39fc <_min_stack+0x19fc>
    40de:	0306                	slli	t1,t1,0x1
    40e0:	0900                	addi	s0,sp,144
    40e2:	0000                	unimp
    40e4:	0501                	addi	a0,a0,0
    40e6:	01030603          	lb	a2,16(t1)
    40ea:	0c09                	addi	s8,s8,2
    40ec:	0100                	addi	s0,sp,128
    40ee:	3205                	jal	3a0e <_min_stack+0x1a0e>
    40f0:	0306                	slli	t1,t1,0x1
    40f2:	0900                	addi	s0,sp,144
    40f4:	0000                	unimp
    40f6:	0501                	addi	a0,a0,0
    40f8:	01030603          	lb	a2,16(t1)
    40fc:	0c09                	addi	s8,s8,2
    40fe:	0100                	addi	s0,sp,128
    4100:	3205                	jal	3a20 <_min_stack+0x1a20>
    4102:	0306                	slli	t1,t1,0x1
    4104:	0900                	addi	s0,sp,144
    4106:	0000                	unimp
    4108:	0501                	addi	a0,a0,0
    410a:	01030603          	lb	a2,16(t1)
    410e:	0c09                	addi	s8,s8,2
    4110:	0100                	addi	s0,sp,128
    4112:	3205                	jal	3a32 <_min_stack+0x1a32>
    4114:	0306                	slli	t1,t1,0x1
    4116:	0900                	addi	s0,sp,144
    4118:	0000                	unimp
    411a:	0501                	addi	a0,a0,0
    411c:	01030603          	lb	a2,16(t1)
    4120:	0c09                	addi	s8,s8,2
    4122:	0100                	addi	s0,sp,128
    4124:	3205                	jal	3a44 <_min_stack+0x1a44>
    4126:	0306                	slli	t1,t1,0x1
    4128:	0900                	addi	s0,sp,144
    412a:	0000                	unimp
    412c:	0501                	addi	a0,a0,0
    412e:	01030603          	lb	a2,16(t1)
    4132:	0c09                	addi	s8,s8,2
    4134:	0100                	addi	s0,sp,128
    4136:	3205                	jal	3a56 <_min_stack+0x1a56>
    4138:	0306                	slli	t1,t1,0x1
    413a:	0900                	addi	s0,sp,144
    413c:	0000                	unimp
    413e:	0501                	addi	a0,a0,0
    4140:	01030603          	lb	a2,16(t1)
    4144:	0c09                	addi	s8,s8,2
    4146:	0100                	addi	s0,sp,128
    4148:	3205                	jal	3a68 <_min_stack+0x1a68>
    414a:	0306                	slli	t1,t1,0x1
    414c:	0900                	addi	s0,sp,144
    414e:	0000                	unimp
    4150:	0301                	addi	t1,t1,0
    4152:	0901                	addi	s2,s2,0
    4154:	0008                	.2byte	0x8
    4156:	0301                	addi	t1,t1,0
    4158:	097f                	.2byte	0x97f
    415a:	0004                	.2byte	0x4
    415c:	0501                	addi	a0,a0,0
    415e:	01030603          	lb	a2,16(t1)
    4162:	0409                	addi	s0,s0,2
    4164:	0100                	addi	s0,sp,128
    4166:	3205                	jal	3a86 <_min_stack+0x1a86>
    4168:	0306                	slli	t1,t1,0x1
    416a:	0900                	addi	s0,sp,144
    416c:	0000                	unimp
    416e:	0501                	addi	a0,a0,0
    4170:	01030603          	lb	a2,16(t1)
    4174:	0809                	addi	a6,a6,2
    4176:	0100                	addi	s0,sp,128
    4178:	3205                	jal	3a98 <_min_stack+0x1a98>
    417a:	0306                	slli	t1,t1,0x1
    417c:	0900                	addi	s0,sp,144
    417e:	0000                	unimp
    4180:	0501                	addi	a0,a0,0
    4182:	01030603          	lb	a2,16(t1)
    4186:	0c09                	addi	s8,s8,2
    4188:	0100                	addi	s0,sp,128
    418a:	3205                	jal	3aaa <_min_stack+0x1aaa>
    418c:	0306                	slli	t1,t1,0x1
    418e:	0900                	addi	s0,sp,144
    4190:	0000                	unimp
    4192:	0501                	addi	a0,a0,0
    4194:	01030603          	lb	a2,16(t1)
    4198:	0c09                	addi	s8,s8,2
    419a:	0100                	addi	s0,sp,128
    419c:	3205                	jal	3abc <_min_stack+0x1abc>
    419e:	0306                	slli	t1,t1,0x1
    41a0:	0900                	addi	s0,sp,144
    41a2:	0000                	unimp
    41a4:	0501                	addi	a0,a0,0
    41a6:	01030603          	lb	a2,16(t1)
    41aa:	0c09                	addi	s8,s8,2
    41ac:	0100                	addi	s0,sp,128
    41ae:	3205                	jal	3ace <_min_stack+0x1ace>
    41b0:	0306                	slli	t1,t1,0x1
    41b2:	0901                	addi	s2,s2,0
    41b4:	0000                	unimp
    41b6:	0301                	addi	t1,t1,0
    41b8:	097f                	.2byte	0x97f
    41ba:	0004                	.2byte	0x4
    41bc:	0501                	addi	a0,a0,0
    41be:	01030603          	lb	a2,16(t1)
    41c2:	0409                	addi	s0,s0,2
    41c4:	0100                	addi	s0,sp,128
    41c6:	3205                	jal	3ae6 <_min_stack+0x1ae6>
    41c8:	0306                	slli	t1,t1,0x1
    41ca:	0900                	addi	s0,sp,144
    41cc:	0000                	unimp
    41ce:	0501                	addi	a0,a0,0
    41d0:	01030603          	lb	a2,16(t1)
    41d4:	0809                	addi	a6,a6,2
    41d6:	0100                	addi	s0,sp,128
    41d8:	3205                	jal	3af8 <_min_stack+0x1af8>
    41da:	0306                	slli	t1,t1,0x1
    41dc:	0900                	addi	s0,sp,144
    41de:	0000                	unimp
    41e0:	0501                	addi	a0,a0,0
    41e2:	01030603          	lb	a2,16(t1)
    41e6:	0c09                	addi	s8,s8,2
    41e8:	0100                	addi	s0,sp,128
    41ea:	3205                	jal	3b0a <_min_stack+0x1b0a>
    41ec:	0306                	slli	t1,t1,0x1
    41ee:	0900                	addi	s0,sp,144
    41f0:	0000                	unimp
    41f2:	0501                	addi	a0,a0,0
    41f4:	01030603          	lb	a2,16(t1)
    41f8:	0c09                	addi	s8,s8,2
    41fa:	0100                	addi	s0,sp,128
    41fc:	3205                	jal	3b1c <_min_stack+0x1b1c>
    41fe:	0306                	slli	t1,t1,0x1
    4200:	0900                	addi	s0,sp,144
    4202:	0000                	unimp
    4204:	0501                	addi	a0,a0,0
    4206:	01030603          	lb	a2,16(t1)
    420a:	0c09                	addi	s8,s8,2
    420c:	0100                	addi	s0,sp,128
    420e:	3205                	jal	3b2e <_min_stack+0x1b2e>
    4210:	0306                	slli	t1,t1,0x1
    4212:	0900                	addi	s0,sp,144
    4214:	0000                	unimp
    4216:	0501                	addi	a0,a0,0
    4218:	01030603          	lb	a2,16(t1)
    421c:	0c09                	addi	s8,s8,2
    421e:	0100                	addi	s0,sp,128
    4220:	3205                	jal	3b40 <_min_stack+0x1b40>
    4222:	0306                	slli	t1,t1,0x1
    4224:	0900                	addi	s0,sp,144
    4226:	0000                	unimp
    4228:	0501                	addi	a0,a0,0
    422a:	01030603          	lb	a2,16(t1)
    422e:	0c09                	addi	s8,s8,2
    4230:	0100                	addi	s0,sp,128
    4232:	3205                	jal	3b52 <_min_stack+0x1b52>
    4234:	0306                	slli	t1,t1,0x1
    4236:	0900                	addi	s0,sp,144
    4238:	0000                	unimp
    423a:	0501                	addi	a0,a0,0
    423c:	01030603          	lb	a2,16(t1)
    4240:	0409                	addi	s0,s0,2
    4242:	0100                	addi	s0,sp,128
    4244:	3205                	jal	3b64 <_min_stack+0x1b64>
    4246:	0306                	slli	t1,t1,0x1
    4248:	0900                	addi	s0,sp,144
    424a:	0000                	unimp
    424c:	0501                	addi	a0,a0,0
    424e:	01030603          	lb	a2,16(t1)
    4252:	0c09                	addi	s8,s8,2
    4254:	0100                	addi	s0,sp,128
    4256:	3205                	jal	3b76 <_min_stack+0x1b76>
    4258:	0306                	slli	t1,t1,0x1
    425a:	0900                	addi	s0,sp,144
    425c:	0000                	unimp
    425e:	0501                	addi	a0,a0,0
    4260:	01030603          	lb	a2,16(t1)
    4264:	0c09                	addi	s8,s8,2
    4266:	0100                	addi	s0,sp,128
    4268:	3205                	jal	3b88 <_min_stack+0x1b88>
    426a:	0306                	slli	t1,t1,0x1
    426c:	0900                	addi	s0,sp,144
    426e:	0000                	unimp
    4270:	0501                	addi	a0,a0,0
    4272:	01030603          	lb	a2,16(t1)
    4276:	0c09                	addi	s8,s8,2
    4278:	0100                	addi	s0,sp,128
    427a:	3205                	jal	3b9a <_min_stack+0x1b9a>
    427c:	0306                	slli	t1,t1,0x1
    427e:	0900                	addi	s0,sp,144
    4280:	0000                	unimp
    4282:	0501                	addi	a0,a0,0
    4284:	01030603          	lb	a2,16(t1)
    4288:	0809                	addi	a6,a6,2
    428a:	0100                	addi	s0,sp,128
    428c:	3205                	jal	3bac <_min_stack+0x1bac>
    428e:	0306                	slli	t1,t1,0x1
    4290:	0900                	addi	s0,sp,144
    4292:	0000                	unimp
    4294:	0501                	addi	a0,a0,0
    4296:	01030603          	lb	a2,16(t1)
    429a:	0809                	addi	a6,a6,2
    429c:	0100                	addi	s0,sp,128
    429e:	3205                	jal	3bbe <_min_stack+0x1bbe>
    42a0:	0306                	slli	t1,t1,0x1
    42a2:	0900                	addi	s0,sp,144
    42a4:	0000                	unimp
    42a6:	0501                	addi	a0,a0,0
    42a8:	01030603          	lb	a2,16(t1)
    42ac:	0c09                	addi	s8,s8,2
    42ae:	0100                	addi	s0,sp,128
    42b0:	3205                	jal	3bd0 <_min_stack+0x1bd0>
    42b2:	0306                	slli	t1,t1,0x1
    42b4:	0900                	addi	s0,sp,144
    42b6:	0000                	unimp
    42b8:	0501                	addi	a0,a0,0
    42ba:	01030603          	lb	a2,16(t1)
    42be:	0c09                	addi	s8,s8,2
    42c0:	0100                	addi	s0,sp,128
    42c2:	3205                	jal	3be2 <_min_stack+0x1be2>
    42c4:	0306                	slli	t1,t1,0x1
    42c6:	0900                	addi	s0,sp,144
    42c8:	0000                	unimp
    42ca:	0501                	addi	a0,a0,0
    42cc:	01030603          	lb	a2,16(t1)
    42d0:	0c09                	addi	s8,s8,2
    42d2:	0100                	addi	s0,sp,128
    42d4:	3205                	jal	3bf4 <_min_stack+0x1bf4>
    42d6:	0306                	slli	t1,t1,0x1
    42d8:	0900                	addi	s0,sp,144
    42da:	0000                	unimp
    42dc:	0501                	addi	a0,a0,0
    42de:	01030603          	lb	a2,16(t1)
    42e2:	0c09                	addi	s8,s8,2
    42e4:	0100                	addi	s0,sp,128
    42e6:	3205                	jal	3c06 <_min_stack+0x1c06>
    42e8:	0306                	slli	t1,t1,0x1
    42ea:	0900                	addi	s0,sp,144
    42ec:	0000                	unimp
    42ee:	0501                	addi	a0,a0,0
    42f0:	01030603          	lb	a2,16(t1)
    42f4:	0c09                	addi	s8,s8,2
    42f6:	0100                	addi	s0,sp,128
    42f8:	3205                	jal	3c18 <_min_stack+0x1c18>
    42fa:	0306                	slli	t1,t1,0x1
    42fc:	0900                	addi	s0,sp,144
    42fe:	0000                	unimp
    4300:	0501                	addi	a0,a0,0
    4302:	01030603          	lb	a2,16(t1)
    4306:	0c09                	addi	s8,s8,2
    4308:	0100                	addi	s0,sp,128
    430a:	3205                	jal	3c2a <_min_stack+0x1c2a>
    430c:	0306                	slli	t1,t1,0x1
    430e:	0900                	addi	s0,sp,144
    4310:	0000                	unimp
    4312:	0301                	addi	t1,t1,0
    4314:	0901                	addi	s2,s2,0
    4316:	0004                	.2byte	0x4
    4318:	0301                	addi	t1,t1,0
    431a:	097f                	.2byte	0x97f
    431c:	0004                	.2byte	0x4
    431e:	0501                	addi	a0,a0,0
    4320:	01030603          	lb	a2,16(t1)
    4324:	0409                	addi	s0,s0,2
    4326:	0100                	addi	s0,sp,128
    4328:	3205                	jal	3c48 <_min_stack+0x1c48>
    432a:	0306                	slli	t1,t1,0x1
    432c:	0900                	addi	s0,sp,144
    432e:	0000                	unimp
    4330:	0301                	addi	t1,t1,0
    4332:	0901                	addi	s2,s2,0
    4334:	0004                	.2byte	0x4
    4336:	0301                	addi	t1,t1,0
    4338:	097f                	.2byte	0x97f
    433a:	0004                	.2byte	0x4
    433c:	0501                	addi	a0,a0,0
    433e:	01030603          	lb	a2,16(t1)
    4342:	0409                	addi	s0,s0,2
    4344:	0100                	addi	s0,sp,128
    4346:	3205                	jal	3c66 <_min_stack+0x1c66>
    4348:	0306                	slli	t1,t1,0x1
    434a:	0900                	addi	s0,sp,144
    434c:	0000                	unimp
    434e:	0501                	addi	a0,a0,0
    4350:	01030603          	lb	a2,16(t1)
    4354:	0809                	addi	a6,a6,2
    4356:	0100                	addi	s0,sp,128
    4358:	3205                	jal	3c78 <_min_stack+0x1c78>
    435a:	0306                	slli	t1,t1,0x1
    435c:	0900                	addi	s0,sp,144
    435e:	0000                	unimp
    4360:	0501                	addi	a0,a0,0
    4362:	01030603          	lb	a2,16(t1)
    4366:	0c09                	addi	s8,s8,2
    4368:	0100                	addi	s0,sp,128
    436a:	3205                	jal	3c8a <_min_stack+0x1c8a>
    436c:	0306                	slli	t1,t1,0x1
    436e:	0900                	addi	s0,sp,144
    4370:	0000                	unimp
    4372:	0501                	addi	a0,a0,0
    4374:	01030603          	lb	a2,16(t1)
    4378:	0c09                	addi	s8,s8,2
    437a:	0100                	addi	s0,sp,128
    437c:	3205                	jal	3c9c <_min_stack+0x1c9c>
    437e:	0306                	slli	t1,t1,0x1
    4380:	0900                	addi	s0,sp,144
    4382:	0000                	unimp
    4384:	0301                	addi	t1,t1,0
    4386:	0901                	addi	s2,s2,0
    4388:	0004                	.2byte	0x4
    438a:	0301                	addi	t1,t1,0
    438c:	097f                	.2byte	0x97f
    438e:	0004                	.2byte	0x4
    4390:	0501                	addi	a0,a0,0
    4392:	01030603          	lb	a2,16(t1)
    4396:	0409                	addi	s0,s0,2
    4398:	0100                	addi	s0,sp,128
    439a:	3205                	jal	3cba <_min_stack+0x1cba>
    439c:	0306                	slli	t1,t1,0x1
    439e:	0900                	addi	s0,sp,144
    43a0:	0000                	unimp
    43a2:	0501                	addi	a0,a0,0
    43a4:	01030603          	lb	a2,16(t1)
    43a8:	0809                	addi	a6,a6,2
    43aa:	0100                	addi	s0,sp,128
    43ac:	3205                	jal	3ccc <_min_stack+0x1ccc>
    43ae:	0306                	slli	t1,t1,0x1
    43b0:	0900                	addi	s0,sp,144
    43b2:	0000                	unimp
    43b4:	0501                	addi	a0,a0,0
    43b6:	01030603          	lb	a2,16(t1)
    43ba:	0c09                	addi	s8,s8,2
    43bc:	0100                	addi	s0,sp,128
    43be:	3205                	jal	3cde <_min_stack+0x1cde>
    43c0:	0306                	slli	t1,t1,0x1
    43c2:	0900                	addi	s0,sp,144
    43c4:	0000                	unimp
    43c6:	0301                	addi	t1,t1,0
    43c8:	0901                	addi	s2,s2,0
    43ca:	0004                	.2byte	0x4
    43cc:	0301                	addi	t1,t1,0
    43ce:	097f                	.2byte	0x97f
    43d0:	0004                	.2byte	0x4
    43d2:	0501                	addi	a0,a0,0
    43d4:	01030603          	lb	a2,16(t1)
    43d8:	0409                	addi	s0,s0,2
    43da:	0100                	addi	s0,sp,128
    43dc:	3205                	jal	3cfc <_min_stack+0x1cfc>
    43de:	0306                	slli	t1,t1,0x1
    43e0:	0900                	addi	s0,sp,144
    43e2:	0000                	unimp
    43e4:	0501                	addi	a0,a0,0
    43e6:	01030603          	lb	a2,16(t1)
    43ea:	0809                	addi	a6,a6,2
    43ec:	0100                	addi	s0,sp,128
    43ee:	3205                	jal	3d0e <_min_stack+0x1d0e>
    43f0:	0306                	slli	t1,t1,0x1
    43f2:	0900                	addi	s0,sp,144
    43f4:	0000                	unimp
    43f6:	0501                	addi	a0,a0,0
    43f8:	01030603          	lb	a2,16(t1)
    43fc:	0c09                	addi	s8,s8,2
    43fe:	0100                	addi	s0,sp,128
    4400:	3205                	jal	3d20 <_min_stack+0x1d20>
    4402:	0306                	slli	t1,t1,0x1
    4404:	0901                	addi	s2,s2,0
    4406:	0000                	unimp
    4408:	0301                	addi	t1,t1,0
    440a:	097f                	.2byte	0x97f
    440c:	0004                	.2byte	0x4
    440e:	0501                	addi	a0,a0,0
    4410:	01030603          	lb	a2,16(t1)
    4414:	0409                	addi	s0,s0,2
    4416:	0100                	addi	s0,sp,128
    4418:	3205                	jal	3d38 <_min_stack+0x1d38>
    441a:	0306                	slli	t1,t1,0x1
    441c:	0900                	addi	s0,sp,144
    441e:	0000                	unimp
    4420:	0501                	addi	a0,a0,0
    4422:	01030603          	lb	a2,16(t1)
    4426:	0809                	addi	a6,a6,2
    4428:	0100                	addi	s0,sp,128
    442a:	3205                	jal	3d4a <_min_stack+0x1d4a>
    442c:	0306                	slli	t1,t1,0x1
    442e:	0900                	addi	s0,sp,144
    4430:	0000                	unimp
    4432:	0501                	addi	a0,a0,0
    4434:	01030603          	lb	a2,16(t1)
    4438:	0c09                	addi	s8,s8,2
    443a:	0100                	addi	s0,sp,128
    443c:	3205                	jal	3d5c <_min_stack+0x1d5c>
    443e:	0306                	slli	t1,t1,0x1
    4440:	0900                	addi	s0,sp,144
    4442:	0000                	unimp
    4444:	0501                	addi	a0,a0,0
    4446:	01030603          	lb	a2,16(t1)
    444a:	0c09                	addi	s8,s8,2
    444c:	0100                	addi	s0,sp,128
    444e:	3205                	jal	3d6e <_min_stack+0x1d6e>
    4450:	0306                	slli	t1,t1,0x1
    4452:	0900                	addi	s0,sp,144
    4454:	0000                	unimp
    4456:	0501                	addi	a0,a0,0
    4458:	01030603          	lb	a2,16(t1)
    445c:	0c09                	addi	s8,s8,2
    445e:	0100                	addi	s0,sp,128
    4460:	3205                	jal	3d80 <_min_stack+0x1d80>
    4462:	0306                	slli	t1,t1,0x1
    4464:	0900                	addi	s0,sp,144
    4466:	0000                	unimp
    4468:	0501                	addi	a0,a0,0
    446a:	01030603          	lb	a2,16(t1)
    446e:	0809                	addi	a6,a6,2
    4470:	0100                	addi	s0,sp,128
    4472:	3205                	jal	3d92 <_min_stack+0x1d92>
    4474:	0306                	slli	t1,t1,0x1
    4476:	0900                	addi	s0,sp,144
    4478:	0000                	unimp
    447a:	0501                	addi	a0,a0,0
    447c:	01030603          	lb	a2,16(t1)
    4480:	0c09                	addi	s8,s8,2
    4482:	0100                	addi	s0,sp,128
    4484:	3205                	jal	3da4 <_min_stack+0x1da4>
    4486:	0306                	slli	t1,t1,0x1
    4488:	0900                	addi	s0,sp,144
    448a:	0000                	unimp
    448c:	0501                	addi	a0,a0,0
    448e:	01030603          	lb	a2,16(t1)
    4492:	1009                	c.nop	-30
    4494:	0100                	addi	s0,sp,128
    4496:	3205                	jal	3db6 <_min_stack+0x1db6>
    4498:	0306                	slli	t1,t1,0x1
    449a:	0900                	addi	s0,sp,144
    449c:	0000                	unimp
    449e:	0301                	addi	t1,t1,0
    44a0:	7eda                	.2byte	0x7eda
    44a2:	0409                	addi	s0,s0,2
    44a4:	0100                	addi	s0,sp,128
    44a6:	0901a603          	lw	a2,144(gp)
    44aa:	0004                	.2byte	0x4
    44ac:	0501                	addi	a0,a0,0
    44ae:	01030603          	lb	a2,16(t1)
    44b2:	0809                	addi	a6,a6,2
    44b4:	0100                	addi	s0,sp,128
    44b6:	3205                	jal	3dd6 <_min_stack+0x1dd6>
    44b8:	0306                	slli	t1,t1,0x1
    44ba:	0900                	addi	s0,sp,144
    44bc:	0000                	unimp
    44be:	0501                	addi	a0,a0,0
    44c0:	01030603          	lb	a2,16(t1)
    44c4:	0c09                	addi	s8,s8,2
    44c6:	0100                	addi	s0,sp,128
    44c8:	3205                	jal	3de8 <_min_stack+0x1de8>
    44ca:	0306                	slli	t1,t1,0x1
    44cc:	0900                	addi	s0,sp,144
    44ce:	0000                	unimp
    44d0:	0301                	addi	t1,t1,0
    44d2:	0901                	addi	s2,s2,0
    44d4:	0008                	.2byte	0x8
    44d6:	0301                	addi	t1,t1,0
    44d8:	097f                	.2byte	0x97f
    44da:	0004                	.2byte	0x4
    44dc:	0501                	addi	a0,a0,0
    44de:	01030603          	lb	a2,16(t1)
    44e2:	0409                	addi	s0,s0,2
    44e4:	0100                	addi	s0,sp,128
    44e6:	3205                	jal	3e06 <_min_stack+0x1e06>
    44e8:	0306                	slli	t1,t1,0x1
    44ea:	0900                	addi	s0,sp,144
    44ec:	0000                	unimp
    44ee:	0501                	addi	a0,a0,0
    44f0:	01030603          	lb	a2,16(t1)
    44f4:	0809                	addi	a6,a6,2
    44f6:	0100                	addi	s0,sp,128
    44f8:	3205                	jal	3e18 <_min_stack+0x1e18>
    44fa:	0306                	slli	t1,t1,0x1
    44fc:	0900                	addi	s0,sp,144
    44fe:	0000                	unimp
    4500:	0301                	addi	t1,t1,0
    4502:	0901                	addi	s2,s2,0
    4504:	0004                	.2byte	0x4
    4506:	0301                	addi	t1,t1,0
    4508:	097f                	.2byte	0x97f
    450a:	0004                	.2byte	0x4
    450c:	0501                	addi	a0,a0,0
    450e:	01030603          	lb	a2,16(t1)
    4512:	0409                	addi	s0,s0,2
    4514:	0100                	addi	s0,sp,128
    4516:	3205                	jal	3e36 <_min_stack+0x1e36>
    4518:	0306                	slli	t1,t1,0x1
    451a:	0900                	addi	s0,sp,144
    451c:	0000                	unimp
    451e:	0501                	addi	a0,a0,0
    4520:	01030603          	lb	a2,16(t1)
    4524:	0809                	addi	a6,a6,2
    4526:	0100                	addi	s0,sp,128
    4528:	3205                	jal	3e48 <_min_stack+0x1e48>
    452a:	0306                	slli	t1,t1,0x1
    452c:	0900                	addi	s0,sp,144
    452e:	0000                	unimp
    4530:	0301                	addi	t1,t1,0
    4532:	0901                	addi	s2,s2,0
    4534:	0004                	.2byte	0x4
    4536:	0301                	addi	t1,t1,0
    4538:	097f                	.2byte	0x97f
    453a:	0004                	.2byte	0x4
    453c:	0501                	addi	a0,a0,0
    453e:	01030603          	lb	a2,16(t1)
    4542:	0409                	addi	s0,s0,2
    4544:	0100                	addi	s0,sp,128
    4546:	3205                	jal	3e66 <_min_stack+0x1e66>
    4548:	0306                	slli	t1,t1,0x1
    454a:	0900                	addi	s0,sp,144
    454c:	0000                	unimp
    454e:	0501                	addi	a0,a0,0
    4550:	01030603          	lb	a2,16(t1)
    4554:	0809                	addi	a6,a6,2
    4556:	0100                	addi	s0,sp,128
    4558:	3205                	jal	3e78 <_min_stack+0x1e78>
    455a:	0306                	slli	t1,t1,0x1
    455c:	0900                	addi	s0,sp,144
    455e:	0000                	unimp
    4560:	0501                	addi	a0,a0,0
    4562:	01030603          	lb	a2,16(t1)
    4566:	0c09                	addi	s8,s8,2
    4568:	0100                	addi	s0,sp,128
    456a:	3205                	jal	3e8a <_min_stack+0x1e8a>
    456c:	0306                	slli	t1,t1,0x1
    456e:	0900                	addi	s0,sp,144
    4570:	0000                	unimp
    4572:	0501                	addi	a0,a0,0
    4574:	01030603          	lb	a2,16(t1)
    4578:	0c09                	addi	s8,s8,2
    457a:	0100                	addi	s0,sp,128
    457c:	3205                	jal	3e9c <_min_stack+0x1e9c>
    457e:	0306                	slli	t1,t1,0x1
    4580:	0900                	addi	s0,sp,144
    4582:	0000                	unimp
    4584:	0501                	addi	a0,a0,0
    4586:	01030603          	lb	a2,16(t1)
    458a:	0c09                	addi	s8,s8,2
    458c:	0100                	addi	s0,sp,128
    458e:	3205                	jal	3eae <_min_stack+0x1eae>
    4590:	0306                	slli	t1,t1,0x1
    4592:	0900                	addi	s0,sp,144
    4594:	0000                	unimp
    4596:	0501                	addi	a0,a0,0
    4598:	01030603          	lb	a2,16(t1)
    459c:	0c09                	addi	s8,s8,2
    459e:	0100                	addi	s0,sp,128
    45a0:	3205                	jal	3ec0 <_min_stack+0x1ec0>
    45a2:	0306                	slli	t1,t1,0x1
    45a4:	0900                	addi	s0,sp,144
    45a6:	0000                	unimp
    45a8:	0501                	addi	a0,a0,0
    45aa:	01030603          	lb	a2,16(t1)
    45ae:	0c09                	addi	s8,s8,2
    45b0:	0100                	addi	s0,sp,128
    45b2:	3205                	jal	3ed2 <_min_stack+0x1ed2>
    45b4:	0306                	slli	t1,t1,0x1
    45b6:	0900                	addi	s0,sp,144
    45b8:	0000                	unimp
    45ba:	0501                	addi	a0,a0,0
    45bc:	01030603          	lb	a2,16(t1)
    45c0:	0409                	addi	s0,s0,2
    45c2:	0100                	addi	s0,sp,128
    45c4:	3205                	jal	3ee4 <_min_stack+0x1ee4>
    45c6:	0306                	slli	t1,t1,0x1
    45c8:	0900                	addi	s0,sp,144
    45ca:	0000                	unimp
    45cc:	0501                	addi	a0,a0,0
    45ce:	01030603          	lb	a2,16(t1)
    45d2:	0c09                	addi	s8,s8,2
    45d4:	0100                	addi	s0,sp,128
    45d6:	3205                	jal	3ef6 <_min_stack+0x1ef6>
    45d8:	0306                	slli	t1,t1,0x1
    45da:	0900                	addi	s0,sp,144
    45dc:	0000                	unimp
    45de:	0501                	addi	a0,a0,0
    45e0:	01030603          	lb	a2,16(t1)
    45e4:	0c09                	addi	s8,s8,2
    45e6:	0100                	addi	s0,sp,128
    45e8:	3205                	jal	3f08 <_min_stack+0x1f08>
    45ea:	0306                	slli	t1,t1,0x1
    45ec:	0900                	addi	s0,sp,144
    45ee:	0000                	unimp
    45f0:	0501                	addi	a0,a0,0
    45f2:	01030603          	lb	a2,16(t1)
    45f6:	0c09                	addi	s8,s8,2
    45f8:	0100                	addi	s0,sp,128
    45fa:	3205                	jal	3f1a <_min_stack+0x1f1a>
    45fc:	0306                	slli	t1,t1,0x1
    45fe:	0900                	addi	s0,sp,144
    4600:	0000                	unimp
    4602:	0301                	addi	t1,t1,0
    4604:	0901                	addi	s2,s2,0
    4606:	0004                	.2byte	0x4
    4608:	0301                	addi	t1,t1,0
    460a:	097f                	.2byte	0x97f
    460c:	0004                	.2byte	0x4
    460e:	0501                	addi	a0,a0,0
    4610:	01030603          	lb	a2,16(t1)
    4614:	0409                	addi	s0,s0,2
    4616:	0100                	addi	s0,sp,128
    4618:	3205                	jal	3f38 <_min_stack+0x1f38>
    461a:	0306                	slli	t1,t1,0x1
    461c:	0900                	addi	s0,sp,144
    461e:	0000                	unimp
    4620:	0501                	addi	a0,a0,0
    4622:	01030603          	lb	a2,16(t1)
    4626:	0609                	addi	a2,a2,2
    4628:	0100                	addi	s0,sp,128
    462a:	3205                	jal	3f4a <_min_stack+0x1f4a>
    462c:	0306                	slli	t1,t1,0x1
    462e:	0900                	addi	s0,sp,144
    4630:	0000                	unimp
    4632:	0501                	addi	a0,a0,0
    4634:	01030603          	lb	a2,16(t1)
    4638:	0a09                	addi	s4,s4,2
    463a:	0100                	addi	s0,sp,128
    463c:	3205                	jal	3f5c <_min_stack+0x1f5c>
    463e:	0306                	slli	t1,t1,0x1
    4640:	0900                	addi	s0,sp,144
    4642:	0000                	unimp
    4644:	0501                	addi	a0,a0,0
    4646:	01030603          	lb	a2,16(t1)
    464a:	0609                	addi	a2,a2,2
    464c:	0100                	addi	s0,sp,128
    464e:	3205                	jal	3f6e <_min_stack+0x1f6e>
    4650:	0306                	slli	t1,t1,0x1
    4652:	0900                	addi	s0,sp,144
    4654:	0000                	unimp
    4656:	0501                	addi	a0,a0,0
    4658:	01030603          	lb	a2,16(t1)
    465c:	0e09                	addi	t3,t3,2
    465e:	0100                	addi	s0,sp,128
    4660:	3205                	jal	3f80 <_min_stack+0x1f80>
    4662:	0306                	slli	t1,t1,0x1
    4664:	0900                	addi	s0,sp,144
    4666:	0000                	unimp
    4668:	0501                	addi	a0,a0,0
    466a:	01030603          	lb	a2,16(t1)
    466e:	0a09                	addi	s4,s4,2
    4670:	0100                	addi	s0,sp,128
    4672:	3205                	jal	3f92 <_min_stack+0x1f92>
    4674:	0306                	slli	t1,t1,0x1
    4676:	0900                	addi	s0,sp,144
    4678:	0000                	unimp
    467a:	0501                	addi	a0,a0,0
    467c:	01030603          	lb	a2,16(t1)
    4680:	0e09                	addi	t3,t3,2
    4682:	0100                	addi	s0,sp,128
    4684:	3205                	jal	3fa4 <_min_stack+0x1fa4>
    4686:	0306                	slli	t1,t1,0x1
    4688:	0900                	addi	s0,sp,144
    468a:	0000                	unimp
    468c:	0501                	addi	a0,a0,0
    468e:	01030603          	lb	a2,16(t1)
    4692:	0e09                	addi	t3,t3,2
    4694:	0100                	addi	s0,sp,128
    4696:	3205                	jal	3fb6 <_min_stack+0x1fb6>
    4698:	0306                	slli	t1,t1,0x1
    469a:	0900                	addi	s0,sp,144
    469c:	0000                	unimp
    469e:	0501                	addi	a0,a0,0
    46a0:	01030603          	lb	a2,16(t1)
    46a4:	0c09                	addi	s8,s8,2
    46a6:	0100                	addi	s0,sp,128
    46a8:	3205                	jal	3fc8 <_min_stack+0x1fc8>
    46aa:	0306                	slli	t1,t1,0x1
    46ac:	0900                	addi	s0,sp,144
    46ae:	0000                	unimp
    46b0:	0501                	addi	a0,a0,0
    46b2:	01030603          	lb	a2,16(t1)
    46b6:	0c09                	addi	s8,s8,2
    46b8:	0100                	addi	s0,sp,128
    46ba:	3205                	jal	3fda <_min_stack+0x1fda>
    46bc:	0306                	slli	t1,t1,0x1
    46be:	0900                	addi	s0,sp,144
    46c0:	0000                	unimp
    46c2:	0501                	addi	a0,a0,0
    46c4:	01030603          	lb	a2,16(t1)
    46c8:	0e09                	addi	t3,t3,2
    46ca:	0100                	addi	s0,sp,128
    46cc:	3205                	jal	3fec <_min_stack+0x1fec>
    46ce:	0306                	slli	t1,t1,0x1
    46d0:	0900                	addi	s0,sp,144
    46d2:	0000                	unimp
    46d4:	0501                	addi	a0,a0,0
    46d6:	01030603          	lb	a2,16(t1)
    46da:	0e09                	addi	t3,t3,2
    46dc:	0100                	addi	s0,sp,128
    46de:	3205                	jal	3ffe <_min_stack+0x1ffe>
    46e0:	0306                	slli	t1,t1,0x1
    46e2:	0900                	addi	s0,sp,144
    46e4:	0000                	unimp
    46e6:	0501                	addi	a0,a0,0
    46e8:	01030603          	lb	a2,16(t1)
    46ec:	0e09                	addi	t3,t3,2
    46ee:	0100                	addi	s0,sp,128
    46f0:	3205                	jal	4010 <_min_stack+0x2010>
    46f2:	0306                	slli	t1,t1,0x1
    46f4:	0900                	addi	s0,sp,144
    46f6:	0000                	unimp
    46f8:	0501                	addi	a0,a0,0
    46fa:	01030603          	lb	a2,16(t1)
    46fe:	0e09                	addi	t3,t3,2
    4700:	0100                	addi	s0,sp,128
    4702:	3205                	jal	4022 <_min_stack+0x2022>
    4704:	0306                	slli	t1,t1,0x1
    4706:	0900                	addi	s0,sp,144
    4708:	0000                	unimp
    470a:	0501                	addi	a0,a0,0
    470c:	01030603          	lb	a2,16(t1)
    4710:	0e09                	addi	t3,t3,2
    4712:	0100                	addi	s0,sp,128
    4714:	3205                	jal	4034 <_min_stack+0x2034>
    4716:	0306                	slli	t1,t1,0x1
    4718:	0900                	addi	s0,sp,144
    471a:	0000                	unimp
    471c:	0501                	addi	a0,a0,0
    471e:	01030603          	lb	a2,16(t1)
    4722:	0e09                	addi	t3,t3,2
    4724:	0100                	addi	s0,sp,128
    4726:	3205                	jal	4046 <_min_stack+0x2046>
    4728:	0306                	slli	t1,t1,0x1
    472a:	0900                	addi	s0,sp,144
    472c:	0000                	unimp
    472e:	0501                	addi	a0,a0,0
    4730:	01030603          	lb	a2,16(t1)
    4734:	0a09                	addi	s4,s4,2
    4736:	0100                	addi	s0,sp,128
    4738:	3205                	jal	4058 <_min_stack+0x2058>
    473a:	0306                	slli	t1,t1,0x1
    473c:	0900                	addi	s0,sp,144
    473e:	0000                	unimp
    4740:	0301                	addi	t1,t1,0
    4742:	0901                	addi	s2,s2,0
    4744:	0004                	.2byte	0x4
    4746:	0301                	addi	t1,t1,0
    4748:	097f                	.2byte	0x97f
    474a:	0004                	.2byte	0x4
    474c:	0501                	addi	a0,a0,0
    474e:	01030603          	lb	a2,16(t1)
    4752:	0409                	addi	s0,s0,2
    4754:	0100                	addi	s0,sp,128
    4756:	3205                	jal	4076 <_min_stack+0x2076>
    4758:	0306                	slli	t1,t1,0x1
    475a:	0900                	addi	s0,sp,144
    475c:	0000                	unimp
    475e:	0501                	addi	a0,a0,0
    4760:	01030603          	lb	a2,16(t1)
    4764:	0e09                	addi	t3,t3,2
    4766:	0100                	addi	s0,sp,128
    4768:	3205                	jal	4088 <_min_stack+0x2088>
    476a:	0306                	slli	t1,t1,0x1
    476c:	0900                	addi	s0,sp,144
    476e:	0000                	unimp
    4770:	0501                	addi	a0,a0,0
    4772:	01030603          	lb	a2,16(t1)
    4776:	0e09                	addi	t3,t3,2
    4778:	0100                	addi	s0,sp,128
    477a:	3205                	jal	409a <_min_stack+0x209a>
    477c:	0306                	slli	t1,t1,0x1
    477e:	0900                	addi	s0,sp,144
    4780:	0000                	unimp
    4782:	0501                	addi	a0,a0,0
    4784:	01030603          	lb	a2,16(t1)
    4788:	0e09                	addi	t3,t3,2
    478a:	0100                	addi	s0,sp,128
    478c:	3205                	jal	40ac <_min_stack+0x20ac>
    478e:	0306                	slli	t1,t1,0x1
    4790:	0900                	addi	s0,sp,144
    4792:	0000                	unimp
    4794:	0501                	addi	a0,a0,0
    4796:	01030603          	lb	a2,16(t1)
    479a:	0e09                	addi	t3,t3,2
    479c:	0100                	addi	s0,sp,128
    479e:	3205                	jal	40be <_min_stack+0x20be>
    47a0:	0306                	slli	t1,t1,0x1
    47a2:	0900                	addi	s0,sp,144
    47a4:	0000                	unimp
    47a6:	0501                	addi	a0,a0,0
    47a8:	01030603          	lb	a2,16(t1)
    47ac:	0e09                	addi	t3,t3,2
    47ae:	0100                	addi	s0,sp,128
    47b0:	3205                	jal	40d0 <_min_stack+0x20d0>
    47b2:	0306                	slli	t1,t1,0x1
    47b4:	0900                	addi	s0,sp,144
    47b6:	0000                	unimp
    47b8:	0501                	addi	a0,a0,0
    47ba:	01030603          	lb	a2,16(t1)
    47be:	0e09                	addi	t3,t3,2
    47c0:	0100                	addi	s0,sp,128
    47c2:	3205                	jal	40e2 <_min_stack+0x20e2>
    47c4:	0306                	slli	t1,t1,0x1
    47c6:	0900                	addi	s0,sp,144
    47c8:	0000                	unimp
    47ca:	0501                	addi	a0,a0,0
    47cc:	01030603          	lb	a2,16(t1)
    47d0:	0e09                	addi	t3,t3,2
    47d2:	0100                	addi	s0,sp,128
    47d4:	3205                	jal	40f4 <_min_stack+0x20f4>
    47d6:	0306                	slli	t1,t1,0x1
    47d8:	0900                	addi	s0,sp,144
    47da:	0000                	unimp
    47dc:	0501                	addi	a0,a0,0
    47de:	01030603          	lb	a2,16(t1)
    47e2:	0e09                	addi	t3,t3,2
    47e4:	0100                	addi	s0,sp,128
    47e6:	3205                	jal	4106 <_min_stack+0x2106>
    47e8:	0306                	slli	t1,t1,0x1
    47ea:	0900                	addi	s0,sp,144
    47ec:	0000                	unimp
    47ee:	0501                	addi	a0,a0,0
    47f0:	01030603          	lb	a2,16(t1)
    47f4:	0c09                	addi	s8,s8,2
    47f6:	0100                	addi	s0,sp,128
    47f8:	3205                	jal	4118 <_min_stack+0x2118>
    47fa:	0306                	slli	t1,t1,0x1
    47fc:	0900                	addi	s0,sp,144
    47fe:	0000                	unimp
    4800:	0501                	addi	a0,a0,0
    4802:	01030603          	lb	a2,16(t1)
    4806:	0809                	addi	a6,a6,2
    4808:	0100                	addi	s0,sp,128
    480a:	3205                	jal	412a <_min_stack+0x212a>
    480c:	0306                	slli	t1,t1,0x1
    480e:	0900                	addi	s0,sp,144
    4810:	0000                	unimp
    4812:	0501                	addi	a0,a0,0
    4814:	01030603          	lb	a2,16(t1)
    4818:	0e09                	addi	t3,t3,2
    481a:	0100                	addi	s0,sp,128
    481c:	3205                	jal	413c <_min_stack+0x213c>
    481e:	0306                	slli	t1,t1,0x1
    4820:	0900                	addi	s0,sp,144
    4822:	0000                	unimp
    4824:	0501                	addi	a0,a0,0
    4826:	01030603          	lb	a2,16(t1)
    482a:	0e09                	addi	t3,t3,2
    482c:	0100                	addi	s0,sp,128
    482e:	3205                	jal	414e <_min_stack+0x214e>
    4830:	0306                	slli	t1,t1,0x1
    4832:	0900                	addi	s0,sp,144
    4834:	0000                	unimp
    4836:	0501                	addi	a0,a0,0
    4838:	01030603          	lb	a2,16(t1)
    483c:	0e09                	addi	t3,t3,2
    483e:	0100                	addi	s0,sp,128
    4840:	3205                	jal	4160 <_min_stack+0x2160>
    4842:	0306                	slli	t1,t1,0x1
    4844:	0900                	addi	s0,sp,144
    4846:	0000                	unimp
    4848:	0501                	addi	a0,a0,0
    484a:	01030603          	lb	a2,16(t1)
    484e:	0e09                	addi	t3,t3,2
    4850:	0100                	addi	s0,sp,128
    4852:	3205                	jal	4172 <_min_stack+0x2172>
    4854:	0306                	slli	t1,t1,0x1
    4856:	0900                	addi	s0,sp,144
    4858:	0000                	unimp
    485a:	0501                	addi	a0,a0,0
    485c:	01030603          	lb	a2,16(t1)
    4860:	0e09                	addi	t3,t3,2
    4862:	0100                	addi	s0,sp,128
    4864:	3205                	jal	4184 <_min_stack+0x2184>
    4866:	0306                	slli	t1,t1,0x1
    4868:	0900                	addi	s0,sp,144
    486a:	0000                	unimp
    486c:	0501                	addi	a0,a0,0
    486e:	01030603          	lb	a2,16(t1)
    4872:	0e09                	addi	t3,t3,2
    4874:	0100                	addi	s0,sp,128
    4876:	3205                	jal	4196 <_min_stack+0x2196>
    4878:	0306                	slli	t1,t1,0x1
    487a:	0900                	addi	s0,sp,144
    487c:	0000                	unimp
    487e:	0501                	addi	a0,a0,0
    4880:	01030603          	lb	a2,16(t1)
    4884:	0c09                	addi	s8,s8,2
    4886:	0100                	addi	s0,sp,128
    4888:	3205                	jal	41a8 <_min_stack+0x21a8>
    488a:	0306                	slli	t1,t1,0x1
    488c:	0900                	addi	s0,sp,144
    488e:	0000                	unimp
    4890:	0501                	addi	a0,a0,0
    4892:	01030603          	lb	a2,16(t1)
    4896:	0e09                	addi	t3,t3,2
    4898:	0100                	addi	s0,sp,128
    489a:	3205                	jal	41ba <_min_stack+0x21ba>
    489c:	0306                	slli	t1,t1,0x1
    489e:	0900                	addi	s0,sp,144
    48a0:	0000                	unimp
    48a2:	0501                	addi	a0,a0,0
    48a4:	01030603          	lb	a2,16(t1)
    48a8:	0e09                	addi	t3,t3,2
    48aa:	0100                	addi	s0,sp,128
    48ac:	3205                	jal	41cc <_min_stack+0x21cc>
    48ae:	0306                	slli	t1,t1,0x1
    48b0:	0900                	addi	s0,sp,144
    48b2:	0000                	unimp
    48b4:	0501                	addi	a0,a0,0
    48b6:	01030603          	lb	a2,16(t1)
    48ba:	0a09                	addi	s4,s4,2
    48bc:	0100                	addi	s0,sp,128
    48be:	3205                	jal	41de <_min_stack+0x21de>
    48c0:	0306                	slli	t1,t1,0x1
    48c2:	0900                	addi	s0,sp,144
    48c4:	0000                	unimp
    48c6:	0501                	addi	a0,a0,0
    48c8:	01030603          	lb	a2,16(t1)
    48cc:	0e09                	addi	t3,t3,2
    48ce:	0100                	addi	s0,sp,128
    48d0:	3205                	jal	41f0 <_min_stack+0x21f0>
    48d2:	0306                	slli	t1,t1,0x1
    48d4:	0900                	addi	s0,sp,144
    48d6:	0000                	unimp
    48d8:	0501                	addi	a0,a0,0
    48da:	01030603          	lb	a2,16(t1)
    48de:	0e09                	addi	t3,t3,2
    48e0:	0100                	addi	s0,sp,128
    48e2:	3205                	jal	4202 <_min_stack+0x2202>
    48e4:	0306                	slli	t1,t1,0x1
    48e6:	0900                	addi	s0,sp,144
    48e8:	0000                	unimp
    48ea:	0501                	addi	a0,a0,0
    48ec:	01030603          	lb	a2,16(t1)
    48f0:	0e09                	addi	t3,t3,2
    48f2:	0100                	addi	s0,sp,128
    48f4:	3205                	jal	4214 <_min_stack+0x2214>
    48f6:	0306                	slli	t1,t1,0x1
    48f8:	0900                	addi	s0,sp,144
    48fa:	0000                	unimp
    48fc:	0501                	addi	a0,a0,0
    48fe:	01030603          	lb	a2,16(t1)
    4902:	0a09                	addi	s4,s4,2
    4904:	0100                	addi	s0,sp,128
    4906:	3205                	jal	4226 <_min_stack+0x2226>
    4908:	0306                	slli	t1,t1,0x1
    490a:	0900                	addi	s0,sp,144
    490c:	0000                	unimp
    490e:	0501                	addi	a0,a0,0
    4910:	01030603          	lb	a2,16(t1)
    4914:	0e09                	addi	t3,t3,2
    4916:	0100                	addi	s0,sp,128
    4918:	3205                	jal	4238 <_min_stack+0x2238>
    491a:	0306                	slli	t1,t1,0x1
    491c:	0900                	addi	s0,sp,144
    491e:	0000                	unimp
    4920:	0501                	addi	a0,a0,0
    4922:	01030603          	lb	a2,16(t1)
    4926:	0809                	addi	a6,a6,2
    4928:	0100                	addi	s0,sp,128
    492a:	3205                	jal	424a <_min_stack+0x224a>
    492c:	0306                	slli	t1,t1,0x1
    492e:	0900                	addi	s0,sp,144
    4930:	0000                	unimp
    4932:	0501                	addi	a0,a0,0
    4934:	01030603          	lb	a2,16(t1)
    4938:	0e09                	addi	t3,t3,2
    493a:	0100                	addi	s0,sp,128
    493c:	3205                	jal	425c <_min_stack+0x225c>
    493e:	0306                	slli	t1,t1,0x1
    4940:	0900                	addi	s0,sp,144
    4942:	0000                	unimp
    4944:	0501                	addi	a0,a0,0
    4946:	01030603          	lb	a2,16(t1)
    494a:	0e09                	addi	t3,t3,2
    494c:	0100                	addi	s0,sp,128
    494e:	3205                	jal	426e <_min_stack+0x226e>
    4950:	0306                	slli	t1,t1,0x1
    4952:	0900                	addi	s0,sp,144
    4954:	0000                	unimp
    4956:	0501                	addi	a0,a0,0
    4958:	01030603          	lb	a2,16(t1)
    495c:	0e09                	addi	t3,t3,2
    495e:	0100                	addi	s0,sp,128
    4960:	3205                	jal	4280 <_min_stack+0x2280>
    4962:	0306                	slli	t1,t1,0x1
    4964:	0900                	addi	s0,sp,144
    4966:	0000                	unimp
    4968:	0501                	addi	a0,a0,0
    496a:	01030603          	lb	a2,16(t1)
    496e:	0e09                	addi	t3,t3,2
    4970:	0100                	addi	s0,sp,128
    4972:	3205                	jal	4292 <_min_stack+0x2292>
    4974:	0306                	slli	t1,t1,0x1
    4976:	0900                	addi	s0,sp,144
    4978:	0000                	unimp
    497a:	0501                	addi	a0,a0,0
    497c:	01030603          	lb	a2,16(t1)
    4980:	0609                	addi	a2,a2,2
    4982:	0100                	addi	s0,sp,128
    4984:	3205                	jal	42a4 <_min_stack+0x22a4>
    4986:	0306                	slli	t1,t1,0x1
    4988:	0900                	addi	s0,sp,144
    498a:	0000                	unimp
    498c:	0501                	addi	a0,a0,0
    498e:	01030603          	lb	a2,16(t1)
    4992:	0c09                	addi	s8,s8,2
    4994:	0100                	addi	s0,sp,128
    4996:	3205                	jal	42b6 <_min_stack+0x22b6>
    4998:	0306                	slli	t1,t1,0x1
    499a:	0900                	addi	s0,sp,144
    499c:	0000                	unimp
    499e:	0501                	addi	a0,a0,0
    49a0:	0601                	addi	a2,a2,0
    49a2:	0e090203          	lb	tp,224(s2)
    49a6:	0100                	addi	s0,sp,128
    49a8:	0205                	addi	tp,tp,1 # 1 <_min_stack-0x1fff>
    49aa:	0306                	slli	t1,t1,0x1
    49ac:	0901                	addi	s2,s2,0
    49ae:	0000                	unimp
    49b0:	0401                	addi	s0,s0,0
    49b2:	0502                	c.slli64	a0
    49b4:	0620                	addi	s0,sp,776
    49b6:	0979da03          	lhu	s4,151(s3)
    49ba:	0004                	.2byte	0x4
    49bc:	0501                	addi	a0,a0,0
    49be:	09010303          	lb	t1,144(sp)
    49c2:	0000                	unimp
    49c4:	0301                	addi	t1,t1,0
    49c6:	0901                	addi	s2,s2,0
    49c8:	0000                	unimp
    49ca:	0301                	addi	t1,t1,0
    49cc:	0904                	addi	s1,sp,144
    49ce:	0000                	unimp
    49d0:	0301                	addi	t1,t1,0
    49d2:	0901                	addi	s2,s2,0
    49d4:	0000                	unimp
    49d6:	0501                	addi	a0,a0,0
    49d8:	0620                	addi	s0,sp,776
    49da:	00097903          	.4byte	0x97903
    49de:	0100                	addi	s0,sp,128
    49e0:	0905                	addi	s2,s2,1
    49e2:	0a090703          	lb	a4,160(s2)
    49e6:	0100                	addi	s0,sp,128
    49e8:	1505                	addi	a0,a0,-31
    49ea:	04090003          	lb	zero,64(s2)
    49ee:	0100                	addi	s0,sp,128
    49f0:	0200                	addi	s0,sp,256
    49f2:	0104                	addi	s1,sp,128
    49f4:	0306                	slli	t1,t1,0x1
    49f6:	0900                	addi	s0,sp,144
    49f8:	0004                	.2byte	0x4
    49fa:	0501                	addi	a0,a0,0
    49fc:	0009                	c.nop	2
    49fe:	0402                	c.slli64	s0
    4a00:	0601                	addi	a2,a2,0
    4a02:	00090003          	lb	zero,0(s2)
    4a06:	0100                	addi	s0,sp,128
    4a08:	1505                	addi	a0,a0,-31
    4a0a:	0200                	addi	s0,sp,256
    4a0c:	0104                	addi	s1,sp,128
    4a0e:	06090003          	lb	zero,96(s2)
    4a12:	0100                	addi	s0,sp,128
    4a14:	0305                	addi	t1,t1,1
    4a16:	0306                	slli	t1,t1,0x1
    4a18:	0902                	c.slli64	s2
    4a1a:	0004                	.2byte	0x4
    4a1c:	0501                	addi	a0,a0,0
    4a1e:	0302                	c.slli64	t1
    4a20:	0901                	addi	s2,s2,0
    4a22:	0000                	unimp
    4a24:	0501                	addi	a0,a0,0
    4a26:	0609                	addi	a2,a2,2
    4a28:	00090003          	lb	zero,0(s2)
    4a2c:	0100                	addi	s0,sp,128
    4a2e:	0205                	addi	tp,tp,1 # 1 <_min_stack-0x1fff>
    4a30:	0306                	slli	t1,t1,0x1
    4a32:	0902                	c.slli64	s2
    4a34:	0008                	.2byte	0x8
    4a36:	0501                	addi	a0,a0,0
    4a38:	060e                	slli	a2,a2,0x3
    4a3a:	00090003          	lb	zero,0(s2)
    4a3e:	0100                	addi	s0,sp,128
    4a40:	0305                	addi	t1,t1,1
    4a42:	0306                	slli	t1,t1,0x1
    4a44:	0902                	c.slli64	s2
    4a46:	0002                	c.slli64	zero
    4a48:	0501                	addi	a0,a0,0
    4a4a:	0601                	addi	a2,a2,0
    4a4c:	00090103          	lb	sp,0(s2)
    4a50:	0100                	addi	s0,sp,128
    4a52:	0e09                	addi	t3,t3,2
    4a54:	0000                	unimp
    4a56:	0101                	addi	sp,sp,0
    4a58:	0204                	addi	s1,sp,256
    4a5a:	0c05                	addi	s8,s8,1
    4a5c:	0500                	addi	s0,sp,640
    4a5e:	6a02                	.2byte	0x6a02
    4a60:	0024                	addi	s1,sp,8
    4a62:	19e0                	addi	s0,sp,252
    4a64:	0305                	addi	t1,t1,1
    4a66:	00090a03          	lb	s4,0(s2)
    4a6a:	0100                	addi	s0,sp,128
    4a6c:	00090103          	lb	sp,0(s2)
    4a70:	0100                	addi	s0,sp,128
    4a72:	00090203          	lb	tp,0(s2)
    4a76:	0100                	addi	s0,sp,128
    4a78:	0c05                	addi	s8,s8,1
    4a7a:	0306                	slli	t1,t1,0x1
    4a7c:	00000973          	.4byte	0x973
    4a80:	0501                	addi	a0,a0,0
    4a82:	090d0303          	lb	t1,144(s10)
    4a86:	0002                	c.slli64	zero
    4a88:	0501                	addi	a0,a0,0
    4a8a:	030c                	addi	a1,sp,384
    4a8c:	00060973          	.4byte	0x60973
    4a90:	0501                	addi	a0,a0,0
    4a92:	090d0303          	lb	t1,144(s10)
    4a96:	0006                	c.slli	zero,0x1
    4a98:	0601                	addi	a2,a2,0
    4a9a:	04090203          	lb	tp,64(s2)
    4a9e:	0100                	addi	s0,sp,128
    4aa0:	00090103          	lb	sp,0(s2)
    4aa4:	0100                	addi	s0,sp,128
    4aa6:	00090203          	lb	tp,0(s2)
    4aaa:	0100                	addi	s0,sp,128
    4aac:	00090203          	lb	tp,0(s2)
    4ab0:	0100                	addi	s0,sp,128
    4ab2:	00090203          	lb	tp,0(s2)
    4ab6:	0100                	addi	s0,sp,128
    4ab8:	00090103          	lb	sp,0(s2)
    4abc:	0100                	addi	s0,sp,128
    4abe:	0a090203          	lb	tp,160(s2)
    4ac2:	0100                	addi	s0,sp,128
    4ac4:	00090103          	lb	sp,0(s2)
    4ac8:	0100                	addi	s0,sp,128
    4aca:	00090203          	lb	tp,0(s2)
    4ace:	0100                	addi	s0,sp,128
    4ad0:	0a090103          	lb	sp,160(s2)
    4ad4:	0100                	addi	s0,sp,128
    4ad6:	0a090203          	lb	tp,160(s2)
    4ada:	0100                	addi	s0,sp,128
    4adc:	00090103          	lb	sp,0(s2)
    4ae0:	0100                	addi	s0,sp,128
    4ae2:	0205                	addi	tp,tp,1 # 1 <_min_stack-0x1fff>
    4ae4:	00090203          	lb	tp,0(s2)
    4ae8:	0100                	addi	s0,sp,128
    4aea:	0e05                	addi	t3,t3,1
    4aec:	0306                	slli	t1,t1,0x1
    4aee:	0900                	addi	s0,sp,144
    4af0:	0000                	unimp
    4af2:	0501                	addi	a0,a0,0
    4af4:	0602                	c.slli64	a2
    4af6:	0a090103          	lb	sp,160(s2)
    4afa:	0100                	addi	s0,sp,128
    4afc:	0e05                	addi	t3,t3,1
    4afe:	0306                	slli	t1,t1,0x1
    4b00:	0900                	addi	s0,sp,144
    4b02:	0000                	unimp
    4b04:	0501                	addi	a0,a0,0
    4b06:	02030603          	lb	a2,32(t1)
    4b0a:	0a09                	addi	s4,s4,2
    4b0c:	0100                	addi	s0,sp,128
    4b0e:	00090103          	lb	sp,0(s2)
    4b12:	0100                	addi	s0,sp,128
    4b14:	0f05                	addi	t5,t5,1
    4b16:	0306                	slli	t1,t1,0x1
    4b18:	0900                	addi	s0,sp,144
    4b1a:	0000                	unimp
    4b1c:	0501                	addi	a0,a0,0
    4b1e:	06030603          	lb	a2,96(t1)
    4b22:	0c09                	addi	s8,s8,2
    4b24:	0100                	addi	s0,sp,128
    4b26:	0905                	addi	s2,s2,1
    4b28:	0306                	slli	t1,t1,0x1
    4b2a:	0900                	addi	s0,sp,144
    4b2c:	0000                	unimp
    4b2e:	0501                	addi	a0,a0,0
    4b30:	030d                	addi	t1,t1,3
    4b32:	0901                	addi	s2,s2,0
    4b34:	0004                	.2byte	0x4
    4b36:	0501                	addi	a0,a0,0
    4b38:	0309                	addi	t1,t1,2
    4b3a:	097f                	.2byte	0x97f
    4b3c:	0006                	c.slli	zero,0x1
    4b3e:	0501                	addi	a0,a0,0
    4b40:	01030603          	lb	a2,16(t1)
    4b44:	0209                	addi	tp,tp,2 # 2 <_min_stack-0x1ffe>
    4b46:	0100                	addi	s0,sp,128
    4b48:	00090203          	lb	tp,0(s2)
    4b4c:	0100                	addi	s0,sp,128
    4b4e:	0505                	addi	a0,a0,1
    4b50:	0306                	slli	t1,t1,0x1
    4b52:	0900                	addi	s0,sp,144
    4b54:	0000                	unimp
    4b56:	0501                	addi	a0,a0,0
    4b58:	000e                	c.slli	zero,0x3
    4b5a:	0402                	c.slli64	s0
    4b5c:	0601                	addi	a2,a2,0
    4b5e:	02090003          	lb	zero,32(s2)
    4b62:	0100                	addi	s0,sp,128
    4b64:	0305                	addi	t1,t1,1
    4b66:	0c090203          	lb	tp,192(s2)
    4b6a:	0100                	addi	s0,sp,128
    4b6c:	04090203          	lb	tp,64(s2)
    4b70:	0100                	addi	s0,sp,128
    4b72:	00090103          	lb	sp,0(s2)
    4b76:	0100                	addi	s0,sp,128
    4b78:	00090103          	lb	sp,0(s2)
    4b7c:	0100                	addi	s0,sp,128
    4b7e:	00090103          	lb	sp,0(s2)
    4b82:	0100                	addi	s0,sp,128
    4b84:	00090103          	lb	sp,0(s2)
    4b88:	0100                	addi	s0,sp,128
    4b8a:	00090203          	lb	tp,0(s2)
    4b8e:	0100                	addi	s0,sp,128
    4b90:	0505                	addi	a0,a0,1
    4b92:	0306                	slli	t1,t1,0x1
    4b94:	0900                	addi	s0,sp,144
    4b96:	0000                	unimp
    4b98:	0501                	addi	a0,a0,0
    4b9a:	01030603          	lb	a2,16(t1)
    4b9e:	0609                	addi	a2,a2,2
    4ba0:	0100                	addi	s0,sp,128
    4ba2:	0505                	addi	a0,a0,1
    4ba4:	0306                	slli	t1,t1,0x1
    4ba6:	0900                	addi	s0,sp,144
    4ba8:	0000                	unimp
    4baa:	0501                	addi	a0,a0,0
    4bac:	01030603          	lb	a2,16(t1)
    4bb0:	0209                	addi	tp,tp,2 # 2 <_min_stack-0x1ffe>
    4bb2:	0100                	addi	s0,sp,128
    4bb4:	0505                	addi	a0,a0,1
    4bb6:	0306                	slli	t1,t1,0x1
    4bb8:	0900                	addi	s0,sp,144
    4bba:	0000                	unimp
    4bbc:	0501                	addi	a0,a0,0
    4bbe:	01030603          	lb	a2,16(t1)
    4bc2:	0209                	addi	tp,tp,2 # 2 <_min_stack-0x1ffe>
    4bc4:	0100                	addi	s0,sp,128
    4bc6:	0505                	addi	a0,a0,1
    4bc8:	0306                	slli	t1,t1,0x1
    4bca:	0900                	addi	s0,sp,144
    4bcc:	0000                	unimp
    4bce:	0501                	addi	a0,a0,0
    4bd0:	01030603          	lb	a2,16(t1)
    4bd4:	0209                	addi	tp,tp,2 # 2 <_min_stack-0x1ffe>
    4bd6:	0100                	addi	s0,sp,128
    4bd8:	0505                	addi	a0,a0,1
    4bda:	0306                	slli	t1,t1,0x1
    4bdc:	0900                	addi	s0,sp,144
    4bde:	0000                	unimp
    4be0:	0501                	addi	a0,a0,0
    4be2:	02030603          	lb	a2,32(t1)
    4be6:	0209                	addi	tp,tp,2 # 2 <_min_stack-0x1ffe>
    4be8:	0100                	addi	s0,sp,128
    4bea:	0505                	addi	a0,a0,1
    4bec:	0306                	slli	t1,t1,0x1
    4bee:	0900                	addi	s0,sp,144
    4bf0:	0000                	unimp
    4bf2:	0501                	addi	a0,a0,0
    4bf4:	04020017          	auipc	zero,0x4020
    4bf8:	0301                	addi	t1,t1,0
    4bfa:	0900                	addi	s0,sp,144
    4bfc:	000c                	.2byte	0xc
    4bfe:	0501                	addi	a0,a0,0
    4c00:	0402002b          	.4byte	0x402002b
    4c04:	0302                	c.slli64	t1
    4c06:	0900                	addi	s0,sp,144
    4c08:	0004                	.2byte	0x4
    4c0a:	0501                	addi	a0,a0,0
    4c0c:	003e                	c.slli	zero,0xf
    4c0e:	0402                	c.slli64	s0
    4c10:	09000303          	lb	t1,144(zero) # 90 <_min_stack-0x1f70>
    4c14:	0004                	.2byte	0x4
    4c16:	0501                	addi	a0,a0,0
    4c18:	0051                	c.nop	20
    4c1a:	0402                	c.slli64	s0
    4c1c:	0304                	addi	s1,sp,384
    4c1e:	0900                	addi	s0,sp,144
    4c20:	0004                	.2byte	0x4
    4c22:	0501                	addi	a0,a0,0
    4c24:	0605                	addi	a2,a2,1
    4c26:	04090103          	lb	sp,64(s2)
    4c2a:	0100                	addi	s0,sp,128
    4c2c:	0105                	addi	sp,sp,1
    4c2e:	0306                	slli	t1,t1,0x1
    4c30:	000c0907          	.4byte	0xc0907
    4c34:	0501                	addi	a0,a0,0
    4c36:	0605                	addi	a2,a2,1
    4c38:	0c097b03          	.4byte	0xc097b03
    4c3c:	0100                	addi	s0,sp,128
    4c3e:	0c090103          	lb	sp,192(s2)
    4c42:	0100                	addi	s0,sp,128
    4c44:	0805                	addi	a6,a6,1
    4c46:	0306                	slli	t1,t1,0x1
    4c48:	0900                	addi	s0,sp,144
    4c4a:	0000                	unimp
    4c4c:	0501                	addi	a0,a0,0
    4c4e:	03030603          	lb	a2,48(t1)
    4c52:	0209                	addi	tp,tp,2 # 2 <_min_stack-0x1ffe>
    4c54:	0100                	addi	s0,sp,128
    4c56:	0a05                	addi	s4,s4,1
    4c58:	0306                	slli	t1,t1,0x1
    4c5a:	0900                	addi	s0,sp,144
    4c5c:	0000                	unimp
    4c5e:	0901                	addi	s2,s2,0
    4c60:	0002                	c.slli64	zero
    4c62:	0100                	addi	s0,sp,128
    4c64:	8d01                	sub	a0,a0,s0
    4c66:	0001                	nop
    4c68:	0500                	addi	s0,sp,640
    4c6a:	0400                	addi	s0,sp,512
    4c6c:	2e00                	.2byte	0x2e00
    4c6e:	0000                	unimp
    4c70:	0100                	addi	s0,sp,128
    4c72:	0101                	addi	sp,sp,0
    4c74:	000d0efb          	.4byte	0xd0efb
    4c78:	0101                	addi	sp,sp,0
    4c7a:	0101                	addi	sp,sp,0
    4c7c:	0000                	unimp
    4c7e:	0100                	addi	s0,sp,128
    4c80:	0000                	unimp
    4c82:	0101                	addi	sp,sp,0
    4c84:	1f01                	addi	t5,t5,-32
    4c86:	0002                	c.slli64	zero
    4c88:	0000                	unimp
    4c8a:	9300                	.2byte	0x9300
    4c8c:	0000                	unimp
    4c8e:	0200                	addi	s0,sp,256
    4c90:	1f01                	addi	t5,t5,-32
    4c92:	0f02                	c.slli64	t5
    4c94:	7602                	.2byte	0x7602
    4c96:	0002                	c.slli64	zero
    4c98:	0100                	addi	s0,sp,128
    4c9a:	0276                	slli	tp,tp,0x1d
    4c9c:	0000                	unimp
    4c9e:	0001                	nop
    4ca0:	0205                	addi	tp,tp,1 # 1 <_min_stack-0x1fff>
    4ca2:	23e6                	.2byte	0x23e6
    4ca4:	e000                	.2byte	0xe000
    4ca6:	031a                	slli	t1,t1,0x6
    4ca8:	0904                	addi	s1,sp,144
    4caa:	0004                	.2byte	0x4
    4cac:	0301                	addi	t1,t1,0
    4cae:	0901                	addi	s2,s2,0
    4cb0:	0004                	.2byte	0x4
    4cb2:	0301                	addi	t1,t1,0
    4cb4:	0901                	addi	s2,s2,0
    4cb6:	0002                	c.slli64	zero
    4cb8:	0301                	addi	t1,t1,0
    4cba:	0901                	addi	s2,s2,0
    4cbc:	0002                	c.slli64	zero
    4cbe:	0301                	addi	t1,t1,0
    4cc0:	0901                	addi	s2,s2,0
    4cc2:	0002                	c.slli64	zero
    4cc4:	0301                	addi	t1,t1,0
    4cc6:	0901                	addi	s2,s2,0
    4cc8:	0002                	c.slli64	zero
    4cca:	0301                	addi	t1,t1,0
    4ccc:	0901                	addi	s2,s2,0
    4cce:	0002                	c.slli64	zero
    4cd0:	0301                	addi	t1,t1,0
    4cd2:	0901                	addi	s2,s2,0
    4cd4:	0002                	c.slli64	zero
    4cd6:	0301                	addi	t1,t1,0
    4cd8:	0901                	addi	s2,s2,0
    4cda:	0002                	c.slli64	zero
    4cdc:	0301                	addi	t1,t1,0
    4cde:	0901                	addi	s2,s2,0
    4ce0:	0002                	c.slli64	zero
    4ce2:	0301                	addi	t1,t1,0
    4ce4:	0901                	addi	s2,s2,0
    4ce6:	0002                	c.slli64	zero
    4ce8:	0301                	addi	t1,t1,0
    4cea:	0901                	addi	s2,s2,0
    4cec:	0002                	c.slli64	zero
    4cee:	0301                	addi	t1,t1,0
    4cf0:	0901                	addi	s2,s2,0
    4cf2:	0002                	c.slli64	zero
    4cf4:	0301                	addi	t1,t1,0
    4cf6:	0901                	addi	s2,s2,0
    4cf8:	0002                	c.slli64	zero
    4cfa:	0301                	addi	t1,t1,0
    4cfc:	0901                	addi	s2,s2,0
    4cfe:	0002                	c.slli64	zero
    4d00:	0301                	addi	t1,t1,0
    4d02:	0901                	addi	s2,s2,0
    4d04:	0002                	c.slli64	zero
    4d06:	0301                	addi	t1,t1,0
    4d08:	0901                	addi	s2,s2,0
    4d0a:	0002                	c.slli64	zero
    4d0c:	0301                	addi	t1,t1,0
    4d0e:	0901                	addi	s2,s2,0
    4d10:	0002                	c.slli64	zero
    4d12:	0301                	addi	t1,t1,0
    4d14:	0901                	addi	s2,s2,0
    4d16:	0002                	c.slli64	zero
    4d18:	0301                	addi	t1,t1,0
    4d1a:	0901                	addi	s2,s2,0
    4d1c:	0002                	c.slli64	zero
    4d1e:	0301                	addi	t1,t1,0
    4d20:	0901                	addi	s2,s2,0
    4d22:	0002                	c.slli64	zero
    4d24:	0301                	addi	t1,t1,0
    4d26:	0901                	addi	s2,s2,0
    4d28:	0002                	c.slli64	zero
    4d2a:	0301                	addi	t1,t1,0
    4d2c:	0901                	addi	s2,s2,0
    4d2e:	0002                	c.slli64	zero
    4d30:	0301                	addi	t1,t1,0
    4d32:	0901                	addi	s2,s2,0
    4d34:	0002                	c.slli64	zero
    4d36:	0301                	addi	t1,t1,0
    4d38:	0901                	addi	s2,s2,0
    4d3a:	0002                	c.slli64	zero
    4d3c:	0301                	addi	t1,t1,0
    4d3e:	0901                	addi	s2,s2,0
    4d40:	0002                	c.slli64	zero
    4d42:	0301                	addi	t1,t1,0
    4d44:	0901                	addi	s2,s2,0
    4d46:	0002                	c.slli64	zero
    4d48:	0301                	addi	t1,t1,0
    4d4a:	0901                	addi	s2,s2,0
    4d4c:	0002                	c.slli64	zero
    4d4e:	0301                	addi	t1,t1,0
    4d50:	0901                	addi	s2,s2,0
    4d52:	0002                	c.slli64	zero
    4d54:	0301                	addi	t1,t1,0
    4d56:	0901                	addi	s2,s2,0
    4d58:	0002                	c.slli64	zero
    4d5a:	0301                	addi	t1,t1,0
    4d5c:	0901                	addi	s2,s2,0
    4d5e:	0002                	c.slli64	zero
    4d60:	0301                	addi	t1,t1,0
    4d62:	00020903          	lb	s2,0(tp) # 0 <_min_stack-0x2000>
    4d66:	0301                	addi	t1,t1,0
    4d68:	00080907          	.4byte	0x80907
    4d6c:	0301                	addi	t1,t1,0
    4d6e:	0901                	addi	s2,s2,0
    4d70:	0008                	.2byte	0x8
    4d72:	0301                	addi	t1,t1,0
    4d74:	0901                	addi	s2,s2,0
    4d76:	0008                	.2byte	0x8
    4d78:	0301                	addi	t1,t1,0
    4d7a:	0904                	addi	s1,sp,144
    4d7c:	0004                	.2byte	0x4
    4d7e:	0301                	addi	t1,t1,0
    4d80:	0901                	addi	s2,s2,0
    4d82:	0004                	.2byte	0x4
    4d84:	0301                	addi	t1,t1,0
    4d86:	0901                	addi	s2,s2,0
    4d88:	0002                	c.slli64	zero
    4d8a:	0301                	addi	t1,t1,0
    4d8c:	0906                	slli	s2,s2,0x1
    4d8e:	0004                	.2byte	0x4
    4d90:	0301                	addi	t1,t1,0
    4d92:	0901                	addi	s2,s2,0
    4d94:	0002                	c.slli64	zero
    4d96:	0301                	addi	t1,t1,0
    4d98:	0901                	addi	s2,s2,0
    4d9a:	0002                	c.slli64	zero
    4d9c:	0301                	addi	t1,t1,0
    4d9e:	0902                	c.slli64	s2
    4da0:	0004                	.2byte	0x4
    4da2:	0301                	addi	t1,t1,0
    4da4:	0901                	addi	s2,s2,0
    4da6:	0006                	c.slli	zero,0x1
    4da8:	0301                	addi	t1,t1,0
    4daa:	0901                	addi	s2,s2,0
    4dac:	0002                	c.slli64	zero
    4dae:	0301                	addi	t1,t1,0
    4db0:	0902                	c.slli64	s2
    4db2:	0004                	.2byte	0x4
    4db4:	0301                	addi	t1,t1,0
    4db6:	0901                	addi	s2,s2,0
    4db8:	0004                	.2byte	0x4
    4dba:	0901                	addi	s2,s2,0
    4dbc:	0002                	c.slli64	zero
    4dbe:	0100                	addi	s0,sp,128
    4dc0:	0001                	nop
    4dc2:	0205                	addi	tp,tp,1 # 1 <_min_stack-0x1fff>
    4dc4:	0000                	unimp
    4dc6:	e000                	.2byte	0xe000
    4dc8:	0100d703          	lhu	a4,16(ra)
    4dcc:	28090203          	lb	tp,640(s2)
    4dd0:	0100                	addi	s0,sp,128
    4dd2:	04090203          	lb	tp,64(s2)
    4dd6:	0100                	addi	s0,sp,128
    4dd8:	04090503          	lb	a0,64(s2)
    4ddc:	0100                	addi	s0,sp,128
    4dde:	48090103          	lb	sp,1152(s2)
    4de2:	0100                	addi	s0,sp,128
    4de4:	04090103          	lb	sp,64(s2)
    4de8:	0100                	addi	s0,sp,128
    4dea:	04090503          	lb	a0,64(s2)
    4dee:	0100                	addi	s0,sp,128
    4df0:	0409                	addi	s0,s0,2
    4df2:	0000                	unimp
    4df4:	0101                	addi	sp,sp,0

Disassembly of section .debug_str:

00000000 <.debug_str>:
   0:	6175                	addi	sp,sp,368
   2:	7472                	.2byte	0x7472
   4:	675f 7465 6863      	.byte	0x5f, 0x67, 0x65, 0x74, 0x63, 0x68
   a:	7261                	lui	tp,0xffff8
   c:	5f00                	lw	s0,56(a4)
   e:	625f 6975 746c      	.byte	0x5f, 0x62, 0x75, 0x69, 0x6c, 0x74
  14:	6e69                	lui	t3,0x1a
  16:	765f 5f61 696c      	.byte	0x5f, 0x76, 0x61, 0x5f, 0x6c, 0x69
  1c:	71007473          	csrrci	s0,0x710,0
  20:	7270                	.2byte	0x7270
  22:	6e69                	lui	t3,0x1a
  24:	6374                	.2byte	0x6374
  26:	6168                	.2byte	0x6168
  28:	0072                	c.slli	zero,0x1c
  2a:	6175                	addi	sp,sp,368
  2c:	7472                	.2byte	0x7472
  2e:	775f 6961 5f74      	.byte	0x5f, 0x77, 0x61, 0x69, 0x74, 0x5f
  34:	7874                	.2byte	0x7874
  36:	645f 6e6f 0065      	.byte	0x5f, 0x64, 0x6f, 0x6e, 0x65, 0x00
  3c:	706d6973          	csrrsi	s2,0x706,26
  40:	656c                	.2byte	0x656c
  42:	655f 6378 685f      	.byte	0x5f, 0x65, 0x78, 0x63, 0x5f, 0x68
  48:	6e61                	lui	t3,0x18
  4a:	6c64                	.2byte	0x6c64
  4c:	7265                	lui	tp,0xffff9
  4e:	7300                	.2byte	0x7300
  50:	7274                	.2byte	0x7274
  52:	6e69                	lui	t3,0x1a
  54:	69640067          	jr	1686(s0)
  58:	7576                	.2byte	0x7576
  5a:	3031                	jal	fffff866 <fromhost+0x1ffef856>
  5c:	7100                	.2byte	0x7100
  5e:	7270                	.2byte	0x7270
  60:	6e69                	lui	t3,0x1a
  62:	6974                	.2byte	0x6974
  64:	5f00                	lw	s0,56(a4)
  66:	675f 756e 5f63      	.byte	0x5f, 0x67, 0x6e, 0x75, 0x63, 0x5f
  6c:	6176                	.2byte	0x6176
  6e:	6c5f 7369 0074      	.byte	0x5f, 0x6c, 0x69, 0x73, 0x74, 0x00
  74:	6170                	.2byte	0x6170
  76:	6364                	.2byte	0x6364
  78:	6168                	.2byte	0x6168
  7a:	0072                	c.slli	zero,0x1c
  7c:	6e75                	lui	t3,0x1d
  7e:	6e676973          	csrrsi	s2,0x6e6,14
  82:	6465                	lui	s0,0x19
  84:	6320                	.2byte	0x6320
  86:	6168                	.2byte	0x6168
  88:	0072                	c.slli	zero,0x1c
  8a:	20554e47          	.4byte	0x20554e47
  8e:	20373143          	.4byte	0x20373143
  92:	3131                	jal	fffffc9e <fromhost+0x1ffefc8e>
  94:	322e                	.2byte	0x322e
  96:	302e                	.2byte	0x302e
  98:	2d20                	.2byte	0x2d20
  9a:	616d                	addi	sp,sp,240
  9c:	6962                	.2byte	0x6962
  9e:	693d                	lui	s2,0xf
  a0:	706c                	.2byte	0x706c
  a2:	2d203233          	.4byte	0x2d203233
  a6:	636d                	lui	t1,0x1b
  a8:	6f6d                	lui	t5,0x1b
  aa:	6564                	.2byte	0x6564
  ac:	3d6c                	.2byte	0x3d6c
  ae:	656d                	lui	a0,0x1b
  b0:	6164                	.2byte	0x6164
  b2:	796e                	.2byte	0x796e
  b4:	2d20                	.2byte	0x2d20
  b6:	616d                	addi	sp,sp,240
  b8:	6372                	.2byte	0x6372
  ba:	3d68                	.2byte	0x3d68
  bc:	7672                	.2byte	0x7672
  be:	6d693233          	.4byte	0x6d693233
  c2:	672d2063          	.4byte	0x672d2063
  c6:	2d20                	.2byte	0x2d20
  c8:	2d20734f          	.4byte	0x2d20734f
  cc:	7666                	.2byte	0x7666
  ce:	7369                	lui	t1,0xffffa
  d0:	6269                	lui	tp,0x1a
  d2:	6c69                	lui	s8,0x1a
  d4:	7469                	lui	s0,0xffffa
  d6:	3d79                	jal	ffffff74 <fromhost+0x1ffeff64>
  d8:	6968                	.2byte	0x6968
  da:	6464                	.2byte	0x6464
  dc:	6e65                	lui	t3,0x19
  de:	2d20                	.2byte	0x2d20
  e0:	6666                	.2byte	0x6666
  e2:	6572                	.2byte	0x6572
  e4:	7365                	lui	t1,0xffff9
  e6:	6174                	.2byte	0x6174
  e8:	646e                	.2byte	0x646e
  ea:	6e69                	lui	t3,0x1a
  ec:	6c630067          	jr	1734(t1) # ffff96c6 <fromhost+0x1ffe96b6>
  f0:	6f635f6b          	.4byte	0x6f635f6b
  f4:	6e75                	lui	t3,0x1d
  f6:	6574                	.2byte	0x6574
  f8:	0072                	c.slli	zero,0x1c
  fa:	726f6873          	csrrsi	a6,0x726,30
  fe:	2074                	.2byte	0x2074
 100:	6e75                	lui	t3,0x1d
 102:	6e676973          	csrrsi	s2,0x6e6,14
 106:	6465                	lui	s0,0x19
 108:	6920                	.2byte	0x6920
 10a:	746e                	.2byte	0x746e
 10c:	7200                	.2byte	0x7200
 10e:	6d65                	lui	s10,0x19
 110:	3175                	jal	fffffdbc <fromhost+0x1ffefdac>
 112:	5f30                	lw	a2,120(a4)
 114:	6174                	.2byte	0x6174
 116:	6c62                	.2byte	0x6c62
 118:	0065                	c.nop	25
 11a:	7570                	.2byte	0x7570
 11c:	6374                	.2byte	0x6374
 11e:	6168                	.2byte	0x6168
 120:	0072                	c.slli	zero,0x1c
 122:	74646977          	.4byte	0x74646977
 126:	0068                	addi	a0,sp,12
 128:	7570                	.2byte	0x7570
 12a:	7374                	.2byte	0x7374
 12c:	6600                	.2byte	0x6600
 12e:	616d726f          	jal	tp,d7744 <tohost+0xb773c>
 132:	0074                	addi	a3,sp,12
 134:	7865                	lui	a6,0xffff9
 136:	6574                	.2byte	0x6574
 138:	6e72                	.2byte	0x6e72
 13a:	6c61                	lui	s8,0x18
 13c:	695f 7172 685f      	.byte	0x5f, 0x69, 0x72, 0x71, 0x5f, 0x68
 142:	6e61                	lui	t3,0x18
 144:	6c64                	.2byte	0x6c64
 146:	7265                	lui	tp,0xffff9
 148:	6c00                	.2byte	0x6c00
 14a:	20676e6f          	jal	t3,76350 <tohost+0x56348>
 14e:	6f6c                	.2byte	0x6f6c
 150:	676e                	.2byte	0x676e
 152:	7520                	.2byte	0x7520
 154:	736e                	.2byte	0x736e
 156:	6769                	lui	a4,0x1a
 158:	656e                	.2byte	0x656e
 15a:	2064                	.2byte	0x2064
 15c:	6e69                	lui	t3,0x1a
 15e:	0074                	addi	a3,sp,12
 160:	7270                	.2byte	0x7270
 162:	6e69                	lui	t3,0x1a
 164:	5f74                	lw	a3,124(a4)
 166:	7562                	.2byte	0x7562
 168:	0066                	c.slli	zero,0x19
 16a:	6572                	.2byte	0x6572
 16c:	756d                	lui	a0,0xffffb
 16e:	3031                	jal	fffff97a <fromhost+0x1ffef96a>
 170:	7500                	.2byte	0x7500
 172:	7261                	lui	tp,0xffff8
 174:	5f74                	lw	a3,124(a4)
 176:	5f746573          	csrrsi	a0,0x5f7,8
 17a:	00676663          	bltu	a4,t1,186 <_min_stack-0x1e7a>
 17e:	6f6c                	.2byte	0x6f6c
 180:	676e                	.2byte	0x676e
 182:	6c20                	.2byte	0x6c20
 184:	20676e6f          	jal	t3,7638a <tohost+0x56382>
 188:	6e69                	lui	t3,0x1a
 18a:	0074                	addi	a3,sp,12
 18c:	7071                	c.lui	zero,0xffffc
 18e:	6972                	.2byte	0x6972
 190:	746e                	.2byte	0x746e
 192:	7000                	.2byte	0x7000
 194:	6972                	.2byte	0x6972
 196:	746e                	.2byte	0x746e
 198:	0066                	c.slli	zero,0x19
 19a:	6175                	addi	sp,sp,368
 19c:	7472                	.2byte	0x7472
 19e:	735f 6e65 0064      	.byte	0x5f, 0x73, 0x65, 0x6e, 0x64, 0x00
 1a4:	726f6873          	csrrsi	a6,0x726,30
 1a8:	2074                	.2byte	0x2074
 1aa:	6e69                	lui	t3,0x1a
 1ac:	0074                	addi	a3,sp,12
 1ae:	656c                	.2byte	0x656c
 1b0:	6274                	.2byte	0x6274
 1b2:	7361                	lui	t1,0xffff8
 1b4:	0065                	c.nop	25
 1b6:	6f6c                	.2byte	0x6f6c
 1b8:	676e                	.2byte	0x676e
 1ba:	6420                	.2byte	0x6420
 1bc:	6c62756f          	jal	a0,27882 <tohost+0x787a>
 1c0:	0065                	c.nop	25
 1c2:	6175                	addi	sp,sp,368
 1c4:	7472                	.2byte	0x7472
 1c6:	735f 6e65 6364      	.byte	0x5f, 0x73, 0x65, 0x6e, 0x64, 0x63
 1cc:	6168                	.2byte	0x6168
 1ce:	0072                	c.slli	zero,0x1c
 1d0:	7071                	c.lui	zero,0xffffc
 1d2:	6972                	.2byte	0x6972
 1d4:	746e                	.2byte	0x746e
 1d6:	61700073          	.4byte	0x61700073
 1da:	6972                	.2byte	0x6972
 1dc:	7974                	.2byte	0x7974
 1de:	7000                	.2byte	0x7000
 1e0:	696c                	.2byte	0x696c
 1e2:	72705f63          	blez	t2,920 <_min_stack-0x16e0>
 1e6:	6f69                	lui	t5,0x1a
 1e8:	7600                	.2byte	0x7600
 1ea:	6c61                	lui	s8,0x18
 1ec:	315f 7600 6c61      	.byte	0x5f, 0x31, 0x00, 0x76, 0x61, 0x6c
 1f2:	325f 6500 6e64      	.byte	0x5f, 0x32, 0x00, 0x65, 0x64, 0x6e
 1f8:	655f 616e 6c62      	.byte	0x5f, 0x65, 0x6e, 0x61, 0x62, 0x6c
 1fe:	0065                	c.nop	25
 200:	6c70                	.2byte	0x6c70
 202:	6369                	lui	t1,0x1a
 204:	635f 6568 6b63      	.byte	0x5f, 0x63, 0x68, 0x65, 0x63, 0x6b
 20a:	6c00                	.2byte	0x6c00
 20c:	5f64616f          	jal	sp,46802 <tohost+0x267fa>
 210:	73756c63          	bltu	a0,s7,948 <_min_stack-0x16b8>
 214:	6574                	.2byte	0x6574
 216:	5f72                	lw	t5,60(sp)
 218:	65646f63          	bltu	s0,s6,876 <_min_stack-0x178a>
 21c:	6200                	.2byte	0x6200
 21e:	7561                	lui	a0,0xffff8
 220:	5f64                	lw	s1,124(a4)
 222:	6172                	.2byte	0x6172
 224:	6574                	.2byte	0x6574
 226:	6d00                	.2byte	0x6d00
 228:	6f62                	.2byte	0x6f62
 22a:	5f78                	lw	a4,124(a4)
 22c:	6469                	lui	s0,0x1a
 22e:	5f00                	lw	s0,56(a4)
 230:	755f 6e69 3174      	.byte	0x5f, 0x75, 0x69, 0x6e, 0x74, 0x31
 236:	5f36                	lw	t5,108(sp)
 238:	0074                	addi	a3,sp,12
 23a:	616d                	addi	sp,sp,240
 23c:	6e69                	lui	t3,0x1a
 23e:	7000                	.2byte	0x7000
 240:	725f 6765 0031      	.byte	0x5f, 0x72, 0x65, 0x67, 0x31, 0x00
 246:	5f70                	lw	a2,124(a4)
 248:	6572                	.2byte	0x6572
 24a:	70003267          	.4byte	0x70003267
 24e:	725f 6765 0033      	.byte	0x5f, 0x72, 0x65, 0x67, 0x33, 0x00
 254:	5f70                	lw	a2,124(a4)
 256:	6572                	.2byte	0x6572
 258:	70003467          	.4byte	0x70003467
 25c:	725f 6765 0035      	.byte	0x5f, 0x72, 0x65, 0x67, 0x35, 0x00
 262:	6c70                	.2byte	0x6c70
 264:	6369                	lui	t1,0x1a
 266:	655f 006e 6574      	.byte	0x5f, 0x65, 0x6e, 0x00, 0x74, 0x65
 26c:	665f7473          	csrrci	s0,0x665,30
 270:	6572                	.2byte	0x6572
 272:	0071                	c.nop	28
 274:	6566                	.2byte	0x6566
 276:	6374                	.2byte	0x6374
 278:	5f68                	lw	a0,124(a4)
 27a:	6e65                	lui	t3,0x19
 27c:	7000                	.2byte	0x7000
 27e:	725f 6765 2f00      	.byte	0x5f, 0x72, 0x65, 0x67, 0x00, 0x2f
 284:	61726373          	csrrsi	t1,0x617,4
 288:	6374                	.2byte	0x6374
 28a:	3268                	.2byte	0x3268
 28c:	69636d2f          	.4byte	0x69636d2f
 290:	6e61                	lui	t3,0x18
 292:	2f69                	jal	a2c <_min_stack-0x15d4>
 294:	6c61                	lui	s8,0x18
 296:	72716173          	csrrsi	sp,0x727,2
 29a:	322d                	jal	fffffbc4 <fromhost+0x1ffefbb4>
 29c:	2d6c6d2f          	.4byte	0x2d6c6d2f
 2a0:	2f696663          	bltu	s2,s6,58c <_min_stack-0x1a74>
 2a4:	632d746f          	jal	s0,d78d6 <tohost+0xb78ce>
 2a8:	756c                	.2byte	0x756c
 2aa:	72657473          	csrrci	s0,0x726,10
 2ae:	2f77732f          	.4byte	0x2f77732f
 2b2:	6574                	.2byte	0x6574
 2b4:	2f737473          	csrrci	s0,0x2f7,6
 2b8:	73756c63          	bltu	a0,s7,9f0 <_min_stack-0x1610>
 2bc:	6574                	.2byte	0x6574
 2be:	2f72                	.2byte	0x2f72
 2c0:	6d6d6f63          	bltu	s10,s6,99e <_min_stack-0x1662>
 2c4:	632f6e6f          	jal	t3,f68f6 <tohost+0xd68ee>
 2c8:	7472                	.2byte	0x7472
 2ca:	2e30                	.2byte	0x2e30
 2cc:	732f0053          	.4byte	0x732f0053
 2d0:	74617263          	bgeu	sp,t1,a14 <_min_stack-0x15ec>
 2d4:	2f326863          	bltu	tp,s3,5c4 <_min_stack-0x1a3c>
 2d8:	636d                	lui	t1,0x1b
 2da:	6169                	addi	sp,sp,208
 2dc:	696e                	.2byte	0x696e
 2de:	736c612f          	.4byte	0x736c612f
 2e2:	7161                	addi	sp,sp,-432
 2e4:	2d72                	.2byte	0x2d72
 2e6:	2f32                	.2byte	0x2f32
 2e8:	6c6d                	lui	s8,0x1b
 2ea:	632d                	lui	t1,0xb
 2ec:	6966                	.2byte	0x6966
 2ee:	2d746f2f          	.4byte	0x2d746f2f
 2f2:	73756c63          	bltu	a0,s7,a2a <_min_stack-0x15d6>
 2f6:	6574                	.2byte	0x6574
 2f8:	2f72                	.2byte	0x2f72
 2fa:	742f7773          	csrrci	a4,0x742,30
 2fe:	7365                	lui	t1,0xffff9
 300:	7374                	.2byte	0x7374
 302:	756c632f          	.4byte	0x756c632f
 306:	72657473          	csrrci	s0,0x726,10
 30a:	6f626d2f          	.4byte	0x6f626d2f
 30e:	5f78                	lw	a4,124(a4)
 310:	6574                	.2byte	0x6574
 312:	47007473          	csrrci	s0,0x470,0
 316:	554e                	lw	a0,240(sp)
 318:	4120                	lw	s0,64(a0)
 31a:	2e322053          	.4byte	0x2e322053
 31e:	33 38 00            	Address 0x000000000000031e is out of bounds.


Disassembly of section .debug_line_str:

00000000 <.debug_line_str>:
   0:	7263732f          	.4byte	0x7263732f
   4:	7461                	lui	s0,0xffff8
   6:	2f326863          	bltu	tp,s3,2f6 <_min_stack-0x1d0a>
   a:	636d                	lui	t1,0x1b
   c:	6169                	addi	sp,sp,208
   e:	696e                	.2byte	0x696e
  10:	736c612f          	.4byte	0x736c612f
  14:	7161                	addi	sp,sp,-432
  16:	2d72                	.2byte	0x2d72
  18:	2f32                	.2byte	0x2f32
  1a:	6c6d                	lui	s8,0x1b
  1c:	632d                	lui	t1,0xb
  1e:	6966                	.2byte	0x6966
  20:	2d746f2f          	.4byte	0x2d746f2f
  24:	73756c63          	bltu	a0,s7,75c <_min_stack-0x18a4>
  28:	6574                	.2byte	0x6574
  2a:	2f72                	.2byte	0x2f72
  2c:	742f7773          	csrrci	a4,0x742,30
  30:	7365                	lui	t1,0xffff9
  32:	7374                	.2byte	0x7374
  34:	756c632f          	.4byte	0x756c632f
  38:	72657473          	csrrci	s0,0x726,10
  3c:	6f626d2f          	.4byte	0x6f626d2f
  40:	5f78                	lw	a4,124(a4)
  42:	6574                	.2byte	0x6574
  44:	2f007473          	csrrci	s0,0x2f0,0
  48:	61726373          	csrrsi	t1,0x617,4
  4c:	6374                	.2byte	0x6374
  4e:	3268                	.2byte	0x3268
  50:	69636d2f          	.4byte	0x69636d2f
  54:	6e61                	lui	t3,0x18
  56:	2f69                	jal	7f0 <_min_stack-0x1810>
  58:	6c61                	lui	s8,0x18
  5a:	72716173          	csrrsi	sp,0x727,2
  5e:	322d                	jal	fffff988 <fromhost+0x1ffef978>
  60:	2d6c6d2f          	.4byte	0x2d6c6d2f
  64:	2f696663          	bltu	s2,s6,350 <_min_stack-0x1cb0>
  68:	632d746f          	jal	s0,d769a <tohost+0xb7692>
  6c:	756c                	.2byte	0x756c
  6e:	72657473          	csrrci	s0,0x726,10
  72:	2f77732f          	.4byte	0x2f77732f
  76:	6574                	.2byte	0x6574
  78:	2f737473          	csrrci	s0,0x2f7,6
  7c:	73756c63          	bltu	a0,s7,7b4 <_min_stack-0x184c>
  80:	6574                	.2byte	0x6574
  82:	2f72                	.2byte	0x2f72
  84:	6d6d6f63          	bltu	s10,s6,762 <_min_stack-0x189e>
  88:	752f6e6f          	jal	t3,f67da <tohost+0xd67d2>
  8c:	6974                	.2byte	0x6974
  8e:	736c                	.2byte	0x736c
  90:	632e                	.2byte	0x632e
  92:	2f00                	.2byte	0x2f00
  94:	61726373          	csrrsi	t1,0x617,4
  98:	6374                	.2byte	0x6374
  9a:	3268                	.2byte	0x3268
  9c:	69636d2f          	.4byte	0x69636d2f
  a0:	6e61                	lui	t3,0x18
  a2:	2f69                	jal	83c <_min_stack-0x17c4>
  a4:	6c61                	lui	s8,0x18
  a6:	72716173          	csrrsi	sp,0x727,2
  aa:	322d                	jal	fffff9d4 <fromhost+0x1ffef9c4>
  ac:	2d6c6d2f          	.4byte	0x2d6c6d2f
  b0:	2f696663          	bltu	s2,s6,39c <_min_stack-0x1c64>
  b4:	632d746f          	jal	s0,d76e6 <tohost+0xb76de>
  b8:	756c                	.2byte	0x756c
  ba:	72657473          	csrrci	s0,0x726,10
  be:	2f77732f          	.4byte	0x2f77732f
  c2:	6574                	.2byte	0x6574
  c4:	2f737473          	csrrci	s0,0x2f7,6
  c8:	73756c63          	bltu	a0,s7,800 <_min_stack-0x1800>
  cc:	6574                	.2byte	0x6574
  ce:	2f72                	.2byte	0x2f72
  d0:	6d6d6f63          	bltu	s10,s6,7ae <_min_stack-0x1852>
  d4:	2f006e6f          	jal	t3,63c4 <_min_stack+0x43c4>
  d8:	7375                	lui	t1,0xffffd
  da:	2f72                	.2byte	0x2f72
  dc:	6170                	.2byte	0x6170
  de:	722f6b63          	bltu	t5,sp,814 <_min_stack-0x17ec>
  e2:	7369                	lui	t1,0xffffa
  e4:	312d7663          	bgeu	s10,s2,3f0 <_min_stack-0x1c10>
  e8:	302e                	.2byte	0x302e
  ea:	6b2d                	lui	s6,0xb
  ec:	722f6667          	.4byte	0x722f6667
  f0:	7369                	lui	t1,0xffffa
  f2:	34367663          	bgeu	a2,gp,43e <_min_stack-0x1bc2>
  f6:	672d                	lui	a4,0xb
  f8:	312d6363          	bltu	s10,s2,3fe <_min_stack-0x1c02>
  fc:	2e31                	jal	418 <_min_stack-0x1be8>
  fe:	2e32                	.2byte	0x2e32
 100:	2f30                	.2byte	0x2f30
 102:	696c                	.2byte	0x696c
 104:	2f62                	.2byte	0x2f62
 106:	2f636367          	.4byte	0x2f636367
 10a:	6972                	.2byte	0x6972
 10c:	36766373          	csrrsi	t1,0x367,12
 110:	2d34                	.2byte	0x2d34
 112:	6e75                	lui	t3,0x1d
 114:	776f6e6b          	.4byte	0x776f6e6b
 118:	2d6e                	.2byte	0x2d6e
 11a:	6c65                	lui	s8,0x19
 11c:	2f66                	.2byte	0x2f66
 11e:	3131                	jal	fffffd2a <fromhost+0x1ffefd1a>
 120:	322e                	.2byte	0x322e
 122:	302e                	.2byte	0x302e
 124:	636e692f          	.4byte	0x636e692f
 128:	756c                	.2byte	0x756c
 12a:	6564                	.2byte	0x6564
 12c:	7300                	.2byte	0x7300
 12e:	6474                	.2byte	0x6474
 130:	7261                	lui	tp,0xffff8
 132:	00682e67          	.4byte	0x682e67
 136:	69647473          	csrrci	s0,0x696,8
 13a:	746e                	.2byte	0x746e
 13c:	672d                	lui	a4,0xb
 13e:	682e6363          	bltu	t3,sp,7c4 <_min_stack-0x183c>
 142:	6d00                	.2byte	0x6d00
 144:	6f62                	.2byte	0x6f62
 146:	5f78                	lw	a4,124(a4)
 148:	6574                	.2byte	0x6574
 14a:	632e7473          	csrrci	s0,0x632,28
 14e:	2f00                	.2byte	0x2f00
 150:	7375                	lui	t1,0xffffd
 152:	2f72                	.2byte	0x2f72
 154:	6170                	.2byte	0x6170
 156:	722f6b63          	bltu	t5,sp,88c <_min_stack-0x1774>
 15a:	7369                	lui	t1,0xffffa
 15c:	312d7663          	bgeu	s10,s2,468 <_min_stack-0x1b98>
 160:	302e                	.2byte	0x302e
 162:	6b2d                	lui	s6,0xb
 164:	722f6667          	.4byte	0x722f6667
 168:	7369                	lui	t1,0xffffa
 16a:	34367663          	bgeu	a2,gp,4b6 <_min_stack-0x1b4a>
 16e:	672d                	lui	a4,0xb
 170:	312d6363          	bltu	s10,s2,476 <_min_stack-0x1b8a>
 174:	2e31                	jal	490 <_min_stack-0x1b70>
 176:	2e32                	.2byte	0x2e32
 178:	2f30                	.2byte	0x2f30
 17a:	6972                	.2byte	0x6972
 17c:	36766373          	csrrsi	t1,0x367,12
 180:	2d34                	.2byte	0x2d34
 182:	6e75                	lui	t3,0x1d
 184:	776f6e6b          	.4byte	0x776f6e6b
 188:	2d6e                	.2byte	0x2d6e
 18a:	6c65                	lui	s8,0x19
 18c:	2f66                	.2byte	0x2f66
 18e:	2d737973          	csrrci	s2,0x2d7,6
 192:	6e69                	lui	t3,0x1a
 194:	64756c63          	bltu	a0,t2,7ec <_min_stack-0x1814>
 198:	2f65                	jal	950 <_min_stack-0x16b0>
 19a:	616d                	addi	sp,sp,240
 19c:	6e696863          	bltu	s2,t1,88c <_min_stack-0x1774>
 1a0:	0065                	c.nop	25
 1a2:	7273752f          	.4byte	0x7273752f
 1a6:	6361702f          	.4byte	0x6361702f
 1aa:	69722f6b          	.4byte	0x69722f6b
 1ae:	2d766373          	csrrsi	t1,0x2d7,12
 1b2:	2e31                	jal	4ce <_min_stack-0x1b32>
 1b4:	2d30                	.2byte	0x2d30
 1b6:	2f66676b          	.4byte	0x2f66676b
 1ba:	6972                	.2byte	0x6972
 1bc:	36766373          	csrrsi	t1,0x367,12
 1c0:	2d34                	.2byte	0x2d34
 1c2:	2d636367          	.4byte	0x2d636367
 1c6:	3131                	jal	fffffdd2 <fromhost+0x1ffefdc2>
 1c8:	322e                	.2byte	0x322e
 1ca:	302e                	.2byte	0x302e
 1cc:	7369722f          	.4byte	0x7369722f
 1d0:	34367663          	bgeu	a2,gp,51c <_min_stack-0x1ae4>
 1d4:	752d                	lui	a0,0xfffeb
 1d6:	6b6e                	.2byte	0x6b6e
 1d8:	6f6e                	.2byte	0x6f6e
 1da:	652d6e77          	.4byte	0x652d6e77
 1de:	666c                	.2byte	0x666c
 1e0:	7379732f          	.4byte	0x7379732f
 1e4:	692d                	lui	s2,0xb
 1e6:	636e                	.2byte	0x636e
 1e8:	756c                	.2byte	0x756c
 1ea:	6564                	.2byte	0x6564
 1ec:	7379732f          	.4byte	0x7379732f
 1f0:	2f00                	.2byte	0x2f00
 1f2:	7375                	lui	t1,0xffffd
 1f4:	2f72                	.2byte	0x2f72
 1f6:	6170                	.2byte	0x6170
 1f8:	722f6b63          	bltu	t5,sp,92e <_min_stack-0x16d2>
 1fc:	7369                	lui	t1,0xffffa
 1fe:	312d7663          	bgeu	s10,s2,50a <_min_stack-0x1af6>
 202:	302e                	.2byte	0x302e
 204:	6b2d                	lui	s6,0xb
 206:	722f6667          	.4byte	0x722f6667
 20a:	7369                	lui	t1,0xffffa
 20c:	34367663          	bgeu	a2,gp,558 <_min_stack-0x1aa8>
 210:	672d                	lui	a4,0xb
 212:	312d6363          	bltu	s10,s2,518 <_min_stack-0x1ae8>
 216:	2e31                	jal	532 <_min_stack-0x1ace>
 218:	2e32                	.2byte	0x2e32
 21a:	2f30                	.2byte	0x2f30
 21c:	6972                	.2byte	0x6972
 21e:	36766373          	csrrsi	t1,0x367,12
 222:	2d34                	.2byte	0x2d34
 224:	6e75                	lui	t3,0x1d
 226:	776f6e6b          	.4byte	0x776f6e6b
 22a:	2d6e                	.2byte	0x2d6e
 22c:	6c65                	lui	s8,0x19
 22e:	2f66                	.2byte	0x2f66
 230:	2d737973          	csrrci	s2,0x2d7,6
 234:	6e69                	lui	t3,0x1a
 236:	64756c63          	bltu	a0,t2,88e <_min_stack-0x1772>
 23a:	0065                	c.nop	25
 23c:	73756c63          	bltu	a0,s7,974 <_min_stack-0x168c>
 240:	6574                	.2byte	0x6574
 242:	5f72                	lw	t5,60(sp)
 244:	65646f63          	bltu	s0,s6,8a2 <_min_stack-0x175e>
 248:	682e                	.2byte	0x682e
 24a:	5f00                	lw	s0,56(a4)
 24c:	6564                	.2byte	0x6564
 24e:	6166                	.2byte	0x6166
 250:	6c75                	lui	s8,0x1d
 252:	5f74                	lw	a3,124(a4)
 254:	7974                	.2byte	0x7974
 256:	6570                	.2byte	0x6570
 258:	00682e73          	csrrs	t3,0x6,a6
 25c:	735f 6474 6e69      	.byte	0x5f, 0x73, 0x74, 0x64, 0x69, 0x6e
 262:	2e74                	.2byte	0x2e74
 264:	0068                	addi	a0,sp,12
 266:	69647473          	csrrci	s0,0x696,8
 26a:	00682e6f          	jal	t3,82270 <tohost+0x62268>
 26e:	7475                	lui	s0,0xffffd
 270:	6c69                	lui	s8,0x1a
 272:	00682e73          	csrrs	t3,0x6,a6
 276:	30747263          	bgeu	s0,t2,57a <_min_stack-0x1a86>
 27a:	532e                	lw	t1,232(sp)
	...

Disassembly of section .comment:

00000000 <.comment>:
   0:	3a434347          	.4byte	0x3a434347
   4:	2820                	.2byte	0x2820
   6:	736f7263          	bgeu	t5,s6,72a <_min_stack-0x18d6>
   a:	6f6f7473          	csrrci	s0,0x6f6,30
   e:	2d6c                	.2byte	0x2d6c
  10:	474e                	lw	a4,208(sp)
  12:	3120                	.2byte	0x3120
  14:	322e                	.2byte	0x322e
  16:	2e35                	jal	352 <_min_stack-0x1cae>
  18:	5f30                	lw	a2,120(a4)
  1a:	6372                	.2byte	0x6372
  1c:	2931                	jal	438 <_min_stack-0x1bc8>
  1e:	3120                	.2byte	0x3120
  20:	2e31                	jal	33c <_min_stack-0x1cc4>
  22:	2e32                	.2byte	0x2e32
  24:	0030                	addi	a2,sp,8

Disassembly of section .riscv.attributes:

00000000 <.riscv.attributes>:
   0:	3e41                	jal	fffffb90 <fromhost+0x1ffefb80>
   2:	0000                	unimp
   4:	7200                	.2byte	0x7200
   6:	7369                	lui	t1,0xffffa
   8:	01007663          	bgeu	zero,a6,14 <_min_stack-0x1fec>
   c:	0034                	addi	a3,sp,8
   e:	0000                	unimp
  10:	1004                	addi	s1,sp,32
  12:	7205                	lui	tp,0xfffe1
  14:	3376                	.2byte	0x3376
  16:	6932                	.2byte	0x6932
  18:	7032                	.2byte	0x7032
  1a:	5f31                	li	t5,-20
  1c:	326d                	jal	fffff9c6 <fromhost+0x1ffef9b6>
  1e:	3070                	.2byte	0x3070
  20:	635f 7032 5f30      	.byte	0x5f, 0x63, 0x32, 0x70, 0x30, 0x5f
  26:	697a                	.2byte	0x697a
  28:	32727363          	bgeu	tp,t2,34e <_min_stack-0x1cb2>
  2c:	3070                	.2byte	0x3070
  2e:	7a5f 6669 6e65      	.byte	0x5f, 0x7a, 0x69, 0x66, 0x65, 0x6e
  34:	32696563          	bltu	s2,t1,35e <_min_stack-0x1ca2>
  38:	3070                	.2byte	0x3070
  3a:	0800                	addi	s0,sp,16
  3c:	0a01                	addi	s4,s4,0
  3e:	0b              	Address 0x000000000000003e is out of bounds.


Disassembly of section .debug_frame:

00000000 <.debug_frame>:
   0:	000c                	.2byte	0xc
   2:	0000                	unimp
   4:	ffff                	.2byte	0xffff
   6:	ffff                	.2byte	0xffff
   8:	7c010003          	lb	zero,1984(sp)
   c:	0d01                	addi	s10,s10,0 # 19000 <_stack_len+0x11000>
   e:	0002                	c.slli64	zero
  10:	000c                	.2byte	0xc
  12:	0000                	unimp
  14:	0000                	unimp
  16:	0000                	unimp
  18:	0084                	addi	s1,sp,64
  1a:	e000                	.2byte	0xe000
  1c:	002e                	c.slli	zero,0xb
  1e:	0000                	unimp
  20:	000c                	.2byte	0xc
  22:	0000                	unimp
  24:	0000                	unimp
  26:	0000                	unimp
  28:	00b2                	slli	ra,ra,0xc
  2a:	e000                	.2byte	0xe000
  2c:	0026                	c.slli	zero,0x9
  2e:	0000                	unimp
  30:	000c                	.2byte	0xc
  32:	0000                	unimp
  34:	0000                	unimp
  36:	0000                	unimp
  38:	00d8                	addi	a4,sp,68
  3a:	e000                	.2byte	0xe000
  3c:	0012                	c.slli	zero,0x4
  3e:	0000                	unimp
  40:	000c                	.2byte	0xc
  42:	0000                	unimp
  44:	0000                	unimp
  46:	0000                	unimp
  48:	00ea                	slli	ra,ra,0x1a
  4a:	e000                	.2byte	0xe000
  4c:	0010                	.2byte	0x10
  4e:	0000                	unimp
  50:	0030                	addi	a2,sp,8
  52:	0000                	unimp
  54:	0000                	unimp
  56:	0000                	unimp
  58:	00fa                	slli	ra,ra,0x1e
  5a:	e000                	.2byte	0xe000
  5c:	00a6                	slli	ra,ra,0x9
  5e:	0000                	unimp
  60:	0e42                	slli	t3,t3,0x10
  62:	4c20                	lw	s0,88(s0)
  64:	0288                	addi	a0,sp,320
  66:	0389                	addi	t2,t2,2
  68:	0694                	addi	a3,sp,832
  6a:	0181                	addi	gp,gp,0
  6c:	0492                	slli	s1,s1,0x4
  6e:	82020593          	addi	a1,tp,-2016 # fffe0820 <fromhost+0x1ffd0810>
  72:	c10a                	sw	sp,128(sp)
  74:	c842                	sw	a6,16(sp)
  76:	c942                	sw	a6,144(sp)
  78:	d242                	sw	a6,36(sp)
  7a:	d342                	sw	a6,164(sp)
  7c:	d442                	sw	a6,40(sp)
  7e:	0e42                	slli	t3,t3,0x10
  80:	4200                	lw	s0,0(a2)
  82:	0024000b          	.4byte	0x24000b
  86:	0000                	unimp
  88:	0000                	unimp
  8a:	0000                	unimp
  8c:	01a0                	addi	s0,sp,200
  8e:	e000                	.2byte	0xe000
  90:	0102                	c.slli64	sp
  92:	0000                	unimp
  94:	0e42                	slli	t3,t3,0x10
  96:	4640                	lw	s0,12(a2)
  98:	0389                	addi	t2,t2,2
  9a:	0181                	addi	gp,gp,0
  9c:	0288                	addi	a0,sp,320
  9e:	0a58                	addi	a4,sp,276
  a0:	42c1                	li	t0,16
  a2:	42c8                	lw	a0,4(a3)
  a4:	42c9                	li	t0,18
  a6:	000e                	c.slli	zero,0x3
  a8:	0b42                	slli	s6,s6,0x10
  aa:	0000                	unimp
  ac:	000c                	.2byte	0xc
  ae:	0000                	unimp
  b0:	0000                	unimp
  b2:	0000                	unimp
  b4:	02a2                	slli	t0,t0,0x8
  b6:	e000                	.2byte	0xe000
  b8:	000e                	c.slli	zero,0x3
  ba:	0000                	unimp
  bc:	001c                	.2byte	0x1c
  be:	0000                	unimp
  c0:	0000                	unimp
  c2:	0000                	unimp
  c4:	02b0                	addi	a2,sp,328
  c6:	e000                	.2byte	0xe000
  c8:	0018                	.2byte	0x18
  ca:	0000                	unimp
  cc:	0e42                	slli	t3,t3,0x10
  ce:	4210                	lw	a2,0(a2)
  d0:	0288                	addi	a0,sp,320
  d2:	8148                	.2byte	0x8148
  d4:	4401                	li	s0,0
  d6:	44c1                	li	s1,16
  d8:	42c8                	lw	a0,4(a3)
  da:	000e                	c.slli	zero,0x3
  dc:	0040                	addi	s0,sp,4
  de:	0000                	unimp
  e0:	0000                	unimp
  e2:	0000                	unimp
  e4:	02c8                	addi	a0,sp,324
  e6:	e000                	.2byte	0xe000
  e8:	0158                	addi	a4,sp,132
  ea:	0000                	unimp
  ec:	0e42                	slli	t3,t3,0x10
  ee:	4260                	lw	s0,68(a2)
  f0:	0a88                	addi	a0,sp,336
  f2:	8954                	.2byte	0x8954
  f4:	930c920b          	.4byte	0x930c920b
  f8:	940d                	srai	s0,s0,0x23
  fa:	950e                	add	a0,a0,gp
  fc:	9710960f          	.4byte	0x9710960f
 100:	8111                	srli	a0,a0,0x4
 102:	9809                	andi	s0,s0,-30
 104:	7212                	.2byte	0x7212
 106:	c10a                	sw	sp,128(sp)
 108:	c842                	sw	a6,16(sp)
 10a:	c942                	sw	a6,144(sp)
 10c:	d242                	sw	a6,36(sp)
 10e:	d342                	sw	a6,164(sp)
 110:	d442                	sw	a6,40(sp)
 112:	d542                	sw	a6,168(sp)
 114:	d642                	sw	a6,44(sp)
 116:	d842                	sw	a6,48(sp)
 118:	d744                	sw	s1,44(a4)
 11a:	0e42                	slli	t3,t3,0x10
 11c:	4200                	lw	s0,0(a2)
 11e:	000c000b          	.4byte	0xc000b
 122:	0000                	unimp
 124:	0000                	unimp
 126:	0000                	unimp
 128:	0420                	addi	s0,sp,520
 12a:	e000                	.2byte	0xe000
 12c:	000a                	c.slli	zero,0x2
 12e:	0000                	unimp
 130:	0024                	addi	s1,sp,8
 132:	0000                	unimp
 134:	0000                	unimp
 136:	0000                	unimp
 138:	042a                	slli	s0,s0,0xa
 13a:	e000                	.2byte	0xe000
 13c:	002c                	addi	a1,sp,8
 13e:	0000                	unimp
 140:	0e42                	slli	t3,t3,0x10
 142:	4610                	lw	a2,8(a2)
 144:	0288                	addi	a0,sp,320
 146:	0389                	addi	t2,t2,2
 148:	0181                	addi	gp,gp,0
 14a:	0a54                	addi	a3,sp,276
 14c:	44c1                	li	s1,16
 14e:	42c8                	lw	a0,4(a3)
 150:	42c9                	li	t0,18
 152:	000e                	c.slli	zero,0x3
 154:	0b42                	slli	s6,s6,0x10
 156:	0000                	unimp
 158:	000c                	.2byte	0xc
 15a:	0000                	unimp
 15c:	0000                	unimp
 15e:	0000                	unimp
 160:	0456                	slli	s0,s0,0x15
 162:	e000                	.2byte	0xe000
 164:	0004                	.2byte	0x4
 166:	0000                	unimp
 168:	000c                	.2byte	0xc
 16a:	0000                	unimp
 16c:	ffff                	.2byte	0xffff
 16e:	ffff                	.2byte	0xffff
 170:	7c010003          	lb	zero,1984(sp)
 174:	0d01                	addi	s10,s10,0
 176:	0002                	c.slli64	zero
 178:	000c                	.2byte	0xc
 17a:	0000                	unimp
 17c:	0168                	addi	a0,sp,140
 17e:	0000                	unimp
 180:	045a                	slli	s0,s0,0x16
 182:	e000                	.2byte	0xe000
 184:	1f58                	addi	a4,sp,948
 186:	0000                	unimp
 188:	0024                	addi	s1,sp,8
 18a:	0000                	unimp
 18c:	0168                	addi	a0,sp,140
 18e:	0000                	unimp
 190:	246a                	.2byte	0x246a
 192:	e000                	.2byte	0xe000
 194:	00c0                	addi	s0,sp,68
 196:	0000                	unimp
 198:	0e42                	slli	t3,t3,0x10
 19a:	4c10                	lw	a2,24(s0)
 19c:	0181                	addi	gp,gp,0
 19e:	0288                	addi	a0,sp,320
 1a0:	0389                	addi	t2,t2,2
 1a2:	9802                	jalr	a6
 1a4:	c10a                	sw	sp,128(sp)
 1a6:	c844                	sw	s1,20(s0)
 1a8:	c942                	sw	a6,144(sp)
 1aa:	0e42                	slli	t3,t3,0x10
 1ac:	4200                	lw	s0,0(a2)
 1ae:	0024000b          	.4byte	0x24000b
 1b2:	0000                	unimp
 1b4:	0168                	addi	a0,sp,140
 1b6:	0000                	unimp
 1b8:	23b2                	.2byte	0x23b2
 1ba:	e000                	.2byte	0xe000
 1bc:	0034                	addi	a3,sp,8
 1be:	0000                	unimp
 1c0:	0e42                	slli	t3,t3,0x10
 1c2:	4810                	lw	a2,16(s0)
 1c4:	038e                	slli	t2,t2,0x3
 1c6:	018c048f          	.4byte	0x18c048f
 1ca:	028d                	addi	t0,t0,3
 1cc:	cc5e                	sw	s7,24(sp)
 1ce:	cd42                	sw	a6,152(sp)
 1d0:	ce42                	sw	a6,28(sp)
 1d2:	cf42                	sw	a6,156(sp)
 1d4:	0e42                	slli	t3,t3,0x10
	...
