
alsaqr_boot_dual_core_chain.elf:     file format elf32-littleriscv
architecture: riscv:rv32, flags 0x00000112:
EXEC_P, HAS_SYMS, D_PAGED
start address 0xe0000080

Sections:
Idx Name          Size      VMA       LMA       File off  Algn
  0 .vectors      00000084  e0000000  e0000000  00001000  2**0
                  CONTENTS, ALLOC, LOAD, READONLY, CODE
  1 .text         00000508  e0000084  e0000084  00001084  2**1
                  CONTENTS, ALLOC, LOAD, READONLY, CODE
  2 .rodata       00000040  e000058c  e000058c  0000158c  2**2
                  CONTENTS, ALLOC, LOAD, READONLY, DATA
  3 .data         00000010  e00005cc  e00005cc  000015cc  2**2
                  CONTENTS, ALLOC, LOAD, DATA
  4 .bss          00000000  e00005dc  e00005dc  000015dc  2**0
                  ALLOC
  5 .logs.fields  00000000  e00005dc  e00005dc  000015dc  2**0
                  CONTENTS
  6 .stack        00002000  e0008000  e0008000  00002000  2**0
                  ALLOC
  7 .debug_frame  0000029c  00000000  00000000  000015dc  2**2
                  CONTENTS, READONLY, DEBUGGING
  8 .debug_info   00000b1a  00000000  00000000  00001878  2**0
                  CONTENTS, READONLY, DEBUGGING
  9 .debug_abbrev 00000453  00000000  00000000  00002392  2**0
                  CONTENTS, READONLY, DEBUGGING
 10 .debug_loc    00000abd  00000000  00000000  000027e5  2**0
                  CONTENTS, READONLY, DEBUGGING
 11 .debug_aranges 00000070  00000000  00000000  000032a8  2**3
                  CONTENTS, READONLY, DEBUGGING
 12 .debug_ranges 00000158  00000000  00000000  00003318  2**3
                  CONTENTS, READONLY, DEBUGGING
 13 .debug_line   00000869  00000000  00000000  00003470  2**0
                  CONTENTS, READONLY, DEBUGGING
 14 .debug_str    0000030e  00000000  00000000  00003cd9  2**0
                  CONTENTS, READONLY, DEBUGGING
 15 .comment      0000001a  00000000  00000000  00003fe7  2**0
                  CONTENTS, READONLY
 16 .Pulp_Chip.Info 0000004e  00000000  00000000  00004001  2**0
                  CONTENTS, READONLY

Disassembly of section .vectors:

e0000000 <_vectors_start>:
  .option norvc;
  
  .org 0x00
  .rept 10
  jal x0, default_exc_handler
  .endr
e0000000:	4840006f          	j	e0000484 <default_exc_handler>
e0000004:	4800006f          	j	e0000484 <default_exc_handler>
e0000008:	47c0006f          	j	e0000484 <default_exc_handler>
e000000c:	4780006f          	j	e0000484 <default_exc_handler>
e0000010:	4740006f          	j	e0000484 <default_exc_handler>
e0000014:	4700006f          	j	e0000484 <default_exc_handler>
e0000018:	46c0006f          	j	e0000484 <default_exc_handler>
e000001c:	4680006f          	j	e0000484 <default_exc_handler>
e0000020:	4640006f          	j	e0000484 <default_exc_handler>
e0000024:	4600006f          	j	e0000484 <default_exc_handler>
  
  jal x0, default_exc_handler
e0000028:	45c0006f          	j	e0000484 <default_exc_handler>
  
  jal x0, external_irq_handler
e000002c:	42a0006f          	j	e0000456 <external_irq_handler>

  .org 0x30
  .rept 18
  jal x0, default_exc_handler
  .endr
e0000030:	4540006f          	j	e0000484 <default_exc_handler>
e0000034:	4500006f          	j	e0000484 <default_exc_handler>
e0000038:	44c0006f          	j	e0000484 <default_exc_handler>
e000003c:	4480006f          	j	e0000484 <default_exc_handler>
e0000040:	4440006f          	j	e0000484 <default_exc_handler>
e0000044:	4400006f          	j	e0000484 <default_exc_handler>
e0000048:	43c0006f          	j	e0000484 <default_exc_handler>
e000004c:	4380006f          	j	e0000484 <default_exc_handler>
e0000050:	4340006f          	j	e0000484 <default_exc_handler>
e0000054:	4300006f          	j	e0000484 <default_exc_handler>
e0000058:	42c0006f          	j	e0000484 <default_exc_handler>
e000005c:	4280006f          	j	e0000484 <default_exc_handler>
e0000060:	4240006f          	j	e0000484 <default_exc_handler>
e0000064:	4200006f          	j	e0000484 <default_exc_handler>
e0000068:	41c0006f          	j	e0000484 <default_exc_handler>
e000006c:	4180006f          	j	e0000484 <default_exc_handler>
e0000070:	4140006f          	j	e0000484 <default_exc_handler>
e0000074:	4100006f          	j	e0000484 <default_exc_handler>
  jal x0, default_exc_handler
e0000078:	40c0006f          	j	e0000484 <default_exc_handler>
  jal x0, default_exc_handler
e000007c:	4080006f          	j	e0000484 <default_exc_handler>


  // reset vector
  .org 0x80
  jal x0, reset_handler
e0000080:	4080006f          	j	e0000488 <reset_handler>

Disassembly of section .text:

e0000084 <uart_set_cfg>:
}


void uart_set_cfg(int parity, uint16_t clk_counter) {
  unsigned int i;
  *(volatile unsigned int*)(UART_REG_LCR) = 0x83; //sets 8N1 and set DLAB to 1
e0000084:	400007b7          	lui	a5,0x40000
e0000088:	08300713          	li	a4,131
e000008c:	c7d8                	sw	a4,12(a5)
  *(volatile unsigned int*)(UART_REG_DLM) = (clk_counter >> 8) & 0xFF;
e000008e:	0085d713          	srli	a4,a1,0x8
e0000092:	c3d8                	sw	a4,4(a5)
  *(volatile unsigned int*)(UART_REG_DLL) =  clk_counter       & 0xFF;
e0000094:	0ff5f593          	andi	a1,a1,255
e0000098:	c38c                	sw	a1,0(a5)
  *(volatile unsigned int*)(UART_REG_FCR) = 0xA7; //enables 16byte FIFO and clear FIFOs
e000009a:	0a700713          	li	a4,167
e000009e:	c798                	sw	a4,8(a5)
  *(volatile unsigned int*)(UART_REG_LCR) = 0x03; //sets 8N1 and set DLAB to 0
e00000a0:	470d                	li	a4,3
e00000a2:	c7d8                	sw	a4,12(a5)

  *(volatile unsigned int*)(UART_REG_IER) = ((*(volatile unsigned int*)(UART_REG_IER)) & 0xF0) | 0x02; // set IER (interrupt enable register) on UART
e00000a4:	43d8                	lw	a4,4(a5)
e00000a6:	0f077713          	andi	a4,a4,240
e00000aa:	00276713          	ori	a4,a4,2
e00000ae:	c3d8                	sw	a4,4(a5)
}
e00000b0:	8082                	ret

e00000b2 <uart_send>:

  while(len > 0) {
    // process this in batches of 16 bytes to actually use the FIFO in the UART

    // wait until there is space in the fifo
    while( (*(volatile unsigned int*)(UART_REG_LSR) & 0x20) == 0);
e00000b2:	40000737          	lui	a4,0x40000
  while(len > 0) {
e00000b6:	e191                	bnez	a1,e00000ba <uart_send+0x8>
      *(volatile unsigned int*)(UART_REG_THR) = *str++;

      len--;
    }
  }
}
e00000b8:	8082                	ret
    while( (*(volatile unsigned int*)(UART_REG_LSR) & 0x20) == 0);
e00000ba:	4b5c                	lw	a5,20(a4)
e00000bc:	0207f793          	andi	a5,a5,32
e00000c0:	dfed                	beqz	a5,e00000ba <uart_send+0x8>
e00000c2:	04050793          	addi	a5,a0,64
      *(volatile unsigned int*)(UART_REG_THR) = *str++;
e00000c6:	0505                	addi	a0,a0,1
e00000c8:	fff54683          	lbu	a3,-1(a0)
      len--;
e00000cc:	15fd                	addi	a1,a1,-1
      *(volatile unsigned int*)(UART_REG_THR) = *str++;
e00000ce:	c314                	sw	a3,0(a4)
    for(i = 0; (i < UART_FIFO_DEPTH) && (len > 0); i++) {
e00000d0:	fef503e3          	beq	a0,a5,e00000b6 <uart_send+0x4>
e00000d4:	f9ed                	bnez	a1,e00000c6 <uart_send+0x14>
e00000d6:	8082                	ret

e00000d8 <uart_getchar>:

char uart_getchar() {
  while((*((volatile int*)UART_REG_LSR) & 0x1) != 0x1);
e00000d8:	40000737          	lui	a4,0x40000
e00000dc:	4b5c                	lw	a5,20(a4)
e00000de:	8b85                	andi	a5,a5,1
e00000e0:	dff5                	beqz	a5,e00000dc <uart_getchar+0x4>

  return *(volatile int*)UART_REG_RBR;
e00000e2:	4308                	lw	a0,0(a4)
}
e00000e4:	0ff57513          	andi	a0,a0,255
e00000e8:	8082                	ret

e00000ea <uart_sendchar>:

void uart_sendchar(const char c) {
  // wait until there is space in the fifo
  while( (*(volatile unsigned int*)(UART_REG_LSR) & 0x20) == 0);
e00000ea:	40000737          	lui	a4,0x40000
e00000ee:	4b5c                	lw	a5,20(a4)
e00000f0:	0207f793          	andi	a5,a5,32
e00000f4:	dfed                	beqz	a5,e00000ee <uart_sendchar+0x4>

  // load FIFO
  *(volatile unsigned int*)(UART_REG_THR) = c;
e00000f6:	c308                	sw	a0,0(a4)
}
e00000f8:	8082                	ret

e00000fa <qprints.constprop.2>:
  }
  else
    putchar((char)c);
}

static int qprints(char **out, const char *string, int width, int pad)
e00000fa:	1101                	addi	sp,sp,-32
e00000fc:	cc22                	sw	s0,24(sp)
e00000fe:	ca26                	sw	s1,20(sp)
e0000100:	c84a                	sw	s2,16(sp)
e0000102:	ce06                	sw	ra,28(sp)
e0000104:	c64e                	sw	s3,12(sp)
e0000106:	c452                	sw	s4,8(sp)
e0000108:	84aa                	mv	s1,a0
e000010a:	842e                	mv	s0,a1
{
  register int pc = 0, padchar = ' ';
e000010c:	02000913          	li	s2,32

  if (width > 0) {
e0000110:	02b05463          	blez	a1,e0000138 <qprints.constprop.2+0x3e>
e0000114:	87aa                	mv	a5,a0
e0000116:	a011                	j	e000011a <qprints.constprop.2+0x20>
    register int len = 0;
    register const char *ptr;
    for (ptr = string; *ptr; ++ptr) ++len;
e0000118:	0785                	addi	a5,a5,1
e000011a:	0007c683          	lbu	a3,0(a5) # 40000000 <tohost+0x3ffdfff8>
e000011e:	40978733          	sub	a4,a5,s1
e0000122:	fafd                	bnez	a3,e0000118 <qprints.constprop.2+0x1e>
    if (len >= width) width = 0;
e0000124:	04875663          	ble	s0,a4,e0000170 <qprints.constprop.2+0x76>
    else width -= len;
e0000128:	8c19                	sub	s0,s0,a4
    if (pad & PAD_ZERO) padchar = '0';
e000012a:	00267793          	andi	a5,a2,2
  register int pc = 0, padchar = ' ';
e000012e:	02000913          	li	s2,32
    if (pad & PAD_ZERO) padchar = '0';
e0000132:	c399                	beqz	a5,e0000138 <qprints.constprop.2+0x3e>
e0000134:	03000913          	li	s2,48
  }
  if (!(pad & PAD_RIGHT)) {
e0000138:	8a05                	andi	a2,a2,1
e000013a:	ca21                	beqz	a2,e000018a <qprints.constprop.2+0x90>
  register int pc = 0, padchar = ' ';
e000013c:	4781                	li	a5,0
e000013e:	409789b3          	sub	s3,a5,s1
    for ( ; width > 0; --width) {
      qprintchar (out, padchar);
      ++pc;
    }
  }
  for ( ; *string ; ++string) {
e0000142:	0004c503          	lbu	a0,0(s1)
e0000146:	01348a33          	add	s4,s1,s3
e000014a:	e521                	bnez	a0,e0000192 <qprints.constprop.2+0x98>
e000014c:	84a2                	mv	s1,s0
  uart_sendchar(s);
e000014e:	0ff97913          	andi	s2,s2,255
    qprintchar (out, *string);
    ++pc;
  }
  for ( ; width > 0; --width) {
e0000152:	04904363          	bgtz	s1,e0000198 <qprints.constprop.2+0x9e>
    qprintchar (out, padchar);
    ++pc;
  }

  return pc;
e0000156:	00045363          	bgez	s0,e000015c <qprints.constprop.2+0x62>
e000015a:	4401                	li	s0,0
}
e000015c:	01440533          	add	a0,s0,s4
e0000160:	40f2                	lw	ra,28(sp)
e0000162:	4462                	lw	s0,24(sp)
e0000164:	44d2                	lw	s1,20(sp)
e0000166:	4942                	lw	s2,16(sp)
e0000168:	49b2                	lw	s3,12(sp)
e000016a:	4a22                	lw	s4,8(sp)
e000016c:	6105                	addi	sp,sp,32
e000016e:	8082                	ret
    if (len >= width) width = 0;
e0000170:	4401                	li	s0,0
e0000172:	bf65                	j	e000012a <qprints.constprop.2+0x30>
  uart_sendchar(s);
e0000174:	8552                	mv	a0,s4
e0000176:	3f95                	jal	e00000ea <uart_sendchar>
    for ( ; width > 0; --width) {
e0000178:	19fd                	addi	s3,s3,-1
e000017a:	ff304de3          	bgtz	s3,e0000174 <qprints.constprop.2+0x7a>
e000017e:	87a2                	mv	a5,s0
e0000180:	00045363          	bgez	s0,e0000186 <qprints.constprop.2+0x8c>
e0000184:	4781                	li	a5,0
e0000186:	8c1d                	sub	s0,s0,a5
e0000188:	bf5d                	j	e000013e <qprints.constprop.2+0x44>
  if (!(pad & PAD_RIGHT)) {
e000018a:	89a2                	mv	s3,s0
  uart_sendchar(s);
e000018c:	0ff97a13          	andi	s4,s2,255
e0000190:	b7ed                	j	e000017a <qprints.constprop.2+0x80>
e0000192:	3fa1                	jal	e00000ea <uart_sendchar>
  for ( ; *string ; ++string) {
e0000194:	0485                	addi	s1,s1,1
e0000196:	b775                	j	e0000142 <qprints.constprop.2+0x48>
  uart_sendchar(s);
e0000198:	854a                	mv	a0,s2
e000019a:	3f81                	jal	e00000ea <uart_sendchar>
  for ( ; width > 0; --width) {
e000019c:	14fd                	addi	s1,s1,-1
e000019e:	bf55                	j	e0000152 <qprints.constprop.2+0x58>

e00001a0 <qprinti.constprop.1>:

static int qprinti(char **out, int i, int b, int sg, int width, int pad, char letbase)
e00001a0:	7139                	addi	sp,sp,-64
e00001a2:	da26                	sw	s1,52(sp)
e00001a4:	de06                	sw	ra,60(sp)
e00001a6:	dc22                	sw	s0,56(sp)
e00001a8:	84b2                	mv	s1,a2
e00001aa:	863a                	mv	a2,a4
  char print_buf[PRINT_BUF_LEN];
  register char *s;
  register int neg = 0, pc = 0;
  unsigned int t,u = i;

  if (i == 0)
e00001ac:	ed09                	bnez	a0,e00001c6 <qprinti.constprop.1+0x26>
  {
    print_buf[0] = '0';
e00001ae:	03000793          	li	a5,48
    print_buf[1] = '\0';
    return qprints (out, print_buf, width, pad);
e00001b2:	85b6                	mv	a1,a3
e00001b4:	0808                	addi	a0,sp,16
    print_buf[0] = '0';
e00001b6:	00f11823          	sh	a5,16(sp)
    return qprints (out, print_buf, width, pad);
e00001ba:	3781                	jal	e00000fa <qprints.constprop.2>
    {
      *--s = '-';
    }
  }
  return pc + qprints (out, s, width, pad);
}
e00001bc:	50f2                	lw	ra,60(sp)
e00001be:	5462                	lw	s0,56(sp)
e00001c0:	54d2                	lw	s1,52(sp)
e00001c2:	6121                	addi	sp,sp,64
e00001c4:	8082                	ret
  if (sg && b == 10 && i < 0)
e00001c6:	c881                	beqz	s1,e00001d6 <qprinti.constprop.1+0x36>
e00001c8:	4729                	li	a4,10
e00001ca:	06e59d63          	bne	a1,a4,e0000244 <qprinti.constprop.1+0xa4>
e00001ce:	06055b63          	bgez	a0,e0000244 <qprinti.constprop.1+0xa4>
    u = -i;
e00001d2:	40a00533          	neg	a0,a0
  *s = '\0';
e00001d6:	020107a3          	sb	zero,47(sp)
  if(b == 16) {
e00001da:	4741                	li	a4,16
  s = print_buf + PRINT_BUF_LEN-1;
e00001dc:	02f10413          	addi	s0,sp,47
  if(b == 16) {
e00001e0:	0ae58263          	beq	a1,a4,e0000284 <qprinti.constprop.1+0xe4>
  n = (0x19999999 * n + (n >> 1) + (n >> 3)) >> 28;
e00001e4:	1999a737          	lui	a4,0x1999a
  return remu10_table[n];
e00001e8:	00000317          	auipc	t1,0x0
e00001ec:	3e430313          	addi	t1,t1,996 # e00005cc <remu10_table>
  n = (0x19999999 * n + (n >> 1) + (n >> 3)) >> 28;
e00001f0:	99970713          	addi	a4,a4,-1639 # 19999999 <tohost+0x19979991>
  r = n - q * 10;
e00001f4:	4e29                	li	t3,10
    while (u) {
e00001f6:	c52d                	beqz	a0,e0000260 <qprinti.constprop.1+0xc0>
  n = (0x19999999 * n + (n >> 1) + (n >> 3)) >> 28;
e00001f8:	02e50833          	mul	a6,a0,a4
e00001fc:	00155893          	srli	a7,a0,0x1
e0000200:	00355793          	srli	a5,a0,0x3
      *--s = remu10(u) + '0';
e0000204:	147d                	addi	s0,s0,-1
  n = (0x19999999 * n + (n >> 1) + (n >> 3)) >> 28;
e0000206:	9846                	add	a6,a6,a7
e0000208:	983e                	add	a6,a6,a5
e000020a:	01c85813          	srli	a6,a6,0x1c
  return remu10_table[n];
e000020e:	981a                	add	a6,a6,t1
      *--s = remu10(u) + '0';
e0000210:	00084583          	lbu	a1,0(a6)
  q = (n >> 1) + (n >> 2);
e0000214:	00255793          	srli	a5,a0,0x2
e0000218:	97c6                	add	a5,a5,a7
      *--s = remu10(u) + '0';
e000021a:	03058593          	addi	a1,a1,48
e000021e:	00b40023          	sb	a1,0(s0)
  q = q + (q >> 4);
e0000222:	0047d593          	srli	a1,a5,0x4
e0000226:	97ae                	add	a5,a5,a1
  q = q + (q >> 8);
e0000228:	0087d593          	srli	a1,a5,0x8
e000022c:	97ae                	add	a5,a5,a1
  q = q + (q >> 16);
e000022e:	0107d593          	srli	a1,a5,0x10
e0000232:	97ae                	add	a5,a5,a1
  q = q >> 3;
e0000234:	838d                	srli	a5,a5,0x3
  r = n - q * 10;
e0000236:	03c785b3          	mul	a1,a5,t3
  return q + ((r + 6) >> 4);
e000023a:	0519                	addi	a0,a0,6
e000023c:	8d0d                	sub	a0,a0,a1
e000023e:	8111                	srli	a0,a0,0x4
e0000240:	953e                	add	a0,a0,a5
e0000242:	bf55                	j	e00001f6 <qprinti.constprop.1+0x56>
  register int neg = 0, pc = 0;
e0000244:	4481                	li	s1,0
e0000246:	bf41                	j	e00001d6 <qprinti.constprop.1+0x36>
      int t = u & 0xF;
e0000248:	00f57813          	andi	a6,a0,15
      if (t >= 10)
e000024c:	01075363          	ble	a6,a4,e0000252 <qprinti.constprop.1+0xb2>
        t += letbase - '0' - 10;
e0000250:	983e                	add	a6,a6,a5
      *--s = t + '0';
e0000252:	147d                	addi	s0,s0,-1
e0000254:	03080813          	addi	a6,a6,48
e0000258:	01040023          	sb	a6,0(s0)
      u >>= 4;
e000025c:	8111                	srli	a0,a0,0x4
    while (u) {
e000025e:	f56d                	bnez	a0,e0000248 <qprinti.constprop.1+0xa8>
  if (neg) {
e0000260:	cc89                	beqz	s1,e000027a <qprinti.constprop.1+0xda>
    if( width && (pad & PAD_ZERO) )
e0000262:	c68d                	beqz	a3,e000028c <qprinti.constprop.1+0xec>
e0000264:	00267793          	andi	a5,a2,2
e0000268:	c395                	beqz	a5,e000028c <qprinti.constprop.1+0xec>
  uart_sendchar(s);
e000026a:	02d00513          	li	a0,45
e000026e:	c432                	sw	a2,8(sp)
e0000270:	c636                	sw	a3,12(sp)
e0000272:	3da5                	jal	e00000ea <uart_sendchar>
      --width;
e0000274:	46b2                	lw	a3,12(sp)
e0000276:	4622                	lw	a2,8(sp)
e0000278:	16fd                	addi	a3,a3,-1
  return pc + qprints (out, s, width, pad);
e000027a:	85b6                	mv	a1,a3
e000027c:	8522                	mv	a0,s0
e000027e:	3db5                	jal	e00000fa <qprints.constprop.2>
e0000280:	9526                	add	a0,a0,s1
e0000282:	bf2d                	j	e00001bc <qprinti.constprop.1+0x1c>
      if (t >= 10)
e0000284:	4725                	li	a4,9
        t += letbase - '0' - 10;
e0000286:	fc678793          	addi	a5,a5,-58
e000028a:	bfd1                	j	e000025e <qprinti.constprop.1+0xbe>
      *--s = '-';
e000028c:	02d00793          	li	a5,45
e0000290:	fef40fa3          	sb	a5,-1(s0)
  register int neg = 0, pc = 0;
e0000294:	4481                	li	s1,0
      *--s = '-';
e0000296:	147d                	addi	s0,s0,-1
e0000298:	b7cd                	j	e000027a <qprinti.constprop.1+0xda>

e000029a <uart_wait_tx_done>:
  while( (*(volatile unsigned int*)(UART_REG_LSR) & 0x40) == 0);
e000029a:	40000737          	lui	a4,0x40000
e000029e:	4b5c                	lw	a5,20(a4)
e00002a0:	0407f793          	andi	a5,a5,64
e00002a4:	dfed                	beqz	a5,e000029e <uart_wait_tx_done+0x4>
}
e00002a6:	8082                	ret

e00002a8 <putchar>:
{
e00002a8:	1141                	addi	sp,sp,-16
e00002aa:	c422                	sw	s0,8(sp)
e00002ac:	842a                	mv	s0,a0
  uart_sendchar(s);
e00002ae:	0ff57513          	andi	a0,a0,255
{
e00002b2:	c606                	sw	ra,12(sp)
  uart_sendchar(s);
e00002b4:	3d1d                	jal	e00000ea <uart_sendchar>
}
e00002b6:	8522                	mv	a0,s0
e00002b8:	40b2                	lw	ra,12(sp)
e00002ba:	4422                	lw	s0,8(sp)
e00002bc:	0141                	addi	sp,sp,16
e00002be:	8082                	ret

e00002c0 <printf>:

  return pc;
}

int printf(const char *format, ...)
{
e00002c0:	711d                	addi	sp,sp,-96
e00002c2:	dc22                	sw	s0,56(sp)
  int pc;
  va_list va;

  va_start(va, format);
e00002c4:	00c0                	addi	s0,sp,68
{
e00002c6:	da26                	sw	s1,52(sp)
e00002c8:	d84a                	sw	s2,48(sp)
e00002ca:	d64e                	sw	s3,44(sp)
e00002cc:	d452                	sw	s4,40(sp)
e00002ce:	d256                	sw	s5,36(sp)
e00002d0:	d05a                	sw	s6,32(sp)
e00002d2:	ce5e                	sw	s7,28(sp)
e00002d4:	de06                	sw	ra,60(sp)
e00002d6:	cc62                	sw	s8,24(sp)
e00002d8:	8baa                	mv	s7,a0
e00002da:	c2ae                	sw	a1,68(sp)
e00002dc:	c4b2                	sw	a2,72(sp)
e00002de:	c6b6                	sw	a3,76(sp)
e00002e0:	c8ba                	sw	a4,80(sp)
e00002e2:	cabe                	sw	a5,84(sp)
e00002e4:	ccc2                	sw	a6,88(sp)
e00002e6:	cec6                	sw	a7,92(sp)
  va_start(va, format);
e00002e8:	c622                	sw	s0,12(sp)
  register int pc = 0;
e00002ea:	4b01                	li	s6,0
    if (*format == '%')
e00002ec:	02500493          	li	s1,37
      if (*format == '-')
e00002f0:	02d00913          	li	s2,45
      while (*format == '0')
e00002f4:	03000993          	li	s3,48
        width *= 10;
e00002f8:	4a29                	li	s4,10
        pc += qprints (out, s?s:"(null)", width, pad);
e00002fa:	00000a97          	auipc	s5,0x0
e00002fe:	292a8a93          	addi	s5,s5,658 # e000058c <main+0x7e>
  for (; *format != 0; ++format)
e0000302:	000bc783          	lbu	a5,0(s7)
e0000306:	ef91                	bnez	a5,e0000322 <printf+0x62>

  va_end(va);

  return pc;

}
e0000308:	50f2                	lw	ra,60(sp)
e000030a:	5462                	lw	s0,56(sp)
e000030c:	855a                	mv	a0,s6
e000030e:	54d2                	lw	s1,52(sp)
e0000310:	5942                	lw	s2,48(sp)
e0000312:	59b2                	lw	s3,44(sp)
e0000314:	5a22                	lw	s4,40(sp)
e0000316:	5a92                	lw	s5,36(sp)
e0000318:	5b02                	lw	s6,32(sp)
e000031a:	4bf2                	lw	s7,28(sp)
e000031c:	4c62                	lw	s8,24(sp)
e000031e:	6125                	addi	sp,sp,96
e0000320:	8082                	ret
    if (*format == '%')
e0000322:	0e979663          	bne	a5,s1,e000040e <printf+0x14e>
      if (*format == '\0') break;
e0000326:	001bc683          	lbu	a3,1(s7)
e000032a:	def9                	beqz	a3,e0000308 <printf+0x48>
e000032c:	001b8793          	addi	a5,s7,1
      if (*format == '%') goto out;
e0000330:	0c968e63          	beq	a3,s1,e000040c <printf+0x14c>
      width = pad = 0;
e0000334:	4701                	li	a4,0
      if (*format == '-')
e0000336:	01269563          	bne	a3,s2,e0000340 <printf+0x80>
        ++format;
e000033a:	002b8793          	addi	a5,s7,2
        pad = PAD_RIGHT;
e000033e:	4705                	li	a4,1
e0000340:	8bbe                	mv	s7,a5
      while (*format == '0')
e0000342:	000bc783          	lbu	a5,0(s7)
e0000346:	001b8693          	addi	a3,s7,1
e000034a:	03378b63          	beq	a5,s3,e0000380 <printf+0xc0>
      width = pad = 0;
e000034e:	4681                	li	a3,0
      for ( ; *format >= '0' && *format <= '9'; ++format) {
e0000350:	4525                	li	a0,9
e0000352:	000bc783          	lbu	a5,0(s7)
e0000356:	001b8813          	addi	a6,s7,1
e000035a:	fd078613          	addi	a2,a5,-48
e000035e:	0ff67593          	andi	a1,a2,255
e0000362:	02b57363          	bleu	a1,a0,e0000388 <printf+0xc8>
      if( *format == 's' ) {
e0000366:	07300613          	li	a2,115
e000036a:	02c79463          	bne	a5,a2,e0000392 <printf+0xd2>
        register char *s = va_arg(va, char*);
e000036e:	4008                	lw	a0,0(s0)
e0000370:	00440c13          	addi	s8,s0,4
        pc += qprints (out, s?s:"(null)", width, pad);
e0000374:	e111                	bnez	a0,e0000378 <printf+0xb8>
e0000376:	8556                	mv	a0,s5
e0000378:	863a                	mv	a2,a4
e000037a:	85b6                	mv	a1,a3
        pc += qprints (out, scr, width, pad);
e000037c:	3bbd                	jal	e00000fa <qprints.constprop.2>
e000037e:	a035                	j	e00003aa <printf+0xea>
        pad |= PAD_ZERO;
e0000380:	00276713          	ori	a4,a4,2
        ++format;
e0000384:	8bb6                	mv	s7,a3
e0000386:	bf75                	j	e0000342 <printf+0x82>
        width *= 10;
e0000388:	034686b3          	mul	a3,a3,s4
      for ( ; *format >= '0' && *format <= '9'; ++format) {
e000038c:	8bc2                	mv	s7,a6
        width += *format - '0';
e000038e:	96b2                	add	a3,a3,a2
e0000390:	b7c9                	j	e0000352 <printf+0x92>
      if( *format == 'd' ) {
e0000392:	06400613          	li	a2,100
e0000396:	00c79e63          	bne	a5,a2,e00003b2 <printf+0xf2>
        pc += qprinti (out, va_arg(va, int), 10, 1, width, pad, 'a');
e000039a:	00440c13          	addi	s8,s0,4
e000039e:	06100793          	li	a5,97
e00003a2:	4605                	li	a2,1
e00003a4:	45a9                	li	a1,10
e00003a6:	4008                	lw	a0,0(s0)
e00003a8:	3be5                	jal	e00001a0 <qprinti.constprop.1>
e00003aa:	9b2a                	add	s6,s6,a0
e00003ac:	8462                	mv	s0,s8
  for (; *format != 0; ++format)
e00003ae:	0b85                	addi	s7,s7,1
e00003b0:	bf89                	j	e0000302 <printf+0x42>
      if( *format == 'u' ) {
e00003b2:	07500613          	li	a2,117
e00003b6:	00c79863          	bne	a5,a2,e00003c6 <printf+0x106>
        pc += qprinti (out, va_arg(va, unsigned int), 10, 0, width, pad, 'a');
e00003ba:	00440c13          	addi	s8,s0,4
e00003be:	06100793          	li	a5,97
e00003c2:	4601                	li	a2,0
e00003c4:	b7c5                	j	e00003a4 <printf+0xe4>
      if( *format == 'x' ) {
e00003c6:	07800613          	li	a2,120
e00003ca:	00c79963          	bne	a5,a2,e00003dc <printf+0x11c>
        pc += qprinti (out, va_arg(va, uint32_t), 16, 0, width, pad, 'a');
e00003ce:	00440c13          	addi	s8,s0,4
e00003d2:	06100793          	li	a5,97
        pc += qprinti (out, va_arg(va, uint32_t), 16, 0, width, pad, 'A');
e00003d6:	4601                	li	a2,0
e00003d8:	45c1                	li	a1,16
e00003da:	b7f1                	j	e00003a6 <printf+0xe6>
      if( *format == 'X' ) {
e00003dc:	05800613          	li	a2,88
e00003e0:	00c79763          	bne	a5,a2,e00003ee <printf+0x12e>
        pc += qprinti (out, va_arg(va, uint32_t), 16, 0, width, pad, 'A');
e00003e4:	00440c13          	addi	s8,s0,4
e00003e8:	04100793          	li	a5,65
e00003ec:	b7ed                	j	e00003d6 <printf+0x116>
      if( *format == 'c' ) {
e00003ee:	06300613          	li	a2,99
e00003f2:	fac79ee3          	bne	a5,a2,e00003ae <printf+0xee>
        scr[0] = va_arg(va, int);
e00003f6:	401c                	lw	a5,0(s0)
e00003f8:	00440c13          	addi	s8,s0,4
        scr[1] = '\0';
e00003fc:	000104a3          	sb	zero,9(sp)
        scr[0] = va_arg(va, int);
e0000400:	00f10423          	sb	a5,8(sp)
        pc += qprints (out, scr, width, pad);
e0000404:	863a                	mv	a2,a4
e0000406:	85b6                	mv	a1,a3
e0000408:	0028                	addi	a0,sp,8
e000040a:	bf8d                	j	e000037c <printf+0xbc>
      ++format;
e000040c:	8bbe                	mv	s7,a5
  uart_sendchar(s);
e000040e:	000bc503          	lbu	a0,0(s7)
      ++pc;
e0000412:	0b05                	addi	s6,s6,1
  uart_sendchar(s);
e0000414:	39d9                	jal	e00000ea <uart_sendchar>
e0000416:	bf61                	j	e00003ae <printf+0xee>

e0000418 <simple_exc_handler>:
  printf("EXCEPTION!!!\r\n");
e0000418:	00000517          	auipc	a0,0x0
e000041c:	17c50513          	addi	a0,a0,380 # e0000594 <main+0x86>
e0000420:	b545                	j	e00002c0 <printf>

e0000422 <puts>:

int puts(const char *s)
{
e0000422:	1141                	addi	sp,sp,-16
e0000424:	c422                	sw	s0,8(sp)
e0000426:	c226                	sw	s1,4(sp)
e0000428:	c606                	sw	ra,12(sp)
e000042a:	c04a                	sw	s2,0(sp)
e000042c:	84aa                	mv	s1,a0
  int i=0;

  while(s[i] != '\0')
e000042e:	842a                	mv	s0,a0
e0000430:	40940933          	sub	s2,s0,s1
e0000434:	0405                	addi	s0,s0,1
e0000436:	fff44503          	lbu	a0,-1(s0)
e000043a:	e911                	bnez	a0,e000044e <puts+0x2c>
  uart_sendchar(s);
e000043c:	4529                	li	a0,10
e000043e:	3175                	jal	e00000ea <uart_sendchar>
    putchar(s[i++]);

  putchar('\n');

  return i;
}
e0000440:	40b2                	lw	ra,12(sp)
e0000442:	4422                	lw	s0,8(sp)
e0000444:	854a                	mv	a0,s2
e0000446:	4492                	lw	s1,4(sp)
e0000448:	4902                	lw	s2,0(sp)
e000044a:	0141                	addi	sp,sp,16
e000044c:	8082                	ret
  uart_sendchar(s);
e000044e:	3971                	jal	e00000ea <uart_sendchar>
e0000450:	b7c5                	j	e0000430 <puts+0xe>

void __attribute__((weak)) external_irq_handler(void)  {
}
e0000452:	30200073          	mret

e0000456 <external_irq_handler>:

  return 0;

}

void external_irq_handler(void) {
e0000456:	1141                	addi	sp,sp,-16
e0000458:	c43a                	sw	a4,8(sp)
e000045a:	c23e                	sw	a5,4(sp)
e000045c:	c636                	sw	a3,12(sp)
  int * pointer;
  int mbox_id = 159;
  pointer = (int *) 0xC8200004;
  while(*pointer!=mbox_id)
e000045e:	c8200737          	lui	a4,0xc8200
e0000462:	09f00793          	li	a5,159
e0000466:	4354                	lw	a3,4(a4)
e0000468:	00f69c63          	bne	a3,a5,e0000480 <external_irq_handler+0x2a>
  *pointer = mbox_id;
  pointer = (int *) 0x10404020;
  *pointer = 0x0;
e000046c:	104047b7          	lui	a5,0x10404
e0000470:	0207a023          	sw	zero,32(a5) # 10404020 <tohost+0x103e4018>
}
e0000474:	46b2                	lw	a3,12(sp)
e0000476:	4722                	lw	a4,8(sp)
e0000478:	4792                	lw	a5,4(sp)
e000047a:	0141                	addi	sp,sp,16
e000047c:	30200073          	mret
  *pointer = mbox_id;
e0000480:	c35c                	sw	a5,4(a4)
e0000482:	b7d5                	j	e0000466 <external_irq_handler+0x10>

e0000484 <default_exc_handler>:
  jal x0, sleep_loop //exc handler
e0000484:	0840006f          	j	e0000508 <sleep_loop>

e0000488 <reset_handler>:
  mv  x1, x0
e0000488:	00000093          	li	ra,0
  mv  x2, x1
e000048c:	8106                	mv	sp,ra
  mv  x3, x1
e000048e:	8186                	mv	gp,ra
  mv  x4, x1
e0000490:	8206                	mv	tp,ra
  mv  x5, x1
e0000492:	8286                	mv	t0,ra
  mv  x6, x1
e0000494:	8306                	mv	t1,ra
  mv  x7, x1
e0000496:	8386                	mv	t2,ra
  mv  x8, x1
e0000498:	8406                	mv	s0,ra
  mv  x9, x1
e000049a:	8486                	mv	s1,ra
  mv x10, x1
e000049c:	8506                	mv	a0,ra
  mv x11, x1
e000049e:	8586                	mv	a1,ra
  mv x12, x1
e00004a0:	8606                	mv	a2,ra
  mv x13, x1
e00004a2:	8686                	mv	a3,ra
  mv x14, x1
e00004a4:	8706                	mv	a4,ra
  mv x15, x1
e00004a6:	8786                	mv	a5,ra
  mv x16, x1
e00004a8:	8806                	mv	a6,ra
  mv x17, x1
e00004aa:	8886                	mv	a7,ra
  mv x18, x1
e00004ac:	8906                	mv	s2,ra
  mv x19, x1
e00004ae:	8986                	mv	s3,ra
  mv x20, x1
e00004b0:	8a06                	mv	s4,ra
  mv x21, x1
e00004b2:	8a86                	mv	s5,ra
  mv x22, x1
e00004b4:	8b06                	mv	s6,ra
  mv x23, x1
e00004b6:	8b86                	mv	s7,ra
  mv x24, x1
e00004b8:	8c06                	mv	s8,ra
  mv x25, x1
e00004ba:	8c86                	mv	s9,ra
  mv x26, x1
e00004bc:	8d06                	mv	s10,ra
  mv x27, x1
e00004be:	8d86                	mv	s11,ra
  mv x28, x1
e00004c0:	8e06                	mv	t3,ra
  mv x29, x1
e00004c2:	8e86                	mv	t4,ra
  mv x30, x1
e00004c4:	8f06                	mv	t5,ra
  mv x31, x1
e00004c6:	8f86                	mv	t6,ra
  la   x2, _stack_start
e00004c8:	00010117          	auipc	sp,0x10
e00004cc:	b3810113          	addi	sp,sp,-1224 # e0010000 <_stack_start>

e00004d0 <_start>:
  la x26, _bss_start
e00004d0:	00000d17          	auipc	s10,0x0
e00004d4:	10cd0d13          	addi	s10,s10,268 # e00005dc <_bss_end>
  la x27, _bss_end
e00004d8:	00000d97          	auipc	s11,0x0
e00004dc:	104d8d93          	addi	s11,s11,260 # e00005dc <_bss_end>
  bge x26, x27, zero_loop_end
e00004e0:	01bd5763          	ble	s11,s10,e00004ee <main_entry>

e00004e4 <zero_loop>:
  sw x0, 0(x26)
e00004e4:	000d2023          	sw	zero,0(s10)
  addi x26, x26, 4
e00004e8:	0d11                	addi	s10,s10,4
  ble x26, x27, zero_loop
e00004ea:	ffaddde3          	ble	s10,s11,e00004e4 <zero_loop>

e00004ee <main_entry>:
  addi x10, x0, 0
e00004ee:	00000513          	li	a0,0
  addi x11, x0, 0
e00004f2:	00000593          	li	a1,0
  jal x1, main
e00004f6:	018000ef          	jal	ra,e000050e <main>
  li a0, 0xc11c0018
e00004fa:	c11c0537          	lui	a0,0xc11c0
e00004fe:	01850513          	addi	a0,a0,24 # c11c0018 <pulp__FC+0xc11c0019>
  li t0, 0x1	
e0000502:	4285                	li	t0,1
  sw t0, 0(a0)
e0000504:	00552023          	sw	t0,0(a0)

e0000508 <sleep_loop>:
  wfi
e0000508:	10500073          	wfi
  j sleep_loop
e000050c:	bff5                	j	e0000508 <sleep_loop>

e000050e <main>:
int main(int argc, char **argv) {
e000050e:	1141                	addi	sp,sp,-16
  uart_set_cfg(0,(test_freq/baud_rate)>>4);
e0000510:	45d5                	li	a1,21
e0000512:	4501                	li	a0,0
int main(int argc, char **argv) {
e0000514:	c606                	sw	ra,12(sp)
e0000516:	c422                	sw	s0,8(sp)
e0000518:	c226                	sw	s1,4(sp)
  uart_set_cfg(0,(test_freq/baud_rate)>>4);
e000051a:	36ad                	jal	e0000084 <uart_set_cfg>
  asm volatile("csrw mtvec, %0\n" : : "r"(val));
e000051c:	e00007b7          	lui	a5,0xe0000
e0000520:	0785                	addi	a5,a5,1
e0000522:	30579073          	csrw	mtvec,a5
  asm volatile("csrw  mstatus, %0\n" : : "r"(val_1));
e0000526:	6789                	lui	a5,0x2
e0000528:	80878793          	addi	a5,a5,-2040 # 1808 <_min_stack-0x7f8>
e000052c:	30079073          	csrw	mstatus,a5
  asm volatile("csrw  mie, %0\n"     : : "r"(val_2));
e0000530:	6785                	lui	a5,0x1
e0000532:	80078793          	addi	a5,a5,-2048 # 800 <_min_stack-0x1800>
e0000536:	30479073          	csrw	0x304,a5
 *plic_prio  = 1;                   // Set mbox interrupt priority to 1
e000053a:	4405                	li	s0,1
e000053c:	c80007b7          	lui	a5,0xc8000
e0000540:	2687ae23          	sw	s0,636(a5) # c800027c <pulp__FC+0xc800027d>
 *plic_en    = 0x80000000;          // Enable interrupt
e0000544:	800004b7          	lui	s1,0x80000
e0000548:	c80027b7          	lui	a5,0xc8002
e000054c:	cb84                	sw	s1,16(a5)
  uart_set_cfg(0,(test_freq/baud_rate)>>4);
e000054e:	45d5                	li	a1,21
e0000550:	4501                	li	a0,0
e0000552:	3e0d                	jal	e0000084 <uart_set_cfg>
  *pointer = 0x1;
e0000554:	0c0007b7          	lui	a5,0xc000
e0000558:	d780                	sw	s0,40(a5)
  *pointer =  0x400;
e000055a:	0c002737          	lui	a4,0xc002
e000055e:	40000693          	li	a3,1024
e0000562:	08d72023          	sw	a3,128(a4) # c002080 <tohost+0xbfe2078>
  *pointer = 0x80000000;
e0000566:	104046b7          	lui	a3,0x10404
e000056a:	c284                	sw	s1,0(a3)
  *pointer = 0x1;
e000056c:	d2c0                	sw	s0,36(a3)
  asm volatile ("wfi");
e000056e:	10500073          	wfi
  *pointer = 0x0;
e0000572:	08072023          	sw	zero,128(a4)
  *pointer = 0x0;
e0000576:	0207a423          	sw	zero,40(a5) # c000028 <tohost+0xbfe0020>
  printf("[SECD] Booted CVA6 core 0, going wfi\r\n");
e000057a:	00000517          	auipc	a0,0x0
e000057e:	02a50513          	addi	a0,a0,42 # e00005a4 <main+0x96>
e0000582:	3b3d                	jal	e00002c0 <printf>
  uart_wait_tx_done();
e0000584:	3b19                	jal	e000029a <uart_wait_tx_done>
    asm volatile ("wfi");
e0000586:	10500073          	wfi
e000058a:	bff5                	j	e0000586 <main+0x78>

Disassembly of section .Pulp_Chip.Info:

00000000 <.Pulp_Chip.Info>:
   0:	000a                	0xa
   2:	0000                	unimp
   4:	0038                	addi	a4,sp,8
   6:	0000                	unimp
   8:	0001                	nop
   a:	0000                	unimp
   c:	7550                	flw	fa2,44(a0)
   e:	706c                	flw	fa1,100(s0)
  10:	495f 666e 006f      	0x6f666e495f
  16:	70696863          	bltu	s2,t1,726 <_min_stack-0x18da>
  1a:	6e3d                	lui	t3,0xf
  1c:	20656e6f          	jal	t3,56222 <tohost+0x3621a>
  20:	3d757063          	bleu	s7,a0,3e0 <_min_stack-0x1c20>
  24:	6f6e                	flw	ft10,216(sp)
  26:	656e                	flw	fa0,216(sp)
  28:	7020                	flw	fs0,96(s0)
  2a:	3d65                	jal	fffffee2 <pulp__FC+0xfffffee3>
  2c:	312d                	jal	fffffc56 <pulp__FC+0xfffffc57>
  2e:	6620                	flw	fs0,72(a2)
  30:	312d3d63          	p.bneimm	s10,-14,34a <_min_stack-0x1cb6>
  34:	6c20                	flw	fs0,88(s0)
  36:	3d32                	fld	fs10,296(sp)
  38:	312d                	jal	fffffc62 <pulp__FC+0xfffffc63>
  3a:	6c20                	flw	fs0,88(s0)
  3c:	6331                	lui	t1,0xc
  3e:	3d6c                	fld	fa1,248(a0)
  40:	312d                	jal	fffffc6a <pulp__FC+0xfffffc6b>
  42:	6c20                	flw	fs0,88(s0)
  44:	6631                	lui	a2,0xc
  46:	312d3d63          	p.bneimm	s10,-14,360 <_min_stack-0x1ca0>
  4a:	0000                	unimp
	...
