
alsaqr_boot_dual_core_chain.elf:     file format elf32-littleriscv
architecture: riscv:rv32, flags 0x00000112:
EXEC_P, HAS_SYMS, D_PAGED
start address 0xe0000080

Sections:
Idx Name          Size      VMA       LMA       File off  Algn
  0 .vectors      00000084  e0000000  e0000000  00001000  2**0
                  CONTENTS, ALLOC, LOAD, READONLY, CODE
  1 .text         00000508  e0000084  e0000084  00001084  2**1
                  CONTENTS, ALLOC, LOAD, READONLY, CODE
  2 .rodata       00000040  e000058c  e000058c  0000158c  2**2
                  CONTENTS, ALLOC, LOAD, READONLY, DATA
  3 .data         00000010  e00005cc  e00005cc  000015cc  2**2
                  CONTENTS, ALLOC, LOAD, DATA
  4 .bss          00000000  e00005dc  e00005dc  000015dc  2**0
                  ALLOC
  5 .logs.fields  00000000  e00005dc  e00005dc  000015dc  2**0
                  CONTENTS
  6 .stack        00002000  e0008000  e0008000  00002000  2**0
                  ALLOC
  7 .debug_frame  0000029c  00000000  00000000  000015dc  2**2
                  CONTENTS, READONLY, DEBUGGING
  8 .debug_info   00000b1a  00000000  00000000  00001878  2**0
                  CONTENTS, READONLY, DEBUGGING
  9 .debug_abbrev 00000453  00000000  00000000  00002392  2**0
                  CONTENTS, READONLY, DEBUGGING
 10 .debug_loc    00000abd  00000000  00000000  000027e5  2**0
                  CONTENTS, READONLY, DEBUGGING
 11 .debug_aranges 00000070  00000000  00000000  000032a8  2**3
                  CONTENTS, READONLY, DEBUGGING
 12 .debug_ranges 00000158  00000000  00000000  00003318  2**3
                  CONTENTS, READONLY, DEBUGGING
 13 .debug_line   00000869  00000000  00000000  00003470  2**0
                  CONTENTS, READONLY, DEBUGGING
 14 .debug_str    0000030e  00000000  00000000  00003cd9  2**0
                  CONTENTS, READONLY, DEBUGGING
 15 .comment      0000001a  00000000  00000000  00003fe7  2**0
                  CONTENTS, READONLY
 16 .Pulp_Chip.Info 0000004e  00000000  00000000  00004001  2**0
                  CONTENTS, READONLY

Disassembly of section .vectors:

e0000000 <_vectors_start>:
  .option norvc;
  
  .org 0x00
  .rept 10
  jal x0, default_exc_handler
  .endr
e0000000:	4840006f          	j	e0000484 <default_exc_handler>
e0000004:	4800006f          	j	e0000484 <default_exc_handler>
e0000008:	47c0006f          	j	e0000484 <default_exc_handler>
e000000c:	4780006f          	j	e0000484 <default_exc_handler>
e0000010:	4740006f          	j	e0000484 <default_exc_handler>
e0000014:	4700006f          	j	e0000484 <default_exc_handler>
e0000018:	46c0006f          	j	e0000484 <default_exc_handler>
e000001c:	4680006f          	j	e0000484 <default_exc_handler>
e0000020:	4640006f          	j	e0000484 <default_exc_handler>
e0000024:	4600006f          	j	e0000484 <default_exc_handler>
  
  jal x0, default_exc_handler
e0000028:	45c0006f          	j	e0000484 <default_exc_handler>
  
  jal x0, external_irq_handler
e000002c:	42a0006f          	j	e0000456 <external_irq_handler>

  .org 0x30
  .rept 18
  jal x0, default_exc_handler
  .endr
e0000030:	4540006f          	j	e0000484 <default_exc_handler>
e0000034:	4500006f          	j	e0000484 <default_exc_handler>
e0000038:	44c0006f          	j	e0000484 <default_exc_handler>
e000003c:	4480006f          	j	e0000484 <default_exc_handler>
e0000040:	4440006f          	j	e0000484 <default_exc_handler>
e0000044:	4400006f          	j	e0000484 <default_exc_handler>
e0000048:	43c0006f          	j	e0000484 <default_exc_handler>
e000004c:	4380006f          	j	e0000484 <default_exc_handler>
e0000050:	4340006f          	j	e0000484 <default_exc_handler>
e0000054:	4300006f          	j	e0000484 <default_exc_handler>
e0000058:	42c0006f          	j	e0000484 <default_exc_handler>
e000005c:	4280006f          	j	e0000484 <default_exc_handler>
e0000060:	4240006f          	j	e0000484 <default_exc_handler>
e0000064:	4200006f          	j	e0000484 <default_exc_handler>
e0000068:	41c0006f          	j	e0000484 <default_exc_handler>
e000006c:	4180006f          	j	e0000484 <default_exc_handler>
e0000070:	4140006f          	j	e0000484 <default_exc_handler>
e0000074:	4100006f          	j	e0000484 <default_exc_handler>
  jal x0, default_exc_handler
e0000078:	40c0006f          	j	e0000484 <default_exc_handler>
  jal x0, default_exc_handler
e000007c:	4080006f          	j	e0000484 <default_exc_handler>


  // reset vector
  .org 0x80
  jal x0, reset_handler
e0000080:	4080006f          	j	e0000488 <reset_handler>

Disassembly of section .text:

e0000084 <uart_set_cfg>:
}


void uart_set_cfg(int parity, uint16_t clk_counter) {
  unsigned int i;
  *(volatile unsigned int*)(UART_REG_LCR) = 0x83; //sets 8N1 and set DLAB to 1
e0000084:	400007b7          	lui	a5,0x40000
e0000088:	08300713          	li	a4,131
e000008c:	c7d8                	sw	a4,12(a5)
  *(volatile unsigned int*)(UART_REG_DLM) = (clk_counter >> 8) & 0xFF;
e000008e:	0085d713          	srli	a4,a1,0x8
e0000092:	c3d8                	sw	a4,4(a5)
  *(volatile unsigned int*)(UART_REG_DLL) =  clk_counter       & 0xFF;
e0000094:	0ff5f593          	andi	a1,a1,255
e0000098:	c38c                	sw	a1,0(a5)
  *(volatile unsigned int*)(UART_REG_FCR) = 0xA7; //enables 16byte FIFO and clear FIFOs
e000009a:	0a700713          	li	a4,167
e000009e:	c798                	sw	a4,8(a5)
  *(volatile unsigned int*)(UART_REG_LCR) = 0x03; //sets 8N1 and set DLAB to 0
e00000a0:	470d                	li	a4,3
e00000a2:	c7d8                	sw	a4,12(a5)

  *(volatile unsigned int*)(UART_REG_IER) = ((*(volatile unsigned int*)(UART_REG_IER)) & 0xF0) | 0x02; // set IER (interrupt enable register) on UART
e00000a4:	43d8                	lw	a4,4(a5)
e00000a6:	0f077713          	andi	a4,a4,240
e00000aa:	00276713          	ori	a4,a4,2
e00000ae:	c3d8                	sw	a4,4(a5)
}
e00000b0:	8082                	ret

e00000b2 <uart_send>:

  while(len > 0) {
    // process this in batches of 16 bytes to actually use the FIFO in the UART

    // wait until there is space in the fifo
    while( (*(volatile unsigned int*)(UART_REG_LSR) & 0x20) == 0);
e00000b2:	40000737          	lui	a4,0x40000
  while(len > 0) {
e00000b6:	e191                	bnez	a1,e00000ba <uart_send+0x8>
      *(volatile unsigned int*)(UART_REG_THR) = *str++;

      len--;
    }
  }
}
e00000b8:	8082                	ret
    while( (*(volatile unsigned int*)(UART_REG_LSR) & 0x20) == 0);
e00000ba:	4b5c                	lw	a5,20(a4)
e00000bc:	0207f793          	andi	a5,a5,32
e00000c0:	dfed                	beqz	a5,e00000ba <uart_send+0x8>
e00000c2:	04050793          	addi	a5,a0,64
      *(volatile unsigned int*)(UART_REG_THR) = *str++;
e00000c6:	0505                	addi	a0,a0,1
e00000c8:	fff54683          	lbu	a3,-1(a0)
      len--;
e00000cc:	15fd                	addi	a1,a1,-1
      *(volatile unsigned int*)(UART_REG_THR) = *str++;
e00000ce:	c314                	sw	a3,0(a4)
    for(i = 0; (i < UART_FIFO_DEPTH) && (len > 0); i++) {
e00000d0:	fef503e3          	beq	a0,a5,e00000b6 <uart_send+0x4>
e00000d4:	f9ed                	bnez	a1,e00000c6 <uart_send+0x14>
e00000d6:	8082                	ret

e00000d8 <uart_getchar>:

char uart_getchar() {
  while((*((volatile int*)UART_REG_LSR) & 0x1) != 0x1);
e00000d8:	40000737          	lui	a4,0x40000
e00000dc:	4b5c                	lw	a5,20(a4)
e00000de:	8b85                	andi	a5,a5,1
e00000e0:	dff5                	beqz	a5,e00000dc <uart_getchar+0x4>

  return *(volatile int*)UART_REG_RBR;
e00000e2:	4308                	lw	a0,0(a4)
}
e00000e4:	0ff57513          	andi	a0,a0,255
e00000e8:	8082                	ret

e00000ea <uart_sendchar>:

void uart_sendchar(const char c) {
  // wait until there is space in the fifo
  while( (*(volatile unsigned int*)(UART_REG_LSR) & 0x20) == 0);
e00000ea:	40000737          	lui	a4,0x40000
e00000ee:	4b5c                	lw	a5,20(a4)
e00000f0:	0207f793          	andi	a5,a5,32
e00000f4:	dfed                	beqz	a5,e00000ee <uart_sendchar+0x4>

  // load FIFO
  *(volatile unsigned int*)(UART_REG_THR) = c;
e00000f6:	c308                	sw	a0,0(a4)
}
e00000f8:	8082                	ret

e00000fa <qprints.constprop.2>:
  }
  else
    putchar((char)c);
}

static int qprints(char **out, const char *string, int width, int pad)
e00000fa:	1101                	addi	sp,sp,-32
e00000fc:	cc22                	sw	s0,24(sp)
e00000fe:	ca26                	sw	s1,20(sp)
e0000100:	c84a                	sw	s2,16(sp)
e0000102:	ce06                	sw	ra,28(sp)
e0000104:	c64e                	sw	s3,12(sp)
e0000106:	c452                	sw	s4,8(sp)
e0000108:	84aa                	mv	s1,a0
e000010a:	842e                	mv	s0,a1
{
  register int pc = 0, padchar = ' ';
e000010c:	02000913          	li	s2,32

  if (width > 0) {
e0000110:	02b05463          	blez	a1,e0000138 <qprints.constprop.2+0x3e>
e0000114:	87aa                	mv	a5,a0
e0000116:	a011                	j	e000011a <qprints.constprop.2+0x20>
    register int len = 0;
    register const char *ptr;
    for (ptr = string; *ptr; ++ptr) ++len;
e0000118:	0785                	addi	a5,a5,1
e000011a:	0007c683          	lbu	a3,0(a5) # 40000000 <tohost+0x3ffdfff8>
e000011e:	40978733          	sub	a4,a5,s1
e0000122:	fafd                	bnez	a3,e0000118 <qprints.constprop.2+0x1e>
    if (len >= width) width = 0;
e0000124:	04875663          	ble	s0,a4,e0000170 <qprints.constprop.2+0x76>
    else width -= len;
e0000128:	8c19                	sub	s0,s0,a4
    if (pad & PAD_ZERO) padchar = '0';
e000012a:	00267793          	andi	a5,a2,2
  register int pc = 0, padchar = ' ';
e000012e:	02000913          	li	s2,32
    if (pad & PAD_ZERO) padchar = '0';
e0000132:	c399                	beqz	a5,e0000138 <qprints.constprop.2+0x3e>
e0000134:	03000913          	li	s2,48
  }
  if (!(pad & PAD_RIGHT)) {
e0000138:	8a05                	andi	a2,a2,1
e000013a:	ca21                	beqz	a2,e000018a <qprints.constprop.2+0x90>
  register int pc = 0, padchar = ' ';
e000013c:	4781                	li	a5,0
e000013e:	409789b3          	sub	s3,a5,s1
    for ( ; width > 0; --width) {
      qprintchar (out, padchar);
      ++pc;
    }
  }
  for ( ; *string ; ++string) {
e0000142:	0004c503          	lbu	a0,0(s1)
e0000146:	01348a33          	add	s4,s1,s3
e000014a:	e521                	bnez	a0,e0000192 <qprints.constprop.2+0x98>
e000014c:	84a2                	mv	s1,s0
  uart_sendchar(s);
e000014e:	0ff97913          	andi	s2,s2,255
    qprintchar (out, *string);
    ++pc;
  }
  for ( ; width > 0; --width) {
e0000152:	04904363          	bgtz	s1,e0000198 <qprints.constprop.2+0x9e>
    qprintchar (out, padchar);
    ++pc;
  }

  return pc;
e0000156:	00045363          	bgez	s0,e000015c <qprints.constprop.2+0x62>
e000015a:	4401                	li	s0,0
}
e000015c:	01440533          	add	a0,s0,s4
e0000160:	40f2                	lw	ra,28(sp)
e0000162:	4462                	lw	s0,24(sp)
e0000164:	44d2                	lw	s1,20(sp)
e0000166:	4942                	lw	s2,16(sp)
e0000168:	49b2                	lw	s3,12(sp)
e000016a:	4a22                	lw	s4,8(sp)
e000016c:	6105                	addi	sp,sp,32
e000016e:	8082                	ret
    if (len >= width) width = 0;
e0000170:	4401                	li	s0,0
e0000172:	bf65                	j	e000012a <qprints.constprop.2+0x30>
  uart_sendchar(s);
e0000174:	8552                	mv	a0,s4
e0000176:	3f95                	jal	e00000ea <uart_sendchar>
    for ( ; width > 0; --width) {
e0000178:	19fd                	addi	s3,s3,-1
e000017a:	ff304de3          	bgtz	s3,e0000174 <qprints.constprop.2+0x7a>
e000017e:	87a2                	mv	a5,s0
e0000180:	00045363          	bgez	s0,e0000186 <qprints.constprop.2+0x8c>
e0000184:	4781                	li	a5,0
e0000186:	8c1d                	sub	s0,s0,a5
e0000188:	bf5d                	j	e000013e <qprints.constprop.2+0x44>
  if (!(pad & PAD_RIGHT)) {
e000018a:	89a2                	mv	s3,s0
  uart_sendchar(s);
e000018c:	0ff97a13          	andi	s4,s2,255
e0000190:	b7ed                	j	e000017a <qprints.constprop.2+0x80>
e0000192:	3fa1                	jal	e00000ea <uart_sendchar>
  for ( ; *string ; ++string) {
e0000194:	0485                	addi	s1,s1,1
e0000196:	b775                	j	e0000142 <qprints.constprop.2+0x48>
  uart_sendchar(s);
e0000198:	854a                	mv	a0,s2
e000019a:	3f81                	jal	e00000ea <uart_sendchar>
  for ( ; width > 0; --width) {
e000019c:	14fd                	addi	s1,s1,-1
e000019e:	bf55                	j	e0000152 <qprints.constprop.2+0x58>

e00001a0 <qprinti.constprop.1>:

static int qprinti(char **out, int i, int b, int sg, int width, int pad, char letbase)
e00001a0:	7139                	addi	sp,sp,-64
e00001a2:	da26                	sw	s1,52(sp)
e00001a4:	de06                	sw	ra,60(sp)
e00001a6:	dc22                	sw	s0,56(sp)
e00001a8:	84b2                	mv	s1,a2
e00001aa:	863a                	mv	a2,a4
  char print_buf[PRINT_BUF_LEN];
  register char *s;
  register int neg = 0, pc = 0;
  unsigned int t,u = i;

  if (i == 0)
e00001ac:	ed09                	bnez	a0,e00001c6 <qprinti.constprop.1+0x26>
  {
    print_buf[0] = '0';
e00001ae:	03000793          	li	a5,48
    print_buf[1] = '\0';
    return qprints (out, print_buf, width, pad);
e00001b2:	85b6                	mv	a1,a3
e00001b4:	0808                	addi	a0,sp,16
    print_buf[0] = '0';
e00001b6:	00f11823          	sh	a5,16(sp)
    return qprints (out, print_buf, width, pad);
e00001ba:	3781                	jal	e00000fa <qprints.constprop.2>
    {
      *--s = '-';
    }
  }
  return pc + qprints (out, s, width, pad);
}
e00001bc:	50f2                	lw	ra,60(sp)
e00001be:	5462                	lw	s0,56(sp)
e00001c0:	54d2                	lw	s1,52(sp)
e00001c2:	6121                	addi	sp,sp,64
e00001c4:	8082                	ret
  if (sg && b == 10 && i < 0)
e00001c6:	c881                	beqz	s1,e00001d6 <qprinti.constprop.1+0x36>
e00001c8:	4729                	li	a4,10
e00001ca:	06e59d63          	bne	a1,a4,e0000244 <qprinti.constprop.1+0xa4>
e00001ce:	06055b63          	bgez	a0,e0000244 <qprinti.constprop.1+0xa4>
    u = -i;
e00001d2:	40a00533          	neg	a0,a0
  *s = '\0';
e00001d6:	020107a3          	sb	zero,47(sp)
  if(b == 16) {
e00001da:	4741                	li	a4,16
  s = print_buf + PRINT_BUF_LEN-1;
e00001dc:	02f10413          	addi	s0,sp,47
  if(b == 16) {
e00001e0:	0ae58263          	beq	a1,a4,e0000284 <qprinti.constprop.1+0xe4>
  n = (0x19999999 * n + (n >> 1) + (n >> 3)) >> 28;
e00001e4:	1999a737          	lui	a4,0x1999a
  return remu10_table[n];
e00001e8:	00000317          	auipc	t1,0x0
e00001ec:	3e430313          	addi	t1,t1,996 # e00005cc <remu10_table>
  n = (0x19999999 * n + (n >> 1) + (n >> 3)) >> 28;
e00001f0:	99970713          	addi	a4,a4,-1639 # 19999999 <tohost+0x19979991>
  r = n - q * 10;
e00001f4:	4e29                	li	t3,10
    while (u) {
e00001f6:	c52d                	beqz	a0,e0000260 <qprinti.constprop.1+0xc0>
  n = (0x19999999 * n + (n >> 1) + (n >> 3)) >> 28;
e00001f8:	02e50833          	mul	a6,a0,a4
e00001fc:	00155893          	srli	a7,a0,0x1
e0000200:	00355793          	srli	a5,a0,0x3
      *--s = remu10(u) + '0';
e0000204:	147d                	addi	s0,s0,-1
  n = (0x19999999 * n + (n >> 1) + (n >> 3)) >> 28;
e0000206:	9846                	add	a6,a6,a7
e0000208:	983e                	add	a6,a6,a5
e000020a:	01c85813          	srli	a6,a6,0x1c
  return remu10_table[n];
e000020e:	981a                	add	a6,a6,t1
      *--s = remu10(u) + '0';
e0000210:	00084583          	lbu	a1,0(a6)
  q = (n >> 1) + (n >> 2);
e0000214:	00255793          	srli	a5,a0,0x2
e0000218:	97c6                	add	a5,a5,a7
      *--s = remu10(u) + '0';
e000021a:	03058593          	addi	a1,a1,48
e000021e:	00b40023          	sb	a1,0(s0)
  q = q + (q >> 4);
e0000222:	0047d593          	srli	a1,a5,0x4
e0000226:	97ae                	add	a5,a5,a1
  q = q + (q >> 8);
e0000228:	0087d593          	srli	a1,a5,0x8
e000022c:	97ae                	add	a5,a5,a1
  q = q + (q >> 16);
e000022e:	0107d593          	srli	a1,a5,0x10
e0000232:	97ae                	add	a5,a5,a1
  q = q >> 3;
e0000234:	838d                	srli	a5,a5,0x3
  r = n - q * 10;
e0000236:	03c785b3          	mul	a1,a5,t3
  return q + ((r + 6) >> 4);
e000023a:	0519                	addi	a0,a0,6
e000023c:	8d0d                	sub	a0,a0,a1
e000023e:	8111                	srli	a0,a0,0x4
e0000240:	953e                	add	a0,a0,a5
e0000242:	bf55                	j	e00001f6 <qprinti.constprop.1+0x56>
  register int neg = 0, pc = 0;
e0000244:	4481                	li	s1,0
e0000246:	bf41                	j	e00001d6 <qprinti.constprop.1+0x36>
      int t = u & 0xF;
e0000248:	00f57813          	andi	a6,a0,15
      if (t >= 10)
e000024c:	01075363          	ble	a6,a4,e0000252 <qprinti.constprop.1+0xb2>
        t += letbase - '0' - 10;
e0000250:	983e                	add	a6,a6,a5
      *--s = t + '0';
e0000252:	147d                	addi	s0,s0,-1
e0000254:	03080813          	addi	a6,a6,48
e0000258:	01040023          	sb	a6,0(s0)
      u >>= 4;
e000025c:	8111                	srli	a0,a0,0x4
    while (u) {
e000025e:	f56d                	bnez	a0,e0000248 <qprinti.constprop.1+0xa8>
  if (neg) {
e0000260:	cc89                	beqz	s1,e000027a <qprinti.constprop.1+0xda>
    if( width && (pad & PAD_ZERO) )
e0000262:	c68d                	beqz	a3,e000028c <qprinti.constprop.1+0xec>
e0000264:	00267793          	andi	a5,a2,2
e0000268:	c395                	beqz	a5,e000028c <qprinti.constprop.1+0xec>
  uart_sendchar(s);
e000026a:	02d00513          	li	a0,45
e000026e:	c432                	sw	a2,8(sp)
e0000270:	c636                	sw	a3,12(sp)
e0000272:	3da5                	jal	e00000ea <uart_sendchar>
      --width;
e0000274:	46b2                	lw	a3,12(sp)
e0000276:	4622                	lw	a2,8(sp)
e0000278:	16fd                	addi	a3,a3,-1
  return pc + qprints (out, s, width, pad);
e000027a:	85b6                	mv	a1,a3
e000027c:	8522                	mv	a0,s0
e000027e:	3db5                	jal	e00000fa <qprints.constprop.2>
e0000280:	9526                	add	a0,a0,s1
e0000282:	bf2d                	j	e00001bc <qprinti.constprop.1+0x1c>
      if (t >= 10)
e0000284:	4725                	li	a4,9
        t += letbase - '0' - 10;
e0000286:	fc678793          	addi	a5,a5,-58
e000028a:	bfd1                	j	e000025e <qprinti.constprop.1+0xbe>
      *--s = '-';
e000028c:	02d00793          	li	a5,45
e0000290:	fef40fa3          	sb	a5,-1(s0)
  register int neg = 0, pc = 0;
e0000294:	4481                	li	s1,0
      *--s = '-';
e0000296:	147d                	addi	s0,s0,-1
e0000298:	b7cd                	j	e000027a <qprinti.constprop.1+0xda>

e000029a <uart_wait_tx_done>:
  while( (*(volatile unsigned int*)(UART_REG_LSR) & 0x40) == 0);
e000029a:	40000737          	lui	a4,0x40000
e000029e:	4b5c                	lw	a5,20(a4)
e00002a0:	0407f793          	andi	a5,a5,64
e00002a4:	dfed                	beqz	a5,e000029e <uart_wait_tx_done+0x4>
}
e00002a6:	8082                	ret

e00002a8 <putchar>:
{
e00002a8:	1141                	addi	sp,sp,-16
e00002aa:	c422                	sw	s0,8(sp)
e00002ac:	842a                	mv	s0,a0
  uart_sendchar(s);
e00002ae:	0ff57513          	andi	a0,a0,255
{
e00002b2:	c606                	sw	ra,12(sp)
  uart_sendchar(s);
e00002b4:	3d1d                	jal	e00000ea <uart_sendchar>
}
e00002b6:	8522                	mv	a0,s0
e00002b8:	40b2                	lw	ra,12(sp)
e00002ba:	4422                	lw	s0,8(sp)
e00002bc:	0141                	addi	sp,sp,16
e00002be:	8082                	ret

e00002c0 <printf>:

  return pc;
}

int printf(const char *format, ...)
{
e00002c0:	711d                	addi	sp,sp,-96
e00002c2:	dc22                	sw	s0,56(sp)
  int pc;
  va_list va;

  va_start(va, format);
e00002c4:	00c0                	addi	s0,sp,68
{
e00002c6:	da26                	sw	s1,52(sp)
e00002c8:	d84a                	sw	s2,48(sp)
e00002ca:	d64e                	sw	s3,44(sp)
e00002cc:	d452                	sw	s4,40(sp)
e00002ce:	d256                	sw	s5,36(sp)
e00002d0:	d05a                	sw	s6,32(sp)
e00002d2:	ce5e                	sw	s7,28(sp)
e00002d4:	de06                	sw	ra,60(sp)
e00002d6:	cc62                	sw	s8,24(sp)
e00002d8:	8baa                	mv	s7,a0
e00002da:	c2ae                	sw	a1,68(sp)
e00002dc:	c4b2                	sw	a2,72(sp)
e00002de:	c6b6                	sw	a3,76(sp)
e00002e0:	c8ba                	sw	a4,80(sp)
e00002e2:	cabe                	sw	a5,84(sp)
e00002e4:	ccc2                	sw	a6,88(sp)
e00002e6:	cec6                	sw	a7,92(sp)
  va_start(va, format);
e00002e8:	c622                	sw	s0,12(sp)
  register int pc = 0;
e00002ea:	4b01                	li	s6,0
    if (*format == '%')
e00002ec:	02500493          	li	s1,37
      if (*format == '-')
e00002f0:	02d00913          	li	s2,45
      while (*format == '0')
e00002f4:	03000993          	li	s3,48
        width *= 10;
e00002f8:	4a29                	li	s4,10
        pc += qprints (out, s?s:"(null)", width, pad);
e00002fa:	00000a97          	auipc	s5,0x0
e00002fe:	292a8a93          	addi	s5,s5,658 # e000058c <main+0x7e>
  for (; *format != 0; ++format)
e0000302:	000bc783          	lbu	a5,0(s7)
e0000306:	ef91                	bnez	a5,e0000322 <printf+0x62>

  va_end(va);

  return pc;

}
e0000308:	50f2                	lw	ra,60(sp)
e000030a:	5462                	lw	s0,56(sp)
e000030c:	855a                	mv	a0,s6
e000030e:	54d2                	lw	s1,52(sp)
e0000310:	5942                	lw	s2,48(sp)
e0000312:	59b2                	lw	s3,44(sp)
e0000314:	5a22                	lw	s4,40(sp)
e0000316:	5a92                	lw	s5,36(sp)
e0000318:	5b02                	lw	s6,32(sp)
e000031a:	4bf2                	lw	s7,28(sp)
e000031c:	4c62                	lw	s8,24(sp)
e000031e:	6125                	addi	sp,sp,96
e0000320:	8082                	ret
    if (*format == '%')
e0000322:	0e979663          	bne	a5,s1,e000040e <printf+0x14e>
      if (*format == '\0') break;
e0000326:	001bc683          	lbu	a3,1(s7)
e000032a:	def9                	beqz	a3,e0000308 <printf+0x48>
e000032c:	001b8793          	addi	a5,s7,1
      if (*format == '%') goto out;
e0000330:	0c968e63          	beq	a3,s1,e000040c <printf+0x14c>
      width = pad = 0;
e0000334:	4701                	li	a4,0
      if (*format == '-')
e0000336:	01269563          	bne	a3,s2,e0000340 <printf+0x80>
        ++format;
e000033a:	002b8793          	addi	a5,s7,2
        pad = PAD_RIGHT;
e000033e:	4705                	li	a4,1
e0000340:	8bbe                	mv	s7,a5
      while (*format == '0')
e0000342:	000bc783          	lbu	a5,0(s7)
e0000346:	001b8693          	addi	a3,s7,1
e000034a:	03378b63          	beq	a5,s3,e0000380 <printf+0xc0>
      width = pad = 0;
e000034e:	4681                	li	a3,0
      for ( ; *format >= '0' && *format <= '9'; ++format) {
e0000350:	4525                	li	a0,9
e0000352:	000bc783          	lbu	a5,0(s7)
e0000356:	001b8813          	addi	a6,s7,1
e000035a:	fd078613          	addi	a2,a5,-48
e000035e:	0ff67593          	andi	a1,a2,255
e0000362:	02b57363          	bleu	a1,a0,e0000388 <printf+0xc8>
      if( *format == 's' ) {
e0000366:	07300613          	li	a2,115
e000036a:	02c79463          	bne	a5,a2,e0000392 <printf+0xd2>
        register char *s = va_arg(va, char*);
e000036e:	4008                	lw	a0,0(s0)
e0000370:	00440c13          	addi	s8,s0,4
        pc += qprints (out, s?s:"(null)", width, pad);
e0000374:	e111                	bnez	a0,e0000378 <printf+0xb8>
e0000376:	8556                	mv	a0,s5
e0000378:	863a                	mv	a2,a4
e000037a:	85b6                	mv	a1,a3
        pc += qprints (out, scr, width, pad);
e000037c:	3bbd                	jal	e00000fa <qprints.constprop.2>
e000037e:	a035                	j	e00003aa <printf+0xea>
        pad |= PAD_ZERO;
e0000380:	00276713          	ori	a4,a4,2
        ++format;
e0000384:	8bb6                	mv	s7,a3
e0000386:	bf75                	j	e0000342 <printf+0x82>
        width *= 10;
e0000388:	034686b3          	mul	a3,a3,s4
      for ( ; *format >= '0' && *format <= '9'; ++format) {
e000038c:	8bc2                	mv	s7,a6
        width += *format - '0';
e000038e:	96b2                	add	a3,a3,a2
e0000390:	b7c9                	j	e0000352 <printf+0x92>
      if( *format == 'd' ) {
e0000392:	06400613          	li	a2,100
e0000396:	00c79e63          	bne	a5,a2,e00003b2 <printf+0xf2>
        pc += qprinti (out, va_arg(va, int), 10, 1, width, pad, 'a');
e000039a:	00440c13          	addi	s8,s0,4
e000039e:	06100793          	li	a5,97
e00003a2:	4605                	li	a2,1
e00003a4:	45a9                	li	a1,10
e00003a6:	4008                	lw	a0,0(s0)
e00003a8:	3be5                	jal	e00001a0 <qprinti.constprop.1>
e00003aa:	9b2a                	add	s6,s6,a0
e00003ac:	8462                	mv	s0,s8
  for (; *format != 0; ++format)
e00003ae:	0b85                	addi	s7,s7,1
e00003b0:	bf89                	j	e0000302 <printf+0x42>
      if( *format == 'u' ) {
e00003b2:	07500613          	li	a2,117
e00003b6:	00c79863          	bne	a5,a2,e00003c6 <printf+0x106>
        pc += qprinti (out, va_arg(va, unsigned int), 10, 0, width, pad, 'a');
e00003ba:	00440c13          	addi	s8,s0,4
e00003be:	06100793          	li	a5,97
e00003c2:	4601                	li	a2,0
e00003c4:	b7c5                	j	e00003a4 <printf+0xe4>
      if( *format == 'x' ) {
e00003c6:	07800613          	li	a2,120
e00003ca:	00c79963          	bne	a5,a2,e00003dc <printf+0x11c>
        pc += qprinti (out, va_arg(va, uint32_t), 16, 0, width, pad, 'a');
e00003ce:	00440c13          	addi	s8,s0,4
e00003d2:	06100793          	li	a5,97
        pc += qprinti (out, va_arg(va, uint32_t), 16, 0, width, pad, 'A');
e00003d6:	4601                	li	a2,0
e00003d8:	45c1                	li	a1,16
e00003da:	b7f1                	j	e00003a6 <printf+0xe6>
      if( *format == 'X' ) {
e00003dc:	05800613          	li	a2,88
e00003e0:	00c79763          	bne	a5,a2,e00003ee <printf+0x12e>
        pc += qprinti (out, va_arg(va, uint32_t), 16, 0, width, pad, 'A');
e00003e4:	00440c13          	addi	s8,s0,4
e00003e8:	04100793          	li	a5,65
e00003ec:	b7ed                	j	e00003d6 <printf+0x116>
      if( *format == 'c' ) {
e00003ee:	06300613          	li	a2,99
e00003f2:	fac79ee3          	bne	a5,a2,e00003ae <printf+0xee>
        scr[0] = va_arg(va, int);
e00003f6:	401c                	lw	a5,0(s0)
e00003f8:	00440c13          	addi	s8,s0,4
        scr[1] = '\0';
e00003fc:	000104a3          	sb	zero,9(sp)
        scr[0] = va_arg(va, int);
e0000400:	00f10423          	sb	a5,8(sp)
        pc += qprints (out, scr, width, pad);
e0000404:	863a                	mv	a2,a4
e0000406:	85b6                	mv	a1,a3
e0000408:	0028                	addi	a0,sp,8
e000040a:	bf8d                	j	e000037c <printf+0xbc>
      ++format;
e000040c:	8bbe                	mv	s7,a5
  uart_sendchar(s);
e000040e:	000bc503          	lbu	a0,0(s7)
      ++pc;
e0000412:	0b05                	addi	s6,s6,1
  uart_sendchar(s);
e0000414:	39d9                	jal	e00000ea <uart_sendchar>
e0000416:	bf61                	j	e00003ae <printf+0xee>

e0000418 <simple_exc_handler>:
  printf("EXCEPTION!!!\r\n");
e0000418:	00000517          	auipc	a0,0x0
e000041c:	17c50513          	addi	a0,a0,380 # e0000594 <main+0x86>
e0000420:	b545                	j	e00002c0 <printf>

e0000422 <puts>:

int puts(const char *s)
{
e0000422:	1141                	addi	sp,sp,-16
e0000424:	c422                	sw	s0,8(sp)
e0000426:	c226                	sw	s1,4(sp)
e0000428:	c606                	sw	ra,12(sp)
e000042a:	c04a                	sw	s2,0(sp)
e000042c:	84aa                	mv	s1,a0
  int i=0;

  while(s[i] != '\0')
e000042e:	842a                	mv	s0,a0
e0000430:	40940933          	sub	s2,s0,s1
e0000434:	0405                	addi	s0,s0,1
e0000436:	fff44503          	lbu	a0,-1(s0)
e000043a:	e911                	bnez	a0,e000044e <puts+0x2c>
  uart_sendchar(s);
e000043c:	4529                	li	a0,10
e000043e:	3175                	jal	e00000ea <uart_sendchar>
    putchar(s[i++]);

  putchar('\n');

  return i;
}
e0000440:	40b2                	lw	ra,12(sp)
e0000442:	4422                	lw	s0,8(sp)
e0000444:	854a                	mv	a0,s2
e0000446:	4492                	lw	s1,4(sp)
e0000448:	4902                	lw	s2,0(sp)
e000044a:	0141                	addi	sp,sp,16
e000044c:	8082                	ret
  uart_sendchar(s);
e000044e:	3971                	jal	e00000ea <uart_sendchar>
e0000450:	b7c5                	j	e0000430 <puts+0xe>

void __attribute__((weak)) external_irq_handler(void)  {
}
e0000452:	30200073          	mret

e0000456 <external_irq_handler>:

  return 0;

}

void external_irq_handler(void) {
e0000456:	1141                	addi	sp,sp,-16
e0000458:	c43a                	sw	a4,8(sp)
e000045a:	c23e                	sw	a5,4(sp)
e000045c:	c636                	sw	a3,12(sp)
  int * pointer;
  int mbox_id = 159;
  pointer = (int *) 0xC8200004;
  while(*pointer!=mbox_id)
e000045e:	c8200737          	lui	a4,0xc8200
e0000462:	09f00793          	li	a5,159
e0000466:	4354                	lw	a3,4(a4)
e0000468:	00f69c63          	bne	a3,a5,e0000480 <external_irq_handler+0x2a>
  *pointer = mbox_id;
  pointer = (int *) 0x10404020;
  *pointer = 0x0;
e000046c:	104047b7          	lui	a5,0x10404
e0000470:	0207a023          	sw	zero,32(a5) # 10404020 <tohost+0x103e4018>
}
e0000474:	46b2                	lw	a3,12(sp)
e0000476:	4722                	lw	a4,8(sp)
e0000478:	4792                	lw	a5,4(sp)
e000047a:	0141                	addi	sp,sp,16
e000047c:	30200073          	mret
  *pointer = mbox_id;
e0000480:	c35c                	sw	a5,4(a4)
e0000482:	b7d5                	j	e0000466 <external_irq_handler+0x10>

e0000484 <default_exc_handler>:
  jal x0, sleep_loop //exc handler
e0000484:	0840006f          	j	e0000508 <sleep_loop>

e0000488 <reset_handler>:
  mv  x1, x0
e0000488:	00000093          	li	ra,0
  mv  x2, x1
e000048c:	8106                	mv	sp,ra
  mv  x3, x1
e000048e:	8186                	mv	gp,ra
  mv  x4, x1
e0000490:	8206                	mv	tp,ra
  mv  x5, x1
e0000492:	8286                	mv	t0,ra
  mv  x6, x1
e0000494:	8306                	mv	t1,ra
  mv  x7, x1
e0000496:	8386                	mv	t2,ra
  mv  x8, x1
e0000498:	8406                	mv	s0,ra
  mv  x9, x1
e000049a:	8486                	mv	s1,ra
  mv x10, x1
e000049c:	8506                	mv	a0,ra
  mv x11, x1
e000049e:	8586                	mv	a1,ra
  mv x12, x1
e00004a0:	8606                	mv	a2,ra
  mv x13, x1
e00004a2:	8686                	mv	a3,ra
  mv x14, x1
e00004a4:	8706                	mv	a4,ra
  mv x15, x1
e00004a6:	8786                	mv	a5,ra
  mv x16, x1
e00004a8:	8806                	mv	a6,ra
  mv x17, x1
e00004aa:	8886                	mv	a7,ra
  mv x18, x1
e00004ac:	8906                	mv	s2,ra
  mv x19, x1
e00004ae:	8986                	mv	s3,ra
  mv x20, x1
e00004b0:	8a06                	mv	s4,ra
  mv x21, x1
e00004b2:	8a86                	mv	s5,ra
  mv x22, x1
e00004b4:	8b06                	mv	s6,ra
  mv x23, x1
e00004b6:	8b86                	mv	s7,ra
  mv x24, x1
e00004b8:	8c06                	mv	s8,ra
  mv x25, x1
e00004ba:	8c86                	mv	s9,ra
  mv x26, x1
e00004bc:	8d06                	mv	s10,ra
  mv x27, x1
e00004be:	8d86                	mv	s11,ra
  mv x28, x1
e00004c0:	8e06                	mv	t3,ra
  mv x29, x1
e00004c2:	8e86                	mv	t4,ra
  mv x30, x1
e00004c4:	8f06                	mv	t5,ra
  mv x31, x1
e00004c6:	8f86                	mv	t6,ra
  la   x2, _stack_start
e00004c8:	00010117          	auipc	sp,0x10
e00004cc:	b3810113          	addi	sp,sp,-1224 # e0010000 <_stack_start>

e00004d0 <_start>:
  la x26, _bss_start
e00004d0:	00000d17          	auipc	s10,0x0
e00004d4:	10cd0d13          	addi	s10,s10,268 # e00005dc <_bss_end>
  la x27, _bss_end
e00004d8:	00000d97          	auipc	s11,0x0
e00004dc:	104d8d93          	addi	s11,s11,260 # e00005dc <_bss_end>
  bge x26, x27, zero_loop_end
e00004e0:	01bd5763          	ble	s11,s10,e00004ee <main_entry>

e00004e4 <zero_loop>:
  sw x0, 0(x26)
e00004e4:	000d2023          	sw	zero,0(s10)
  addi x26, x26, 4
e00004e8:	0d11                	addi	s10,s10,4
  ble x26, x27, zero_loop
e00004ea:	ffaddde3          	ble	s10,s11,e00004e4 <zero_loop>

e00004ee <main_entry>:
  addi x10, x0, 0
e00004ee:	00000513          	li	a0,0
  addi x11, x0, 0
e00004f2:	00000593          	li	a1,0
  jal x1, main
e00004f6:	018000ef          	jal	ra,e000050e <main>
  li a0, 0xc11c0018
e00004fa:	c11c0537          	lui	a0,0xc11c0
e00004fe:	01850513          	addi	a0,a0,24 # c11c0018 <pulp__FC+0xc11c0019>
  li t0, 0x1	
e0000502:	4285                	li	t0,1
  sw t0, 0(a0)
e0000504:	00552023          	sw	t0,0(a0)

e0000508 <sleep_loop>:
  wfi
e0000508:	10500073          	wfi
  j sleep_loop
e000050c:	bff5                	j	e0000508 <sleep_loop>

e000050e <main>:
int main(int argc, char **argv) {
e000050e:	1141                	addi	sp,sp,-16
  uart_set_cfg(0,(test_freq/baud_rate)>>4);
e0000510:	45d5                	li	a1,21
e0000512:	4501                	li	a0,0
int main(int argc, char **argv) {
e0000514:	c606                	sw	ra,12(sp)
e0000516:	c422                	sw	s0,8(sp)
e0000518:	c226                	sw	s1,4(sp)
  uart_set_cfg(0,(test_freq/baud_rate)>>4);
e000051a:	36ad                	jal	e0000084 <uart_set_cfg>
  asm volatile("csrw mtvec, %0\n" : : "r"(val));
e000051c:	e00007b7          	lui	a5,0xe0000
e0000520:	0785                	addi	a5,a5,1
e0000522:	30579073          	csrw	mtvec,a5
  asm volatile("csrw  mstatus, %0\n" : : "r"(val_1));
e0000526:	6789                	lui	a5,0x2
e0000528:	80878793          	addi	a5,a5,-2040 # 1808 <_min_stack-0x7f8>
e000052c:	30079073          	csrw	mstatus,a5
  asm volatile("csrw  mie, %0\n"     : : "r"(val_2));
e0000530:	6785                	lui	a5,0x1
e0000532:	80078793          	addi	a5,a5,-2048 # 800 <_min_stack-0x1800>
e0000536:	30479073          	csrw	0x304,a5
 *plic_prio  = 1;                   // Set mbox interrupt priority to 1
e000053a:	4405                	li	s0,1
e000053c:	c80007b7          	lui	a5,0xc8000
e0000540:	2687ae23          	sw	s0,636(a5) # c800027c <pulp__FC+0xc800027d>
 *plic_en    = 0x80000000;          // Enable interrupt
e0000544:	800004b7          	lui	s1,0x80000
e0000548:	c80027b7          	lui	a5,0xc8002
e000054c:	cb84                	sw	s1,16(a5)
  uart_set_cfg(0,(test_freq/baud_rate)>>4);
e000054e:	45d5                	li	a1,21
e0000550:	4501                	li	a0,0
e0000552:	3e0d                	jal	e0000084 <uart_set_cfg>
  *pointer = 0x1;
e0000554:	0c0007b7          	lui	a5,0xc000
e0000558:	d780                	sw	s0,40(a5)
  *pointer =  0x400;
e000055a:	0c002737          	lui	a4,0xc002
e000055e:	40000693          	li	a3,1024
e0000562:	08d72023          	sw	a3,128(a4) # c002080 <tohost+0xbfe2078>
  *pointer = 0x80000000;
e0000566:	104046b7          	lui	a3,0x10404
e000056a:	c284                	sw	s1,0(a3)
  *pointer = 0x1;
e000056c:	d2c0                	sw	s0,36(a3)
  asm volatile ("wfi");
e000056e:	10500073          	wfi
  *pointer = 0x0;
e0000572:	08072023          	sw	zero,128(a4)
  *pointer = 0x0;
e0000576:	0207a423          	sw	zero,40(a5) # c000028 <tohost+0xbfe0020>
  printf("[SECD] Booted CVA6 core 0, going wfi\r\n");
e000057a:	00000517          	auipc	a0,0x0
e000057e:	02a50513          	addi	a0,a0,42 # e00005a4 <main+0x96>
e0000582:	3b3d                	jal	e00002c0 <printf>
  uart_wait_tx_done();
e0000584:	3b19                	jal	e000029a <uart_wait_tx_done>
    asm volatile ("wfi");
e0000586:	10500073          	wfi
e000058a:	bff5                	j	e0000586 <main+0x78>

Disassembly of section .rodata:

e000058c <.rodata>:
e000058c:	6e28                	flw	fa0,88(a2)
e000058e:	6c75                	lui	s8,0x1d
e0000590:	296c                	fld	fa1,208(a0)
e0000592:	0000                	unimp
e0000594:	5845                	li	a6,-15
e0000596:	54504543          	fmadd.h	a0,zero,t0,a0,rmm
e000059a:	4f49                	li	t5,18
e000059c:	214e                	fld	ft2,208(sp)
e000059e:	2121                	jal	e00009a6 <_bss_end+0x3ca>
e00005a0:	0a0d                	addi	s4,s4,3
e00005a2:	0000                	unimp
e00005a4:	4345535b          	p.mac.zl.sh	t1,a0,s4,ra
e00005a8:	5d44                	lw	s1,60(a0)
e00005aa:	4220                	lw	s0,64(a2)
e00005ac:	65746f6f          	jal	t5,e0047402 <fromhost+0x373f2>
e00005b0:	2064                	fld	fs1,192(s0)
e00005b2:	36415643          	0x36415643
e00005b6:	6320                	flw	fs0,64(a4)
e00005b8:	2065726f          	jal	tp,e00577be <fromhost+0x477ae>
e00005bc:	2c30                	fld	fa2,88(s0)
e00005be:	6720                	flw	fs0,72(a4)
e00005c0:	676e696f          	jal	s2,e00e6c36 <fromhost+0xd6c26>
e00005c4:	7720                	flw	fs0,104(a4)
e00005c6:	6966                	flw	fs2,88(sp)
e00005c8:	0a0d                	addi	s4,s4,3
	...

Disassembly of section .data:

e00005cc <remu10_table>:
e00005cc:	0100                	addi	s0,sp,128
e00005ce:	0202                	slli	tp,tp,0x0
e00005d0:	05040303          	lb	t1,80(s0)
e00005d4:	0605                	addi	a2,a2,1
e00005d6:	08080707          	0x8080707
e00005da:	0009                	c.addi	zero,2

Disassembly of section .stack:

e0008000 <_stack-0x2000>:
	...

Disassembly of section .debug_frame:

00000000 <.debug_frame>:
   0:	000c                	addi	a1,sp,0
   2:	0000                	unimp
   4:	ffff                	0xffff
   6:	ffff                	0xffff
   8:	7c010003          	lb	zero,1984(sp)
   c:	0c01                	addi	s8,s8,0
   e:	0002                	0x2
  10:	000c                	addi	a1,sp,0
  12:	0000                	unimp
  14:	0000                	unimp
  16:	0000                	unimp
  18:	0084                	addi	s1,sp,64
  1a:	e000                	fsw	fs0,0(s0)
  1c:	002e                	0x2e
  1e:	0000                	unimp
  20:	000c                	addi	a1,sp,0
  22:	0000                	unimp
  24:	0000                	unimp
  26:	0000                	unimp
  28:	00b2                	slli	ra,ra,0xc
  2a:	e000                	fsw	fs0,0(s0)
  2c:	0026                	0x26
  2e:	0000                	unimp
  30:	000c                	addi	a1,sp,0
  32:	0000                	unimp
  34:	0000                	unimp
  36:	0000                	unimp
  38:	00d8                	addi	a4,sp,68
  3a:	e000                	fsw	fs0,0(s0)
  3c:	0012                	0x12
  3e:	0000                	unimp
  40:	000c                	addi	a1,sp,0
  42:	0000                	unimp
  44:	0000                	unimp
  46:	0000                	unimp
  48:	00ea                	slli	ra,ra,0x1a
  4a:	e000                	fsw	fs0,0(s0)
  4c:	0010                	addi	a2,sp,0
  4e:	0000                	unimp
  50:	0058                	addi	a4,sp,4
  52:	0000                	unimp
  54:	0000                	unimp
  56:	0000                	unimp
  58:	00fa                	slli	ra,ra,0x1e
  5a:	e000                	fsw	fs0,0(s0)
  5c:	00a6                	slli	ra,ra,0x9
  5e:	0000                	unimp
  60:	0204                	addi	s1,sp,256
  62:	0000                	unimp
  64:	0e00                	addi	s0,sp,784
  66:	0420                	addi	s0,sp,520
  68:	000c                	addi	a1,sp,0
  6a:	0000                	unimp
  6c:	0288                	addi	a0,sp,320
  6e:	0389                	addi	t2,t2,2
  70:	0492                	slli	s1,s1,0x4
  72:	0181                	addi	gp,gp,0
  74:	06940593          	addi	a1,s0,105
  78:	5a04                	lw	s1,48(a2)
  7a:	0000                	unimp
  7c:	0a00                	addi	s0,sp,272
  7e:	04c1                	addi	s1,s1,16
  80:	0002                	0x2
  82:	0000                	unimp
  84:	04c8                	addi	a0,sp,580
  86:	0002                	0x2
  88:	0000                	unimp
  8a:	04c9                	addi	s1,s1,18
  8c:	0002                	0x2
  8e:	0000                	unimp
  90:	04d2                	slli	s1,s1,0x14
  92:	0002                	0x2
  94:	0000                	unimp
  96:	000204d3          	fadd.s	fs1,ft4,ft0,rne
  9a:	0000                	unimp
  9c:	04d4                	addi	a3,sp,580
  9e:	0002                	0x2
  a0:	0000                	unimp
  a2:	000e                	0xe
  a4:	0204                	addi	s1,sp,256
  a6:	0000                	unimp
  a8:	0b00                	addi	s0,sp,400
  aa:	0000                	unimp
  ac:	0040                	addi	s0,sp,4
  ae:	0000                	unimp
  b0:	0000                	unimp
  b2:	0000                	unimp
  b4:	01a0                	addi	s0,sp,200
  b6:	e000                	fsw	fs0,0(s0)
  b8:	00fa                	slli	ra,ra,0x1e
  ba:	0000                	unimp
  bc:	0204                	addi	s1,sp,256
  be:	0000                	unimp
  c0:	0e00                	addi	s0,sp,784
  c2:	0440                	addi	s0,sp,516
  c4:	0006                	0x6
  c6:	0000                	unimp
  c8:	0389                	addi	t2,t2,2
  ca:	0181                	addi	gp,gp,0
  cc:	0288                	addi	a0,sp,320
  ce:	1604                	addi	s1,sp,800
  d0:	0000                	unimp
  d2:	0a00                	addi	s0,sp,272
  d4:	04c1                	addi	s1,s1,16
  d6:	0002                	0x2
  d8:	0000                	unimp
  da:	04c8                	addi	a0,sp,580
  dc:	0002                	0x2
  de:	0000                	unimp
  e0:	04c9                	addi	s1,s1,18
  e2:	0002                	0x2
  e4:	0000                	unimp
  e6:	000e                	0xe
  e8:	0204                	addi	s1,sp,256
  ea:	0000                	unimp
  ec:	0b00                	addi	s0,sp,400
  ee:	0000                	unimp
  f0:	000c                	addi	a1,sp,0
  f2:	0000                	unimp
  f4:	0000                	unimp
  f6:	0000                	unimp
  f8:	029a                	slli	t0,t0,0x6
  fa:	e000                	fsw	fs0,0(s0)
  fc:	000e                	0xe
  fe:	0000                	unimp
 100:	0034                	addi	a3,sp,8
 102:	0000                	unimp
 104:	0000                	unimp
 106:	0000                	unimp
 108:	02a8                	addi	a0,sp,328
 10a:	e000                	fsw	fs0,0(s0)
 10c:	0018                	addi	a4,sp,0
 10e:	0000                	unimp
 110:	0204                	addi	s1,sp,256
 112:	0000                	unimp
 114:	0e00                	addi	s0,sp,784
 116:	0410                	addi	a2,sp,512
 118:	0002                	0x2
 11a:	0000                	unimp
 11c:	0288                	addi	a0,sp,320
 11e:	0804                	addi	s1,sp,16
 120:	0000                	unimp
 122:	8100                	0x8100
 124:	0401                	addi	s0,s0,0
 126:	0006                	0x6
 128:	0000                	unimp
 12a:	04c1                	addi	s1,s1,16
 12c:	0002                	0x2
 12e:	0000                	unimp
 130:	04c8                	addi	a0,sp,580
 132:	0002                	0x2
 134:	0000                	unimp
 136:	000e                	0xe
 138:	007c                	addi	a5,sp,12
 13a:	0000                	unimp
 13c:	0000                	unimp
 13e:	0000                	unimp
 140:	02c0                	addi	s0,sp,324
 142:	e000                	fsw	fs0,0(s0)
 144:	0158                	addi	a4,sp,132
 146:	0000                	unimp
 148:	0204                	addi	s1,sp,256
 14a:	0000                	unimp
 14c:	0e00                	addi	s0,sp,784
 14e:	0460                	addi	s0,sp,524
 150:	0002                	0x2
 152:	0000                	unimp
 154:	0a88                	addi	a0,sp,336
 156:	1404                	addi	s1,sp,544
 158:	0000                	unimp
 15a:	8900                	0x8900
 15c:	930c920b          	p.lh	tp,-1744(s9!)
 160:	940d                	srai	s0,s0,0x23
 162:	950e                	add	a0,a0,gp
 164:	9710960f          	0x9710960f
 168:	8111                	srli	a0,a0,0x4
 16a:	9809                	andi	s0,s0,-30
 16c:	0412                	slli	s0,s0,0x4
 16e:	0032                	0x32
 170:	0000                	unimp
 172:	c10a                	sw	sp,128(sp)
 174:	0204                	addi	s1,sp,256
 176:	0000                	unimp
 178:	c800                	sw	s0,16(s0)
 17a:	0404                	addi	s1,sp,512
 17c:	0000                	unimp
 17e:	c900                	sw	s0,16(a0)
 180:	0204                	addi	s1,sp,256
 182:	0000                	unimp
 184:	d200                	sw	s0,32(a2)
 186:	0204                	addi	s1,sp,256
 188:	0000                	unimp
 18a:	d300                	sw	s0,32(a4)
 18c:	0204                	addi	s1,sp,256
 18e:	0000                	unimp
 190:	d400                	sw	s0,40(s0)
 192:	0204                	addi	s1,sp,256
 194:	0000                	unimp
 196:	d500                	sw	s0,40(a0)
 198:	0204                	addi	s1,sp,256
 19a:	0000                	unimp
 19c:	d600                	sw	s0,40(a2)
 19e:	0204                	addi	s1,sp,256
 1a0:	0000                	unimp
 1a2:	d700                	sw	s0,40(a4)
 1a4:	0204                	addi	s1,sp,256
 1a6:	0000                	unimp
 1a8:	d800                	sw	s0,48(s0)
 1aa:	0204                	addi	s1,sp,256
 1ac:	0000                	unimp
 1ae:	0e00                	addi	s0,sp,784
 1b0:	0400                	addi	s0,sp,512
 1b2:	0002                	0x2
 1b4:	0000                	unimp
 1b6:	000c000b          	p.lb	zero,0(s8!) # 1d000 <_stack_len+0x15000>
 1ba:	0000                	unimp
 1bc:	0000                	unimp
 1be:	0000                	unimp
 1c0:	0418                	addi	a4,sp,512
 1c2:	e000                	fsw	fs0,0(s0)
 1c4:	000a                	0xa
 1c6:	0000                	unimp
 1c8:	0048                	addi	a0,sp,4
 1ca:	0000                	unimp
 1cc:	0000                	unimp
 1ce:	0000                	unimp
 1d0:	0422                	slli	s0,s0,0x8
 1d2:	e000                	fsw	fs0,0(s0)
 1d4:	0030                	addi	a2,sp,8
 1d6:	0000                	unimp
 1d8:	0204                	addi	s1,sp,256
 1da:	0000                	unimp
 1dc:	0e00                	addi	s0,sp,784
 1de:	0410                	addi	a2,sp,512
 1e0:	0008                	addi	a0,sp,0
 1e2:	0000                	unimp
 1e4:	0288                	addi	a0,sp,320
 1e6:	0389                	addi	t2,t2,2
 1e8:	0181                	addi	gp,gp,0
 1ea:	0492                	slli	s1,s1,0x4
 1ec:	1604                	addi	s1,sp,800
 1ee:	0000                	unimp
 1f0:	0a00                	addi	s0,sp,272
 1f2:	04c1                	addi	s1,s1,16
 1f4:	0002                	0x2
 1f6:	0000                	unimp
 1f8:	04c8                	addi	a0,sp,580
 1fa:	0004                	addi	s1,sp,0
 1fc:	0000                	unimp
 1fe:	04c9                	addi	s1,s1,18
 200:	0002                	0x2
 202:	0000                	unimp
 204:	04d2                	slli	s1,s1,0x14
 206:	0002                	0x2
 208:	0000                	unimp
 20a:	000e                	0xe
 20c:	0204                	addi	s1,sp,256
 20e:	0000                	unimp
 210:	0b00                	addi	s0,sp,400
 212:	0000                	unimp
 214:	000c                	addi	a1,sp,0
 216:	0000                	unimp
 218:	0000                	unimp
 21a:	0000                	unimp
 21c:	0452                	slli	s0,s0,0x14
 21e:	e000                	fsw	fs0,0(s0)
 220:	0004                	addi	s1,sp,0
 222:	0000                	unimp
 224:	000c                	addi	a1,sp,0
 226:	0000                	unimp
 228:	ffff                	0xffff
 22a:	ffff                	0xffff
 22c:	7c010003          	lb	zero,1984(sp)
 230:	0c01                	addi	s8,s8,0
 232:	0002                	0x2
 234:	0020                	addi	s0,sp,8
 236:	0000                	unimp
 238:	0224                	addi	s1,sp,264
 23a:	0000                	unimp
 23c:	050e                	slli	a0,a0,0x3
 23e:	e000                	fsw	fs0,0(s0)
 240:	007e                	0x7e
 242:	0000                	unimp
 244:	0204                	addi	s1,sp,256
 246:	0000                	unimp
 248:	0e00                	addi	s0,sp,784
 24a:	0410                	addi	a2,sp,512
 24c:	000a                	0xa
 24e:	0000                	unimp
 250:	0181                	addi	gp,gp,0
 252:	0288                	addi	a0,sp,320
 254:	0389                	addi	t2,t2,2
 256:	0000                	unimp
 258:	0040                	addi	s0,sp,4
 25a:	0000                	unimp
 25c:	0224                	addi	s1,sp,264
 25e:	0000                	unimp
 260:	0456                	slli	s0,s0,0x15
 262:	e000                	fsw	fs0,0(s0)
 264:	002e                	0x2e
 266:	0000                	unimp
 268:	0204                	addi	s1,sp,256
 26a:	0000                	unimp
 26c:	0e00                	addi	s0,sp,784
 26e:	0410                	addi	a2,sp,512
 270:	0006                	0x6
 272:	0000                	unimp
 274:	028e                	slli	t0,t0,0x3
 276:	018d038f          	0x18d038f
 27a:	1804                	addi	s1,sp,48
 27c:	0000                	unimp
 27e:	0a00                	addi	s0,sp,272
 280:	04cd                	addi	s1,s1,19
 282:	0002                	0x2
 284:	0000                	unimp
 286:	04ce                	slli	s1,s1,0x13
 288:	0002                	0x2
 28a:	0000                	unimp
 28c:	000204cf          	fnmadd.s	fs1,ft4,ft0,ft0,rne
 290:	0000                	unimp
 292:	000e                	0xe
 294:	0404                	addi	s1,sp,512
 296:	0000                	unimp
 298:	0b00                	addi	s0,sp,400
	...

Disassembly of section .debug_info:

00000000 <.debug_info>:
   0:	0850                	addi	a2,sp,20
   2:	0000                	unimp
   4:	0004                	addi	s1,sp,0
   6:	0000                	unimp
   8:	0000                	unimp
   a:	0104                	addi	s1,sp,128
   c:	0126                	slli	sp,sp,0x9
   e:	0000                	unimp
  10:	280c                	fld	fa1,16(s0)
  12:	0002                	0x2
  14:	0000                	unimp
  16:	0000                	unimp
  18:	8400                	0x8400
  1a:	0000                	unimp
  1c:	d2e0                	sw	s0,100(a3)
  1e:	00000003          	lb	zero,0(zero) # 0 <_min_stack-0x2000>
  22:	0000                	unimp
  24:	0200                	addi	s0,sp,256
  26:	0219                	addi	tp,tp,6
  28:	0000                	unimp
  2a:	2802                	fld	fa6,0(sp)
  2c:	0030                	addi	a2,sp,8
  2e:	0000                	unimp
  30:	01e60403          	lb	s0,30(a2)
  34:	0000                	unimp
  36:	2002                	fld	ft0,0(sp)
  38:	0002                	0x2
  3a:	0200                	addi	s0,sp,256
  3c:	00002563          	p.beqimm	zero,0,46 <_min_stack-0x1fba>
  40:	0400                	addi	s0,sp,512
  42:	0504                	addi	s1,sp,640
  44:	6e69                	lui	t3,0x1a
  46:	0074                	addi	a3,sp,12
  48:	0405                	addi	s0,s0,1
  4a:	00019c07          	0x19c07
  4e:	0500                	addi	s0,sp,640
  50:	0508                	addi	a0,sp,640
  52:	009e                	slli	ra,ra,0x7
  54:	0000                	unimp
  56:	1005                	c.addi	zero,-31
  58:	fa04                	fsw	fs1,48(a2)
  5a:	0000                	unimp
  5c:	0500                	addi	s0,sp,640
  5e:	0601                	addi	a2,a2,0
  60:	0108                	addi	a0,sp,128
  62:	0000                	unimp
  64:	0205                	addi	tp,tp,1
  66:	5e05                	li	t3,-31
  68:	0000                	unimp
  6a:	0500                	addi	s0,sp,640
  6c:	0504                	addi	s1,sp,640
  6e:	000000a3          	sb	zero,1(zero) # 1 <_min_stack-0x1fff>
  72:	0105                	addi	sp,sp,1
  74:	0608                	addi	a0,sp,768
  76:	0001                	nop
  78:	0200                	addi	s0,sp,256
  7a:	01b0                	addi	a2,sp,200
  7c:	0000                	unimp
  7e:	00843103          	0x843103
  82:	0000                	unimp
  84:	0205                	addi	tp,tp,1
  86:	0001be07          	fld	ft8,0(gp)
  8a:	0500                	addi	s0,sp,640
  8c:	0704                	addi	s1,sp,896
  8e:	00000197          	auipc	gp,0x0
  92:	0805                	addi	a6,a6,1
  94:	00019207          	0x19207
  98:	0600                	addi	s0,sp,768
  9a:	00a9                	addi	ra,ra,10
  9c:	0000                	unimp
  9e:	00a9                	addi	ra,ra,10
  a0:	0000                	unimp
  a2:	00004807          	0x4807
  a6:	0f00                	addi	s0,sp,912
  a8:	0500                	addi	s0,sp,640
  aa:	0801                	addi	a6,a6,0
  ac:	0000010f          	0x10f
  b0:	a908                	fsd	fa0,16(a0)
  b2:	0000                	unimp
  b4:	0900                	addi	s0,sp,144
  b6:	00ac                	addi	a1,sp,72
  b8:	0000                	unimp
  ba:	8001                	srli	s0,s0,0x0
  bc:	0099                	addi	ra,ra,6
  be:	0000                	unimp
  c0:	0305                	addi	t1,t1,1
  c2:	05cc                	addi	a1,sp,708
  c4:	e000                	fsw	fs0,0(s0)
  c6:	790a                	flw	fs2,160(sp)
  c8:	0002                	0x2
  ca:	0100                	addi	s0,sp,128
  cc:	0152                	slli	sp,sp,0x14
  ce:	0452                	slli	s0,s0,0x14
  d0:	e000                	fsw	fs0,0(s0)
  d2:	0004                	addi	s1,sp,0
  d4:	0000                	unimp
  d6:	9c01                	0x9c01
  d8:	0001b90b          	0x1b90b
  dc:	0100                	addi	s0,sp,128
  de:	0146                	slli	sp,sp,0x11
  e0:	0041                	c.addi	zero,16
  e2:	0000                	unimp
  e4:	0422                	slli	s0,s0,0x8
  e6:	e000                	fsw	fs0,0(s0)
  e8:	0030                	addi	a2,sp,8
  ea:	0000                	unimp
  ec:	9c01                	0x9c01
  ee:	015f 0000 730c      	0x730c0000015f
  f4:	0100                	addi	s0,sp,128
  f6:	0146                	slli	sp,sp,0x11
  f8:	015f 0000 0000      	0x15f
  fe:	0000                	unimp
 100:	690d                	lui	s2,0x3
 102:	0100                	addi	s0,sp,128
 104:	0148                	addi	a0,sp,132
 106:	0041                	c.addi	zero,16
 108:	0000                	unimp
 10a:	00000037          	lui	zero,0x0
 10e:	3d0e                	fld	fs10,224(sp)
 110:	0004                	addi	s1,sp,0
 112:	3c00                	fld	fs0,56(s0)
 114:	0004                	addi	s1,sp,0
 116:	04e0                	addi	s0,sp,588
 118:	0000                	unimp
 11a:	0100                	addi	s0,sp,128
 11c:	014d                	addi	sp,sp,19
 11e:	0000013b          	0x13b
 122:	00044d0f          	0x44d0f
 126:	7100                	flw	fs0,32(a0)
 128:	0000                	unimp
 12a:	1000                	addi	s0,sp,32
 12c:	0440                	addi	s0,sp,516
 12e:	e000                	fsw	fs0,0(s0)
 130:	04ae                	slli	s1,s1,0xb
 132:	0000                	unimp
 134:	0111                	addi	sp,sp,4
 136:	015a                	slli	sp,sp,0x16
 138:	003a                	0x3a
 13a:	1200                	addi	s0,sp,288
 13c:	043d                	addi	s0,s0,15
 13e:	0000                	unimp
 140:	044e                	slli	s0,s0,0x13
 142:	e000                	fsw	fs0,0(s0)
 144:	0004                	addi	s1,sp,0
 146:	0000                	unimp
 148:	4b01                	li	s6,0
 14a:	0f01                	addi	t5,t5,0
 14c:	044d                	addi	s0,s0,19
 14e:	0000                	unimp
 150:	0085                	addi	ra,ra,1
 152:	0000                	unimp
 154:	00045013          	srli	zero,s0,0x0
 158:	aee0                	fsd	fs0,216(a3)
 15a:	0004                	addi	s1,sp,0
 15c:	0000                	unimp
 15e:	1400                	addi	s0,sp,544
 160:	b004                	fsd	fs1,32(s0)
 162:	0000                	unimp
 164:	0b00                	addi	s0,sp,400
 166:	00d5                	addi	ra,ra,21
 168:	0000                	unimp
 16a:	3701                	jal	6a <_min_stack-0x1f96>
 16c:	4101                	li	sp,0
 16e:	0000                	unimp
 170:	c000                	sw	s0,0(s0)
 172:	0002                	0x2
 174:	58e0                	lw	s0,116(s1)
 176:	0001                	nop
 178:	0100                	addi	s0,sp,128
 17a:	779c                	flw	fa5,40(a5)
 17c:	0002                	0x2
 17e:	1500                	addi	s0,sp,672
 180:	0298                	addi	a4,sp,320
 182:	0000                	unimp
 184:	3701                	jal	84 <_min_stack-0x1f7c>
 186:	5f01                	li	t5,-32
 188:	0001                	nop
 18a:	9d00                	0x9d00
 18c:	0000                	unimp
 18e:	1600                	addi	s0,sp,800
 190:	00637017          	auipc	zero,0x637
 194:	3901                	jal	fffffda4 <pulp__FC+0xfffffda5>
 196:	4101                	li	sp,0
 198:	0000                	unimp
 19a:	1800                	addi	s0,sp,48
 19c:	6176                	flw	ft2,92(sp)
 19e:	0100                	addi	s0,sp,128
 1a0:	013a                	slli	sp,sp,0xe
 1a2:	0036                	0x36
 1a4:	0000                	unimp
 1a6:	7fac9103          	lh	sp,2042(s9)
 1aa:	7719                	lui	a4,0xfffe6
 1ac:	0002                	0x2
 1ae:	ea00                	fsw	fs0,16(a2)
 1b0:	0002                	0x2
 1b2:	d8e0                	sw	s0,116(s1)
 1b4:	0000                	unimp
 1b6:	0100                	addi	s0,sp,128
 1b8:	013e                	slli	sp,sp,0xf
 1ba:	871a                	mv	a4,t1
 1bc:	0002                	0x2
 1be:	0000                	unimp
 1c0:	00029d0f          	0x29d0f
 1c4:	be00                	fsd	fs0,56(a2)
 1c6:	0000                	unimp
 1c8:	0f00                	addi	s0,sp,912
 1ca:	0292                	slli	t0,t0,0x4
 1cc:	0000                	unimp
 1ce:	0160                	addi	s0,sp,140
 1d0:	0000                	unimp
 1d2:	0000d81b          	0xd81b
 1d6:	1c00                	addi	s0,sp,560
 1d8:	000002a7          	0x2a7
 1dc:	0226                	slli	tp,tp,0x9
 1de:	0000                	unimp
 1e0:	b21c                	fsd	fa5,32(a2)
 1e2:	0002                	0x2
 1e4:	7e00                	flw	fs0,56(a2)
 1e6:	0002                	0x2
 1e8:	1c00                	addi	s0,sp,560
 1ea:	02bd                	addi	t0,t0,15
 1ec:	0000                	unimp
 1ee:	02d6                	slli	t0,t0,0x15
 1f0:	0000                	unimp
 1f2:	c71d                	beqz	a4,220 <_min_stack-0x1de0>
 1f4:	0002                	0x2
 1f6:	0300                	addi	s0,sp,384
 1f8:	a891                	j	24c <_min_stack-0x1db4>
 1fa:	1e7f                	0x1e7f
 1fc:	02d2                	slli	t0,t0,0x14
 1fe:	0000                	unimp
 200:	040e                	slli	s0,s0,0x3
 202:	e000                	fsw	fs0,0(s0)
 204:	da1f 0002 f000      	0xf0000002da1f
 20a:	0000                	unimp
 20c:	1900                	addi	s0,sp,176
 20e:	0002                	0x2
 210:	1d00                	addi	s0,sp,688
 212:	000002db          	p.mac	t0,zero,zero,zero
 216:	5a01                	li	s4,-32
 218:	2000                	fld	fs0,0(s0)
 21a:	041c                	addi	a5,sp,512
 21c:	0000                	unimp
 21e:	040e                	slli	s0,s0,0x3
 220:	e000                	fsw	fs0,0(s0)
 222:	0108                	addi	a0,sp,128
 224:	0000                	unimp
 226:	2e01                	jal	536 <_min_stack-0x1aca>
 228:	6201                	lui	tp,0x0
 22a:	0002                	0x2
 22c:	0f00                	addi	s0,sp,912
 22e:	0428                	addi	a0,sp,520
 230:	0000                	unimp
 232:	00000317          	auipc	t1,0x0
 236:	0004330f          	0x4330f
 23a:	2b00                	fld	fs0,16(a4)
 23c:	21000003          	lb	zero,528(zero) # 210 <_min_stack-0x1df0>
 240:	043d                	addi	s0,s0,15
 242:	0000                	unimp
 244:	040e                	slli	s0,s0,0x3
 246:	e000                	fsw	fs0,0(s0)
 248:	0108                	addi	a0,sp,128
 24a:	0000                	unimp
 24c:	9801                	andi	s0,s0,-32
 24e:	00044d0f          	0x44d0f
 252:	2b00                	fld	fs0,16(a4)
 254:	13000003          	lb	zero,304(zero) # 130 <_min_stack-0x1ed0>
 258:	0416                	slli	s0,s0,0x5
 25a:	e000                	fsw	fs0,0(s0)
 25c:	04ae                	slli	s1,s1,0xb
 25e:	0000                	unimp
 260:	0000                	unimp
 262:	00037e13          	andi	t3,t1,0
 266:	86e0                	0x86e0
 268:	0005                	c.addi	zero,1
 26a:	1300                	addi	s0,sp,416
 26c:	03aa                	slli	t2,t2,0xa
 26e:	e000                	fsw	fs0,0(s0)
 270:	000006bf 22000000 	0x22000000000006bf
 278:	01a9                	addi	gp,gp,10
 27a:	0000                	unimp
 27c:	f301                	bnez	a4,17c <_min_stack-0x1e84>
 27e:	0041                	c.addi	zero,16
 280:	0000                	unimp
 282:	e701                	bnez	a4,28a <_min_stack-0x1d76>
 284:	0002                	0x2
 286:	2300                	fld	fs0,0(a4)
 288:	0074756f          	jal	a0,47a8e <tohost+0x27a86>
 28c:	f301                	bnez	a4,18c <_min_stack-0x1e74>
 28e:	000002e7          	jalr	t0,zero
 292:	9824                	0x9824
 294:	0002                	0x2
 296:	0100                	addi	s0,sp,128
 298:	00015ff3          	csrrwi	t6,0x0,2
 29c:	2300                	fld	fs0,0(a4)
 29e:	6176                	flw	ft2,92(sp)
 2a0:	0100                	addi	s0,sp,128
 2a2:	000036f3          	csrrc	a3,0x0,zero
 2a6:	2500                	fld	fs0,8(a0)
 2a8:	0085                	addi	ra,ra,1
 2aa:	0000                	unimp
 2ac:	f501                	bnez	a0,1b4 <_min_stack-0x1e4c>
 2ae:	0041                	c.addi	zero,16
 2b0:	0000                	unimp
 2b2:	7026                	flw	ft0,104(sp)
 2b4:	6461                	lui	s0,0x18
 2b6:	0100                	addi	s0,sp,128
 2b8:	41f5                	li	gp,29
 2ba:	0000                	unimp
 2bc:	2600                	fld	fs0,8(a2)
 2be:	6370                	flw	fa2,68(a4)
 2c0:	0100                	addi	s0,sp,128
 2c2:	41f6                	lw	gp,92(sp)
 2c4:	0000                	unimp
 2c6:	2600                	fld	fs0,8(a2)
 2c8:	00726373          	csrrsi	t1,0x7,4
 2cc:	f701                	bnez	a4,1d4 <_min_stack-0x1e2c>
 2ce:	000002f3          	0x2f3
 2d2:	74756f27          	0x74756f27
 2d6:	0100                	addi	s0,sp,128
 2d8:	012d                	addi	sp,sp,11
 2da:	1728                	addi	a0,sp,936
 2dc:	10010073          	0x10010073
 2e0:	ed01                	bnez	a0,2f8 <_min_stack-0x1d08>
 2e2:	0002                	0x2
 2e4:	0000                	unimp
 2e6:	1400                	addi	s0,sp,544
 2e8:	ed04                	fsw	fs1,24(a0)
 2ea:	0002                	0x2
 2ec:	1400                	addi	s0,sp,544
 2ee:	a904                	fsd	fs1,16(a0)
 2f0:	0000                	unimp
 2f2:	0600                	addi	s0,sp,768
 2f4:	00a9                	addi	ra,ra,10
 2f6:	0000                	unimp
 2f8:	00000303          	lb	t1,0(zero) # 0 <_min_stack-0x2000>
 2fc:	00004807          	0x4807
 300:	0100                	addi	s0,sp,128
 302:	2200                	fld	fs0,0(a2)
 304:	00dc                	addi	a5,sp,68
 306:	0000                	unimp
 308:	b901                	j	ffffff18 <pulp__FC+0xffffff19>
 30a:	0041                	c.addi	zero,16
 30c:	0000                	unimp
 30e:	a201                	j	40e <_min_stack-0x1bf2>
 310:	23000003          	lb	zero,560(zero) # 230 <_min_stack-0x1dd0>
 314:	0074756f          	jal	a0,47b1a <tohost+0x27b12>
 318:	b901                	j	ffffff28 <pulp__FC+0xffffff29>
 31a:	000002e7          	jalr	t0,zero
 31e:	01006923          	p.sw	a6,s2(zero)
 322:	41b9                	li	gp,14
 324:	0000                	unimp
 326:	2300                	fld	fs0,0(a4)
 328:	0062                	0x62
 32a:	b901                	j	ffffff3a <pulp__FC+0xffffff3b>
 32c:	0041                	c.addi	zero,16
 32e:	0000                	unimp
 330:	00677323          	0x677323
 334:	b901                	j	ffffff44 <pulp__FC+0xffffff45>
 336:	0041                	c.addi	zero,16
 338:	0000                	unimp
 33a:	8524                	0x8524
 33c:	0000                	unimp
 33e:	0100                	addi	s0,sp,128
 340:	41b9                	li	gp,14
 342:	0000                	unimp
 344:	2300                	fld	fs0,0(a4)
 346:	6170                	flw	fa2,68(a0)
 348:	0064                	addi	s1,sp,12
 34a:	b901                	j	ffffff5a <pulp__FC+0xffffff5b>
 34c:	0041                	c.addi	zero,16
 34e:	0000                	unimp
 350:	c624                	sw	s1,72(a2)
 352:	0000                	unimp
 354:	0100                	addi	s0,sp,128
 356:	a9b9                	j	7b4 <_min_stack-0x184c>
 358:	0000                	unimp
 35a:	2500                	fld	fs0,8(a0)
 35c:	01d1                	addi	gp,gp,20
 35e:	0000                	unimp
 360:	bb01                	j	70 <_min_stack-0x1f90>
 362:	03a2                	slli	t2,t2,0x8
 364:	0000                	unimp
 366:	7326                	flw	ft6,104(sp)
 368:	0100                	addi	s0,sp,128
 36a:	edbc                	fsw	fa5,88(a1)
 36c:	0002                	0x2
 36e:	2600                	fld	fs0,8(a2)
 370:	656e                	flw	fa0,216(sp)
 372:	bd010067          	jr	-1072(sp)
 376:	0041                	c.addi	zero,16
 378:	0000                	unimp
 37a:	7026                	flw	ft0,104(sp)
 37c:	bd010063          	beq	sp,a6,fffff73c <pulp__FC+0xfffff73d>
 380:	0041                	c.addi	zero,16
 382:	0000                	unimp
 384:	7426                	flw	fs0,104(sp)
 386:	0100                	addi	s0,sp,128
 388:	48be                	lw	a7,204(sp)
 38a:	0000                	unimp
 38c:	2600                	fld	fs0,8(a2)
 38e:	0075                	c.addi	zero,29
 390:	be01                	j	fffffea0 <pulp__FC+0xfffffea1>
 392:	0048                	addi	a0,sp,4
 394:	0000                	unimp
 396:	2628                	fld	fa0,72(a2)
 398:	0074                	addi	a3,sp,12
 39a:	d401                	beqz	s0,2a2 <_min_stack-0x1d5e>
 39c:	0041                	c.addi	zero,16
 39e:	0000                	unimp
 3a0:	0000                	unimp
 3a2:	a906                	fsd	ft1,144(sp)
 3a4:	0000                	unimp
 3a6:	b200                	fsd	fs0,32(a2)
 3a8:	07000003          	lb	zero,112(zero) # 70 <_min_stack-0x1f90>
 3ac:	0048                	addi	a0,sp,4
 3ae:	0000                	unimp
 3b0:	001f eb22 0000      	0xeb22001f
 3b6:	0100                	addi	s0,sp,128
 3b8:	0000419b          	0x419b
 3bc:	0100                	addi	s0,sp,128
 3be:	041c                	addi	a5,sp,512
 3c0:	0000                	unimp
 3c2:	74756f23          	0x74756f23
 3c6:	0100                	addi	s0,sp,128
 3c8:	0002e79b          	0x2e79b
 3cc:	2400                	fld	fs0,8(s0)
 3ce:	00ce                	slli	ra,ra,0x13
 3d0:	0000                	unimp
 3d2:	9b01                	andi	a4,a4,-32
 3d4:	015f 0000 8524      	0x85240000015f
 3da:	0000                	unimp
 3dc:	0100                	addi	s0,sp,128
 3de:	0000419b          	0x419b
 3e2:	2300                	fld	fs0,0(a4)
 3e4:	6170                	flw	fa2,68(a0)
 3e6:	0064                	addi	s1,sp,12
 3e8:	9b01                	andi	a4,a4,-32
 3ea:	0041                	c.addi	zero,16
 3ec:	0000                	unimp
 3ee:	7026                	flw	ft0,104(sp)
 3f0:	9d010063          	beq	sp,a6,fffff5b0 <pulp__FC+0xfffff5b1>
 3f4:	0041                	c.addi	zero,16
 3f6:	0000                	unimp
 3f8:	7025                	0x7025
 3fa:	0000                	unimp
 3fc:	0100                	addi	s0,sp,128
 3fe:	419d                	li	gp,7
 400:	0000                	unimp
 402:	2800                	fld	fs0,16(s0)
 404:	6c26                	flw	fs8,72(sp)
 406:	6e65                	lui	t3,0x19
 408:	0100                	addi	s0,sp,128
 40a:	41a0                	lw	s0,64(a1)
 40c:	0000                	unimp
 40e:	2600                	fld	fs0,8(a2)
 410:	7470                	flw	fa2,108(s0)
 412:	0072                	0x72
 414:	a101                	j	814 <_min_stack-0x17ec>
 416:	015f 0000 0000      	0x15f
 41c:	db29                	beqz	a4,36e <_min_stack-0x1c92>
 41e:	0001                	nop
 420:	0100                	addi	s0,sp,128
 422:	0190                	addi	a2,sp,192
 424:	043d                	addi	s0,s0,15
 426:	0000                	unimp
 428:	72747323          	0x72747323
 42c:	0100                	addi	s0,sp,128
 42e:	e790                	fsw	fa2,8(a5)
 430:	0002                	0x2
 432:	2300                	fld	fs0,0(a4)
 434:	90010063          	beqz	sp,fffff534 <pulp__FC+0xfffff535>
 438:	0041                	c.addi	zero,16
 43a:	0000                	unimp
 43c:	2a00                	fld	fs0,16(a2)
 43e:	0068                	addi	a0,sp,12
 440:	0000                	unimp
 442:	8a01                	andi	a2,a2,0
 444:	0041                	c.addi	zero,16
 446:	0000                	unimp
 448:	5701                	li	a4,-32
 44a:	0004                	addi	s1,sp,0
 44c:	2300                	fld	fs0,0(a4)
 44e:	8a010073          	0x8a010073
 452:	0041                	c.addi	zero,16
 454:	0000                	unimp
 456:	2200                	fld	fs0,0(a2)
 458:	000000f3          	0xf3
 45c:	8501                	srai	a0,a0,0x0
 45e:	0048                	addi	a0,sp,4
 460:	0000                	unimp
 462:	7101                	addi	sp,sp,-512
 464:	0004                	addi	s1,sp,0
 466:	2300                	fld	fs0,0(a4)
 468:	006e                	0x6e
 46a:	8501                	srai	a0,a0,0x0
 46c:	0048                	addi	a0,sp,4
 46e:	0000                	unimp
 470:	2200                	fld	fs0,0(a2)
 472:	01f8                	addi	a4,sp,204
 474:	0000                	unimp
 476:	7301                	lui	t1,0xfffe0
 478:	0048                	addi	a0,sp,4
 47a:	0000                	unimp
 47c:	9d01                	0x9d01
 47e:	0004                	addi	s1,sp,0
 480:	2300                	fld	fs0,0(a4)
 482:	006e                	0x6e
 484:	7301                	lui	t1,0xfffe0
 486:	0048                	addi	a0,sp,4
 488:	0000                	unimp
 48a:	7126                	flw	ft2,104(sp)
 48c:	0100                	addi	s0,sp,128
 48e:	4874                	lw	a3,84(s0)
 490:	0000                	unimp
 492:	2600                	fld	fs0,8(a2)
 494:	0072                	0x72
 496:	7401                	lui	s0,0xfffe0
 498:	0048                	addi	a0,sp,4
 49a:	0000                	unimp
 49c:	2b00                	fld	fs0,16(a4)
 49e:	0114                	addi	a3,sp,128
 4a0:	0000                	unimp
 4a2:	5501                	li	a0,-32
 4a4:	029a                	slli	t0,t0,0x6
 4a6:	e000                	fsw	fs0,0(s0)
 4a8:	000e                	0xe
 4aa:	0000                	unimp
 4ac:	9c01                	0x9c01
 4ae:	ff2c                	fsw	fa1,120(a4)
 4b0:	0001                	nop
 4b2:	0100                	addi	s0,sp,128
 4b4:	ea4d                	bnez	a2,566 <_min_stack-0x1a9a>
 4b6:	0000                	unimp
 4b8:	10e0                	addi	s0,sp,108
 4ba:	0000                	unimp
 4bc:	0100                	addi	s0,sp,128
 4be:	cf9c                	sw	a5,24(a5)
 4c0:	0004                	addi	s1,sp,0
 4c2:	2d00                	fld	fs0,24(a0)
 4c4:	4d010063          	beq	sp,a6,984 <_min_stack-0x167c>
 4c8:	00b0                	addi	a2,sp,72
 4ca:	0000                	unimp
 4cc:	5a01                	li	s4,-32
 4ce:	2e00                	fld	fs0,24(a2)
 4d0:	00b9                	addi	ra,ra,14
 4d2:	0000                	unimp
 4d4:	4701                	li	a4,0
 4d6:	00a9                	addi	ra,ra,10
 4d8:	0000                	unimp
 4da:	00d8                	addi	a4,sp,68
 4dc:	e000                	fsw	fs0,0(s0)
 4de:	0012                	0x12
 4e0:	0000                	unimp
 4e2:	9c01                	0x9c01
 4e4:	8e2c                	0x8e2c
 4e6:	0002                	0x2
 4e8:	0100                	addi	s0,sp,128
 4ea:	b235                	j	fffffe16 <pulp__FC+0xfffffe17>
 4ec:	0000                	unimp
 4ee:	26e0                	fld	fs0,200(a3)
 4f0:	0000                	unimp
 4f2:	0100                	addi	s0,sp,128
 4f4:	229c                	fld	fa5,0(a3)
 4f6:	0005                	c.addi	zero,1
 4f8:	2f00                	fld	fs0,24(a4)
 4fa:	00727473          	csrrci	s0,0x7,4
 4fe:	3501                	jal	2fe <_min_stack-0x1d02>
 500:	015f 0000 0345      	0x3450000015f
 506:	0000                	unimp
 508:	6e656c2f          	0x6e656c2f
 50c:	0100                	addi	s0,sp,128
 50e:	4835                	li	a6,13
 510:	0000                	unimp
 512:	6300                	flw	fs0,0(a4)
 514:	30000003          	lb	zero,768(zero) # 300 <_min_stack-0x1d00>
 518:	0069                	c.addi	zero,26
 51a:	3601                	jal	1a <_min_stack-0x1fe6>
 51c:	0048                	addi	a0,sp,4
 51e:	0000                	unimp
 520:	0000                	unimp
 522:	782c                	flw	fa1,112(s0)
 524:	0000                	unimp
 526:	0100                	addi	s0,sp,128
 528:	842a                	mv	s0,a0
 52a:	0000                	unimp
 52c:	2ee0                	fld	fs0,216(a3)
 52e:	0000                	unimp
 530:	0100                	addi	s0,sp,128
 532:	5d9c                	lw	a5,56(a1)
 534:	0005                	c.addi	zero,1
 536:	3100                	fld	fs0,32(a0)
 538:	00e4                	addi	s1,sp,76
 53a:	0000                	unimp
 53c:	2a01                	jal	64c <_min_stack-0x19b4>
 53e:	0041                	c.addi	zero,16
 540:	0000                	unimp
 542:	5a01                	li	s4,-32
 544:	0d32                	slli	s10,s10,0xc
 546:	0002                	0x2
 548:	0100                	addi	s0,sp,128
 54a:	792a                	flw	fs2,168(sp)
 54c:	0000                	unimp
 54e:	8100                	0x8100
 550:	26000003          	lb	zero,608(zero) # 260 <_min_stack-0x1da0>
 554:	0069                	c.addi	zero,26
 556:	2b01                	jal	a66 <_min_stack-0x159a>
 558:	0048                	addi	a0,sp,4
 55a:	0000                	unimp
 55c:	2c00                	fld	fs0,24(s0)
 55e:	0000008b          	p.lb	ra,0(zero!) # 0 <_min_stack-0x2000>
 562:	1b01                	addi	s6,s6,-32
 564:	0418                	addi	a4,sp,512
 566:	e000                	fsw	fs0,0(s0)
 568:	000a                	0xa
 56a:	0000                	unimp
 56c:	9c01                	0x9c01
 56e:	0586                	slli	a1,a1,0x1
 570:	0000                	unimp
 572:	00042233          	sltz	tp,s0
 576:	65e0                	flw	fs0,76(a1)
 578:	0001                	nop
 57a:	1100                	addi	s0,sp,160
 57c:	5a01                	li	s4,-32
 57e:	0305                	addi	t1,t1,1
 580:	0594                	addi	a3,sp,704
 582:	e000                	fsw	fs0,0(s0)
 584:	0000                	unimp
 586:	b234                	fsd	fa3,96(a2)
 588:	fa000003          	lb	zero,-96(zero) # ffffffa0 <pulp__FC+0xffffffa1>
 58c:	0000                	unimp
 58e:	a6e0                	fsd	fs0,200(a3)
 590:	0000                	unimp
 592:	0100                	addi	s0,sp,128
 594:	bf9c                	fsd	fa5,56(a5)
 596:	0006                	0x6
 598:	0f00                	addi	s0,sp,912
 59a:	03cd                	addi	t2,t2,19
 59c:	0000                	unimp
 59e:	03a2                	slli	t2,t2,0x8
 5a0:	0000                	unimp
 5a2:	0003d80f          	0x3d80f
 5a6:	cb00                	sw	s0,16(a4)
 5a8:	0f000003          	lb	zero,240(zero) # f0 <_min_stack-0x1f10>
 5ac:	000003e3          	beqz	zero,db2 <_min_stack-0x124e>
 5b0:	00000443          	fmadd.s	fs0,ft0,ft0,ft0,rne
 5b4:	ee1c                	fsw	fa5,24(a2)
 5b6:	7d000003          	lb	zero,2000(zero) # 7d0 <_min_stack-0x1830>
 5ba:	0004                	addi	s1,sp,0
 5bc:	1c00                	addi	s0,sp,560
 5be:	03f8                	addi	a4,sp,460
 5c0:	0000                	unimp
 5c2:	000004bf 0003c21a 	0x3c21a000004bf
 5ca:	0000                	unimp
 5cc:	031f 0004 0000      	0x4031f
 5d2:	0000                	unimp
 5d4:	ec00                	fsw	fs0,24(s0)
 5d6:	0005                	c.addi	zero,1
 5d8:	1c00                	addi	s0,sp,560
 5da:	0404                	addi	s1,sp,512
 5dc:	0000                	unimp
 5de:	000004f7          	0x4f7
 5e2:	0f1c                	addi	a5,sp,912
 5e4:	0004                	addi	s1,sp,0
 5e6:	1500                	addi	s0,sp,672
 5e8:	0005                	c.addi	zero,1
 5ea:	0000                	unimp
 5ec:	1c35                	addi	s8,s8,-19
 5ee:	0004                	addi	s1,sp,0
 5f0:	4e00                	lw	s0,24(a2)
 5f2:	0001                	nop
 5f4:	20e0                	fld	fs0,192(s1)
 5f6:	0000                	unimp
 5f8:	0100                	addi	s0,sp,128
 5fa:	33b2                	fld	ft7,296(sp)
 5fc:	0006                	0x6
 5fe:	0f00                	addi	s0,sp,912
 600:	0428                	addi	a0,sp,520
 602:	0000                	unimp
 604:	053e                	slli	a0,a0,0xf
 606:	0000                	unimp
 608:	3336                	fld	ft6,360(sp)
 60a:	0004                	addi	s1,sp,0
 60c:	2100                	fld	fs0,0(a0)
 60e:	043d                	addi	s0,s0,15
 610:	0000                	unimp
 612:	014e                	slli	sp,sp,0x13
 614:	e000                	fsw	fs0,0(s0)
 616:	0038                	addi	a4,sp,8
 618:	0000                	unimp
 61a:	9801                	andi	s0,s0,-32
 61c:	4d36                	lw	s10,76(sp)
 61e:	0004                	addi	s1,sp,0
 620:	1000                	addi	s0,sp,32
 622:	019c                	addi	a5,sp,192
 624:	e000                	fsw	fs0,0(s0)
 626:	04ae                	slli	s1,s1,0xb
 628:	0000                	unimp
 62a:	0111                	addi	sp,sp,4
 62c:	025a                	slli	tp,tp,0x16
 62e:	0082                	slli	ra,ra,0x0
 630:	0000                	unimp
 632:	3500                	fld	fs0,40(a0)
 634:	041c                	addi	a5,sp,512
 636:	0000                	unimp
 638:	0174                	addi	a3,sp,140
 63a:	e000                	fsw	fs0,0(s0)
 63c:	0050                	addi	a2,sp,4
 63e:	0000                	unimp
 640:	a901                	j	a50 <_min_stack-0x15b0>
 642:	067a                	slli	a2,a2,0x1e
 644:	0000                	unimp
 646:	0004280f          	0x4280f
 64a:	5200                	lw	s0,32(a2)
 64c:	0005                	c.addi	zero,1
 64e:	3600                	fld	fs0,40(a2)
 650:	00000433          	add	s0,zero,zero
 654:	3d21                	jal	46c <_min_stack-0x1b94>
 656:	0004                	addi	s1,sp,0
 658:	7400                	flw	fs0,40(s0)
 65a:	0001                	nop
 65c:	68e0                	flw	fs0,84(s1)
 65e:	0000                	unimp
 660:	0100                	addi	s0,sp,128
 662:	3698                	fld	fa4,40(a3)
 664:	044d                	addi	s0,s0,19
 666:	0000                	unimp
 668:	7810                	flw	fa2,48(s0)
 66a:	0001                	nop
 66c:	aee0                	fsd	fs0,216(a3)
 66e:	0004                	addi	s1,sp,0
 670:	1100                	addi	s0,sp,160
 672:	5a01                	li	s4,-32
 674:	8402                	jr	s0
 676:	0000                	unimp
 678:	0000                	unimp
 67a:	00041c37          	lui	s8,0x41
 67e:	9200                	0x9200
 680:	0001                	nop
 682:	02e0                	addi	s0,sp,332
 684:	0000                	unimp
 686:	0100                	addi	s0,sp,128
 688:	0fae                	slli	t6,t6,0xb
 68a:	0428                	addi	a0,sp,520
 68c:	0000                	unimp
 68e:	0566                	slli	a0,a0,0x19
 690:	0000                	unimp
 692:	0004330f          	0x4330f
 696:	7a00                	flw	fs0,48(a2)
 698:	0005                	c.addi	zero,1
 69a:	3700                	fld	fs0,40(a4)
 69c:	043d                	addi	s0,s0,15
 69e:	0000                	unimp
 6a0:	0192                	slli	gp,gp,0x4
 6a2:	e000                	fsw	fs0,0(s0)
 6a4:	0002                	0x2
 6a6:	0000                	unimp
 6a8:	9801                	andi	s0,s0,-32
 6aa:	00044d0f          	0x44d0f
 6ae:	7a00                	flw	fs0,48(a2)
 6b0:	0005                	c.addi	zero,1
 6b2:	1300                	addi	s0,sp,416
 6b4:	0194                	addi	a3,sp,192
 6b6:	e000                	fsw	fs0,0(s0)
 6b8:	04ae                	slli	s1,s1,0xb
 6ba:	0000                	unimp
 6bc:	0000                	unimp
 6be:	3400                	fld	fs0,40(s0)
 6c0:	00000303          	lb	t1,0(zero) # 0 <_min_stack-0x2000>
 6c4:	01a0                	addi	s0,sp,200
 6c6:	e000                	fsw	fs0,0(s0)
 6c8:	00fa                	slli	ra,ra,0x1e
 6ca:	0000                	unimp
 6cc:	9c01                	0x9c01
 6ce:	082a                	slli	a6,a6,0xa
 6d0:	0000                	unimp
 6d2:	00031e0f          	0x31e0f
 6d6:	9200                	0x9200
 6d8:	0005                	c.addi	zero,1
 6da:	0f00                	addi	s0,sp,912
 6dc:	00000327          	0x327
 6e0:	05e5                	addi	a1,a1,25
 6e2:	0000                	unimp
 6e4:	0003300f          	0x3300f
 6e8:	5100                	lw	s0,32(a0)
 6ea:	0006                	0x6
 6ec:	0f00                	addi	s0,sp,912
 6ee:	033a                	slli	t1,t1,0xe
 6f0:	0000                	unimp
 6f2:	000006af          	0x6af
 6f6:	0003450f          	0x3450f
 6fa:	ff00                	fsw	fs0,56(a4)
 6fc:	0006                	0x6
 6fe:	0f00                	addi	s0,sp,912
 700:	0350                	addi	a2,sp,388
 702:	0000                	unimp
 704:	0744                	addi	s1,sp,900
 706:	0000                	unimp
 708:	5b1d                	li	s6,-25
 70a:	02000003          	lb	zero,32(zero) # 20 <_min_stack-0x1fe0>
 70e:	5091                	li	ra,-28
 710:	661c                	flw	fa5,8(a2)
 712:	b0000003          	lb	zero,-1280(zero) # fffffb00 <pulp__FC+0xfffffb01>
 716:	1c000007          	0x1c000007
 71a:	0000036f          	jal	t1,71a <_min_stack-0x18e6>
 71e:	000007f3          	0x7f3
 722:	7a1c                	flw	fa5,48(a2)
 724:	4c000003          	lb	zero,1216(zero) # 4c0 <_min_stack-0x1b40>
 728:	0008                	addi	a0,sp,0
 72a:	3800                	fld	fs0,48(s0)
 72c:	0384                	addi	s1,sp,448
 72e:	0000                	unimp
 730:	8d1c                	0x8d1c
 732:	8f000003          	lb	zero,-1808(zero) # fffff8f0 <pulp__FC+0xfffff8f1>
 736:	0008                	addi	a0,sp,0
 738:	1a00                	addi	s0,sp,304
 73a:	00000313          	li	t1,0
 73e:	3500                	fld	fs0,40(a0)
 740:	00000457          	pv.add.h	s0,zero,zero
 744:	01e4                	addi	s1,sp,204
 746:	e000                	fsw	fs0,0(s0)
 748:	0080                	addi	s0,sp,64
 74a:	0000                	unimp
 74c:	df01                	beqz	a4,664 <_min_stack-0x199c>
 74e:	075c                	addi	a5,sp,900
 750:	0000                	unimp
 752:	0004670f          	0x4670f
 756:	de00                	sw	s0,56(a2)
 758:	0008                	addi	a0,sp,0
 75a:	0000                	unimp
 75c:	7135                	addi	sp,sp,-160
 75e:	0004                	addi	s1,sp,0
 760:	f400                	fsw	fs0,40(s0)
 762:	0001                	nop
 764:	a0e0                	fsd	fs0,192(s1)
 766:	0000                	unimp
 768:	0100                	addi	s0,sp,128
 76a:	91e0                	0x91e0
 76c:	0f000007          	0xf000007
 770:	0481                	addi	s1,s1,0
 772:	0000                	unimp
 774:	08f1                	addi	a7,a7,28
 776:	0000                	unimp
 778:	0000a01b          	0xa01b
 77c:	1c00                	addi	s0,sp,560
 77e:	048a                	slli	s1,s1,0x2
 780:	0000                	unimp
 782:	0911                	addi	s2,s2,4
 784:	0000                	unimp
 786:	931c                	0x931c
 788:	0004                	addi	s1,sp,0
 78a:	2400                	fld	fs0,8(s0)
 78c:	0009                	c.addi	zero,2
 78e:	0000                	unimp
 790:	1f00                	addi	s0,sp,944
 792:	0396                	slli	t2,t2,0x5
 794:	0000                	unimp
 796:	00c0                	addi	s0,sp,68
 798:	0000                	unimp
 79a:	07a8                	addi	a0,sp,968
 79c:	0000                	unimp
 79e:	971c                	0x971c
 7a0:	54000003          	lb	zero,1344(zero) # 540 <_min_stack-0x1ac0>
 7a4:	0009                	c.addi	zero,2
 7a6:	0000                	unimp
 7a8:	1c39                	addi	s8,s8,-18
 7aa:	0004                	addi	s1,sp,0
 7ac:	6a00                	flw	fs0,16(a2)
 7ae:	0002                	0x2
 7b0:	0ae0                	addi	s0,sp,348
 7b2:	0000                	unimp
 7b4:	0100                	addi	s0,sp,128
 7b6:	0007f7e7          	0x7f7e7
 7ba:	0f00                	addi	s0,sp,912
 7bc:	0428                	addi	a0,sp,520
 7be:	0000                	unimp
 7c0:	0974                	addi	a3,sp,156
 7c2:	0000                	unimp
 7c4:	0004330f          	0x4330f
 7c8:	8800                	0x8800
 7ca:	0009                	c.addi	zero,2
 7cc:	3700                	fld	fs0,40(a4)
 7ce:	043d                	addi	s0,s0,15
 7d0:	0000                	unimp
 7d2:	026a                	slli	tp,tp,0x1a
 7d4:	e000                	fsw	fs0,0(s0)
 7d6:	000a                	0xa
 7d8:	0000                	unimp
 7da:	9801                	andi	s0,s0,-32
 7dc:	00044d0f          	0x44d0f
 7e0:	9d00                	0x9d00
 7e2:	0009                	c.addi	zero,2
 7e4:	1000                	addi	s0,sp,32
 7e6:	0274                	addi	a3,sp,268
 7e8:	e000                	fsw	fs0,0(s0)
 7ea:	04ae                	slli	s1,s1,0xb
 7ec:	0000                	unimp
 7ee:	0111                	addi	sp,sp,4
 7f0:	025a                	slli	tp,tp,0x16
 7f2:	2d08                	fld	fa0,24(a0)
 7f4:	0000                	unimp
 7f6:	3a00                	fld	fs0,48(a2)
 7f8:	01bc                	addi	a5,sp,200
 7fa:	e000                	fsw	fs0,0(s0)
 7fc:	0586                	slli	a1,a1,0x1
 7fe:	0000                	unimp
 800:	0819                	addi	a6,a6,6
 802:	0000                	unimp
 804:	0111                	addi	sp,sp,4
 806:	025a                	slli	tp,tp,0x16
 808:	5091                	li	ra,-28
 80a:	0111                	addi	sp,sp,4
 80c:	01f3035b          	p.mac	t1,t1,t6,zero
 810:	115d                	addi	sp,sp,-9
 812:	5c01                	li	s8,-32
 814:	5e01f303          	0x5e01f303
 818:	1000                	addi	s0,sp,32
 81a:	0280                	addi	s0,sp,320
 81c:	e000                	fsw	fs0,0(s0)
 81e:	0586                	slli	a1,a1,0x1
 820:	0000                	unimp
 822:	0111                	addi	sp,sp,4
 824:	025a                	slli	tp,tp,0x16
 826:	0078                	addi	a4,sp,12
 828:	0000                	unimp
 82a:	00043d3b          	0x43d3b
 82e:	a800                	fsd	fs0,16(s0)
 830:	0002                	0x2
 832:	18e0                	addi	s0,sp,124
 834:	0000                	unimp
 836:	0100                	addi	s0,sp,128
 838:	0f9c                	addi	a5,sp,976
 83a:	044d                	addi	s0,s0,19
 83c:	0000                	unimp
 83e:	09b2                	slli	s3,s3,0xc
 840:	0000                	unimp
 842:	b610                	fsd	fa2,40(a2)
 844:	0002                	0x2
 846:	aee0                	fsd	fs0,216(a3)
 848:	0004                	addi	s1,sp,0
 84a:	1100                	addi	s0,sp,160
 84c:	5a01                	li	s4,-32
 84e:	7802                	flw	fa6,32(sp)
 850:	0000                	unimp
 852:	0000                	unimp
 854:	01f0                	addi	a2,sp,204
 856:	0000                	unimp
 858:	0004                	addi	s1,sp,0
 85a:	00000333          	add	t1,zero,zero
 85e:	0104                	addi	s1,sp,128
 860:	0126                	slli	sp,sp,0x9
 862:	0000                	unimp
 864:	f00c                	fsw	fa1,32(s0)
 866:	0002                	0x2
 868:	0000                	unimp
 86a:	0000                	unimp
 86c:	2000                	fld	fs0,0(s0)
 86e:	0001                	nop
 870:	0000                	unimp
 872:	0000                	unimp
 874:	6100                	flw	fs0,0(a0)
 876:	0005                	c.addi	zero,1
 878:	0200                	addi	s0,sp,256
 87a:	0504                	addi	s1,sp,640
 87c:	6e69                	lui	t3,0x1a
 87e:	0074                	addi	a3,sp,12
 880:	00002503          	lw	a0,0(zero) # 0 <_min_stack-0x2000>
 884:	0400                	addi	s0,sp,512
 886:	0704                	addi	s1,sp,896
 888:	019c                	addi	a5,sp,192
 88a:	0000                	unimp
 88c:	0804                	addi	s1,sp,16
 88e:	9e05                	0x9e05
 890:	0000                	unimp
 892:	0400                	addi	s0,sp,512
 894:	0410                	addi	a2,sp,512
 896:	00fa                	slli	ra,ra,0x1e
 898:	0000                	unimp
 89a:	0104                	addi	s1,sp,128
 89c:	0806                	slli	a6,a6,0x1
 89e:	0001                	nop
 8a0:	0400                	addi	s0,sp,512
 8a2:	0502                	slli	a0,a0,0x0
 8a4:	005e                	0x5e
 8a6:	0000                	unimp
 8a8:	0404                	addi	s1,sp,512
 8aa:	a305                	j	dca <_min_stack-0x1236>
 8ac:	0000                	unimp
 8ae:	0400                	addi	s0,sp,512
 8b0:	0801                	addi	a6,a6,0
 8b2:	0106                	slli	sp,sp,0x1
 8b4:	0000                	unimp
 8b6:	0204                	addi	s1,sp,256
 8b8:	0001be07          	fld	ft8,0(gp) # 8e <_min_stack-0x1f72>
 8bc:	0400                	addi	s0,sp,512
 8be:	0704                	addi	s1,sp,896
 8c0:	00000197          	auipc	gp,0x0
 8c4:	0804                	addi	s1,sp,16
 8c6:	00019207          	0x19207
 8ca:	0500                	addi	s0,sp,640
 8cc:	0279                	addi	tp,tp,30
 8ce:	0000                	unimp
 8d0:	5901                	li	s2,-32
 8d2:	0456                	slli	s0,s0,0x15
 8d4:	e000                	fsw	fs0,0(s0)
 8d6:	002e                	0x2e
 8d8:	0000                	unimp
 8da:	9c01                	0x9c01
 8dc:	00a8                	addi	a0,sp,72
 8de:	0000                	unimp
 8e0:	c706                	sw	ra,140(sp)
 8e2:	0002                	0x2
 8e4:	0100                	addi	s0,sp,128
 8e6:	a85a                	fsd	fs6,16(sp)
 8e8:	0000                	unimp
 8ea:	db00                	sw	s0,48(a4)
 8ec:	0009                	c.addi	zero,2
 8ee:	0700                	addi	s0,sp,896
 8f0:	000002bf 00255b01 	0x255b01000002bf
 8f8:	0000                	unimp
 8fa:	009f 0408 0025      	0x250408009f
 900:	0000                	unimp
 902:	cf09                	beqz	a4,91c <_min_stack-0x16e4>
 904:	0002                	0x2
 906:	0100                	addi	s0,sp,128
 908:	2512                	fld	fa0,256(sp)
 90a:	0000                	unimp
 90c:	0e00                	addi	s0,sp,784
 90e:	0005                	c.addi	zero,1
 910:	7ee0                	flw	fs0,124(a3)
 912:	0000                	unimp
 914:	0100                	addi	s0,sp,128
 916:	b99c                	fsd	fa5,48(a1)
 918:	0001                	nop
 91a:	0a00                	addi	s0,sp,272
 91c:	02de                	slli	t0,t0,0x17
 91e:	0000                	unimp
 920:	1201                	addi	tp,tp,-32
 922:	0025                	c.addi	zero,9
 924:	0000                	unimp
 926:	00000a13          	li	s4,0
 92a:	e30a                	fsw	ft2,132(sp)
 92c:	0002                	0x2
 92e:	0100                	addi	s0,sp,128
 930:	b912                	fsd	ft4,176(sp)
 932:	0001                	nop
 934:	3400                	fld	fs0,40(s0)
 936:	000a                	0xa
 938:	0b00                	addi	s0,sp,400
 93a:	02b5                	addi	t0,t0,13
 93c:	0000                	unimp
 93e:	1601                	addi	a2,a2,-32
 940:	0025                	c.addi	zero,9
 942:	0000                	unimp
 944:	c200                	sw	s0,0(a2)
 946:	0001                	nop
 948:	0002d40b          	p.lhu	s0,0(t0!)
 94c:	0100                	addi	s0,sp,128
 94e:	00002517          	auipc	a0,0x2
 952:	0000                	unimp
 954:	625a                	flw	ft4,148(sp)
 956:	0602                	slli	a2,a2,0x0
 958:	000002c7          	fmsub.s	ft5,ft0,ft0,ft0,rne
 95c:	1f01                	addi	t5,t5,-32
 95e:	00a8                	addi	a0,sp,72
 960:	0000                	unimp
 962:	0a55                	addi	s4,s4,21
 964:	0000                	unimp
 966:	9f0c                	0x9f0c
 968:	0002                	0x2
 96a:	0100                	addi	s0,sp,128
 96c:	cc21                	beqz	s0,9c4 <_min_stack-0x163c>
 96e:	0001                	nop
 970:	fc00                	fsw	fs0,56(s0)
 972:	8084                	0x8084
 974:	7cc0                	flw	fs0,60(s1)
 976:	e80c                	fsw	fa1,16(s0)
 978:	0002                	0x2
 97a:	0100                	addi	s0,sp,128
 97c:	cc21                	beqz	s0,9d4 <_min_stack-0x162c>
 97e:	0001                	nop
 980:	9000                	0x9000
 982:	80c0                	0x80c0
 984:	7cc0                	flw	fs0,60(s1)
 986:	0002bf07          	fld	ft10,0(t0)
 98a:	0100                	addi	s0,sp,128
 98c:	00002523          	sw	zero,10(zero) # a <_min_stack-0x1ff6>
 990:	0a00                	addi	s0,sp,272
 992:	a90d                	j	dc4 <_min_stack-0x123c>
 994:	0002                	0x2
 996:	0100                	addi	s0,sp,128
 998:	3125                	jal	5c0 <_min_stack-0x1a40>
 99a:	0000                	unimp
 99c:	0800                	addi	s0,sp,16
 99e:	0d18                	addi	a4,sp,656
 9a0:	000002af          	0x2af
 9a4:	2601                	jal	ca4 <_min_stack-0x135c>
 9a6:	0031                	c.addi	zero,12
 9a8:	0000                	unimp
 9aa:	0800                	addi	s0,sp,16
 9ac:	760e                	flw	fa2,224(sp)
 9ae:	6c61                	lui	s8,0x18
 9b0:	0100                	addi	s0,sp,128
 9b2:	3128                	fld	fa0,96(a0)
 9b4:	0000                	unimp
 9b6:	8100                	0x8100
 9b8:	8080                	0x8080
 9ba:	7e80                	flw	fs0,56(a3)
 9bc:	00051c0f          	0x51c0f
 9c0:	d2e0                	sw	s0,100(a3)
 9c2:	0001                	nop
 9c4:	8000                	0x8000
 9c6:	0001                	nop
 9c8:	1000                	addi	s0,sp,32
 9ca:	5a01                	li	s4,-32
 9cc:	3001                	jal	1cc <_min_stack-0x1e34>
 9ce:	0110                	addi	a2,sp,128
 9d0:	0045015b          	p.mac	sp,a0,tp,zero
 9d4:	0005540f          	0x5540f
 9d8:	d2e0                	sw	s0,100(a3)
 9da:	0001                	nop
 9dc:	9800                	0x9800
 9de:	0001                	nop
 9e0:	1000                	addi	s0,sp,32
 9e2:	5a01                	li	s4,-32
 9e4:	3001                	jal	1e4 <_min_stack-0x1e1c>
 9e6:	0110                	addi	a2,sp,128
 9e8:	0045015b          	p.mac	sp,a0,tp,zero
 9ec:	0005840f          	0x5840f
 9f0:	dde0                	sw	s0,124(a1)
 9f2:	0001                	nop
 9f4:	af00                	fsd	fs0,24(a4)
 9f6:	0001                	nop
 9f8:	1000                	addi	s0,sp,32
 9fa:	5a01                	li	s4,-32
 9fc:	0305                	addi	t1,t1,1
 9fe:	05a4                	addi	s1,sp,712
 a00:	e000                	fsw	fs0,0(s0)
 a02:	1100                	addi	s0,sp,160
 a04:	0586                	slli	a1,a1,0x1
 a06:	e000                	fsw	fs0,0(s0)
 a08:	01e8                	addi	a0,sp,204
 a0a:	0000                	unimp
 a0c:	0800                	addi	s0,sp,16
 a0e:	bf04                	fsd	fs1,56(a4)
 a10:	0001                	nop
 a12:	0800                	addi	s0,sp,16
 a14:	c504                	sw	s1,8(a0)
 a16:	0001                	nop
 a18:	0400                	addi	s0,sp,512
 a1a:	0801                	addi	a6,a6,0
 a1c:	0000010f          	0x10f
 a20:	0408                	addi	a0,sp,512
 a22:	002c                	addi	a1,sp,8
 a24:	0000                	unimp
 a26:	7812                	flw	fa6,36(sp)
 a28:	0000                	unimp
 a2a:	7800                	flw	fs0,48(s0)
 a2c:	0000                	unimp
 a2e:	0200                	addi	s0,sp,256
 a30:	00d5123b          	0xd5123b
 a34:	0000                	unimp
 a36:	00d5                	addi	ra,ra,21
 a38:	0000                	unimp
 a3a:	4d02                	lw	s10,0(sp)
 a3c:	1412                	slli	s0,s0,0x24
 a3e:	0001                	nop
 a40:	1400                	addi	s0,sp,544
 a42:	0001                	nop
 a44:	0200                	addi	s0,sp,256
 a46:	0042                	0x42
 a48:	00ce                	slli	ra,ra,0x13
 a4a:	0000                	unimp
 a4c:	0002                	0x2
 a4e:	0441                	addi	s0,s0,16
 a50:	0000                	unimp
 a52:	0104                	addi	s1,sp,128
 a54:	06a2                	slli	a3,a3,0x8
 a56:	0000                	unimp
 a58:	0138                	addi	a4,sp,136
 a5a:	0000                	unimp
 a5c:	7263732f          	0x7263732f
 a60:	7461                	lui	s0,0xffff8
 a62:	6d2f6863          	bltu	t5,s2,1132 <_min_stack-0xece>
 a66:	6e616963          	bltu	sp,t1,1158 <_min_stack-0xea8>
 a6a:	2f69                	jal	1204 <_min_stack-0xdfc>
 a6c:	6568                	flw	fa0,76(a0)
 a6e:	732d                	lui	t1,0xfffeb
 a70:	682f636f          	jal	t1,f70f2 <tohost+0xd70ea>
 a74:	7261                	lui	tp,0xffff8
 a76:	7764                	flw	fs1,108(a4)
 a78:	7261                	lui	tp,0xffff8
 a7a:	2f65                	jal	1232 <_min_stack-0xdce>
 a7c:	7069                	0x7069
 a7e:	6c5f 7369 2f74      	0x2f7473696c5f
 a84:	6e65706f          	j	5816a <tohost+0x38162>
 a88:	6974                	flw	fa3,84(a0)
 a8a:	6174                	flw	fa3,68(a0)
 a8c:	2f6e                	fld	ft10,216(sp)
 a8e:	742f7773          	csrrci	a4,0x742,30
 a92:	7365                	lui	t1,0xffff9
 a94:	7374                	flw	fa3,100(a4)
 a96:	736c612f          	0x736c612f
 a9a:	7161                	addi	sp,sp,-432
 a9c:	2f72                	fld	ft10,280(sp)
 a9e:	6d6d6f63          	bltu	s10,s6,117c <_min_stack-0xe84>
 aa2:	632f6e6f          	jal	t3,f70d4 <tohost+0xd70cc>
 aa6:	7472                	flw	fs0,60(sp)
 aa8:	2e30                	fld	fa2,88(a2)
 aaa:	732f0053          	0x732f0053
 aae:	74617263          	bleu	t1,sp,11f2 <_min_stack-0xe0e>
 ab2:	6d2f6863          	bltu	t5,s2,1182 <_min_stack-0xe7e>
 ab6:	6e616963          	bltu	sp,t1,11a8 <_min_stack-0xe58>
 aba:	2f69                	jal	1254 <_min_stack-0xdac>
 abc:	6568                	flw	fa0,76(a0)
 abe:	732d                	lui	t1,0xfffeb
 ac0:	682f636f          	jal	t1,f7142 <tohost+0xd713a>
 ac4:	7261                	lui	tp,0xffff8
 ac6:	7764                	flw	fs1,108(a4)
 ac8:	7261                	lui	tp,0xffff8
 aca:	2f65                	jal	1282 <_min_stack-0xd7e>
 acc:	7069                	0x7069
 ace:	6c5f 7369 2f74      	0x2f7473696c5f
 ad4:	6e65706f          	j	581ba <tohost+0x381b2>
 ad8:	6974                	flw	fa3,84(a0)
 ada:	6174                	flw	fa3,68(a0)
 adc:	2f6e                	fld	ft10,216(sp)
 ade:	742f7773          	csrrci	a4,0x742,30
 ae2:	7365                	lui	t1,0xffff9
 ae4:	7374                	flw	fa3,100(a4)
 ae6:	736c612f          	0x736c612f
 aea:	7161                	addi	sp,sp,-432
 aec:	2f72                	fld	ft10,280(sp)
 aee:	6c61                	lui	s8,0x18
 af0:	72716173          	csrrsi	sp,0x727,2
 af4:	625f 6f6f 5f74      	0x5f746f6f625f
 afa:	7564                	flw	fs1,108(a0)
 afc:	6c61                	lui	s8,0x18
 afe:	635f 726f 5f65      	0x5f65726f635f
 b04:	69616863          	bltu	sp,s6,1194 <_min_stack-0xe6c>
 b08:	006e                	0x6e
 b0a:	20554e47          	fmsub.s	ft8,fa0,ft5,ft4,rmm
 b0e:	5341                	li	t1,-16
 b10:	3220                	fld	fs0,96(a2)
 b12:	322e                	fld	ft4,232(sp)
 b14:	2e38                	fld	fa4,88(a2)
 b16:	0030                	addi	a2,sp,8
 b18:	8001                	srli	s0,s0,0x0

Disassembly of section .debug_abbrev:

00000000 <.debug_abbrev>:
   0:	1101                	addi	sp,sp,-32
   2:	2501                	jal	602 <_min_stack-0x19fe>
   4:	130e                	slli	t1,t1,0x23
   6:	1b0e030b          	p.lb	t1,432(t3!) # 1a1b0 <_stack_len+0x121b0>
   a:	110e                	slli	sp,sp,0x23
   c:	1201                	addi	tp,tp,-32
   e:	1006                	0x1006
  10:	02000017          	auipc	zero,0x2000
  14:	0016                	0x16
  16:	0b3a0e03          	lb	t3,179(s4)
  1a:	13490b3b          	0x13490b3b
  1e:	0000                	unimp
  20:	0b000f03          	lb	t5,176(zero) # b0 <_min_stack-0x1f50>
  24:	000e030b          	p.lb	t1,0(t3!)
  28:	0400                	addi	s0,sp,512
  2a:	0024                	addi	s1,sp,8
  2c:	0b3e0b0b          	p.lb	s6,179(t3!)
  30:	00000803          	lb	a6,0(zero) # 0 <_min_stack-0x2000>
  34:	2405                	jal	254 <_min_stack-0x1dac>
  36:	0b00                	addi	s0,sp,400
  38:	030b3e0b          	0x30b3e0b
  3c:	000e                	0xe
  3e:	0600                	addi	s0,sp,768
  40:	0101                	addi	sp,sp,0
  42:	1349                	addi	t1,t1,-14
  44:	1301                	addi	t1,t1,-32
  46:	0000                	unimp
  48:	49002107          	flw	ft2,1168(zero) # 490 <_min_stack-0x1b70>
  4c:	000b2f13          	slti	t5,s6,0
  50:	0800                	addi	s0,sp,16
  52:	0026                	0x26
  54:	1349                	addi	t1,t1,-14
  56:	0000                	unimp
  58:	3409                	jal	fffffa5a <pulp__FC+0xfffffa5b>
  5a:	0300                	addi	s0,sp,384
  5c:	3a0e                	fld	fs4,224(sp)
  5e:	490b3b0b          	0x490b3b0b
  62:	02193f13          	sltiu	t5,s2,33
  66:	0018                	addi	a4,sp,0
  68:	0a00                	addi	s0,sp,272
  6a:	002e                	0x2e
  6c:	0e03193f 053b0b3a 	0x53b0b3a0e03193f
  74:	01111927          	0x1111927
  78:	0612                	slli	a2,a2,0x4
  7a:	1840                	addi	s0,sp,52
  7c:	00194297          	auipc	t0,0x194
  80:	0b00                	addi	s0,sp,400
  82:	012e                	slli	sp,sp,0xb
  84:	0e03193f 053b0b3a 	0x53b0b3a0e03193f
  8c:	13491927          	0x13491927
  90:	0111                	addi	sp,sp,4
  92:	0612                	slli	a2,a2,0x4
  94:	1840                	addi	s0,sp,52
  96:	01194297          	auipc	t0,0x1194
  9a:	0c000013          	li	zero,192
  9e:	0005                	c.addi	zero,1
  a0:	0b3a0803          	lb	a6,179(s4)
  a4:	1349053b          	0x1349053b
  a8:	1702                	slli	a4,a4,0x20
  aa:	0000                	unimp
  ac:	340d                	jal	ffffface <pulp__FC+0xfffffacf>
  ae:	0300                	addi	s0,sp,384
  b0:	3a08                	fld	fa0,48(a2)
  b2:	49053b0b          	0x49053b0b
  b6:	00170213          	addi	tp,a4,1 # fffe6001 <pulp__FC+0xfffe6002>
  ba:	0e00                	addi	s0,sp,784
  bc:	011d                	addi	sp,sp,7
  be:	1331                	addi	t1,t1,-20
  c0:	0111                	addi	sp,sp,4
  c2:	0612                	slli	a2,a2,0x4
  c4:	0b58                	addi	a4,sp,404
  c6:	0559                	addi	a0,a0,22
  c8:	1301                	addi	t1,t1,-32
  ca:	0000                	unimp
  cc:	3100050f          	0x3100050f
  d0:	00170213          	addi	tp,a4,1
  d4:	1000                	addi	s0,sp,32
  d6:	8289                	srli	a3,a3,0x2
  d8:	0101                	addi	sp,sp,0
  da:	0111                	addi	sp,sp,4
  dc:	1331                	addi	t1,t1,-20
  de:	0000                	unimp
  e0:	8a11                	andi	a2,a2,4
  e2:	0182                	slli	gp,gp,0x0
  e4:	0200                	addi	s0,sp,256
  e6:	9118                	0x9118
  e8:	1842                	slli	a6,a6,0x30
  ea:	0000                	unimp
  ec:	1d12                	slli	s10,s10,0x24
  ee:	3101                	jal	fffffcee <pulp__FC+0xfffffcef>
  f0:	12011113          	0x12011113
  f4:	5806                	lw	a6,96(sp)
  f6:	0005590b          	p.lhu	s2,0(a0!) # 294e <_min_stack+0x94e>
  fa:	1300                	addi	s0,sp,416
  fc:	8289                	srli	a3,a3,0x2
  fe:	0001                	nop
 100:	0111                	addi	sp,sp,4
 102:	1331                	addi	t1,t1,-20
 104:	0000                	unimp
 106:	0f14                	addi	a3,sp,912
 108:	0b00                	addi	s0,sp,400
 10a:	0013490b          	p.lbu	s2,1(t1!) # ffff9001 <pulp__FC+0xffff9002>
 10e:	1500                	addi	s0,sp,672
 110:	0005                	c.addi	zero,1
 112:	0b3a0e03          	lb	t3,179(s4)
 116:	1349053b          	0x1349053b
 11a:	1702                	slli	a4,a4,0x20
 11c:	0000                	unimp
 11e:	1816                	slli	a6,a6,0x25
 120:	0000                	unimp
 122:	1700                	addi	s0,sp,928
 124:	0034                	addi	a3,sp,8
 126:	0b3a0803          	lb	a6,179(s4)
 12a:	1349053b          	0x1349053b
 12e:	0000                	unimp
 130:	3418                	fld	fa4,40(s0)
 132:	0300                	addi	s0,sp,384
 134:	3a08                	fld	fa0,48(a2)
 136:	49053b0b          	0x49053b0b
 13a:	00180213          	addi	tp,a6,1
 13e:	1900                	addi	s0,sp,176
 140:	011d                	addi	sp,sp,7
 142:	1331                	addi	t1,t1,-20
 144:	0152                	slli	sp,sp,0x14
 146:	1755                	addi	a4,a4,-11
 148:	0b58                	addi	a4,sp,404
 14a:	0559                	addi	a0,a0,22
 14c:	0000                	unimp
 14e:	051a                	slli	a0,a0,0x6
 150:	3100                	fld	fs0,32(a0)
 152:	000b1c13          	slli	s8,s6,0x0
 156:	1b00                	addi	s0,sp,432
 158:	1755010b          	p.lb	sp,373(a0!)
 15c:	0000                	unimp
 15e:	341c                	fld	fa5,40(s0)
 160:	3100                	fld	fs0,32(a0)
 162:	00170213          	addi	tp,a4,1
 166:	1d00                	addi	s0,sp,688
 168:	0034                	addi	a3,sp,8
 16a:	1331                	addi	t1,t1,-20
 16c:	1802                	slli	a6,a6,0x20
 16e:	0000                	unimp
 170:	0a1e                	slli	s4,s4,0x7
 172:	3100                	fld	fs0,32(a0)
 174:	00011113          	slli	sp,sp,0x0
 178:	1f00                	addi	s0,sp,944
 17a:	1331010b          	p.lb	sp,307(sp!)
 17e:	1755                	addi	a4,a4,-11
 180:	1301                	addi	t1,t1,-32
 182:	0000                	unimp
 184:	1d20                	addi	s0,sp,696
 186:	3101                	jal	fffffd86 <pulp__FC+0xfffffd87>
 188:	55015213          	0x55015213
 18c:	590b5817          	auipc	a6,0x590b5
 190:	0105                	addi	sp,sp,1
 192:	21000013          	li	zero,528
 196:	011d                	addi	sp,sp,7
 198:	1331                	addi	t1,t1,-20
 19a:	0152                	slli	sp,sp,0x14
 19c:	1755                	addi	a4,a4,-11
 19e:	0b58                	addi	a4,sp,404
 1a0:	0b59                	addi	s6,s6,22
 1a2:	0000                	unimp
 1a4:	2e22                	fld	ft8,8(sp)
 1a6:	0301                	addi	t1,t1,0
 1a8:	3a0e                	fld	fs4,224(sp)
 1aa:	270b3b0b          	0x270b3b0b
 1ae:	4919                	li	s2,6
 1b0:	010b2013          	slti	zero,s6,16
 1b4:	23000013          	li	zero,560
 1b8:	0005                	c.addi	zero,1
 1ba:	0b3a0803          	lb	a6,179(s4)
 1be:	13490b3b          	0x13490b3b
 1c2:	0000                	unimp
 1c4:	0524                	addi	s1,sp,648
 1c6:	0300                	addi	s0,sp,384
 1c8:	3a0e                	fld	fs4,224(sp)
 1ca:	490b3b0b          	0x490b3b0b
 1ce:	25000013          	li	zero,592
 1d2:	0034                	addi	a3,sp,8
 1d4:	0b3a0e03          	lb	t3,179(s4)
 1d8:	13490b3b          	0x13490b3b
 1dc:	0000                	unimp
 1de:	3426                	fld	fs0,104(sp)
 1e0:	0300                	addi	s0,sp,384
 1e2:	3a08                	fld	fa0,48(a2)
 1e4:	490b3b0b          	0x490b3b0b
 1e8:	27000013          	li	zero,624
 1ec:	000a                	0xa
 1ee:	0b3a0803          	lb	a6,179(s4)
 1f2:	0000053b          	0x53b
 1f6:	0b28                	addi	a0,sp,408
 1f8:	0001                	nop
 1fa:	2900                	fld	fs0,16(a0)
 1fc:	012e                	slli	sp,sp,0xb
 1fe:	0b3a0e03          	lb	t3,179(s4)
 202:	19270b3b          	0x19270b3b
 206:	0b20                	addi	s0,sp,408
 208:	1301                	addi	t1,t1,-32
 20a:	0000                	unimp
 20c:	2e2a                	fld	ft8,136(sp)
 20e:	3f01                	jal	11e <_min_stack-0x1ee2>
 210:	0319                	addi	t1,t1,6
 212:	3a0e                	fld	fs4,224(sp)
 214:	270b3b0b          	0x270b3b0b
 218:	4919                	li	s2,6
 21a:	010b2013          	slti	zero,s6,16
 21e:	2b000013          	li	zero,688
 222:	002e                	0x2e
 224:	0e03193f 0b3b0b3a 	0xb3b0b3a0e03193f
 22c:	01111927          	0x1111927
 230:	0612                	slli	a2,a2,0x4
 232:	1840                	addi	s0,sp,52
 234:	00194297          	auipc	t0,0x194
 238:	2c00                	fld	fs0,24(s0)
 23a:	012e                	slli	sp,sp,0xb
 23c:	0e03193f 0b3b0b3a 	0xb3b0b3a0e03193f
 244:	01111927          	0x1111927
 248:	0612                	slli	a2,a2,0x4
 24a:	1840                	addi	s0,sp,52
 24c:	01194297          	auipc	t0,0x1194
 250:	2d000013          	li	zero,720
 254:	0005                	c.addi	zero,1
 256:	0b3a0803          	lb	a6,179(s4)
 25a:	13490b3b          	0x13490b3b
 25e:	1802                	slli	a6,a6,0x20
 260:	0000                	unimp
 262:	2e2e                	fld	ft8,200(sp)
 264:	3f00                	fld	fs0,56(a4)
 266:	0319                	addi	t1,t1,6
 268:	3a0e                	fld	fs4,224(sp)
 26a:	490b3b0b          	0x490b3b0b
 26e:	12011113          	0x12011113
 272:	4006                	0x4006
 274:	9718                	0x9718
 276:	1942                	slli	s2,s2,0x30
 278:	0000                	unimp
 27a:	0300052f          	0x300052f
 27e:	3a08                	fld	fa0,48(a2)
 280:	490b3b0b          	0x490b3b0b
 284:	00170213          	addi	tp,a4,1
 288:	3000                	fld	fs0,32(s0)
 28a:	0034                	addi	a3,sp,8
 28c:	0b3a0803          	lb	a6,179(s4)
 290:	13490b3b          	0x13490b3b
 294:	0b1c                	addi	a5,sp,400
 296:	0000                	unimp
 298:	0531                	addi	a0,a0,12
 29a:	0300                	addi	s0,sp,384
 29c:	3a0e                	fld	fs4,224(sp)
 29e:	490b3b0b          	0x490b3b0b
 2a2:	00180213          	addi	tp,a6,1 # 590b518d <tohost+0x59095185>
 2a6:	3200                	fld	fs0,32(a2)
 2a8:	0005                	c.addi	zero,1
 2aa:	0b3a0e03          	lb	t3,179(s4)
 2ae:	13490b3b          	0x13490b3b
 2b2:	1702                	slli	a4,a4,0x20
 2b4:	0000                	unimp
 2b6:	01828933          	add	s2,t0,s8
 2ba:	1101                	addi	sp,sp,-32
 2bc:	9501                	srai	a0,a0,0x20
 2be:	1942                	slli	s2,s2,0x30
 2c0:	1331                	addi	t1,t1,-20
 2c2:	0000                	unimp
 2c4:	2e34                	fld	fa3,88(a2)
 2c6:	3101                	jal	fffffec6 <pulp__FC+0xfffffec7>
 2c8:	12011113          	0x12011113
 2cc:	4006                	0x4006
 2ce:	9718                	0x9718
 2d0:	1942                	slli	s2,s2,0x30
 2d2:	1301                	addi	t1,t1,-32
 2d4:	0000                	unimp
 2d6:	1d35                	addi	s10,s10,-19
 2d8:	3101                	jal	fffffed8 <pulp__FC+0xfffffed9>
 2da:	55015213          	0x55015213
 2de:	590b5817          	auipc	a6,0x590b5
 2e2:	0013010b          	p.lb	sp,1(t1!)
 2e6:	3600                	fld	fs0,40(a2)
 2e8:	0005                	c.addi	zero,1
 2ea:	1331                	addi	t1,t1,-20
 2ec:	0000                	unimp
 2ee:	31011d37          	lui	s10,0x31011
 2f2:	12011113          	0x12011113
 2f6:	5806                	lw	a6,96(sp)
 2f8:	000b590b          	p.lhu	s2,0(s6!)
 2fc:	3800                	fld	fs0,48(s0)
 2fe:	0034                	addi	a3,sp,8
 300:	1331                	addi	t1,t1,-20
 302:	0000                	unimp
 304:	1d39                	addi	s10,s10,-18
 306:	3101                	jal	ffffff06 <pulp__FC+0xffffff07>
 308:	12011113          	0x12011113
 30c:	5806                	lw	a6,96(sp)
 30e:	010b590b          	p.lhu	s2,16(s6!)
 312:	3a000013          	li	zero,928
 316:	8289                	srli	a3,a3,0x2
 318:	0101                	addi	sp,sp,0
 31a:	0111                	addi	sp,sp,4
 31c:	1331                	addi	t1,t1,-20
 31e:	1301                	addi	t1,t1,-32
 320:	0000                	unimp
 322:	31012e3b          	0x31012e3b
 326:	12011113          	0x12011113
 32a:	4006                	0x4006
 32c:	9718                	0x9718
 32e:	1942                	slli	s2,s2,0x30
 330:	0000                	unimp
 332:	0100                	addi	s0,sp,128
 334:	0111                	addi	sp,sp,4
 336:	0e25                	addi	t3,t3,9
 338:	0e030b13          	addi	s6,t1,224
 33c:	17550e1b          	0x17550e1b
 340:	0111                	addi	sp,sp,4
 342:	1710                	addi	a2,sp,928
 344:	0000                	unimp
 346:	2402                	fld	fs0,0(sp)
 348:	0b00                	addi	s0,sp,400
 34a:	030b3e0b          	0x30b3e0b
 34e:	0008                	addi	a0,sp,0
 350:	0300                	addi	s0,sp,384
 352:	0035                	c.addi	zero,13
 354:	1349                	addi	t1,t1,-14
 356:	0000                	unimp
 358:	2404                	fld	fs1,8(s0)
 35a:	0b00                	addi	s0,sp,400
 35c:	030b3e0b          	0x30b3e0b
 360:	000e                	0xe
 362:	0500                	addi	s0,sp,640
 364:	012e                	slli	sp,sp,0xb
 366:	0e03193f 0b3b0b3a 	0xb3b0b3a0e03193f
 36e:	01111927          	0x1111927
 372:	0612                	slli	a2,a2,0x4
 374:	1840                	addi	s0,sp,52
 376:	01194297          	auipc	t0,0x1194
 37a:	06000013          	li	zero,96
 37e:	0034                	addi	a3,sp,8
 380:	0b3a0e03          	lb	t3,179(s4)
 384:	13490b3b          	0x13490b3b
 388:	1702                	slli	a4,a4,0x20
 38a:	0000                	unimp
 38c:	03003407          	fld	fs0,48(zero) # 30 <_min_stack-0x1fd0>
 390:	3a0e                	fld	fs4,224(sp)
 392:	490b3b0b          	0x490b3b0b
 396:	000b1c13          	slli	s8,s6,0x0
 39a:	0800                	addi	s0,sp,16
 39c:	0b0b000f          	0xb0b000f
 3a0:	1349                	addi	t1,t1,-14
 3a2:	0000                	unimp
 3a4:	2e09                	jal	6b6 <_min_stack-0x194a>
 3a6:	3f01                	jal	2b6 <_min_stack-0x1d4a>
 3a8:	0319                	addi	t1,t1,6
 3aa:	3a0e                	fld	fs4,224(sp)
 3ac:	270b3b0b          	0x270b3b0b
 3b0:	4919                	li	s2,6
 3b2:	12011113          	0x12011113
 3b6:	4006                	0x4006
 3b8:	9718                	0x9718
 3ba:	1942                	slli	s2,s2,0x30
 3bc:	1301                	addi	t1,t1,-32
 3be:	0000                	unimp
 3c0:	050a                	slli	a0,a0,0x2
 3c2:	0300                	addi	s0,sp,384
 3c4:	3a0e                	fld	fs4,224(sp)
 3c6:	490b3b0b          	0x490b3b0b
 3ca:	00170213          	addi	tp,a4,1
 3ce:	0b00                	addi	s0,sp,400
 3d0:	0034                	addi	a3,sp,8
 3d2:	0b3a0e03          	lb	t3,179(s4)
 3d6:	13490b3b          	0x13490b3b
 3da:	061c                	addi	a5,sp,768
 3dc:	0000                	unimp
 3de:	340c                	fld	fa1,40(s0)
 3e0:	0300                	addi	s0,sp,384
 3e2:	3a0e                	fld	fs4,224(sp)
 3e4:	490b3b0b          	0x490b3b0b
 3e8:	000d1c13          	slli	s8,s10,0x0
 3ec:	0d00                	addi	s0,sp,656
 3ee:	0034                	addi	a3,sp,8
 3f0:	0b3a0e03          	lb	t3,179(s4)
 3f4:	13490b3b          	0x13490b3b
 3f8:	051c                	addi	a5,sp,640
 3fa:	0000                	unimp
 3fc:	340e                	fld	fs0,224(sp)
 3fe:	0300                	addi	s0,sp,384
 400:	3a08                	fld	fa0,48(a2)
 402:	490b3b0b          	0x490b3b0b
 406:	000d1c13          	slli	s8,s10,0x0
 40a:	0f00                	addi	s0,sp,912
 40c:	8289                	srli	a3,a3,0x2
 40e:	0101                	addi	sp,sp,0
 410:	0111                	addi	sp,sp,4
 412:	1331                	addi	t1,t1,-20
 414:	1301                	addi	t1,t1,-32
 416:	0000                	unimp
 418:	8a10                	0x8a10
 41a:	0182                	slli	gp,gp,0x0
 41c:	0200                	addi	s0,sp,256
 41e:	9118                	0x9118
 420:	1842                	slli	a6,a6,0x30
 422:	0000                	unimp
 424:	8911                	andi	a0,a0,4
 426:	0182                	slli	gp,gp,0x0
 428:	1100                	addi	s0,sp,160
 42a:	3101                	jal	2a <_min_stack-0x1fd6>
 42c:	12000013          	li	zero,288
 430:	002e                	0x2e
 432:	193c193f 0e030e6e 	0xe030e6e193c193f
 43a:	0b3a                	slli	s6,s6,0xe
 43c:	00000b3b          	0xb3b
 440:	0100                	addi	s0,sp,128
 442:	0011                	c.addi	zero,4
 444:	0610                	addi	a2,sp,768
 446:	0655                	addi	a2,a2,21
 448:	081b0803          	lb	a6,129(s6)
 44c:	0825                	addi	a6,a6,9
 44e:	00000513          	li	a0,0
	...

Disassembly of section .debug_loc:

00000000 <.debug_loc>:
   0:	039e                	slli	t2,t2,0x7
   2:	0000                	unimp
   4:	03ac                	addi	a1,sp,456
   6:	0000                	unimp
   8:	0001                	nop
   a:	ac5a                	fsd	fs6,24(sp)
   c:	c4000003          	lb	zero,-960(zero) # fffffc40 <pulp__FC+0xfffffc41>
  10:	01000003          	lb	zero,16(zero) # 10 <_min_stack-0x1ff0>
  14:	5900                	lw	s0,48(a0)
  16:	03c4                	addi	s1,sp,452
  18:	0000                	unimp
  1a:	03ca                	slli	t2,t2,0x12
  1c:	0000                	unimp
  1e:	0004                	addi	s1,sp,0
  20:	9f5a01f3          	0x9f5a01f3
  24:	03ca                	slli	t2,t2,0x12
  26:	0000                	unimp
  28:	03ce                	slli	t2,t2,0x13
  2a:	0000                	unimp
  2c:	0001                	nop
  2e:	0059                	c.addi	zero,22
  30:	0000                	unimp
  32:	0000                	unimp
  34:	0000                	unimp
  36:	9e00                	0x9e00
  38:	ac000003          	lb	zero,-1344(zero) # fffffac0 <pulp__FC+0xfffffac1>
  3c:	02000003          	lb	zero,32(zero) # 20 <_min_stack-0x1fe0>
  40:	3000                	fld	fs0,32(s0)
  42:	b09f 0003 c600      	0xc6000003b09f
  48:	01000003          	lb	zero,16(zero) # 10 <_min_stack-0x1ff0>
  4c:	6200                	flw	fs0,0(a2)
  4e:	03c6                	slli	t2,t2,0x11
  50:	0000                	unimp
  52:	03ca                	slli	t2,t2,0x12
  54:	0000                	unimp
  56:	0001                	nop
  58:	ca5a                	sw	s6,20(sp)
  5a:	ce000003          	lb	zero,-800(zero) # fffffce0 <pulp__FC+0xfffffce1>
  5e:	06000003          	lb	zero,96(zero) # 60 <_min_stack-0x1fa0>
  62:	7800                	flw	fs0,48(s0)
  64:	7900                	flw	fs0,48(a0)
  66:	1c00                	addi	s0,sp,560
  68:	009f 0000 0000      	0x9f
  6e:	0000                	unimp
  70:	b800                	fsd	fs0,48(s0)
  72:	bc000003          	lb	zero,-1088(zero) # fffffbc0 <pulp__FC+0xfffffbc1>
  76:	02000003          	lb	zero,32(zero) # 20 <_min_stack-0x1fe0>
  7a:	3a00                	fld	fs0,48(a2)
  7c:	009f 0000 0000      	0x9f
  82:	0000                	unimp
  84:	ca00                	sw	s0,16(a2)
  86:	cb000003          	lb	zero,-848(zero) # fffffcb0 <pulp__FC+0xfffffcb1>
  8a:	06000003          	lb	zero,96(zero) # 60 <_min_stack-0x1fa0>
  8e:	7a00                	flw	fs0,48(a2)
  90:	0800                	addi	s0,sp,16
  92:	1aff                	0x1aff
  94:	009f 0000 0000      	0x9f
  9a:	0000                	unimp
  9c:	3c00                	fld	fs0,56(s0)
  9e:	0002                	0x2
  a0:	7e00                	flw	fs0,56(a2)
  a2:	0002                	0x2
  a4:	0100                	addi	s0,sp,128
  a6:	5a00                	lw	s0,48(a2)
  a8:	027e                	slli	tp,tp,0x1f
  aa:	0000                	unimp
  ac:	0394                	addi	a3,sp,448
  ae:	0000                	unimp
  b0:	0004                	addi	s1,sp,0
  b2:	9f5a01f3          	0x9f5a01f3
	...
  be:	0266                	slli	tp,tp,0x19
  c0:	0000                	unimp
  c2:	0288                	addi	a0,sp,320
  c4:	0000                	unimp
  c6:	0001                	nop
  c8:	9e58                	0x9e58
  ca:	0002                	0x2
  cc:	f000                	fsw	fs0,32(s0)
  ce:	0002                	0x2
  d0:	0100                	addi	s0,sp,128
  d2:	5800                	lw	s0,48(s0)
  d4:	02f0                	addi	a2,sp,332
  d6:	0000                	unimp
  d8:	02fc                	addi	a5,sp,332
  da:	0000                	unimp
  dc:	0001                	nop
  de:	fc68                	fsw	fa0,124(s0)
  e0:	0002                	0x2
  e2:	1a00                	addi	s0,sp,304
  e4:	01000003          	lb	zero,16(zero) # 10 <_min_stack-0x1ff0>
  e8:	5800                	lw	s0,48(s0)
  ea:	031a                	slli	t1,t1,0x6
  ec:	0000                	unimp
  ee:	032a                	slli	t1,t1,0xa
  f0:	0000                	unimp
  f2:	0001                	nop
  f4:	2a68                	fld	fa0,208(a2)
  f6:	3a000003          	lb	zero,928(zero) # 3a0 <_min_stack-0x1c60>
  fa:	01000003          	lb	zero,16(zero) # 10 <_min_stack-0x1ff0>
  fe:	5800                	lw	s0,48(s0)
 100:	033a                	slli	t1,t1,0xe
 102:	0000                	unimp
 104:	0342                	slli	t1,t1,0x10
 106:	0000                	unimp
 108:	0001                	nop
 10a:	4268                	lw	a0,68(a2)
 10c:	4e000003          	lb	zero,1248(zero) # 4e0 <_min_stack-0x1b20>
 110:	01000003          	lb	zero,16(zero) # 10 <_min_stack-0x1ff0>
 114:	5800                	lw	s0,48(s0)
 116:	034e                	slli	t1,t1,0x13
 118:	0000                	unimp
 11a:	0358                	addi	a4,sp,388
 11c:	0000                	unimp
 11e:	0001                	nop
 120:	5868                	lw	a0,116(s0)
 122:	64000003          	lb	zero,1600(zero) # 640 <_min_stack-0x19c0>
 126:	01000003          	lb	zero,16(zero) # 10 <_min_stack-0x1ff0>
 12a:	5800                	lw	s0,48(s0)
 12c:	0364                	addi	s1,sp,396
 12e:	0000                	unimp
 130:	036a                	slli	t1,t1,0x1a
 132:	0000                	unimp
 134:	0001                	nop
 136:	6a68                	flw	fa0,84(a2)
 138:	78000003          	lb	zero,1920(zero) # 780 <_min_stack-0x1880>
 13c:	01000003          	lb	zero,16(zero) # 10 <_min_stack-0x1ff0>
 140:	5800                	lw	s0,48(s0)
 142:	0378                	addi	a4,sp,396
 144:	0000                	unimp
 146:	0388                	addi	a0,sp,448
 148:	0000                	unimp
 14a:	0001                	nop
 14c:	8868                	0x8868
 14e:	94000003          	lb	zero,-1728(zero) # fffff940 <pulp__FC+0xfffff941>
 152:	01000003          	lb	zero,16(zero) # 10 <_min_stack-0x1ff0>
 156:	5800                	lw	s0,48(s0)
	...
 160:	0266                	slli	tp,tp,0x19
 162:	0000                	unimp
 164:	027e                	slli	tp,tp,0x1f
 166:	0000                	unimp
 168:	0001                	nop
 16a:	7e5a                	flw	ft8,180(sp)
 16c:	0002                	0x2
 16e:	8400                	0x8400
 170:	0002                	0x2
 172:	0100                	addi	s0,sp,128
 174:	6700                	flw	fs0,8(a4)
 176:	029e                	slli	t0,t0,0x7
 178:	0000                	unimp
 17a:	02a2                	slli	t0,t0,0x8
 17c:	0000                	unimp
 17e:	0001                	nop
 180:	0002a267          	0x2a267
 184:	ba00                	fsd	fs0,48(a2)
 186:	0002                	0x2
 188:	0300                	addi	s0,sp,384
 18a:	8700                	0x8700
 18c:	9f01                	0x9f01
 18e:	02ba                	slli	t0,t0,0xe
 190:	0000                	unimp
 192:	02bc                	addi	a5,sp,328
 194:	0000                	unimp
 196:	0001                	nop
 198:	be5f 0002 fc00      	0xfc000002be5f
 19e:	0002                	0x2
 1a0:	0100                	addi	s0,sp,128
 1a2:	6700                	flw	fs0,8(a4)
 1a4:	02fc                	addi	a5,sp,332
 1a6:	0000                	unimp
 1a8:	0300                	addi	s0,sp,384
 1aa:	0000                	unimp
 1ac:	01870003          	lb	zero,24(a4)
 1b0:	009f 0003 0400      	0x4000003009f
 1b6:	03000003          	lb	zero,48(zero) # 30 <_min_stack-0x1fd0>
 1ba:	7d00                	flw	fs0,56(a0)
 1bc:	9f01                	0x9f01
 1be:	0304                	addi	s1,sp,384
 1c0:	0000                	unimp
 1c2:	030a                	slli	t1,t1,0x2
 1c4:	0000                	unimp
 1c6:	0001                	nop
 1c8:	00030a67          	jalr	s4,t1
 1cc:	0c00                	addi	s0,sp,528
 1ce:	03000003          	lb	zero,48(zero) # 30 <_min_stack-0x1fd0>
 1d2:	8000                	0x8000
 1d4:	9f7f                	0x9f7f
 1d6:	030c                	addi	a1,sp,384
 1d8:	0000                	unimp
 1da:	030e                	slli	t1,t1,0x3
 1dc:	0000                	unimp
 1de:	01870003          	lb	zero,24(a4)
 1e2:	0e9f 0003 2a00      	0x2a0000030e9f
 1e8:	01000003          	lb	zero,16(zero) # 10 <_min_stack-0x1ff0>
 1ec:	6700                	flw	fs0,8(a4)
 1ee:	032a                	slli	t1,t1,0xa
 1f0:	0000                	unimp
 1f2:	032c                	addi	a1,sp,392
 1f4:	0000                	unimp
 1f6:	01870003          	lb	zero,24(a4)
 1fa:	2c9f 0003 8800      	0x880000032c9f
 200:	01000003          	lb	zero,16(zero) # 10 <_min_stack-0x1ff0>
 204:	6700                	flw	fs0,8(a4)
 206:	0388                	addi	a0,sp,448
 208:	0000                	unimp
 20a:	038a                	slli	t2,t2,0x2
 20c:	0000                	unimp
 20e:	017f0003          	lb	zero,23(t5)
 212:	8a9f 0003 9400      	0x940000038a9f
 218:	01000003          	lb	zero,16(zero) # 10 <_min_stack-0x1ff0>
 21c:	6700                	flw	fs0,8(a4)
	...
 226:	02a2                	slli	t0,t0,0x8
 228:	0000                	unimp
 22a:	02ce                	slli	t0,t0,0x13
 22c:	0000                	unimp
 22e:	0002                	0x2
 230:	9f30                	0x9f30
 232:	02ce                	slli	t0,t0,0x13
 234:	0000                	unimp
 236:	02f8                	addi	a4,sp,332
 238:	0000                	unimp
 23a:	0001                	nop
 23c:	f85d                	bnez	s0,1f2 <_min_stack-0x1e0e>
 23e:	0002                	0x2
 240:	f900                	fsw	fs0,48(a0)
 242:	0002                	0x2
 244:	0100                	addi	s0,sp,128
 246:	5b00                	lw	s0,48(a4)
 248:	02fc                	addi	a5,sp,332
 24a:	0000                	unimp
 24c:	0304                	addi	s1,sp,384
 24e:	0000                	unimp
 250:	0002                	0x2
 252:	9f30                	0x9f30
 254:	0304                	addi	s1,sp,384
 256:	0000                	unimp
 258:	0325                	addi	t1,t1,9
 25a:	0000                	unimp
 25c:	0001                	nop
 25e:	2e5d                	jal	614 <_min_stack-0x19ec>
 260:	88000003          	lb	zero,-1920(zero) # fffff880 <pulp__FC+0xfffff881>
 264:	01000003          	lb	zero,16(zero) # 10 <_min_stack-0x1ff0>
 268:	5d00                	lw	s0,56(a0)
 26a:	0388                	addi	a0,sp,448
 26c:	0000                	unimp
 26e:	038a                	slli	t2,t2,0x2
 270:	0000                	unimp
 272:	0002                	0x2
 274:	9f30                	0x9f30
	...
 27e:	02a2                	slli	t0,t0,0x8
 280:	0000                	unimp
 282:	02ba                	slli	t0,t0,0xe
 284:	0000                	unimp
 286:	0002                	0x2
 288:	9f30                	0x9f30
 28a:	02ba                	slli	t0,t0,0xe
 28c:	0000                	unimp
 28e:	02bc                	addi	a5,sp,328
 290:	0000                	unimp
 292:	0002                	0x2
 294:	9f31                	0x9f31
 296:	02be                	slli	t0,t0,0xf
 298:	0000                	unimp
 29a:	02f8                	addi	a4,sp,332
 29c:	0000                	unimp
 29e:	0001                	nop
 2a0:	f85e                	fsw	fs7,48(sp)
 2a2:	0002                	0x2
 2a4:	f900                	fsw	fs0,48(a0)
 2a6:	0002                	0x2
 2a8:	0100                	addi	s0,sp,128
 2aa:	5c00                	lw	s0,56(s0)
 2ac:	02fc                	addi	a5,sp,332
 2ae:	0000                	unimp
 2b0:	0325                	addi	t1,t1,9
 2b2:	0000                	unimp
 2b4:	0001                	nop
 2b6:	2e5e                	fld	ft8,464(sp)
 2b8:	88000003          	lb	zero,-1920(zero) # fffff880 <pulp__FC+0xfffff881>
 2bc:	01000003          	lb	zero,16(zero) # 10 <_min_stack-0x1ff0>
 2c0:	5e00                	lw	s0,56(a2)
 2c2:	0388                	addi	a0,sp,448
 2c4:	0000                	unimp
 2c6:	038a                	slli	t2,t2,0x2
 2c8:	0000                	unimp
 2ca:	0002                	0x2
 2cc:	9f30                	0x9f30
	...
 2d6:	027e                	slli	tp,tp,0x1f
 2d8:	0000                	unimp
 2da:	0296                	slli	t0,t0,0x5
 2dc:	0000                	unimp
 2de:	0001                	nop
 2e0:	9666                	add	a2,a2,s9
 2e2:	0002                	0x2
 2e4:	9e00                	0x9e00
 2e6:	0002                	0x2
 2e8:	0100                	addi	s0,sp,128
 2ea:	5a00                	lw	s0,48(a2)
 2ec:	029e                	slli	t0,t0,0x7
 2ee:	0000                	unimp
 2f0:	0390                	addi	a2,sp,448
 2f2:	0000                	unimp
 2f4:	0001                	nop
 2f6:	9066                	0x9066
 2f8:	92000003          	lb	zero,-1760(zero) # fffff920 <pulp__FC+0xfffff921>
 2fc:	03000003          	lb	zero,48(zero) # 30 <_min_stack-0x1fd0>
 300:	8600                	0x8600
 302:	9f7f                	0x9f7f
 304:	0392                	slli	t2,t2,0x4
 306:	0000                	unimp
 308:	0394                	addi	a3,sp,448
 30a:	0000                	unimp
 30c:	0001                	nop
 30e:	0066                	0x66
 310:	0000                	unimp
 312:	0000                	unimp
 314:	0000                	unimp
 316:	8a00                	0x8a00
 318:	92000003          	lb	zero,-1760(zero) # fffff920 <pulp__FC+0xfffff921>
 31c:	02000003          	lb	zero,32(zero) # 20 <_min_stack-0x1fe0>
 320:	3000                	fld	fs0,32(s0)
 322:	009f 0000 0000      	0x9f
 328:	0000                	unimp
 32a:	8a00                	0x8a00
 32c:	91000003          	lb	zero,-1776(zero) # fffff910 <pulp__FC+0xfffff911>
 330:	08000003          	lb	zero,128(zero) # 80 <_min_stack-0x1f80>
 334:	8700                	0x8700
 336:	9400                	0x9400
 338:	0801                	addi	a6,a6,0
 33a:	1aff                	0x1aff
 33c:	009f 0000 0000      	0x9f
 342:	0000                	unimp
 344:	2e00                	fld	fs0,24(a2)
 346:	0000                	unimp
 348:	4400                	lw	s0,8(s0)
 34a:	0000                	unimp
 34c:	0100                	addi	s0,sp,128
 34e:	5a00                	lw	s0,48(a2)
 350:	0044                	addi	s1,sp,4
 352:	0000                	unimp
 354:	0054                	addi	a3,sp,4
 356:	0000                	unimp
 358:	0001                	nop
 35a:	005a                	0x5a
 35c:	0000                	unimp
 35e:	0000                	unimp
 360:	0000                	unimp
 362:	2e00                	fld	fs0,24(a2)
 364:	0000                	unimp
 366:	4a00                	lw	s0,16(a2)
 368:	0000                	unimp
 36a:	0100                	addi	s0,sp,128
 36c:	5b00                	lw	s0,48(a4)
 36e:	004a                	0x4a
 370:	0000                	unimp
 372:	0054                	addi	a3,sp,4
 374:	0000                	unimp
 376:	0001                	nop
 378:	0000005b          	p.mac	zero,zero,zero,zero
	...
 384:	1400                	addi	s0,sp,544
 386:	0000                	unimp
 388:	0100                	addi	s0,sp,128
 38a:	5b00                	lw	s0,48(a4)
 38c:	0014                	addi	a3,sp,0
 38e:	0000                	unimp
 390:	002e                	0x2e
 392:	0000                	unimp
 394:	0004                	addi	s1,sp,0
 396:	9f5b01f3          	0x9f5b01f3
	...
 3a2:	0076                	0x76
 3a4:	0000                	unimp
 3a6:	0094                	addi	a3,sp,64
 3a8:	0000                	unimp
 3aa:	0001                	nop
 3ac:	945a                	add	s0,s0,s6
 3ae:	0000                	unimp
 3b0:	ca00                	sw	s0,16(a2)
 3b2:	0000                	unimp
 3b4:	0100                	addi	s0,sp,128
 3b6:	5900                	lw	s0,48(a0)
 3b8:	00ec                	addi	a1,sp,76
 3ba:	0000                	unimp
 3bc:	0114                	addi	a3,sp,128
 3be:	0000                	unimp
 3c0:	0001                	nop
 3c2:	0059                	c.addi	zero,22
 3c4:	0000                	unimp
 3c6:	0000                	unimp
 3c8:	0000                	unimp
 3ca:	7600                	flw	fs0,40(a2)
 3cc:	0000                	unimp
 3ce:	a600                	fsd	fs0,8(a2)
 3d0:	0000                	unimp
 3d2:	0100                	addi	s0,sp,128
 3d4:	5b00                	lw	s0,48(a4)
 3d6:	00a6                	slli	ra,ra,0x9
 3d8:	0000                	unimp
 3da:	00ba                	slli	ra,ra,0xe
 3dc:	0000                	unimp
 3de:	0001                	nop
 3e0:	ce58                	sw	a4,28(a2)
 3e2:	0000                	unimp
 3e4:	e200                	fsw	fs0,0(a2)
 3e6:	0000                	unimp
 3e8:	0100                	addi	s0,sp,128
 3ea:	5900                	lw	s0,48(a0)
 3ec:	00ec                	addi	a1,sp,76
 3ee:	0000                	unimp
 3f0:	00ee                	slli	ra,ra,0x1b
 3f2:	0000                	unimp
 3f4:	0001                	nop
 3f6:	ee58                	fsw	fa4,28(a2)
 3f8:	0000                	unimp
 3fa:	f000                	fsw	fs0,32(s0)
 3fc:	0000                	unimp
 3fe:	0100                	addi	s0,sp,128
 400:	5b00                	lw	s0,48(a4)
 402:	00f0                	addi	a2,sp,76
 404:	0000                	unimp
 406:	00f4                	addi	a3,sp,76
 408:	0000                	unimp
 40a:	0001                	nop
 40c:	0000f463          	bleu	zero,ra,414 <_min_stack-0x1bec>
 410:	f600                	fsw	fs0,40(a2)
 412:	0000                	unimp
 414:	0300                	addi	s0,sp,384
 416:	8300                	0x8300
 418:	9f7f                	0x9f7f
 41a:	00f6                	slli	ra,ra,0x1d
 41c:	0000                	unimp
 41e:	0106                	slli	sp,sp,0x1
 420:	0000                	unimp
 422:	0001                	nop
 424:	00010663          	beqz	sp,430 <_min_stack-0x1bd0>
 428:	0e00                	addi	s0,sp,784
 42a:	0001                	nop
 42c:	0100                	addi	s0,sp,128
 42e:	5800                	lw	s0,48(s0)
 430:	0114                	addi	a3,sp,128
 432:	0000                	unimp
 434:	011c                	addi	a5,sp,128
 436:	0000                	unimp
 438:	0001                	nop
 43a:	0059                	c.addi	zero,22
 43c:	0000                	unimp
 43e:	0000                	unimp
 440:	0000                	unimp
 442:	7600                	flw	fs0,40(a2)
 444:	0000                	unimp
 446:	b600                	fsd	fs0,40(a2)
 448:	0000                	unimp
 44a:	0100                	addi	s0,sp,128
 44c:	5c00                	lw	s0,56(s0)
 44e:	00b6                	slli	ra,ra,0xd
 450:	0000                	unimp
 452:	00ec                	addi	a1,sp,76
 454:	0000                	unimp
 456:	0004                	addi	s1,sp,0
 458:	9f5c01f3          	0x9f5c01f3
 45c:	00ec                	addi	a1,sp,76
 45e:	0000                	unimp
 460:	00f0                	addi	a2,sp,76
 462:	0000                	unimp
 464:	0001                	nop
 466:	f05c                	fsw	fa5,36(s0)
 468:	0000                	unimp
 46a:	1c00                	addi	s0,sp,560
 46c:	0001                	nop
 46e:	0400                	addi	s0,sp,512
 470:	f300                	fsw	fs0,32(a4)
 472:	5c01                	li	s8,-32
 474:	009f 0000 0000      	0x9f
 47a:	0000                	unimp
 47c:	7600                	flw	fs0,40(a2)
 47e:	0000                	unimp
 480:	ba00                	fsd	fs0,48(a2)
 482:	0000                	unimp
 484:	0200                	addi	s0,sp,256
 486:	3000                	fld	fs0,32(s0)
 488:	c69f 0000 ce00      	0xce000000c69f
 48e:	0000                	unimp
 490:	0100                	addi	s0,sp,128
 492:	6400                	flw	fs0,8(s0)
 494:	00ec                	addi	a1,sp,76
 496:	0000                	unimp
 498:	00f0                	addi	a2,sp,76
 49a:	0000                	unimp
 49c:	0002                	0x2
 49e:	9f30                	0x9f30
 4a0:	0106                	slli	sp,sp,0x1
 4a2:	0000                	unimp
 4a4:	010e                	slli	sp,sp,0x3
 4a6:	0000                	unimp
 4a8:	0002                	0x2
 4aa:	9f30                	0x9f30
 4ac:	010e                	slli	sp,sp,0x3
 4ae:	0000                	unimp
 4b0:	0110                	addi	a2,sp,128
 4b2:	0000                	unimp
 4b4:	0001                	nop
 4b6:	0064                	addi	s1,sp,12
 4b8:	0000                	unimp
 4ba:	0000                	unimp
 4bc:	0000                	unimp
 4be:	7600                	flw	fs0,40(a2)
 4c0:	0000                	unimp
 4c2:	b400                	fsd	fs0,40(s0)
 4c4:	0000                	unimp
 4c6:	0300                	addi	s0,sp,384
 4c8:	0800                	addi	s0,sp,16
 4ca:	9f20                	0x9f20
 4cc:	00b4                	addi	a3,sp,72
 4ce:	0000                	unimp
 4d0:	00ce                	slli	ra,ra,0x13
 4d2:	0000                	unimp
 4d4:	0001                	nop
 4d6:	ec62                	fsw	fs8,24(sp)
 4d8:	0000                	unimp
 4da:	f000                	fsw	fs0,32(s0)
 4dc:	0000                	unimp
 4de:	0300                	addi	s0,sp,384
 4e0:	0800                	addi	s0,sp,16
 4e2:	9f20                	0x9f20
 4e4:	00f0                	addi	a2,sp,76
 4e6:	0000                	unimp
 4e8:	0114                	addi	a3,sp,128
 4ea:	0000                	unimp
 4ec:	0001                	nop
 4ee:	0062                	0x62
 4f0:	0000                	unimp
 4f2:	0000                	unimp
 4f4:	0000                	unimp
 4f6:	9e00                	0x9e00
 4f8:	0000                	unimp
 4fa:	b400                	fsd	fs0,40(s0)
 4fc:	0000                	unimp
 4fe:	0100                	addi	s0,sp,128
 500:	5e00                	lw	s0,56(a2)
 502:	00ec                	addi	a1,sp,76
 504:	0000                	unimp
 506:	00f0                	addi	a2,sp,76
 508:	0000                	unimp
 50a:	0001                	nop
 50c:	005e                	0x5e
 50e:	0000                	unimp
 510:	0000                	unimp
 512:	0000                	unimp
 514:	9400                	0x9400
 516:	0000                	unimp
 518:	9600                	0x9600
 51a:	0000                	unimp
 51c:	0100                	addi	s0,sp,128
 51e:	5f00                	lw	s0,56(a4)
 520:	009e                	slli	ra,ra,0x7
 522:	0000                	unimp
 524:	00aa                	slli	ra,ra,0xa
 526:	0000                	unimp
 528:	0001                	nop
 52a:	ec5f 0000 f000      	0xf0000000ec5f
 530:	0000                	unimp
 532:	0100                	addi	s0,sp,128
 534:	5f00                	lw	s0,56(a4)
	...
 53e:	0114                	addi	a3,sp,128
 540:	0000                	unimp
 542:	0118                	addi	a4,sp,128
 544:	0000                	unimp
 546:	0002                	0x2
 548:	9f30                	0x9f30
	...
 552:	00f0                	addi	a2,sp,76
 554:	0000                	unimp
 556:	00f4                	addi	a3,sp,76
 558:	0000                	unimp
 55a:	0002                	0x2
 55c:	9f30                	0x9f30
	...
 566:	010e                	slli	sp,sp,0x3
 568:	0000                	unimp
 56a:	0110                	addi	a2,sp,128
 56c:	0000                	unimp
 56e:	0002                	0x2
 570:	9f30                	0x9f30
	...
 57a:	010e                	slli	sp,sp,0x3
 57c:	0000                	unimp
 57e:	0000010f          	0x10f
 582:	0006                	0x6
 584:	007a                	0x7a
 586:	ff08                	fsw	fa0,56(a4)
 588:	9f1a                	add	t5,t5,t1
	...
 592:	011c                	addi	a5,sp,128
 594:	0000                	unimp
 596:	0132                	slli	sp,sp,0xc
 598:	0000                	unimp
 59a:	0001                	nop
 59c:	325a                	fld	ft4,432(sp)
 59e:	0001                	nop
 5a0:	4200                	lw	s0,0(a2)
 5a2:	0001                	nop
 5a4:	0400                	addi	s0,sp,512
 5a6:	f300                	fsw	fs0,32(a4)
 5a8:	5a01                	li	s4,-32
 5aa:	429f 0001 5200      	0x52000001429f
 5b0:	0001                	nop
 5b2:	0100                	addi	s0,sp,128
 5b4:	5a00                	lw	s0,48(a2)
 5b6:	0152                	slli	sp,sp,0x14
 5b8:	0000                	unimp
 5ba:	01c0                	addi	s0,sp,196
 5bc:	0000                	unimp
 5be:	0004                	addi	s1,sp,0
 5c0:	9f5a01f3          	0x9f5a01f3
 5c4:	01c0                	addi	s0,sp,196
 5c6:	0000                	unimp
 5c8:	01c4                	addi	s1,sp,196
 5ca:	0000                	unimp
 5cc:	0001                	nop
 5ce:	c45a                	sw	s6,8(sp)
 5d0:	0001                	nop
 5d2:	1600                	addi	s0,sp,800
 5d4:	0002                	0x2
 5d6:	0400                	addi	s0,sp,512
 5d8:	f300                	fsw	fs0,32(a4)
 5da:	5a01                	li	s4,-32
 5dc:	009f 0000 0000      	0x9f
 5e2:	0000                	unimp
 5e4:	1c00                	addi	s0,sp,560
 5e6:	0001                	nop
 5e8:	3000                	fld	fs0,32(s0)
 5ea:	0001                	nop
 5ec:	0100                	addi	s0,sp,128
 5ee:	5b00                	lw	s0,48(a4)
 5f0:	0130                	addi	a2,sp,136
 5f2:	0000                	unimp
 5f4:	0142                	slli	sp,sp,0x10
 5f6:	0000                	unimp
 5f8:	0004                	addi	s1,sp,0
 5fa:	9f5b01f3          	0x9f5b01f3
 5fe:	0142                	slli	sp,sp,0x10
 600:	0000                	unimp
 602:	0172                	slli	sp,sp,0x1c
 604:	0000                	unimp
 606:	0001                	nop
 608:	0001725b          	p.mac.zh.zh	tp,sp,zero,zero
 60c:	c000                	sw	s0,0(s0)
 60e:	0001                	nop
 610:	0400                	addi	s0,sp,512
 612:	f300                	fsw	fs0,32(a4)
 614:	5b01                	li	s6,-32
 616:	c09f 0001 dc00      	0xdc000001c09f
 61c:	0001                	nop
 61e:	0100                	addi	s0,sp,128
 620:	5b00                	lw	s0,48(a4)
 622:	01dc                	addi	a5,sp,196
 624:	0000                	unimp
 626:	0200                	addi	s0,sp,256
 628:	0000                	unimp
 62a:	0004                	addi	s1,sp,0
 62c:	9f5b01f3          	0x9f5b01f3
 630:	0200                	addi	s0,sp,256
 632:	0000                	unimp
 634:	0208                	addi	a0,sp,256
 636:	0000                	unimp
 638:	0001                	nop
 63a:	0002085b          	p.mac	a6,tp,zero,zero
 63e:	1600                	addi	s0,sp,800
 640:	0002                	0x2
 642:	0400                	addi	s0,sp,512
 644:	f300                	fsw	fs0,32(a4)
 646:	5b01                	li	s6,-32
 648:	009f 0000 0000      	0x9f
 64e:	0000                	unimp
 650:	1c00                	addi	s0,sp,560
 652:	0001                	nop
 654:	2800                	fld	fs0,16(s0)
 656:	0001                	nop
 658:	0100                	addi	s0,sp,128
 65a:	5c00                	lw	s0,56(s0)
 65c:	0128                	addi	a0,sp,136
 65e:	0000                	unimp
 660:	0138                	addi	a4,sp,136
 662:	0000                	unimp
 664:	0001                	nop
 666:	3859                	jal	fffffefc <pulp__FC+0xfffffefd>
 668:	0001                	nop
 66a:	4200                	lw	s0,0(a2)
 66c:	0001                	nop
 66e:	0400                	addi	s0,sp,512
 670:	f300                	fsw	fs0,32(a4)
 672:	5c01                	li	s8,-32
 674:	429f 0001 5200      	0x52000001429f
 67a:	0001                	nop
 67c:	0100                	addi	s0,sp,128
 67e:	5900                	lw	s0,48(a0)
 680:	0152                	slli	sp,sp,0x14
 682:	0000                	unimp
 684:	01c0                	addi	s0,sp,196
 686:	0000                	unimp
 688:	0004                	addi	s1,sp,0
 68a:	9f5c01f3          	0x9f5c01f3
 68e:	01c0                	addi	s0,sp,196
 690:	0000                	unimp
 692:	01c2                	slli	gp,gp,0x10
 694:	0000                	unimp
 696:	0001                	nop
 698:	c259                	beqz	a2,71e <_min_stack-0x18e2>
 69a:	0001                	nop
 69c:	1600                	addi	s0,sp,800
 69e:	0002                	0x2
 6a0:	0400                	addi	s0,sp,512
 6a2:	f300                	fsw	fs0,32(a4)
 6a4:	5c01                	li	s8,-32
 6a6:	009f 0000 0000      	0x9f
 6ac:	0000                	unimp
 6ae:	1c00                	addi	s0,sp,560
 6b0:	0001                	nop
 6b2:	3700                	fld	fs0,40(a4)
 6b4:	0001                	nop
 6b6:	0100                	addi	s0,sp,128
 6b8:	5d00                	lw	s0,56(a0)
 6ba:	00000137          	lui	sp,0x0
 6be:	0138                	addi	a4,sp,136
 6c0:	0000                	unimp
 6c2:	0004                	addi	s1,sp,0
 6c4:	9f5d01f3          	0x9f5d01f3
 6c8:	0142                	slli	sp,sp,0x10
 6ca:	0000                	unimp
 6cc:	000001ef          	jal	gp,6cc <_min_stack-0x1934>
 6d0:	0001                	nop
 6d2:	ef5d                	bnez	a4,790 <_min_stack-0x1870>
 6d4:	0001                	nop
 6d6:	f600                	fsw	fs0,40(a2)
 6d8:	0001                	nop
 6da:	0400                	addi	s0,sp,512
 6dc:	f300                	fsw	fs0,32(a4)
 6de:	5d01                	li	s10,-32
 6e0:	f69f 0001 fb00      	0xfb000001f69f
 6e6:	0001                	nop
 6e8:	0100                	addi	s0,sp,128
 6ea:	5d00                	lw	s0,56(a0)
 6ec:	0200                	addi	s0,sp,256
 6ee:	0000                	unimp
 6f0:	0216                	slli	tp,tp,0x5
 6f2:	0000                	unimp
 6f4:	0001                	nop
 6f6:	005d                	c.addi	zero,23
 6f8:	0000                	unimp
 6fa:	0000                	unimp
 6fc:	0000                	unimp
 6fe:	1c00                	addi	s0,sp,560
 700:	0001                	nop
 702:	3700                	fld	fs0,40(a4)
 704:	0001                	nop
 706:	0100                	addi	s0,sp,128
 708:	5e00                	lw	s0,56(a2)
 70a:	00000137          	lui	sp,0x0
 70e:	0142                	slli	sp,sp,0x10
 710:	0000                	unimp
 712:	0004                	addi	s1,sp,0
 714:	9f5e01f3          	0x9f5e01f3
 718:	0142                	slli	sp,sp,0x10
 71a:	0000                	unimp
 71c:	000001ef          	jal	gp,71c <_min_stack-0x18e4>
 720:	0001                	nop
 722:	ef5c                	fsw	fa5,28(a4)
 724:	0001                	nop
 726:	0000                	unimp
 728:	0002                	0x2
 72a:	0400                	addi	s0,sp,512
 72c:	f300                	fsw	fs0,32(a4)
 72e:	5e01                	li	t3,-32
 730:	009f 0002 1600      	0x16000002009f
 736:	0002                	0x2
 738:	0100                	addi	s0,sp,128
 73a:	5c00                	lw	s0,56(s0)
	...
 744:	011c                	addi	a5,sp,128
 746:	0000                	unimp
 748:	012e                	slli	sp,sp,0xb
 74a:	0000                	unimp
 74c:	0001                	nop
 74e:	2e5f 0001 4200      	0x420000012e5f
 754:	0001                	nop
 756:	0400                	addi	s0,sp,512
 758:	f300                	fsw	fs0,32(a4)
 75a:	5f01                	li	t5,-32
 75c:	429f 0001 7200      	0x72000001429f
 762:	0001                	nop
 764:	0100                	addi	s0,sp,128
 766:	5f00                	lw	s0,56(a4)
 768:	0172                	slli	sp,sp,0x1c
 76a:	0000                	unimp
 76c:	01c0                	addi	s0,sp,196
 76e:	0000                	unimp
 770:	0004                	addi	s1,sp,0
 772:	9f5f01f3          	0x9f5f01f3
 776:	01c0                	addi	s0,sp,196
 778:	0000                	unimp
 77a:	01c4                	addi	s1,sp,196
 77c:	0000                	unimp
 77e:	0001                	nop
 780:	c45f 0001 0000      	0x1c45f
 786:	0002                	0x2
 788:	0400                	addi	s0,sp,512
 78a:	f300                	fsw	fs0,32(a4)
 78c:	5f01                	li	t5,-32
 78e:	009f 0002 0600      	0x6000002009f
 794:	0002                	0x2
 796:	0100                	addi	s0,sp,128
 798:	5f00                	lw	s0,56(a4)
 79a:	0206                	slli	tp,tp,0x1
 79c:	0000                	unimp
 79e:	0216                	slli	tp,tp,0x5
 7a0:	0000                	unimp
 7a2:	0004                	addi	s1,sp,0
 7a4:	9f5f01f3          	0x9f5f01f3
	...
 7b0:	0152                	slli	sp,sp,0x14
 7b2:	0000                	unimp
 7b4:	015c                	addi	a5,sp,132
 7b6:	0000                	unimp
 7b8:	6f910003          	lb	zero,1785(sp) # 6f9 <_min_stack-0x1907>
 7bc:	5c9f 0001 c000      	0xc00000015c9f
 7c2:	0001                	nop
 7c4:	0100                	addi	s0,sp,128
 7c6:	5800                	lw	s0,48(s0)
 7c8:	01c4                	addi	s1,sp,196
 7ca:	0000                	unimp
 7cc:	0208                	addi	a0,sp,256
 7ce:	0000                	unimp
 7d0:	0001                	nop
 7d2:	0858                	addi	a4,sp,20
 7d4:	0002                	0x2
 7d6:	1400                	addi	s0,sp,544
 7d8:	0002                	0x2
 7da:	0300                	addi	s0,sp,384
 7dc:	7800                	flw	fs0,48(s0)
 7de:	9f7f                	0x9f7f
 7e0:	0214                	addi	a3,sp,256
 7e2:	0000                	unimp
 7e4:	0216                	slli	tp,tp,0x5
 7e6:	0000                	unimp
 7e8:	0001                	nop
 7ea:	0058                	addi	a4,sp,4
 7ec:	0000                	unimp
 7ee:	0000                	unimp
 7f0:	0000                	unimp
 7f2:	1c00                	addi	s0,sp,560
 7f4:	0001                	nop
 7f6:	3800                	fld	fs0,48(s0)
 7f8:	0001                	nop
 7fa:	0200                	addi	s0,sp,256
 7fc:	3000                	fld	fs0,32(s0)
 7fe:	429f 0001 4e00      	0x4e000001429f
 804:	0001                	nop
 806:	0200                	addi	s0,sp,256
 808:	3000                	fld	fs0,32(s0)
 80a:	4e9f 0001 5200      	0x520000014e9f
 810:	0001                	nop
 812:	0200                	addi	s0,sp,256
 814:	3100                	fld	fs0,32(a0)
 816:	529f 0001 c000      	0xc0000001529f
 81c:	0001                	nop
 81e:	0100                	addi	s0,sp,128
 820:	5900                	lw	s0,48(a0)
 822:	01c0                	addi	s0,sp,196
 824:	0000                	unimp
 826:	01c4                	addi	s1,sp,196
 828:	0000                	unimp
 82a:	0002                	0x2
 82c:	9f30                	0x9f30
 82e:	01c4                	addi	s1,sp,196
 830:	0000                	unimp
 832:	01f6                	slli	gp,gp,0x1d
 834:	0000                	unimp
 836:	0001                	nop
 838:	0059                	c.addi	zero,22
 83a:	0002                	0x2
 83c:	1200                	addi	s0,sp,288
 83e:	0002                	0x2
 840:	0100                	addi	s0,sp,128
 842:	5900                	lw	s0,48(a0)
	...
 84c:	011c                	addi	a5,sp,128
 84e:	0000                	unimp
 850:	0138                	addi	a4,sp,136
 852:	0000                	unimp
 854:	0002                	0x2
 856:	9f30                	0x9f30
 858:	0142                	slli	sp,sp,0x10
 85a:	0000                	unimp
 85c:	01f0                	addi	a2,sp,204
 85e:	0000                	unimp
 860:	0002                	0x2
 862:	9f30                	0x9f30
 864:	01f0                	addi	a2,sp,204
 866:	0000                	unimp
 868:	01f6                	slli	gp,gp,0x1d
 86a:	0000                	unimp
 86c:	0002                	0x2
 86e:	9f31                	0x9f31
 870:	01f6                	slli	gp,gp,0x1d
 872:	0000                	unimp
 874:	0200                	addi	s0,sp,256
 876:	0000                	unimp
 878:	0001                	nop
 87a:	0059                	c.addi	zero,22
 87c:	0002                	0x2
 87e:	1600                	addi	s0,sp,800
 880:	0002                	0x2
 882:	0200                	addi	s0,sp,256
 884:	3000                	fld	fs0,32(s0)
 886:	009f 0000 0000      	0x9f
 88c:	0000                	unimp
 88e:	1c00                	addi	s0,sp,560
 890:	0001                	nop
 892:	3200                	fld	fs0,32(a2)
 894:	0001                	nop
 896:	0100                	addi	s0,sp,128
 898:	5a00                	lw	s0,48(a2)
 89a:	0132                	slli	sp,sp,0xc
 89c:	0000                	unimp
 89e:	0138                	addi	a4,sp,136
 8a0:	0000                	unimp
 8a2:	0004                	addi	s1,sp,0
 8a4:	9f5a01f3          	0x9f5a01f3
 8a8:	0142                	slli	sp,sp,0x10
 8aa:	0000                	unimp
 8ac:	01b8                	addi	a4,sp,200
 8ae:	0000                	unimp
 8b0:	0001                	nop
 8b2:	b85a                	fsd	fs6,48(sp)
 8b4:	0001                	nop
 8b6:	ba00                	fsd	fs0,48(a2)
 8b8:	0001                	nop
 8ba:	0300                	addi	s0,sp,384
 8bc:	7a00                	flw	fs0,48(a2)
 8be:	9f7a                	add	t5,t5,t5
 8c0:	01c0                	addi	s0,sp,196
 8c2:	0000                	unimp
 8c4:	01ea                	slli	gp,gp,0x1a
 8c6:	0000                	unimp
 8c8:	0001                	nop
 8ca:	005a                	0x5a
 8cc:	0002                	0x2
 8ce:	1600                	addi	s0,sp,800
 8d0:	0002                	0x2
 8d2:	0100                	addi	s0,sp,128
 8d4:	5a00                	lw	s0,48(a2)
	...
 8de:	0174                	addi	a3,sp,140
 8e0:	0000                	unimp
 8e2:	017c                	addi	a5,sp,140
 8e4:	0000                	unimp
 8e6:	0001                	nop
 8e8:	005a                	0x5a
 8ea:	0000                	unimp
 8ec:	0000                	unimp
 8ee:	0000                	unimp
 8f0:	9e00                	0x9e00
 8f2:	0001                	nop
 8f4:	b800                	fsd	fs0,48(s0)
 8f6:	0001                	nop
 8f8:	0100                	addi	s0,sp,128
 8fa:	5a00                	lw	s0,48(a2)
 8fc:	01b8                	addi	a4,sp,200
 8fe:	0000                	unimp
 900:	01ba                	slli	gp,gp,0xe
 902:	0000                	unimp
 904:	7a7a0003          	lb	zero,1959(s4)
 908:	009f 0000 0000      	0x9f
 90e:	0000                	unimp
 910:	9e00                	0x9e00
 912:	0001                	nop
 914:	be00                	fsd	fs0,56(a2)
 916:	0001                	nop
 918:	0100                	addi	s0,sp,128
 91a:	5f00                	lw	s0,56(a4)
	...
 924:	01b2                	slli	gp,gp,0xc
 926:	0000                	unimp
 928:	01b8                	addi	a4,sp,200
 92a:	0000                	unimp
 92c:	0009                	c.addi	zero,2
 92e:	007f                	0x7f
 930:	f609                	bnez	a2,83a <_min_stack-0x17c6>
 932:	7a1e                	flw	fs4,228(sp)
 934:	2200                	fld	fs0,0(a2)
 936:	b89f 0001 ba00      	0xba000001b89f
 93c:	0001                	nop
 93e:	0b00                	addi	s0,sp,400
 940:	7f00                	flw	fs0,56(a4)
 942:	0900                	addi	s0,sp,144
 944:	1ef6                	slli	t4,t4,0x3d
 946:	007a                	0x7a
 948:	3622                	fld	fa2,40(sp)
 94a:	9f1c                	0x9f1c
	...
 954:	01c8                	addi	a0,sp,196
 956:	0000                	unimp
 958:	01d4                	addi	a3,sp,196
 95a:	0000                	unimp
 95c:	0001                	nop
 95e:	d460                	sw	s0,108(s0)
 960:	0001                	nop
 962:	da00                	sw	s0,48(a2)
 964:	0001                	nop
 966:	0300                	addi	s0,sp,384
 968:	8000                	0x8000
 96a:	9f50                	0x9f50
	...
 974:	01e6                	slli	gp,gp,0x19
 976:	0000                	unimp
 978:	01f0                	addi	a2,sp,204
 97a:	0000                	unimp
 97c:	0002                	0x2
 97e:	9f30                	0x9f30
	...
 988:	01e6                	slli	gp,gp,0x19
 98a:	0000                	unimp
 98c:	01f0                	addi	a2,sp,204
 98e:	0000                	unimp
 990:	2d080003          	lb	zero,720(a6) # 590b55ae <tohost+0x590955a6>
 994:	009f 0000 0000      	0x9f
 99a:	0000                	unimp
 99c:	e600                	fsw	fs0,8(a2)
 99e:	0001                	nop
 9a0:	f600                	fsw	fs0,40(a2)
 9a2:	0001                	nop
 9a4:	0300                	addi	s0,sp,384
 9a6:	0800                	addi	s0,sp,16
 9a8:	9f2d                	0x9f2d
	...
 9b2:	0224                	addi	s1,sp,264
 9b4:	0000                	unimp
 9b6:	022e                	slli	tp,tp,0xb
 9b8:	0000                	unimp
 9ba:	0001                	nop
 9bc:	2e5a                	fld	ft8,400(sp)
 9be:	0002                	0x2
 9c0:	3800                	fld	fs0,48(s0)
 9c2:	0002                	0x2
 9c4:	0100                	addi	s0,sp,128
 9c6:	5800                	lw	s0,48(s0)
 9c8:	0238                	addi	a4,sp,264
 9ca:	0000                	unimp
 9cc:	023c                	addi	a5,sp,264
 9ce:	0000                	unimp
 9d0:	0001                	nop
 9d2:	005a                	0x5a
 9d4:	0000                	unimp
 9d6:	0000                	unimp
 9d8:	0000                	unimp
 9da:	5600                	lw	s0,40(a2)
 9dc:	0004                	addi	s1,sp,0
 9de:	6ce0                	flw	fs0,92(s1)
 9e0:	0004                	addi	s1,sp,0
 9e2:	06e0                	addi	s0,sp,844
 9e4:	9e00                	0x9e00
 9e6:	0404                	addi	s1,sp,512
 9e8:	2000                	fld	fs0,0(s0)
 9ea:	6cc8                	flw	fa0,28(s1)
 9ec:	0004                	addi	s1,sp,0
 9ee:	80e0                	0x80e0
 9f0:	0004                	addi	s1,sp,0
 9f2:	06e0                	addi	s0,sp,844
 9f4:	0c00                	addi	s0,sp,528
 9f6:	4020                	lw	s0,64(s0)
 9f8:	1040                	addi	s0,sp,36
 9fa:	809f 0004 84e0      	0x84e00004809f
 a00:	0004                	addi	s1,sp,0
 a02:	06e0                	addi	s0,sp,844
 a04:	9e00                	0x9e00
 a06:	0404                	addi	s1,sp,512
 a08:	2000                	fld	fs0,0(s0)
 a0a:	00c8                	addi	a0,sp,68
 a0c:	0000                	unimp
 a0e:	0000                	unimp
 a10:	0000                	unimp
 a12:	0e00                	addi	s0,sp,784
 a14:	0005                	c.addi	zero,1
 a16:	14e0                	addi	s0,sp,620
 a18:	0005                	c.addi	zero,1
 a1a:	01e0                	addi	s0,sp,204
 a1c:	5a00                	lw	s0,48(a2)
 a1e:	0514                	addi	a3,sp,640
 a20:	e000                	fsw	fs0,0(s0)
 a22:	058c                	addi	a1,sp,704
 a24:	e000                	fsw	fs0,0(s0)
 a26:	0004                	addi	s1,sp,0
 a28:	9f5a01f3          	0x9f5a01f3
	...
 a34:	050e                	slli	a0,a0,0x3
 a36:	e000                	fsw	fs0,0(s0)
 a38:	0512                	slli	a0,a0,0x4
 a3a:	e000                	fsw	fs0,0(s0)
 a3c:	0001                	nop
 a3e:	0005125b          	p.macu	tp,a0,zero
 a42:	8ce0                	0x8ce0
 a44:	0005                	c.addi	zero,1
 a46:	04e0                	addi	s0,sp,588
 a48:	f300                	fsw	fs0,32(a4)
 a4a:	5b01                	li	s6,-32
 a4c:	009f 0000 0000      	0x9f
 a52:	0000                	unimp
 a54:	5400                	lw	s0,40(s0)
 a56:	0005                	c.addi	zero,1
 a58:	5ae0                	lw	s0,116(a3)
 a5a:	0005                	c.addi	zero,1
 a5c:	06e0                	addi	s0,sp,844
 a5e:	0c00                	addi	s0,sp,528
 a60:	0028                	addi	a0,sp,8
 a62:	0c00                	addi	s0,sp,528
 a64:	5a9f 0005 66e0      	0x66e000055a9f
 a6a:	0005                	c.addi	zero,1
 a6c:	06e0                	addi	s0,sp,844
 a6e:	0c00                	addi	s0,sp,528
 a70:	2080                	fld	fs0,0(s1)
 a72:	0c00                	addi	s0,sp,528
 a74:	669f 0005 6ce0      	0x6ce00005669f
 a7a:	0005                	c.addi	zero,1
 a7c:	06e0                	addi	s0,sp,844
 a7e:	0c00                	addi	s0,sp,528
 a80:	4000                	lw	s0,0(s0)
 a82:	1040                	addi	s0,sp,36
 a84:	6c9f 0005 72e0      	0x72e000056c9f
 a8a:	0005                	c.addi	zero,1
 a8c:	06e0                	addi	s0,sp,844
 a8e:	0c00                	addi	s0,sp,528
 a90:	4024                	lw	s1,64(s0)
 a92:	1040                	addi	s0,sp,36
 a94:	729f 0005 76e0      	0x76e00005729f
 a9a:	0005                	c.addi	zero,1
 a9c:	06e0                	addi	s0,sp,844
 a9e:	0c00                	addi	s0,sp,528
 aa0:	2080                	fld	fs0,0(s1)
 aa2:	0c00                	addi	s0,sp,528
 aa4:	769f 0005 8ce0      	0x8ce00005769f
 aaa:	0005                	c.addi	zero,1
 aac:	06e0                	addi	s0,sp,844
 aae:	0c00                	addi	s0,sp,528
 ab0:	0028                	addi	a0,sp,8
 ab2:	0c00                	addi	s0,sp,528
 ab4:	009f 0000 0000      	0x9f
 aba:	0000                	unimp
	...

Disassembly of section .debug_aranges:

00000000 <.debug_aranges>:
   0:	001c                	addi	a5,sp,0
   2:	0000                	unimp
   4:	0002                	0x2
   6:	0000                	unimp
   8:	0000                	unimp
   a:	0004                	addi	s1,sp,0
   c:	0000                	unimp
   e:	0000                	unimp
  10:	0084                	addi	s1,sp,64
  12:	e000                	fsw	fs0,0(s0)
  14:	03d2                	slli	t2,t2,0x14
	...
  1e:	0000                	unimp
  20:	0024                	addi	s1,sp,8
  22:	0000                	unimp
  24:	0002                	0x2
  26:	0854                	addi	a3,sp,20
  28:	0000                	unimp
  2a:	0004                	addi	s1,sp,0
  2c:	0000                	unimp
  2e:	0000                	unimp
  30:	0456                	slli	s0,s0,0x15
  32:	e000                	fsw	fs0,0(s0)
  34:	002e                	0x2e
  36:	0000                	unimp
  38:	050e                	slli	a0,a0,0x3
  3a:	e000                	fsw	fs0,0(s0)
  3c:	007e                	0x7e
	...
  46:	0000                	unimp
  48:	0024                	addi	s1,sp,8
  4a:	0000                	unimp
  4c:	0002                	0x2
  4e:	0a48                	addi	a0,sp,276
  50:	0000                	unimp
  52:	0004                	addi	s1,sp,0
  54:	0000                	unimp
  56:	0000                	unimp
  58:	0484                	addi	s1,sp,576
  5a:	e000                	fsw	fs0,0(s0)
  5c:	008a                	slli	ra,ra,0x2
  5e:	0000                	unimp
  60:	0000                	unimp
  62:	e000                	fsw	fs0,0(s0)
  64:	0084                	addi	s1,sp,64
	...

Disassembly of section .debug_ranges:

00000000 <.debug_ranges>:
   0:	0094                	addi	a3,sp,64
   2:	0000                	unimp
   4:	00aa                	slli	ra,ra,0xa
   6:	0000                	unimp
   8:	00ae                	slli	ra,ra,0xb
   a:	0000                	unimp
   c:	00b4                	addi	a3,sp,72
   e:	0000                	unimp
  10:	00ec                	addi	a1,sp,76
  12:	0000                	unimp
  14:	00f0                	addi	a2,sp,76
	...
  1e:	0000                	unimp
  20:	00ca                	slli	ra,ra,0x12
  22:	0000                	unimp
  24:	00ce                	slli	ra,ra,0x13
  26:	0000                	unimp
  28:	0114                	addi	a3,sp,128
  2a:	0000                	unimp
  2c:	0118                	addi	a4,sp,128
	...
  36:	0000                	unimp
  38:	00ca                	slli	ra,ra,0x12
  3a:	0000                	unimp
  3c:	00ce                	slli	ra,ra,0x13
  3e:	0000                	unimp
  40:	0114                	addi	a3,sp,128
  42:	0000                	unimp
  44:	0118                	addi	a4,sp,128
	...
  4e:	0000                	unimp
  50:	00f0                	addi	a2,sp,76
  52:	0000                	unimp
  54:	00f4                	addi	a3,sp,76
  56:	0000                	unimp
  58:	0108                	addi	a0,sp,128
  5a:	0000                	unimp
  5c:	010e                	slli	sp,sp,0x3
	...
  66:	0000                	unimp
  68:	00f0                	addi	a2,sp,76
  6a:	0000                	unimp
  6c:	00f4                	addi	a3,sp,76
  6e:	0000                	unimp
  70:	0108                	addi	a0,sp,128
  72:	0000                	unimp
  74:	010e                	slli	sp,sp,0x3
	...
  7e:	0000                	unimp
  80:	0160                	addi	s0,sp,140
  82:	0000                	unimp
  84:	0170                	addi	a2,sp,140
  86:	0000                	unimp
  88:	0174                	addi	a3,sp,140
  8a:	0000                	unimp
  8c:	0180                	addi	s0,sp,192
  8e:	0000                	unimp
  90:	0182                	slli	gp,gp,0x0
  92:	0000                	unimp
  94:	018c                	addi	a1,sp,192
	...
  9e:	0000                	unimp
  a0:	0170                	addi	a2,sp,140
  a2:	0000                	unimp
  a4:	0172                	slli	sp,sp,0x1c
  a6:	0000                	unimp
  a8:	0190                	addi	a2,sp,192
  aa:	0000                	unimp
  ac:	0196                	slli	gp,gp,0x5
  ae:	0000                	unimp
  b0:	019e                	slli	gp,gp,0x7
  b2:	0000                	unimp
  b4:	01c0                	addi	s0,sp,196
	...
  be:	0000                	unimp
  c0:	01c4                	addi	s1,sp,196
  c2:	0000                	unimp
  c4:	01da                	slli	gp,gp,0x16
  c6:	0000                	unimp
  c8:	0200                	addi	s0,sp,256
  ca:	0000                	unimp
  cc:	0208                	addi	a0,sp,256
	...
  d6:	0000                	unimp
  d8:	0266                	slli	tp,tp,0x19
  da:	0000                	unimp
  dc:	0284                	addi	s1,sp,320
  de:	0000                	unimp
  e0:	029e                	slli	t0,t0,0x7
  e2:	0000                	unimp
  e4:	0394                	addi	a3,sp,448
	...
  ee:	0000                	unimp
  f0:	0276                	slli	tp,tp,0x1d
  f2:	0000                	unimp
  f4:	027e                	slli	tp,tp,0x1f
  f6:	0000                	unimp
  f8:	02ea                	slli	t0,t0,0x1a
  fa:	0000                	unimp
  fc:	02f8                	addi	a4,sp,332
	...
 106:	0000                	unimp
 108:	038a                	slli	t2,t2,0x2
 10a:	0000                	unimp
 10c:	038e                	slli	t2,t2,0x3
 10e:	0000                	unimp
 110:	0390                	addi	a2,sp,448
 112:	0000                	unimp
 114:	0394                	addi	a3,sp,448
	...
 11e:	0000                	unimp
 120:	0456                	slli	s0,s0,0x15
 122:	e000                	fsw	fs0,0(s0)
 124:	0484                	addi	s1,sp,576
 126:	e000                	fsw	fs0,0(s0)
 128:	050e                	slli	a0,a0,0x3
 12a:	e000                	fsw	fs0,0(s0)
 12c:	058c                	addi	a1,sp,704
 12e:	e000                	fsw	fs0,0(s0)
	...
 138:	ffff                	0xffff
 13a:	ffff                	0xffff
 13c:	0000                	unimp
 13e:	0000                	unimp
 140:	0484                	addi	s1,sp,576
 142:	e000                	fsw	fs0,0(s0)
 144:	050e                	slli	a0,a0,0x3
 146:	e000                	fsw	fs0,0(s0)
 148:	0000                	unimp
 14a:	e000                	fsw	fs0,0(s0)
 14c:	0084                	addi	s1,sp,64
 14e:	e000                	fsw	fs0,0(s0)
	...

Disassembly of section .debug_line:

00000000 <.debug_line>:
   0:	055d                	addi	a0,a0,23
   2:	0000                	unimp
   4:	0002                	0x2
   6:	00fe                	slli	ra,ra,0x1f
   8:	0000                	unimp
   a:	0101                	addi	sp,sp,0
   c:	000d0efb          	0xd0efb
  10:	0101                	addi	sp,sp,0
  12:	0101                	addi	sp,sp,0
  14:	0000                	unimp
  16:	0100                	addi	s0,sp,128
  18:	0000                	unimp
  1a:	2f01                	jal	72a <_min_stack-0x18d6>
  1c:	61726373          	csrrsi	t1,0x617,4
  20:	6374                	flw	fa3,68(a4)
  22:	2f68                	fld	fa0,216(a4)
  24:	636d                	lui	t1,0x1b
  26:	6169                	addi	sp,sp,208
  28:	696e                	flw	fs2,216(sp)
  2a:	2d65682f          	0x2d65682f
  2e:	2f636f73          	csrrsi	t5,0x2f6,6
  32:	6168                	flw	fa0,68(a0)
  34:	6472                	flw	fs0,28(sp)
  36:	65726177          	0x65726177
  3a:	5f70692f          	0x5f70692f
  3e:	696c                	flw	fa1,84(a0)
  40:	6f2f7473          	csrrci	s0,0x6f2,30
  44:	6570                	flw	fa2,76(a0)
  46:	746e                	flw	fs0,248(sp)
  48:	7469                	lui	s0,0xffffa
  4a:	6e61                	lui	t3,0x18
  4c:	2f77732f          	0x2f77732f
  50:	6574                	flw	fa3,76(a0)
  52:	2f737473          	csrrci	s0,0x2f7,6
  56:	6c61                	lui	s8,0x18
  58:	72716173          	csrrsi	sp,0x727,2
  5c:	6d6f632f          	0x6d6f632f
  60:	6f6d                	lui	t5,0x1b
  62:	006e                	0x6e
  64:	7273752f          	0x7273752f
  68:	6361702f          	0x6361702f
  6c:	75702f6b          	0x75702f6b
  70:	706c                	flw	fa1,100(s0)
  72:	2d6b6473          	csrrsi	s0,0x2d6,22
  76:	2e31                	jal	392 <_min_stack-0x1c6e>
  78:	2d30                	fld	fa2,88(a0)
  7a:	2f66676b          	0x2f66676b
  7e:	7261                	lui	tp,0xffff8
  80:	6974                	flw	fa3,84(a0)
  82:	6166                	flw	ft2,88(sp)
  84:	726f7463          	bleu	t1,t5,7ac <_min_stack-0x1854>
  88:	2f79                	jal	826 <_min_stack-0x17da>
  8a:	7570                	flw	fa2,108(a0)
  8c:	706c                	flw	fa1,100(s0)
  8e:	732d                	lui	t1,0xfffeb
  90:	6b64                	flw	fs1,84(a4)
  92:	722d                	lui	tp,0xfffeb
  94:	6c65                	lui	s8,0x19
  96:	6165                	addi	sp,sp,112
  98:	702f6573          	csrrsi	a0,0x702,30
  9c:	702f676b          	0x702f676b
  a0:	6c75                	lui	s8,0x1d
  a2:	5f70                	lw	a2,124(a4)
  a4:	6972                	flw	fs2,28(sp)
  a6:	5f766373          	csrrsi	t1,0x5f7,12
  aa:	2f636367          	0x2f636367
  ae:	2e31                	jal	3ca <_min_stack-0x1c36>
  b0:	2e30                	fld	fa2,88(a2)
  b2:	3631                	jal	fffffbbe <pulp__FC+0xfffffbbf>
  b4:	62696c2f          	0x62696c2f
  b8:	6363672f          	0x6363672f
  bc:	7369722f          	0x7369722f
  c0:	32337663          	bleu	gp,t1,3ec <_min_stack-0x1c14>
  c4:	752d                	lui	a0,0xfffeb
  c6:	6b6e                	flw	fs6,216(sp)
  c8:	6f6e                	flw	ft10,216(sp)
  ca:	652d6e77          	0x652d6e77
  ce:	666c                	flw	fa1,76(a2)
  d0:	312e372f          	0x312e372f
  d4:	312e                	fld	ft2,232(sp)
  d6:	636e692f          	0x636e692f
  da:	756c                	flw	fa1,108(a0)
  dc:	6564                	flw	fs1,76(a0)
  de:	0000                	unimp
  e0:	7475                	lui	s0,0xffffd
  e2:	6c69                	lui	s8,0x1a
  e4:	00632e73          	csrrs	t3,0x6,t1
  e8:	0001                	nop
  ea:	7300                	flw	fs0,32(a4)
  ec:	6474                	flw	fa3,76(s0)
  ee:	7261                	lui	tp,0xffff8
  f0:	00682e67          	0x682e67
  f4:	0002                	0x2
  f6:	7300                	flw	fs0,32(a4)
  f8:	6474                	flw	fa3,76(s0)
  fa:	6e69                	lui	t3,0x1a
  fc:	2d74                	fld	fa3,216(a0)
  fe:	2e636367          	0x2e636367
 102:	0068                	addi	a0,sp,12
 104:	0002                	0x2
 106:	0000                	unimp
 108:	0500                	addi	s0,sp,640
 10a:	8402                	jr	s0
 10c:	0000                	unimp
 10e:	03e0                	addi	s0,sp,460
 110:	0129                	addi	sp,sp,10
 112:	00090203          	lb	tp,0(s2) # 3000 <_min_stack+0x1000>
 116:	0100                	addi	s0,sp,128
 118:	0a090103          	lb	sp,160(s2)
 11c:	0100                	addi	s0,sp,128
 11e:	06090103          	lb	sp,96(s2)
 122:	0100                	addi	s0,sp,128
 124:	06090103          	lb	sp,96(s2)
 128:	0100                	addi	s0,sp,128
 12a:	06090103          	lb	sp,96(s2)
 12e:	0100                	addi	s0,sp,128
 130:	04090203          	lb	tp,64(s2)
 134:	0100                	addi	s0,sp,128
 136:	0c090103          	lb	sp,192(s2)
 13a:	0100                	addi	s0,sp,128
 13c:	02090203          	lb	tp,32(s2)
 140:	0100                	addi	s0,sp,128
 142:	00090703          	lb	a4,0(s2)
 146:	0100                	addi	s0,sp,128
 148:	04097c03          	0x4097c03
 14c:	0100                	addi	s0,sp,128
 14e:	02090d03          	lb	s10,32(s2)
 152:	0100                	addi	s0,sp,128
 154:	0200                	addi	s0,sp,256
 156:	0104                	addi	s1,sp,128
 158:	02097703          	0x2097703
 15c:	0100                	addi	s0,sp,128
 15e:	0200                	addi	s0,sp,256
 160:	0404                	addi	s1,sp,512
 162:	0c090403          	lb	s0,192(s2)
 166:	0100                	addi	s0,sp,128
 168:	0200                	addi	s0,sp,256
 16a:	0404                	addi	s1,sp,512
 16c:	06090203          	lb	tp,96(s2)
 170:	0100                	addi	s0,sp,128
 172:	0200                	addi	s0,sp,256
 174:	0404                	addi	s1,sp,512
 176:	02097e03          	0x2097e03
 17a:	0100                	addi	s0,sp,128
 17c:	0200                	addi	s0,sp,256
 17e:	0404                	addi	s1,sp,512
 180:	02097e03          	0x2097e03
 184:	0100                	addi	s0,sp,128
 186:	0200                	addi	s0,sp,256
 188:	0304                	addi	s1,sp,384
 18a:	0306                	slli	t1,t1,0x1
 18c:	0900                	addi	s0,sp,144
 18e:	0004                	addi	s1,sp,0
 190:	0601                	addi	a2,a2,0
 192:	04090903          	lb	s2,64(s2)
 196:	0100                	addi	s0,sp,128
 198:	00090103          	lb	sp,0(s2)
 19c:	0100                	addi	s0,sp,128
 19e:	0200                	addi	s0,sp,256
 1a0:	0104                	addi	s1,sp,128
 1a2:	0306                	slli	t1,t1,0x1
 1a4:	0900                	addi	s0,sp,144
 1a6:	0004                	addi	s1,sp,0
 1a8:	0601                	addi	a2,a2,0
 1aa:	06090203          	lb	tp,96(s2)
 1ae:	0100                	addi	s0,sp,128
 1b0:	02090103          	lb	sp,32(s2)
 1b4:	0100                	addi	s0,sp,128
 1b6:	06090203          	lb	tp,96(s2)
 1ba:	0100                	addi	s0,sp,128
 1bc:	00090203          	lb	tp,0(s2)
 1c0:	0100                	addi	s0,sp,128
 1c2:	0200                	addi	s0,sp,256
 1c4:	0104                	addi	s1,sp,128
 1c6:	0306                	slli	t1,t1,0x1
 1c8:	0900                	addi	s0,sp,144
 1ca:	0004                	addi	s1,sp,0
 1cc:	0601                	addi	a2,a2,0
 1ce:	08090303          	lb	t1,128(s2)
 1d2:	0100                	addi	s0,sp,128
 1d4:	02090103          	lb	sp,32(s2)
 1d8:	0100                	addi	s0,sp,128
 1da:	0900c803          	lbu	a6,144(ra)
 1de:	0002                	0x2
 1e0:	0301                	addi	t1,t1,0
 1e2:	0900                	addi	s0,sp,144
 1e4:	000e                	0xe
 1e6:	0301                	addi	t1,t1,0
 1e8:	0902                	slli	s2,s2,0x0
 1ea:	0004                	addi	s1,sp,0
 1ec:	0301                	addi	t1,t1,0
 1ee:	0902                	slli	s2,s2,0x0
 1f0:	0004                	addi	s1,sp,0
 1f2:	0301                	addi	t1,t1,0
 1f4:	00080903          	lb	s2,0(a6)
 1f8:	0301                	addi	t1,t1,0
 1fa:	0901                	addi	s2,s2,0
 1fc:	000c                	addi	a1,sp,0
 1fe:	0301                	addi	t1,t1,0
 200:	0901                	addi	s2,s2,0
 202:	0004                	addi	s1,sp,0
 204:	0301                	addi	t1,t1,0
 206:	0901                	addi	s2,s2,0
 208:	0002                	0x2
 20a:	0301                	addi	t1,t1,0
 20c:	0978                	addi	a4,sp,156
 20e:	0004                	addi	s1,sp,0
 210:	0301                	addi	t1,t1,0
 212:	0908                	addi	a0,sp,144
 214:	0004                	addi	s1,sp,0
 216:	0301                	addi	t1,t1,0
 218:	0902                	slli	s2,s2,0x0
 21a:	0006                	0x6
 21c:	0301                	addi	t1,t1,0
 21e:	0976                	slli	s2,s2,0x1d
 220:	0004                	addi	s1,sp,0
 222:	0301                	addi	t1,t1,0
 224:	0910                	addi	a2,sp,144
 226:	0006                	0x6
 228:	0301                	addi	t1,t1,0
 22a:	095f 000c 0301      	0x301000c095f
 230:	0925                	addi	s2,s2,9
 232:	0004                	addi	s1,sp,0
 234:	0301                	addi	t1,t1,0
 236:	0905                	addi	s2,s2,1
 238:	0004                	addi	s1,sp,0
 23a:	0301                	addi	t1,t1,0
 23c:	0901                	addi	s2,s2,0
 23e:	0006                	0x6
 240:	0301                	addi	t1,t1,0
 242:	096c                	addi	a1,sp,156
 244:	0014                	addi	a3,sp,0
 246:	0301                	addi	t1,t1,0
 248:	0969                	addi	s2,s2,26
 24a:	0004                	addi	s1,sp,0
 24c:	0301                	addi	t1,t1,0
 24e:	091c                	addi	a5,sp,144
 250:	0004                	addi	s1,sp,0
 252:	0301                	addi	t1,t1,0
 254:	097f                	0x97f
 256:	0012                	0x12
 258:	0301                	addi	t1,t1,0
 25a:	0965                	addi	s2,s2,25
 25c:	0002                	0x2
 25e:	0301                	addi	t1,t1,0
 260:	0921                	addi	s2,s2,8
 262:	0008                	addi	a0,sp,0
 264:	0301                	addi	t1,t1,0
 266:	095f 0004 0301      	0x3010004095f
 26c:	0925                	addi	s2,s2,9
 26e:	0004                	addi	s1,sp,0
 270:	0301                	addi	t1,t1,0
 272:	0908                	addi	a0,sp,144
 274:	0004                	addi	s1,sp,0
 276:	0301                	addi	t1,t1,0
 278:	0900                	addi	s0,sp,144
 27a:	0008                	addi	a0,sp,0
 27c:	0301                	addi	t1,t1,0
 27e:	00040907          	0x40907
 282:	0301                	addi	t1,t1,0
 284:	0902                	slli	s2,s2,0x0
 286:	0002                	0x2
 288:	0301                	addi	t1,t1,0
 28a:	0902                	slli	s2,s2,0x0
 28c:	0004                	addi	s1,sp,0
 28e:	0301                	addi	t1,t1,0
 290:	097e                	slli	s2,s2,0x1f
 292:	0004                	addi	s1,sp,0
 294:	0301                	addi	t1,t1,0
 296:	0902                	slli	s2,s2,0x0
 298:	0004                	addi	s1,sp,0
 29a:	0301                	addi	t1,t1,0
 29c:	092d                	addi	s2,s2,11
 29e:	0002                	0x2
 2a0:	0301                	addi	t1,t1,0
 2a2:	0956                	slli	s2,s2,0x15
 2a4:	000a                	0xa
 2a6:	0301                	addi	t1,t1,0
 2a8:	000c0903          	lb	s2,0(s8) # 1a000 <_stack_len+0x12000>
 2ac:	0301                	addi	t1,t1,0
 2ae:	0904                	addi	s1,sp,144
 2b0:	0004                	addi	s1,sp,0
 2b2:	0301                	addi	t1,t1,0
 2b4:	00040903          	lb	s2,0(s0) # ffffd000 <pulp__FC+0xffffd001>
 2b8:	0301                	addi	t1,t1,0
 2ba:	097c                	addi	a5,sp,156
 2bc:	0002                	0x2
 2be:	0301                	addi	t1,t1,0
 2c0:	0904                	addi	s1,sp,144
 2c2:	0004                	addi	s1,sp,0
 2c4:	0301                	addi	t1,t1,0
 2c6:	7fb5                	lui	t6,0xfffed
 2c8:	0409                	addi	s0,s0,2
 2ca:	0100                	addi	s0,sp,128
 2cc:	04090103          	lb	sp,64(s2)
 2d0:	0100                	addi	s0,sp,128
 2d2:	08097f03          	0x8097f03
 2d6:	0100                	addi	s0,sp,128
 2d8:	04097503          	0x4097503
 2dc:	0100                	addi	s0,sp,128
 2de:	0900e303          	p.elw	t1,144(ra)
 2e2:	0002                	0x2
 2e4:	0301                	addi	t1,t1,0
 2e6:	7fa8                	flw	fa0,120(a5)
 2e8:	0209                	addi	tp,tp,2
 2ea:	0100                	addi	s0,sp,128
 2ec:	0900d903          	lhu	s2,144(ra)
 2f0:	000c                	addi	a1,sp,0
 2f2:	0301                	addi	t1,t1,0
 2f4:	02097fa7          	0x2097fa7
 2f8:	0100                	addi	s0,sp,128
 2fa:	08090103          	lb	sp,128(s2)
 2fe:	0100                	addi	s0,sp,128
 300:	0900d803          	lhu	a6,144(ra)
 304:	0002                	0x2
 306:	0301                	addi	t1,t1,0
 308:	04097f97          	auipc	t6,0x4097
 30c:	0100                	addi	s0,sp,128
 30e:	0900e903          	p.elw	s2,144(ra)
 312:	0006                	0x6
 314:	0301                	addi	t1,t1,0
 316:	7f98                	flw	fa4,56(a5)
 318:	0809                	addi	a6,a6,2
 31a:	0100                	addi	s0,sp,128
 31c:	06090103          	lb	sp,96(s2)
 320:	0100                	addi	s0,sp,128
 322:	06090103          	lb	sp,96(s2)
 326:	0100                	addi	s0,sp,128
 328:	06090103          	lb	sp,96(s2)
 32c:	0100                	addi	s0,sp,128
 32e:	02090103          	lb	sp,32(s2)
 332:	0100                	addi	s0,sp,128
 334:	04090203          	lb	tp,64(s2)
 338:	0100                	addi	s0,sp,128
 33a:	0900c003          	lbu	zero,144(ra)
 33e:	000a                	0xa
 340:	0301                	addi	t1,t1,0
 342:	00040917          	auipc	s2,0x40
 346:	0301                	addi	t1,t1,0
 348:	0902                	slli	s2,s2,0x0
 34a:	0004                	addi	s1,sp,0
 34c:	0301                	addi	t1,t1,0
 34e:	0901                	addi	s2,s2,0
 350:	0004                	addi	s1,sp,0
 352:	0301                	addi	t1,t1,0
 354:	0902                	slli	s2,s2,0x0
 356:	0002                	0x2
 358:	0301                	addi	t1,t1,0
 35a:	0901                	addi	s2,s2,0
 35c:	000a                	0xa
 35e:	0301                	addi	t1,t1,0
 360:	0979                	addi	s2,s2,30
 362:	0002                	0x2
 364:	0301                	addi	t1,t1,0
 366:	0911                	addi	s2,s2,4
 368:	0002                	0x2
 36a:	0301                	addi	t1,t1,0
 36c:	0901                	addi	s2,s2,0
 36e:	0002                	0x2
 370:	0301                	addi	t1,t1,0
 372:	08097fa7          	0x8097fa7
 376:	0100                	addi	s0,sp,128
 378:	0900dd03          	lhu	s10,144(ra)
 37c:	000a                	0xa
 37e:	0301                	addi	t1,t1,0
 380:	00060907          	0x60907
 384:	0301                	addi	t1,t1,0
 386:	0966                	slli	s2,s2,0x19
 388:	000a                	0xa
 38a:	0301                	addi	t1,t1,0
 38c:	0901                	addi	s2,s2,0
 38e:	0002                	0x2
 390:	0301                	addi	t1,t1,0
 392:	0916                	slli	s2,s2,0x5
 394:	0006                	0x6
 396:	0301                	addi	t1,t1,0
 398:	0950                	addi	a2,sp,148
 39a:	0008                	addi	a0,sp,0
 39c:	0301                	addi	t1,t1,0
 39e:	0930                	addi	a2,sp,152
 3a0:	0002                	0x2
 3a2:	0301                	addi	t1,t1,0
 3a4:	7ee8                	flw	fa0,124(a3)
 3a6:	0409                	addi	s0,s0,2
 3a8:	0100                	addi	s0,sp,128
 3aa:	00090203          	lb	tp,0(s2) # 40342 <tohost+0x2033a>
 3ae:	0100                	addi	s0,sp,128
 3b0:	0200                	addi	s0,sp,256
 3b2:	0104                	addi	s1,sp,128
 3b4:	0306                	slli	t1,t1,0x1
 3b6:	0900                	addi	s0,sp,144
 3b8:	0004                	addi	s1,sp,0
 3ba:	0601                	addi	a2,a2,0
 3bc:	08090103          	lb	sp,128(s2)
 3c0:	0100                	addi	s0,sp,128
 3c2:	02093303          	0x2093303
 3c6:	0100                	addi	s0,sp,128
 3c8:	06090103          	lb	sp,96(s2)
 3cc:	0100                	addi	s0,sp,128
 3ce:	04097f03          	0x4097f03
 3d2:	0100                	addi	s0,sp,128
 3d4:	02090103          	lb	sp,32(s2)
 3d8:	0100                	addi	s0,sp,128
 3da:	02090203          	lb	tp,32(s2)
 3de:	0100                	addi	s0,sp,128
 3e0:	0901aa03          	lw	s4,144(gp) # 950 <_min_stack-0x16b0>
 3e4:	000a                	0xa
 3e6:	0301                	addi	t1,t1,0
 3e8:	0904                	addi	s1,sp,144
 3ea:	0004                	addi	s1,sp,0
 3ec:	0301                	addi	t1,t1,0
 3ee:	097c                	addi	a5,sp,156
 3f0:	0002                	0x2
 3f2:	0301                	addi	t1,t1,0
 3f4:	0900                	addi	s0,sp,144
 3f6:	0012                	0x12
 3f8:	0301                	addi	t1,t1,0
 3fa:	0904                	addi	s1,sp,144
 3fc:	0010                	addi	a2,sp,0
 3fe:	0301                	addi	t1,t1,0
 400:	7fba                	flw	ft11,172(sp)
 402:	0209                	addi	tp,tp,2
 404:	0100                	addi	s0,sp,128
 406:	02090503          	lb	a0,32(s2)
 40a:	0100                	addi	s0,sp,128
 40c:	04090603          	lb	a2,64(s2)
 410:	0100                	addi	s0,sp,128
 412:	04090503          	lb	a0,64(s2)
 416:	0100                	addi	s0,sp,128
 418:	04090603          	lb	a2,64(s2)
 41c:	0100                	addi	s0,sp,128
 41e:	02090503          	lb	a0,32(s2)
 422:	0100                	addi	s0,sp,128
 424:	08096803          	p.elw	a6,128(s2)
 428:	0100                	addi	s0,sp,128
 42a:	0900cb03          	lbu	s6,144(ra)
 42e:	0006                	0x6
 430:	0301                	addi	t1,t1,0
 432:	1a097fb7          	lui	t6,0x1a097
 436:	0100                	addi	s0,sp,128
 438:	04090403          	lb	s0,64(s2)
 43c:	0100                	addi	s0,sp,128
 43e:	0a090103          	lb	sp,160(s2)
 442:	0100                	addi	s0,sp,128
 444:	04097e03          	0x4097e03
 448:	0100                	addi	s0,sp,128
 44a:	02090303          	lb	t1,32(s2)
 44e:	0100                	addi	s0,sp,128
 450:	04090203          	lb	tp,64(s2)
 454:	0100                	addi	s0,sp,128
 456:	04090103          	lb	sp,64(s2)
 45a:	0100                	addi	s0,sp,128
 45c:	04090203          	lb	tp,64(s2)
 460:	0100                	addi	s0,sp,128
 462:	0c097803          	0xc097803
 466:	0100                	addi	s0,sp,128
 468:	02090d03          	lb	s10,32(s2)
 46c:	0100                	addi	s0,sp,128
 46e:	16090403          	lb	s0,352(s2)
 472:	0100                	addi	s0,sp,128
 474:	08090103          	lb	sp,128(s2)
 478:	0100                	addi	s0,sp,128
 47a:	06090103          	lb	sp,96(s2)
 47e:	0100                	addi	s0,sp,128
 480:	08091603          	lh	a2,128(s2)
 484:	0100                	addi	s0,sp,128
 486:	04096203          	p.elw	tp,64(s2)
 48a:	0100                	addi	s0,sp,128
 48c:	04097f03          	0x4097f03
 490:	0100                	addi	s0,sp,128
 492:	04090403          	lb	s0,64(s2)
 496:	0100                	addi	s0,sp,128
 498:	04097f03          	0x4097f03
 49c:	0100                	addi	s0,sp,128
 49e:	02090203          	lb	tp,32(s2)
 4a2:	0100                	addi	s0,sp,128
 4a4:	04090703          	lb	a4,64(s2)
 4a8:	0100                	addi	s0,sp,128
 4aa:	08090103          	lb	sp,128(s2)
 4ae:	0100                	addi	s0,sp,128
 4b0:	14096403          	p.elw	s0,320(s2)
 4b4:	0100                	addi	s0,sp,128
 4b6:	04091f03          	lh	t5,64(s2)
 4ba:	0100                	addi	s0,sp,128
 4bc:	08090103          	lb	sp,128(s2)
 4c0:	0100                	addi	s0,sp,128
 4c2:	0c090303          	lb	t1,192(s2)
 4c6:	0100                	addi	s0,sp,128
 4c8:	08090103          	lb	sp,128(s2)
 4cc:	0100                	addi	s0,sp,128
 4ce:	08090403          	lb	s0,128(s2)
 4d2:	0100                	addi	s0,sp,128
 4d4:	06097f03          	0x6097f03
 4d8:	0100                	addi	s0,sp,128
 4da:	08090103          	lb	sp,128(s2)
 4de:	0100                	addi	s0,sp,128
 4e0:	0a090303          	lb	t1,160(s2)
 4e4:	0100                	addi	s0,sp,128
 4e6:	08090103          	lb	sp,128(s2)
 4ea:	0100                	addi	s0,sp,128
 4ec:	06090103          	lb	sp,96(s2)
 4f0:	0100                	addi	s0,sp,128
 4f2:	04097f03          	0x4097f03
 4f6:	0100                	addi	s0,sp,128
 4f8:	04090203          	lb	tp,64(s2)
 4fc:	0100                	addi	s0,sp,128
 4fe:	08095603          	lhu	a2,128(s2)
 502:	0100                	addi	s0,sp,128
 504:	097f8f03          	lb	t5,151(t6) # 1a097097 <tohost+0x1a07708f>
 508:	0002                	0x2
 50a:	0301                	addi	t1,t1,0
 50c:	040901a3          	sb	zero,67(s2)
 510:	0100                	addi	s0,sp,128
 512:	097edd03          	lhu	s10,151(t4)
 516:	0002                	0x2
 518:	0301                	addi	t1,t1,0
 51a:	04097f8f          	0x4097f8f
 51e:	0100                	addi	s0,sp,128
 520:	00090103          	lb	sp,0(s2)
 524:	0100                	addi	s0,sp,128
 526:	0902ab03          	lw	s6,144(t0) # 1194406 <tohost+0x11743fe>
 52a:	000a                	0xa
 52c:	0301                	addi	t1,t1,0
 52e:	0900                	addi	s0,sp,144
 530:	000a                	0xa
 532:	0301                	addi	t1,t1,0
 534:	00020903          	lb	s2,0(tp) # ffff8000 <pulp__FC+0xffff8001>
 538:	0301                	addi	t1,t1,0
 53a:	7ec2                	flw	ft9,48(sp)
 53c:	0e09                	addi	t3,t3,2
 53e:	0100                	addi	s0,sp,128
 540:	0901c403          	lbu	s0,144(gp)
 544:	0004                	addi	s1,sp,0
 546:	0301                	addi	t1,t1,0
 548:	7ebc                	flw	fa5,120(a3)
 54a:	0e09                	addi	t3,t3,2
 54c:	0100                	addi	s0,sp,128
 54e:	0901c603          	lbu	a2,144(gp)
 552:	0004                	addi	s1,sp,0
 554:	0301                	addi	t1,t1,0
 556:	0901                	addi	s2,s2,0
 558:	0000                	unimp
 55a:	0901                	addi	s2,s2,0
 55c:	0004                	addi	s1,sp,0
 55e:	0100                	addi	s0,sp,128
 560:	3d01                	jal	370 <_min_stack-0x1c90>
 562:	0001                	nop
 564:	0200                	addi	s0,sp,256
 566:	8800                	0x8800
 568:	0000                	unimp
 56a:	0100                	addi	s0,sp,128
 56c:	fb01                	bnez	a4,47c <_min_stack-0x1b84>
 56e:	0d0e                	slli	s10,s10,0x3
 570:	0100                	addi	s0,sp,128
 572:	0101                	addi	sp,sp,0
 574:	0001                	nop
 576:	0000                	unimp
 578:	0001                	nop
 57a:	0100                	addi	s0,sp,128
 57c:	7263732f          	0x7263732f
 580:	7461                	lui	s0,0xffff8
 582:	6d2f6863          	bltu	t5,s2,c52 <_min_stack-0x13ae>
 586:	6e616963          	bltu	sp,t1,c78 <_min_stack-0x1388>
 58a:	2f69                	jal	d24 <_min_stack-0x12dc>
 58c:	6568                	flw	fa0,76(a0)
 58e:	732d                	lui	t1,0xfffeb
 590:	682f636f          	jal	t1,f6c12 <tohost+0xd6c0a>
 594:	7261                	lui	tp,0xffff8
 596:	7764                	flw	fs1,108(a4)
 598:	7261                	lui	tp,0xffff8
 59a:	2f65                	jal	d52 <_min_stack-0x12ae>
 59c:	7069                	0x7069
 59e:	6c5f 7369 2f74      	0x2f7473696c5f
 5a4:	6e65706f          	j	57c8a <tohost+0x37c82>
 5a8:	6974                	flw	fa3,84(a0)
 5aa:	6174                	flw	fa3,68(a0)
 5ac:	2f6e                	fld	ft10,216(sp)
 5ae:	742f7773          	csrrci	a4,0x742,30
 5b2:	7365                	lui	t1,0xffff9
 5b4:	7374                	flw	fa3,100(a4)
 5b6:	736c612f          	0x736c612f
 5ba:	7161                	addi	sp,sp,-432
 5bc:	2f72                	fld	ft10,280(sp)
 5be:	6d6d6f63          	bltu	s10,s6,c9c <_min_stack-0x1364>
 5c2:	00006e6f          	jal	t3,65c2 <_min_stack+0x45c2>
 5c6:	6c61                	lui	s8,0x18
 5c8:	72716173          	csrrsi	sp,0x727,2
 5cc:	625f 6f6f 5f74      	0x5f746f6f625f
 5d2:	7564                	flw	fs1,108(a0)
 5d4:	6c61                	lui	s8,0x18
 5d6:	635f 726f 5f65      	0x5f65726f635f
 5dc:	69616863          	bltu	sp,s6,c6c <_min_stack-0x1394>
 5e0:	2e6e                	fld	ft8,216(sp)
 5e2:	00000063          	beqz	zero,5e2 <_min_stack-0x1a1e>
 5e6:	7500                	flw	fs0,40(a0)
 5e8:	6974                	flw	fa3,84(a0)
 5ea:	736c                	flw	fa1,100(a4)
 5ec:	682e                	flw	fa6,200(sp)
 5ee:	0100                	addi	s0,sp,128
 5f0:	0000                	unimp
 5f2:	0000                	unimp
 5f4:	0205                	addi	tp,tp,1
 5f6:	050e                	slli	a0,a0,0x3
 5f8:	e000                	fsw	fs0,0(s0)
 5fa:	03011103          	lh	sp,48(sp)
 5fe:	0002090b          	p.lb	s2,0(tp!) # ffff8000 <pulp__FC+0xffff8001>
 602:	0301                	addi	t1,t1,0
 604:	0975                	addi	s2,s2,29
 606:	0004                	addi	s1,sp,0
 608:	0301                	addi	t1,t1,0
 60a:	0006090b          	p.lb	s2,0(a2!)
 60e:	0301                	addi	t1,t1,0
 610:	090c                	addi	a1,sp,144
 612:	0002                	0x2
 614:	0301                	addi	t1,t1,0
 616:	0901                	addi	s2,s2,0
 618:	000a                	0xa
 61a:	0301                	addi	t1,t1,0
 61c:	0901                	addi	s2,s2,0
 61e:	000a                	0xa
 620:	0301                	addi	t1,t1,0
 622:	0905                	addi	s2,s2,1
 624:	000a                	0xa
 626:	0301                	addi	t1,t1,0
 628:	0901                	addi	s2,s2,0
 62a:	000a                	0xa
 62c:	0301                	addi	t1,t1,0
 62e:	000a0903          	lb	s2,0(s4)
 632:	0301                	addi	t1,t1,0
 634:	0904                	addi	s1,sp,144
 636:	0006                	0x6
 638:	0301                	addi	t1,t1,0
 63a:	0904                	addi	s1,sp,144
 63c:	0006                	0x6
 63e:	0301                	addi	t1,t1,0
 640:	000c0903          	lb	s2,0(s8) # 18000 <_stack_len+0x10000>
 644:	0301                	addi	t1,t1,0
 646:	00060903          	lb	s2,0(a2)
 64a:	0301                	addi	t1,t1,0
 64c:	00020903          	lb	s2,0(tp) # 0 <_min_stack-0x2000>
 650:	0301                	addi	t1,t1,0
 652:	0905                	addi	s2,s2,1
 654:	0004                	addi	s1,sp,0
 656:	0301                	addi	t1,t1,0
 658:	00040903          	lb	s2,0(s0) # ffff8000 <pulp__FC+0xffff8001>
 65c:	0301                	addi	t1,t1,0
 65e:	0902                	slli	s2,s2,0x0
 660:	0004                	addi	s1,sp,0
 662:	0301                	addi	t1,t1,0
 664:	0901                	addi	s2,s2,0
 666:	000a                	0xa
 668:	0001                	nop
 66a:	0402                	slli	s0,s0,0x0
 66c:	0301                	addi	t1,t1,0
 66e:	00020903          	lb	s2,0(tp) # 0 <_min_stack-0x2000>
 672:	0901                	addi	s2,s2,0
 674:	0006                	0x6
 676:	0100                	addi	s0,sp,128
 678:	0001                	nop
 67a:	0205                	addi	tp,tp,1
 67c:	0456                	slli	s0,s0,0x15
 67e:	e000                	fsw	fs0,0(s0)
 680:	0100d803          	lhu	a6,16(ra)
 684:	08090403          	lb	s0,128(s2)
 688:	0100                	addi	s0,sp,128
 68a:	0e090303          	lb	t1,224(s2)
 68e:	0100                	addi	s0,sp,128
 690:	08090103          	lb	sp,128(s2)
 694:	0100                	addi	s0,sp,128
 696:	0c097d03          	0xc097d03
 69a:	0100                	addi	s0,sp,128
 69c:	0409                	addi	s0,s0,2
 69e:	0000                	unimp
 6a0:	0101                	addi	sp,sp,0
 6a2:	000001c3          	fmadd.s	ft3,ft0,ft0,ft0,rne
 6a6:	0002                	0x2
 6a8:	0066                	0x66
 6aa:	0000                	unimp
 6ac:	0101                	addi	sp,sp,0
 6ae:	000d0efb          	0xd0efb
 6b2:	0101                	addi	sp,sp,0
 6b4:	0101                	addi	sp,sp,0
 6b6:	0000                	unimp
 6b8:	0100                	addi	s0,sp,128
 6ba:	0000                	unimp
 6bc:	2f01                	jal	dcc <_min_stack-0x1234>
 6be:	61726373          	csrrsi	t1,0x617,4
 6c2:	6374                	flw	fa3,68(a4)
 6c4:	2f68                	fld	fa0,216(a4)
 6c6:	636d                	lui	t1,0x1b
 6c8:	6169                	addi	sp,sp,208
 6ca:	696e                	flw	fs2,216(sp)
 6cc:	2d65682f          	0x2d65682f
 6d0:	2f636f73          	csrrsi	t5,0x2f6,6
 6d4:	6168                	flw	fa0,68(a0)
 6d6:	6472                	flw	fs0,28(sp)
 6d8:	65726177          	0x65726177
 6dc:	5f70692f          	0x5f70692f
 6e0:	696c                	flw	fa1,84(a0)
 6e2:	6f2f7473          	csrrci	s0,0x6f2,30
 6e6:	6570                	flw	fa2,76(a0)
 6e8:	746e                	flw	fs0,248(sp)
 6ea:	7469                	lui	s0,0xffffa
 6ec:	6e61                	lui	t3,0x18
 6ee:	2f77732f          	0x2f77732f
 6f2:	6574                	flw	fa3,76(a0)
 6f4:	2f737473          	csrrci	s0,0x2f7,6
 6f8:	6c61                	lui	s8,0x18
 6fa:	72716173          	csrrsi	sp,0x727,2
 6fe:	6d6f632f          	0x6d6f632f
 702:	6f6d                	lui	t5,0x1b
 704:	006e                	0x6e
 706:	6300                	flw	fs0,0(a4)
 708:	7472                	flw	fs0,60(sp)
 70a:	2e30                	fld	fa2,88(a2)
 70c:	00010053          	fadd.s	ft0,ft2,ft0,rne
 710:	0000                	unimp
 712:	0500                	addi	s0,sp,640
 714:	8402                	jr	s0
 716:	0004                	addi	s1,sp,0
 718:	1ae0                	addi	s0,sp,380
 71a:	04090403          	lb	s0,64(s2)
 71e:	0100                	addi	s0,sp,128
 720:	04090103          	lb	sp,64(s2)
 724:	0100                	addi	s0,sp,128
 726:	02090103          	lb	sp,32(s2)
 72a:	0100                	addi	s0,sp,128
 72c:	02090103          	lb	sp,32(s2)
 730:	0100                	addi	s0,sp,128
 732:	02090103          	lb	sp,32(s2)
 736:	0100                	addi	s0,sp,128
 738:	02090103          	lb	sp,32(s2)
 73c:	0100                	addi	s0,sp,128
 73e:	02090103          	lb	sp,32(s2)
 742:	0100                	addi	s0,sp,128
 744:	02090103          	lb	sp,32(s2)
 748:	0100                	addi	s0,sp,128
 74a:	02090103          	lb	sp,32(s2)
 74e:	0100                	addi	s0,sp,128
 750:	02090103          	lb	sp,32(s2)
 754:	0100                	addi	s0,sp,128
 756:	02090103          	lb	sp,32(s2)
 75a:	0100                	addi	s0,sp,128
 75c:	02090103          	lb	sp,32(s2)
 760:	0100                	addi	s0,sp,128
 762:	02090103          	lb	sp,32(s2)
 766:	0100                	addi	s0,sp,128
 768:	02090103          	lb	sp,32(s2)
 76c:	0100                	addi	s0,sp,128
 76e:	02090103          	lb	sp,32(s2)
 772:	0100                	addi	s0,sp,128
 774:	02090103          	lb	sp,32(s2)
 778:	0100                	addi	s0,sp,128
 77a:	02090103          	lb	sp,32(s2)
 77e:	0100                	addi	s0,sp,128
 780:	02090103          	lb	sp,32(s2)
 784:	0100                	addi	s0,sp,128
 786:	02090103          	lb	sp,32(s2)
 78a:	0100                	addi	s0,sp,128
 78c:	02090103          	lb	sp,32(s2)
 790:	0100                	addi	s0,sp,128
 792:	02090103          	lb	sp,32(s2)
 796:	0100                	addi	s0,sp,128
 798:	02090103          	lb	sp,32(s2)
 79c:	0100                	addi	s0,sp,128
 79e:	02090103          	lb	sp,32(s2)
 7a2:	0100                	addi	s0,sp,128
 7a4:	02090103          	lb	sp,32(s2)
 7a8:	0100                	addi	s0,sp,128
 7aa:	02090103          	lb	sp,32(s2)
 7ae:	0100                	addi	s0,sp,128
 7b0:	02090103          	lb	sp,32(s2)
 7b4:	0100                	addi	s0,sp,128
 7b6:	02090103          	lb	sp,32(s2)
 7ba:	0100                	addi	s0,sp,128
 7bc:	02090103          	lb	sp,32(s2)
 7c0:	0100                	addi	s0,sp,128
 7c2:	02090103          	lb	sp,32(s2)
 7c6:	0100                	addi	s0,sp,128
 7c8:	02090103          	lb	sp,32(s2)
 7cc:	0100                	addi	s0,sp,128
 7ce:	02090103          	lb	sp,32(s2)
 7d2:	0100                	addi	s0,sp,128
 7d4:	02090303          	lb	t1,32(s2)
 7d8:	0100                	addi	s0,sp,128
 7da:	08090703          	lb	a4,128(s2)
 7de:	0100                	addi	s0,sp,128
 7e0:	08090103          	lb	sp,128(s2)
 7e4:	0100                	addi	s0,sp,128
 7e6:	08090103          	lb	sp,128(s2)
 7ea:	0100                	addi	s0,sp,128
 7ec:	04090403          	lb	s0,64(s2)
 7f0:	0100                	addi	s0,sp,128
 7f2:	04090103          	lb	sp,64(s2)
 7f6:	0100                	addi	s0,sp,128
 7f8:	02090103          	lb	sp,32(s2)
 7fc:	0100                	addi	s0,sp,128
 7fe:	04090603          	lb	a2,64(s2)
 802:	0100                	addi	s0,sp,128
 804:	04090103          	lb	sp,64(s2)
 808:	0100                	addi	s0,sp,128
 80a:	04090103          	lb	sp,64(s2)
 80e:	0100                	addi	s0,sp,128
 810:	04090303          	lb	t1,64(s2)
 814:	0100                	addi	s0,sp,128
 816:	08090103          	lb	sp,128(s2)
 81a:	0100                	addi	s0,sp,128
 81c:	02090103          	lb	sp,32(s2)
 820:	0100                	addi	s0,sp,128
 822:	04090203          	lb	tp,64(s2)
 826:	0100                	addi	s0,sp,128
 828:	04090103          	lb	sp,64(s2)
 82c:	0100                	addi	s0,sp,128
 82e:	0209                	addi	tp,tp,2
 830:	0000                	unimp
 832:	0101                	addi	sp,sp,0
 834:	0500                	addi	s0,sp,640
 836:	0002                	0x2
 838:	0000                	unimp
 83a:	03e0                	addi	s0,sp,460
 83c:	00d8                	addi	a4,sp,68
 83e:	0301                	addi	t1,t1,0
 840:	0902                	slli	s2,s2,0x0
 842:	0028                	addi	a0,sp,8
 844:	0301                	addi	t1,t1,0
 846:	0902                	slli	s2,s2,0x0
 848:	0004                	addi	s1,sp,0
 84a:	0301                	addi	t1,t1,0
 84c:	0905                	addi	s2,s2,1
 84e:	0004                	addi	s1,sp,0
 850:	0301                	addi	t1,t1,0
 852:	0901                	addi	s2,s2,0
 854:	0048                	addi	a0,sp,4
 856:	0301                	addi	t1,t1,0
 858:	0901                	addi	s2,s2,0
 85a:	0004                	addi	s1,sp,0
 85c:	0301                	addi	t1,t1,0
 85e:	0905                	addi	s2,s2,1
 860:	0004                	addi	s1,sp,0
 862:	0901                	addi	s2,s2,0
 864:	0004                	addi	s1,sp,0
 866:	0100                	addi	s0,sp,128
 868:	01 01 00 00 02          	Address 0x0000000000000868 is out of bounds.


Disassembly of section .debug_str:

00000000 <.debug_str>:
   0:	7263732f          	0x7263732f
   4:	7461                	lui	s0,0xffff8
   6:	6d2f6863          	bltu	t5,s2,6d6 <_min_stack-0x192a>
   a:	6e616963          	bltu	sp,t1,6fc <_min_stack-0x1904>
   e:	2f69                	jal	7a8 <_min_stack-0x1858>
  10:	6568                	flw	fa0,76(a0)
  12:	732d                	lui	t1,0xfffeb
  14:	682f636f          	jal	t1,f6696 <tohost+0xd668e>
  18:	7261                	lui	tp,0xffff8
  1a:	7764                	flw	fs1,108(a4)
  1c:	7261                	lui	tp,0xffff8
  1e:	2f65                	jal	7d6 <_min_stack-0x182a>
  20:	7069                	0x7069
  22:	6c5f 7369 2f74      	0x2f7473696c5f
  28:	6e65706f          	j	5770e <tohost+0x37706>
  2c:	6974                	flw	fa3,84(a0)
  2e:	6174                	flw	fa3,68(a0)
  30:	2f6e                	fld	ft10,216(sp)
  32:	742f7773          	csrrci	a4,0x742,30
  36:	7365                	lui	t1,0xffff9
  38:	7374                	flw	fa3,100(a4)
  3a:	736c612f          	0x736c612f
  3e:	7161                	addi	sp,sp,-432
  40:	2f72                	fld	ft10,280(sp)
  42:	6c61                	lui	s8,0x18
  44:	72716173          	csrrsi	sp,0x727,2
  48:	625f 6f6f 5f74      	0x5f746f6f625f
  4e:	7564                	flw	fs1,108(a0)
  50:	6c61                	lui	s8,0x18
  52:	635f 726f 5f65      	0x5f65726f635f
  58:	69616863          	bltu	sp,s6,6e8 <_min_stack-0x1918>
  5c:	006e                	0x6e
  5e:	726f6873          	csrrsi	a6,0x726,30
  62:	2074                	fld	fa3,192(s0)
  64:	6e69                	lui	t3,0x1a
  66:	0074                	addi	a3,sp,12
  68:	7570                	flw	fa2,108(a0)
  6a:	6374                	flw	fa3,68(a4)
  6c:	6168                	flw	fa0,68(a0)
  6e:	0072                	0x72
  70:	6170                	flw	fa2,68(a0)
  72:	6364                	flw	fs1,68(a4)
  74:	6168                	flw	fa0,68(a0)
  76:	0072                	0x72
  78:	6175                	addi	sp,sp,368
  7a:	7472                	flw	fs0,60(sp)
  7c:	735f 7465 635f      	0x635f7465735f
  82:	6766                	flw	fa4,88(sp)
  84:	7700                	flw	fs0,40(a4)
  86:	6469                	lui	s0,0x1a
  88:	6874                	flw	fa3,84(s0)
  8a:	7300                	flw	fs0,32(a4)
  8c:	6d69                	lui	s10,0x1a
  8e:	6c70                	flw	fa2,92(s0)
  90:	5f65                	li	t5,-7
  92:	7865                	lui	a6,0xffff9
  94:	61685f63          	ble	s6,a6,6b2 <_min_stack-0x194e>
  98:	646e                	flw	fs0,216(sp)
  9a:	656c                	flw	fa1,76(a0)
  9c:	0072                	0x72
  9e:	6f6c                	flw	fa1,92(a4)
  a0:	676e                	flw	fa4,216(sp)
  a2:	6c20                	flw	fs0,88(s0)
  a4:	20676e6f          	jal	t3,762aa <tohost+0x562a2>
  a8:	6e69                	lui	t3,0x1a
  aa:	0074                	addi	a3,sp,12
  ac:	6572                	flw	fa0,28(sp)
  ae:	756d                	lui	a0,0xffffb
  b0:	3031                	jal	fffff8bc <pulp__FC+0xfffff8bd>
  b2:	745f 6261 656c      	0x656c6261745f
  b8:	7500                	flw	fs0,40(a0)
  ba:	7261                	lui	tp,0xffff8
  bc:	5f74                	lw	a3,124(a4)
  be:	63746567          	0x63746567
  c2:	6168                	flw	fa0,68(a0)
  c4:	0072                	0x72
  c6:	656c                	flw	fa1,76(a0)
  c8:	6274                	flw	fa3,68(a2)
  ca:	7361                	lui	t1,0xffff8
  cc:	0065                	c.addi	zero,25
  ce:	69727473          	csrrci	s0,0x697,4
  d2:	676e                	flw	fa4,216(sp)
  d4:	7000                	flw	fs0,32(s0)
  d6:	6972                	flw	fs2,28(sp)
  d8:	746e                	flw	fs0,248(sp)
  da:	0066                	0x66
  dc:	7071                	0x7071
  de:	6972                	flw	fs2,28(sp)
  e0:	746e                	flw	fs0,248(sp)
  e2:	0069                	c.addi	zero,26
  e4:	6170                	flw	fa2,68(a0)
  e6:	6972                	flw	fs2,28(sp)
  e8:	7974                	flw	fa3,116(a0)
  ea:	7100                	flw	fs0,32(a0)
  ec:	7270                	flw	fa2,100(a2)
  ee:	6e69                	lui	t3,0x1a
  f0:	7374                	flw	fa3,100(a4)
  f2:	7200                	flw	fs0,32(a2)
  f4:	6d65                	lui	s10,0x19
  f6:	3175                	jal	fffffda2 <pulp__FC+0xfffffda3>
  f8:	0030                	addi	a2,sp,8
  fa:	6f6c                	flw	fa1,92(a4)
  fc:	676e                	flw	fa4,216(sp)
  fe:	6420                	flw	fs0,72(s0)
 100:	6c62756f          	jal	a0,277c6 <tohost+0x77be>
 104:	0065                	c.addi	zero,25
 106:	6e75                	lui	t3,0x1d
 108:	6e676973          	csrrsi	s2,0x6e6,14
 10c:	6465                	lui	s0,0x19
 10e:	6320                	flw	fs0,64(a4)
 110:	6168                	flw	fa0,68(a0)
 112:	0072                	0x72
 114:	6175                	addi	sp,sp,368
 116:	7472                	flw	fs0,60(sp)
 118:	775f 6961 5f74      	0x5f746961775f
 11e:	7874                	flw	fa3,116(s0)
 120:	645f 6e6f 0065      	0x656e6f645f
 126:	20554e47          	fmsub.s	ft8,fa0,ft5,ft4,rmm
 12a:	20313143          	fmadd.s	ft2,ft2,ft3,ft4,rup
 12e:	2e312e37          	lui	t3,0x2e312
 132:	2031                	jal	13e <_min_stack-0x1ec2>
 134:	3032                	fld	ft0,296(sp)
 136:	3731                	jal	42 <_min_stack-0x1fbe>
 138:	3530                	fld	fa2,104(a0)
 13a:	3930                	fld	fa2,112(a0)
 13c:	2d20                	fld	fs0,88(a0)
 13e:	616d                	addi	sp,sp,240
 140:	6372                	flw	ft6,28(sp)
 142:	3d68                	fld	fa0,248(a0)
 144:	7672                	flw	fa2,60(sp)
 146:	6d693233          	0x6d693233
 14a:	6d2d2063          	p.beqimm	s10,-14,80a <_min_stack-0x17f6>
 14e:	6261                	lui	tp,0x18
 150:	3d69                	jal	ffffffea <pulp__FC+0xffffffeb>
 152:	6c69                	lui	s8,0x1a
 154:	3370                	fld	fa2,224(a4)
 156:	2032                	fld	ft0,264(sp)
 158:	6d2d                	lui	s10,0xb
 15a:	646f6d63          	bltu	t5,t1,7b4 <_min_stack-0x184c>
 15e:	6c65                	lui	s8,0x19
 160:	6d3d                	lui	s10,0xf
 162:	6465                	lui	s0,0x19
 164:	6e61                	lui	t3,0x18
 166:	2079                	jal	1f4 <_min_stack-0x1e0c>
 168:	672d                	lui	a4,0xb
 16a:	2d20                	fld	fs0,88(a0)
 16c:	2d20734f          	fnmadd.h	t1,zero,s2,t0
 170:	7666                	flw	fa2,120(sp)
 172:	7369                	lui	t1,0xffffa
 174:	6269                	lui	tp,0x1a
 176:	6c69                	lui	s8,0x1a
 178:	7469                	lui	s0,0xffffa
 17a:	3d79                	jal	18 <_min_stack-0x1fe8>
 17c:	6968                	flw	fa0,84(a0)
 17e:	6464                	flw	fs1,76(s0)
 180:	6e65                	lui	t3,0x19
 182:	2d20                	fld	fs0,88(a0)
 184:	6666                	flw	fa2,88(sp)
 186:	6572                	flw	fa0,28(sp)
 188:	7365                	lui	t1,0xffff9
 18a:	6174                	flw	fa3,68(a0)
 18c:	646e                	flw	fs0,216(sp)
 18e:	6e69                	lui	t3,0x1a
 190:	6f6c0067          	jr	1782(s8) # 1a6f6 <_stack_len+0x126f6>
 194:	676e                	flw	fa4,216(sp)
 196:	6c20                	flw	fs0,88(s0)
 198:	20676e6f          	jal	t3,7639e <tohost+0x56396>
 19c:	6e75                	lui	t3,0x1d
 19e:	6e676973          	csrrsi	s2,0x6e6,14
 1a2:	6465                	lui	s0,0x19
 1a4:	6920                	flw	fs0,80(a0)
 1a6:	746e                	flw	fs0,248(sp)
 1a8:	7100                	flw	fs0,32(a0)
 1aa:	7270                	flw	fa2,100(a2)
 1ac:	6e69                	lui	t3,0x1a
 1ae:	0074                	addi	a3,sp,12
 1b0:	6975                	lui	s2,0x1d
 1b2:	746e                	flw	fs0,248(sp)
 1b4:	3631                	jal	fffffcc0 <pulp__FC+0xfffffcc1>
 1b6:	745f 7000 7475      	0x74757000745f
 1bc:	68730073          	0x68730073
 1c0:	2074726f          	jal	tp,47bc6 <tohost+0x27bbe>
 1c4:	6e75                	lui	t3,0x1d
 1c6:	6e676973          	csrrsi	s2,0x6e6,14
 1ca:	6465                	lui	s0,0x19
 1cc:	6920                	flw	fs0,80(a0)
 1ce:	746e                	flw	fs0,248(sp)
 1d0:	7000                	flw	fs0,32(s0)
 1d2:	6972                	flw	fs2,28(sp)
 1d4:	746e                	flw	fs0,248(sp)
 1d6:	625f 6675 7100      	0x71006675625f
 1dc:	7270                	flw	fa2,100(a2)
 1de:	6e69                	lui	t3,0x1a
 1e0:	6374                	flw	fa3,68(a4)
 1e2:	6168                	flw	fa0,68(a0)
 1e4:	0072                	0x72
 1e6:	5f5f 7562 6c69      	0x6c6975625f5f
 1ec:	6974                	flw	fa3,84(a0)
 1ee:	5f6e                	lw	t5,248(sp)
 1f0:	6176                	flw	ft2,92(sp)
 1f2:	6c5f 7369 0074      	0x7473696c5f
 1f8:	6964                	flw	fs1,84(a0)
 1fa:	7576                	flw	fa0,124(sp)
 1fc:	3031                	jal	fffffa08 <pulp__FC+0xfffffa09>
 1fe:	7500                	flw	fs0,40(a0)
 200:	7261                	lui	tp,0xffff8
 202:	5f74                	lw	a3,124(a4)
 204:	646e6573          	csrrsi	a0,0x646,28
 208:	72616863          	bltu	sp,t1,938 <_min_stack-0x16c8>
 20c:	6300                	flw	fs0,0(a4)
 20e:	6b6c                	flw	fa1,84(a4)
 210:	635f 756f 746e      	0x746e756f635f
 216:	7265                	lui	tp,0xffff9
 218:	5f00                	lw	s0,56(a4)
 21a:	675f 756e 5f63      	0x5f63756e675f
 220:	6176                	flw	ft2,92(sp)
 222:	6c5f 7369 0074      	0x7473696c5f
 228:	7263732f          	0x7263732f
 22c:	7461                	lui	s0,0xffff8
 22e:	6d2f6863          	bltu	t5,s2,8fe <_min_stack-0x1702>
 232:	6e616963          	bltu	sp,t1,924 <_min_stack-0x16dc>
 236:	2f69                	jal	9d0 <_min_stack-0x1630>
 238:	6568                	flw	fa0,76(a0)
 23a:	732d                	lui	t1,0xfffeb
 23c:	682f636f          	jal	t1,f68be <tohost+0xd68b6>
 240:	7261                	lui	tp,0xffff8
 242:	7764                	flw	fs1,108(a4)
 244:	7261                	lui	tp,0xffff8
 246:	2f65                	jal	9fe <_min_stack-0x1602>
 248:	7069                	0x7069
 24a:	6c5f 7369 2f74      	0x2f7473696c5f
 250:	6e65706f          	j	57936 <tohost+0x3792e>
 254:	6974                	flw	fa3,84(a0)
 256:	6174                	flw	fa3,68(a0)
 258:	2f6e                	fld	ft10,216(sp)
 25a:	742f7773          	csrrci	a4,0x742,30
 25e:	7365                	lui	t1,0xffff9
 260:	7374                	flw	fa3,100(a4)
 262:	736c612f          	0x736c612f
 266:	7161                	addi	sp,sp,-432
 268:	2f72                	fld	ft10,280(sp)
 26a:	6d6d6f63          	bltu	s10,s6,948 <_min_stack-0x16b8>
 26e:	752f6e6f          	jal	t3,f69c0 <tohost+0xd69b8>
 272:	6974                	flw	fa3,84(a0)
 274:	736c                	flw	fa1,100(a4)
 276:	632e                	flw	ft6,200(sp)
 278:	6500                	flw	fs0,8(a0)
 27a:	7478                	flw	fa4,108(s0)
 27c:	7265                	lui	tp,0xffff9
 27e:	616e                	flw	ft2,216(sp)
 280:	5f6c                	lw	a1,124(a4)
 282:	7269                	lui	tp,0xffffa
 284:	5f71                	li	t5,-4
 286:	6168                	flw	fa0,68(a0)
 288:	646e                	flw	fs0,216(sp)
 28a:	656c                	flw	fa1,76(a0)
 28c:	0072                	0x72
 28e:	6175                	addi	sp,sp,368
 290:	7472                	flw	fs0,60(sp)
 292:	735f 6e65 0064      	0x646e65735f
 298:	6f66                	flw	ft10,88(sp)
 29a:	6d72                	flw	fs10,28(sp)
 29c:	7461                	lui	s0,0xffff8
 29e:	7000                	flw	fs0,32(s0)
 2a0:	696c                	flw	fa1,84(a0)
 2a2:	72705f63          	blez	t2,9e0 <_min_stack-0x1620>
 2a6:	6f69                	lui	t5,0x1a
 2a8:	7600                	flw	fs0,40(a2)
 2aa:	6c61                	lui	s8,0x18
 2ac:	315f 7600 6c61      	0x6c617600315f
 2b2:	325f 6200 7561      	0x75616200325f
 2b8:	5f64                	lw	s1,124(a4)
 2ba:	6172                	flw	ft2,28(sp)
 2bc:	6574                	flw	fa3,76(a0)
 2be:	6d00                	flw	fs0,24(a0)
 2c0:	6f62                	flw	ft10,24(sp)
 2c2:	5f78                	lw	a4,124(a4)
 2c4:	6469                	lui	s0,0x1a
 2c6:	7000                	flw	fs0,32(s0)
 2c8:	746e696f          	jal	s2,e6a0e <tohost+0xc6a06>
 2cc:	7265                	lui	tp,0xffff9
 2ce:	6d00                	flw	fs0,24(a0)
 2d0:	6961                	lui	s2,0x18
 2d2:	006e                	0x6e
 2d4:	6574                	flw	fa3,76(a0)
 2d6:	665f7473          	csrrci	s0,0x665,30
 2da:	6572                	flw	fa0,28(sp)
 2dc:	0071                	c.addi	zero,28
 2de:	7261                	lui	tp,0xffff8
 2e0:	61006367          	0x61006367
 2e4:	6772                	flw	fa4,28(sp)
 2e6:	0076                	0x76
 2e8:	6c70                	flw	fa2,92(s0)
 2ea:	6369                	lui	t1,0x1a
 2ec:	655f 006e 6c61      	0x6c61006e655f
 2f2:	72716173          	csrrsi	sp,0x727,2
 2f6:	625f 6f6f 5f74      	0x5f746f6f625f
 2fc:	7564                	flw	fs1,108(a0)
 2fe:	6c61                	lui	s8,0x18
 300:	635f 726f 5f65      	0x5f65726f635f
 306:	69616863          	bltu	sp,s6,996 <_min_stack-0x166a>
 30a:	2e6e                	fld	ft8,216(sp)
 30c:	e9030063          	beqz	zero,30c <_min_stack-0x1cf4>

Disassembly of section .comment:

00000000 <.comment>:
   0:	3a434347          	fmsub.d	ft6,ft6,ft4,ft7,rmm
   4:	2820                	fld	fs0,80(s0)
   6:	29554e47          	fmsub.s	ft8,fa0,fs5,ft5,rmm
   a:	3720                	fld	fs0,104(a4)
   c:	312e                	fld	ft2,232(sp)
   e:	312e                	fld	ft2,232(sp)
  10:	3220                	fld	fs0,96(a2)
  12:	3130                	fld	fa2,96(a0)
  14:	30353037          	lui	zero,0x30353
  18:	0039                	c.addi	zero,14

Disassembly of section .Pulp_Chip.Info:

00000000 <.Pulp_Chip.Info>:
   0:	000a                	0xa
   2:	0000                	unimp
   4:	0038                	addi	a4,sp,8
   6:	0000                	unimp
   8:	0001                	nop
   a:	0000                	unimp
   c:	7550                	flw	fa2,44(a0)
   e:	706c                	flw	fa1,100(s0)
  10:	495f 666e 006f      	0x6f666e495f
  16:	70696863          	bltu	s2,t1,726 <_min_stack-0x18da>
  1a:	6e3d                	lui	t3,0xf
  1c:	20656e6f          	jal	t3,56222 <tohost+0x3621a>
  20:	3d757063          	bleu	s7,a0,3e0 <_min_stack-0x1c20>
  24:	6f6e                	flw	ft10,216(sp)
  26:	656e                	flw	fa0,216(sp)
  28:	7020                	flw	fs0,96(s0)
  2a:	3d65                	jal	fffffee2 <pulp__FC+0xfffffee3>
  2c:	312d                	jal	fffffc56 <pulp__FC+0xfffffc57>
  2e:	6620                	flw	fs0,72(a2)
  30:	312d3d63          	p.bneimm	s10,-14,34a <_min_stack-0x1cb6>
  34:	6c20                	flw	fs0,88(s0)
  36:	3d32                	fld	fs10,296(sp)
  38:	312d                	jal	fffffc62 <pulp__FC+0xfffffc63>
  3a:	6c20                	flw	fs0,88(s0)
  3c:	6331                	lui	t1,0xc
  3e:	3d6c                	fld	fa1,248(a0)
  40:	312d                	jal	fffffc6a <pulp__FC+0xfffffc6b>
  42:	6c20                	flw	fs0,88(s0)
  44:	6631                	lui	a2,0xc
  46:	312d3d63          	p.bneimm	s10,-14,360 <_min_stack-0x1ca0>
  4a:	0000                	unimp
	...
