
hello_pulp.elf:     file format elf32-littleriscv
architecture: riscv:rv32, flags 0x00000112:
EXEC_P, HAS_SYMS, D_PAGED
start address 0xe0000080

Sections:
Idx Name          Size      VMA       LMA       File off  Algn
  0 .vectors      00000084  e0000000  e0000000  00001000  2**0
                  CONTENTS, ALLOC, LOAD, READONLY, CODE
  1 .text         00002372  e0000084  e0000084  00001084  2**1
                  CONTENTS, ALLOC, LOAD, READONLY, CODE
  2 .rodata       00000017  e00023f8  e00023f8  000033f8  2**2
                  CONTENTS, ALLOC, LOAD, READONLY, DATA
  3 .data         00000010  e0002410  e0002410  00003410  2**2
                  CONTENTS, ALLOC, LOAD, DATA
  4 .bss          00000000  e0002420  e0002420  00003420  2**0
                  ALLOC
  5 .logs.fields  00000000  e0002420  e0002420  00003420  2**0
                  CONTENTS
  6 .stack        00002000  e0008000  e0008000  00004000  2**0
                  ALLOC
  7 .debug_info   00000a2a  00000000  00000000  00003420  2**0
                  CONTENTS, READONLY, DEBUGGING, OCTETS
  8 .debug_abbrev 00000468  00000000  00000000  00003e4a  2**0
                  CONTENTS, READONLY, DEBUGGING, OCTETS
  9 .debug_loclists 000008e5  00000000  00000000  000042b2  2**0
                  CONTENTS, READONLY, DEBUGGING, OCTETS
 10 .debug_aranges 00000070  00000000  00000000  00004b98  2**3
                  CONTENTS, READONLY, DEBUGGING, OCTETS
 11 .debug_rnglists 00000129  00000000  00000000  00004c08  2**0
                  CONTENTS, READONLY, DEBUGGING, OCTETS
 12 .debug_line   00004bf9  00000000  00000000  00004d31  2**0
                  CONTENTS, READONLY, DEBUGGING, OCTETS
 13 .debug_str    000002da  00000000  00000000  0000992a  2**0
                  CONTENTS, READONLY, DEBUGGING, OCTETS
 14 .debug_line_str 00000167  00000000  00000000  00009c04  2**0
                  CONTENTS, READONLY, DEBUGGING, OCTETS
 15 .comment      00000026  00000000  00000000  00009d6b  2**0
                  CONTENTS, READONLY
 16 .riscv.attributes 0000003f  00000000  00000000  00009d91  2**0
                  CONTENTS, READONLY
 17 .debug_frame  000001bc  00000000  00000000  00009dd0  2**2
                  CONTENTS, READONLY, DEBUGGING, OCTETS

Disassembly of section .vectors:

e0000000 <_vectors_start>:
  .option norvc;
  
  .org 0x00
  .rept 10
  jal x0, default_exc_handler
  .endr
e0000000:	36e0206f          	j	e000236e <default_exc_handler>
e0000004:	36a0206f          	j	e000236e <default_exc_handler>
e0000008:	3660206f          	j	e000236e <default_exc_handler>
e000000c:	3620206f          	j	e000236e <default_exc_handler>
e0000010:	35e0206f          	j	e000236e <default_exc_handler>
e0000014:	35a0206f          	j	e000236e <default_exc_handler>
e0000018:	3560206f          	j	e000236e <default_exc_handler>
e000001c:	3520206f          	j	e000236e <default_exc_handler>
e0000020:	34e0206f          	j	e000236e <default_exc_handler>
e0000024:	34a0206f          	j	e000236e <default_exc_handler>
  
  jal x0, default_exc_handler
e0000028:	3460206f          	j	e000236e <default_exc_handler>
  
  jal x0, external_irq_handler
e000002c:	42a0006f          	j	e0000456 <external_irq_handler>

  .org 0x30
  .rept 18
  jal x0, default_exc_handler
  .endr
e0000030:	33e0206f          	j	e000236e <default_exc_handler>
e0000034:	33a0206f          	j	e000236e <default_exc_handler>
e0000038:	3360206f          	j	e000236e <default_exc_handler>
e000003c:	3320206f          	j	e000236e <default_exc_handler>
e0000040:	32e0206f          	j	e000236e <default_exc_handler>
e0000044:	32a0206f          	j	e000236e <default_exc_handler>
e0000048:	3260206f          	j	e000236e <default_exc_handler>
e000004c:	3220206f          	j	e000236e <default_exc_handler>
e0000050:	31e0206f          	j	e000236e <default_exc_handler>
e0000054:	31a0206f          	j	e000236e <default_exc_handler>
e0000058:	3160206f          	j	e000236e <default_exc_handler>
e000005c:	3120206f          	j	e000236e <default_exc_handler>
e0000060:	30e0206f          	j	e000236e <default_exc_handler>
e0000064:	30a0206f          	j	e000236e <default_exc_handler>
e0000068:	3060206f          	j	e000236e <default_exc_handler>
e000006c:	3020206f          	j	e000236e <default_exc_handler>
e0000070:	2fe0206f          	j	e000236e <default_exc_handler>
e0000074:	2fa0206f          	j	e000236e <default_exc_handler>
  jal x0, default_exc_handler
e0000078:	2f60206f          	j	e000236e <default_exc_handler>
  jal x0, default_exc_handler
e000007c:	2f20206f          	j	e000236e <default_exc_handler>


  // reset vector
  .org 0x80
  jal x0, reset_handler
e0000080:	2f20206f          	j	e0002372 <reset_handler>

Disassembly of section .text:

e0000084 <uart_set_cfg>:
}


void uart_set_cfg(int parity, uint16_t clk_counter) {
  unsigned int i;
  *(volatile unsigned int*)(UART_REG_LCR) = 0x83; //sets 8N1 and set DLAB to 1
e0000084:	400007b7          	lui	a5,0x40000
e0000088:	08300713          	li	a4,131
e000008c:	c7d8                	sw	a4,12(a5)
  *(volatile unsigned int*)(UART_REG_DLM) = (clk_counter >> 8) & 0xFF;
e000008e:	0085d713          	srli	a4,a1,0x8
e0000092:	c3d8                	sw	a4,4(a5)
  *(volatile unsigned int*)(UART_REG_DLL) =  clk_counter       & 0xFF;
e0000094:	0ff5f593          	zext.b	a1,a1
e0000098:	c38c                	sw	a1,0(a5)
  *(volatile unsigned int*)(UART_REG_FCR) = 0xA7; //enables 16byte FIFO and clear FIFOs
e000009a:	0a700713          	li	a4,167
e000009e:	c798                	sw	a4,8(a5)
  *(volatile unsigned int*)(UART_REG_LCR) = 0x03; //sets 8N1 and set DLAB to 0
e00000a0:	470d                	li	a4,3
e00000a2:	c7d8                	sw	a4,12(a5)

  *(volatile unsigned int*)(UART_REG_IER) = ((*(volatile unsigned int*)(UART_REG_IER)) & 0xF0) | 0x02; // set IER (interrupt enable register) on UART
e00000a4:	43d8                	lw	a4,4(a5)
e00000a6:	0f077713          	andi	a4,a4,240
e00000aa:	00276713          	ori	a4,a4,2
e00000ae:	c3d8                	sw	a4,4(a5)
}
e00000b0:	8082                	ret

e00000b2 <uart_send>:

  while(len > 0) {
    // process this in batches of 16 bytes to actually use the FIFO in the UART

    // wait until there is space in the fifo
    while( (*(volatile unsigned int*)(UART_REG_LSR) & 0x20) == 0);
e00000b2:	40000737          	lui	a4,0x40000
  while(len > 0) {
e00000b6:	e191                	bnez	a1,e00000ba <uart_send+0x8>
      *(volatile unsigned int*)(UART_REG_THR) = *str++;

      len--;
    }
  }
}
e00000b8:	8082                	ret
    while( (*(volatile unsigned int*)(UART_REG_LSR) & 0x20) == 0);
e00000ba:	4b5c                	lw	a5,20(a4)
e00000bc:	0207f793          	andi	a5,a5,32
e00000c0:	dfed                	beqz	a5,e00000ba <uart_send+0x8>
e00000c2:	04050793          	addi	a5,a0,64
      *(volatile unsigned int*)(UART_REG_THR) = *str++;
e00000c6:	00054683          	lbu	a3,0(a0)
e00000ca:	0505                	addi	a0,a0,1
      len--;
e00000cc:	15fd                	addi	a1,a1,-1
      *(volatile unsigned int*)(UART_REG_THR) = *str++;
e00000ce:	c314                	sw	a3,0(a4)
    for(i = 0; (i < UART_FIFO_DEPTH) && (len > 0); i++) {
e00000d0:	fea783e3          	beq	a5,a0,e00000b6 <uart_send+0x4>
e00000d4:	f9ed                	bnez	a1,e00000c6 <uart_send+0x14>
e00000d6:	8082                	ret

e00000d8 <uart_getchar>:

char uart_getchar() {
  while((*((volatile int*)UART_REG_LSR) & 0x1) != 0x1);
e00000d8:	40000737          	lui	a4,0x40000
e00000dc:	4b5c                	lw	a5,20(a4)
e00000de:	8b85                	andi	a5,a5,1
e00000e0:	dff5                	beqz	a5,e00000dc <uart_getchar+0x4>

  return *(volatile int*)UART_REG_RBR;
e00000e2:	4308                	lw	a0,0(a4)
}
e00000e4:	0ff57513          	zext.b	a0,a0
e00000e8:	8082                	ret

e00000ea <uart_sendchar>:

void uart_sendchar(const char c) {
  // wait until there is space in the fifo
  while( (*(volatile unsigned int*)(UART_REG_LSR) & 0x20) == 0);
e00000ea:	40000737          	lui	a4,0x40000
e00000ee:	4b5c                	lw	a5,20(a4)
e00000f0:	0207f793          	andi	a5,a5,32
e00000f4:	dfed                	beqz	a5,e00000ee <uart_sendchar+0x4>

  // load FIFO
  *(volatile unsigned int*)(UART_REG_THR) = c;
e00000f6:	c308                	sw	a0,0(a4)
}
e00000f8:	8082                	ret

e00000fa <qprints.constprop.0>:
  }
  else
    putchar((char)c);
}

static int qprints(char **out, const char *string, int width, int pad)
e00000fa:	1101                	addi	sp,sp,-32
e00000fc:	cc22                	sw	s0,24(sp)
e00000fe:	ca26                	sw	s1,20(sp)
e0000100:	c452                	sw	s4,8(sp)
e0000102:	ce06                	sw	ra,28(sp)
e0000104:	c84a                	sw	s2,16(sp)
e0000106:	c64e                	sw	s3,12(sp)
e0000108:	8a2a                	mv	s4,a0
e000010a:	842e                	mv	s0,a1
{
  register int pc = 0, padchar = ' ';
e000010c:	02000493          	li	s1,32

  if (width > 0) {
e0000110:	02b05463          	blez	a1,e0000138 <qprints.constprop.0+0x3e>
e0000114:	4781                	li	a5,0
e0000116:	a011                	j	e000011a <qprints.constprop.0+0x20>
    register int len = 0;
    register const char *ptr;
    for (ptr = string; *ptr; ++ptr) ++len;
e0000118:	0785                	addi	a5,a5,1 # 40000001 <tohost+0x3ffdfff9>
e000011a:	00fa0733          	add	a4,s4,a5
e000011e:	00074703          	lbu	a4,0(a4) # 40000000 <tohost+0x3ffdfff8>
e0000122:	fb7d                	bnez	a4,e0000118 <qprints.constprop.0+0x1e>
    if (len >= width) width = 0;
e0000124:	0287d163          	bge	a5,s0,e0000146 <qprints.constprop.0+0x4c>
    else width -= len;
e0000128:	8c1d                	sub	s0,s0,a5
    if (pad & PAD_ZERO) padchar = '0';
e000012a:	00267793          	andi	a5,a2,2
  register int pc = 0, padchar = ' ';
e000012e:	02000493          	li	s1,32
    if (pad & PAD_ZERO) padchar = '0';
e0000132:	c399                	beqz	a5,e0000138 <qprints.constprop.0+0x3e>
e0000134:	03000493          	li	s1,48
  }
  if (!(pad & PAD_RIGHT)) {
e0000138:	8a05                	andi	a2,a2,1
  register int pc = 0, padchar = ' ';
e000013a:	4901                	li	s2,0
  if (!(pad & PAD_RIGHT)) {
e000013c:	e215                	bnez	a2,e0000160 <qprints.constprop.0+0x66>
e000013e:	8922                	mv	s2,s0
  uart_sendchar(s);
e0000140:	0ff4f993          	zext.b	s3,s1
e0000144:	a031                	j	e0000150 <qprints.constprop.0+0x56>
    if (len >= width) width = 0;
e0000146:	4401                	li	s0,0
e0000148:	b7cd                	j	e000012a <qprints.constprop.0+0x30>
  uart_sendchar(s);
e000014a:	854e                	mv	a0,s3
e000014c:	3f79                	jal	e00000ea <uart_sendchar>
    for ( ; width > 0; --width) {
e000014e:	197d                	addi	s2,s2,-1
e0000150:	ff204de3          	bgtz	s2,e000014a <qprints.constprop.0+0x50>
e0000154:	8922                	mv	s2,s0
e0000156:	00045363          	bgez	s0,e000015c <qprints.constprop.0+0x62>
e000015a:	4901                	li	s2,0
e000015c:	41240433          	sub	s0,s0,s2
  register int pc = 0, padchar = ' ';
e0000160:	89ca                	mv	s3,s2
e0000162:	a019                	j	e0000168 <qprints.constprop.0+0x6e>
  uart_sendchar(s);
e0000164:	3759                	jal	e00000ea <uart_sendchar>
      ++pc;
    }
  }
  for ( ; *string ; ++string) {
    qprintchar (out, *string);
    ++pc;
e0000166:	0985                	addi	s3,s3,1
  for ( ; *string ; ++string) {
e0000168:	412987b3          	sub	a5,s3,s2
e000016c:	97d2                	add	a5,a5,s4
e000016e:	0007c503          	lbu	a0,0(a5)
e0000172:	f96d                	bnez	a0,e0000164 <qprints.constprop.0+0x6a>
e0000174:	8922                	mv	s2,s0
  uart_sendchar(s);
e0000176:	0ff4f493          	zext.b	s1,s1
  }
  for ( ; width > 0; --width) {
e000017a:	01204f63          	bgtz	s2,e0000198 <qprints.constprop.0+0x9e>
    qprintchar (out, padchar);
    ++pc;
  }

  return pc;
e000017e:	00045363          	bgez	s0,e0000184 <qprints.constprop.0+0x8a>
e0000182:	4401                	li	s0,0
}
e0000184:	01340533          	add	a0,s0,s3
e0000188:	40f2                	lw	ra,28(sp)
e000018a:	4462                	lw	s0,24(sp)
e000018c:	44d2                	lw	s1,20(sp)
e000018e:	4942                	lw	s2,16(sp)
e0000190:	49b2                	lw	s3,12(sp)
e0000192:	4a22                	lw	s4,8(sp)
e0000194:	6105                	addi	sp,sp,32
e0000196:	8082                	ret
  uart_sendchar(s);
e0000198:	8526                	mv	a0,s1
e000019a:	3f81                	jal	e00000ea <uart_sendchar>
  for ( ; width > 0; --width) {
e000019c:	197d                	addi	s2,s2,-1
e000019e:	bff1                	j	e000017a <qprints.constprop.0+0x80>

e00001a0 <qprinti.constprop.0>:

static int qprinti(char **out, int i, int b, int sg, int width, int pad, char letbase)
e00001a0:	7139                	addi	sp,sp,-64
e00001a2:	da26                	sw	s1,52(sp)
e00001a4:	de06                	sw	ra,60(sp)
e00001a6:	dc22                	sw	s0,56(sp)
e00001a8:	88ae                	mv	a7,a1
e00001aa:	84b2                	mv	s1,a2
e00001ac:	85b6                	mv	a1,a3
e00001ae:	863a                	mv	a2,a4
  char print_buf[PRINT_BUF_LEN];
  register char *s;
  register int neg = 0, pc = 0;
  unsigned int t,u = i;

  if (i == 0)
e00001b0:	ed01                	bnez	a0,e00001c8 <qprinti.constprop.0+0x28>
  {
    print_buf[0] = '0';
e00001b2:	03000793          	li	a5,48
    print_buf[1] = '\0';
    return qprints (out, print_buf, width, pad);
e00001b6:	0808                	addi	a0,sp,16
    print_buf[0] = '0';
e00001b8:	00f11823          	sh	a5,16(sp)
    return qprints (out, print_buf, width, pad);
e00001bc:	3f3d                	jal	e00000fa <qprints.constprop.0>
    {
      *--s = '-';
    }
  }
  return pc + qprints (out, s, width, pad);
}
e00001be:	50f2                	lw	ra,60(sp)
e00001c0:	5462                	lw	s0,56(sp)
e00001c2:	54d2                	lw	s1,52(sp)
e00001c4:	6121                	addi	sp,sp,64
e00001c6:	8082                	ret
e00001c8:	882a                	mv	a6,a0
  if (sg && b == 10 && i < 0)
e00001ca:	c881                	beqz	s1,e00001da <qprinti.constprop.0+0x3a>
e00001cc:	4729                	li	a4,10
e00001ce:	06e89f63          	bne	a7,a4,e000024c <qprinti.constprop.0+0xac>
e00001d2:	06055d63          	bgez	a0,e000024c <qprinti.constprop.0+0xac>
    u = -i;
e00001d6:	40a00833          	neg	a6,a0
  *s = '\0';
e00001da:	020107a3          	sb	zero,47(sp)
  if(b == 16) {
e00001de:	4741                	li	a4,16
e00001e0:	02f10413          	addi	s0,sp,47
e00001e4:	06e88663          	beq	a7,a4,e0000250 <qprinti.constprop.0+0xb0>
  n = (0x19999999 * n + (n >> 1) + (n >> 3)) >> 28;
e00001e8:	1999a737          	lui	a4,0x1999a
  return remu10_table[n];
e00001ec:	00002897          	auipc	a7,0x2
e00001f0:	22488893          	addi	a7,a7,548 # e0002410 <remu10_table>
  n = (0x19999999 * n + (n >> 1) + (n >> 3)) >> 28;
e00001f4:	99970713          	addi	a4,a4,-1639 # 19999999 <tohost+0x19979991>
  r = n - q * 10;
e00001f8:	4529                	li	a0,10
  n = (0x19999999 * n + (n >> 1) + (n >> 3)) >> 28;
e00001fa:	02e807b3          	mul	a5,a6,a4
e00001fe:	00185693          	srli	a3,a6,0x1
e0000202:	00385313          	srli	t1,a6,0x3
      *--s = remu10(u) + '0';
e0000206:	147d                	addi	s0,s0,-1
  n = (0x19999999 * n + (n >> 1) + (n >> 3)) >> 28;
e0000208:	97b6                	add	a5,a5,a3
e000020a:	979a                	add	a5,a5,t1
e000020c:	83f1                	srli	a5,a5,0x1c
  return remu10_table[n];
e000020e:	97c6                	add	a5,a5,a7
      *--s = remu10(u) + '0';
e0000210:	0007c783          	lbu	a5,0(a5)
e0000214:	03078793          	addi	a5,a5,48
e0000218:	00f40023          	sb	a5,0(s0)
  q = (n >> 1) + (n >> 2);
e000021c:	00285793          	srli	a5,a6,0x2
e0000220:	97b6                	add	a5,a5,a3
  q = q + (q >> 4);
e0000222:	0047d693          	srli	a3,a5,0x4
e0000226:	97b6                	add	a5,a5,a3
  q = q + (q >> 8);
e0000228:	0087d693          	srli	a3,a5,0x8
e000022c:	97b6                	add	a5,a5,a3
  q = q + (q >> 16);
e000022e:	0107d693          	srli	a3,a5,0x10
e0000232:	97b6                	add	a5,a5,a3
  q = q >> 3;
e0000234:	838d                	srli	a5,a5,0x3
  r = n - q * 10;
e0000236:	02a786b3          	mul	a3,a5,a0
  return q + ((r + 6) >> 4);
e000023a:	0819                	addi	a6,a6,6
e000023c:	40d80833          	sub	a6,a6,a3
e0000240:	00485813          	srli	a6,a6,0x4
e0000244:	983e                	add	a6,a6,a5
    while (u) {
e0000246:	fa081ae3          	bnez	a6,e00001fa <qprinti.constprop.0+0x5a>
e000024a:	a025                	j	e0000272 <qprinti.constprop.0+0xd2>
  register int neg = 0, pc = 0;
e000024c:	4481                	li	s1,0
e000024e:	b771                	j	e00001da <qprinti.constprop.0+0x3a>
      if (t >= 10)
e0000250:	4725                	li	a4,9
        t += letbase - '0' - 10;
e0000252:	fc678793          	addi	a5,a5,-58
      int t = u & 0xF;
e0000256:	00f87513          	andi	a0,a6,15
      if (t >= 10)
e000025a:	00a75363          	bge	a4,a0,e0000260 <qprinti.constprop.0+0xc0>
        t += letbase - '0' - 10;
e000025e:	953e                	add	a0,a0,a5
      *--s = t + '0';
e0000260:	147d                	addi	s0,s0,-1
e0000262:	03050513          	addi	a0,a0,48
e0000266:	00a40023          	sb	a0,0(s0)
      u >>= 4;
e000026a:	00485813          	srli	a6,a6,0x4
    while (u) {
e000026e:	fe0814e3          	bnez	a6,e0000256 <qprinti.constprop.0+0xb6>
  if (neg) {
e0000272:	cc89                	beqz	s1,e000028c <qprinti.constprop.0+0xec>
    if( width && (pad & PAD_ZERO) )
e0000274:	c185                	beqz	a1,e0000294 <qprinti.constprop.0+0xf4>
e0000276:	00267793          	andi	a5,a2,2
e000027a:	cf89                	beqz	a5,e0000294 <qprinti.constprop.0+0xf4>
  uart_sendchar(s);
e000027c:	02d00513          	li	a0,45
e0000280:	c632                	sw	a2,12(sp)
e0000282:	c42e                	sw	a1,8(sp)
e0000284:	359d                	jal	e00000ea <uart_sendchar>
      --width;
e0000286:	45a2                	lw	a1,8(sp)
e0000288:	4632                	lw	a2,12(sp)
e000028a:	15fd                	addi	a1,a1,-1
  return pc + qprints (out, s, width, pad);
e000028c:	8522                	mv	a0,s0
e000028e:	35b5                	jal	e00000fa <qprints.constprop.0>
e0000290:	9526                	add	a0,a0,s1
e0000292:	b735                	j	e00001be <qprinti.constprop.0+0x1e>
      *--s = '-';
e0000294:	02d00793          	li	a5,45
e0000298:	fef40fa3          	sb	a5,-1(s0)
  register int neg = 0, pc = 0;
e000029c:	4481                	li	s1,0
      *--s = '-';
e000029e:	147d                	addi	s0,s0,-1
e00002a0:	b7f5                	j	e000028c <qprinti.constprop.0+0xec>

e00002a2 <uart_wait_tx_done>:
  while( (*(volatile unsigned int*)(UART_REG_LSR) & 0x40) == 0);
e00002a2:	40000737          	lui	a4,0x40000
e00002a6:	4b5c                	lw	a5,20(a4)
e00002a8:	0407f793          	andi	a5,a5,64
e00002ac:	dfed                	beqz	a5,e00002a6 <uart_wait_tx_done+0x4>
}
e00002ae:	8082                	ret

e00002b0 <putchar>:
{
e00002b0:	1141                	addi	sp,sp,-16
e00002b2:	c422                	sw	s0,8(sp)
e00002b4:	842a                	mv	s0,a0
  uart_sendchar(s);
e00002b6:	0ff57513          	zext.b	a0,a0
{
e00002ba:	c606                	sw	ra,12(sp)
  uart_sendchar(s);
e00002bc:	353d                	jal	e00000ea <uart_sendchar>
}
e00002be:	40b2                	lw	ra,12(sp)
e00002c0:	8522                	mv	a0,s0
e00002c2:	4422                	lw	s0,8(sp)
e00002c4:	0141                	addi	sp,sp,16
e00002c6:	8082                	ret

e00002c8 <printf>:

  return pc;
}

int printf(const char *format, ...)
{
e00002c8:	711d                	addi	sp,sp,-96
e00002ca:	dc22                	sw	s0,56(sp)
  int pc;
  va_list va;

  va_start(va, format);
e00002cc:	00c0                	addi	s0,sp,68
{
e00002ce:	da26                	sw	s1,52(sp)
e00002d0:	d84a                	sw	s2,48(sp)
e00002d2:	d64e                	sw	s3,44(sp)
e00002d4:	d452                	sw	s4,40(sp)
e00002d6:	d256                	sw	s5,36(sp)
e00002d8:	d05a                	sw	s6,32(sp)
e00002da:	ce5e                	sw	s7,28(sp)
e00002dc:	de06                	sw	ra,60(sp)
e00002de:	cc62                	sw	s8,24(sp)
e00002e0:	8b2a                	mv	s6,a0
e00002e2:	c2ae                	sw	a1,68(sp)
e00002e4:	c4b2                	sw	a2,72(sp)
e00002e6:	c6b6                	sw	a3,76(sp)
e00002e8:	c8ba                	sw	a4,80(sp)
e00002ea:	cabe                	sw	a5,84(sp)
e00002ec:	ccc2                	sw	a6,88(sp)
e00002ee:	cec6                	sw	a7,92(sp)
  va_start(va, format);
e00002f0:	c622                	sw	s0,12(sp)
  register int pc = 0;
e00002f2:	4b81                	li	s7,0
    if (*format == '%')
e00002f4:	02500493          	li	s1,37
      if (*format == '-')
e00002f8:	02d00913          	li	s2,45
      while (*format == '0')
e00002fc:	03000993          	li	s3,48
        width *= 10;
e0000300:	4a29                	li	s4,10
        pc += qprints (out, s?s:"(null)", width, pad);
e0000302:	00002a97          	auipc	s5,0x2
e0000306:	0f6a8a93          	addi	s5,s5,246 # e00023f8 <main+0x6>
  for (; *format != 0; ++format)
e000030a:	000b4783          	lbu	a5,0(s6)
e000030e:	ef91                	bnez	a5,e000032a <printf+0x62>

  va_end(va);

  return pc;

}
e0000310:	50f2                	lw	ra,60(sp)
e0000312:	5462                	lw	s0,56(sp)
e0000314:	54d2                	lw	s1,52(sp)
e0000316:	5942                	lw	s2,48(sp)
e0000318:	59b2                	lw	s3,44(sp)
e000031a:	5a22                	lw	s4,40(sp)
e000031c:	5a92                	lw	s5,36(sp)
e000031e:	5b02                	lw	s6,32(sp)
e0000320:	4c62                	lw	s8,24(sp)
e0000322:	855e                	mv	a0,s7
e0000324:	4bf2                	lw	s7,28(sp)
e0000326:	6125                	addi	sp,sp,96
e0000328:	8082                	ret
    if (*format == '%')
e000032a:	0e979663          	bne	a5,s1,e0000416 <printf+0x14e>
      if (*format == '\0') break;
e000032e:	001b4683          	lbu	a3,1(s6)
e0000332:	def9                	beqz	a3,e0000310 <printf+0x48>
      ++format;
e0000334:	001b0793          	addi	a5,s6,1
      if (*format == '%') goto out;
e0000338:	0c968e63          	beq	a3,s1,e0000414 <printf+0x14c>
      width = pad = 0;
e000033c:	4701                	li	a4,0
      if (*format == '-')
e000033e:	01269563          	bne	a3,s2,e0000348 <printf+0x80>
        ++format;
e0000342:	002b0793          	addi	a5,s6,2
        pad = PAD_RIGHT;
e0000346:	4705                	li	a4,1
e0000348:	8b3e                	mv	s6,a5
      while (*format == '0')
e000034a:	000b4783          	lbu	a5,0(s6)
        ++format;
e000034e:	001b0693          	addi	a3,s6,1
      while (*format == '0')
e0000352:	03378b63          	beq	a5,s3,e0000388 <printf+0xc0>
      width = pad = 0;
e0000356:	4681                	li	a3,0
      for ( ; *format >= '0' && *format <= '9'; ++format) {
e0000358:	45a5                	li	a1,9
e000035a:	000b4783          	lbu	a5,0(s6)
e000035e:	001b0813          	addi	a6,s6,1
e0000362:	fd078613          	addi	a2,a5,-48
e0000366:	0ff67513          	zext.b	a0,a2
e000036a:	02a5f363          	bgeu	a1,a0,e0000390 <printf+0xc8>
      if( *format == 's' ) {
e000036e:	07300613          	li	a2,115
e0000372:	02c79463          	bne	a5,a2,e000039a <printf+0xd2>
        register char *s = va_arg(va, char*);
e0000376:	4008                	lw	a0,0(s0)
e0000378:	00440c13          	addi	s8,s0,4
        pc += qprints (out, s?s:"(null)", width, pad);
e000037c:	e111                	bnez	a0,e0000380 <printf+0xb8>
e000037e:	8556                	mv	a0,s5
e0000380:	863a                	mv	a2,a4
e0000382:	85b6                	mv	a1,a3
        pc += qprints (out, scr, width, pad);
e0000384:	3b9d                	jal	e00000fa <qprints.constprop.0>
e0000386:	a035                	j	e00003b2 <printf+0xea>
        pad |= PAD_ZERO;
e0000388:	00276713          	ori	a4,a4,2
        ++format;
e000038c:	8b36                	mv	s6,a3
e000038e:	bf75                	j	e000034a <printf+0x82>
        width *= 10;
e0000390:	034686b3          	mul	a3,a3,s4
      for ( ; *format >= '0' && *format <= '9'; ++format) {
e0000394:	8b42                	mv	s6,a6
        width += *format - '0';
e0000396:	96b2                	add	a3,a3,a2
      for ( ; *format >= '0' && *format <= '9'; ++format) {
e0000398:	b7c9                	j	e000035a <printf+0x92>
      if( *format == 'd' ) {
e000039a:	06400613          	li	a2,100
e000039e:	00c79e63          	bne	a5,a2,e00003ba <printf+0xf2>
        pc += qprinti (out, va_arg(va, int), 10, 1, width, pad, 'a');
e00003a2:	00440c13          	addi	s8,s0,4
e00003a6:	06100793          	li	a5,97
e00003aa:	4605                	li	a2,1
e00003ac:	45a9                	li	a1,10
e00003ae:	4008                	lw	a0,0(s0)
e00003b0:	3bc5                	jal	e00001a0 <qprinti.constprop.0>
e00003b2:	9baa                	add	s7,s7,a0
e00003b4:	8462                	mv	s0,s8
  for (; *format != 0; ++format)
e00003b6:	0b05                	addi	s6,s6,1
e00003b8:	bf89                	j	e000030a <printf+0x42>
      if( *format == 'u' ) {
e00003ba:	07500613          	li	a2,117
e00003be:	00c79863          	bne	a5,a2,e00003ce <printf+0x106>
        pc += qprinti (out, va_arg(va, unsigned int), 10, 0, width, pad, 'a');
e00003c2:	00440c13          	addi	s8,s0,4
e00003c6:	06100793          	li	a5,97
e00003ca:	4601                	li	a2,0
e00003cc:	b7c5                	j	e00003ac <printf+0xe4>
      if( *format == 'x' ) {
e00003ce:	07800613          	li	a2,120
e00003d2:	00c79963          	bne	a5,a2,e00003e4 <printf+0x11c>
        pc += qprinti (out, va_arg(va, uint32_t), 16, 0, width, pad, 'a');
e00003d6:	00440c13          	addi	s8,s0,4
e00003da:	06100793          	li	a5,97
        pc += qprinti (out, va_arg(va, uint32_t), 16, 0, width, pad, 'A');
e00003de:	4601                	li	a2,0
e00003e0:	45c1                	li	a1,16
e00003e2:	b7f1                	j	e00003ae <printf+0xe6>
      if( *format == 'X' ) {
e00003e4:	05800613          	li	a2,88
e00003e8:	00c79763          	bne	a5,a2,e00003f6 <printf+0x12e>
        pc += qprinti (out, va_arg(va, uint32_t), 16, 0, width, pad, 'A');
e00003ec:	00440c13          	addi	s8,s0,4
e00003f0:	04100793          	li	a5,65
e00003f4:	b7ed                	j	e00003de <printf+0x116>
      if( *format == 'c' ) {
e00003f6:	06300613          	li	a2,99
e00003fa:	fac79ee3          	bne	a5,a2,e00003b6 <printf+0xee>
        scr[0] = va_arg(va, int);
e00003fe:	401c                	lw	a5,0(s0)
e0000400:	00440c13          	addi	s8,s0,4
        scr[1] = '\0';
e0000404:	000104a3          	sb	zero,9(sp)
        scr[0] = va_arg(va, int);
e0000408:	00f10423          	sb	a5,8(sp)
        pc += qprints (out, scr, width, pad);
e000040c:	863a                	mv	a2,a4
e000040e:	85b6                	mv	a1,a3
e0000410:	0028                	addi	a0,sp,8
e0000412:	bf8d                	j	e0000384 <printf+0xbc>
      ++format;
e0000414:	8b3e                	mv	s6,a5
  uart_sendchar(s);
e0000416:	000b4503          	lbu	a0,0(s6)
      ++pc;
e000041a:	0b85                	addi	s7,s7,1
  uart_sendchar(s);
e000041c:	31f9                	jal	e00000ea <uart_sendchar>
      ++pc;
e000041e:	bf61                	j	e00003b6 <printf+0xee>

e0000420 <simple_exc_handler>:
  printf("EXCEPTION!!!\r\n");
e0000420:	00002517          	auipc	a0,0x2
e0000424:	fe050513          	addi	a0,a0,-32 # e0002400 <main+0xe>
e0000428:	b545                	j	e00002c8 <printf>

e000042a <puts>:

int puts(const char *s)
{
e000042a:	1141                	addi	sp,sp,-16
e000042c:	c422                	sw	s0,8(sp)
e000042e:	c226                	sw	s1,4(sp)
e0000430:	c606                	sw	ra,12(sp)
e0000432:	84aa                	mv	s1,a0
  int i=0;
e0000434:	4401                	li	s0,0

  while(s[i] != '\0')
e0000436:	008487b3          	add	a5,s1,s0
e000043a:	0007c503          	lbu	a0,0(a5)
e000043e:	e909                	bnez	a0,e0000450 <puts+0x26>
  uart_sendchar(s);
e0000440:	4529                	li	a0,10
e0000442:	3165                	jal	e00000ea <uart_sendchar>
    putchar(s[i++]);

  putchar('\n');

  return i;
}
e0000444:	40b2                	lw	ra,12(sp)
e0000446:	8522                	mv	a0,s0
e0000448:	4422                	lw	s0,8(sp)
e000044a:	4492                	lw	s1,4(sp)
e000044c:	0141                	addi	sp,sp,16
e000044e:	8082                	ret
    putchar(s[i++]);
e0000450:	0405                	addi	s0,s0,1
  uart_sendchar(s);
e0000452:	3961                	jal	e00000ea <uart_sendchar>
  return s;
e0000454:	b7cd                	j	e0000436 <puts+0xc>

e0000456 <external_irq_handler>:

void external_irq_handler(void)  {
e0000456:	1101                	addi	sp,sp,-32
e0000458:	c63a                	sw	a4,12(sp)
e000045a:	c43e                	sw	a5,8(sp)
e000045c:	ce2a                	sw	a0,28(sp)
e000045e:	cc2e                	sw	a1,24(sp)
e0000460:	ca32                	sw	a2,20(sp)
e0000462:	c836                	sw	a3,16(sp)
e0000464:	c242                	sw	a6,4(sp)
  p_reg5 = (int *) 0x1040401C;

  // start of """Interrupt Service Routine"""
  
  plic_check = (int *) 0xC8200004;
  while(*plic_check != mbox_id);   //check wether the intr is the correct one
e0000466:	c82007b7          	lui	a5,0xc8200
e000046a:	09f00713          	li	a4,159
e000046e:	43d0                	lw	a2,4(a5)
e0000470:	00478693          	addi	a3,a5,4 # c8200004 <fromhost+0xe81efff4>
e0000474:	fee61de3          	bne	a2,a4,e000046e <external_irq_handler+0x18>
  
  p_reg = (int *) 0x10404020;
 *p_reg = 0x00000000;        //clearing the pending interrupt signal
e0000478:	104047b7          	lui	a5,0x10404
e000047c:	0207a023          	sw	zero,32(a5) # 10404020 <tohost+0x103e4018>
 
 *plic_check = mbox_id;      //completing interrupt
e0000480:	c298                	sw	a4,0(a3)
 
  a = *p_reg1;
e0000482:	4788                	lw	a0,8(a5)
  c = *p_reg3;
  d = *p_reg4;
  e = *p_reg5;
  
  
  if( a == 0xBAADC0DE &&  b == 0xBAADC0DE && c == 0xBAADC0DE && d == 0xBAADC0DE && e == 0xBAADC0DE){
e0000484:	baadc737          	lui	a4,0xbaadc
  b = *p_reg2;
e0000488:	4b8c                	lw	a1,16(a5)
  c = *p_reg3;
e000048a:	4bd0                	lw	a2,20(a5)
  d = *p_reg4;
e000048c:	4f94                	lw	a3,24(a5)
  e = *p_reg5;
e000048e:	01c7a803          	lw	a6,28(a5)
  if( a == 0xBAADC0DE &&  b == 0xBAADC0DE && c == 0xBAADC0DE && d == 0xBAADC0DE && e == 0xBAADC0DE){
e0000492:	0de70713          	addi	a4,a4,222 # baadc0de <fromhost+0xdaacc0ce>
e0000496:	00e51c63          	bne	a0,a4,e00004ae <external_irq_handler+0x58>
e000049a:	00a59a63          	bne	a1,a0,e00004ae <external_irq_handler+0x58>
e000049e:	00b61863          	bne	a2,a1,e00004ae <external_irq_handler+0x58>
e00004a2:	00c69663          	bne	a3,a2,e00004ae <external_irq_handler+0x58>
e00004a6:	00d81463          	bne	a6,a3,e00004ae <external_irq_handler+0x58>
      p_reg = (int *) 0x10404024; // completion interrupt to ariane agent
     *p_reg = 0x00000001;
e00004aa:	4705                	li	a4,1
e00004ac:	d3d8                	sw	a4,36(a5)
  }
  
  return;
}
e00004ae:	4572                	lw	a0,28(sp)
e00004b0:	45e2                	lw	a1,24(sp)
e00004b2:	4652                	lw	a2,20(sp)
e00004b4:	46c2                	lw	a3,16(sp)
e00004b6:	4732                	lw	a4,12(sp)
e00004b8:	47a2                	lw	a5,8(sp)
e00004ba:	4812                	lw	a6,4(sp)
e00004bc:	6105                	addi	sp,sp,32
e00004be:	30200073          	mret

e00004c2 <load_cluster_code>:
         while(p < end) {
          pulp_write32(addr++,pulp_read32(p++));
         }
       #endif
  #else
  (*(volatile unsigned int *)(0x1C000100)) = 0x00000001 ;
e00004c2:	1c0007b7          	lui	a5,0x1c000
e00004c6:	10078713          	addi	a4,a5,256 # 1c000100 <tohost+0x1bfe00f8>
e00004ca:	4685                	li	a3,1
e00004cc:	c314                	sw	a3,0(a4)
  (*(volatile unsigned int *)(0x1C000104)) = 0xFFFFFFFF ;
e00004ce:	10478613          	addi	a2,a5,260
e00004d2:	577d                	li	a4,-1
e00004d4:	c218                	sw	a4,0(a2)
  (*(volatile unsigned int *)(0x1C000108)) = 0x00000000 ;
e00004d6:	10878613          	addi	a2,a5,264
e00004da:	00062023          	sw	zero,0(a2)
  (*(volatile unsigned int *)(0x1C00010C)) = 0x00000001 ;
e00004de:	10c78613          	addi	a2,a5,268
e00004e2:	c214                	sw	a3,0(a2)
  (*(volatile unsigned int *)(0x1C000110)) = 0xFFFFFFFF ;
e00004e4:	11078693          	addi	a3,a5,272
e00004e8:	c298                	sw	a4,0(a3)
  (*(volatile unsigned int *)(0x1C000114)) = 0x00000000 ;
e00004ea:	11478713          	addi	a4,a5,276
e00004ee:	00072023          	sw	zero,0(a4)
  (*(volatile unsigned int *)(0x1C000118)) = 0x00000000 ;
e00004f2:	11878713          	addi	a4,a5,280
e00004f6:	00072023          	sw	zero,0(a4)
  (*(volatile unsigned int *)(0x1C00011C)) = 0x00000000 ;
e00004fa:	11c78713          	addi	a4,a5,284
e00004fe:	00072023          	sw	zero,0(a4)
  (*(volatile unsigned int *)(0x1C000120)) = 0x00000000 ;
e0000502:	12078713          	addi	a4,a5,288
e0000506:	00072023          	sw	zero,0(a4)
  (*(volatile unsigned int *)(0x1C000124)) = 0x00000000 ;
e000050a:	12478713          	addi	a4,a5,292
e000050e:	00072023          	sw	zero,0(a4)
  (*(volatile unsigned int *)(0x1C000128)) = 0x00000000 ;
e0000512:	12878713          	addi	a4,a5,296
e0000516:	00072023          	sw	zero,0(a4)
  (*(volatile unsigned int *)(0x1C00012C)) = 0x00000000 ;
e000051a:	12c78713          	addi	a4,a5,300
e000051e:	00072023          	sw	zero,0(a4)
  (*(volatile unsigned int *)(0x1C000130)) = 0x00000000 ;
e0000522:	13078713          	addi	a4,a5,304
e0000526:	00072023          	sw	zero,0(a4)
  (*(volatile unsigned int *)(0x1C000134)) = 0x00000000 ;
e000052a:	13478713          	addi	a4,a5,308
e000052e:	00072023          	sw	zero,0(a4)
  (*(volatile unsigned int *)(0x1C000138)) = 0x00000000 ;
e0000532:	13878713          	addi	a4,a5,312
e0000536:	00072023          	sw	zero,0(a4)
  (*(volatile unsigned int *)(0x1C00013C)) = 0x00000000 ;
e000053a:	13c78713          	addi	a4,a5,316
e000053e:	00072023          	sw	zero,0(a4)
  (*(volatile unsigned int *)(0x1C000140)) = 0x00000000 ;
e0000542:	14078713          	addi	a4,a5,320
e0000546:	00072023          	sw	zero,0(a4)
  (*(volatile unsigned int *)(0x1C000144)) = 0x00000000 ;
e000054a:	14478713          	addi	a4,a5,324
e000054e:	00072023          	sw	zero,0(a4)
  (*(volatile unsigned int *)(0x1C000148)) = 0x00000000 ;
e0000552:	14878713          	addi	a4,a5,328
e0000556:	00072023          	sw	zero,0(a4)
  (*(volatile unsigned int *)(0x1C00014C)) = 0x00000000 ;
e000055a:	14c78713          	addi	a4,a5,332
e000055e:	00072023          	sw	zero,0(a4)
  (*(volatile unsigned int *)(0x1C000150)) = 0x00000000 ;
e0000562:	15078713          	addi	a4,a5,336
e0000566:	00072023          	sw	zero,0(a4)
  (*(volatile unsigned int *)(0x1C000154)) = 0x00000000 ;
e000056a:	15478713          	addi	a4,a5,340
e000056e:	00072023          	sw	zero,0(a4)
  (*(volatile unsigned int *)(0x1C000158)) = 0x00000000 ;
e0000572:	15878713          	addi	a4,a5,344
e0000576:	00072023          	sw	zero,0(a4)
  (*(volatile unsigned int *)(0x1C00015C)) = 0x00000000 ;
e000057a:	15c78713          	addi	a4,a5,348
e000057e:	00072023          	sw	zero,0(a4)
  (*(volatile unsigned int *)(0x1C000160)) = 0x00000000 ;
e0000582:	16078713          	addi	a4,a5,352
e0000586:	00072023          	sw	zero,0(a4)
  (*(volatile unsigned int *)(0x1C000164)) = 0x00000000 ;
e000058a:	16478713          	addi	a4,a5,356
e000058e:	00072023          	sw	zero,0(a4)
  (*(volatile unsigned int *)(0x1C000168)) = 0x00000000 ;
e0000592:	16878713          	addi	a4,a5,360
e0000596:	00072023          	sw	zero,0(a4)
  (*(volatile unsigned int *)(0x1C00016C)) = 0x00000000 ;
e000059a:	16c78713          	addi	a4,a5,364
e000059e:	00072023          	sw	zero,0(a4)
  (*(volatile unsigned int *)(0x1C000170)) = 0x00000000 ;
e00005a2:	17078713          	addi	a4,a5,368
e00005a6:	00072023          	sw	zero,0(a4)
  (*(volatile unsigned int *)(0x1C000174)) = 0x00000000 ;
e00005aa:	17478713          	addi	a4,a5,372
e00005ae:	00072023          	sw	zero,0(a4)
  (*(volatile unsigned int *)(0x1C000178)) = 0x00000000 ;
e00005b2:	17878713          	addi	a4,a5,376
e00005b6:	00072023          	sw	zero,0(a4)
  (*(volatile unsigned int *)(0x1C00017C)) = 0x00000000 ;
e00005ba:	17c78713          	addi	a4,a5,380
e00005be:	00072023          	sw	zero,0(a4)
  (*(volatile unsigned int *)(0x1C000180)) = 0x00000000 ;
e00005c2:	18078713          	addi	a4,a5,384
e00005c6:	00072023          	sw	zero,0(a4)
  (*(volatile unsigned int *)(0x1C000184)) = 0x00000000 ;
e00005ca:	18478713          	addi	a4,a5,388
e00005ce:	00072023          	sw	zero,0(a4)
  (*(volatile unsigned int *)(0x1C000188)) = 0x00000000 ;
e00005d2:	18878713          	addi	a4,a5,392
e00005d6:	00072023          	sw	zero,0(a4)
  (*(volatile unsigned int *)(0x1C00018C)) = 0x00000000 ;
e00005da:	18c78713          	addi	a4,a5,396
e00005de:	00072023          	sw	zero,0(a4)
  (*(volatile unsigned int *)(0x1C000190)) = 0x00000000 ;
e00005e2:	19078713          	addi	a4,a5,400
e00005e6:	00072023          	sw	zero,0(a4)
  (*(volatile unsigned int *)(0x1C000194)) = 0x00000000 ;
e00005ea:	19478713          	addi	a4,a5,404
e00005ee:	00072023          	sw	zero,0(a4)
  (*(volatile unsigned int *)(0x1C000198)) = 0x00000000 ;
e00005f2:	19878713          	addi	a4,a5,408
e00005f6:	00072023          	sw	zero,0(a4)
  (*(volatile unsigned int *)(0x1C00019C)) = 0x00000000 ;
e00005fa:	19c78713          	addi	a4,a5,412
e00005fe:	00072023          	sw	zero,0(a4)
  (*(volatile unsigned int *)(0x1C0001A0)) = 0x00000000 ;
e0000602:	1a078713          	addi	a4,a5,416
e0000606:	00072023          	sw	zero,0(a4)
  (*(volatile unsigned int *)(0x1C0001A4)) = 0x00000000 ;
e000060a:	1a478713          	addi	a4,a5,420
e000060e:	00072023          	sw	zero,0(a4)
  (*(volatile unsigned int *)(0x1C0001A8)) = 0x00000000 ;
e0000612:	1a878713          	addi	a4,a5,424
e0000616:	00072023          	sw	zero,0(a4)
  (*(volatile unsigned int *)(0x1C0001AC)) = 0x00000000 ;
e000061a:	1ac78713          	addi	a4,a5,428
e000061e:	00072023          	sw	zero,0(a4)
  (*(volatile unsigned int *)(0x1C0001B0)) = 0x00000000 ;
e0000622:	1b078713          	addi	a4,a5,432
e0000626:	00072023          	sw	zero,0(a4)
  (*(volatile unsigned int *)(0x1C0001B4)) = 0x00000000 ;
e000062a:	1b478713          	addi	a4,a5,436
e000062e:	00072023          	sw	zero,0(a4)
  (*(volatile unsigned int *)(0x1C0001B8)) = 0x00000000 ;
e0000632:	1b878713          	addi	a4,a5,440
e0000636:	00072023          	sw	zero,0(a4)
  (*(volatile unsigned int *)(0x1C0001BC)) = 0x00000000 ;
e000063a:	1bc78713          	addi	a4,a5,444
e000063e:	00072023          	sw	zero,0(a4)
  (*(volatile unsigned int *)(0x1C0001C0)) = 0x00000000 ;
e0000642:	1c078713          	addi	a4,a5,448
e0000646:	00072023          	sw	zero,0(a4)
  (*(volatile unsigned int *)(0x1C0001C4)) = 0x00000000 ;
e000064a:	1c478713          	addi	a4,a5,452
e000064e:	00072023          	sw	zero,0(a4)
  (*(volatile unsigned int *)(0x1C0001C8)) = 0x00000000 ;
e0000652:	1c878713          	addi	a4,a5,456
e0000656:	00072023          	sw	zero,0(a4)
  (*(volatile unsigned int *)(0x1C0001CC)) = 0x00000000 ;
e000065a:	1cc78713          	addi	a4,a5,460
e000065e:	00072023          	sw	zero,0(a4)
  (*(volatile unsigned int *)(0x1C0001D0)) = 0x00000000 ;
e0000662:	1d078713          	addi	a4,a5,464
e0000666:	00072023          	sw	zero,0(a4)
  (*(volatile unsigned int *)(0x1C0001D4)) = 0x00000000 ;
e000066a:	1d478713          	addi	a4,a5,468
e000066e:	00072023          	sw	zero,0(a4)
  (*(volatile unsigned int *)(0x1C0001D8)) = 0x00000000 ;
e0000672:	1d878713          	addi	a4,a5,472
e0000676:	00072023          	sw	zero,0(a4)
  (*(volatile unsigned int *)(0x1C0001DC)) = 0x00000000 ;
e000067a:	1dc78713          	addi	a4,a5,476
e000067e:	00072023          	sw	zero,0(a4)
  (*(volatile unsigned int *)(0x1C0001E0)) = 0x00000000 ;
e0000682:	1e078713          	addi	a4,a5,480
e0000686:	00072023          	sw	zero,0(a4)
  (*(volatile unsigned int *)(0x1C0001E4)) = 0x00000000 ;
e000068a:	1e478713          	addi	a4,a5,484
e000068e:	00072023          	sw	zero,0(a4)
  (*(volatile unsigned int *)(0x1C0001E8)) = 0x00000000 ;
e0000692:	1e878713          	addi	a4,a5,488
e0000696:	00072023          	sw	zero,0(a4)
  (*(volatile unsigned int *)(0x1C0001EC)) = 0x00000000 ;
e000069a:	1ec78713          	addi	a4,a5,492
e000069e:	00072023          	sw	zero,0(a4)
  (*(volatile unsigned int *)(0x1C0001F0)) = 0x00000000 ;
e00006a2:	1f078713          	addi	a4,a5,496
e00006a6:	00072023          	sw	zero,0(a4)
  (*(volatile unsigned int *)(0x1C0001F4)) = 0x00000000 ;
e00006aa:	1f478713          	addi	a4,a5,500
e00006ae:	00072023          	sw	zero,0(a4)
  (*(volatile unsigned int *)(0x1C0001F8)) = 0x00000000 ;
e00006b2:	1f878713          	addi	a4,a5,504
e00006b6:	00072023          	sw	zero,0(a4)
  (*(volatile unsigned int *)(0x1C0001FC)) = 0x00000000 ;
e00006ba:	1fc78713          	addi	a4,a5,508
e00006be:	00072023          	sw	zero,0(a4)
  (*(volatile unsigned int *)(0x1C000200)) = 0x00000000 ;
e00006c2:	20078713          	addi	a4,a5,512
e00006c6:	00072023          	sw	zero,0(a4)
  (*(volatile unsigned int *)(0x1C000204)) = 0x00000000 ;
e00006ca:	20478713          	addi	a4,a5,516
e00006ce:	00072023          	sw	zero,0(a4)
  (*(volatile unsigned int *)(0x1C000208)) = 0x00000000 ;
e00006d2:	20878713          	addi	a4,a5,520
e00006d6:	00072023          	sw	zero,0(a4)
  (*(volatile unsigned int *)(0x1C00020C)) = 0x00000000 ;
e00006da:	20c78713          	addi	a4,a5,524
e00006de:	00072023          	sw	zero,0(a4)
  (*(volatile unsigned int *)(0x1C000210)) = 0x00000000 ;
e00006e2:	21078713          	addi	a4,a5,528
e00006e6:	00072023          	sw	zero,0(a4)
  (*(volatile unsigned int *)(0x1C000214)) = 0x00000000 ;
e00006ea:	21478713          	addi	a4,a5,532
e00006ee:	00072023          	sw	zero,0(a4)
  (*(volatile unsigned int *)(0x1C000218)) = 0x00000000 ;
e00006f2:	21878713          	addi	a4,a5,536
e00006f6:	00072023          	sw	zero,0(a4)
  (*(volatile unsigned int *)(0x1C00021C)) = 0x00000000 ;
e00006fa:	21c78713          	addi	a4,a5,540
e00006fe:	00072023          	sw	zero,0(a4)
  (*(volatile unsigned int *)(0x1C000220)) = 0x00000000 ;
e0000702:	22078713          	addi	a4,a5,544
e0000706:	00072023          	sw	zero,0(a4)
  (*(volatile unsigned int *)(0x1C000224)) = 0x00000000 ;
e000070a:	22478713          	addi	a4,a5,548
e000070e:	00072023          	sw	zero,0(a4)
  (*(volatile unsigned int *)(0x1C000228)) = 0x00000000 ;
e0000712:	22878713          	addi	a4,a5,552
e0000716:	00072023          	sw	zero,0(a4)
  (*(volatile unsigned int *)(0x1C00022C)) = 0x00000000 ;
e000071a:	22c78713          	addi	a4,a5,556
e000071e:	00072023          	sw	zero,0(a4)
  (*(volatile unsigned int *)(0x1C000230)) = 0x00000000 ;
e0000722:	23078713          	addi	a4,a5,560
e0000726:	00072023          	sw	zero,0(a4)
  (*(volatile unsigned int *)(0x1C000234)) = 0x00000000 ;
e000072a:	23478713          	addi	a4,a5,564
e000072e:	00072023          	sw	zero,0(a4)
  (*(volatile unsigned int *)(0x1C000238)) = 0x00000000 ;
e0000732:	23878713          	addi	a4,a5,568
e0000736:	00072023          	sw	zero,0(a4)
  (*(volatile unsigned int *)(0x1C00023C)) = 0x00000000 ;
e000073a:	23c78713          	addi	a4,a5,572
e000073e:	00072023          	sw	zero,0(a4)
  (*(volatile unsigned int *)(0x1C000240)) = 0x00000000 ;
e0000742:	24078713          	addi	a4,a5,576
e0000746:	00072023          	sw	zero,0(a4)
  (*(volatile unsigned int *)(0x1C000244)) = 0x00000000 ;
e000074a:	24478713          	addi	a4,a5,580
e000074e:	00072023          	sw	zero,0(a4)
  (*(volatile unsigned int *)(0x1C000248)) = 0x00000000 ;
e0000752:	24878713          	addi	a4,a5,584
e0000756:	00072023          	sw	zero,0(a4)
  (*(volatile unsigned int *)(0x1C00024C)) = 0x00000000 ;
e000075a:	24c78713          	addi	a4,a5,588
e000075e:	00072023          	sw	zero,0(a4)
  (*(volatile unsigned int *)(0x1C000250)) = 0x00000000 ;
e0000762:	25078713          	addi	a4,a5,592
e0000766:	00072023          	sw	zero,0(a4)
  (*(volatile unsigned int *)(0x1C000254)) = 0x00000000 ;
e000076a:	25478713          	addi	a4,a5,596
e000076e:	00072023          	sw	zero,0(a4)
  (*(volatile unsigned int *)(0x1C000258)) = 0x00000000 ;
e0000772:	25878713          	addi	a4,a5,600
e0000776:	00072023          	sw	zero,0(a4)
  (*(volatile unsigned int *)(0x1C00025C)) = 0x00000000 ;
e000077a:	25c78713          	addi	a4,a5,604
e000077e:	00072023          	sw	zero,0(a4)
  (*(volatile unsigned int *)(0x1C000260)) = 0x00000000 ;
e0000782:	26078713          	addi	a4,a5,608
e0000786:	00072023          	sw	zero,0(a4)
  (*(volatile unsigned int *)(0x1C000264)) = 0x00000000 ;
e000078a:	26478713          	addi	a4,a5,612
e000078e:	00072023          	sw	zero,0(a4)
  (*(volatile unsigned int *)(0x1C000268)) = 0x00000000 ;
e0000792:	26878713          	addi	a4,a5,616
e0000796:	00072023          	sw	zero,0(a4)
  (*(volatile unsigned int *)(0x1C00026C)) = 0x00000000 ;
e000079a:	26c78713          	addi	a4,a5,620
e000079e:	00072023          	sw	zero,0(a4)
  (*(volatile unsigned int *)(0x1C000270)) = 0x00000000 ;
e00007a2:	27078713          	addi	a4,a5,624
e00007a6:	00072023          	sw	zero,0(a4)
  (*(volatile unsigned int *)(0x1C000274)) = 0x00000000 ;
e00007aa:	27478713          	addi	a4,a5,628
e00007ae:	00072023          	sw	zero,0(a4)
  (*(volatile unsigned int *)(0x1C000278)) = 0x00000000 ;
e00007b2:	27878713          	addi	a4,a5,632
e00007b6:	00072023          	sw	zero,0(a4)
  (*(volatile unsigned int *)(0x1C00027C)) = 0x00000000 ;
e00007ba:	27c78713          	addi	a4,a5,636
e00007be:	00072023          	sw	zero,0(a4)
  (*(volatile unsigned int *)(0x1C000280)) = 0x00000000 ;
e00007c2:	28078713          	addi	a4,a5,640
e00007c6:	00072023          	sw	zero,0(a4)
  (*(volatile unsigned int *)(0x1C000284)) = 0x00000000 ;
e00007ca:	28478713          	addi	a4,a5,644
e00007ce:	00072023          	sw	zero,0(a4)
  (*(volatile unsigned int *)(0x1C000288)) = 0x00000000 ;
e00007d2:	28878713          	addi	a4,a5,648
e00007d6:	00072023          	sw	zero,0(a4)
  (*(volatile unsigned int *)(0x1C00028C)) = 0x00000000 ;
e00007da:	28c78713          	addi	a4,a5,652
e00007de:	00072023          	sw	zero,0(a4)
  (*(volatile unsigned int *)(0x1C000290)) = 0x00000000 ;
e00007e2:	29078713          	addi	a4,a5,656
e00007e6:	00072023          	sw	zero,0(a4)
  (*(volatile unsigned int *)(0x1C000294)) = 0x00000000 ;
e00007ea:	29478713          	addi	a4,a5,660
e00007ee:	00072023          	sw	zero,0(a4)
  (*(volatile unsigned int *)(0x1C000298)) = 0x00000000 ;
e00007f2:	29878713          	addi	a4,a5,664
e00007f6:	00072023          	sw	zero,0(a4)
  (*(volatile unsigned int *)(0x1C00029C)) = 0x00000000 ;
e00007fa:	29c78713          	addi	a4,a5,668
e00007fe:	00072023          	sw	zero,0(a4)
  (*(volatile unsigned int *)(0x1C0002A0)) = 0x00000000 ;
e0000802:	2a078713          	addi	a4,a5,672
e0000806:	00072023          	sw	zero,0(a4)
  (*(volatile unsigned int *)(0x1C0002A4)) = 0x00000000 ;
e000080a:	2a478713          	addi	a4,a5,676
e000080e:	00072023          	sw	zero,0(a4)
  (*(volatile unsigned int *)(0x1C0002A8)) = 0x00000000 ;
e0000812:	2a878713          	addi	a4,a5,680
e0000816:	00072023          	sw	zero,0(a4)
  (*(volatile unsigned int *)(0x1C0002AC)) = 0x00000000 ;
e000081a:	2ac78713          	addi	a4,a5,684
e000081e:	00072023          	sw	zero,0(a4)
  (*(volatile unsigned int *)(0x1C0002B0)) = 0x00000000 ;
e0000822:	2b078713          	addi	a4,a5,688
e0000826:	00072023          	sw	zero,0(a4)
  (*(volatile unsigned int *)(0x1C0002B4)) = 0x00000000 ;
e000082a:	2b478713          	addi	a4,a5,692
e000082e:	00072023          	sw	zero,0(a4)
  (*(volatile unsigned int *)(0x1C0002B8)) = 0x00000000 ;
e0000832:	2b878713          	addi	a4,a5,696
e0000836:	00072023          	sw	zero,0(a4)
  (*(volatile unsigned int *)(0x1C0002BC)) = 0x00000000 ;
e000083a:	2bc78713          	addi	a4,a5,700
e000083e:	00072023          	sw	zero,0(a4)
  (*(volatile unsigned int *)(0x1C0002C0)) = 0x00000000 ;
e0000842:	2c078713          	addi	a4,a5,704
e0000846:	00072023          	sw	zero,0(a4)
  (*(volatile unsigned int *)(0x1C0002C4)) = 0x00000000 ;
e000084a:	2c478713          	addi	a4,a5,708
e000084e:	00072023          	sw	zero,0(a4)
  (*(volatile unsigned int *)(0x1C0002C8)) = 0x00000000 ;
e0000852:	2c878713          	addi	a4,a5,712
e0000856:	00072023          	sw	zero,0(a4)
  (*(volatile unsigned int *)(0x1C0002CC)) = 0x00000000 ;
e000085a:	2cc78713          	addi	a4,a5,716
e000085e:	00072023          	sw	zero,0(a4)
  (*(volatile unsigned int *)(0x1C0002D0)) = 0x00000000 ;
e0000862:	2d078713          	addi	a4,a5,720
e0000866:	00072023          	sw	zero,0(a4)
  (*(volatile unsigned int *)(0x1C0002D4)) = 0x00000000 ;
e000086a:	2d478713          	addi	a4,a5,724
e000086e:	00072023          	sw	zero,0(a4)
  (*(volatile unsigned int *)(0x1C0002D8)) = 0x00000000 ;
e0000872:	2d878713          	addi	a4,a5,728
e0000876:	00072023          	sw	zero,0(a4)
  (*(volatile unsigned int *)(0x1C0002DC)) = 0x00000000 ;
e000087a:	2dc78713          	addi	a4,a5,732
e000087e:	00072023          	sw	zero,0(a4)
  (*(volatile unsigned int *)(0x1C0002E0)) = 0x00000000 ;
e0000882:	2e078713          	addi	a4,a5,736
e0000886:	00072023          	sw	zero,0(a4)
  (*(volatile unsigned int *)(0x1C0002E4)) = 0x00000000 ;
e000088a:	2e478713          	addi	a4,a5,740
e000088e:	00072023          	sw	zero,0(a4)
  (*(volatile unsigned int *)(0x1C0002E8)) = 0x00000000 ;
e0000892:	2e878713          	addi	a4,a5,744
e0000896:	00072023          	sw	zero,0(a4)
  (*(volatile unsigned int *)(0x1C0002EC)) = 0x00000000 ;
e000089a:	2ec78713          	addi	a4,a5,748
e000089e:	00072023          	sw	zero,0(a4)
  (*(volatile unsigned int *)(0x1C0002F0)) = 0x00000000 ;
e00008a2:	2f078713          	addi	a4,a5,752
e00008a6:	00072023          	sw	zero,0(a4)
  (*(volatile unsigned int *)(0x1C0002F4)) = 0x00000000 ;
e00008aa:	2f478713          	addi	a4,a5,756
e00008ae:	00072023          	sw	zero,0(a4)
  (*(volatile unsigned int *)(0x1C0002F8)) = 0x00000000 ;
e00008b2:	2f878713          	addi	a4,a5,760
e00008b6:	00072023          	sw	zero,0(a4)
  (*(volatile unsigned int *)(0x1C0002FC)) = 0x00000000 ;
e00008ba:	2fc78713          	addi	a4,a5,764
e00008be:	00072023          	sw	zero,0(a4)
  (*(volatile unsigned int *)(0x1C000300)) = 0x00000000 ;
e00008c2:	30078713          	addi	a4,a5,768
e00008c6:	00072023          	sw	zero,0(a4)
  (*(volatile unsigned int *)(0x1C000304)) = 0x00000000 ;
e00008ca:	30478713          	addi	a4,a5,772
e00008ce:	00072023          	sw	zero,0(a4)
  (*(volatile unsigned int *)(0x1C000308)) = 0x00000000 ;
e00008d2:	30878713          	addi	a4,a5,776
e00008d6:	00072023          	sw	zero,0(a4)
  (*(volatile unsigned int *)(0x1C00030C)) = 0x00000000 ;
e00008da:	30c78713          	addi	a4,a5,780
e00008de:	00072023          	sw	zero,0(a4)
  (*(volatile unsigned int *)(0x1C000310)) = 0x00000000 ;
e00008e2:	31078713          	addi	a4,a5,784
e00008e6:	00072023          	sw	zero,0(a4)
  (*(volatile unsigned int *)(0x1C000314)) = 0x00000000 ;
e00008ea:	31478713          	addi	a4,a5,788
e00008ee:	00072023          	sw	zero,0(a4)
  (*(volatile unsigned int *)(0x1C000318)) = 0x00000000 ;
e00008f2:	31878713          	addi	a4,a5,792
e00008f6:	00072023          	sw	zero,0(a4)
  (*(volatile unsigned int *)(0x1C00031C)) = 0x00000000 ;
e00008fa:	31c78713          	addi	a4,a5,796
e00008fe:	00072023          	sw	zero,0(a4)
  (*(volatile unsigned int *)(0x1C000320)) = 0x00000000 ;
e0000902:	32078713          	addi	a4,a5,800
e0000906:	00072023          	sw	zero,0(a4)
  (*(volatile unsigned int *)(0x1C000324)) = 0x00000000 ;
e000090a:	32478713          	addi	a4,a5,804
e000090e:	00072023          	sw	zero,0(a4)
  (*(volatile unsigned int *)(0x1C000328)) = 0x00000000 ;
e0000912:	32878713          	addi	a4,a5,808
e0000916:	00072023          	sw	zero,0(a4)
  (*(volatile unsigned int *)(0x1C00032C)) = 0x00000000 ;
e000091a:	32c78713          	addi	a4,a5,812
e000091e:	00072023          	sw	zero,0(a4)
  (*(volatile unsigned int *)(0x1C000330)) = 0x00000000 ;
e0000922:	33078713          	addi	a4,a5,816
e0000926:	00072023          	sw	zero,0(a4)
  (*(volatile unsigned int *)(0x1C000334)) = 0x00000000 ;
e000092a:	33478713          	addi	a4,a5,820
e000092e:	00072023          	sw	zero,0(a4)
  (*(volatile unsigned int *)(0x1C000338)) = 0x00000000 ;
e0000932:	33878713          	addi	a4,a5,824
e0000936:	00072023          	sw	zero,0(a4)
  (*(volatile unsigned int *)(0x1C00033C)) = 0x00000000 ;
e000093a:	33c78713          	addi	a4,a5,828
e000093e:	00072023          	sw	zero,0(a4)
  (*(volatile unsigned int *)(0x1C000340)) = 0x00000000 ;
e0000942:	34078713          	addi	a4,a5,832
e0000946:	00072023          	sw	zero,0(a4)
  (*(volatile unsigned int *)(0x1C000344)) = 0x00000000 ;
e000094a:	34478713          	addi	a4,a5,836
e000094e:	00072023          	sw	zero,0(a4)
  (*(volatile unsigned int *)(0x1C000348)) = 0x00000000 ;
e0000952:	34878713          	addi	a4,a5,840
e0000956:	00072023          	sw	zero,0(a4)
  (*(volatile unsigned int *)(0x1C00034C)) = 0x00000000 ;
e000095a:	34c78713          	addi	a4,a5,844
e000095e:	00072023          	sw	zero,0(a4)
  (*(volatile unsigned int *)(0x1C000350)) = 0x00000000 ;
e0000962:	35078713          	addi	a4,a5,848
e0000966:	00072023          	sw	zero,0(a4)
  (*(volatile unsigned int *)(0x1C000354)) = 0x00000000 ;
e000096a:	35478713          	addi	a4,a5,852
e000096e:	00072023          	sw	zero,0(a4)
  (*(volatile unsigned int *)(0x1C000358)) = 0x00000000 ;
e0000972:	35878713          	addi	a4,a5,856
e0000976:	00072023          	sw	zero,0(a4)
  (*(volatile unsigned int *)(0x1C00035C)) = 0x00000000 ;
e000097a:	35c78713          	addi	a4,a5,860
e000097e:	00072023          	sw	zero,0(a4)
  (*(volatile unsigned int *)(0x1C000360)) = 0x00000000 ;
e0000982:	36078713          	addi	a4,a5,864
e0000986:	00072023          	sw	zero,0(a4)
  (*(volatile unsigned int *)(0x1C000364)) = 0x00000000 ;
e000098a:	36478713          	addi	a4,a5,868
e000098e:	00072023          	sw	zero,0(a4)
  (*(volatile unsigned int *)(0x1C000368)) = 0x00000000 ;
e0000992:	36878713          	addi	a4,a5,872
e0000996:	00072023          	sw	zero,0(a4)
  (*(volatile unsigned int *)(0x1C00036C)) = 0x00000000 ;
e000099a:	36c78713          	addi	a4,a5,876
e000099e:	00072023          	sw	zero,0(a4)
  (*(volatile unsigned int *)(0x1C000370)) = 0x00000000 ;
e00009a2:	37078713          	addi	a4,a5,880
e00009a6:	00072023          	sw	zero,0(a4)
  (*(volatile unsigned int *)(0x1C000374)) = 0x00000000 ;
e00009aa:	37478713          	addi	a4,a5,884
e00009ae:	00072023          	sw	zero,0(a4)
  (*(volatile unsigned int *)(0x1C000378)) = 0x00000000 ;
e00009b2:	37878713          	addi	a4,a5,888
e00009b6:	00072023          	sw	zero,0(a4)
  (*(volatile unsigned int *)(0x1C00037C)) = 0x00000000 ;
e00009ba:	37c78713          	addi	a4,a5,892
e00009be:	00072023          	sw	zero,0(a4)
  (*(volatile unsigned int *)(0x1C000380)) = 0x00000000 ;
e00009c2:	38078713          	addi	a4,a5,896
e00009c6:	00072023          	sw	zero,0(a4)
  (*(volatile unsigned int *)(0x1C000384)) = 0x00000000 ;
e00009ca:	38478713          	addi	a4,a5,900
e00009ce:	00072023          	sw	zero,0(a4)
  (*(volatile unsigned int *)(0x1C000388)) = 0x00000000 ;
e00009d2:	38878713          	addi	a4,a5,904
e00009d6:	00072023          	sw	zero,0(a4)
  (*(volatile unsigned int *)(0x1C00038C)) = 0x00000000 ;
e00009da:	38c78713          	addi	a4,a5,908
e00009de:	00072023          	sw	zero,0(a4)
  (*(volatile unsigned int *)(0x1C000390)) = 0x00000000 ;
e00009e2:	39078713          	addi	a4,a5,912
e00009e6:	00072023          	sw	zero,0(a4)
  (*(volatile unsigned int *)(0x1C000394)) = 0x00000000 ;
e00009ea:	39478713          	addi	a4,a5,916
e00009ee:	00072023          	sw	zero,0(a4)
  (*(volatile unsigned int *)(0x1C000398)) = 0x00000000 ;
e00009f2:	39878713          	addi	a4,a5,920
e00009f6:	00072023          	sw	zero,0(a4)
  (*(volatile unsigned int *)(0x1C00039C)) = 0x00000000 ;
e00009fa:	39c78713          	addi	a4,a5,924
e00009fe:	00072023          	sw	zero,0(a4)
  (*(volatile unsigned int *)(0x1C0003A0)) = 0x00000000 ;
e0000a02:	3a078713          	addi	a4,a5,928
e0000a06:	00072023          	sw	zero,0(a4)
  (*(volatile unsigned int *)(0x1C0003A4)) = 0x00000000 ;
e0000a0a:	3a478713          	addi	a4,a5,932
e0000a0e:	00072023          	sw	zero,0(a4)
  (*(volatile unsigned int *)(0x1C0003A8)) = 0x00000000 ;
e0000a12:	3a878713          	addi	a4,a5,936
e0000a16:	00072023          	sw	zero,0(a4)
  (*(volatile unsigned int *)(0x1C0003AC)) = 0x00000000 ;
e0000a1a:	3ac78713          	addi	a4,a5,940
e0000a1e:	00072023          	sw	zero,0(a4)
  (*(volatile unsigned int *)(0x1C0003B0)) = 0x00000000 ;
e0000a22:	3b078713          	addi	a4,a5,944
e0000a26:	00072023          	sw	zero,0(a4)
  (*(volatile unsigned int *)(0x1C0003B4)) = 0x00000000 ;
e0000a2a:	3b478713          	addi	a4,a5,948
e0000a2e:	00072023          	sw	zero,0(a4)
  (*(volatile unsigned int *)(0x1C0003B8)) = 0x00000000 ;
e0000a32:	3b878713          	addi	a4,a5,952
e0000a36:	00072023          	sw	zero,0(a4)
  (*(volatile unsigned int *)(0x1C0003BC)) = 0x00000000 ;
e0000a3a:	3bc78713          	addi	a4,a5,956
e0000a3e:	00072023          	sw	zero,0(a4)
  (*(volatile unsigned int *)(0x1C0003C0)) = 0x00000000 ;
e0000a42:	3c078713          	addi	a4,a5,960
e0000a46:	00072023          	sw	zero,0(a4)
  (*(volatile unsigned int *)(0x1C0003C4)) = 0x00000000 ;
e0000a4a:	3c478713          	addi	a4,a5,964
e0000a4e:	00072023          	sw	zero,0(a4)
  (*(volatile unsigned int *)(0x1C0003C8)) = 0x00000000 ;
e0000a52:	3c878713          	addi	a4,a5,968
e0000a56:	00072023          	sw	zero,0(a4)
  (*(volatile unsigned int *)(0x1C0003CC)) = 0x00000000 ;
e0000a5a:	3cc78713          	addi	a4,a5,972
e0000a5e:	00072023          	sw	zero,0(a4)
  (*(volatile unsigned int *)(0x1C0003D0)) = 0x00000000 ;
e0000a62:	3d078713          	addi	a4,a5,976
e0000a66:	00072023          	sw	zero,0(a4)
  (*(volatile unsigned int *)(0x1C0003D4)) = 0x00000000 ;
e0000a6a:	3d478713          	addi	a4,a5,980
e0000a6e:	00072023          	sw	zero,0(a4)
  (*(volatile unsigned int *)(0x1C0003D8)) = 0x00000000 ;
e0000a72:	3d878713          	addi	a4,a5,984
e0000a76:	00072023          	sw	zero,0(a4)
  (*(volatile unsigned int *)(0x1C0003DC)) = 0x00000000 ;
e0000a7a:	3dc78713          	addi	a4,a5,988
e0000a7e:	00072023          	sw	zero,0(a4)
  (*(volatile unsigned int *)(0x1C0003E0)) = 0x00000000 ;
e0000a82:	3e078713          	addi	a4,a5,992
e0000a86:	00072023          	sw	zero,0(a4)
  (*(volatile unsigned int *)(0x1C0003E4)) = 0x00000000 ;
e0000a8a:	3e478713          	addi	a4,a5,996
e0000a8e:	00072023          	sw	zero,0(a4)
  (*(volatile unsigned int *)(0x1C0003E8)) = 0x00000000 ;
e0000a92:	3e878713          	addi	a4,a5,1000
e0000a96:	00072023          	sw	zero,0(a4)
  (*(volatile unsigned int *)(0x1C0003EC)) = 0x00000000 ;
e0000a9a:	3ec78713          	addi	a4,a5,1004
e0000a9e:	00072023          	sw	zero,0(a4)
  (*(volatile unsigned int *)(0x1C0003F0)) = 0x00000000 ;
e0000aa2:	3f078713          	addi	a4,a5,1008
e0000aa6:	00072023          	sw	zero,0(a4)
  (*(volatile unsigned int *)(0x1C0003F4)) = 0x00000000 ;
e0000aaa:	3f478713          	addi	a4,a5,1012
e0000aae:	00072023          	sw	zero,0(a4)
  (*(volatile unsigned int *)(0x1C0003F8)) = 0x00000000 ;
e0000ab2:	3f878713          	addi	a4,a5,1016
e0000ab6:	00072023          	sw	zero,0(a4)
  (*(volatile unsigned int *)(0x1C0003FC)) = 0x00000000 ;
e0000aba:	3fc78713          	addi	a4,a5,1020
e0000abe:	00072023          	sw	zero,0(a4)
  (*(volatile unsigned int *)(0x1C000400)) = 0x00000000 ;
e0000ac2:	40078713          	addi	a4,a5,1024
e0000ac6:	00072023          	sw	zero,0(a4)
  (*(volatile unsigned int *)(0x1C000404)) = 0x00000000 ;
e0000aca:	40478713          	addi	a4,a5,1028
e0000ace:	00072023          	sw	zero,0(a4)
  (*(volatile unsigned int *)(0x1C000408)) = 0x00000000 ;
e0000ad2:	40878713          	addi	a4,a5,1032
e0000ad6:	00072023          	sw	zero,0(a4)
  (*(volatile unsigned int *)(0x1C00040C)) = 0x00000000 ;
e0000ada:	40c78713          	addi	a4,a5,1036
e0000ade:	00072023          	sw	zero,0(a4)
  (*(volatile unsigned int *)(0x1C000410)) = 0x00000000 ;
e0000ae2:	41078713          	addi	a4,a5,1040
e0000ae6:	00072023          	sw	zero,0(a4)
  (*(volatile unsigned int *)(0x1C000414)) = 0x00000000 ;
e0000aea:	41478713          	addi	a4,a5,1044
e0000aee:	00072023          	sw	zero,0(a4)
  (*(volatile unsigned int *)(0x1C000418)) = 0x00000000 ;
e0000af2:	41878713          	addi	a4,a5,1048
e0000af6:	00072023          	sw	zero,0(a4)
  (*(volatile unsigned int *)(0x1C00041C)) = 0x00000000 ;
e0000afa:	41c78713          	addi	a4,a5,1052
e0000afe:	00072023          	sw	zero,0(a4)
  (*(volatile unsigned int *)(0x1C000420)) = 0x00000000 ;
e0000b02:	42078713          	addi	a4,a5,1056
e0000b06:	00072023          	sw	zero,0(a4)
  (*(volatile unsigned int *)(0x1C000424)) = 0x00000000 ;
e0000b0a:	42478713          	addi	a4,a5,1060
e0000b0e:	00072023          	sw	zero,0(a4)
  (*(volatile unsigned int *)(0x1C000428)) = 0x00000000 ;
e0000b12:	42878713          	addi	a4,a5,1064
e0000b16:	00072023          	sw	zero,0(a4)
  (*(volatile unsigned int *)(0x1C00042C)) = 0x00000000 ;
e0000b1a:	42c78713          	addi	a4,a5,1068
e0000b1e:	00072023          	sw	zero,0(a4)
  (*(volatile unsigned int *)(0x1C000430)) = 0x00000000 ;
e0000b22:	43078713          	addi	a4,a5,1072
e0000b26:	00072023          	sw	zero,0(a4)
  (*(volatile unsigned int *)(0x1C000434)) = 0x00000000 ;
e0000b2a:	43478713          	addi	a4,a5,1076
e0000b2e:	00072023          	sw	zero,0(a4)
  (*(volatile unsigned int *)(0x1C000438)) = 0x00000000 ;
e0000b32:	43878713          	addi	a4,a5,1080
e0000b36:	00072023          	sw	zero,0(a4)
  (*(volatile unsigned int *)(0x1C00043C)) = 0x00000000 ;
e0000b3a:	43c78713          	addi	a4,a5,1084
e0000b3e:	00072023          	sw	zero,0(a4)
  (*(volatile unsigned int *)(0x1C000440)) = 0x00000000 ;
e0000b42:	44078713          	addi	a4,a5,1088
e0000b46:	00072023          	sw	zero,0(a4)
  (*(volatile unsigned int *)(0x1C000444)) = 0x00000000 ;
e0000b4a:	44478713          	addi	a4,a5,1092
e0000b4e:	00072023          	sw	zero,0(a4)
  (*(volatile unsigned int *)(0x1C000448)) = 0x00000000 ;
e0000b52:	44878713          	addi	a4,a5,1096
e0000b56:	00072023          	sw	zero,0(a4)
  (*(volatile unsigned int *)(0x1C00044C)) = 0x00000000 ;
e0000b5a:	44c78713          	addi	a4,a5,1100
e0000b5e:	00072023          	sw	zero,0(a4)
  (*(volatile unsigned int *)(0x1C000450)) = 0x00000000 ;
e0000b62:	45078713          	addi	a4,a5,1104
e0000b66:	00072023          	sw	zero,0(a4)
  (*(volatile unsigned int *)(0x1C000454)) = 0x00000000 ;
e0000b6a:	45478713          	addi	a4,a5,1108
e0000b6e:	00072023          	sw	zero,0(a4)
  (*(volatile unsigned int *)(0x1C000458)) = 0x00000000 ;
e0000b72:	45878713          	addi	a4,a5,1112
e0000b76:	00072023          	sw	zero,0(a4)
  (*(volatile unsigned int *)(0x1C00045C)) = 0x00000000 ;
e0000b7a:	45c78713          	addi	a4,a5,1116
e0000b7e:	00072023          	sw	zero,0(a4)
  (*(volatile unsigned int *)(0x1C000460)) = 0x00000000 ;
e0000b82:	46078713          	addi	a4,a5,1120
e0000b86:	00072023          	sw	zero,0(a4)
  (*(volatile unsigned int *)(0x1C000464)) = 0x00000000 ;
e0000b8a:	46478713          	addi	a4,a5,1124
e0000b8e:	00072023          	sw	zero,0(a4)
  (*(volatile unsigned int *)(0x1C000468)) = 0x00000000 ;
e0000b92:	46878713          	addi	a4,a5,1128
e0000b96:	00072023          	sw	zero,0(a4)
  (*(volatile unsigned int *)(0x1C00046C)) = 0x00000000 ;
e0000b9a:	46c78713          	addi	a4,a5,1132
e0000b9e:	00072023          	sw	zero,0(a4)
  (*(volatile unsigned int *)(0x1C000470)) = 0x00000000 ;
e0000ba2:	47078713          	addi	a4,a5,1136
e0000ba6:	00072023          	sw	zero,0(a4)
  (*(volatile unsigned int *)(0x1C000474)) = 0x00000000 ;
e0000baa:	47478713          	addi	a4,a5,1140
e0000bae:	00072023          	sw	zero,0(a4)
  (*(volatile unsigned int *)(0x1C000478)) = 0x00000000 ;
e0000bb2:	47878713          	addi	a4,a5,1144
e0000bb6:	00072023          	sw	zero,0(a4)
  (*(volatile unsigned int *)(0x1C00047C)) = 0x00000000 ;
e0000bba:	47c78713          	addi	a4,a5,1148
e0000bbe:	00072023          	sw	zero,0(a4)
  (*(volatile unsigned int *)(0x1C000480)) = 0x00000000 ;
e0000bc2:	48078713          	addi	a4,a5,1152
e0000bc6:	00072023          	sw	zero,0(a4)
  (*(volatile unsigned int *)(0x1C000484)) = 0x00000000 ;
e0000bca:	48478713          	addi	a4,a5,1156
e0000bce:	00072023          	sw	zero,0(a4)
  (*(volatile unsigned int *)(0x1C000488)) = 0x00000000 ;
e0000bd2:	48878713          	addi	a4,a5,1160
e0000bd6:	00072023          	sw	zero,0(a4)
  (*(volatile unsigned int *)(0x1C00048C)) = 0x00000000 ;
e0000bda:	48c78713          	addi	a4,a5,1164
e0000bde:	00072023          	sw	zero,0(a4)
  (*(volatile unsigned int *)(0x1C000490)) = 0x00000000 ;
e0000be2:	49078713          	addi	a4,a5,1168
e0000be6:	00072023          	sw	zero,0(a4)
  (*(volatile unsigned int *)(0x1C000494)) = 0x00000000 ;
e0000bea:	49478713          	addi	a4,a5,1172
e0000bee:	00072023          	sw	zero,0(a4)
  (*(volatile unsigned int *)(0x1C000498)) = 0x00000000 ;
e0000bf2:	49878713          	addi	a4,a5,1176
e0000bf6:	00072023          	sw	zero,0(a4)
  (*(volatile unsigned int *)(0x1C00049C)) = 0x00000000 ;
e0000bfa:	49c78713          	addi	a4,a5,1180
e0000bfe:	00072023          	sw	zero,0(a4)
  (*(volatile unsigned int *)(0x1C0004A0)) = 0x00000000 ;
e0000c02:	4a078713          	addi	a4,a5,1184
e0000c06:	00072023          	sw	zero,0(a4)
  (*(volatile unsigned int *)(0x1C0004A4)) = 0x00000000 ;
e0000c0a:	4a478713          	addi	a4,a5,1188
e0000c0e:	00072023          	sw	zero,0(a4)
  (*(volatile unsigned int *)(0x1C0004A8)) = 0x00000000 ;
e0000c12:	4a878713          	addi	a4,a5,1192
e0000c16:	00072023          	sw	zero,0(a4)
  (*(volatile unsigned int *)(0x1C0004AC)) = 0x00000000 ;
e0000c1a:	4ac78713          	addi	a4,a5,1196
e0000c1e:	00072023          	sw	zero,0(a4)
  (*(volatile unsigned int *)(0x1C0004B0)) = 0x00000000 ;
e0000c22:	4b078713          	addi	a4,a5,1200
e0000c26:	00072023          	sw	zero,0(a4)
  (*(volatile unsigned int *)(0x1C0004B4)) = 0x00000000 ;
e0000c2a:	4b478713          	addi	a4,a5,1204
e0000c2e:	00072023          	sw	zero,0(a4)
  (*(volatile unsigned int *)(0x1C0004B8)) = 0x00000000 ;
e0000c32:	4b878713          	addi	a4,a5,1208
e0000c36:	00072023          	sw	zero,0(a4)
  (*(volatile unsigned int *)(0x1C0004BC)) = 0x00000000 ;
e0000c3a:	4bc78713          	addi	a4,a5,1212
e0000c3e:	00072023          	sw	zero,0(a4)
  (*(volatile unsigned int *)(0x1C0004C0)) = 0x00000000 ;
e0000c42:	4c078713          	addi	a4,a5,1216
e0000c46:	00072023          	sw	zero,0(a4)
  (*(volatile unsigned int *)(0x1C0004C4)) = 0x00000000 ;
e0000c4a:	4c478713          	addi	a4,a5,1220
e0000c4e:	00072023          	sw	zero,0(a4)
  (*(volatile unsigned int *)(0x1C0004C8)) = 0x00000000 ;
e0000c52:	4c878713          	addi	a4,a5,1224
e0000c56:	00072023          	sw	zero,0(a4)
  (*(volatile unsigned int *)(0x1C0004CC)) = 0x00000000 ;
e0000c5a:	4cc78713          	addi	a4,a5,1228
e0000c5e:	00072023          	sw	zero,0(a4)
  (*(volatile unsigned int *)(0x1C0004D0)) = 0x00000000 ;
e0000c62:	4d078713          	addi	a4,a5,1232
e0000c66:	00072023          	sw	zero,0(a4)
  (*(volatile unsigned int *)(0x1C0004D4)) = 0x00000000 ;
e0000c6a:	4d478713          	addi	a4,a5,1236
e0000c6e:	00072023          	sw	zero,0(a4)
  (*(volatile unsigned int *)(0x1C0004D8)) = 0x00000000 ;
e0000c72:	4d878713          	addi	a4,a5,1240
e0000c76:	00072023          	sw	zero,0(a4)
  (*(volatile unsigned int *)(0x1C0004DC)) = 0x00000000 ;
e0000c7a:	4dc78713          	addi	a4,a5,1244
e0000c7e:	00072023          	sw	zero,0(a4)
  (*(volatile unsigned int *)(0x1C0004E0)) = 0x00000000 ;
e0000c82:	4e078713          	addi	a4,a5,1248
e0000c86:	00072023          	sw	zero,0(a4)
  (*(volatile unsigned int *)(0x1C0004E4)) = 0x00000000 ;
e0000c8a:	4e478713          	addi	a4,a5,1252
e0000c8e:	00072023          	sw	zero,0(a4)
  (*(volatile unsigned int *)(0x1C0004E8)) = 0x00000000 ;
e0000c92:	4e878713          	addi	a4,a5,1256
e0000c96:	00072023          	sw	zero,0(a4)
  (*(volatile unsigned int *)(0x1C0004EC)) = 0x00000000 ;
e0000c9a:	4ec78713          	addi	a4,a5,1260
e0000c9e:	00072023          	sw	zero,0(a4)
  (*(volatile unsigned int *)(0x1C0004F0)) = 0x00000000 ;
e0000ca2:	4f078713          	addi	a4,a5,1264
e0000ca6:	00072023          	sw	zero,0(a4)
  (*(volatile unsigned int *)(0x1C0004F4)) = 0x00000000 ;
e0000caa:	4f478713          	addi	a4,a5,1268
e0000cae:	00072023          	sw	zero,0(a4)
  (*(volatile unsigned int *)(0x1C0004F8)) = 0x00000000 ;
e0000cb2:	4f878713          	addi	a4,a5,1272
e0000cb6:	00072023          	sw	zero,0(a4)
  (*(volatile unsigned int *)(0x1C0004FC)) = 0x00000000 ;
e0000cba:	4fc78713          	addi	a4,a5,1276
e0000cbe:	00072023          	sw	zero,0(a4)
  (*(volatile unsigned int *)(0x1C000500)) = 0x00000000 ;
e0000cc2:	50078713          	addi	a4,a5,1280
e0000cc6:	00072023          	sw	zero,0(a4)
  (*(volatile unsigned int *)(0x1C000504)) = 0x00000000 ;
e0000cca:	50478713          	addi	a4,a5,1284
e0000cce:	00072023          	sw	zero,0(a4)
  (*(volatile unsigned int *)(0x1C000508)) = 0x00000000 ;
e0000cd2:	50878713          	addi	a4,a5,1288
e0000cd6:	00072023          	sw	zero,0(a4)
  (*(volatile unsigned int *)(0x1C00050C)) = 0x00000000 ;
e0000cda:	50c78713          	addi	a4,a5,1292
e0000cde:	00072023          	sw	zero,0(a4)
  (*(volatile unsigned int *)(0x1C000510)) = 0x00000000 ;
e0000ce2:	51078713          	addi	a4,a5,1296
e0000ce6:	00072023          	sw	zero,0(a4)
  (*(volatile unsigned int *)(0x1C000514)) = 0x00000000 ;
e0000cea:	51478713          	addi	a4,a5,1300
e0000cee:	00072023          	sw	zero,0(a4)
  (*(volatile unsigned int *)(0x1C000518)) = 0x00000000 ;
e0000cf2:	51878713          	addi	a4,a5,1304
e0000cf6:	00072023          	sw	zero,0(a4)
  (*(volatile unsigned int *)(0x1C00051C)) = 0x00000000 ;
e0000cfa:	51c78713          	addi	a4,a5,1308
e0000cfe:	00072023          	sw	zero,0(a4)
  (*(volatile unsigned int *)(0x1C000520)) = 0x00000000 ;
e0000d02:	52078713          	addi	a4,a5,1312
e0000d06:	00072023          	sw	zero,0(a4)
  (*(volatile unsigned int *)(0x1C000524)) = 0x00000000 ;
e0000d0a:	52478713          	addi	a4,a5,1316
e0000d0e:	00072023          	sw	zero,0(a4)
  (*(volatile unsigned int *)(0x1C000528)) = 0x00000000 ;
e0000d12:	52878713          	addi	a4,a5,1320
e0000d16:	00072023          	sw	zero,0(a4)
  (*(volatile unsigned int *)(0x1C00052C)) = 0x00000000 ;
e0000d1a:	52c78713          	addi	a4,a5,1324
e0000d1e:	00072023          	sw	zero,0(a4)
  (*(volatile unsigned int *)(0x1C000530)) = 0x00000000 ;
e0000d22:	53078713          	addi	a4,a5,1328
e0000d26:	00072023          	sw	zero,0(a4)
  (*(volatile unsigned int *)(0x1C000534)) = 0x00000000 ;
e0000d2a:	53478713          	addi	a4,a5,1332
e0000d2e:	00072023          	sw	zero,0(a4)
  (*(volatile unsigned int *)(0x1C000538)) = 0x00000000 ;
e0000d32:	53878713          	addi	a4,a5,1336
e0000d36:	00072023          	sw	zero,0(a4)
  (*(volatile unsigned int *)(0x1C00053C)) = 0x00000000 ;
e0000d3a:	53c78713          	addi	a4,a5,1340
e0000d3e:	00072023          	sw	zero,0(a4)
  (*(volatile unsigned int *)(0x1C000540)) = 0x00000000 ;
e0000d42:	54078713          	addi	a4,a5,1344
e0000d46:	00072023          	sw	zero,0(a4)
  (*(volatile unsigned int *)(0x1C000544)) = 0x00000000 ;
e0000d4a:	54478713          	addi	a4,a5,1348
e0000d4e:	00072023          	sw	zero,0(a4)
  (*(volatile unsigned int *)(0x1C000548)) = 0x00000000 ;
e0000d52:	54878713          	addi	a4,a5,1352
e0000d56:	00072023          	sw	zero,0(a4)
  (*(volatile unsigned int *)(0x1C00054C)) = 0x00000000 ;
e0000d5a:	54c78713          	addi	a4,a5,1356
e0000d5e:	00072023          	sw	zero,0(a4)
  (*(volatile unsigned int *)(0x1C000550)) = 0x00000000 ;
e0000d62:	55078713          	addi	a4,a5,1360
e0000d66:	00072023          	sw	zero,0(a4)
  (*(volatile unsigned int *)(0x1C000554)) = 0x00000000 ;
e0000d6a:	55478713          	addi	a4,a5,1364
e0000d6e:	00072023          	sw	zero,0(a4)
  (*(volatile unsigned int *)(0x1C000558)) = 0x00000000 ;
e0000d72:	55878713          	addi	a4,a5,1368
e0000d76:	00072023          	sw	zero,0(a4)
  (*(volatile unsigned int *)(0x1C00055C)) = 0x00000000 ;
e0000d7a:	55c78713          	addi	a4,a5,1372
e0000d7e:	00072023          	sw	zero,0(a4)
  (*(volatile unsigned int *)(0x1C000560)) = 0x00000000 ;
e0000d82:	56078713          	addi	a4,a5,1376
e0000d86:	00072023          	sw	zero,0(a4)
  (*(volatile unsigned int *)(0x1C000564)) = 0x00000000 ;
e0000d8a:	56478713          	addi	a4,a5,1380
e0000d8e:	00072023          	sw	zero,0(a4)
  (*(volatile unsigned int *)(0x1C000568)) = 0x00000000 ;
e0000d92:	56878713          	addi	a4,a5,1384
e0000d96:	00072023          	sw	zero,0(a4)
  (*(volatile unsigned int *)(0x1C00056C)) = 0x00000000 ;
e0000d9a:	56c78713          	addi	a4,a5,1388
e0000d9e:	00072023          	sw	zero,0(a4)
  (*(volatile unsigned int *)(0x1C000570)) = 0x00000000 ;
e0000da2:	57078713          	addi	a4,a5,1392
e0000da6:	00072023          	sw	zero,0(a4)
  (*(volatile unsigned int *)(0x1C000574)) = 0x00000000 ;
e0000daa:	57478713          	addi	a4,a5,1396
e0000dae:	00072023          	sw	zero,0(a4)
  (*(volatile unsigned int *)(0x1C000578)) = 0x00000000 ;
e0000db2:	57878713          	addi	a4,a5,1400
e0000db6:	00072023          	sw	zero,0(a4)
  (*(volatile unsigned int *)(0x1C00057C)) = 0x00000000 ;
e0000dba:	57c78713          	addi	a4,a5,1404
e0000dbe:	00072023          	sw	zero,0(a4)
  (*(volatile unsigned int *)(0x1C000580)) = 0x00000000 ;
e0000dc2:	58078713          	addi	a4,a5,1408
e0000dc6:	00072023          	sw	zero,0(a4)
  (*(volatile unsigned int *)(0x1C000584)) = 0x00000000 ;
e0000dca:	58478713          	addi	a4,a5,1412
e0000dce:	00072023          	sw	zero,0(a4)
  (*(volatile unsigned int *)(0x1C000588)) = 0x00000000 ;
e0000dd2:	58878713          	addi	a4,a5,1416
e0000dd6:	00072023          	sw	zero,0(a4)
  (*(volatile unsigned int *)(0x1C00058C)) = 0x00000000 ;
e0000dda:	58c78713          	addi	a4,a5,1420
e0000dde:	00072023          	sw	zero,0(a4)
  (*(volatile unsigned int *)(0x1C000590)) = 0x00000000 ;
e0000de2:	59078713          	addi	a4,a5,1424
e0000de6:	00072023          	sw	zero,0(a4)
  (*(volatile unsigned int *)(0x1C000594)) = 0x00000000 ;
e0000dea:	59478713          	addi	a4,a5,1428
e0000dee:	00072023          	sw	zero,0(a4)
  (*(volatile unsigned int *)(0x1C000598)) = 0x00000000 ;
e0000df2:	59878713          	addi	a4,a5,1432
e0000df6:	00072023          	sw	zero,0(a4)
  (*(volatile unsigned int *)(0x1C00059C)) = 0x00000000 ;
e0000dfa:	59c78713          	addi	a4,a5,1436
e0000dfe:	00072023          	sw	zero,0(a4)
  (*(volatile unsigned int *)(0x1C0005A0)) = 0x00000000 ;
e0000e02:	5a078713          	addi	a4,a5,1440
e0000e06:	00072023          	sw	zero,0(a4)
  (*(volatile unsigned int *)(0x1C0005A4)) = 0x00000000 ;
e0000e0a:	5a478713          	addi	a4,a5,1444
e0000e0e:	00072023          	sw	zero,0(a4)
  (*(volatile unsigned int *)(0x1C0005A8)) = 0x00000000 ;
e0000e12:	5a878713          	addi	a4,a5,1448
e0000e16:	00072023          	sw	zero,0(a4)
  (*(volatile unsigned int *)(0x1C0005AC)) = 0x00000000 ;
e0000e1a:	5ac78713          	addi	a4,a5,1452
e0000e1e:	00072023          	sw	zero,0(a4)
  (*(volatile unsigned int *)(0x1C0005B0)) = 0x00000000 ;
e0000e22:	5b078713          	addi	a4,a5,1456
e0000e26:	00072023          	sw	zero,0(a4)
  (*(volatile unsigned int *)(0x1C0005B4)) = 0x00000000 ;
e0000e2a:	5b478713          	addi	a4,a5,1460
e0000e2e:	00072023          	sw	zero,0(a4)
  (*(volatile unsigned int *)(0x1C0005B8)) = 0x00000000 ;
e0000e32:	5b878713          	addi	a4,a5,1464
e0000e36:	00072023          	sw	zero,0(a4)
  (*(volatile unsigned int *)(0x1C0005BC)) = 0x00000000 ;
e0000e3a:	5bc78713          	addi	a4,a5,1468
e0000e3e:	00072023          	sw	zero,0(a4)
  (*(volatile unsigned int *)(0x1C0005C0)) = 0x00000000 ;
e0000e42:	5c078713          	addi	a4,a5,1472
e0000e46:	00072023          	sw	zero,0(a4)
  (*(volatile unsigned int *)(0x1C0005C4)) = 0x00000000 ;
e0000e4a:	5c478713          	addi	a4,a5,1476
e0000e4e:	00072023          	sw	zero,0(a4)
  (*(volatile unsigned int *)(0x1C0005C8)) = 0x00000000 ;
e0000e52:	5c878713          	addi	a4,a5,1480
e0000e56:	00072023          	sw	zero,0(a4)
  (*(volatile unsigned int *)(0x1C0005CC)) = 0x00000000 ;
e0000e5a:	5cc78713          	addi	a4,a5,1484
e0000e5e:	00072023          	sw	zero,0(a4)
  (*(volatile unsigned int *)(0x1C0005D0)) = 0x00000000 ;
e0000e62:	5d078713          	addi	a4,a5,1488
e0000e66:	00072023          	sw	zero,0(a4)
  (*(volatile unsigned int *)(0x1C0005D4)) = 0x00000000 ;
e0000e6a:	5d478713          	addi	a4,a5,1492
e0000e6e:	00072023          	sw	zero,0(a4)
  (*(volatile unsigned int *)(0x1C0005D8)) = 0x00000000 ;
e0000e72:	5d878713          	addi	a4,a5,1496
e0000e76:	00072023          	sw	zero,0(a4)
  (*(volatile unsigned int *)(0x1C0005DC)) = 0x00000000 ;
e0000e7a:	5dc78713          	addi	a4,a5,1500
e0000e7e:	00072023          	sw	zero,0(a4)
  (*(volatile unsigned int *)(0x1C0005E0)) = 0x00000000 ;
e0000e82:	5e078713          	addi	a4,a5,1504
e0000e86:	00072023          	sw	zero,0(a4)
  (*(volatile unsigned int *)(0x1C0005E4)) = 0x00000000 ;
e0000e8a:	5e478713          	addi	a4,a5,1508
e0000e8e:	00072023          	sw	zero,0(a4)
  (*(volatile unsigned int *)(0x1C0005E8)) = 0x00000000 ;
e0000e92:	5e878713          	addi	a4,a5,1512
e0000e96:	00072023          	sw	zero,0(a4)
  (*(volatile unsigned int *)(0x1C0005EC)) = 0x00000000 ;
e0000e9a:	5ec78713          	addi	a4,a5,1516
e0000e9e:	00072023          	sw	zero,0(a4)
  (*(volatile unsigned int *)(0x1C0005F0)) = 0x00000000 ;
e0000ea2:	5f078713          	addi	a4,a5,1520
e0000ea6:	00072023          	sw	zero,0(a4)
  (*(volatile unsigned int *)(0x1C0005F4)) = 0x00000000 ;
e0000eaa:	5f478713          	addi	a4,a5,1524
e0000eae:	00072023          	sw	zero,0(a4)
  (*(volatile unsigned int *)(0x1C0005F8)) = 0x00000000 ;
e0000eb2:	5f878713          	addi	a4,a5,1528
e0000eb6:	00072023          	sw	zero,0(a4)
  (*(volatile unsigned int *)(0x1C0005FC)) = 0x00000000 ;
e0000eba:	5fc78713          	addi	a4,a5,1532
e0000ebe:	00072023          	sw	zero,0(a4)
  (*(volatile unsigned int *)(0x1C000600)) = 0x00000000 ;
e0000ec2:	60078713          	addi	a4,a5,1536
e0000ec6:	00072023          	sw	zero,0(a4)
  (*(volatile unsigned int *)(0x1C000604)) = 0x00000000 ;
e0000eca:	60478713          	addi	a4,a5,1540
e0000ece:	00072023          	sw	zero,0(a4)
  (*(volatile unsigned int *)(0x1C000608)) = 0x00000000 ;
e0000ed2:	60878713          	addi	a4,a5,1544
e0000ed6:	00072023          	sw	zero,0(a4)
  (*(volatile unsigned int *)(0x1C00060C)) = 0x00000000 ;
e0000eda:	60c78713          	addi	a4,a5,1548
e0000ede:	00072023          	sw	zero,0(a4)
  (*(volatile unsigned int *)(0x1C000610)) = 0x00000000 ;
e0000ee2:	61078713          	addi	a4,a5,1552
e0000ee6:	00072023          	sw	zero,0(a4)
  (*(volatile unsigned int *)(0x1C000614)) = 0x00000000 ;
e0000eea:	61478713          	addi	a4,a5,1556
e0000eee:	00072023          	sw	zero,0(a4)
  (*(volatile unsigned int *)(0x1C000618)) = 0x00000000 ;
e0000ef2:	61878713          	addi	a4,a5,1560
e0000ef6:	00072023          	sw	zero,0(a4)
  (*(volatile unsigned int *)(0x1C00061C)) = 0x00000000 ;
e0000efa:	61c78713          	addi	a4,a5,1564
e0000efe:	00072023          	sw	zero,0(a4)
  (*(volatile unsigned int *)(0x1C000620)) = 0x00000000 ;
e0000f02:	62078713          	addi	a4,a5,1568
e0000f06:	00072023          	sw	zero,0(a4)
  (*(volatile unsigned int *)(0x1C000624)) = 0x00000000 ;
e0000f0a:	62478713          	addi	a4,a5,1572
e0000f0e:	00072023          	sw	zero,0(a4)
  (*(volatile unsigned int *)(0x1C000628)) = 0x00000000 ;
e0000f12:	62878713          	addi	a4,a5,1576
e0000f16:	00072023          	sw	zero,0(a4)
  (*(volatile unsigned int *)(0x1C00062C)) = 0x00000000 ;
e0000f1a:	62c78713          	addi	a4,a5,1580
e0000f1e:	00072023          	sw	zero,0(a4)
  (*(volatile unsigned int *)(0x1C000630)) = 0x00000000 ;
e0000f22:	63078713          	addi	a4,a5,1584
e0000f26:	00072023          	sw	zero,0(a4)
  (*(volatile unsigned int *)(0x1C000634)) = 0x00000000 ;
e0000f2a:	63478713          	addi	a4,a5,1588
e0000f2e:	00072023          	sw	zero,0(a4)
  (*(volatile unsigned int *)(0x1C000638)) = 0x00000000 ;
e0000f32:	63878713          	addi	a4,a5,1592
e0000f36:	00072023          	sw	zero,0(a4)
  (*(volatile unsigned int *)(0x1C00063C)) = 0x00000000 ;
e0000f3a:	63c78713          	addi	a4,a5,1596
e0000f3e:	00072023          	sw	zero,0(a4)
  (*(volatile unsigned int *)(0x1C000640)) = 0x00000000 ;
e0000f42:	64078713          	addi	a4,a5,1600
e0000f46:	00072023          	sw	zero,0(a4)
  (*(volatile unsigned int *)(0x1C000644)) = 0x00000000 ;
e0000f4a:	64478713          	addi	a4,a5,1604
e0000f4e:	00072023          	sw	zero,0(a4)
  (*(volatile unsigned int *)(0x1C000648)) = 0x00000000 ;
e0000f52:	64878713          	addi	a4,a5,1608
e0000f56:	00072023          	sw	zero,0(a4)
  (*(volatile unsigned int *)(0x1C00064C)) = 0x00000000 ;
e0000f5a:	64c78713          	addi	a4,a5,1612
e0000f5e:	00072023          	sw	zero,0(a4)
  (*(volatile unsigned int *)(0x1C000650)) = 0x00000000 ;
e0000f62:	65078713          	addi	a4,a5,1616
e0000f66:	00072023          	sw	zero,0(a4)
  (*(volatile unsigned int *)(0x1C000654)) = 0x00000000 ;
e0000f6a:	65478713          	addi	a4,a5,1620
e0000f6e:	00072023          	sw	zero,0(a4)
  (*(volatile unsigned int *)(0x1C000658)) = 0x00000000 ;
e0000f72:	65878713          	addi	a4,a5,1624
e0000f76:	00072023          	sw	zero,0(a4)
  (*(volatile unsigned int *)(0x1C00065C)) = 0x00000000 ;
e0000f7a:	65c78713          	addi	a4,a5,1628
e0000f7e:	00072023          	sw	zero,0(a4)
  (*(volatile unsigned int *)(0x1C000660)) = 0x00000000 ;
e0000f82:	66078713          	addi	a4,a5,1632
e0000f86:	00072023          	sw	zero,0(a4)
  (*(volatile unsigned int *)(0x1C000664)) = 0x00000000 ;
e0000f8a:	66478713          	addi	a4,a5,1636
e0000f8e:	00072023          	sw	zero,0(a4)
  (*(volatile unsigned int *)(0x1C000668)) = 0x00000000 ;
e0000f92:	66878713          	addi	a4,a5,1640
e0000f96:	00072023          	sw	zero,0(a4)
  (*(volatile unsigned int *)(0x1C00066C)) = 0x00000000 ;
e0000f9a:	66c78713          	addi	a4,a5,1644
e0000f9e:	00072023          	sw	zero,0(a4)
  (*(volatile unsigned int *)(0x1C000670)) = 0x00000000 ;
e0000fa2:	67078713          	addi	a4,a5,1648
e0000fa6:	00072023          	sw	zero,0(a4)
  (*(volatile unsigned int *)(0x1C000674)) = 0x00000000 ;
e0000faa:	67478713          	addi	a4,a5,1652
e0000fae:	00072023          	sw	zero,0(a4)
  (*(volatile unsigned int *)(0x1C000678)) = 0x00000000 ;
e0000fb2:	67878713          	addi	a4,a5,1656
e0000fb6:	00072023          	sw	zero,0(a4)
  (*(volatile unsigned int *)(0x1C00067C)) = 0x00000000 ;
e0000fba:	67c78713          	addi	a4,a5,1660
e0000fbe:	00072023          	sw	zero,0(a4)
  (*(volatile unsigned int *)(0x1C000680)) = 0x00000000 ;
e0000fc2:	68078713          	addi	a4,a5,1664
e0000fc6:	00072023          	sw	zero,0(a4)
  (*(volatile unsigned int *)(0x1C000684)) = 0x00000000 ;
e0000fca:	68478713          	addi	a4,a5,1668
e0000fce:	00072023          	sw	zero,0(a4)
  (*(volatile unsigned int *)(0x1C000688)) = 0x00000000 ;
e0000fd2:	68878713          	addi	a4,a5,1672
e0000fd6:	00072023          	sw	zero,0(a4)
  (*(volatile unsigned int *)(0x1C00068C)) = 0x00000000 ;
e0000fda:	68c78713          	addi	a4,a5,1676
e0000fde:	00072023          	sw	zero,0(a4)
  (*(volatile unsigned int *)(0x1C000690)) = 0x00000000 ;
e0000fe2:	69078713          	addi	a4,a5,1680
e0000fe6:	00072023          	sw	zero,0(a4)
  (*(volatile unsigned int *)(0x1C000694)) = 0x00000000 ;
e0000fea:	69478713          	addi	a4,a5,1684
e0000fee:	00072023          	sw	zero,0(a4)
  (*(volatile unsigned int *)(0x1C000698)) = 0x00000000 ;
e0000ff2:	69878713          	addi	a4,a5,1688
e0000ff6:	00072023          	sw	zero,0(a4)
  (*(volatile unsigned int *)(0x1C00069C)) = 0x00000000 ;
e0000ffa:	69c78713          	addi	a4,a5,1692
e0000ffe:	00072023          	sw	zero,0(a4)
  (*(volatile unsigned int *)(0x1C0006A0)) = 0x00000000 ;
e0001002:	6a078713          	addi	a4,a5,1696
e0001006:	00072023          	sw	zero,0(a4)
  (*(volatile unsigned int *)(0x1C0006A4)) = 0x00000000 ;
e000100a:	6a478713          	addi	a4,a5,1700
e000100e:	00072023          	sw	zero,0(a4)
  (*(volatile unsigned int *)(0x1C0006A8)) = 0x00000000 ;
e0001012:	6a878713          	addi	a4,a5,1704
e0001016:	00072023          	sw	zero,0(a4)
  (*(volatile unsigned int *)(0x1C0006AC)) = 0x00000000 ;
e000101a:	6ac78713          	addi	a4,a5,1708
e000101e:	00072023          	sw	zero,0(a4)
  (*(volatile unsigned int *)(0x1C0006B0)) = 0x00000000 ;
e0001022:	6b078713          	addi	a4,a5,1712
e0001026:	00072023          	sw	zero,0(a4)
  (*(volatile unsigned int *)(0x1C0006B4)) = 0x00000000 ;
e000102a:	6b478713          	addi	a4,a5,1716
e000102e:	00072023          	sw	zero,0(a4)
  (*(volatile unsigned int *)(0x1C0006B8)) = 0x00000000 ;
e0001032:	6b878713          	addi	a4,a5,1720
e0001036:	00072023          	sw	zero,0(a4)
  (*(volatile unsigned int *)(0x1C0006BC)) = 0x00000000 ;
e000103a:	6bc78713          	addi	a4,a5,1724
e000103e:	00072023          	sw	zero,0(a4)
  (*(volatile unsigned int *)(0x1C0006C0)) = 0x00000000 ;
e0001042:	6c078713          	addi	a4,a5,1728
e0001046:	00072023          	sw	zero,0(a4)
  (*(volatile unsigned int *)(0x1C0006C4)) = 0x00000000 ;
e000104a:	6c478713          	addi	a4,a5,1732
e000104e:	00072023          	sw	zero,0(a4)
  (*(volatile unsigned int *)(0x1C0006C8)) = 0x00000000 ;
e0001052:	6c878713          	addi	a4,a5,1736
e0001056:	00072023          	sw	zero,0(a4)
  (*(volatile unsigned int *)(0x1C0006CC)) = 0x00000000 ;
e000105a:	6cc78713          	addi	a4,a5,1740
e000105e:	00072023          	sw	zero,0(a4)
  (*(volatile unsigned int *)(0x1C0006D0)) = 0x00000000 ;
e0001062:	6d078713          	addi	a4,a5,1744
e0001066:	00072023          	sw	zero,0(a4)
  (*(volatile unsigned int *)(0x1C0006D4)) = 0x00000000 ;
e000106a:	6d478713          	addi	a4,a5,1748
e000106e:	00072023          	sw	zero,0(a4)
  (*(volatile unsigned int *)(0x1C0006D8)) = 0x00000000 ;
e0001072:	6d878713          	addi	a4,a5,1752
e0001076:	00072023          	sw	zero,0(a4)
  (*(volatile unsigned int *)(0x1C0006DC)) = 0x00000000 ;
e000107a:	6dc78713          	addi	a4,a5,1756
e000107e:	00072023          	sw	zero,0(a4)
  (*(volatile unsigned int *)(0x1C0006E0)) = 0x00000000 ;
e0001082:	6e078713          	addi	a4,a5,1760
e0001086:	00072023          	sw	zero,0(a4)
  (*(volatile unsigned int *)(0x1C0006E4)) = 0x00000000 ;
e000108a:	6e478713          	addi	a4,a5,1764
e000108e:	00072023          	sw	zero,0(a4)
  (*(volatile unsigned int *)(0x1C0006E8)) = 0x00000000 ;
e0001092:	6e878713          	addi	a4,a5,1768
e0001096:	00072023          	sw	zero,0(a4)
  (*(volatile unsigned int *)(0x1C0006EC)) = 0x00000000 ;
e000109a:	6ec78713          	addi	a4,a5,1772
e000109e:	00072023          	sw	zero,0(a4)
  (*(volatile unsigned int *)(0x1C0006F0)) = 0x00000000 ;
e00010a2:	6f078713          	addi	a4,a5,1776
e00010a6:	00072023          	sw	zero,0(a4)
  (*(volatile unsigned int *)(0x1C0006F4)) = 0x00000000 ;
e00010aa:	6f478713          	addi	a4,a5,1780
e00010ae:	00072023          	sw	zero,0(a4)
  (*(volatile unsigned int *)(0x1C0006F8)) = 0x00000000 ;
e00010b2:	6f878713          	addi	a4,a5,1784
e00010b6:	00072023          	sw	zero,0(a4)
  (*(volatile unsigned int *)(0x1C0006FC)) = 0x00000000 ;
e00010ba:	6fc78713          	addi	a4,a5,1788
e00010be:	00072023          	sw	zero,0(a4)
  (*(volatile unsigned int *)(0x1C000700)) = 0x00000000 ;
e00010c2:	70078713          	addi	a4,a5,1792
e00010c6:	00072023          	sw	zero,0(a4)
  (*(volatile unsigned int *)(0x1C000704)) = 0x00000000 ;
e00010ca:	70478713          	addi	a4,a5,1796
e00010ce:	00072023          	sw	zero,0(a4)
  (*(volatile unsigned int *)(0x1C000708)) = 0x00000000 ;
e00010d2:	70878713          	addi	a4,a5,1800
e00010d6:	00072023          	sw	zero,0(a4)
  (*(volatile unsigned int *)(0x1C00070C)) = 0x00000000 ;
e00010da:	70c78713          	addi	a4,a5,1804
e00010de:	00072023          	sw	zero,0(a4)
  (*(volatile unsigned int *)(0x1C000710)) = 0x00000000 ;
e00010e2:	71078713          	addi	a4,a5,1808
e00010e6:	00072023          	sw	zero,0(a4)
  (*(volatile unsigned int *)(0x1C000714)) = 0x00000000 ;
e00010ea:	71478713          	addi	a4,a5,1812
e00010ee:	00072023          	sw	zero,0(a4)
  (*(volatile unsigned int *)(0x1C000718)) = 0x00000000 ;
e00010f2:	71878713          	addi	a4,a5,1816
e00010f6:	00072023          	sw	zero,0(a4)
  (*(volatile unsigned int *)(0x1C00071C)) = 0x00000000 ;
e00010fa:	71c78713          	addi	a4,a5,1820
e00010fe:	00072023          	sw	zero,0(a4)
  (*(volatile unsigned int *)(0x1C000720)) = 0x00000000 ;
e0001102:	72078713          	addi	a4,a5,1824
e0001106:	00072023          	sw	zero,0(a4)
  (*(volatile unsigned int *)(0x1C000724)) = 0x00000000 ;
e000110a:	72478713          	addi	a4,a5,1828
e000110e:	00072023          	sw	zero,0(a4)
  (*(volatile unsigned int *)(0x1C000728)) = 0x00000000 ;
e0001112:	72878713          	addi	a4,a5,1832
e0001116:	00072023          	sw	zero,0(a4)
  (*(volatile unsigned int *)(0x1C00072C)) = 0x00000000 ;
e000111a:	72c78713          	addi	a4,a5,1836
e000111e:	00072023          	sw	zero,0(a4)
  (*(volatile unsigned int *)(0x1C000730)) = 0x00000000 ;
e0001122:	73078713          	addi	a4,a5,1840
e0001126:	00072023          	sw	zero,0(a4)
  (*(volatile unsigned int *)(0x1C000734)) = 0x00000000 ;
e000112a:	73478713          	addi	a4,a5,1844
e000112e:	00072023          	sw	zero,0(a4)
  (*(volatile unsigned int *)(0x1C000738)) = 0x00000000 ;
e0001132:	73878713          	addi	a4,a5,1848
e0001136:	00072023          	sw	zero,0(a4)
  (*(volatile unsigned int *)(0x1C00073C)) = 0x00000000 ;
e000113a:	73c78713          	addi	a4,a5,1852
e000113e:	00072023          	sw	zero,0(a4)
  (*(volatile unsigned int *)(0x1C000740)) = 0x00000000 ;
e0001142:	74078713          	addi	a4,a5,1856
e0001146:	00072023          	sw	zero,0(a4)
  (*(volatile unsigned int *)(0x1C000744)) = 0x00000000 ;
e000114a:	74478713          	addi	a4,a5,1860
e000114e:	00072023          	sw	zero,0(a4)
  (*(volatile unsigned int *)(0x1C000748)) = 0x00000000 ;
e0001152:	74878713          	addi	a4,a5,1864
e0001156:	00072023          	sw	zero,0(a4)
  (*(volatile unsigned int *)(0x1C00074C)) = 0x00000000 ;
e000115a:	74c78713          	addi	a4,a5,1868
e000115e:	00072023          	sw	zero,0(a4)
  (*(volatile unsigned int *)(0x1C000750)) = 0x00000000 ;
e0001162:	75078713          	addi	a4,a5,1872
e0001166:	00072023          	sw	zero,0(a4)
  (*(volatile unsigned int *)(0x1C000754)) = 0x00000000 ;
e000116a:	75478713          	addi	a4,a5,1876
e000116e:	00072023          	sw	zero,0(a4)
  (*(volatile unsigned int *)(0x1C000758)) = 0x00000000 ;
e0001172:	75878713          	addi	a4,a5,1880
e0001176:	00072023          	sw	zero,0(a4)
  (*(volatile unsigned int *)(0x1C00075C)) = 0x00000000 ;
e000117a:	75c78713          	addi	a4,a5,1884
e000117e:	00072023          	sw	zero,0(a4)
  (*(volatile unsigned int *)(0x1C000760)) = 0x00000000 ;
e0001182:	76078713          	addi	a4,a5,1888
e0001186:	00072023          	sw	zero,0(a4)
  (*(volatile unsigned int *)(0x1C000764)) = 0x00000000 ;
e000118a:	76478713          	addi	a4,a5,1892
e000118e:	00072023          	sw	zero,0(a4)
  (*(volatile unsigned int *)(0x1C000768)) = 0x00000000 ;
e0001192:	76878713          	addi	a4,a5,1896
e0001196:	00072023          	sw	zero,0(a4)
  (*(volatile unsigned int *)(0x1C00076C)) = 0x00000000 ;
e000119a:	76c78713          	addi	a4,a5,1900
e000119e:	00072023          	sw	zero,0(a4)
  (*(volatile unsigned int *)(0x1C000770)) = 0x00000000 ;
e00011a2:	77078713          	addi	a4,a5,1904
e00011a6:	00072023          	sw	zero,0(a4)
  (*(volatile unsigned int *)(0x1C000774)) = 0x00000000 ;
e00011aa:	77478713          	addi	a4,a5,1908
e00011ae:	00072023          	sw	zero,0(a4)
  (*(volatile unsigned int *)(0x1C000778)) = 0x00000000 ;
e00011b2:	77878713          	addi	a4,a5,1912
e00011b6:	00072023          	sw	zero,0(a4)
  (*(volatile unsigned int *)(0x1C00077C)) = 0x00000000 ;
e00011ba:	77c78713          	addi	a4,a5,1916
e00011be:	00072023          	sw	zero,0(a4)
  (*(volatile unsigned int *)(0x1C000780)) = 0x00000000 ;
e00011c2:	78078713          	addi	a4,a5,1920
e00011c6:	00072023          	sw	zero,0(a4)
  (*(volatile unsigned int *)(0x1C000784)) = 0x00000000 ;
e00011ca:	78478713          	addi	a4,a5,1924
e00011ce:	00072023          	sw	zero,0(a4)
  (*(volatile unsigned int *)(0x1C000788)) = 0x00000000 ;
e00011d2:	78878713          	addi	a4,a5,1928
e00011d6:	00072023          	sw	zero,0(a4)
  (*(volatile unsigned int *)(0x1C00078C)) = 0x00000000 ;
e00011da:	78c78713          	addi	a4,a5,1932
e00011de:	00072023          	sw	zero,0(a4)
  (*(volatile unsigned int *)(0x1C000790)) = 0x00000000 ;
e00011e2:	79078713          	addi	a4,a5,1936
e00011e6:	00072023          	sw	zero,0(a4)
  (*(volatile unsigned int *)(0x1C000794)) = 0x00000000 ;
e00011ea:	79478713          	addi	a4,a5,1940
e00011ee:	00072023          	sw	zero,0(a4)
  (*(volatile unsigned int *)(0x1C000798)) = 0x00000000 ;
e00011f2:	79878713          	addi	a4,a5,1944
e00011f6:	00072023          	sw	zero,0(a4)
  (*(volatile unsigned int *)(0x1C00079C)) = 0x00000000 ;
e00011fa:	79c78713          	addi	a4,a5,1948
e00011fe:	00072023          	sw	zero,0(a4)
  (*(volatile unsigned int *)(0x1C0007A0)) = 0x00000000 ;
e0001202:	7a078713          	addi	a4,a5,1952
e0001206:	00072023          	sw	zero,0(a4)
  (*(volatile unsigned int *)(0x1C0007A4)) = 0x00000000 ;
e000120a:	7a478713          	addi	a4,a5,1956
e000120e:	00072023          	sw	zero,0(a4)
  (*(volatile unsigned int *)(0x1C0007A8)) = 0x00000000 ;
e0001212:	7a878713          	addi	a4,a5,1960
e0001216:	00072023          	sw	zero,0(a4)
  (*(volatile unsigned int *)(0x1C0007AC)) = 0x00000000 ;
e000121a:	7ac78713          	addi	a4,a5,1964
e000121e:	00072023          	sw	zero,0(a4)
  (*(volatile unsigned int *)(0x1C0007B0)) = 0x00000000 ;
e0001222:	7b078713          	addi	a4,a5,1968
e0001226:	00072023          	sw	zero,0(a4)
  (*(volatile unsigned int *)(0x1C0007B4)) = 0x00000000 ;
e000122a:	7b478713          	addi	a4,a5,1972
e000122e:	00072023          	sw	zero,0(a4)
  (*(volatile unsigned int *)(0x1C0007B8)) = 0x00000000 ;
e0001232:	7b878713          	addi	a4,a5,1976
e0001236:	00072023          	sw	zero,0(a4)
  (*(volatile unsigned int *)(0x1C0007BC)) = 0x00000000 ;
e000123a:	7bc78713          	addi	a4,a5,1980
e000123e:	00072023          	sw	zero,0(a4)
  (*(volatile unsigned int *)(0x1C0007C0)) = 0x00000000 ;
e0001242:	7c078713          	addi	a4,a5,1984
e0001246:	00072023          	sw	zero,0(a4)
  (*(volatile unsigned int *)(0x1C0007C4)) = 0x00000000 ;
e000124a:	7c478713          	addi	a4,a5,1988
e000124e:	00072023          	sw	zero,0(a4)
  (*(volatile unsigned int *)(0x1C0007C8)) = 0x00000000 ;
e0001252:	7c878713          	addi	a4,a5,1992
e0001256:	00072023          	sw	zero,0(a4)
  (*(volatile unsigned int *)(0x1C0007CC)) = 0x00000000 ;
e000125a:	7cc78713          	addi	a4,a5,1996
e000125e:	00072023          	sw	zero,0(a4)
  (*(volatile unsigned int *)(0x1C0007D0)) = 0x00000000 ;
e0001262:	7d078713          	addi	a4,a5,2000
e0001266:	00072023          	sw	zero,0(a4)
  (*(volatile unsigned int *)(0x1C0007D4)) = 0x00000000 ;
e000126a:	7d478713          	addi	a4,a5,2004
e000126e:	00072023          	sw	zero,0(a4)
  (*(volatile unsigned int *)(0x1C0007D8)) = 0x00000000 ;
e0001272:	7d878713          	addi	a4,a5,2008
e0001276:	00072023          	sw	zero,0(a4)
  (*(volatile unsigned int *)(0x1C0007DC)) = 0x00000000 ;
e000127a:	7dc78713          	addi	a4,a5,2012
e000127e:	00072023          	sw	zero,0(a4)
  (*(volatile unsigned int *)(0x1C0007E0)) = 0x00000000 ;
e0001282:	7e078713          	addi	a4,a5,2016
e0001286:	00072023          	sw	zero,0(a4)
  (*(volatile unsigned int *)(0x1C0007E4)) = 0x00000000 ;
e000128a:	7e478713          	addi	a4,a5,2020
e000128e:	00072023          	sw	zero,0(a4)
  (*(volatile unsigned int *)(0x1C0007E8)) = 0x00000000 ;
e0001292:	7e878713          	addi	a4,a5,2024
e0001296:	00072023          	sw	zero,0(a4)
  (*(volatile unsigned int *)(0x1C0007EC)) = 0x00000000 ;
e000129a:	7ec78713          	addi	a4,a5,2028
e000129e:	00072023          	sw	zero,0(a4)
  (*(volatile unsigned int *)(0x1C0007F0)) = 0x00000000 ;
e00012a2:	7f078713          	addi	a4,a5,2032
e00012a6:	00072023          	sw	zero,0(a4)
  (*(volatile unsigned int *)(0x1C0007F4)) = 0x00000000 ;
e00012aa:	7f478713          	addi	a4,a5,2036
e00012ae:	00072023          	sw	zero,0(a4)
  (*(volatile unsigned int *)(0x1C0007F8)) = 0x00000000 ;
e00012b2:	7f878713          	addi	a4,a5,2040
e00012b6:	00072023          	sw	zero,0(a4)
  (*(volatile unsigned int *)(0x1C0007FC)) = 0x00000000 ;
e00012ba:	7fc78793          	addi	a5,a5,2044
e00012be:	0007a023          	sw	zero,0(a5)
  (*(volatile unsigned int *)(0x1C000800)) = 0x00000000 ;
e00012c2:	1c0017b7          	lui	a5,0x1c001
e00012c6:	80078713          	addi	a4,a5,-2048 # 1c000800 <tohost+0x1bfe07f8>
e00012ca:	00072023          	sw	zero,0(a4)
  (*(volatile unsigned int *)(0x1C000804)) = 0x00000000 ;
e00012ce:	80478713          	addi	a4,a5,-2044
e00012d2:	00072023          	sw	zero,0(a4)
  (*(volatile unsigned int *)(0x1C000808)) = 0x00000000 ;
e00012d6:	80878713          	addi	a4,a5,-2040
e00012da:	00072023          	sw	zero,0(a4)
  (*(volatile unsigned int *)(0x1C00080C)) = 0x00000000 ;
e00012de:	80c78713          	addi	a4,a5,-2036
e00012e2:	00072023          	sw	zero,0(a4)
  (*(volatile unsigned int *)(0x1C000810)) = 0x00000000 ;
e00012e6:	81078713          	addi	a4,a5,-2032
e00012ea:	00072023          	sw	zero,0(a4)
  (*(volatile unsigned int *)(0x1C000814)) = 0x00000000 ;
e00012ee:	81478713          	addi	a4,a5,-2028
e00012f2:	00072023          	sw	zero,0(a4)
  (*(volatile unsigned int *)(0x1C000818)) = 0x00000000 ;
e00012f6:	81878713          	addi	a4,a5,-2024
e00012fa:	00072023          	sw	zero,0(a4)
  (*(volatile unsigned int *)(0x1C00081C)) = 0x00000000 ;
e00012fe:	81c78713          	addi	a4,a5,-2020
e0001302:	00072023          	sw	zero,0(a4)
  (*(volatile unsigned int *)(0x1C000820)) = 0x00000000 ;
e0001306:	82078713          	addi	a4,a5,-2016
e000130a:	00072023          	sw	zero,0(a4)
  (*(volatile unsigned int *)(0x1C000824)) = 0x00000000 ;
e000130e:	82478713          	addi	a4,a5,-2012
e0001312:	00072023          	sw	zero,0(a4)
  (*(volatile unsigned int *)(0x1C000828)) = 0x00000000 ;
e0001316:	82878713          	addi	a4,a5,-2008
e000131a:	00072023          	sw	zero,0(a4)
  (*(volatile unsigned int *)(0x1C00082C)) = 0x00000000 ;
e000131e:	82c78713          	addi	a4,a5,-2004
e0001322:	00072023          	sw	zero,0(a4)
  (*(volatile unsigned int *)(0x1C000830)) = 0x00000000 ;
e0001326:	83078713          	addi	a4,a5,-2000
e000132a:	00072023          	sw	zero,0(a4)
  (*(volatile unsigned int *)(0x1C000834)) = 0x00000000 ;
e000132e:	83478713          	addi	a4,a5,-1996
e0001332:	00072023          	sw	zero,0(a4)
  (*(volatile unsigned int *)(0x1C000838)) = 0x00000000 ;
e0001336:	83878713          	addi	a4,a5,-1992
e000133a:	00072023          	sw	zero,0(a4)
  (*(volatile unsigned int *)(0x1C00083C)) = 0x00000000 ;
e000133e:	83c78713          	addi	a4,a5,-1988
e0001342:	00072023          	sw	zero,0(a4)
  (*(volatile unsigned int *)(0x1C000840)) = 0x00000000 ;
e0001346:	84078713          	addi	a4,a5,-1984
e000134a:	00072023          	sw	zero,0(a4)
  (*(volatile unsigned int *)(0x1C000844)) = 0x00000000 ;
e000134e:	84478713          	addi	a4,a5,-1980
e0001352:	00072023          	sw	zero,0(a4)
  (*(volatile unsigned int *)(0x1C000848)) = 0x00000000 ;
e0001356:	84878713          	addi	a4,a5,-1976
e000135a:	00072023          	sw	zero,0(a4)
  (*(volatile unsigned int *)(0x1C00084C)) = 0x00000000 ;
e000135e:	84c78713          	addi	a4,a5,-1972
e0001362:	00072023          	sw	zero,0(a4)
  (*(volatile unsigned int *)(0x1C000850)) = 0x00000000 ;
e0001366:	85078713          	addi	a4,a5,-1968
e000136a:	00072023          	sw	zero,0(a4)
  (*(volatile unsigned int *)(0x1C000854)) = 0x00000000 ;
e000136e:	85478713          	addi	a4,a5,-1964
e0001372:	00072023          	sw	zero,0(a4)
  (*(volatile unsigned int *)(0x1C000858)) = 0x00000000 ;
e0001376:	85878713          	addi	a4,a5,-1960
e000137a:	00072023          	sw	zero,0(a4)
  (*(volatile unsigned int *)(0x1C00085C)) = 0x00000000 ;
e000137e:	85c78713          	addi	a4,a5,-1956
e0001382:	00072023          	sw	zero,0(a4)
  (*(volatile unsigned int *)(0x1C000860)) = 0x00000000 ;
e0001386:	86078713          	addi	a4,a5,-1952
e000138a:	00072023          	sw	zero,0(a4)
  (*(volatile unsigned int *)(0x1C000864)) = 0x00000000 ;
e000138e:	86478713          	addi	a4,a5,-1948
e0001392:	00072023          	sw	zero,0(a4)
  (*(volatile unsigned int *)(0x1C000868)) = 0x00000000 ;
e0001396:	86878713          	addi	a4,a5,-1944
e000139a:	00072023          	sw	zero,0(a4)
  (*(volatile unsigned int *)(0x1C00086C)) = 0x00000000 ;
e000139e:	86c78713          	addi	a4,a5,-1940
e00013a2:	00072023          	sw	zero,0(a4)
  (*(volatile unsigned int *)(0x1C000870)) = 0x00000000 ;
e00013a6:	87078713          	addi	a4,a5,-1936
e00013aa:	00072023          	sw	zero,0(a4)
  (*(volatile unsigned int *)(0x1C000874)) = 0x00000000 ;
e00013ae:	87478713          	addi	a4,a5,-1932
e00013b2:	00072023          	sw	zero,0(a4)
  (*(volatile unsigned int *)(0x1C000878)) = 0x00000000 ;
e00013b6:	87878713          	addi	a4,a5,-1928
e00013ba:	00072023          	sw	zero,0(a4)
  (*(volatile unsigned int *)(0x1C00087C)) = 0x00000000 ;
e00013be:	87c78713          	addi	a4,a5,-1924
e00013c2:	00072023          	sw	zero,0(a4)
  (*(volatile unsigned int *)(0x1C000880)) = 0x00000000 ;
e00013c6:	88078713          	addi	a4,a5,-1920
e00013ca:	00072023          	sw	zero,0(a4)
  (*(volatile unsigned int *)(0x1C000884)) = 0x00000000 ;
e00013ce:	88478713          	addi	a4,a5,-1916
e00013d2:	00072023          	sw	zero,0(a4)
  (*(volatile unsigned int *)(0x1C000888)) = 0x00000000 ;
e00013d6:	88878713          	addi	a4,a5,-1912
e00013da:	00072023          	sw	zero,0(a4)
  (*(volatile unsigned int *)(0x1C00088C)) = 0x00000000 ;
e00013de:	88c78713          	addi	a4,a5,-1908
e00013e2:	00072023          	sw	zero,0(a4)
  (*(volatile unsigned int *)(0x1C000890)) = 0x00000000 ;
e00013e6:	89078713          	addi	a4,a5,-1904
e00013ea:	00072023          	sw	zero,0(a4)
  (*(volatile unsigned int *)(0x1C000894)) = 0x00000000 ;
e00013ee:	89478713          	addi	a4,a5,-1900
e00013f2:	00072023          	sw	zero,0(a4)
  (*(volatile unsigned int *)(0x1C000898)) = 0x00000000 ;
e00013f6:	89878713          	addi	a4,a5,-1896
e00013fa:	00072023          	sw	zero,0(a4)
  (*(volatile unsigned int *)(0x1C00089C)) = 0x00000000 ;
e00013fe:	89c78713          	addi	a4,a5,-1892
e0001402:	00072023          	sw	zero,0(a4)
  (*(volatile unsigned int *)(0x1C0008A0)) = 0x00000000 ;
e0001406:	8a078713          	addi	a4,a5,-1888
e000140a:	00072023          	sw	zero,0(a4)
  (*(volatile unsigned int *)(0x1C0008A4)) = 0x00000000 ;
e000140e:	8a478713          	addi	a4,a5,-1884
e0001412:	00072023          	sw	zero,0(a4)
  (*(volatile unsigned int *)(0x1C0008A8)) = 0x00000000 ;
e0001416:	8a878713          	addi	a4,a5,-1880
e000141a:	00072023          	sw	zero,0(a4)
  (*(volatile unsigned int *)(0x1C0008AC)) = 0x00000000 ;
e000141e:	8ac78713          	addi	a4,a5,-1876
e0001422:	00072023          	sw	zero,0(a4)
  (*(volatile unsigned int *)(0x1C0008B0)) = 0x00000000 ;
e0001426:	8b078713          	addi	a4,a5,-1872
e000142a:	00072023          	sw	zero,0(a4)
  (*(volatile unsigned int *)(0x1C0008B4)) = 0x00000000 ;
e000142e:	8b478713          	addi	a4,a5,-1868
e0001432:	00072023          	sw	zero,0(a4)
  (*(volatile unsigned int *)(0x1C0008B8)) = 0x00000000 ;
e0001436:	8b878713          	addi	a4,a5,-1864
e000143a:	00072023          	sw	zero,0(a4)
  (*(volatile unsigned int *)(0x1C0008BC)) = 0x00000000 ;
e000143e:	8bc78713          	addi	a4,a5,-1860
e0001442:	00072023          	sw	zero,0(a4)
  (*(volatile unsigned int *)(0x1C0008C0)) = 0x00000000 ;
e0001446:	8c078713          	addi	a4,a5,-1856
e000144a:	00072023          	sw	zero,0(a4)
  (*(volatile unsigned int *)(0x1C0008C4)) = 0x00000000 ;
e000144e:	8c478713          	addi	a4,a5,-1852
e0001452:	00072023          	sw	zero,0(a4)
  (*(volatile unsigned int *)(0x1C0008C8)) = 0x00000000 ;
e0001456:	8c878713          	addi	a4,a5,-1848
e000145a:	00072023          	sw	zero,0(a4)
  (*(volatile unsigned int *)(0x1C0008CC)) = 0x00000000 ;
e000145e:	8cc78713          	addi	a4,a5,-1844
e0001462:	00072023          	sw	zero,0(a4)
  (*(volatile unsigned int *)(0x1C0008D0)) = 0x00000000 ;
e0001466:	8d078713          	addi	a4,a5,-1840
e000146a:	00072023          	sw	zero,0(a4)
  (*(volatile unsigned int *)(0x1C0008D4)) = 0x00000000 ;
e000146e:	8d478713          	addi	a4,a5,-1836
e0001472:	00072023          	sw	zero,0(a4)
  (*(volatile unsigned int *)(0x1C0008D8)) = 0x00000000 ;
e0001476:	8d878713          	addi	a4,a5,-1832
e000147a:	00072023          	sw	zero,0(a4)
  (*(volatile unsigned int *)(0x1C0008DC)) = 0x00000000 ;
e000147e:	8dc78713          	addi	a4,a5,-1828
e0001482:	00072023          	sw	zero,0(a4)
  (*(volatile unsigned int *)(0x1C0008E0)) = 0x00000000 ;
e0001486:	8e078713          	addi	a4,a5,-1824
e000148a:	00072023          	sw	zero,0(a4)
  (*(volatile unsigned int *)(0x1C0008E4)) = 0x00000000 ;
e000148e:	8e478713          	addi	a4,a5,-1820
e0001492:	00072023          	sw	zero,0(a4)
  (*(volatile unsigned int *)(0x1C0008E8)) = 0x00000000 ;
e0001496:	8e878713          	addi	a4,a5,-1816
e000149a:	00072023          	sw	zero,0(a4)
  (*(volatile unsigned int *)(0x1C0008EC)) = 0x00000000 ;
e000149e:	8ec78713          	addi	a4,a5,-1812
e00014a2:	00072023          	sw	zero,0(a4)
  (*(volatile unsigned int *)(0x1C0008F0)) = 0x00000000 ;
e00014a6:	8f078713          	addi	a4,a5,-1808
e00014aa:	00072023          	sw	zero,0(a4)
  (*(volatile unsigned int *)(0x1C0008F4)) = 0x00000000 ;
e00014ae:	8f478713          	addi	a4,a5,-1804
e00014b2:	00072023          	sw	zero,0(a4)
  (*(volatile unsigned int *)(0x1C0008F8)) = 0x00000000 ;
e00014b6:	8f878713          	addi	a4,a5,-1800
e00014ba:	00072023          	sw	zero,0(a4)
  (*(volatile unsigned int *)(0x1C0008FC)) = 0x00000000 ;
e00014be:	8fc78713          	addi	a4,a5,-1796
e00014c2:	00072023          	sw	zero,0(a4)
  (*(volatile unsigned int *)(0x1C000900)) = 0x00000000 ;
e00014c6:	90078713          	addi	a4,a5,-1792
e00014ca:	00072023          	sw	zero,0(a4)
  (*(volatile unsigned int *)(0x1C000904)) = 0x00000000 ;
e00014ce:	90478713          	addi	a4,a5,-1788
e00014d2:	00072023          	sw	zero,0(a4)
  (*(volatile unsigned int *)(0x1C000908)) = 0x00000000 ;
e00014d6:	90878713          	addi	a4,a5,-1784
e00014da:	00072023          	sw	zero,0(a4)
  (*(volatile unsigned int *)(0x1C00090C)) = 0x00000000 ;
e00014de:	90c78713          	addi	a4,a5,-1780
e00014e2:	00072023          	sw	zero,0(a4)
  (*(volatile unsigned int *)(0x1C000910)) = 0x00000000 ;
e00014e6:	91078713          	addi	a4,a5,-1776
e00014ea:	00072023          	sw	zero,0(a4)
  (*(volatile unsigned int *)(0x1C000914)) = 0x00000000 ;
e00014ee:	91478713          	addi	a4,a5,-1772
e00014f2:	00072023          	sw	zero,0(a4)
  (*(volatile unsigned int *)(0x1C000918)) = 0x00000000 ;
e00014f6:	91878713          	addi	a4,a5,-1768
e00014fa:	00072023          	sw	zero,0(a4)
  (*(volatile unsigned int *)(0x1C00091C)) = 0x00000000 ;
e00014fe:	91c78713          	addi	a4,a5,-1764
e0001502:	00072023          	sw	zero,0(a4)
  (*(volatile unsigned int *)(0x1C000920)) = 0x00000000 ;
e0001506:	92078713          	addi	a4,a5,-1760
e000150a:	00072023          	sw	zero,0(a4)
  (*(volatile unsigned int *)(0x1C000924)) = 0x00000000 ;
e000150e:	92478713          	addi	a4,a5,-1756
e0001512:	00072023          	sw	zero,0(a4)
  (*(volatile unsigned int *)(0x1C000928)) = 0x00000000 ;
e0001516:	92878713          	addi	a4,a5,-1752
e000151a:	00072023          	sw	zero,0(a4)
  (*(volatile unsigned int *)(0x1C00092C)) = 0x00000000 ;
e000151e:	92c78713          	addi	a4,a5,-1748
e0001522:	00072023          	sw	zero,0(a4)
  (*(volatile unsigned int *)(0x1C000930)) = 0x00000000 ;
e0001526:	93078713          	addi	a4,a5,-1744
e000152a:	00072023          	sw	zero,0(a4)
  (*(volatile unsigned int *)(0x1C000934)) = 0x00000000 ;
e000152e:	93478713          	addi	a4,a5,-1740
e0001532:	00072023          	sw	zero,0(a4)
  (*(volatile unsigned int *)(0x1C000938)) = 0x00000000 ;
e0001536:	93878713          	addi	a4,a5,-1736
e000153a:	00072023          	sw	zero,0(a4)
  (*(volatile unsigned int *)(0x1C00093C)) = 0x00000000 ;
e000153e:	93c78713          	addi	a4,a5,-1732
e0001542:	00072023          	sw	zero,0(a4)
  (*(volatile unsigned int *)(0x1C000940)) = 0x00000000 ;
e0001546:	94078713          	addi	a4,a5,-1728
e000154a:	00072023          	sw	zero,0(a4)
  (*(volatile unsigned int *)(0x1C000944)) = 0x00000000 ;
e000154e:	94478793          	addi	a5,a5,-1724
  (*(volatile unsigned int *)(0x1C002000)) = 0x1040006F ;
e0001552:	10400737          	lui	a4,0x10400
  (*(volatile unsigned int *)(0x1C000944)) = 0x00000000 ;
e0001556:	0007a023          	sw	zero,0(a5)
  (*(volatile unsigned int *)(0x1C002004)) = 0x1000006F ;
e000155a:	100006b7          	lui	a3,0x10000
  (*(volatile unsigned int *)(0x1C002000)) = 0x1040006F ;
e000155e:	1c0027b7          	lui	a5,0x1c002
e0001562:	06f70713          	addi	a4,a4,111 # 1040006f <tohost+0x103e0067>
e0001566:	c398                	sw	a4,0(a5)
  (*(volatile unsigned int *)(0x1C002004)) = 0x1000006F ;
e0001568:	06f68713          	addi	a4,a3,111 # 1000006f <tohost+0xffe0067>
e000156c:	c3d8                	sw	a4,4(a5)
  (*(volatile unsigned int *)(0x1C002008)) = 0x0FC0006F ;
e000156e:	0fc00737          	lui	a4,0xfc00
e0001572:	06f70713          	addi	a4,a4,111 # fc0006f <tohost+0xfbe0067>
e0001576:	c798                	sw	a4,8(a5)
  (*(volatile unsigned int *)(0x1C00200C)) = 0x0F80006F ;
e0001578:	0f800737          	lui	a4,0xf800
e000157c:	06f70713          	addi	a4,a4,111 # f80006f <tohost+0xf7e0067>
e0001580:	c7d8                	sw	a4,12(a5)
  (*(volatile unsigned int *)(0x1C002010)) = 0x0F40006F ;
e0001582:	0f400737          	lui	a4,0xf400
e0001586:	06f70713          	addi	a4,a4,111 # f40006f <tohost+0xf3e0067>
e000158a:	cb98                	sw	a4,16(a5)
  (*(volatile unsigned int *)(0x1C002014)) = 0x0F00006F ;
e000158c:	0f000737          	lui	a4,0xf000
e0001590:	06f70713          	addi	a4,a4,111 # f00006f <tohost+0xefe0067>
e0001594:	cbd8                	sw	a4,20(a5)
  (*(volatile unsigned int *)(0x1C002018)) = 0x0EC0006F ;
e0001596:	0ec00737          	lui	a4,0xec00
e000159a:	06f70713          	addi	a4,a4,111 # ec0006f <tohost+0xebe0067>
e000159e:	cf98                	sw	a4,24(a5)
  (*(volatile unsigned int *)(0x1C00201C)) = 0x0E80006F ;
e00015a0:	0e800737          	lui	a4,0xe800
e00015a4:	06f70713          	addi	a4,a4,111 # e80006f <tohost+0xe7e0067>
e00015a8:	cfd8                	sw	a4,28(a5)
  (*(volatile unsigned int *)(0x1C002020)) = 0x0E40006F ;
e00015aa:	0e400737          	lui	a4,0xe400
e00015ae:	06f70713          	addi	a4,a4,111 # e40006f <tohost+0xe3e0067>
e00015b2:	d398                	sw	a4,32(a5)
  (*(volatile unsigned int *)(0x1C002024)) = 0x0E00006F ;
e00015b4:	0e000737          	lui	a4,0xe000
e00015b8:	06f70713          	addi	a4,a4,111 # e00006f <tohost+0xdfe0067>
e00015bc:	d3d8                	sw	a4,36(a5)
  (*(volatile unsigned int *)(0x1C002028)) = 0x0DC0006F ;
e00015be:	0dc00737          	lui	a4,0xdc00
e00015c2:	06f70713          	addi	a4,a4,111 # dc0006f <tohost+0xdbe0067>
e00015c6:	d798                	sw	a4,40(a5)
  (*(volatile unsigned int *)(0x1C00202C)) = 0x0D80006F ;
e00015c8:	0d800737          	lui	a4,0xd800
e00015cc:	06f70713          	addi	a4,a4,111 # d80006f <tohost+0xd7e0067>
e00015d0:	d7d8                	sw	a4,44(a5)
  (*(volatile unsigned int *)(0x1C002030)) = 0x0D40006F ;
e00015d2:	0d400737          	lui	a4,0xd400
e00015d6:	06f70713          	addi	a4,a4,111 # d40006f <tohost+0xd3e0067>
e00015da:	db98                	sw	a4,48(a5)
  (*(volatile unsigned int *)(0x1C002034)) = 0x0D00006F ;
e00015dc:	0d000737          	lui	a4,0xd000
e00015e0:	06f70713          	addi	a4,a4,111 # d00006f <tohost+0xcfe0067>
e00015e4:	dbd8                	sw	a4,52(a5)
  (*(volatile unsigned int *)(0x1C002038)) = 0x0CC0006F ;
e00015e6:	0cc00737          	lui	a4,0xcc00
e00015ea:	06f70713          	addi	a4,a4,111 # cc0006f <tohost+0xcbe0067>
e00015ee:	df98                	sw	a4,56(a5)
  (*(volatile unsigned int *)(0x1C00203C)) = 0x0C80006F ;
e00015f0:	0c800737          	lui	a4,0xc800
e00015f4:	06f70713          	addi	a4,a4,111 # c80006f <tohost+0xc7e0067>
e00015f8:	dfd8                	sw	a4,60(a5)
  (*(volatile unsigned int *)(0x1C002040)) = 0x0C40006F ;
e00015fa:	0c400737          	lui	a4,0xc400
e00015fe:	06f70713          	addi	a4,a4,111 # c40006f <tohost+0xc3e0067>
e0001602:	c3b8                	sw	a4,64(a5)
  (*(volatile unsigned int *)(0x1C002044)) = 0x0C00006F ;
e0001604:	0c000737          	lui	a4,0xc000
e0001608:	06f70713          	addi	a4,a4,111 # c00006f <tohost+0xbfe0067>
e000160c:	c3f8                	sw	a4,68(a5)
  (*(volatile unsigned int *)(0x1C002048)) = 0x0BC0006F ;
e000160e:	0bc00737          	lui	a4,0xbc00
e0001612:	06f70713          	addi	a4,a4,111 # bc0006f <tohost+0xbbe0067>
e0001616:	c7b8                	sw	a4,72(a5)
  (*(volatile unsigned int *)(0x1C00204C)) = 0x0B80006F ;
e0001618:	0b800737          	lui	a4,0xb800
e000161c:	06f70713          	addi	a4,a4,111 # b80006f <tohost+0xb7e0067>
e0001620:	c7f8                	sw	a4,76(a5)
  (*(volatile unsigned int *)(0x1C002050)) = 0x0B40006F ;
e0001622:	0b400737          	lui	a4,0xb400
e0001626:	06f70713          	addi	a4,a4,111 # b40006f <tohost+0xb3e0067>
e000162a:	cbb8                	sw	a4,80(a5)
  (*(volatile unsigned int *)(0x1C002054)) = 0x0B00006F ;
e000162c:	0b000737          	lui	a4,0xb000
e0001630:	06f70713          	addi	a4,a4,111 # b00006f <tohost+0xafe0067>
e0001634:	cbf8                	sw	a4,84(a5)
  (*(volatile unsigned int *)(0x1C002058)) = 0x0AC0006F ;
e0001636:	0ac00737          	lui	a4,0xac00
e000163a:	06f70713          	addi	a4,a4,111 # ac0006f <tohost+0xabe0067>
e000163e:	cfb8                	sw	a4,88(a5)
  (*(volatile unsigned int *)(0x1C00205C)) = 0x0A80006F ;
e0001640:	0a800737          	lui	a4,0xa800
e0001644:	06f70713          	addi	a4,a4,111 # a80006f <tohost+0xa7e0067>
e0001648:	cff8                	sw	a4,92(a5)
  (*(volatile unsigned int *)(0x1C002060)) = 0x0A40006F ;
e000164a:	0a400737          	lui	a4,0xa400
e000164e:	06f70713          	addi	a4,a4,111 # a40006f <tohost+0xa3e0067>
e0001652:	d3b8                	sw	a4,96(a5)
  (*(volatile unsigned int *)(0x1C002064)) = 0x0A00006F ;
e0001654:	0a000737          	lui	a4,0xa000
e0001658:	06f70713          	addi	a4,a4,111 # a00006f <tohost+0x9fe0067>
e000165c:	d3f8                	sw	a4,100(a5)
  (*(volatile unsigned int *)(0x1C002068)) = 0x09C0006F ;
e000165e:	09c00737          	lui	a4,0x9c00
e0001662:	06f70713          	addi	a4,a4,111 # 9c0006f <tohost+0x9be0067>
e0001666:	d7b8                	sw	a4,104(a5)
  (*(volatile unsigned int *)(0x1C00206C)) = 0x0980006F ;
e0001668:	09800737          	lui	a4,0x9800
e000166c:	06f70713          	addi	a4,a4,111 # 980006f <tohost+0x97e0067>
e0001670:	d7f8                	sw	a4,108(a5)
  (*(volatile unsigned int *)(0x1C002070)) = 0x0940006F ;
e0001672:	09400737          	lui	a4,0x9400
e0001676:	06f70713          	addi	a4,a4,111 # 940006f <tohost+0x93e0067>
e000167a:	dbb8                	sw	a4,112(a5)
  (*(volatile unsigned int *)(0x1C002074)) = 0x0900006F ;
e000167c:	09000737          	lui	a4,0x9000
e0001680:	06f70713          	addi	a4,a4,111 # 900006f <tohost+0x8fe0067>
e0001684:	dbf8                	sw	a4,116(a5)
  (*(volatile unsigned int *)(0x1C002078)) = 0x08C0006F ;
e0001686:	08c00737          	lui	a4,0x8c00
e000168a:	06f70713          	addi	a4,a4,111 # 8c0006f <tohost+0x8be0067>
e000168e:	dfb8                	sw	a4,120(a5)
  (*(volatile unsigned int *)(0x1C00207C)) = 0x0880006F ;
e0001690:	08800737          	lui	a4,0x8800
e0001694:	06f70713          	addi	a4,a4,111 # 880006f <tohost+0x87e0067>
e0001698:	dff8                	sw	a4,124(a5)
  (*(volatile unsigned int *)(0x1C002080)) = 0x000000B7 ;
e000169a:	0b700613          	li	a2,183
e000169e:	08078713          	addi	a4,a5,128 # 1c002080 <tohost+0x1bfe2078>
e00016a2:	c310                	sw	a2,0(a4)
  (*(volatile unsigned int *)(0x1C002084)) = 0x00000137 ;
e00016a4:	08478713          	addi	a4,a5,132
e00016a8:	13700613          	li	a2,311
e00016ac:	c310                	sw	a2,0(a4)
  (*(volatile unsigned int *)(0x1C002088)) = 0x000001B7 ;
e00016ae:	08878713          	addi	a4,a5,136
e00016b2:	1b700613          	li	a2,439
e00016b6:	c310                	sw	a2,0(a4)
  (*(volatile unsigned int *)(0x1C00208C)) = 0x00000237 ;
e00016b8:	08c78713          	addi	a4,a5,140
e00016bc:	23700613          	li	a2,567
e00016c0:	c310                	sw	a2,0(a4)
  (*(volatile unsigned int *)(0x1C002090)) = 0x000002B7 ;
e00016c2:	09078713          	addi	a4,a5,144
e00016c6:	2b700613          	li	a2,695
e00016ca:	c310                	sw	a2,0(a4)
  (*(volatile unsigned int *)(0x1C002094)) = 0x00000337 ;
e00016cc:	09478713          	addi	a4,a5,148
e00016d0:	33700613          	li	a2,823
e00016d4:	c310                	sw	a2,0(a4)
  (*(volatile unsigned int *)(0x1C002098)) = 0x000003B7 ;
e00016d6:	09878713          	addi	a4,a5,152
e00016da:	3b700613          	li	a2,951
e00016de:	c310                	sw	a2,0(a4)
  (*(volatile unsigned int *)(0x1C00209C)) = 0x00000437 ;
e00016e0:	09c78713          	addi	a4,a5,156
e00016e4:	43700613          	li	a2,1079
e00016e8:	c310                	sw	a2,0(a4)
  (*(volatile unsigned int *)(0x1C0020A0)) = 0x000004B7 ;
e00016ea:	0a078713          	addi	a4,a5,160
e00016ee:	4b700613          	li	a2,1207
e00016f2:	c310                	sw	a2,0(a4)
  (*(volatile unsigned int *)(0x1C0020A4)) = 0x00000537 ;
e00016f4:	0a478713          	addi	a4,a5,164
e00016f8:	53700613          	li	a2,1335
e00016fc:	c310                	sw	a2,0(a4)
  (*(volatile unsigned int *)(0x1C0020A8)) = 0x000005B7 ;
e00016fe:	0a878713          	addi	a4,a5,168
e0001702:	5b700613          	li	a2,1463
e0001706:	c310                	sw	a2,0(a4)
  (*(volatile unsigned int *)(0x1C0020AC)) = 0x00000637 ;
e0001708:	0ac78713          	addi	a4,a5,172
e000170c:	63700613          	li	a2,1591
e0001710:	c310                	sw	a2,0(a4)
  (*(volatile unsigned int *)(0x1C0020B0)) = 0x000006B7 ;
e0001712:	0b078713          	addi	a4,a5,176
e0001716:	6b700613          	li	a2,1719
e000171a:	c310                	sw	a2,0(a4)
  (*(volatile unsigned int *)(0x1C0020B4)) = 0x00000737 ;
e000171c:	0b478713          	addi	a4,a5,180
e0001720:	73700613          	li	a2,1847
e0001724:	c310                	sw	a2,0(a4)
  (*(volatile unsigned int *)(0x1C0020B8)) = 0x000007B7 ;
e0001726:	0b878713          	addi	a4,a5,184
e000172a:	7b700613          	li	a2,1975
e000172e:	c310                	sw	a2,0(a4)
  (*(volatile unsigned int *)(0x1C0020BC)) = 0x00000837 ;
e0001730:	6705                	lui	a4,0x1
e0001732:	0bc78613          	addi	a2,a5,188
e0001736:	83770593          	addi	a1,a4,-1993 # 837 <_min_stack-0x17c9>
e000173a:	c20c                	sw	a1,0(a2)
  (*(volatile unsigned int *)(0x1C0020C0)) = 0x000008B7 ;
e000173c:	0c078613          	addi	a2,a5,192
e0001740:	8b770593          	addi	a1,a4,-1865
e0001744:	c20c                	sw	a1,0(a2)
  (*(volatile unsigned int *)(0x1C0020C4)) = 0x00000937 ;
e0001746:	0c478613          	addi	a2,a5,196
e000174a:	93770593          	addi	a1,a4,-1737
e000174e:	c20c                	sw	a1,0(a2)
  (*(volatile unsigned int *)(0x1C0020C8)) = 0x000009B7 ;
e0001750:	0c878613          	addi	a2,a5,200
e0001754:	9b770593          	addi	a1,a4,-1609
e0001758:	c20c                	sw	a1,0(a2)
  (*(volatile unsigned int *)(0x1C0020CC)) = 0x00000A37 ;
e000175a:	0cc78613          	addi	a2,a5,204
e000175e:	a3770593          	addi	a1,a4,-1481
e0001762:	c20c                	sw	a1,0(a2)
  (*(volatile unsigned int *)(0x1C0020D0)) = 0x00000AB7 ;
e0001764:	0d078613          	addi	a2,a5,208
e0001768:	ab770593          	addi	a1,a4,-1353
e000176c:	c20c                	sw	a1,0(a2)
  (*(volatile unsigned int *)(0x1C0020D4)) = 0x00000B37 ;
e000176e:	0d478613          	addi	a2,a5,212
e0001772:	b3770593          	addi	a1,a4,-1225
e0001776:	c20c                	sw	a1,0(a2)
  (*(volatile unsigned int *)(0x1C0020D8)) = 0x00000BB7 ;
e0001778:	0d878613          	addi	a2,a5,216
e000177c:	bb770593          	addi	a1,a4,-1097
e0001780:	c20c                	sw	a1,0(a2)
  (*(volatile unsigned int *)(0x1C0020DC)) = 0x00000C37 ;
e0001782:	0dc78613          	addi	a2,a5,220
e0001786:	c3770593          	addi	a1,a4,-969
e000178a:	c20c                	sw	a1,0(a2)
  (*(volatile unsigned int *)(0x1C0020E0)) = 0x00000CB7 ;
e000178c:	0e078613          	addi	a2,a5,224
e0001790:	cb770593          	addi	a1,a4,-841
e0001794:	c20c                	sw	a1,0(a2)
  (*(volatile unsigned int *)(0x1C0020E4)) = 0x00000D37 ;
e0001796:	0e478613          	addi	a2,a5,228
e000179a:	d3770593          	addi	a1,a4,-713
e000179e:	c20c                	sw	a1,0(a2)
  (*(volatile unsigned int *)(0x1C0020E8)) = 0x00000DB7 ;
e00017a0:	0e878613          	addi	a2,a5,232
e00017a4:	db770593          	addi	a1,a4,-585
e00017a8:	c20c                	sw	a1,0(a2)
  (*(volatile unsigned int *)(0x1C0020EC)) = 0x00000E37 ;
e00017aa:	0ec78613          	addi	a2,a5,236
e00017ae:	e3770593          	addi	a1,a4,-457
e00017b2:	c20c                	sw	a1,0(a2)
  (*(volatile unsigned int *)(0x1C0020F0)) = 0x00000EB7 ;
e00017b4:	0f078613          	addi	a2,a5,240
e00017b8:	eb770593          	addi	a1,a4,-329
e00017bc:	c20c                	sw	a1,0(a2)
  (*(volatile unsigned int *)(0x1C0020F4)) = 0x00000F37 ;
e00017be:	0f478613          	addi	a2,a5,244
e00017c2:	f3770593          	addi	a1,a4,-201
e00017c6:	c20c                	sw	a1,0(a2)
  (*(volatile unsigned int *)(0x1C0020F8)) = 0x00000FB7 ;
  (*(volatile unsigned int *)(0x1C0020FC)) = 0x0700006F ;
e00017c8:	07000537          	lui	a0,0x7000
  (*(volatile unsigned int *)(0x1C0020F8)) = 0x00000FB7 ;
e00017cc:	0f878613          	addi	a2,a5,248
e00017d0:	fb770593          	addi	a1,a4,-73
e00017d4:	c20c                	sw	a1,0(a2)
  (*(volatile unsigned int *)(0x1C0020FC)) = 0x0700006F ;
e00017d6:	0fc78613          	addi	a2,a5,252
e00017da:	06f50593          	addi	a1,a0,111 # 700006f <tohost+0x6fe0067>
e00017de:	c20c                	sw	a1,0(a2)
  (*(volatile unsigned int *)(0x1C002100)) = 0x2FA0006F ;
e00017e0:	2fa00637          	lui	a2,0x2fa00
e00017e4:	10078593          	addi	a1,a5,256
e00017e8:	06f60613          	addi	a2,a2,111 # 2fa0006f <tohost+0x2f9e0067>
e00017ec:	c190                	sw	a2,0(a1)
  (*(volatile unsigned int *)(0x1C002104)) = 0x30200073 ;
e00017ee:	30200637          	lui	a2,0x30200
e00017f2:	10478593          	addi	a1,a5,260
e00017f6:	07360613          	addi	a2,a2,115 # 30200073 <tohost+0x301e006b>
e00017fa:	c190                	sw	a2,0(a1)
  (*(volatile unsigned int *)(0x1C002108)) = 0x00100073 ;
e00017fc:	001005b7          	lui	a1,0x100
e0001800:	10878613          	addi	a2,a5,264
e0001804:	07358813          	addi	a6,a1,115 # 100073 <tohost+0xe006b>
e0001808:	01062023          	sw	a6,0(a2)
  (*(volatile unsigned int *)(0x1C00210C)) = 0x00008067 ;
e000180c:	6621                	lui	a2,0x8
e000180e:	06760613          	addi	a2,a2,103 # 8067 <_stack_len+0x67>
e0001812:	10c7a623          	sw	a2,268(a5)
  (*(volatile unsigned int *)(0x1C002110)) = 0xF3FFE117 ;
e0001816:	f3ffe637          	lui	a2,0xf3ffe
e000181a:	11760613          	addi	a2,a2,279 # f3ffe117 <fromhost+0x13fee107>
e000181e:	10c7a823          	sw	a2,272(a5)
  (*(volatile unsigned int *)(0x1C002114)) = 0xEF410113 ;
e0001822:	ef410637          	lui	a2,0xef410
e0001826:	11360613          	addi	a2,a2,275 # ef410113 <fromhost+0xf400103>
e000182a:	10c7aa23          	sw	a2,276(a5)
  (*(volatile unsigned int *)(0x1C002118)) = 0x00012103 ;
e000182e:	6649                	lui	a2,0x12
e0001830:	10360893          	addi	a7,a2,259 # 12103 <_stack_len+0xa103>
e0001834:	1117ac23          	sw	a7,280(a5)
  (*(volatile unsigned int *)(0x1C00211C)) = 0x000011B7 ;
e0001838:	1b770713          	addi	a4,a4,439
e000183c:	10e7ae23          	sw	a4,284(a5)
  (*(volatile unsigned int *)(0x1C002120)) = 0x80018193 ;
e0001840:	80018737          	lui	a4,0x80018
e0001844:	19370713          	addi	a4,a4,403 # 80018193 <fromhost+0xa0008183>
e0001848:	12e7a023          	sw	a4,288(a5)
  (*(volatile unsigned int *)(0x1C002124)) = 0x00158593 ;
e000184c:	00158737          	lui	a4,0x158
e0001850:	59370713          	addi	a4,a4,1427 # 158593 <tohost+0x13858b>
e0001854:	12e7a223          	sw	a4,292(a5)
  (*(volatile unsigned int *)(0x1C002128)) = 0x02B180B3 ;
e0001858:	02b18737          	lui	a4,0x2b18
e000185c:	0b370713          	addi	a4,a4,179 # 2b180b3 <tohost+0x2af80ab>
e0001860:	12e7a423          	sw	a4,296(a5)
  (*(volatile unsigned int *)(0x1C00212C)) = 0x00110133 ;
e0001864:	00110737          	lui	a4,0x110
e0001868:	13370713          	addi	a4,a4,307 # 110133 <tohost+0xf012b>
e000186c:	12e7a623          	sw	a4,300(a5)
  (*(volatile unsigned int *)(0x1C002130)) = 0x2E60006F ;
e0001870:	2e600737          	lui	a4,0x2e600
e0001874:	06f70713          	addi	a4,a4,111 # 2e60006f <tohost+0x2e5e0067>
e0001878:	12e7a823          	sw	a4,304(a5)
  (*(volatile unsigned int *)(0x1C002134)) = 0x10200137 ;
e000187c:	10200737          	lui	a4,0x10200
e0001880:	13770713          	addi	a4,a4,311 # 10200137 <tohost+0x101e012f>
e0001884:	12e7aa23          	sw	a4,308(a5)
  (*(volatile unsigned int *)(0x1C002138)) = 0x00100193 ;
e0001888:	19358593          	addi	a1,a1,403
e000188c:	13878713          	addi	a4,a5,312
e0001890:	c30c                	sw	a1,0(a4)
  (*(volatile unsigned int *)(0x1C00213C)) = 0x00000217 ;
e0001892:	13c78713          	addi	a4,a5,316
e0001896:	21700593          	li	a1,535
e000189a:	c30c                	sw	a1,0(a4)
  (*(volatile unsigned int *)(0x1C002140)) = 0xF4420213 ;
e000189c:	f4420737          	lui	a4,0xf4420
e00018a0:	14078593          	addi	a1,a5,320
e00018a4:	21370713          	addi	a4,a4,531 # f4420213 <fromhost+0x14410203>
e00018a8:	c198                	sw	a4,0(a1)
  (*(volatile unsigned int *)(0x1C002144)) = 0x04412023 ;
e00018aa:	04412737          	lui	a4,0x4412
e00018ae:	14478593          	addi	a1,a5,324
e00018b2:	02370713          	addi	a4,a4,35 # 4412023 <tohost+0x43f201b>
e00018b6:	c198                	sw	a4,0(a1)
  (*(volatile unsigned int *)(0x1C002148)) = 0x00312423 ;
e00018b8:	00312737          	lui	a4,0x312
e00018bc:	14878593          	addi	a1,a5,328
e00018c0:	42370713          	addi	a4,a4,1059 # 312423 <tohost+0x2f241b>
e00018c4:	c198                	sw	a4,0(a1)
  (*(volatile unsigned int *)(0x1C00214C)) = 0x1A10A137 ;
e00018c6:	1a10a737          	lui	a4,0x1a10a
e00018ca:	14c78593          	addi	a1,a5,332
e00018ce:	13770713          	addi	a4,a4,311 # 1a10a137 <tohost+0x1a0ea12f>
e00018d2:	c198                	sw	a4,0(a1)
  (*(volatile unsigned int *)(0x1C002150)) = 0x80010113 ;
e00018d4:	80010737          	lui	a4,0x80010
e00018d8:	15078593          	addi	a1,a5,336
e00018dc:	11370713          	addi	a4,a4,275 # 80010113 <fromhost+0xa0000103>
e00018e0:	c198                	sw	a4,0(a1)
  (*(volatile unsigned int *)(0x1C002154)) = 0x00012023 ;
e00018e2:	02360613          	addi	a2,a2,35
e00018e6:	15478713          	addi	a4,a5,340
  (*(volatile unsigned int *)(0x1C002158)) = 0x10500073 ;
e00018ea:	105005b7          	lui	a1,0x10500
  (*(volatile unsigned int *)(0x1C002154)) = 0x00012023 ;
e00018ee:	c310                	sw	a2,0(a4)
  (*(volatile unsigned int *)(0x1C002158)) = 0x10500073 ;
e00018f0:	07358593          	addi	a1,a1,115 # 10500073 <tohost+0x104e006b>
e00018f4:	15878613          	addi	a2,a5,344
e00018f8:	c20c                	sw	a1,0(a2)
  (*(volatile unsigned int *)(0x1C00215C)) = 0xFF1FF06F ;
e00018fa:	ff1ff637          	lui	a2,0xff1ff
e00018fe:	06f60613          	addi	a2,a2,111 # ff1ff06f <fromhost+0x1f1ef05f>
e0001902:	14c7ae23          	sw	a2,348(a5)
  (*(volatile unsigned int *)(0x1C002160)) = 0x0002A303 ;
e0001906:	0002a637          	lui	a2,0x2a
e000190a:	30360893          	addi	a7,a2,771 # 2a303 <tohost+0xa2fb>
  (*(volatile unsigned int *)(0x1C002164)) = 0xFA0316E3 ;
e000190e:	fa031837          	lui	a6,0xfa031
  (*(volatile unsigned int *)(0x1C002160)) = 0x0002A303 ;
e0001912:	1717a023          	sw	a7,352(a5)
  (*(volatile unsigned int *)(0x1C002164)) = 0xFA0316E3 ;
e0001916:	6e380813          	addi	a6,a6,1763 # fa0316e3 <fromhost+0x1a0216d3>
e000191a:	1707a223          	sw	a6,356(a5)
  (*(volatile unsigned int *)(0x1C002168)) = 0xFF9FF06F ;
e000191e:	ff9ff837          	lui	a6,0xff9ff
e0001922:	06f80813          	addi	a6,a6,111 # ff9ff06f <fromhost+0x1f9ef05f>
  (*(volatile unsigned int *)(0x1C00216C)) = 0xF1402573 ;
e0001926:	f1402e37          	lui	t3,0xf1402
  (*(volatile unsigned int *)(0x1C002168)) = 0xFF9FF06F ;
e000192a:	1707a423          	sw	a6,360(a5)
  (*(volatile unsigned int *)(0x1C00216C)) = 0xF1402573 ;
e000192e:	573e0e13          	addi	t3,t3,1395 # f1402573 <fromhost+0x113f2563>
  (*(volatile unsigned int *)(0x1C002170)) = 0x01F57593 ;
e0001932:	01f57837          	lui	a6,0x1f57
  (*(volatile unsigned int *)(0x1C00216C)) = 0xF1402573 ;
e0001936:	17c7a623          	sw	t3,364(a5)
  (*(volatile unsigned int *)(0x1C002170)) = 0x01F57593 ;
e000193a:	59380813          	addi	a6,a6,1427 # 1f57593 <tohost+0x1f3758b>
e000193e:	1707a823          	sw	a6,368(a5)
  (*(volatile unsigned int *)(0x1C002174)) = 0x100002B7 ;
e0001942:	2b768893          	addi	a7,a3,695
e0001946:	1717aa23          	sw	a7,372(a5)
  (*(volatile unsigned int *)(0x1C002178)) = 0x0002A023 ;
e000194a:	02360613          	addi	a2,a2,35
  (*(volatile unsigned int *)(0x1C00217C)) = 0x00050463 ;
e000194e:	00050837          	lui	a6,0x50
  (*(volatile unsigned int *)(0x1C002178)) = 0x0002A023 ;
e0001952:	16c7ac23          	sw	a2,376(a5)
  (*(volatile unsigned int *)(0x1C00217C)) = 0x00050463 ;
e0001956:	46380813          	addi	a6,a6,1123 # 50463 <tohost+0x3045b>
e000195a:	1707ae23          	sw	a6,380(a5)
  (*(volatile unsigned int *)(0x1C002180)) = 0xFE1FF06F ;
e000195e:	fe1ff837          	lui	a6,0xfe1ff
e0001962:	06f80813          	addi	a6,a6,111 # fe1ff06f <fromhost+0x1e1ef05f>
e0001966:	1907a023          	sw	a6,384(a5)
  (*(volatile unsigned int *)(0x1C002184)) = 0xFFFFE297 ;
e000196a:	7879                	lui	a6,0xffffe
e000196c:	29780313          	addi	t1,a6,663 # ffffe297 <fromhost+0x1ffee287>
  (*(volatile unsigned int *)(0x1C002188)) = 0x79C28293 ;
e0001970:	79c288b7          	lui	a7,0x79c28
  (*(volatile unsigned int *)(0x1C002184)) = 0xFFFFE297 ;
e0001974:	1867a223          	sw	t1,388(a5)
  (*(volatile unsigned int *)(0x1C002188)) = 0x79C28293 ;
e0001978:	29388893          	addi	a7,a7,659 # 79c28293 <tohost+0x79c0828b>
e000197c:	1917a423          	sw	a7,392(a5)
  (*(volatile unsigned int *)(0x1C00218C)) = 0xFFFFE317 ;
e0001980:	31780813          	addi	a6,a6,791
e0001984:	1907a623          	sw	a6,396(a5)
  (*(volatile unsigned int *)(0x1C002190)) = 0x7BC30313 ;
e0001988:	7bc30837          	lui	a6,0x7bc30
e000198c:	31380813          	addi	a6,a6,787 # 7bc30313 <tohost+0x7bc1030b>
e0001990:	1907a823          	sw	a6,400(a5)
  (*(volatile unsigned int *)(0x1C002194)) = 0x0002A023 ;
e0001994:	18c7aa23          	sw	a2,404(a5)
  (*(volatile unsigned int *)(0x1C002198)) = 0xEDE30291 ;
e0001998:	ede30637          	lui	a2,0xede30
e000199c:	29160613          	addi	a2,a2,657 # ede30291 <fromhost+0xde20281>
e00019a0:	18c7ac23          	sw	a2,408(a5)
  (*(volatile unsigned int *)(0x1C00219C)) = 0xE117FE62 ;
e00019a4:	e1180637          	lui	a2,0xe1180
e00019a8:	e6260613          	addi	a2,a2,-414 # e117fe62 <fromhost+0x116fe52>
e00019ac:	18c7ae23          	sw	a2,412(a5)
  (*(volatile unsigned int *)(0x1C0021A0)) = 0x0113FFFF ;
e00019b0:	01140637          	lui	a2,0x1140
e00019b4:	167d                	addi	a2,a2,-1 # 113ffff <tohost+0x111fff7>
e00019b6:	1ac7a023          	sw	a2,416(a5)
  (*(volatile unsigned int *)(0x1C0021A4)) = 0x00EF7821 ;
e00019ba:	00ef8637          	lui	a2,0xef8
e00019be:	82160893          	addi	a7,a2,-2015 # ef7821 <tohost+0xed7819>
  (*(volatile unsigned int *)(0x1C0021A8)) = 0x25730C80 ;
e00019c2:	25731837          	lui	a6,0x25731
  (*(volatile unsigned int *)(0x1C0021A4)) = 0x00EF7821 ;
e00019c6:	1b17a223          	sw	a7,420(a5)
  (*(volatile unsigned int *)(0x1C0021A8)) = 0x25730C80 ;
e00019ca:	c8080813          	addi	a6,a6,-896 # 25730c80 <tohost+0x25710c78>
e00019ce:	1b07a423          	sw	a6,424(a5)
  (*(volatile unsigned int *)(0x1C0021AC)) = 0x7593F140 ;
e00019d2:	7593f837          	lui	a6,0x7593f
e00019d6:	14080813          	addi	a6,a6,320 # 7593f140 <tohost+0x7591f138>
e00019da:	1b07a623          	sw	a6,428(a5)
  (*(volatile unsigned int *)(0x1C0021B0)) = 0x02B701F5 ;
e00019de:	02b70837          	lui	a6,0x2b70
e00019e2:	1f580813          	addi	a6,a6,501 # 2b701f5 <tohost+0x2b501ed>
e00019e6:	1b07a823          	sw	a6,432(a5)
  (*(volatile unsigned int *)(0x1C0021B4)) = 0x43051000 ;
e00019ea:	430518b7          	lui	a7,0x43051
  (*(volatile unsigned int *)(0x1C0021B8)) = 0x0062A023 ;
e00019ee:	0062a837          	lui	a6,0x62a
  (*(volatile unsigned int *)(0x1C0021B4)) = 0x43051000 ;
e00019f2:	1b17aa23          	sw	a7,436(a5)
  (*(volatile unsigned int *)(0x1C0021B8)) = 0x0062A023 ;
e00019f6:	02380813          	addi	a6,a6,35 # 62a023 <tohost+0x60a01b>
e00019fa:	1b07ac23          	sw	a6,440(a5)
  (*(volatile unsigned int *)(0x1C0021BC)) = 0xF55FF06F ;
e00019fe:	f55ff837          	lui	a6,0xf55ff
e0001a02:	06f80813          	addi	a6,a6,111 # f55ff06f <fromhost+0x155ef05f>
e0001a06:	1b07ae23          	sw	a6,444(a5)
  (*(volatile unsigned int *)(0x1C0021C0)) = 0x00000513 ;
e0001a0a:	51300893          	li	a7,1299
e0001a0e:	1d17a023          	sw	a7,448(a5)
  (*(volatile unsigned int *)(0x1C0021C4)) = 0x00000593 ;
e0001a12:	59300893          	li	a7,1427
e0001a16:	1d17a223          	sw	a7,452(a5)
  (*(volatile unsigned int *)(0x1C0021C8)) = 0x00000397 ;
  (*(volatile unsigned int *)(0x1C0021CC)) = 0x01838393 ;
e0001a1a:	01838837          	lui	a6,0x1838
  (*(volatile unsigned int *)(0x1C0021C8)) = 0x00000397 ;
e0001a1e:	39700893          	li	a7,919
e0001a22:	1d17a423          	sw	a7,456(a5)
  (*(volatile unsigned int *)(0x1C0021CC)) = 0x01838393 ;
e0001a26:	39380813          	addi	a6,a6,915 # 1838393 <tohost+0x181838b>
e0001a2a:	1d07a623          	sw	a6,460(a5)
  (*(volatile unsigned int *)(0x1C0021D0)) = 0x000380E7 ;
e0001a2e:	00038837          	lui	a6,0x38
e0001a32:	0e780813          	addi	a6,a6,231 # 380e7 <tohost+0x180df>
e0001a36:	1d07a823          	sw	a6,464(a5)
  (*(volatile unsigned int *)(0x1C0021D4)) = 0x00EF842A ;
e0001a3a:	42a60613          	addi	a2,a2,1066
e0001a3e:	1cc7aa23          	sw	a2,468(a5)
  (*(volatile unsigned int *)(0x1C0021D8)) = 0x85220DC0 ;
e0001a42:	85221637          	lui	a2,0x85221
e0001a46:	dc060613          	addi	a2,a2,-576 # 85220dc0 <fromhost+0xa5210db0>
e0001a4a:	1cc7ac23          	sw	a2,472(a5)
  (*(volatile unsigned int *)(0x1C0021DC)) = 0x070000EF ;
e0001a4e:	0ef50513          	addi	a0,a0,239
e0001a52:	1dc78613          	addi	a2,a5,476
e0001a56:	c208                	sw	a0,0(a2)
  (*(volatile unsigned int *)(0x1C0021E0)) = 0x27F31141 ;
e0001a58:	27f31537          	lui	a0,0x27f31
e0001a5c:	1e078613          	addi	a2,a5,480
e0001a60:	14150813          	addi	a6,a0,321 # 27f31141 <tohost+0x27f11139>
e0001a64:	01062023          	sw	a6,0(a2)
  (*(volatile unsigned int *)(0x1C0021E4)) = 0xC606F140 ;
e0001a68:	c606f637          	lui	a2,0xc606f
e0001a6c:	14060613          	addi	a2,a2,320 # c606f140 <fromhost+0xe605f130>
e0001a70:	1ec7a223          	sw	a2,484(a5)
  (*(volatile unsigned int *)(0x1C0021E8)) = 0xF457B7B3 ;
e0001a74:	f457b637          	lui	a2,0xf457b
e0001a78:	7b360613          	addi	a2,a2,1971 # f457b7b3 <fromhost+0x1456b7a3>
e0001a7c:	1ec7a423          	sw	a2,488(a5)
  (*(volatile unsigned int *)(0x1C0021EC)) = 0x07B7EB81 ;
e0001a80:	07b7f637          	lui	a2,0x7b7f
e0001a84:	b8160613          	addi	a2,a2,-1151 # 7b7eb81 <tohost+0x7b5eb79>
e0001a88:	1ec7a623          	sw	a2,492(a5)
  (*(volatile unsigned int *)(0x1C0021F0)) = 0xA0231000 ;
e0001a8c:	a0231837          	lui	a6,0xa0231
e0001a90:	1f078613          	addi	a2,a5,496
e0001a94:	01062023          	sw	a6,0(a2)
  (*(volatile unsigned int *)(0x1C0021F4)) = 0x43980007 ;
e0001a98:	43980637          	lui	a2,0x43980
e0001a9c:	061d                	addi	a2,a2,7 # 43980007 <tohost+0x4395ffff>
e0001a9e:	1ec7aa23          	sw	a2,500(a5)
  (*(volatile unsigned int *)(0x1C0021F8)) = 0xC3980705 ;
e0001aa2:	c3980637          	lui	a2,0xc3980
e0001aa6:	70560613          	addi	a2,a2,1797 # c3980705 <fromhost+0xe39706f5>
e0001aaa:	1ec7ac23          	sw	a2,504(a5)
  (*(volatile unsigned int *)(0x1C0021FC)) = 0x073724F1 ;
e0001aae:	07372637          	lui	a2,0x7372
e0001ab2:	4f160613          	addi	a2,a2,1265 # 73724f1 <tohost+0x73524e9>
e0001ab6:	1ec7ae23          	sw	a2,508(a5)
  (*(volatile unsigned int *)(0x1C002200)) = 0x27F31000 ;
e0001aba:	20078613          	addi	a2,a5,512
e0001abe:	c208                	sw	a0,0(a2)
  (*(volatile unsigned int *)(0x1C002204)) = 0xB7B3F140 ;
e0001ac0:	b7b3f637          	lui	a2,0xb7b3f
e0001ac4:	14060613          	addi	a2,a2,320 # b7b3f140 <fromhost+0xd7b2f130>
e0001ac8:	20478513          	addi	a0,a5,516
e0001acc:	c110                	sw	a2,0(a0)
  (*(volatile unsigned int *)(0x1C002208)) = 0x4314F457 ;
e0001ace:	4314f537          	lui	a0,0x4314f
e0001ad2:	45750513          	addi	a0,a0,1111 # 4314f457 <tohost+0x4312f44f>
e0001ad6:	20a7a423          	sw	a0,520(a5)
  (*(volatile unsigned int *)(0x1C00220C)) = 0xFEF6EFE3 ;
e0001ada:	fef6f537          	lui	a0,0xfef6f
e0001ade:	150d                	addi	a0,a0,-29 # fef6efe3 <fromhost+0x1ef5efd3>
e0001ae0:	20a7a623          	sw	a0,524(a5)
  (*(volatile unsigned int *)(0x1C002210)) = 0x431CC781 ;
e0001ae4:	431cc537          	lui	a0,0x431cc
e0001ae8:	78150513          	addi	a0,a0,1921 # 431cc781 <tohost+0x431ac779>
e0001aec:	20a7a823          	sw	a0,528(a5)
  (*(volatile unsigned int *)(0x1C002214)) = 0xC31C0785 ;
e0001af0:	c31c0537          	lui	a0,0xc31c0
e0001af4:	78550513          	addi	a0,a0,1925 # c31c0785 <fromhost+0xe31b0775>
e0001af8:	20a7aa23          	sw	a0,532(a5)
  (*(volatile unsigned int *)(0x1C002218)) = 0x27F32C45 ;
e0001afc:	27f33537          	lui	a0,0x27f33
e0001b00:	c4550513          	addi	a0,a0,-955 # 27f32c45 <tohost+0x27f12c3d>
e0001b04:	20a7ac23          	sw	a0,536(a5)
  (*(volatile unsigned int *)(0x1C00221C)) = 0xB7B3F140 ;
e0001b08:	21c78513          	addi	a0,a5,540
e0001b0c:	c110                	sw	a2,0(a0)
  (*(volatile unsigned int *)(0x1C002220)) = 0xE789F457 ;
e0001b0e:	e789f537          	lui	a0,0xe789f
e0001b12:	45750513          	addi	a0,a0,1111 # e789f457 <fromhost+0x788f447>
e0001b16:	22a7a023          	sw	a0,544(a5)
  (*(volatile unsigned int *)(0x1C002224)) = 0x104037B7 ;
e0001b1a:	10403537          	lui	a0,0x10403
e0001b1e:	7b750513          	addi	a0,a0,1975 # 104037b7 <tohost+0x103e37af>
e0001b22:	22a7a223          	sw	a0,548(a5)
  (*(volatile unsigned int *)(0x1C002228)) = 0x0007A023 ;
e0001b26:	0007a537          	lui	a0,0x7a
e0001b2a:	02350513          	addi	a0,a0,35 # 7a023 <tohost+0x5a01b>
e0001b2e:	22a7a423          	sw	a0,552(a5)
  (*(volatile unsigned int *)(0x1C00222C)) = 0x10500073 ;
e0001b32:	22c78513          	addi	a0,a5,556
e0001b36:	c10c                	sw	a1,0(a0)
  (*(volatile unsigned int *)(0x1C002230)) = 0x16B7BFF5 ;
e0001b38:	16b7c5b7          	lui	a1,0x16b7c
e0001b3c:	23078513          	addi	a0,a5,560
e0001b40:	15d5                	addi	a1,a1,-11 # 16b7bff5 <tohost+0x16b5bfed>
e0001b42:	c10c                	sw	a1,0(a0)
  (*(volatile unsigned int *)(0x1C002234)) = 0x57B71C00 ;
e0001b44:	57b725b7          	lui	a1,0x57b72
e0001b48:	23478513          	addi	a0,a5,564
e0001b4c:	c0058593          	addi	a1,a1,-1024 # 57b71c00 <tohost+0x57b51bf8>
  (*(volatile unsigned int *)(0x1C002238)) = 0x8793004C ;
e0001b50:	879308b7          	lui	a7,0x87930
  (*(volatile unsigned int *)(0x1C002234)) = 0x57B71C00 ;
e0001b54:	c10c                	sw	a1,0(a0)
  (*(volatile unsigned int *)(0x1C002238)) = 0x8793004C ;
e0001b56:	23878593          	addi	a1,a5,568
e0001b5a:	04c88513          	addi	a0,a7,76 # 8793004c <fromhost+0xa792003c>
e0001b5e:	c188                	sw	a0,0(a1)
  (*(volatile unsigned int *)(0x1C00223C)) = 0x8713B407 ;
e0001b60:	8713b5b7          	lui	a1,0x8713b
e0001b64:	23c78513          	addi	a0,a5,572
e0001b68:	40758593          	addi	a1,a1,1031 # 8713b407 <fromhost+0xa712b3f7>
e0001b6c:	c10c                	sw	a1,0(a0)
  (*(volatile unsigned int *)(0x1C002240)) = 0xA4239286 ;
e0001b6e:	a42395b7          	lui	a1,0xa4239
e0001b72:	24078513          	addi	a0,a5,576
e0001b76:	28658593          	addi	a1,a1,646 # a4239286 <fromhost+0xc4229276>
e0001b7a:	c10c                	sw	a1,0(a0)
  (*(volatile unsigned int *)(0x1C002244)) = 0xC71C92F6 ;
e0001b7c:	c71c95b7          	lui	a1,0xc71c9
e0001b80:	24478513          	addi	a0,a5,580
e0001b84:	2f658593          	addi	a1,a1,758 # c71c92f6 <fromhost+0xe71b92e6>
  (*(volatile unsigned int *)(0x1C002248)) = 0x8082C35C ;
e0001b88:	8082c837          	lui	a6,0x8082c
  (*(volatile unsigned int *)(0x1C002244)) = 0xC71C92F6 ;
e0001b8c:	c10c                	sw	a1,0(a0)
  (*(volatile unsigned int *)(0x1C002248)) = 0x8082C35C ;
e0001b8e:	24878593          	addi	a1,a5,584
e0001b92:	35c80513          	addi	a0,a6,860 # 8082c35c <fromhost+0xa081c34c>
e0001b96:	c188                	sw	a0,0(a1)
  (*(volatile unsigned int *)(0x1C00224C)) = 0x1A1047B7 ;
e0001b98:	1a1045b7          	lui	a1,0x1a104
e0001b9c:	24c78513          	addi	a0,a5,588
e0001ba0:	7b758593          	addi	a1,a1,1975 # 1a1047b7 <tohost+0x1a0e47af>
e0001ba4:	c10c                	sw	a1,0(a0)
  (*(volatile unsigned int *)(0x1C002250)) = 0xC1F54533 ;
e0001ba6:	c1f545b7          	lui	a1,0xc1f54
e0001baa:	25078513          	addi	a0,a5,592
e0001bae:	53358593          	addi	a1,a1,1331 # c1f54533 <fromhost+0xe1f44523>
e0001bb2:	c10c                	sw	a1,0(a0)
  (*(volatile unsigned int *)(0x1C002254)) = 0x0AA7A023 ;
e0001bb4:	0aa7a5b7          	lui	a1,0xaa7a
e0001bb8:	25478513          	addi	a0,a5,596
e0001bbc:	02358593          	addi	a1,a1,35 # aa7a023 <tohost+0xaa5a01b>
e0001bc0:	c10c                	sw	a1,0(a0)
  (*(volatile unsigned int *)(0x1C002258)) = 0x47B7577D ;
e0001bc2:	47b755b7          	lui	a1,0x47b75
e0001bc6:	25878513          	addi	a0,a5,600
e0001bca:	77d58593          	addi	a1,a1,1917 # 47b7577d <tohost+0x47b55775>
e0001bce:	c10c                	sw	a1,0(a0)
  (*(volatile unsigned int *)(0x1C00225C)) = 0xC3D80020 ;
e0001bd0:	c3d805b7          	lui	a1,0xc3d80
e0001bd4:	25c78513          	addi	a0,a5,604
e0001bd8:	02058593          	addi	a1,a1,32 # c3d80020 <fromhost+0xe3d70010>
e0001bdc:	c10c                	sw	a1,0(a0)
  (*(volatile unsigned int *)(0x1C002260)) = 0x0387E703 ;
e0001bde:	0387e5b7          	lui	a1,0x387e
e0001be2:	26078513          	addi	a0,a5,608
e0001be6:	70358593          	addi	a1,a1,1795 # 387e703 <tohost+0x385e6fb>
e0001bea:	c10c                	sw	a1,0(a0)
  (*(volatile unsigned int *)(0x1C002264)) = 0x4501A001 ;
e0001bec:	4501a5b7          	lui	a1,0x4501a
e0001bf0:	26478513          	addi	a0,a5,612
e0001bf4:	0585                	addi	a1,a1,1 # 4501a001 <tohost+0x44ff9ff9>
e0001bf6:	c10c                	sw	a1,0(a0)
  (*(volatile unsigned int *)(0x1C002268)) = 0x45018082 ;
e0001bf8:	450185b7          	lui	a1,0x45018
e0001bfc:	26878513          	addi	a0,a5,616
e0001c00:	08258593          	addi	a1,a1,130 # 45018082 <tohost+0x44ff807a>
e0001c04:	c10c                	sw	a1,0(a0)
  (*(volatile unsigned int *)(0x1C00226C)) = 0x11418082 ;
e0001c06:	11418537          	lui	a0,0x11418
e0001c0a:	26c78593          	addi	a1,a5,620
e0001c0e:	08250513          	addi	a0,a0,130 # 11418082 <tohost+0x113f807a>
  (*(volatile unsigned int *)(0x1C002270)) = 0x0437C422 ;
e0001c12:	0437c337          	lui	t1,0x437c
  (*(volatile unsigned int *)(0x1C00226C)) = 0x11418082 ;
e0001c16:	c188                	sw	a0,0(a1)
  (*(volatile unsigned int *)(0x1C002270)) = 0x0437C422 ;
e0001c18:	42230313          	addi	t1,t1,1058 # 437c422 <tohost+0x435c41a>
e0001c1c:	27078593          	addi	a1,a5,624
e0001c20:	0065a023          	sw	t1,0(a1)
  (*(volatile unsigned int *)(0x1C002274)) = 0xC6061C00 ;
e0001c24:	c60625b7          	lui	a1,0xc6062
e0001c28:	c0058593          	addi	a1,a1,-1024 # c6061c00 <fromhost+0xe6051bf0>
  (*(volatile unsigned int *)(0x1C002278)) = 0x10440413 ;
e0001c2c:	10440eb7          	lui	t4,0x10440
  (*(volatile unsigned int *)(0x1C002274)) = 0xC6061C00 ;
e0001c30:	26b7aa23          	sw	a1,628(a5)
  (*(volatile unsigned int *)(0x1C002278)) = 0x10440413 ;
e0001c34:	413e8e93          	addi	t4,t4,1043 # 10440413 <tohost+0x1042040b>
e0001c38:	27d7ac23          	sw	t4,632(a5)
  (*(volatile unsigned int *)(0x1C00227C)) = 0x2ABD3F5D ;
e0001c3c:	2abd4eb7          	lui	t4,0x2abd4
e0001c40:	f5de8e93          	addi	t4,t4,-163 # 2abd3f5d <tohost+0x2abb3f55>
e0001c44:	27d7ae23          	sw	t4,636(a5)
  (*(volatile unsigned int *)(0x1C002280)) = 0x28D92A51 ;
e0001c48:	28d93eb7          	lui	t4,0x28d93
e0001c4c:	a51e8e93          	addi	t4,t4,-1455 # 28d92a51 <tohost+0x28d72a49>
e0001c50:	29d7a023          	sw	t4,640(a5)
  (*(volatile unsigned int *)(0x1C002284)) = 0xC791405C ;
e0001c54:	c7914eb7          	lui	t4,0xc7914
e0001c58:	05ce8e93          	addi	t4,t4,92 # c791405c <fromhost+0xe790404c>
e0001c5c:	29d7a223          	sw	t4,644(a5)
  (*(volatile unsigned int *)(0x1C002288)) = 0x97820421 ;
e0001c60:	97820eb7          	lui	t4,0x97820
e0001c64:	421e8e93          	addi	t4,t4,1057 # 97820421 <fromhost+0xb7810411>
e0001c68:	29d7a423          	sw	t4,648(a5)
  (*(volatile unsigned int *)(0x1C00228C)) = 0x0044278B ;
e0001c6c:	00442eb7          	lui	t4,0x442
e0001c70:	78be8e93          	addi	t4,t4,1931 # 44278b <tohost+0x422783>
e0001c74:	29d7a623          	sw	t4,652(a5)
  (*(volatile unsigned int *)(0x1C002290)) = 0x3FD1FFED ;
e0001c78:	3fd20eb7          	lui	t4,0x3fd20
e0001c7c:	1eb5                	addi	t4,t4,-19 # 3fd1ffed <tohost+0x3fcfffe5>
e0001c7e:	29d7a823          	sw	t4,656(a5)
  (*(volatile unsigned int *)(0x1C002294)) = 0x300467F3 ;
e0001c82:	30046eb7          	lui	t4,0x30046
e0001c86:	7f3e8e93          	addi	t4,t4,2035 # 300467f3 <tohost+0x300267eb>
e0001c8a:	29d7aa23          	sw	t4,660(a5)
  (*(volatile unsigned int *)(0x1C002298)) = 0x40B24422 ;
e0001c8e:	40b24eb7          	lui	t4,0x40b24
e0001c92:	422e8e93          	addi	t4,t4,1058 # 40b24422 <tohost+0x40b0441a>
e0001c96:	29d7ac23          	sw	t4,664(a5)
  (*(volatile unsigned int *)(0x1C00229C)) = 0xF1402573 ;
e0001c9a:	29c7ae23          	sw	t3,668(a5)
  (*(volatile unsigned int *)(0x1C0022A0)) = 0x1C0025B7 ;
e0001c9e:	5b778e93          	addi	t4,a5,1463
  (*(volatile unsigned int *)(0x1C0022A4)) = 0x85938515 ;
e0001ca2:	85938e37          	lui	t3,0x85938
  (*(volatile unsigned int *)(0x1C0022A0)) = 0x1C0025B7 ;
e0001ca6:	2bd7a023          	sw	t4,672(a5)
  (*(volatile unsigned int *)(0x1C0022A4)) = 0x85938515 ;
e0001caa:	515e0e13          	addi	t3,t3,1301 # 85938515 <fromhost+0xa5928505>
e0001cae:	2bc7a223          	sw	t3,676(a5)
  (*(volatile unsigned int *)(0x1C0022A8)) = 0x35331E05 ;
e0001cb2:	35332e37          	lui	t3,0x35332
e0001cb6:	e05e0e13          	addi	t3,t3,-507 # 35331e05 <tohost+0x35311dfd>
e0001cba:	2bc7a423          	sw	t3,680(a5)
  (*(volatile unsigned int *)(0x1C0022AC)) = 0x0141F265 ;
e0001cbe:	0141fe37          	lui	t3,0x141f
e0001cc2:	265e0e13          	addi	t3,t3,613 # 141f265 <tohost+0x13ff25d>
e0001cc6:	2bc7a623          	sw	t3,684(a5)
  (*(volatile unsigned int *)(0x1C0022B0)) = 0x1141A2D1 ;
e0001cca:	1141ae37          	lui	t3,0x1141a
e0001cce:	2d1e0e13          	addi	t3,t3,721 # 1141a2d1 <tohost+0x113fa2c9>
e0001cd2:	2bc7a823          	sw	t3,688(a5)
  (*(volatile unsigned int *)(0x1C0022B4)) = 0x0437C422 ;
e0001cd6:	2a67aa23          	sw	t1,692(a5)
  (*(volatile unsigned int *)(0x1C0022B8)) = 0xC6061C00 ;
  (*(volatile unsigned int *)(0x1C0022BC)) = 0x11040413 ;
e0001cda:	11040337          	lui	t1,0x11040
  (*(volatile unsigned int *)(0x1C0022B8)) = 0xC6061C00 ;
e0001cde:	2ab7ac23          	sw	a1,696(a5)
  (*(volatile unsigned int *)(0x1C0022BC)) = 0x11040413 ;
e0001ce2:	41330313          	addi	t1,t1,1043 # 11040413 <tohost+0x1102040b>
e0001ce6:	2a67ae23          	sw	t1,700(a5)
  (*(volatile unsigned int *)(0x1C0022C0)) = 0x405C376D ;
e0001cea:	405c3337          	lui	t1,0x405c3
e0001cee:	76d30313          	addi	t1,t1,1901 # 405c376d <tohost+0x405a3765>
e0001cf2:	2c67a023          	sw	t1,704(a5)
  (*(volatile unsigned int *)(0x1C0022C4)) = 0x0421C791 ;
e0001cf6:	0421c337          	lui	t1,0x421c
e0001cfa:	79130313          	addi	t1,t1,1937 # 421c791 <tohost+0x41fc789>
e0001cfe:	2c67a223          	sw	t1,708(a5)
  (*(volatile unsigned int *)(0x1C0022C8)) = 0x278B9782 ;
e0001d02:	278b9337          	lui	t1,0x278b9
e0001d06:	78230313          	addi	t1,t1,1922 # 278b9782 <tohost+0x2789977a>
e0001d0a:	2c67a423          	sw	t1,712(a5)
  (*(volatile unsigned int *)(0x1C0022CC)) = 0xFFED0044 ;
e0001d0e:	ffed0337          	lui	t1,0xffed0
e0001d12:	04430313          	addi	t1,t1,68 # ffed0044 <fromhost+0x1fec0034>
e0001d16:	2c67a623          	sw	t1,716(a5)
  (*(volatile unsigned int *)(0x1C0022D0)) = 0x442240B2 ;
e0001d1a:	44224337          	lui	t1,0x44224
e0001d1e:	0b230313          	addi	t1,t1,178 # 442240b2 <tohost+0x442040aa>
e0001d22:	2c67a823          	sw	t1,720(a5)
  (*(volatile unsigned int *)(0x1C0022D4)) = 0x80820141 ;
e0001d26:	80820337          	lui	t1,0x80820
e0001d2a:	14130e93          	addi	t4,t1,321 # 80820141 <fromhost+0xa0810131>
  (*(volatile unsigned int *)(0x1C0022D8)) = 0x00758793 ;
e0001d2e:	00758e37          	lui	t3,0x758
  (*(volatile unsigned int *)(0x1C0022D4)) = 0x80820141 ;
e0001d32:	2dd7aa23          	sw	t4,724(a5)
  (*(volatile unsigned int *)(0x1C0022D8)) = 0x00758793 ;
e0001d36:	793e0e13          	addi	t3,t3,1939 # 758793 <tohost+0x73878b>
e0001d3a:	2dc7ac23          	sw	t3,728(a5)
  (*(volatile unsigned int *)(0x1C0022DC)) = 0xC407B7B3 ;
e0001d3e:	c407be37          	lui	t3,0xc407b
e0001d42:	7b3e0e13          	addi	t3,t3,1971 # c407b7b3 <fromhost+0xe406b7a3>
e0001d46:	2dc7ae23          	sw	t3,732(a5)
  (*(volatile unsigned int *)(0x1C0022E0)) = 0x40B785B3 ;
e0001d4a:	40b78e37          	lui	t3,0x40b78
e0001d4e:	5b3e0e13          	addi	t3,t3,1459 # 40b785b3 <tohost+0x40b585ab>
e0001d52:	2fc7a023          	sw	t3,736(a5)
  (*(volatile unsigned int *)(0x1C0022E4)) = 0x8E0DC11C ;
e0001d56:	8e0dce37          	lui	t3,0x8e0dc
e0001d5a:	11ce0e13          	addi	t3,t3,284 # 8e0dc11c <fromhost+0xae0cc10c>
e0001d5e:	2fc7a223          	sw	t3,740(a5)
  (*(volatile unsigned int *)(0x1C0022E8)) = 0x00C05763 ;
e0001d62:	00c05e37          	lui	t3,0xc05
e0001d66:	763e0e13          	addi	t3,t3,1891 # c05763 <tohost+0xbe575b>
e0001d6a:	2fc7a423          	sw	t3,744(a5)
  (*(volatile unsigned int *)(0x1C0022EC)) = 0xC4063633 ;
e0001d6e:	c4063e37          	lui	t3,0xc4063
e0001d72:	633e0e13          	addi	t3,t3,1587 # c4063633 <fromhost+0xe4053623>
e0001d76:	2fc7a623          	sw	t3,748(a5)
  (*(volatile unsigned int *)(0x1C0022F0)) = 0xA223C390 ;
e0001d7a:	a223ce37          	lui	t3,0xa223c
e0001d7e:	390e0e13          	addi	t3,t3,912 # a223c390 <fromhost+0xc222c380>
e0001d82:	2fc7a823          	sw	t3,752(a5)
  (*(volatile unsigned int *)(0x1C0022F4)) = 0x80820007 ;
e0001d86:	031d                	addi	t1,t1,7
e0001d88:	2e67aa23          	sw	t1,756(a5)
  (*(volatile unsigned int *)(0x1C0022F8)) = 0x059D4110 ;
e0001d8c:	059d4337          	lui	t1,0x59d4
e0001d90:	11030313          	addi	t1,t1,272 # 59d4110 <tohost+0x59b4108>
e0001d94:	2e67ac23          	sw	t1,760(a5)
  (*(volatile unsigned int *)(0x1C0022FC)) = 0xC405B5B3 ;
e0001d98:	c405b337          	lui	t1,0xc405b
e0001d9c:	5b330313          	addi	t1,t1,1459 # c405b5b3 <fromhost+0xe404b5a3>
e0001da0:	2e67ae23          	sw	t1,764(a5)
  (*(volatile unsigned int *)(0x1C002300)) = 0x4218CA31 ;
e0001da4:	4218d337          	lui	t1,0x4218d
e0001da8:	a3130313          	addi	t1,t1,-1487 # 4218ca31 <tohost+0x4216ca29>
e0001dac:	3067a023          	sw	t1,768(a5)
  (*(volatile unsigned int *)(0x1C002304)) = 0x5963425C ;
e0001db0:	59634337          	lui	t1,0x59634
e0001db4:	25c30313          	addi	t1,t1,604 # 5963425c <tohost+0x59614254>
e0001db8:	3067a223          	sw	t1,772(a5)
  (*(volatile unsigned int *)(0x1C002308)) = 0xCB8102B7 ;
e0001dbc:	cb810337          	lui	t1,0xcb810
e0001dc0:	2b730313          	addi	t1,t1,695 # cb8102b7 <fromhost+0xeb8002a7>
e0001dc4:	3067a423          	sw	t1,776(a5)
  (*(volatile unsigned int *)(0x1C00230C)) = 0x43D44398 ;
e0001dc8:	43d44337          	lui	t1,0x43d44
e0001dcc:	39830313          	addi	t1,t1,920 # 43d44398 <tohost+0x43d24390>
e0001dd0:	3067a623          	sw	t1,780(a5)
  (*(volatile unsigned int *)(0x1C002310)) = 0x00B75763 ;
e0001dd4:	00b75337          	lui	t1,0xb75
e0001dd8:	76330313          	addi	t1,t1,1891 # b75763 <tohost+0xb5575b>
e0001ddc:	3067a823          	sw	t1,784(a5)
  (*(volatile unsigned int *)(0x1C002314)) = 0x87B6863E ;
e0001de0:	87b68337          	lui	t1,0x87b68
e0001de4:	63e30313          	addi	t1,t1,1598 # 87b6863e <fromhost+0xa7b5862e>
e0001de8:	3067aa23          	sw	t1,788(a5)
  (*(volatile unsigned int *)(0x1C002318)) = 0x853EFBF5 ;
e0001dec:	853f0337          	lui	t1,0x853f0
e0001df0:	bf530313          	addi	t1,t1,-1035 # 853efbf5 <fromhost+0xa53dfbe5>
e0001df4:	3067ac23          	sw	t1,792(a5)
  (*(volatile unsigned int *)(0x1C00231C)) = 0x0A638082 ;
e0001df8:	0a638337          	lui	t1,0xa638
e0001dfc:	08230313          	addi	t1,t1,130 # a638082 <tohost+0xa61807a>
e0001e00:	3067ae23          	sw	t1,796(a5)
  (*(volatile unsigned int *)(0x1C002320)) = 0x853300B7 ;
e0001e04:	85330337          	lui	t1,0x85330
e0001e08:	0b730313          	addi	t1,t1,183 # 853300b7 <fromhost+0xa53200a7>
e0001e0c:	3267a023          	sw	t1,800(a5)
  (*(volatile unsigned int *)(0x1C002324)) = 0x8F0D00B7 ;
e0001e10:	8f0d0337          	lui	t1,0x8f0d0
e0001e14:	0b730313          	addi	t1,t1,183 # 8f0d00b7 <fromhost+0xaf0c00a7>
e0001e18:	3267a223          	sw	t1,804(a5)
  (*(volatile unsigned int *)(0x1C002328)) = 0xC154C118 ;
e0001e1c:	c154c337          	lui	t1,0xc154c
e0001e20:	11830313          	addi	t1,t1,280 # c154c118 <fromhost+0xe153c108>
e0001e24:	3267a423          	sw	t1,808(a5)
  (*(volatile unsigned int *)(0x1C00232C)) = 0x853EC248 ;
e0001e28:	853ec337          	lui	t1,0x853ec
e0001e2c:	24830e93          	addi	t4,t1,584 # 853ec248 <fromhost+0xa53dc238>
  (*(volatile unsigned int *)(0x1C002330)) = 0xC2548082 ;
e0001e30:	c2548e37          	lui	t3,0xc2548
  (*(volatile unsigned int *)(0x1C00232C)) = 0x853EC248 ;
e0001e34:	33d7a623          	sw	t4,812(a5)
  (*(volatile unsigned int *)(0x1C002330)) = 0xC2548082 ;
e0001e38:	082e0e13          	addi	t3,t3,130 # c2548082 <fromhost+0xe2538072>
e0001e3c:	33c7a823          	sw	t3,816(a5)
  (*(volatile unsigned int *)(0x1C002334)) = 0x8082853E ;
e0001e40:	80828e37          	lui	t3,0x80828
e0001e44:	53ee0e13          	addi	t3,t3,1342 # 8082853e <fromhost+0xa081852e>
e0001e48:	33c7aa23          	sw	t3,820(a5)
  (*(volatile unsigned int *)(0x1C002338)) = 0x00E58B63 ;
e0001e4c:	00e59e37          	lui	t3,0xe59
e0001e50:	b63e0e13          	addi	t3,t3,-1181 # e58b63 <tohost+0xe38b5b>
e0001e54:	33c7ac23          	sw	t3,824(a5)
  (*(volatile unsigned int *)(0x1C00233C)) = 0x00B606B3 ;
e0001e58:	00b60e37          	lui	t3,0xb60
e0001e5c:	6b3e0e13          	addi	t3,t3,1715 # b606b3 <tohost+0xb406ab>
e0001e60:	33c7ae23          	sw	t3,828(a5)
  (*(volatile unsigned int *)(0x1C002340)) = 0xC2DC8F0D ;
e0001e64:	c2dc9e37          	lui	t3,0xc2dc9
e0001e68:	f0de0e13          	addi	t3,t3,-243 # c2dc8f0d <fromhost+0xe2db8efd>
e0001e6c:	35c7a023          	sw	t3,832(a5)
  (*(volatile unsigned int *)(0x1C002344)) = 0x87B2C298 ;
e0001e70:	87b2ce37          	lui	t3,0x87b2c
e0001e74:	298e0e13          	addi	t3,t3,664 # 87b2c298 <fromhost+0xa7b1c288>
e0001e78:	35c7a223          	sw	t3,836(a5)
  (*(volatile unsigned int *)(0x1C002348)) = 0x853EC114 ;
e0001e7c:	11430313          	addi	t1,t1,276
e0001e80:	3467a423          	sw	t1,840(a5)
  (*(volatile unsigned int *)(0x1C00234C)) = 0xC11C8082 ;
e0001e84:	c11c8337          	lui	t1,0xc11c8
e0001e88:	08230313          	addi	t1,t1,130 # c11c8082 <fromhost+0xe11b8072>
e0001e8c:	3467a623          	sw	t1,844(a5)
  (*(volatile unsigned int *)(0x1C002350)) = 0xB7E187B2 ;
e0001e90:	b7e18337          	lui	t1,0xb7e18
e0001e94:	7b230313          	addi	t1,t1,1970 # b7e187b2 <fromhost+0xd7e087a2>
e0001e98:	3467a823          	sw	t1,848(a5)
  (*(volatile unsigned int *)(0x1C002354)) = 0xB7D14781 ;
e0001e9c:	b7d14337          	lui	t1,0xb7d14
e0001ea0:	78130313          	addi	t1,t1,1921 # b7d14781 <fromhost+0xd7d04771>
e0001ea4:	3467aa23          	sw	t1,852(a5)
  (*(volatile unsigned int *)(0x1C002358)) = 0x15B71141 ;
e0001ea8:	15b71337          	lui	t1,0x15b71
e0001eac:	14130313          	addi	t1,t1,321 # 15b71141 <tohost+0x15b51139>
e0001eb0:	3467ac23          	sw	t1,856(a5)
  (*(volatile unsigned int *)(0x1C00235C)) = 0xC6061C00 ;
e0001eb4:	34b7ae23          	sw	a1,860(a5)
  (*(volatile unsigned int *)(0x1C002360)) = 0x94858793 ;
e0001eb8:	948585b7          	lui	a1,0x94858
e0001ebc:	79358593          	addi	a1,a1,1939 # 94858793 <fromhost+0xb4848783>
e0001ec0:	36b7a023          	sw	a1,864(a5)
  (*(volatile unsigned int *)(0x1C002364)) = 0x1C002637 ;
e0001ec4:	63778313          	addi	t1,a5,1591
e0001ec8:	36478593          	addi	a1,a5,868
e0001ecc:	0065a023          	sw	t1,0(a1)
  (*(volatile unsigned int *)(0x1C002368)) = 0x04C7CC63 ;
e0001ed0:	04c7d5b7          	lui	a1,0x4c7d
e0001ed4:	c6358593          	addi	a1,a1,-925 # 4c7cc63 <tohost+0x4c5cc5b>
e0001ed8:	36b7a423          	sw	a1,872(a5)
  (*(volatile unsigned int *)(0x1C00236C)) = 0x46014581 ;
e0001edc:	460145b7          	lui	a1,0x46014
  (*(volatile unsigned int *)(0x1C002370)) = 0x1C001537 ;
e0001ee0:	1c001337          	lui	t1,0x1c001
  (*(volatile unsigned int *)(0x1C00236C)) = 0x46014581 ;
e0001ee4:	58158593          	addi	a1,a1,1409 # 46014581 <tohost+0x45ff4579>
e0001ee8:	36b7a623          	sw	a1,876(a5)
  (*(volatile unsigned int *)(0x1C002370)) = 0x1C001537 ;
e0001eec:	53730e13          	addi	t3,t1,1335 # 1c001537 <tohost+0x1bfe152f>
e0001ef0:	37078593          	addi	a1,a5,880
e0001ef4:	01c5a023          	sw	t3,0(a1)
  (*(volatile unsigned int *)(0x1C002374)) = 0x93850513 ;
e0001ef8:	938505b7          	lui	a1,0x93850
e0001efc:	51358593          	addi	a1,a1,1299 # 93850513 <fromhost+0xb3840503>
e0001f00:	36b7aa23          	sw	a1,884(a5)
  (*(volatile unsigned int *)(0x1C002378)) = 0x25B73785 ;
e0001f04:	25b735b7          	lui	a1,0x25b73
e0001f08:	78558593          	addi	a1,a1,1925 # 25b73785 <tohost+0x25b5377d>
e0001f0c:	36b7ac23          	sw	a1,888(a5)
  (*(volatile unsigned int *)(0x1C00237C)) = 0x87931C00 ;
e0001f10:	879325b7          	lui	a1,0x87932
e0001f14:	c0058593          	addi	a1,a1,-1024 # 87931c00 <fromhost+0xa7921bf0>
e0001f18:	36b7ae23          	sw	a1,892(a5)
  (*(volatile unsigned int *)(0x1C002380)) = 0x46374D85 ;
e0001f1c:	463755b7          	lui	a1,0x46375
e0001f20:	d8558593          	addi	a1,a1,-635 # 46374d85 <tohost+0x46354d7d>
e0001f24:	38b7a023          	sw	a1,896(a5)
  (*(volatile unsigned int *)(0x1C002384)) = 0xC9631C00 ;
e0001f28:	c96325b7          	lui	a1,0xc9632
e0001f2c:	c0058593          	addi	a1,a1,-1024 # c9631c00 <fromhost+0xe9621bf0>
e0001f30:	38b7a223          	sw	a1,900(a5)
  (*(volatile unsigned int *)(0x1C002388)) = 0x458102C7 ;
e0001f34:	458105b7          	lui	a1,0x45810
e0001f38:	2c758593          	addi	a1,a1,711 # 458102c7 <tohost+0x457f02bf>
e0001f3c:	38b7a423          	sw	a1,904(a5)
  (*(volatile unsigned int *)(0x1C00238C)) = 0x15374601 ;
e0001f40:	153745b7          	lui	a1,0x15374
e0001f44:	60158593          	addi	a1,a1,1537 # 15374601 <tohost+0x153545f9>
e0001f48:	38b7a623          	sw	a1,908(a5)
  (*(volatile unsigned int *)(0x1C002390)) = 0x05131C00 ;
e0001f4c:	051325b7          	lui	a1,0x5132
e0001f50:	c0058593          	addi	a1,a1,-1024 # 5131c00 <tohost+0x5111bf8>
e0001f54:	38b7a823          	sw	a1,912(a5)
  (*(volatile unsigned int *)(0x1C002394)) = 0x378993C5 ;
e0001f58:	378995b7          	lui	a1,0x37899
e0001f5c:	3c558593          	addi	a1,a1,965 # 378993c5 <tohost+0x378793bd>
e0001f60:	38b7aa23          	sw	a1,916(a5)
  (*(volatile unsigned int *)(0x1C002398)) = 0x100005B7 ;
e0001f64:	5b768e13          	addi	t3,a3,1463
e0001f68:	39878593          	addi	a1,a5,920
e0001f6c:	01c5a023          	sw	t3,0(a1)
  (*(volatile unsigned int *)(0x1C00239C)) = 0x879340B2 ;
e0001f70:	879345b7          	lui	a1,0x87934
e0001f74:	0b258593          	addi	a1,a1,178 # 879340b2 <fromhost+0xa79240a2>
e0001f78:	38b7ae23          	sw	a1,924(a5)
  (*(volatile unsigned int *)(0x1C0023A0)) = 0x06370085 ;
e0001f7c:	063705b7          	lui	a1,0x6370
e0001f80:	08558593          	addi	a1,a1,133 # 6370085 <tohost+0x635007d>
e0001f84:	3ab7a023          	sw	a1,928(a5)
  (*(volatile unsigned int *)(0x1C0023A4)) = 0x15371C01 ;
e0001f88:	153725b7          	lui	a1,0x15372
e0001f8c:	c0158593          	addi	a1,a1,-1023 # 15371c01 <tohost+0x15351bf9>
e0001f90:	3ab7a223          	sw	a1,932(a5)
  (*(volatile unsigned int *)(0x1C0023A8)) = 0x8E1D1C00 ;
e0001f94:	8e1d25b7          	lui	a1,0x8e1d2
e0001f98:	c0058593          	addi	a1,a1,-1024 # 8e1d1c00 <fromhost+0xae1c1bf0>
e0001f9c:	3ab7a423          	sw	a1,936(a5)
  (*(volatile unsigned int *)(0x1C0023AC)) = 0x00858593 ;
e0001fa0:	008585b7          	lui	a1,0x858
e0001fa4:	59358593          	addi	a1,a1,1427 # 858593 <tohost+0x83858b>
e0001fa8:	3ab7a623          	sw	a1,940(a5)
  (*(volatile unsigned int *)(0x1C0023B0)) = 0x94050513 ;
e0001fac:	940505b7          	lui	a1,0x94050
e0001fb0:	51358593          	addi	a1,a1,1299 # 94050513 <fromhost+0xb4040503>
e0001fb4:	3ab7a823          	sw	a1,944(a5)
  (*(volatile unsigned int *)(0x1C0023B4)) = 0xB70D0141 ;
e0001fb8:	b70d05b7          	lui	a1,0xb70d0
e0001fbc:	14158593          	addi	a1,a1,321 # b70d0141 <fromhost+0xd70c0131>
e0001fc0:	3ab7aa23          	sw	a1,948(a5)
  (*(volatile unsigned int *)(0x1C0023B8)) = 0x85938E1D ;
e0001fc4:	859395b7          	lui	a1,0x85939
e0001fc8:	e1d58593          	addi	a1,a1,-483 # 85938e1d <fromhost+0xa5928e0d>
  (*(volatile unsigned int *)(0x1C0023BC)) = 0xBFC14D85 ;
e0001fcc:	bfc15e37          	lui	t3,0xbfc15
  (*(volatile unsigned int *)(0x1C0023B8)) = 0x85938E1D ;
e0001fd0:	3ab7ac23          	sw	a1,952(a5)
  (*(volatile unsigned int *)(0x1C0023BC)) = 0xBFC14D85 ;
e0001fd4:	d85e0e13          	addi	t3,t3,-635 # bfc14d85 <fromhost+0xdfc04d75>
e0001fd8:	3bc7ae23          	sw	t3,956(a5)
  (*(volatile unsigned int *)(0x1C0023C0)) = 0x85938E1D ;
e0001fdc:	3cb7a023          	sw	a1,960(a5)
  (*(volatile unsigned int *)(0x1C0023C4)) = 0xB76D9485 ;
e0001fe0:	b76d95b7          	lui	a1,0xb76d9
e0001fe4:	48558593          	addi	a1,a1,1157 # b76d9485 <fromhost+0xd76c9475>
e0001fe8:	3cb7a223          	sw	a1,964(a5)
  (*(volatile unsigned int *)(0x1C0023C8)) = 0x100007B7 ;
e0001fec:	7b768693          	addi	a3,a3,1975
e0001ff0:	3c878593          	addi	a1,a5,968
e0001ff4:	c194                	sw	a3,0(a1)
  (*(volatile unsigned int *)(0x1C0023CC)) = 0x01651593 ;
e0001ff6:	016516b7          	lui	a3,0x1651
e0001ffa:	3cc78593          	addi	a1,a5,972
e0001ffe:	59368693          	addi	a3,a3,1427 # 1651593 <tohost+0x163158b>
e0002002:	c194                	sw	a3,0(a1)
  (*(volatile unsigned int *)(0x1C0023D0)) = 0x00878793 ;
e0002004:	008786b7          	lui	a3,0x878
e0002008:	3d078593          	addi	a1,a5,976
e000200c:	79368693          	addi	a3,a3,1939 # 878793 <tohost+0x85878b>
e0002010:	c194                	sw	a3,0(a1)
  (*(volatile unsigned int *)(0x1C0023D4)) = 0x17B795BE ;
e0002012:	17b796b7          	lui	a3,0x17b79
e0002016:	3d478593          	addi	a1,a5,980
e000201a:	5be68693          	addi	a3,a3,1470 # 17b795be <tohost+0x17b595b6>
e000201e:	c194                	sw	a3,0(a1)
  (*(volatile unsigned int *)(0x1C0023D8)) = 0x050A1C00 ;
e0002020:	050a26b7          	lui	a3,0x50a2
e0002024:	3d878593          	addi	a1,a5,984
e0002028:	c0068693          	addi	a3,a3,-1024 # 50a1c00 <tohost+0x5081bf8>
e000202c:	c194                	sw	a3,0(a1)
  (*(volatile unsigned int *)(0x1C0023DC)) = 0x00040637 ;
e000202e:	000406b7          	lui	a3,0x40
e0002032:	3dc78593          	addi	a1,a5,988
e0002036:	63768693          	addi	a3,a3,1591 # 40637 <tohost+0x2062f>
e000203a:	c194                	sw	a3,0(a1)
  (*(volatile unsigned int *)(0x1C0023E0)) = 0x93478793 ;
e000203c:	934786b7          	lui	a3,0x93478
e0002040:	3e078593          	addi	a1,a5,992
e0002044:	79368693          	addi	a3,a3,1939 # 93478793 <fromhost+0xb3468783>
e0002048:	c194                	sw	a3,0(a1)
  (*(volatile unsigned int *)(0x1C0023E4)) = 0xFF460613 ;
e000204a:	ff4606b7          	lui	a3,0xff460
e000204e:	3e478793          	addi	a5,a5,996
e0002052:	61368693          	addi	a3,a3,1555 # ff460613 <fromhost+0x1f450603>
  (*(volatile unsigned int *)(0x1C002158)) = 0x10500073 ;
e0002056:	1c002737          	lui	a4,0x1c002
  (*(volatile unsigned int *)(0x1C0023E4)) = 0xFF460613 ;
e000205a:	c394                	sw	a3,0(a5)
  (*(volatile unsigned int *)(0x1C0023E8)) = 0xB5FD953E ;
e000205c:	b5fd96b7          	lui	a3,0xb5fd9
e0002060:	3e870793          	addi	a5,a4,1000 # 1c0023e8 <tohost+0x1bfe23e0>
e0002064:	53e68693          	addi	a3,a3,1342 # b5fd953e <fromhost+0xd5fc952e>
e0002068:	c394                	sw	a3,0(a5)
  (*(volatile unsigned int *)(0x1C0023EC)) = 0x1C0017B7 ;
e000206a:	7b730793          	addi	a5,t1,1975
e000206e:	3ec70693          	addi	a3,a4,1004
e0002072:	c29c                	sw	a5,0(a3)
  (*(volatile unsigned int *)(0x1C0023F0)) = 0x8793050A ;
e0002074:	50a88893          	addi	a7,a7,1290
e0002078:	3f070693          	addi	a3,a4,1008
e000207c:	0116a023          	sw	a7,0(a3)
  (*(volatile unsigned int *)(0x1C0023F4)) = 0x953E9347 ;
e0002080:	953e96b7          	lui	a3,0x953e9
e0002084:	3f470593          	addi	a1,a4,1012
e0002088:	34768693          	addi	a3,a3,839 # 953e9347 <fromhost+0xb53d9337>
e000208c:	c194                	sw	a3,0(a1)
  (*(volatile unsigned int *)(0x1C0023F8)) = 0x8082B701 ;
e000208e:	8082b6b7          	lui	a3,0x8082b
e0002092:	3f870593          	addi	a1,a4,1016
e0002096:	70168693          	addi	a3,a3,1793 # 8082b701 <fromhost+0xa081b6f1>
e000209a:	c194                	sw	a3,0(a1)
  (*(volatile unsigned int *)(0x1C0023FC)) = 0x002047B7 ;
e000209c:	002046b7          	lui	a3,0x204
e00020a0:	3fc70593          	addi	a1,a4,1020
e00020a4:	7b768693          	addi	a3,a3,1975 # 2047b7 <tohost+0x1e47af>
e00020a8:	c194                	sw	a3,0(a1)
  (*(volatile unsigned int *)(0x1C002400)) = 0xCB9456FD ;
e00020aa:	cb9455b7          	lui	a1,0xcb945
e00020ae:	6fd58593          	addi	a1,a1,1789 # cb9456fd <fromhost+0xeb9356ed>
e00020b2:	40b72023          	sw	a1,1024(a4)
  (*(volatile unsigned int *)(0x1C002404)) = 0x1C0027B7 ;
e00020b6:	7b770893          	addi	a7,a4,1975
e00020ba:	40470593          	addi	a1,a4,1028
e00020be:	0115a023          	sw	a7,0(a1)
  (*(volatile unsigned int *)(0x1C002408)) = 0x00200737 ;
e00020c2:	002005b7          	lui	a1,0x200
e00020c6:	73758593          	addi	a1,a1,1847 # 200737 <tohost+0x1e072f>
e00020ca:	40b72423          	sw	a1,1032(a4)
  (*(volatile unsigned int *)(0x1C00240C)) = 0x00078793 ;
e00020ce:	000785b7          	lui	a1,0x78
e00020d2:	79358593          	addi	a1,a1,1939 # 78793 <tohost+0x5878b>
e00020d6:	40b72623          	sw	a1,1036(a4)
  (*(volatile unsigned int *)(0x1C002410)) = 0x8082C33C ;
e00020da:	33c80813          	addi	a6,a6,828
e00020de:	41070593          	addi	a1,a4,1040
e00020e2:	0105a023          	sw	a6,0(a1)
  (*(volatile unsigned int *)(0x1C002414)) = 0x11418082 ;
e00020e6:	41470593          	addi	a1,a4,1044
e00020ea:	c188                	sw	a0,0(a1)
  (*(volatile unsigned int *)(0x1C002418)) = 0xC606C422 ;
e00020ec:	c606c5b7          	lui	a1,0xc606c
e00020f0:	41870513          	addi	a0,a4,1048
e00020f4:	42258593          	addi	a1,a1,1058 # c606c422 <fromhost+0xe605c412>
e00020f8:	c10c                	sw	a1,0(a0)
  (*(volatile unsigned int *)(0x1C00241C)) = 0x4437C226 ;
e00020fa:	4437c5b7          	lui	a1,0x4437c
e00020fe:	41c70513          	addi	a0,a4,1052
e0002102:	22658593          	addi	a1,a1,550 # 4437c226 <tohost+0x4435c21e>
e0002106:	c10c                	sw	a1,0(a0)
  (*(volatile unsigned int *)(0x1C002420)) = 0x07B70020 ;
e0002108:	07b705b7          	lui	a1,0x7b70
e000210c:	42070513          	addi	a0,a4,1056
e0002110:	02058593          	addi	a1,a1,32 # 7b70020 <tohost+0x7b50018>
e0002114:	c10c                	sw	a1,0(a0)
  (*(volatile unsigned int *)(0x1C002424)) = 0xC41C0007 ;
e0002116:	c41c05b7          	lui	a1,0xc41c0
e000211a:	42470513          	addi	a0,a4,1060
e000211e:	059d                	addi	a1,a1,7 # c41c0007 <fromhost+0xe41afff7>
e0002120:	c10c                	sw	a1,0(a0)
  (*(volatile unsigned int *)(0x1C002428)) = 0x0FF00793 ;
e0002122:	0ff005b7          	lui	a1,0xff00
e0002126:	42870513          	addi	a0,a4,1064
e000212a:	79358593          	addi	a1,a1,1939 # ff00793 <tohost+0xfee078b>
e000212e:	c10c                	sw	a1,0(a0)
  (*(volatile unsigned int *)(0x1C00242C)) = 0x20040493 ;
e0002130:	200405b7          	lui	a1,0x20040
e0002134:	42c70513          	addi	a0,a4,1068
e0002138:	49358593          	addi	a1,a1,1171 # 20040493 <tohost+0x2002048b>
e000213c:	c10c                	sw	a1,0(a0)
  (*(volatile unsigned int *)(0x1C002430)) = 0x00F4A023 ;
e000213e:	00f4a5b7          	lui	a1,0xf4a
e0002142:	43070513          	addi	a0,a4,1072
e0002146:	02358813          	addi	a6,a1,35 # f4a023 <tohost+0xf2a01b>
e000214a:	01052023          	sw	a6,0(a0)
  (*(volatile unsigned int *)(0x1C002434)) = 0x00F4A623 ;
e000214e:	62358593          	addi	a1,a1,1571
e0002152:	43470513          	addi	a0,a4,1076
e0002156:	c10c                	sw	a1,0(a0)
  (*(volatile unsigned int *)(0x1C002438)) = 0x01C4E783 ;
e0002158:	01c4e5b7          	lui	a1,0x1c4e
e000215c:	43870513          	addi	a0,a4,1080
e0002160:	78358593          	addi	a1,a1,1923 # 1c4e783 <tohost+0x1c2e77b>
e0002164:	c10c                	sw	a1,0(a0)
  (*(volatile unsigned int *)(0x1C00243C)) = 0x1C0017B7 ;
e0002166:	43c70593          	addi	a1,a4,1084
e000216a:	c19c                	sw	a5,0(a1)
  (*(volatile unsigned int *)(0x1C002440)) = 0x9447A783 ;
e000216c:	9447a5b7          	lui	a1,0x9447a
e0002170:	44070513          	addi	a0,a4,1088
e0002174:	78358593          	addi	a1,a1,1923 # 9447a783 <fromhost+0xb446a773>
e0002178:	c10c                	sw	a1,0(a0)
  (*(volatile unsigned int *)(0x1C002444)) = 0xE7839782 ;
e000217a:	e78395b7          	lui	a1,0xe7839
e000217e:	44470513          	addi	a0,a4,1092
e0002182:	78258593          	addi	a1,a1,1922 # e7839782 <fromhost+0x7829772>
e0002186:	c10c                	sw	a1,0(a0)
  (*(volatile unsigned int *)(0x1C002448)) = 0x27F301C4 ;
e0002188:	27f305b7          	lui	a1,0x27f30
e000218c:	44870513          	addi	a0,a4,1096
e0002190:	1c458593          	addi	a1,a1,452 # 27f301c4 <tohost+0x27f101bc>
e0002194:	c10c                	sw	a1,0(a0)
  (*(volatile unsigned int *)(0x1C00244C)) = 0xB7B3F140 ;
e0002196:	44c70593          	addi	a1,a4,1100
e000219a:	c190                	sw	a2,0(a1)
  (*(volatile unsigned int *)(0x1C002450)) = 0xEF81F457 ;
e000219c:	ef81f637          	lui	a2,0xef81f
e00021a0:	45070593          	addi	a1,a4,1104
e00021a4:	45760613          	addi	a2,a2,1111 # ef81f457 <fromhost+0xf80f447>
e00021a8:	c190                	sw	a2,0(a1)
  (*(volatile unsigned int *)(0x1C002454)) = 0x1C0017B7 ;
e00021aa:	45470613          	addi	a2,a4,1108
e00021ae:	c21c                	sw	a5,0(a2)
  (*(volatile unsigned int *)(0x1C002458)) = 0x92078793 ;
e00021b0:	920787b7          	lui	a5,0x92078
e00021b4:	45870613          	addi	a2,a4,1112
e00021b8:	79378793          	addi	a5,a5,1939 # 92078793 <fromhost+0xb2068783>
e00021bc:	c21c                	sw	a5,0(a2)
  (*(volatile unsigned int *)(0x1C00245C)) = 0x1737C388 ;
e00021be:	1737c7b7          	lui	a5,0x1737c
e00021c2:	45c70613          	addi	a2,a4,1116
e00021c6:	38878793          	addi	a5,a5,904 # 1737c388 <tohost+0x1735c380>
e00021ca:	c21c                	sw	a5,0(a2)
  (*(volatile unsigned int *)(0x1C002460)) = 0x22231C00 ;
e00021cc:	222327b7          	lui	a5,0x22232
e00021d0:	46070613          	addi	a2,a4,1120
e00021d4:	c0078793          	addi	a5,a5,-1024 # 22231c00 <tohost+0x22211bf8>
e00021d8:	c21c                	sw	a5,0(a2)
  (*(volatile unsigned int *)(0x1C002464)) = 0x43889207 ;
e00021da:	438897b7          	lui	a5,0x43889
e00021de:	46470613          	addi	a2,a4,1124
e00021e2:	20778793          	addi	a5,a5,519 # 43889207 <tohost+0x438691ff>
e00021e6:	c21c                	sw	a5,0(a2)
  (*(volatile unsigned int *)(0x1C002468)) = 0x57FD33D5 ;
e00021e8:	57fd37b7          	lui	a5,0x57fd3
e00021ec:	46870613          	addi	a2,a4,1128
e00021f0:	3d578793          	addi	a5,a5,981 # 57fd33d5 <tohost+0x57fb33cd>
e00021f4:	c21c                	sw	a5,0(a2)
  (*(volatile unsigned int *)(0x1C00246C)) = 0x6783C05C ;
e00021f6:	6783c7b7          	lui	a5,0x6783c
e00021fa:	46c70613          	addi	a2,a4,1132
e00021fe:	05c78793          	addi	a5,a5,92 # 6783c05c <tohost+0x6781c054>
e0002202:	c21c                	sw	a5,0(a2)
  (*(volatile unsigned int *)(0x1C002470)) = 0xA0010384 ;
e0002204:	a00107b7          	lui	a5,0xa0010
e0002208:	47070613          	addi	a2,a4,1136
e000220c:	38478793          	addi	a5,a5,900 # a0010384 <fromhost+0xc0000374>
e0002210:	c21c                	sw	a5,0(a2)
  (*(volatile unsigned int *)(0x1C002474)) = 0x17B71141 ;
e0002212:	17b717b7          	lui	a5,0x17b71
e0002216:	47470613          	addi	a2,a4,1140
e000221a:	14178793          	addi	a5,a5,321 # 17b71141 <tohost+0x17b51139>
e000221e:	c21c                	sw	a5,0(a2)
  (*(volatile unsigned int *)(0x1C002478)) = 0xA2231C00 ;
e0002220:	a22327b7          	lui	a5,0xa2232
e0002224:	47870713          	addi	a4,a4,1144
e0002228:	c0078793          	addi	a5,a5,-1024 # a2231c00 <fromhost+0xc2221bf0>
e000222c:	c31c                	sw	a5,0(a4)
  (*(volatile unsigned int *)(0x1C00247C)) = 0xC60694B7 ;
e000222e:	1c0027b7          	lui	a5,0x1c002
e0002232:	c6069737          	lui	a4,0xc6069
e0002236:	47c78613          	addi	a2,a5,1148 # 1c00247c <tohost+0x1bfe2474>
e000223a:	4b770713          	addi	a4,a4,1207 # c60694b7 <fromhost+0xe60594a7>
e000223e:	c218                	sw	a4,0(a2)
  (*(volatile unsigned int *)(0x1C002480)) = 0x842AC422 ;
e0002240:	842ac737          	lui	a4,0x842ac
e0002244:	48078613          	addi	a2,a5,1152
e0002248:	42270713          	addi	a4,a4,1058 # 842ac422 <fromhost+0xa429c412>
e000224c:	c218                	sw	a4,0(a2)
  (*(volatile unsigned int *)(0x1C002484)) = 0x17B73791 ;
e000224e:	17b73737          	lui	a4,0x17b73
e0002252:	48478613          	addi	a2,a5,1156
e0002256:	79170713          	addi	a4,a4,1937 # 17b73791 <tohost+0x17b53789>
e000225a:	c218                	sw	a4,0(a2)
  (*(volatile unsigned int *)(0x1C002488)) = 0x07130020 ;
e000225c:	07130737          	lui	a4,0x7130
e0002260:	48878613          	addi	a2,a5,1160
e0002264:	02070713          	addi	a4,a4,32 # 7130020 <tohost+0x7110018>
e0002268:	c218                	sw	a4,0(a2)
  (*(volatile unsigned int *)(0x1C00248C)) = 0x075A0404 ;
e000226a:	075a0737          	lui	a4,0x75a0
e000226e:	48c78613          	addi	a2,a5,1164
e0002272:	40470713          	addi	a4,a4,1028 # 75a0404 <tohost+0x75803fc>
e0002276:	c218                	sw	a4,0(a2)
  (*(volatile unsigned int *)(0x1C002490)) = 0x40078613 ;
e0002278:	40078737          	lui	a4,0x40078
e000227c:	49078613          	addi	a2,a5,1168
e0002280:	61370713          	addi	a4,a4,1555 # 40078613 <tohost+0x4005860b>
e0002284:	c218                	sw	a4,0(a2)
  (*(volatile unsigned int *)(0x1C002494)) = 0x879356FD ;
e0002286:	87935737          	lui	a4,0x87935
e000228a:	49478613          	addi	a2,a5,1172
e000228e:	6fd70713          	addi	a4,a4,1789 # 879356fd <fromhost+0xa79256ed>
e0002292:	c218                	sw	a4,0(a2)
  (*(volatile unsigned int *)(0x1C002498)) = 0x662341C7 ;
e0002294:	66234737          	lui	a4,0x66234
e0002298:	49878613          	addi	a2,a5,1176
e000229c:	1c770713          	addi	a4,a4,455 # 662341c7 <tohost+0x662141bf>
e00022a0:	c218                	sw	a4,0(a2)
  (*(volatile unsigned int *)(0x1C00249C)) = 0x67A300D7 ;
e00022a2:	67a30737          	lui	a4,0x67a30
e00022a6:	49c78613          	addi	a2,a5,1180
e00022aa:	0d770713          	addi	a4,a4,215 # 67a300d7 <tohost+0x67a100cf>
e00022ae:	c218                	sw	a4,0(a2)
  (*(volatile unsigned int *)(0x1C0024A0)) = 0x852200D7 ;
e00022b0:	85220737          	lui	a4,0x85220
e00022b4:	4a078613          	addi	a2,a5,1184
e00022b8:	0d770713          	addi	a4,a4,215 # 852200d7 <fromhost+0xa52100c7>
e00022bc:	c218                	sw	a4,0(a2)
  (*(volatile unsigned int *)(0x1C0024A4)) = 0x65913715 ;
e00022be:	65913737          	lui	a4,0x65913
e00022c2:	4a478613          	addi	a2,a5,1188
e00022c6:	71570713          	addi	a4,a4,1813 # 65913715 <tohost+0x658f370d>
e00022ca:	c218                	sw	a4,0(a2)
  (*(volatile unsigned int *)(0x1C0024A8)) = 0x37898522 ;
e00022cc:	37898737          	lui	a4,0x37898
e00022d0:	4a878613          	addi	a2,a5,1192
e00022d4:	52270713          	addi	a4,a4,1314 # 37898522 <tohost+0x3787851a>
e00022d8:	c218                	sw	a4,0(a2)
  (*(volatile unsigned int *)(0x1C0024AC)) = 0x100007B7 ;
e00022da:	10000737          	lui	a4,0x10000
e00022de:	4ac78613          	addi	a2,a5,1196
e00022e2:	7b770713          	addi	a4,a4,1975 # 100007b7 <tohost+0xffe07af>
e00022e6:	c218                	sw	a4,0(a2)
  (*(volatile unsigned int *)(0x1C0024B0)) = 0x00A7A223 ;
e00022e8:	00a7a737          	lui	a4,0xa7a
e00022ec:	4b078613          	addi	a2,a5,1200
e00022f0:	22370713          	addi	a4,a4,547 # a7a223 <tohost+0xa5a21b>
e00022f4:	c218                	sw	a4,0(a2)
  (*(volatile unsigned int *)(0x1C0024B4)) = 0x17B7C511 ;
e00022f6:	17b7c737          	lui	a4,0x17b7c
e00022fa:	4b478613          	addi	a2,a5,1204
e00022fe:	51170713          	addi	a4,a4,1297 # 17b7c511 <tohost+0x17b5c509>
e0002302:	c218                	sw	a4,0(a2)
  (*(volatile unsigned int *)(0x1C0024B8)) = 0x47051C00 ;
e0002304:	47052737          	lui	a4,0x47052
e0002308:	4b878613          	addi	a2,a5,1208
e000230c:	c0070713          	addi	a4,a4,-1024 # 47051c00 <tohost+0x47031bf8>
e0002310:	c218                	sw	a4,0(a2)
  (*(volatile unsigned int *)(0x1C0024BC)) = 0x92E7A223 ;
e0002312:	92e7a737          	lui	a4,0x92e7a
e0002316:	4bc78613          	addi	a2,a5,1212
e000231a:	22370713          	addi	a4,a4,547 # 92e7a223 <fromhost+0xb2e6a213>
e000231e:	c218                	sw	a4,0(a2)
  (*(volatile unsigned int *)(0x1C0024C0)) = 0x442240B2 ;
e0002320:	44224737          	lui	a4,0x44224
e0002324:	4c078613          	addi	a2,a5,1216
e0002328:	0b270713          	addi	a4,a4,178 # 442240b2 <tohost+0x442040aa>
e000232c:	c218                	sw	a4,0(a2)
  (*(volatile unsigned int *)(0x1C0024C4)) = 0x80820141 ;
e000232e:	80820737          	lui	a4,0x80820
e0002332:	4c478613          	addi	a2,a5,1220
e0002336:	14170713          	addi	a4,a4,321 # 80820141 <fromhost+0xa0810131>
e000233a:	c218                	sw	a4,0(a2)
  (*(volatile unsigned int *)(0x1C0024C8)) = 0x002047B7 ;
e000233c:	4c878713          	addi	a4,a5,1224
e0002340:	c314                	sw	a3,0(a4)
  (*(volatile unsigned int *)(0x1C0024CC)) = 0x20078793 ;
e0002342:	20078737          	lui	a4,0x20078
e0002346:	4cc78693          	addi	a3,a5,1228
e000234a:	79370713          	addi	a4,a4,1939 # 20078793 <tohost+0x2005878b>
e000234e:	c298                	sw	a4,0(a3)
  (*(volatile unsigned int *)(0x1C0024D0)) = 0x01C7E703 ;
e0002350:	01c7e737          	lui	a4,0x1c7e
e0002354:	4d078693          	addi	a3,a5,1232
e0002358:	70370713          	addi	a4,a4,1795 # 1c7e703 <tohost+0x1c5e6fb>
e000235c:	c298                	sw	a4,0(a3)
  (*(volatile unsigned int *)(0x1C0024D4)) = 0x00008082 ;
e000235e:	6721                	lui	a4,0x8
e0002360:	4d478793          	addi	a5,a5,1236
e0002364:	08270713          	addi	a4,a4,130 # 8082 <_stack_len+0x82>
e0002368:	c398                	sw	a4,0(a5)
#endif
return 0; 
 }
e000236a:	4501                	li	a0,0
e000236c:	8082                	ret

e000236e <default_exc_handler>:
  jal x0, sleep_loop //exc handler
e000236e:	07e0006f          	j	e00023ec <sleep_loop>

e0002372 <reset_handler>:
  mv  x1, x0
e0002372:	00000093          	li	ra,0
  mv  x2, x1
e0002376:	8106                	mv	sp,ra
  mv  x3, x1
e0002378:	8186                	mv	gp,ra
  mv  x4, x1
e000237a:	8206                	mv	tp,ra
  mv  x5, x1
e000237c:	8286                	mv	t0,ra
  mv  x6, x1
e000237e:	8306                	mv	t1,ra
  mv  x7, x1
e0002380:	8386                	mv	t2,ra
  mv  x8, x1
e0002382:	8406                	mv	s0,ra
  mv  x9, x1
e0002384:	8486                	mv	s1,ra
  mv x10, x1
e0002386:	8506                	mv	a0,ra
  mv x11, x1
e0002388:	8586                	mv	a1,ra
  mv x12, x1
e000238a:	8606                	mv	a2,ra
  mv x13, x1
e000238c:	8686                	mv	a3,ra
  mv x14, x1
e000238e:	8706                	mv	a4,ra
  mv x15, x1
e0002390:	8786                	mv	a5,ra
  mv x16, x1
e0002392:	8806                	mv	a6,ra
  mv x17, x1
e0002394:	8886                	mv	a7,ra
  mv x18, x1
e0002396:	8906                	mv	s2,ra
  mv x19, x1
e0002398:	8986                	mv	s3,ra
  mv x20, x1
e000239a:	8a06                	mv	s4,ra
  mv x21, x1
e000239c:	8a86                	mv	s5,ra
  mv x22, x1
e000239e:	8b06                	mv	s6,ra
  mv x23, x1
e00023a0:	8b86                	mv	s7,ra
  mv x24, x1
e00023a2:	8c06                	mv	s8,ra
  mv x25, x1
e00023a4:	8c86                	mv	s9,ra
  mv x26, x1
e00023a6:	8d06                	mv	s10,ra
  mv x27, x1
e00023a8:	8d86                	mv	s11,ra
  mv x28, x1
e00023aa:	8e06                	mv	t3,ra
  mv x29, x1
e00023ac:	8e86                	mv	t4,ra
  mv x30, x1
e00023ae:	8f06                	mv	t5,ra
  mv x31, x1
e00023b0:	8f86                	mv	t6,ra
  la   x2, _stack_start
e00023b2:	0000e117          	auipc	sp,0xe
e00023b6:	c4e10113          	addi	sp,sp,-946 # e0010000 <_stack_start>

e00023ba <_start>:
  la x26, _bss_start
e00023ba:	00000d17          	auipc	s10,0x0
e00023be:	066d0d13          	addi	s10,s10,102 # e0002420 <_bss_end>
  la x27, _bss_end
e00023c2:	00000d97          	auipc	s11,0x0
e00023c6:	05ed8d93          	addi	s11,s11,94 # e0002420 <_bss_end>
  bge x26, x27, zero_loop_end
e00023ca:	01bd5763          	bge	s10,s11,e00023d8 <main_entry>

e00023ce <zero_loop>:
  sw x0, 0(x26)
e00023ce:	000d2023          	sw	zero,0(s10)
  addi x26, x26, 4
e00023d2:	0d11                	addi	s10,s10,4
  ble x26, x27, zero_loop
e00023d4:	ffaddde3          	bge	s11,s10,e00023ce <zero_loop>

e00023d8 <main_entry>:
  addi x10, x0, 0
e00023d8:	4501                	li	a0,0
  addi x11, x0, 0
e00023da:	4581                	li	a1,0
  jal x1, main
e00023dc:	016000ef          	jal	ra,e00023f2 <main>
  li a0, 0xc11c0018
e00023e0:	c11c0537          	lui	a0,0xc11c0
e00023e4:	0561                	addi	a0,a0,24 # c11c0018 <fromhost+0xe11b0008>
  li t0, 0x1	
e00023e6:	4285                	li	t0,1
  sw t0, 0(a0)
e00023e8:	00552023          	sw	t0,0(a0)

e00023ec <sleep_loop>:
  wfi
e00023ec:	10500073          	wfi
  j sleep_loop
e00023f0:	bff5                	j	e00023ec <sleep_loop>

e00023f2 <main>:
  for(uint32_t i=0;i<buffer_size;i++){
    ptr = (uint32_t *) CLUSTER_BASE + 0x100 + i;
    *ptr = CLUSTER[i];
  }
  */
  int lol = load_cluster_code();
e00023f2:	8d0fe06f          	j	e00004c2 <load_cluster_code>

Disassembly of section .rodata:

e00023f8 <.rodata>:
e00023f8:	6e28                	.2byte	0x6e28
e00023fa:	6c75                	lui	s8,0x1d
e00023fc:	296c                	.2byte	0x296c
e00023fe:	0000                	unimp
e0002400:	5845                	li	a6,-15
e0002402:	54504543          	.4byte	0x54504543
e0002406:	4f49                	li	t5,18
e0002408:	214e                	.2byte	0x214e
e000240a:	2121                	jal	e0002812 <_bss_end+0x3f2>
e000240c:	0a0d                	addi	s4,s4,3
	...

Disassembly of section .data:

e0002410 <remu10_table>:
char remu10_table[16] = {
e0002410:	0100                	addi	s0,sp,128
e0002412:	0202                	c.slli64	tp
e0002414:	05040303          	lb	t1,80(s0)
e0002418:	0605                	addi	a2,a2,1
e000241a:	08080707          	.4byte	0x8080707
e000241e:	0009                	c.nop	2

Disassembly of section .stack:

e0008000 <_stack-0x2000>:
	...

Disassembly of section .debug_info:

00000000 <.debug_info>:
   0:	0942                	slli	s2,s2,0x10
   2:	0000                	unimp
   4:	0005                	c.nop	1
   6:	0401                	addi	s0,s0,0
   8:	0000                	unimp
   a:	0000                	unimp
   c:	c321                	beqz	a4,4c <_min_stack-0x1fb4>
   e:	0000                	unimp
  10:	1d00                	addi	s0,sp,688
  12:	0048                	addi	a0,sp,4
  14:	0000                	unimp
  16:	0000                	unimp
  18:	0000                	unimp
  1a:	0084                	addi	s1,sp,64
  1c:	e000                	.2byte	0xe000
  1e:	043e                	slli	s0,s0,0xf
  20:	0000                	unimp
  22:	0000                	unimp
  24:	0000                	unimp
  26:	e012                	.2byte	0xe012
  28:	0001                	nop
  2a:	0200                	addi	s0,sp,256
  2c:	1b28                	addi	a0,sp,440
  2e:	0032                	c.slli	zero,0xc
  30:	0000                	unimp
  32:	0422                	slli	s0,s0,0x8
  34:	01ad                	addi	gp,gp,11
  36:	0000                	unimp
  38:	e712                	.2byte	0xe712
  3a:	0001                	nop
  3c:	0200                	addi	s0,sp,256
  3e:	00261863          	bne	a2,sp,4e <_min_stack-0x1fb2>
  42:	0000                	unimp
  44:	69050423          	sb	a6,1672(a0)
  48:	746e                	.2byte	0x746e
  4a:	2400                	.2byte	0x2400
  4c:	0044                	addi	s1,sp,4
  4e:	0000                	unimp
  50:	0405                	addi	s0,s0,1
  52:	00015d07          	.4byte	0x15d07
  56:	0500                	addi	s0,sp,640
  58:	0508                	addi	a0,sp,640
  5a:	00000053          	.4byte	0x53
  5e:	1005                	c.nop	-31
  60:	2704                	.2byte	0x2704
  62:	0001                	nop
  64:	0500                	addi	s0,sp,640
  66:	0601                	addi	a2,a2,0
  68:	0135                	addi	sp,sp,13
  6a:	0000                	unimp
  6c:	0205                	addi	tp,tp,1 # 1 <_min_stack-0x1fff>
  6e:	0805                	addi	a6,a6,1
  70:	0000                	unimp
  72:	0500                	addi	s0,sp,640
  74:	0504                	addi	s1,sp,640
  76:	0058                	addi	a4,sp,4
  78:	0000                	unimp
  7a:	0105                	addi	sp,sp,1
  7c:	3308                	.2byte	0x3308
  7e:	0001                	nop
  80:	1200                	addi	s0,sp,288
  82:	0171                	addi	sp,sp,28
  84:	0000                	unimp
  86:	8d193103          	.4byte	0x8d193103
  8a:	0000                	unimp
  8c:	0500                	addi	s0,sp,640
  8e:	0702                	c.slli64	a4
  90:	0185                	addi	gp,gp,1
  92:	0000                	unimp
  94:	0405                	addi	s0,s0,1
  96:	00015807          	.4byte	0x15807
  9a:	0500                	addi	s0,sp,640
  9c:	0708                	addi	a0,sp,896
  9e:	00000153          	.4byte	0x153
  a2:	0000b213          	sltiu	tp,ra,0
  a6:	b200                	.2byte	0xb200
  a8:	0000                	unimp
  aa:	1400                	addi	s0,sp,544
  ac:	0050                	addi	a2,sp,4
  ae:	0000                	unimp
  b0:	0105000f          	.4byte	0x105000f
  b4:	3c08                	.2byte	0x3c08
  b6:	0001                	nop
  b8:	2500                	.2byte	0x2500
  ba:	00b2                	slli	ra,ra,0xc
  bc:	0000                	unimp
  be:	6126                	.2byte	0x6126
  c0:	0000                	unimp
  c2:	0100                	addi	s0,sp,128
  c4:	0680                	addi	s0,sp,832
  c6:	00a2                	slli	ra,ra,0x8
  c8:	0000                	unimp
  ca:	0305                	addi	t1,t1,1
  cc:	2410                	.2byte	0x2410
  ce:	e000                	.2byte	0xe000
  d0:	0001ef27          	.4byte	0x1ef27
  d4:	0100                	addi	s0,sp,128
  d6:	0152                	slli	sp,sp,0x14
  d8:	5606                	lw	a2,96(sp)
  da:	0004                	.2byte	0x4
  dc:	6ce0                	.2byte	0x6ce0
  de:	0000                	unimp
  e0:	0100                	addi	s0,sp,128
  e2:	a59c                	.2byte	0xa59c
  e4:	0001                	nop
  e6:	2800                	.2byte	0x2800
  e8:	020e                	slli	tp,tp,0x3
  ea:	0000                	unimp
  ec:	5401                	li	s0,-32
  ee:	0701                	addi	a4,a4,0
  f0:	0044                	addi	s1,sp,4
  f2:	0000                	unimp
  f4:	089f 0061 0155      	.byte	0x9f, 0x08, 0x61, 0x00, 0x55, 0x01
  fa:	00004407          	.4byte	0x4407
  fe:	0c00                	addi	s0,sp,528
 100:	0000                	unimp
 102:	0800                	addi	s0,sp,16
 104:	0062                	c.slli	zero,0x18
 106:	0155                	addi	sp,sp,21
 108:	440a                	lw	s0,128(sp)
 10a:	0000                	unimp
 10c:	1800                	addi	s0,sp,48
 10e:	0000                	unimp
 110:	0800                	addi	s0,sp,16
 112:	01550063          	beq	a0,s5,112 <_min_stack-0x1eee>
 116:	440d                	li	s0,3
 118:	0000                	unimp
 11a:	2400                	.2byte	0x2400
 11c:	0000                	unimp
 11e:	0800                	addi	s0,sp,16
 120:	0065                	c.nop	25
 122:	0155                	addi	sp,sp,21
 124:	4410                	lw	a2,8(s0)
 126:	0000                	unimp
 128:	3000                	.2byte	0x3000
 12a:	0000                	unimp
 12c:	0800                	addi	s0,sp,16
 12e:	0064                	addi	s1,sp,12
 130:	0155                	addi	sp,sp,21
 132:	00004413          	xori	s0,zero,0
 136:	3c00                	.2byte	0x3c00
 138:	0000                	unimp
 13a:	2900                	.2byte	0x2900
 13c:	0012                	c.slli	zero,0x4
 13e:	0000                	unimp
 140:	5601                	li	a2,-32
 142:	1201                	addi	tp,tp,-32 # ffffffe0 <fromhost+0x1ffeffd0>
 144:	01a5                	addi	gp,gp,9
 146:	0000                	unimp
 148:	0048                	addi	a0,sp,4
 14a:	0000                	unimp
 14c:	a709                	j	84e <_min_stack-0x17b2>
 14e:	0000                	unimp
 150:	1b00                	addi	s0,sp,432
 152:	01a5                	addi	gp,gp,9
 154:	0000                	unimp
 156:	4008                	lw	a0,0(s0)
 158:	1040                	addi	s0,sp,36
 15a:	7a2a                	.2byte	0x7a2a
 15c:	0001                	nop
 15e:	0100                	addi	s0,sp,128
 160:	0156                	slli	sp,sp,0x15
 162:	a525                	j	78a <_min_stack-0x1876>
 164:	0001                	nop
 166:	8400                	.2byte	0x8400
 168:	8080                	.2byte	0x8080
 16a:	7cc1                	lui	s9,0xffff0
 16c:	ae09                	j	47e <_min_stack-0x1b82>
 16e:	0000                	unimp
 170:	3300                	.2byte	0x3300
 172:	01a5                	addi	gp,gp,9
 174:	0000                	unimp
 176:	4010                	lw	a2,0(s0)
 178:	1040                	addi	s0,sp,36
 17a:	b509                	j	ffffff7c <fromhost+0x1ffeff6c>
 17c:	0000                	unimp
 17e:	3d00                	.2byte	0x3d00
 180:	01a5                	addi	gp,gp,9
 182:	0000                	unimp
 184:	4014                	lw	a3,0(s0)
 186:	1040                	addi	s0,sp,36
 188:	bc09                	j	fffffb9a <fromhost+0x1ffefb8a>
 18a:	0000                	unimp
 18c:	4700                	lw	s0,8(a4)
 18e:	01a5                	addi	gp,gp,9
 190:	0000                	unimp
 192:	4018                	lw	a4,0(s0)
 194:	1040                	addi	s0,sp,36
 196:	1d09                	addi	s10,s10,-30
 198:	0002                	c.slli64	zero
 19a:	5100                	lw	s0,32(a0)
 19c:	01a5                	addi	gp,gp,9
 19e:	0000                	unimp
 1a0:	401c                	lw	a5,0(s0)
 1a2:	1040                	addi	s0,sp,36
 1a4:	0d00                	addi	s0,sp,656
 1a6:	0000004b          	.4byte	0x4b
 1aa:	351a                	.2byte	0x351a
 1ac:	0000                	unimp
 1ae:	4600                	lw	s0,8(a2)
 1b0:	4401                	li	s0,0
 1b2:	0000                	unimp
 1b4:	2a00                	.2byte	0x2a00
 1b6:	0004                	.2byte	0x4
 1b8:	2ce0                	.2byte	0x2ce0
 1ba:	0000                	unimp
 1bc:	0100                	addi	s0,sp,128
 1be:	339c                	.2byte	0x339c
 1c0:	0002                	c.slli64	zero
 1c2:	2b00                	.2byte	0x2b00
 1c4:	46010073          	.4byte	0x46010073
 1c8:	1601                	addi	a2,a2,-32
 1ca:	00000233          	add	tp,zero,zero
 1ce:	0069                	c.nop	26
 1d0:	0000                	unimp
 1d2:	6908                	.2byte	0x6908
 1d4:	4800                	lw	s0,16(s0)
 1d6:	0701                	addi	a4,a4,0
 1d8:	0044                	addi	s1,sp,4
 1da:	0000                	unimp
 1dc:	0099                	addi	ra,ra,6
 1de:	0000                	unimp
 1e0:	222c                	.2byte	0x222c
 1e2:	0005                	c.nop	1
 1e4:	4000                	lw	s0,0(s0)
 1e6:	0004                	.2byte	0x4
 1e8:	04e0                	addi	s0,sp,588
 1ea:	0000                	unimp
 1ec:	0100                	addi	s0,sp,128
 1ee:	014d                	addi	sp,sp,19
 1f0:	00020e03          	lb	t3,0(tp) # 0 <_min_stack-0x2000>
 1f4:	0100                	addi	s0,sp,128
 1f6:	00000533          	add	a0,zero,zero
 1fa:	000000c7          	.4byte	0xc7
 1fe:	00044407          	.4byte	0x44407
 202:	93e0                	.2byte	0x93e0
 204:	0005                	c.nop	1
 206:	0600                	addi	s0,sp,768
 208:	5a01                	li	s4,-32
 20a:	3a01                	jal	fffffb1a <fromhost+0x1ffefb0a>
 20c:	0000                	unimp
 20e:	222d                	jal	338 <_min_stack-0x1cc8>
 210:	0005                	c.nop	1
 212:	5200                	lw	s0,32(a2)
 214:	0004                	.2byte	0x4
 216:	04e0                	addi	s0,sp,588
 218:	0000                	unimp
 21a:	0100                	addi	s0,sp,128
 21c:	0105014b          	.4byte	0x105014b
 220:	00000533          	add	a0,zero,zero
 224:	00d4                	addi	a3,sp,68
 226:	0000                	unimp
 228:	5415                	li	s0,-27
 22a:	0004                	.2byte	0x4
 22c:	93e0                	.2byte	0x93e0
 22e:	0005                	c.nop	1
 230:	0000                	unimp
 232:	0d00                	addi	s0,sp,656
 234:	00b9                	addi	ra,ra,14
 236:	0000                	unimp
 238:	911a                	add	sp,sp,t1
 23a:	0000                	unimp
 23c:	3700                	.2byte	0x3700
 23e:	4401                	li	s0,0
 240:	0000                	unimp
 242:	c800                	sw	s0,16(s0)
 244:	0002                	c.slli64	zero
 246:	58e0                	lw	s0,116(s1)
 248:	0001                	nop
 24a:	0100                	addi	s0,sp,128
 24c:	5f9c                	lw	a5,56(a5)
 24e:	2e000003          	lb	zero,736(zero) # 2e0 <_min_stack-0x1d20>
 252:	0216                	slli	tp,tp,0x5
 254:	0000                	unimp
 256:	3701                	jal	156 <_min_stack-0x1eaa>
 258:	1801                	addi	a6,a6,-32
 25a:	00000233          	add	tp,zero,zero
 25e:	00e5                	addi	ra,ra,25
 260:	0000                	unimp
 262:	63701b2f          	.4byte	0x63701b2f
 266:	3900                	.2byte	0x3900
 268:	0701                	addi	a4,a4,0
 26a:	0044                	addi	s1,sp,4
 26c:	0000                	unimp
 26e:	7630                	.2byte	0x7630
 270:	0061                	c.nop	24
 272:	3a01                	jal	fffffb82 <fromhost+0x1ffefb72>
 274:	0b01                	addi	s6,s6,0
 276:	0038                	addi	a4,sp,8
 278:	0000                	unimp
 27a:	7fac9103          	lh	sp,2042(s9) # ffff07fa <fromhost+0x1ffe07ea>
 27e:	5f31                	li	t5,-20
 280:	f2000003          	lb	zero,-224(zero) # ffffff20 <fromhost+0x1ffeff10>
 284:	0002                	c.slli64	zero
 286:	b6e0                	.2byte	0xb6e0
 288:	0000                	unimp
 28a:	0100                	addi	s0,sp,128
 28c:	013e                	slli	sp,sp,0xf
 28e:	1608                	addi	a0,sp,800
 290:	036e                	slli	t1,t1,0x1b
 292:	0000                	unimp
 294:	8401                	c.srai64	s0
 296:	ff000003          	lb	zero,-16(zero) # fffffff0 <fromhost+0x1ffeffe0>
 29a:	0000                	unimp
 29c:	0100                	addi	s0,sp,128
 29e:	0379                	addi	t1,t1,30
 2a0:	0000                	unimp
 2a2:	019a                	slli	gp,gp,0x6
 2a4:	0000                	unimp
 2a6:	b61c                	.2byte	0xb61c
 2a8:	0000                	unimp
 2aa:	0300                	addi	s0,sp,384
 2ac:	038e                	slli	t2,t2,0x3
 2ae:	0000                	unimp
 2b0:	0259                	addi	tp,tp,22 # 16 <_min_stack-0x1fea>
 2b2:	0000                	unimp
 2b4:	00039903          	lh	s2,0(t2)
 2b8:	aa00                	.2byte	0xaa00
 2ba:	0002                	c.slli64	zero
 2bc:	0300                	addi	s0,sp,384
 2be:	03a4                	addi	s1,sp,456
 2c0:	0000                	unimp
 2c2:	000002fb          	.4byte	0x2fb
 2c6:	0003ae17          	auipc	t3,0x3a
 2ca:	0300                	addi	s0,sp,384
 2cc:	a891                	j	320 <_min_stack-0x1ce0>
 2ce:	327f                	.2byte	0x327f
 2d0:	03b9                	addi	t2,t2,14
 2d2:	0000                	unimp
 2d4:	0416                	slli	s0,s0,0x5
 2d6:	e000                	.2byte	0xe000
 2d8:	c21d                	beqz	a2,2fe <_min_stack-0x1d02>
 2da:	c9000003          	lb	zero,-880(zero) # fffffc90 <fromhost+0x1ffefc80>
 2de:	0000                	unimp
 2e0:	ed00                	.2byte	0xed00
 2e2:	0002                	c.slli64	zero
 2e4:	1700                	addi	s0,sp,928
 2e6:	000003c3          	.4byte	0x3c3
 2ea:	5a01                	li	s4,-32
 2ec:	3300                	.2byte	0x3300
 2ee:	0500                	addi	s0,sp,640
 2f0:	0000                	unimp
 2f2:	0416                	slli	s0,s0,0x5
 2f4:	e000                	.2byte	0xe000
 2f6:	00dc                	addi	a5,sp,68
 2f8:	0000                	unimp
 2fa:	2e01                	jal	60a <_min_stack-0x19f6>
 2fc:	0701                	addi	a4,a4,0
 2fe:	0336                	slli	t1,t1,0xd
 300:	0000                	unimp
 302:	0d01                	addi	s10,s10,0
 304:	0005                	c.nop	1
 306:	3500                	.2byte	0x3500
 308:	01000003          	lb	zero,16(zero) # 10 <_min_stack-0x1ff0>
 30c:	0518                	addi	a4,sp,640
 30e:	0000                	unimp
 310:	0342                	slli	t1,t1,0x10
 312:	0000                	unimp
 314:	220a                	.2byte	0x220a
 316:	0005                	c.nop	1
 318:	1600                	addi	s0,sp,800
 31a:	0004                	.2byte	0x4
 31c:	dce0                	sw	s0,124(s1)
 31e:	0000                	unimp
 320:	9800                	.2byte	0x9800
 322:	3301                	jal	22 <_min_stack-0x1fde>
 324:	0005                	c.nop	1
 326:	4200                	lw	s0,0(a2)
 328:	15000003          	lb	zero,336(zero) # 150 <_min_stack-0x1eb0>
 32c:	041e                	slli	s0,s0,0x7
 32e:	e000                	.2byte	0xe000
 330:	00000593          	li	a1,0
 334:	0000                	unimp
 336:	861e                	mv	a2,t2
 338:	6ae00003          	lb	zero,1710(zero) # 6ae <_min_stack-0x1952>
 33c:	0006                	c.slli	zero,0x1
 33e:	4b00                	lw	s0,16(a4)
 340:	0e000003          	lb	zero,224(zero) # e0 <_min_stack-0x1f20>
 344:	04a6                	slli	s1,s1,0x9
 346:	0000                	unimp
 348:	3001                	jal	fffffb48 <fromhost+0x1ffefb38>
 34a:	0700                	addi	s0,sp,896
 34c:	03b2                	slli	t2,t2,0xc
 34e:	e000                	.2byte	0xe000
 350:	07a1                	addi	a5,a5,8
 352:	0000                	unimp
 354:	f80e                	.2byte	0xf80e
 356:	01000003          	lb	zero,16(zero) # 10 <_min_stack-0x1ff0>
 35a:	0030                	addi	a2,sp,8
 35c:	0000                	unimp
 35e:	0b00                	addi	s0,sp,400
 360:	016a                	slli	sp,sp,0x1a
 362:	0000                	unimp
 364:	00440cf3          	.4byte	0x440cf3
 368:	0000                	unimp
 36a:	000003cf          	.4byte	0x3cf
 36e:	6f04                	.2byte	0x6f04
 370:	7475                	lui	s0,0xffffd
 372:	f300                	.2byte	0xf300
 374:	cf1a                	sw	t1,156(sp)
 376:	0c000003          	lb	zero,192(zero) # c0 <_min_stack-0x1f40>
 37a:	0216                	slli	tp,tp,0x5
 37c:	0000                	unimp
 37e:	02332bf3          	csrrs	s7,0x23,t1
 382:	0000                	unimp
 384:	7604                	.2byte	0x7604
 386:	0061                	c.nop	24
 388:	00383bf3          	csrrc	s7,fcsr,a6
 38c:	0000                	unimp
 38e:	3a18                	.2byte	0x3a18
 390:	0000                	unimp
 392:	f500                	.2byte	0xf500
 394:	4410                	lw	a2,8(s0)
 396:	0000                	unimp
 398:	0200                	addi	s0,sp,256
 39a:	6170                	.2byte	0x6170
 39c:	0064                	addi	s1,sp,12
 39e:	17f5                	addi	a5,a5,-3
 3a0:	0044                	addi	s1,sp,4
 3a2:	0000                	unimp
 3a4:	7002                	.2byte	0x7002
 3a6:	10f60063          	beq	a2,a5,4a6 <_min_stack-0x1b5a>
 3aa:	0044                	addi	s1,sp,4
 3ac:	0000                	unimp
 3ae:	7302                	.2byte	0x7302
 3b0:	f7007263          	bgeu	zero,a6,fffffb14 <fromhost+0x1ffefb04>
 3b4:	d908                	sw	a0,48(a0)
 3b6:	34000003          	lb	zero,832(zero) # 340 <_min_stack-0x1cc0>
 3ba:	0074756f          	jal	a0,47bc0 <tohost+0x27bb8>
 3be:	2d01                	jal	9ce <_min_stack-0x1632>
 3c0:	0101                	addi	sp,sp,0
 3c2:	1b19                	addi	s6,s6,-26
 3c4:	01100073          	.4byte	0x1100073
 3c8:	d418                	sw	a4,40(s0)
 3ca:	00000003          	lb	zero,0(zero) # 0 <_min_stack-0x2000>
 3ce:	0d00                	addi	s0,sp,656
 3d0:	03d4                	addi	a3,sp,452
 3d2:	0000                	unimp
 3d4:	b20d                	j	fffffcf6 <fromhost+0x1ffefce6>
 3d6:	0000                	unimp
 3d8:	1300                	addi	s0,sp,416
 3da:	00b2                	slli	ra,ra,0xc
 3dc:	0000                	unimp
 3de:	03e9                	addi	t2,t2,26
 3e0:	0000                	unimp
 3e2:	5014                	lw	a3,32(s0)
 3e4:	0000                	unimp
 3e6:	0100                	addi	s0,sp,128
 3e8:	0b00                	addi	s0,sp,400
 3ea:	0098                	addi	a4,sp,64
 3ec:	0000                	unimp
 3ee:	0cb9                	addi	s9,s9,14
 3f0:	0044                	addi	s1,sp,4
 3f2:	0000                	unimp
 3f4:	00000487          	.4byte	0x487
 3f8:	6f04                	.2byte	0x6f04
 3fa:	7475                	lui	s0,0xffffd
 3fc:	b900                	.2byte	0xb900
 3fe:	0003cf1b          	.4byte	0x3cf1b
 402:	0400                	addi	s0,sp,512
 404:	0069                	c.nop	26
 406:	24b9                	jal	654 <_min_stack-0x19ac>
 408:	0044                	addi	s1,sp,4
 40a:	0000                	unimp
 40c:	6204                	.2byte	0x6204
 40e:	b900                	.2byte	0xb900
 410:	0000442b          	.4byte	0x442b
 414:	0400                	addi	s0,sp,512
 416:	b9006773          	csrrsi	a4,mhpmcounter16h,0
 41a:	4432                	lw	s0,12(sp)
 41c:	0000                	unimp
 41e:	0c00                	addi	s0,sp,528
 420:	003a                	c.slli	zero,0xe
 422:	0000                	unimp
 424:	3ab9                	jal	fffffd82 <fromhost+0x1ffefd72>
 426:	0044                	addi	s1,sp,4
 428:	0000                	unimp
 42a:	7004                	.2byte	0x7004
 42c:	6461                	lui	s0,0x18
 42e:	b900                	.2byte	0xb900
 430:	4445                	li	s0,17
 432:	0000                	unimp
 434:	0c00                	addi	s0,sp,528
 436:	0082                	c.slli64	ra
 438:	0000                	unimp
 43a:	4fb9                	li	t6,14
 43c:	00b2                	slli	ra,ra,0xc
 43e:	0000                	unimp
 440:	9818                	.2byte	0x9818
 442:	0001                	nop
 444:	bb00                	.2byte	0xbb00
 446:	8708                	.2byte	0x8708
 448:	0004                	.2byte	0x4
 44a:	0200                	addi	s0,sp,256
 44c:	12bc0073          	sfence.vma	s8,a1
 450:	03d4                	addi	a3,sp,452
 452:	0000                	unimp
 454:	6e02                	.2byte	0x6e02
 456:	6765                	lui	a4,0x19
 458:	bd00                	.2byte	0xbd00
 45a:	4410                	lw	a2,8(s0)
 45c:	0000                	unimp
 45e:	0200                	addi	s0,sp,256
 460:	6370                	.2byte	0x6370
 462:	bd00                	.2byte	0xbd00
 464:	4419                	li	s0,6
 466:	0000                	unimp
 468:	0200                	addi	s0,sp,256
 46a:	0074                	addi	a3,sp,12
 46c:	10be                	slli	ra,ra,0x2f
 46e:	0050                	addi	a2,sp,4
 470:	0000                	unimp
 472:	7502                	.2byte	0x7502
 474:	be00                	.2byte	0xbe00
 476:	5012                	.2byte	0x5012
 478:	0000                	unimp
 47a:	1900                	addi	s0,sp,176
 47c:	7402                	.2byte	0x7402
 47e:	d400                	sw	s0,40(s0)
 480:	0000440b          	.4byte	0x440b
 484:	0000                	unimp
 486:	1300                	addi	s0,sp,416
 488:	00b2                	slli	ra,ra,0xc
 48a:	0000                	unimp
 48c:	00000497          	auipc	s1,0x0
 490:	5014                	lw	a3,32(s0)
 492:	0000                	unimp
 494:	1f00                	addi	s0,sp,944
 496:	0b00                	addi	s0,sp,400
 498:	0000                	unimp
 49a:	0000                	unimp
 49c:	00440c9b          	.4byte	0x440c9b
 4a0:	0000                	unimp
 4a2:	0500                	addi	s0,sp,640
 4a4:	0000                	unimp
 4a6:	6f04                	.2byte	0x6f04
 4a8:	7475                	lui	s0,0xffffd
 4aa:	9b00                	.2byte	0x9b00
 4ac:	0003cf1b          	.4byte	0x3cf1b
 4b0:	0c00                	addi	s0,sp,528
 4b2:	008a                	slli	ra,ra,0x2
 4b4:	0000                	unimp
 4b6:	02332c9b          	.4byte	0x2332c9b
 4ba:	0000                	unimp
 4bc:	3a0c                	.2byte	0x3a0c
 4be:	0000                	unimp
 4c0:	9b00                	.2byte	0x9b00
 4c2:	4438                	lw	a4,72(s0)
 4c4:	0000                	unimp
 4c6:	0400                	addi	s0,sp,512
 4c8:	6170                	.2byte	0x6170
 4ca:	0064                	addi	s1,sp,12
 4cc:	0044439b          	.4byte	0x44439b
 4d0:	0000                	unimp
 4d2:	7002                	.2byte	0x7002
 4d4:	109d0063          	beq	s10,s1,5d4 <_min_stack-0x1a2c>
 4d8:	0044                	addi	s1,sp,4
 4da:	0000                	unimp
 4dc:	2018                	.2byte	0x2018
 4de:	0000                	unimp
 4e0:	9d00                	.2byte	0x9d00
 4e2:	4418                	lw	a4,8(s0)
 4e4:	0000                	unimp
 4e6:	1900                	addi	s0,sp,176
 4e8:	6c02                	.2byte	0x6c02
 4ea:	6e65                	lui	t3,0x19
 4ec:	a000                	.2byte	0xa000
 4ee:	4412                	lw	s0,4(sp)
 4f0:	0000                	unimp
 4f2:	0200                	addi	s0,sp,256
 4f4:	7470                	.2byte	0x7470
 4f6:	0072                	c.slli	zero,0x1c
 4f8:	1aa1                	addi	s5,s5,-24
 4fa:	00000233          	add	tp,zero,zero
 4fe:	0000                	unimp
 500:	a235                	j	62c <_min_stack-0x19d4>
 502:	0001                	nop
 504:	0100                	addi	s0,sp,128
 506:	0d90                	addi	a2,sp,720
 508:	2201                	jal	608 <_min_stack-0x19f8>
 50a:	0005                	c.nop	1
 50c:	0400                	addi	s0,sp,512
 50e:	00727473          	csrrci	s0,0x7,4
 512:	1f90                	addi	a2,sp,1008
 514:	000003cf          	.4byte	0x3cf
 518:	6304                	.2byte	0x6304
 51a:	9000                	.2byte	0x9000
 51c:	4428                	lw	a0,72(s0)
 51e:	0000                	unimp
 520:	0000                	unimp
 522:	1836                	slli	a6,a6,0x2d
 524:	0000                	unimp
 526:	0100                	addi	s0,sp,128
 528:	058a                	slli	a1,a1,0x2
 52a:	0044                	addi	s1,sp,4
 52c:	0000                	unimp
 52e:	3d01                	jal	33e <_min_stack-0x1cc2>
 530:	0005                	c.nop	1
 532:	0400                	addi	s0,sp,512
 534:	118a0073          	.4byte	0x118a0073
 538:	0044                	addi	s1,sp,4
 53a:	0000                	unimp
 53c:	0b00                	addi	s0,sp,400
 53e:	0000007b          	.4byte	0x7b
 542:	1185                	addi	gp,gp,-31
 544:	0050                	addi	a2,sp,4
 546:	0000                	unimp
 548:	0556                	slli	a0,a0,0x15
 54a:	0000                	unimp
 54c:	6e04                	.2byte	0x6e04
 54e:	8500                	.2byte	0x8500
 550:	5021                	c.li	zero,-24
 552:	0000                	unimp
 554:	0000                	unimp
 556:	0001bf0b          	.4byte	0x1bf0b
 55a:	7300                	.2byte	0x7300
 55c:	5011                	c.li	zero,-28
 55e:	0000                	unimp
 560:	8100                	.2byte	0x8100
 562:	0005                	c.nop	1
 564:	0400                	addi	s0,sp,512
 566:	006e                	c.slli	zero,0x1b
 568:	00502173          	csrr	sp,utvec
 56c:	0000                	unimp
 56e:	7102                	.2byte	0x7102
 570:	7400                	.2byte	0x7400
 572:	500c                	lw	a1,32(s0)
 574:	0000                	unimp
 576:	0200                	addi	s0,sp,256
 578:	0072                	c.slli	zero,0x1c
 57a:	0f74                	addi	a3,sp,924
 57c:	0050                	addi	a2,sp,4
 57e:	0000                	unimp
 580:	3700                	.2byte	0x3700
 582:	0141                	addi	sp,sp,16
 584:	0000                	unimp
 586:	5501                	li	a0,-32
 588:	a206                	.2byte	0xa206
 58a:	0002                	c.slli64	zero
 58c:	0ee0                	addi	s0,sp,860
 58e:	0000                	unimp
 590:	0100                	addi	s0,sp,128
 592:	0f9c                	addi	a5,sp,976
 594:	01c6                	slli	gp,gp,0x11
 596:	0000                	unimp
 598:	ea4d                	bnez	a2,64a <_min_stack-0x19b6>
 59a:	0000                	unimp
 59c:	10e0                	addi	s0,sp,108
 59e:	0000                	unimp
 5a0:	0100                	addi	s0,sp,128
 5a2:	b49c                	.2byte	0xb49c
 5a4:	0005                	c.nop	1
 5a6:	3800                	.2byte	0x3800
 5a8:	4d010063          	beq	sp,a6,a68 <_min_stack-0x1598>
 5ac:	b91f 0000 0100      	.byte	0x1f, 0xb9, 0x00, 0x00, 0x00, 0x01
 5b2:	005a                	c.slli	zero,0x16
 5b4:	6e39                	lui	t3,0xe
 5b6:	0000                	unimp
 5b8:	0100                	addi	s0,sp,128
 5ba:	00b20647          	.4byte	0xb20647
 5be:	0000                	unimp
 5c0:	00d8                	addi	a4,sp,68
 5c2:	e000                	.2byte	0xe000
 5c4:	0012                	c.slli	zero,0x4
 5c6:	0000                	unimp
 5c8:	9c01                	.2byte	0x9c01
 5ca:	0002040f          	.4byte	0x2040f
 5ce:	3500                	.2byte	0x3500
 5d0:	00b2                	slli	ra,ra,0xc
 5d2:	e000                	.2byte	0xe000
 5d4:	0026                	c.slli	zero,0x9
 5d6:	0000                	unimp
 5d8:	9c01                	.2byte	0x9c01
 5da:	0606                	slli	a2,a2,0x1
 5dc:	0000                	unimp
 5de:	731f 7274 1c00      	.byte	0x1f, 0x73, 0x74, 0x72, 0x00, 0x1c
 5e4:	00000233          	add	tp,zero,zero
 5e8:	0355                	addi	t1,t1,21
 5ea:	0000                	unimp
 5ec:	6c1f 6e65 2e00      	.byte	0x1f, 0x6c, 0x65, 0x6e, 0x00, 0x2e
 5f2:	0050                	addi	a2,sp,4
 5f4:	0000                	unimp
 5f6:	036c                	addi	a1,sp,396
 5f8:	0000                	unimp
 5fa:	693a                	.2byte	0x693a
 5fc:	0100                	addi	s0,sp,128
 5fe:	1036                	c.slli	zero,0x2d
 600:	0050                	addi	a2,sp,4
 602:	0000                	unimp
 604:	0000                	unimp
 606:	0000280f          	.4byte	0x280f
 60a:	2a00                	.2byte	0x2a00
 60c:	0084                	addi	s1,sp,64
 60e:	e000                	.2byte	0xe000
 610:	002e                	c.slli	zero,0xb
 612:	0000                	unimp
 614:	9c01                	.2byte	0x9c01
 616:	0642                	slli	a2,a2,0x10
 618:	0000                	unimp
 61a:	0000a03b          	.4byte	0xa03b
 61e:	0100                	addi	s0,sp,128
 620:	172a                	slli	a4,a4,0x2a
 622:	0044                	addi	s1,sp,4
 624:	0000                	unimp
 626:	5a01                	li	s4,-32
 628:	d43c                	sw	a5,104(s0)
 62a:	0001                	nop
 62c:	0100                	addi	s0,sp,128
 62e:	282a                	.2byte	0x282a
 630:	0081                	addi	ra,ra,0
 632:	0000                	unimp
 634:	0390                	addi	a2,sp,448
 636:	0000                	unimp
 638:	6902                	.2byte	0x6902
 63a:	2b00                	.2byte	0x2b00
 63c:	5010                	lw	a2,32(s0)
 63e:	0000                	unimp
 640:	0000                	unimp
 642:	0000400f          	.4byte	0x400f
 646:	1b00                	addi	s0,sp,432
 648:	0420                	addi	s0,sp,520
 64a:	e000                	.2byte	0xe000
 64c:	000a                	c.slli	zero,0x2
 64e:	0000                	unimp
 650:	9c01                	.2byte	0x9c01
 652:	066a                	slli	a2,a2,0x1a
 654:	0000                	unimp
 656:	2a3d                	jal	794 <_min_stack-0x186c>
 658:	0004                	.2byte	0x4
 65a:	38e0                	.2byte	0x38e0
 65c:	0002                	c.slli64	zero
 65e:	0600                	addi	s0,sp,768
 660:	5a01                	li	s4,-32
 662:	0305                	addi	t1,t1,1
 664:	2400                	.2byte	0x2400
 666:	e000                	.2byte	0xe000
 668:	0000                	unimp
 66a:	9720                	.2byte	0x9720
 66c:	0004                	.2byte	0x4
 66e:	fa00                	.2byte	0xfa00
 670:	0000                	unimp
 672:	a6e0                	.2byte	0xa6e0
 674:	0000                	unimp
 676:	0100                	addi	s0,sp,128
 678:	a19c                	.2byte	0xa19c
 67a:	01000007          	.4byte	0x1000007
 67e:	04b1                	addi	s1,s1,12 # 498 <_min_stack-0x1b68>
 680:	0000                	unimp
 682:	03aa                	slli	t2,t2,0xa
 684:	0000                	unimp
 686:	bc01                	j	96 <_min_stack-0x1f6a>
 688:	0004                	.2byte	0x4
 68a:	d400                	sw	s0,40(s0)
 68c:	01000003          	lb	zero,16(zero) # 10 <_min_stack-0x1ff0>
 690:	000004c7          	.4byte	0x4c7
 694:	043a                	slli	s0,s0,0xe
 696:	0000                	unimp
 698:	0004d203          	lhu	tp,0(s1)
 69c:	6d00                	.2byte	0x6d00
 69e:	0004                	.2byte	0x4
 6a0:	0300                	addi	s0,sp,384
 6a2:	04dc                	addi	a5,sp,580
 6a4:	0000                	unimp
 6a6:	0485                	addi	s1,s1,1
 6a8:	0000                	unimp
 6aa:	a616                	.2byte	0xa616
 6ac:	0004                	.2byte	0x4
 6ae:	1d00                	addi	s0,sp,688
 6b0:	000004e7          	jalr	s1,zero # 0 <_min_stack-0x2000>
 6b4:	000c                	.2byte	0xc
 6b6:	0000                	unimp
 6b8:	000006cf          	.4byte	0x6cf
 6bc:	0004e803          	.4byte	0x4e803
 6c0:	a000                	.2byte	0xa000
 6c2:	0004                	.2byte	0x4
 6c4:	0300                	addi	s0,sp,384
 6c6:	000004f3          	.4byte	0x4f3
 6ca:	000004b7          	lui	s1,0x0
 6ce:	1000                	addi	s0,sp,32
 6d0:	0500                	addi	s0,sp,640
 6d2:	0000                	unimp
 6d4:	0140                	addi	s0,sp,132
 6d6:	e000                	.2byte	0xe000
 6d8:	0028                	addi	a0,sp,8
 6da:	0000                	unimp
 6dc:	07a9                	addi	a5,a5,10
 6de:	0715                	addi	a4,a4,5 # 19005 <_stack_len+0x11005>
 6e0:	0000                	unimp
 6e2:	0d01                	addi	s10,s10,0
 6e4:	0005                	c.nop	1
 6e6:	f300                	.2byte	0xf300
 6e8:	0004                	.2byte	0x4
 6ea:	1100                	addi	s0,sp,160
 6ec:	0518                	addi	a4,sp,640
 6ee:	0000                	unimp
 6f0:	220a                	.2byte	0x220a
 6f2:	0005                	c.nop	1
 6f4:	4000                	lw	s0,0(s0)
 6f6:	0001                	nop
 6f8:	3be0                	.2byte	0x3be0
 6fa:	0000                	unimp
 6fc:	9800                	.2byte	0x9800
 6fe:	3311                	jal	402 <_min_stack-0x1bfe>
 700:	0005                	c.nop	1
 702:	0700                	addi	s0,sp,896
 704:	014e                	slli	sp,sp,0x13
 706:	e000                	.2byte	0xe000
 708:	00000593          	li	a1,0
 70c:	0106                	slli	sp,sp,0x1
 70e:	025a                	slli	tp,tp,0x16
 710:	00000083          	lb	ra,0(zero) # 0 <_min_stack-0x2000>
 714:	3e00                	.2byte	0x3e00
 716:	0500                	addi	s0,sp,640
 718:	0000                	unimp
 71a:	0164                	addi	s1,sp,140
 71c:	e000                	.2byte	0xe000
 71e:	0002                	c.slli64	zero
 720:	0000                	unimp
 722:	ae01                	j	a32 <_min_stack-0x15ce>
 724:	5f05                	li	t5,-31
 726:	01000007          	.4byte	0x1000007
 72a:	050d                	addi	a0,a0,3
 72c:	0000                	unimp
 72e:	0500                	addi	s0,sp,640
 730:	0000                	unimp
 732:	1801                	addi	a6,a6,-32
 734:	0005                	c.nop	1
 736:	0d00                	addi	s0,sp,656
 738:	0005                	c.nop	1
 73a:	3f00                	.2byte	0x3f00
 73c:	0522                	slli	a0,a0,0x8
 73e:	0000                	unimp
 740:	0164                	addi	s1,sp,140
 742:	e000                	.2byte	0xe000
 744:	0002                	c.slli64	zero
 746:	0000                	unimp
 748:	9801                	andi	s0,s0,-32
 74a:	0105                	addi	sp,sp,1
 74c:	00000533          	add	a0,zero,zero
 750:	050d                	addi	a0,a0,3
 752:	0000                	unimp
 754:	6615                	lui	a2,0x5
 756:	0001                	nop
 758:	93e0                	.2byte	0x93e0
 75a:	0005                	c.nop	1
 75c:	0000                	unimp
 75e:	0a00                	addi	s0,sp,272
 760:	0500                	addi	s0,sp,640
 762:	0000                	unimp
 764:	0176                	slli	sp,sp,0x1d
 766:	e000                	.2byte	0xe000
 768:	004e                	c.slli	zero,0x13
 76a:	0000                	unimp
 76c:	01b2                	slli	gp,gp,0xc
 76e:	050d                	addi	a0,a0,3
 770:	0000                	unimp
 772:	051e                	slli	a0,a0,0x7
 774:	0000                	unimp
 776:	1811                	addi	a6,a6,-28
 778:	0005                	c.nop	1
 77a:	0a00                	addi	s0,sp,272
 77c:	0522                	slli	a0,a0,0x8
 77e:	0000                	unimp
 780:	0176                	slli	sp,sp,0x1d
 782:	e000                	.2byte	0xe000
 784:	0061                	c.nop	24
 786:	0000                	unimp
 788:	1198                	addi	a4,sp,224
 78a:	00000533          	add	a0,zero,zero
 78e:	00019c07          	.4byte	0x19c07
 792:	93e0                	.2byte	0x93e0
 794:	0005                	c.nop	1
 796:	0600                	addi	s0,sp,768
 798:	5a01                	li	s4,-32
 79a:	7902                	.2byte	0x7902
 79c:	0000                	unimp
 79e:	0000                	unimp
 7a0:	2000                	.2byte	0x2000
 7a2:	03e9                	addi	t2,t2,26
 7a4:	0000                	unimp
 7a6:	01a0                	addi	s0,sp,200
 7a8:	e000                	.2byte	0xe000
 7aa:	0102                	c.slli64	sp
 7ac:	0000                	unimp
 7ae:	9c01                	.2byte	0x9c01
 7b0:	091c                	addi	a5,sp,144
 7b2:	0000                	unimp
 7b4:	0301                	addi	t1,t1,0
 7b6:	0004                	.2byte	0x4
 7b8:	2b00                	.2byte	0x2b00
 7ba:	0005                	c.nop	1
 7bc:	0100                	addi	s0,sp,128
 7be:	040c                	addi	a1,sp,512
 7c0:	0000                	unimp
 7c2:	00000577          	.4byte	0x577
 7c6:	1501                	addi	a0,a0,-32
 7c8:	0004                	.2byte	0x4
 7ca:	ce00                	sw	s0,24(a2)
 7cc:	0005                	c.nop	1
 7ce:	0100                	addi	s0,sp,128
 7d0:	041f 0000 0625      	.byte	0x1f, 0x04, 0x00, 0x00, 0x25, 0x06
 7d6:	0000                	unimp
 7d8:	2a01                	jal	8e8 <_min_stack-0x1718>
 7da:	0004                	.2byte	0x4
 7dc:	6c00                	.2byte	0x6c00
 7de:	0006                	c.slli	zero,0x1
 7e0:	0100                	addi	s0,sp,128
 7e2:	0435                	addi	s0,s0,13 # ffffd00d <fromhost+0x1ffecffd>
 7e4:	0000                	unimp
 7e6:	06b6                	slli	a3,a3,0xd
 7e8:	0000                	unimp
 7ea:	00044017          	auipc	zero,0x44
 7ee:	0200                	addi	s0,sp,256
 7f0:	5091                	li	ra,-28
 7f2:	00044b03          	lbu	s6,0(s0)
 7f6:	0200                	addi	s0,sp,256
 7f8:	03000007          	.4byte	0x3000007
 7fc:	0454                	addi	a3,sp,516
 7fe:	0000                	unimp
 800:	073e                	slli	a4,a4,0xf
 802:	0000                	unimp
 804:	00045f03          	lhu	t5,0(s0)
 808:	9000                	.2byte	0x9000
 80a:	40000007          	.4byte	0x40000007
 80e:	0469                	addi	s0,s0,26
 810:	0000                	unimp
 812:	00047203          	.4byte	0x47203
 816:	cc00                	sw	s0,24(s0)
 818:	16000007          	.4byte	0x16000007
 81c:	03f8                	addi	a4,sp,460
 81e:	0000                	unimp
 820:	3d10                	.2byte	0x3d10
 822:	0005                	c.nop	1
 824:	e800                	.2byte	0xe800
 826:	0001                	nop
 828:	74e0                	.2byte	0x74e0
 82a:	0000                	unimp
 82c:	df00                	sw	s0,56(a4)
 82e:	3d0e                	.2byte	0x3d0e
 830:	0008                	.2byte	0x8
 832:	0100                	addi	s0,sp,128
 834:	054c                	addi	a1,sp,644
 836:	0000                	unimp
 838:	0835                	addi	a6,a6,13
 83a:	0000                	unimp
 83c:	1000                	addi	s0,sp,32
 83e:	0556                	slli	a0,a0,0x15
 840:	0000                	unimp
 842:	01f8                	addi	a4,sp,204
 844:	e000                	.2byte	0xe000
 846:	0090                	addi	a2,sp,64
 848:	0000                	unimp
 84a:	0be0                	addi	s0,sp,476
 84c:	0872                	slli	a6,a6,0x1c
 84e:	0000                	unimp
 850:	6501                	.2byte	0x6501
 852:	0005                	c.nop	1
 854:	4100                	lw	s0,0(a0)
 856:	0008                	.2byte	0x8
 858:	1c00                	addi	s0,sp,560
 85a:	0090                	addi	a2,sp,64
 85c:	0000                	unimp
 85e:	00056e03          	.4byte	0x56e03
 862:	5a00                	lw	s0,48(a2)
 864:	0008                	.2byte	0x8
 866:	0300                	addi	s0,sp,384
 868:	00000577          	.4byte	0x577
 86c:	0866                	slli	a6,a6,0x19
 86e:	0000                	unimp
 870:	0000                	unimp
 872:	7b41                	lui	s6,0xffff0
 874:	0004                	.2byte	0x4
 876:	5000                	lw	s0,32(s0)
 878:	0002                	c.slli64	zero
 87a:	1ee0                	addi	s0,sp,892
 87c:	0000                	unimp
 87e:	8d00                	.2byte	0x8d00
 880:	0008                	.2byte	0x8
 882:	0300                	addi	s0,sp,384
 884:	047c                	addi	a5,sp,524
 886:	0000                	unimp
 888:	0000088f          	.4byte	0x88f
 88c:	1000                	addi	s0,sp,32
 88e:	0500                	addi	s0,sp,640
 890:	0000                	unimp
 892:	027c                	addi	a5,sp,268
 894:	e000                	.2byte	0xe000
 896:	000000a3          	sb	zero,1(zero) # 1 <_min_stack-0x1fff>
 89a:	08db07e7          	jalr	a5,141(s6) # ffff008d <fromhost+0x1ffe007d>
 89e:	0000                	unimp
 8a0:	0d01                	addi	s10,s10,0
 8a2:	0005                	c.nop	1
 8a4:	a800                	.2byte	0xa800
 8a6:	0008                	.2byte	0x8
 8a8:	0100                	addi	s0,sp,128
 8aa:	0518                	addi	a4,sp,640
 8ac:	0000                	unimp
 8ae:	08b5                	addi	a7,a7,13
 8b0:	0000                	unimp
 8b2:	220a                	.2byte	0x220a
 8b4:	0005                	c.nop	1
 8b6:	7c00                	.2byte	0x7c00
 8b8:	0002                	c.slli64	zero
 8ba:	a3e0                	.2byte	0xa3e0
 8bc:	0000                	unimp
 8be:	9800                	.2byte	0x9800
 8c0:	3301                	jal	5c0 <_min_stack-0x1a40>
 8c2:	0005                	c.nop	1
 8c4:	b500                	.2byte	0xb500
 8c6:	0008                	.2byte	0x8
 8c8:	0700                	addi	s0,sp,896
 8ca:	0286                	slli	t0,t0,0x1
 8cc:	e000                	.2byte	0xe000
 8ce:	00000593          	li	a1,0
 8d2:	0106                	slli	sp,sp,0x1
 8d4:	025a                	slli	tp,tp,0x16
 8d6:	2d08                	.2byte	0x2d08
 8d8:	0000                	unimp
 8da:	1e00                	addi	s0,sp,816
 8dc:	01be                	slli	gp,gp,0xf
 8de:	e000                	.2byte	0xe000
 8e0:	066a                	slli	a2,a2,0x1a
 8e2:	0000                	unimp
 8e4:	0904                	addi	s1,sp,144
 8e6:	0000                	unimp
 8e8:	0106                	slli	sp,sp,0x1
 8ea:	025a                	slli	tp,tp,0x16
 8ec:	5091                	li	ra,-28
 8ee:	0106                	slli	sp,sp,0x1
 8f0:	01a3035b          	.4byte	0x1a3035b
 8f4:	065d                	addi	a2,a2,23 # 5017 <_min_stack+0x3017>
 8f6:	5c01                	li	s8,-32
 8f8:	5e01a303          	lw	t1,1504(gp)
 8fc:	a60e                	.2byte	0xa60e
 8fe:	0004                	.2byte	0x4
 900:	0100                	addi	s0,sp,128
 902:	0030                	addi	a2,sp,8
 904:	00029007          	.4byte	0x29007
 908:	6ae0                	.2byte	0x6ae0
 90a:	0006                	c.slli	zero,0x1
 90c:	0600                	addi	s0,sp,768
 90e:	5a01                	li	s4,-32
 910:	7802                	.2byte	0x7802
 912:	0e00                	addi	s0,sp,784
 914:	04a6                	slli	s1,s1,0x9
 916:	0000                	unimp
 918:	3001                	jal	118 <_min_stack-0x1ee8>
 91a:	0000                	unimp
 91c:	2242                	.2byte	0x2242
 91e:	0005                	c.nop	1
 920:	b000                	.2byte	0xb000
 922:	0002                	c.slli64	zero
 924:	18e0                	addi	s0,sp,124
 926:	0000                	unimp
 928:	0100                	addi	s0,sp,128
 92a:	019c                	addi	a5,sp,192
 92c:	00000533          	add	a0,zero,zero
 930:	000008c3          	.4byte	0x8c3
 934:	0002be07          	.4byte	0x2be07
 938:	93e0                	.2byte	0x93e0
 93a:	0005                	c.nop	1
 93c:	0600                	addi	s0,sp,768
 93e:	5a01                	li	s4,-32
 940:	7802                	.2byte	0x7802
 942:	0000                	unimp
 944:	0000                	unimp
 946:	00bd                	addi	ra,ra,15
 948:	0000                	unimp
 94a:	0005                	c.nop	1
 94c:	0401                	addi	s0,s0,0
 94e:	03dd                	addi	t2,t2,23
 950:	0000                	unimp
 952:	c302                	sw	zero,132(sp)
 954:	0000                	unimp
 956:	1d00                	addi	s0,sp,688
 958:	0144                	addi	s1,sp,132
 95a:	0000                	unimp
 95c:	0000                	unimp
 95e:	0000                	unimp
 960:	000000fb          	.4byte	0xfb
 964:	0000                	unimp
 966:	0000                	unimp
 968:	0dd9                	addi	s11,s11,22
 96a:	0000                	unimp
 96c:	0101                	addi	sp,sp,0
 96e:	3506                	.2byte	0x3506
 970:	0001                	nop
 972:	0100                	addi	s0,sp,128
 974:	0801                	addi	a6,a6,0
 976:	00000133          	add	sp,zero,zero
 97a:	0201                	addi	tp,tp,0 # 0 <_min_stack-0x2000>
 97c:	0805                	addi	a6,a6,1
 97e:	0000                	unimp
 980:	0100                	addi	s0,sp,128
 982:	0702                	c.slli64	a4
 984:	0185                	addi	gp,gp,1
 986:	0000                	unimp
 988:	0401                	addi	s0,s0,0
 98a:	5805                	li	a6,-31
 98c:	0000                	unimp
 98e:	0100                	addi	s0,sp,128
 990:	0704                	addi	s1,sp,896
 992:	0158                	addi	a4,sp,132
 994:	0000                	unimp
 996:	0801                	addi	a6,a6,0
 998:	5305                	li	t1,-31
 99a:	0000                	unimp
 99c:	0100                	addi	s0,sp,128
 99e:	0708                	addi	a0,sp,896
 9a0:	00000153          	.4byte	0x153
 9a4:	69050403          	lb	s0,1680(a0)
 9a8:	746e                	.2byte	0x746e
 9aa:	0100                	addi	s0,sp,128
 9ac:	0704                	addi	s1,sp,896
 9ae:	015d                	addi	sp,sp,23
 9b0:	0000                	unimp
 9b2:	1001                	c.nop	-32
 9b4:	2704                	.2byte	0x2704
 9b6:	0001                	nop
 9b8:	0100                	addi	s0,sp,128
 9ba:	0801                	addi	a6,a6,0
 9bc:	013c                	addi	a5,sp,136
 9be:	0000                	unimp
 9c0:	2404                	.2byte	0x2404
 9c2:	0002                	c.slli64	zero
 9c4:	0200                	addi	s0,sp,256
 9c6:	050a                	slli	a0,a0,0x2
 9c8:	005e                	c.slli	zero,0x17
 9ca:	0000                	unimp
 9cc:	23f2                	.2byte	0x23f2
 9ce:	e000                	.2byte	0xe000
 9d0:	0004                	.2byte	0x4
 9d2:	0000                	unimp
 9d4:	9c01                	.2byte	0x9c01
 9d6:	00aa                	slli	ra,ra,0xa
 9d8:	0000                	unimp
 9da:	6c05                	lui	s8,0x1
 9dc:	02006c6f          	jal	s8,69fc <_min_stack+0x49fc>
 9e0:	005e0713          	addi	a4,t3,5 # e005 <_stack_len+0x6005>
 9e4:	0000                	unimp
 9e6:	f606                	.2byte	0xf606
 9e8:	aae00023          	sb	a4,-1376(zero) # fffffaa0 <fromhost+0x1ffefa90>
 9ec:	0000                	unimp
 9ee:	0000                	unimp
 9f0:	00022907          	.4byte	0x22907
 9f4:	0100                	addi	s0,sp,128
 9f6:	0509                	addi	a0,a0,2
 9f8:	005e                	c.slli	zero,0x17
 9fa:	0000                	unimp
 9fc:	04c2                	slli	s1,s1,0x10
 9fe:	e000                	.2byte	0xe000
 a00:	1eac                	addi	a1,sp,888
 a02:	0000                	unimp
 a04:	9c01                	.2byte	0x9c01
 a06:	1f00                	addi	s0,sp,944
 a08:	0000                	unimp
 a0a:	0500                	addi	s0,sp,640
 a0c:	0100                	addi	s0,sp,128
 a0e:	5604                	lw	s1,40(a2)
 a10:	0004                	.2byte	0x4
 a12:	0100                	addi	s0,sp,128
 a14:	4a68                	lw	a0,84(a2)
 a16:	0000                	unimp
 a18:	011a                	slli	sp,sp,0x6
 a1a:	0000                	unimp
 a1c:	0000023b          	.4byte	0x23b
 a20:	0286                	slli	t0,t0,0x1
 a22:	0000                	unimp
 a24:	02ce                	slli	t0,t0,0x13
 a26:	0000                	unimp
 a28:	8001                	c.srli64	s0

Disassembly of section .debug_abbrev:

00000000 <.debug_abbrev>:
   0:	0501                	addi	a0,a0,0
   2:	3100                	.2byte	0x3100
   4:	00170213          	addi	tp,a4,1
   8:	0200                	addi	s0,sp,256
   a:	0034                	addi	a3,sp,8
   c:	213a0803          	lb	a6,531(s4)
  10:	3b01                	jal	fffffd20 <fromhost+0x1ffefd10>
  12:	490b390b          	.4byte	0x490b390b
  16:	03000013          	li	zero,48
  1a:	0034                	addi	a3,sp,8
  1c:	1331                	addi	t1,t1,-20
  1e:	1702                	slli	a4,a4,0x20
  20:	0000                	unimp
  22:	0504                	addi	s1,sp,640
  24:	0300                	addi	s0,sp,384
  26:	3a08                	.2byte	0x3a08
  28:	0121                	addi	sp,sp,8
  2a:	0b390b3b          	.4byte	0xb390b3b
  2e:	1349                	addi	t1,t1,-14
  30:	0000                	unimp
  32:	2405                	jal	252 <_min_stack-0x1dae>
  34:	0b00                	addi	s0,sp,400
  36:	030b3e0b          	.4byte	0x30b3e0b
  3a:	000e                	c.slli	zero,0x3
  3c:	0600                	addi	s0,sp,768
  3e:	0049                	c.nop	18
  40:	1802                	slli	a6,a6,0x20
  42:	187e                	slli	a6,a6,0x3f
  44:	0000                	unimp
  46:	7d014807          	.4byte	0x7d014807
  4a:	7f01                	lui	t5,0xfffe0
  4c:	08000013          	li	zero,128
  50:	0034                	addi	a3,sp,8
  52:	213a0803          	lb	a6,531(s4)
  56:	3b01                	jal	fffffd66 <fromhost+0x1ffefd56>
  58:	3905                	jal	fffffc88 <fromhost+0x1ffefc78>
  5a:	0213490b          	.4byte	0x213490b
  5e:	09000017          	auipc	zero,0x9000
  62:	0034                	addi	a3,sp,8
  64:	213a0e03          	lb	t3,531(s4)
  68:	3b01                	jal	fffffd78 <fromhost+0x1ffefd68>
  6a:	d621                	beqz	a2,ffffffb2 <fromhost+0x1ffeffa2>
  6c:	3902                	.2byte	0x3902
  6e:	1c13490b          	.4byte	0x1c13490b
  72:	0006                	c.slli	zero,0x1
  74:	0a00                	addi	s0,sp,272
  76:	011d                	addi	sp,sp,7
  78:	1331                	addi	t1,t1,-20
  7a:	0152                	slli	sp,sp,0x14
  7c:	1755                	addi	a4,a4,-11
  7e:	2158                	.2byte	0x2158
  80:	5901                	li	s2,-32
  82:	0521570b          	.4byte	0x521570b
  86:	0000                	unimp
  88:	03012e0b          	.4byte	0x3012e0b
  8c:	3a0e                	.2byte	0x3a0e
  8e:	0121                	addi	sp,sp,8
  90:	0b390b3b          	.4byte	0xb390b3b
  94:	13491927          	.4byte	0x13491927
  98:	2120                	.2byte	0x2120
  9a:	0101                	addi	sp,sp,0
  9c:	0c000013          	li	zero,192
  a0:	0005                	c.nop	1
  a2:	213a0e03          	lb	t3,531(s4)
  a6:	3b01                	jal	fffffdb6 <fromhost+0x1ffefda6>
  a8:	490b390b          	.4byte	0x490b390b
  ac:	0d000013          	li	zero,208
  b0:	210b000f          	.4byte	0x210b000f
  b4:	4904                	lw	s1,16(a0)
  b6:	0e000013          	li	zero,224
  ba:	0049                	c.nop	18
  bc:	0180                	addi	s0,sp,192
  be:	00187e13          	andi	t3,a6,1
  c2:	0f00                	addi	s0,sp,912
  c4:	012e                	slli	sp,sp,0xb
  c6:	0e03193f 3b01213a 	.8byte	0x3b01213a0e03193f
  ce:	0621390b          	.4byte	0x621390b
  d2:	01111927          	.4byte	0x1111927
  d6:	0612                	slli	a2,a2,0x4
  d8:	1840                	addi	s0,sp,52
  da:	197a                	slli	s2,s2,0x3e
  dc:	1301                	addi	t1,t1,-32
  de:	0000                	unimp
  e0:	1d10                	addi	a2,sp,688
  e2:	3101                	jal	fffffce2 <fromhost+0x1ffefcd2>
  e4:	55015213          	.4byte	0x55015213
  e8:	01215817          	auipc	a6,0x1215
  ec:	0b59                	addi	s6,s6,22
  ee:	13010b57          	.4byte	0x13010b57
  f2:	0000                	unimp
  f4:	0511                	addi	a0,a0,4
  f6:	3100                	.2byte	0x3100
  f8:	12000013          	li	zero,288
  fc:	0016                	c.slli	zero,0x5
  fe:	0b3a0e03          	lb	t3,179(s4)
 102:	0b390b3b          	.4byte	0xb390b3b
 106:	1349                	addi	t1,t1,-14
 108:	0000                	unimp
 10a:	49010113          	addi	sp,sp,1168
 10e:	00130113          	addi	sp,t1,1
 112:	1400                	addi	s0,sp,544
 114:	0021                	c.nop	8
 116:	1349                	addi	t1,t1,-14
 118:	00000b2f          	.4byte	0xb2f
 11c:	4815                	li	a6,5
 11e:	7d00                	.2byte	0x7d00
 120:	7f01                	lui	t5,0xfffe0
 122:	16000013          	li	zero,352
 126:	0005                	c.nop	1
 128:	1331                	addi	t1,t1,-20
 12a:	211c                	.2byte	0x211c
 12c:	0000                	unimp
 12e:	1700                	addi	s0,sp,928
 130:	0034                	addi	a3,sp,8
 132:	1331                	addi	t1,t1,-20
 134:	1802                	slli	a6,a6,0x20
 136:	0000                	unimp
 138:	3418                	.2byte	0x3418
 13a:	0300                	addi	s0,sp,384
 13c:	3a0e                	.2byte	0x3a0e
 13e:	0121                	addi	sp,sp,8
 140:	0b390b3b          	.4byte	0xb390b3b
 144:	1349                	addi	t1,t1,-14
 146:	0000                	unimp
 148:	0b19                	addi	s6,s6,6
 14a:	0001                	nop
 14c:	1a00                	addi	s0,sp,304
 14e:	012e                	slli	sp,sp,0xb
 150:	0e03193f 3b01213a 	.8byte	0x3b01213a0e03193f
 158:	3905                	jal	fffffd88 <fromhost+0x1ffefd78>
 15a:	0521                	addi	a0,a0,8
 15c:	13491927          	.4byte	0x13491927
 160:	0111                	addi	sp,sp,4
 162:	0612                	slli	a2,a2,0x4
 164:	1840                	addi	s0,sp,52
 166:	197a                	slli	s2,s2,0x3e
 168:	1301                	addi	t1,t1,-32
 16a:	0000                	unimp
 16c:	0300341b          	.4byte	0x300341b
 170:	3a08                	.2byte	0x3a08
 172:	0121                	addi	sp,sp,8
 174:	0b39053b          	.4byte	0xb39053b
 178:	1349                	addi	t1,t1,-14
 17a:	0000                	unimp
 17c:	0b1c                	addi	a5,sp,400
 17e:	5501                	li	a0,-32
 180:	1d000017          	auipc	zero,0x1d000
 184:	1331010b          	.4byte	0x1331010b
 188:	1755                	addi	a4,a4,-11
 18a:	1301                	addi	t1,t1,-32
 18c:	0000                	unimp
 18e:	481e                	lw	a6,196(sp)
 190:	7d01                	lui	s10,0xfffe0
 192:	7f01                	lui	t5,0xfffe0
 194:	00130113          	addi	sp,t1,1
 198:	1f00                	addi	s0,sp,944
 19a:	0005                	c.nop	1
 19c:	213a0803          	lb	a6,531(s4)
 1a0:	3b01                	jal	fffffeb0 <fromhost+0x1ffefea0>
 1a2:	3521                	jal	ffffffaa <fromhost+0x1ffeff9a>
 1a4:	0b39                	addi	s6,s6,14
 1a6:	1349                	addi	t1,t1,-14
 1a8:	1702                	slli	a4,a4,0x20
 1aa:	0000                	unimp
 1ac:	2e20                	.2byte	0x2e20
 1ae:	3101                	jal	fffffdae <fromhost+0x1ffefd9e>
 1b0:	12011113          	.4byte	0x12011113
 1b4:	4006                	.2byte	0x4006
 1b6:	7a18                	.2byte	0x7a18
 1b8:	0119                	addi	sp,sp,6
 1ba:	21000013          	li	zero,528
 1be:	0111                	addi	sp,sp,4
 1c0:	0e25                	addi	t3,t3,9
 1c2:	1f030b13          	addi	s6,t1,496
 1c6:	01111f1b          	.4byte	0x1111f1b
 1ca:	0612                	slli	a2,a2,0x4
 1cc:	1710                	addi	a2,sp,928
 1ce:	0000                	unimp
 1d0:	0f22                	slli	t5,t5,0x8
 1d2:	0b00                	addi	s0,sp,400
 1d4:	000e030b          	.4byte	0xe030b
 1d8:	2300                	.2byte	0x2300
 1da:	0024                	addi	s1,sp,8
 1dc:	0b3e0b0b          	.4byte	0xb3e0b0b
 1e0:	00000803          	lb	a6,0(zero) # 0 <_min_stack-0x2000>
 1e4:	3524                	.2byte	0x3524
 1e6:	4900                	lw	s0,16(a0)
 1e8:	25000013          	li	zero,592
 1ec:	0026                	c.slli	zero,0x9
 1ee:	1349                	addi	t1,t1,-14
 1f0:	0000                	unimp
 1f2:	3426                	.2byte	0x3426
 1f4:	0300                	addi	s0,sp,384
 1f6:	3a0e                	.2byte	0x3a0e
 1f8:	390b3b0b          	.4byte	0x390b3b0b
 1fc:	3f13490b          	.4byte	0x3f13490b
 200:	0219                	addi	tp,tp,6 # 6 <_min_stack-0x1ffa>
 202:	0018                	.2byte	0x18
 204:	2700                	.2byte	0x2700
 206:	012e                	slli	sp,sp,0xb
 208:	0e03193f 053b0b3a 	.8byte	0x53b0b3a0e03193f
 210:	0b39                	addi	s6,s6,14
 212:	01111927          	.4byte	0x1111927
 216:	0612                	slli	a2,a2,0x4
 218:	1840                	addi	s0,sp,52
 21a:	197a                	slli	s2,s2,0x3e
 21c:	1301                	addi	t1,t1,-32
 21e:	0000                	unimp
 220:	3428                	.2byte	0x3428
 222:	0300                	addi	s0,sp,384
 224:	3a0e                	.2byte	0x3a0e
 226:	39053b0b          	.4byte	0x39053b0b
 22a:	1c13490b          	.4byte	0x1c13490b
 22e:	2900000b          	.4byte	0x2900000b
 232:	0034                	addi	a3,sp,8
 234:	0b3a0e03          	lb	t3,179(s4)
 238:	0b39053b          	.4byte	0xb39053b
 23c:	1349                	addi	t1,t1,-14
 23e:	1702                	slli	a4,a4,0x20
 240:	0000                	unimp
 242:	342a                	.2byte	0x342a
 244:	0300                	addi	s0,sp,384
 246:	3a0e                	.2byte	0x3a0e
 248:	39053b0b          	.4byte	0x39053b0b
 24c:	1c13490b          	.4byte	0x1c13490b
 250:	000d                	c.nop	3
 252:	2b00                	.2byte	0x2b00
 254:	0005                	c.nop	1
 256:	0b3a0803          	lb	a6,179(s4)
 25a:	0b39053b          	.4byte	0xb39053b
 25e:	1349                	addi	t1,t1,-14
 260:	1702                	slli	a4,a4,0x20
 262:	0000                	unimp
 264:	1d2c                	addi	a1,sp,696
 266:	3101                	jal	fffffe66 <fromhost+0x1ffefe56>
 268:	12011113          	.4byte	0x12011113
 26c:	5806                	lw	a6,96(sp)
 26e:	5705590b          	.4byte	0x5705590b
 272:	0013010b          	.4byte	0x13010b
 276:	2d00                	.2byte	0x2d00
 278:	011d                	addi	sp,sp,7
 27a:	1331                	addi	t1,t1,-20
 27c:	0111                	addi	sp,sp,4
 27e:	0612                	slli	a2,a2,0x4
 280:	0b58                	addi	a4,sp,404
 282:	0559                	addi	a0,a0,22
 284:	00000b57          	.4byte	0xb57
 288:	052e                	slli	a0,a0,0xb
 28a:	0300                	addi	s0,sp,384
 28c:	3a0e                	.2byte	0x3a0e
 28e:	39053b0b          	.4byte	0x39053b0b
 292:	0213490b          	.4byte	0x213490b
 296:	2f000017          	auipc	zero,0x2f000
 29a:	0018                	.2byte	0x18
 29c:	0000                	unimp
 29e:	3430                	.2byte	0x3430
 2a0:	0300                	addi	s0,sp,384
 2a2:	3a08                	.2byte	0x3a08
 2a4:	39053b0b          	.4byte	0x39053b0b
 2a8:	0213490b          	.4byte	0x213490b
 2ac:	0018                	.2byte	0x18
 2ae:	3100                	.2byte	0x3100
 2b0:	011d                	addi	sp,sp,7
 2b2:	1331                	addi	t1,t1,-20
 2b4:	0152                	slli	sp,sp,0x14
 2b6:	1755                	addi	a4,a4,-11
 2b8:	0b58                	addi	a4,sp,404
 2ba:	0559                	addi	a0,a0,22
 2bc:	00000b57          	.4byte	0xb57
 2c0:	0a32                	slli	s4,s4,0xc
 2c2:	3100                	.2byte	0x3100
 2c4:	00011113          	slli	sp,sp,0x0
 2c8:	3300                	.2byte	0x3300
 2ca:	011d                	addi	sp,sp,7
 2cc:	1331                	addi	t1,t1,-20
 2ce:	0152                	slli	sp,sp,0x14
 2d0:	1755                	addi	a4,a4,-11
 2d2:	0b58                	addi	a4,sp,404
 2d4:	0559                	addi	a0,a0,22
 2d6:	13010b57          	.4byte	0x13010b57
 2da:	0000                	unimp
 2dc:	0a34                	addi	a3,sp,280
 2de:	0300                	addi	s0,sp,384
 2e0:	3a08                	.2byte	0x3a08
 2e2:	39053b0b          	.4byte	0x39053b0b
 2e6:	3500000b          	.4byte	0x3500000b
 2ea:	012e                	slli	sp,sp,0xb
 2ec:	0b3a0e03          	lb	t3,179(s4)
 2f0:	0b390b3b          	.4byte	0xb390b3b
 2f4:	0b201927          	.4byte	0xb201927
 2f8:	1301                	addi	t1,t1,-32
 2fa:	0000                	unimp
 2fc:	2e36                	.2byte	0x2e36
 2fe:	3f01                	jal	20e <_min_stack-0x1df2>
 300:	0319                	addi	t1,t1,6
 302:	3a0e                	.2byte	0x3a0e
 304:	390b3b0b          	.4byte	0x390b3b0b
 308:	4919270b          	.4byte	0x4919270b
 30c:	010b2013          	slti	zero,s6,16
 310:	37000013          	li	zero,880
 314:	002e                	c.slli	zero,0xb
 316:	0e03193f 0b3b0b3a 	.8byte	0xb3b0b3a0e03193f
 31e:	0b39                	addi	s6,s6,14
 320:	01111927          	.4byte	0x1111927
 324:	0612                	slli	a2,a2,0x4
 326:	1840                	addi	s0,sp,52
 328:	197a                	slli	s2,s2,0x3e
 32a:	0000                	unimp
 32c:	0538                	addi	a4,sp,648
 32e:	0300                	addi	s0,sp,384
 330:	3a08                	.2byte	0x3a08
 332:	390b3b0b          	.4byte	0x390b3b0b
 336:	0213490b          	.4byte	0x213490b
 33a:	0018                	.2byte	0x18
 33c:	3900                	.2byte	0x3900
 33e:	002e                	c.slli	zero,0xb
 340:	0e03193f 0b3b0b3a 	.8byte	0xb3b0b3a0e03193f
 348:	0b39                	addi	s6,s6,14
 34a:	1349                	addi	t1,t1,-14
 34c:	0111                	addi	sp,sp,4
 34e:	0612                	slli	a2,a2,0x4
 350:	1840                	addi	s0,sp,52
 352:	197a                	slli	s2,s2,0x3e
 354:	0000                	unimp
 356:	343a                	.2byte	0x343a
 358:	0300                	addi	s0,sp,384
 35a:	3a08                	.2byte	0x3a08
 35c:	390b3b0b          	.4byte	0x390b3b0b
 360:	1c13490b          	.4byte	0x1c13490b
 364:	3b00000b          	.4byte	0x3b00000b
 368:	0005                	c.nop	1
 36a:	0b3a0e03          	lb	t3,179(s4)
 36e:	0b390b3b          	.4byte	0xb390b3b
 372:	1349                	addi	t1,t1,-14
 374:	1802                	slli	a6,a6,0x20
 376:	0000                	unimp
 378:	053c                	addi	a5,sp,648
 37a:	0300                	addi	s0,sp,384
 37c:	3a0e                	.2byte	0x3a0e
 37e:	390b3b0b          	.4byte	0x390b3b0b
 382:	0213490b          	.4byte	0x213490b
 386:	3d000017          	auipc	zero,0x3d000
 38a:	0148                	addi	a0,sp,132
 38c:	017d                	addi	sp,sp,31
 38e:	0182                	c.slli64	gp
 390:	7f19                	lui	t5,0xfffe6
 392:	3e000013          	li	zero,992
 396:	011d                	addi	sp,sp,7
 398:	1331                	addi	t1,t1,-20
 39a:	0111                	addi	sp,sp,4
 39c:	0612                	slli	a2,a2,0x4
 39e:	0b58                	addi	a4,sp,404
 3a0:	0b59                	addi	s6,s6,22
 3a2:	13010b57          	.4byte	0x13010b57
 3a6:	0000                	unimp
 3a8:	31011d3f 12011113 	.8byte	0x1201111331011d3f
 3b0:	5806                	lw	a6,96(sp)
 3b2:	570b590b          	.4byte	0x570b590b
 3b6:	4000000b          	.4byte	0x4000000b
 3ba:	0034                	addi	a3,sp,8
 3bc:	1331                	addi	t1,t1,-20
 3be:	0000                	unimp
 3c0:	0b41                	addi	s6,s6,16
 3c2:	3101                	jal	ffffffc2 <fromhost+0x1ffeffb2>
 3c4:	12011113          	.4byte	0x12011113
 3c8:	0106                	slli	sp,sp,0x1
 3ca:	42000013          	li	zero,1056
 3ce:	012e                	slli	sp,sp,0xb
 3d0:	1331                	addi	t1,t1,-20
 3d2:	0111                	addi	sp,sp,4
 3d4:	0612                	slli	a2,a2,0x4
 3d6:	1840                	addi	s0,sp,52
 3d8:	197a                	slli	s2,s2,0x3e
 3da:	0000                	unimp
 3dc:	0100                	addi	s0,sp,128
 3de:	0024                	addi	s1,sp,8
 3e0:	0b3e0b0b          	.4byte	0xb3e0b0b
 3e4:	00000e03          	lb	t3,0(zero) # 0 <_min_stack-0x2000>
 3e8:	1102                	slli	sp,sp,0x20
 3ea:	2501                	jal	9ea <_min_stack-0x1616>
 3ec:	130e                	slli	t1,t1,0x23
 3ee:	1b1f030b          	.4byte	0x1b1f030b
 3f2:	551f 1117 1001      	.byte	0x1f, 0x55, 0x17, 0x11, 0x01, 0x10
 3f8:	03000017          	auipc	zero,0x3000
 3fc:	0024                	addi	s1,sp,8
 3fe:	0b3e0b0b          	.4byte	0xb3e0b0b
 402:	00000803          	lb	a6,0(zero) # 0 <_min_stack-0x2000>
 406:	2e04                	.2byte	0x2e04
 408:	3f01                	jal	318 <_min_stack-0x1ce8>
 40a:	0319                	addi	t1,t1,6
 40c:	3a0e                	.2byte	0x3a0e
 40e:	390b3b0b          	.4byte	0x390b3b0b
 412:	1113490b          	.4byte	0x1113490b
 416:	1201                	addi	tp,tp,-32 # ffffffe0 <fromhost+0x1ffeffd0>
 418:	4006                	.2byte	0x4006
 41a:	7a18                	.2byte	0x7a18
 41c:	0119                	addi	sp,sp,6
 41e:	05000013          	li	zero,80
 422:	0034                	addi	a3,sp,8
 424:	0b3a0803          	lb	a6,179(s4)
 428:	0b390b3b          	.4byte	0xb390b3b
 42c:	1349                	addi	t1,t1,-14
 42e:	0000                	unimp
 430:	4806                	lw	a6,64(sp)
 432:	7d00                	.2byte	0x7d00
 434:	8201                	c.srli64	a2
 436:	1901                	addi	s2,s2,-32
 438:	137f                	.2byte	0x137f
 43a:	0000                	unimp
 43c:	3f002e07          	.4byte	0x3f002e07
 440:	0319                	addi	t1,t1,6
 442:	3a0e                	.2byte	0x3a0e
 444:	390b3b0b          	.4byte	0x390b3b0b
 448:	1113490b          	.4byte	0x1113490b
 44c:	1201                	addi	tp,tp,-32 # ffffffe0 <fromhost+0x1ffeffd0>
 44e:	4006                	.2byte	0x4006
 450:	7a18                	.2byte	0x7a18
 452:	0019                	c.nop	6
 454:	0000                	unimp
 456:	1101                	addi	sp,sp,-32
 458:	1000                	addi	s0,sp,32
 45a:	03175517          	auipc	a0,0x3175
 45e:	1b0e                	slli	s6,s6,0x23
 460:	250e                	.2byte	0x250e
 462:	130e                	slli	t1,t1,0x23
 464:	0005                	c.nop	1
	...

Disassembly of section .debug_loclists:

00000000 <.debug_loclists>:
   0:	08e1                	addi	a7,a7,24
   2:	0000                	unimp
   4:	0005                	c.nop	1
   6:	0004                	.2byte	0x4
   8:	0000                	unimp
   a:	0000                	unimp
   c:	00048407          	.4byte	0x48407
  10:	b0e0                	.2byte	0xb0e0
  12:	0004                	.2byte	0x4
  14:	01e0                	addi	s0,sp,204
  16:	005a                	c.slli	zero,0x16
  18:	00048a07          	.4byte	0x48a07
  1c:	b2e0                	.2byte	0xb2e0
  1e:	0004                	.2byte	0x4
  20:	01e0                	addi	s0,sp,204
  22:	8c07005b          	.4byte	0x8c07005b
  26:	0004                	.2byte	0x4
  28:	b4e0                	.2byte	0xb4e0
  2a:	0004                	.2byte	0x4
  2c:	01e0                	addi	s0,sp,204
  2e:	005c                	addi	a5,sp,4
  30:	00049207          	.4byte	0x49207
  34:	bce0                	.2byte	0xbce0
  36:	0004                	.2byte	0x4
  38:	01e0                	addi	s0,sp,204
  3a:	0060                	addi	s0,sp,12
  3c:	00048e07          	.4byte	0x48e07
  40:	b6e0                	.2byte	0xb6e0
  42:	0004                	.2byte	0x4
  44:	01e0                	addi	s0,sp,204
  46:	005d                	c.nop	23
  48:	00047807          	.4byte	0x47807
  4c:	aae0                	.2byte	0xaae0
  4e:	0004                	.2byte	0x4
  50:	06e0                	addi	s0,sp,844
  52:	200c                	.2byte	0x200c
  54:	4040                	lw	s0,4(s0)
  56:	9f10                	.2byte	0x9f10
  58:	0004aa07          	.4byte	0x4aa07
  5c:	aee0                	.2byte	0xaee0
  5e:	0004                	.2byte	0x4
  60:	06e0                	addi	s0,sp,844
  62:	240c                	.2byte	0x240c
  64:	4040                	lw	s0,4(s0)
  66:	9f10                	.2byte	0x9f10
  68:	0700                	addi	s0,sp,896
  6a:	042a                	slli	s0,s0,0xa
  6c:	e000                	.2byte	0xe000
  6e:	0436                	slli	s0,s0,0xd
  70:	e000                	.2byte	0xe000
  72:	5a01                	li	s4,-32
  74:	00043607          	.4byte	0x43607
  78:	4ce0                	lw	s0,92(s1)
  7a:	0004                	.2byte	0x4
  7c:	01e0                	addi	s0,sp,204
  7e:	0759                	addi	a4,a4,22
  80:	044c                	addi	a1,sp,516
  82:	e000                	.2byte	0xe000
  84:	0450                	addi	a2,sp,516
  86:	e000                	.2byte	0xe000
  88:	a304                	.2byte	0xa304
  8a:	5a01                	li	s4,-32
  8c:	079f 0450 e000      	.byte	0x9f, 0x07, 0x50, 0x04, 0x00, 0xe0
  92:	0456                	slli	s0,s0,0x15
  94:	e000                	.2byte	0xe000
  96:	5901                	li	s2,-32
  98:	0700                	addi	s0,sp,896
  9a:	042a                	slli	s0,s0,0xa
  9c:	e000                	.2byte	0xe000
  9e:	0436                	slli	s0,s0,0xd
  a0:	e000                	.2byte	0xe000
  a2:	3002                	.2byte	0x3002
  a4:	079f 0436 e000      	.byte	0x9f, 0x07, 0x36, 0x04, 0x00, 0xe0
  aa:	044a                	slli	s0,s0,0x12
  ac:	e000                	.2byte	0xe000
  ae:	5801                	li	a6,-32
  b0:	00044a07          	.4byte	0x44a07
  b4:	50e0                	lw	s0,100(s1)
  b6:	0004                	.2byte	0x4
  b8:	01e0                	addi	s0,sp,204
  ba:	075a                	slli	a4,a4,0x16
  bc:	0450                	addi	a2,sp,516
  be:	e000                	.2byte	0xe000
  c0:	0456                	slli	s0,s0,0x15
  c2:	e000                	.2byte	0xe000
  c4:	5801                	li	a6,-32
  c6:	0700                	addi	s0,sp,896
  c8:	0440                	addi	s0,sp,516
  ca:	e000                	.2byte	0xe000
  cc:	0444                	addi	s1,sp,516
  ce:	e000                	.2byte	0xe000
  d0:	3a02                	.2byte	0x3a02
  d2:	009f 5207 0004      	.byte	0x9f, 0x00, 0x07, 0x52, 0x04, 0x00
  d8:	53e0                	lw	s0,100(a5)
  da:	0004                	.2byte	0x4
  dc:	06e0                	addi	s0,sp,844
  de:	007a                	c.slli	zero,0x1e
  e0:	ff08                	.2byte	0xff08
  e2:	9f1a                	add	t5,t5,t1
  e4:	0700                	addi	s0,sp,896
  e6:	02c8                	addi	a0,sp,324
  e8:	e000                	.2byte	0xe000
  ea:	030a                	slli	t1,t1,0x2
  ec:	e000                	.2byte	0xe000
  ee:	5a01                	li	s4,-32
  f0:	00030a07          	.4byte	0x30a07
  f4:	20e0                	.2byte	0x20e0
  f6:	0004                	.2byte	0x4
  f8:	04e0                	addi	s0,sp,588
  fa:	9f5a01a3          	sb	s5,-1565(s4)
  fe:	0700                	addi	s0,sp,896
 100:	02f2                	slli	t0,t0,0x1c
 102:	e000                	.2byte	0xe000
 104:	0314                	addi	a3,sp,384
 106:	e000                	.2byte	0xe000
 108:	5801                	li	a6,-32
 10a:	00032a07          	.4byte	0x32a07
 10e:	7ce0                	.2byte	0x7ce0
 110:	01e00003          	lb	zero,30(zero) # 1e <_min_stack-0x1fe2>
 114:	0758                	addi	a4,sp,900
 116:	037c                	addi	a5,sp,396
 118:	e000                	.2byte	0xe000
 11a:	0388                	addi	a0,sp,448
 11c:	e000                	.2byte	0xe000
 11e:	6801                	.2byte	0x6801
 120:	00038807          	.4byte	0x38807
 124:	a6e0                	.2byte	0xa6e0
 126:	01e00003          	lb	zero,30(zero) # 1e <_min_stack-0x1fe2>
 12a:	0758                	addi	a4,sp,900
 12c:	03a6                	slli	t2,t2,0x9
 12e:	e000                	.2byte	0xe000
 130:	03b6                	slli	t2,t2,0xd
 132:	e000                	.2byte	0xe000
 134:	6801                	.2byte	0x6801
 136:	0003b607          	.4byte	0x3b607
 13a:	c6e0                	sw	s0,76(a3)
 13c:	01e00003          	lb	zero,30(zero) # 1e <_min_stack-0x1fe2>
 140:	0758                	addi	a4,sp,900
 142:	03c6                	slli	t2,t2,0x11
 144:	e000                	.2byte	0xe000
 146:	03ce                	slli	t2,t2,0x13
 148:	e000                	.2byte	0xe000
 14a:	6801                	.2byte	0x6801
 14c:	0003ce07          	.4byte	0x3ce07
 150:	dae0                	sw	s0,116(a3)
 152:	01e00003          	lb	zero,30(zero) # 1e <_min_stack-0x1fe2>
 156:	0758                	addi	a4,sp,900
 158:	03da                	slli	t2,t2,0x16
 15a:	e000                	.2byte	0xe000
 15c:	03e4                	addi	s1,sp,460
 15e:	e000                	.2byte	0xe000
 160:	6801                	.2byte	0x6801
 162:	0003e407          	.4byte	0x3e407
 166:	f0e0                	.2byte	0xf0e0
 168:	01e00003          	lb	zero,30(zero) # 1e <_min_stack-0x1fe2>
 16c:	0758                	addi	a4,sp,900
 16e:	03f0                	addi	a2,sp,460
 170:	e000                	.2byte	0xe000
 172:	03f6                	slli	t2,t2,0x1d
 174:	e000                	.2byte	0xe000
 176:	6801                	.2byte	0x6801
 178:	0003f607          	.4byte	0x3f607
 17c:	04e0                	addi	s0,sp,588
 17e:	0004                	.2byte	0x4
 180:	01e0                	addi	s0,sp,204
 182:	0758                	addi	a4,sp,900
 184:	0404                	addi	s1,sp,512
 186:	e000                	.2byte	0xe000
 188:	0414                	addi	a3,sp,512
 18a:	e000                	.2byte	0xe000
 18c:	6801                	.2byte	0x6801
 18e:	00041407          	.4byte	0x41407
 192:	20e0                	.2byte	0x20e0
 194:	0004                	.2byte	0x4
 196:	01e0                	addi	s0,sp,204
 198:	0058                	addi	a4,sp,4
 19a:	0002f207          	.4byte	0x2f207
 19e:	0ae0                	addi	s0,sp,348
 1a0:	01e00003          	lb	zero,30(zero) # 1e <_min_stack-0x1fe2>
 1a4:	075a                	slli	a4,a4,0x16
 1a6:	030a                	slli	t1,t1,0x2
 1a8:	e000                	.2byte	0xe000
 1aa:	0310                	addi	a2,sp,384
 1ac:	e000                	.2byte	0xe000
 1ae:	6601                	.2byte	0x6601
 1b0:	00032a07          	.4byte	0x32a07
 1b4:	2ee0                	.2byte	0x2ee0
 1b6:	01e00003          	lb	zero,30(zero) # 1e <_min_stack-0x1fe2>
 1ba:	0766                	slli	a4,a4,0x19
 1bc:	032e                	slli	t1,t1,0xb
 1be:	e000                	.2byte	0xe000
 1c0:	0346                	slli	t1,t1,0x11
 1c2:	e000                	.2byte	0xe000
 1c4:	9f018603          	lb	a2,-1552(gp)
 1c8:	00034607          	.4byte	0x34607
 1cc:	48e0                	lw	s0,84(s1)
 1ce:	01e00003          	lb	zero,30(zero) # 1e <_min_stack-0x1fe2>
 1d2:	075f 034a e000      	.byte	0x5f, 0x07, 0x4a, 0x03, 0x00, 0xe0
 1d8:	0388                	addi	a0,sp,448
 1da:	e000                	.2byte	0xe000
 1dc:	6601                	.2byte	0x6601
 1de:	00038807          	.4byte	0x38807
 1e2:	8ce0                	.2byte	0x8ce0
 1e4:	03e00003          	lb	zero,62(zero) # 3e <_min_stack-0x1fc2>
 1e8:	0186                	slli	gp,gp,0x1
 1ea:	079f 038c e000      	.byte	0x9f, 0x07, 0x8c, 0x03, 0x00, 0xe0
 1f0:	0390                	addi	a2,sp,448
 1f2:	e000                	.2byte	0xe000
 1f4:	9f017d03          	.4byte	0x9f017d03
 1f8:	00039007          	.4byte	0x39007
 1fc:	96e0                	.2byte	0x96e0
 1fe:	01e00003          	lb	zero,30(zero) # 1e <_min_stack-0x1fe2>
 202:	0766                	slli	a4,a4,0x19
 204:	0396                	slli	t2,t2,0x5
 206:	e000                	.2byte	0xe000
 208:	0398                	addi	a4,sp,448
 20a:	e000                	.2byte	0xe000
 20c:	9f7f8003          	lb	zero,-1545(t6)
 210:	00039807          	.4byte	0x39807
 214:	9ae0                	.2byte	0x9ae0
 216:	03e00003          	lb	zero,62(zero) # 3e <_min_stack-0x1fc2>
 21a:	0186                	slli	gp,gp,0x1
 21c:	079f 039a e000      	.byte	0x9f, 0x07, 0x9a, 0x03, 0x00, 0xe0
 222:	03b6                	slli	t2,t2,0xd
 224:	e000                	.2byte	0xe000
 226:	6601                	.2byte	0x6601
 228:	0003b607          	.4byte	0x3b607
 22c:	b8e0                	.2byte	0xb8e0
 22e:	03e00003          	lb	zero,62(zero) # 3e <_min_stack-0x1fc2>
 232:	0186                	slli	gp,gp,0x1
 234:	079f 03b8 e000      	.byte	0x9f, 0x07, 0xb8, 0x03, 0x00, 0xe0
 23a:	0414                	addi	a3,sp,512
 23c:	e000                	.2byte	0xe000
 23e:	6601                	.2byte	0x6601
 240:	00041407          	.4byte	0x41407
 244:	16e0                	addi	s0,sp,876
 246:	0004                	.2byte	0x4
 248:	03e0                	addi	s0,sp,460
 24a:	017f                	.2byte	0x17f
 24c:	079f 0416 e000      	.byte	0x9f, 0x07, 0x16, 0x04, 0x00, 0xe0
 252:	0420                	addi	s0,sp,520
 254:	e000                	.2byte	0xe000
 256:	6601                	.2byte	0x6601
 258:	0700                	addi	s0,sp,896
 25a:	032e                	slli	t1,t1,0xb
 25c:	e000                	.2byte	0xe000
 25e:	035a                	slli	t1,t1,0x16
 260:	e000                	.2byte	0xe000
 262:	3002                	.2byte	0x3002
 264:	079f 035a e000      	.byte	0x9f, 0x07, 0x5a, 0x03, 0x00, 0xe0
 26a:	0384                	addi	s1,sp,448
 26c:	e000                	.2byte	0xe000
 26e:	5d01                	li	s10,-32
 270:	00038407          	.4byte	0x38407
 274:	85e0                	.2byte	0x85e0
 276:	01e00003          	lb	zero,30(zero) # 1e <_min_stack-0x1fe2>
 27a:	0388075b          	.4byte	0x388075b
 27e:	e000                	.2byte	0xe000
 280:	0390                	addi	a2,sp,448
 282:	e000                	.2byte	0xe000
 284:	3002                	.2byte	0x3002
 286:	079f 0390 e000      	.byte	0x9f, 0x07, 0x90, 0x03, 0x00, 0xe0
 28c:	03b1                	addi	t2,t2,12
 28e:	e000                	.2byte	0xe000
 290:	5d01                	li	s10,-32
 292:	0003ba07          	.4byte	0x3ba07
 296:	14e0                	addi	s0,sp,620
 298:	0004                	.2byte	0x4
 29a:	01e0                	addi	s0,sp,204
 29c:	075d                	addi	a4,a4,23
 29e:	0414                	addi	a3,sp,512
 2a0:	e000                	.2byte	0xe000
 2a2:	0416                	slli	s0,s0,0x5
 2a4:	e000                	.2byte	0xe000
 2a6:	3002                	.2byte	0x3002
 2a8:	009f 2e07 0003      	.byte	0x9f, 0x00, 0x07, 0x2e, 0x03, 0x00
 2ae:	46e0                	lw	s0,76(a3)
 2b0:	02e00003          	lb	zero,46(zero) # 2e <_min_stack-0x1fd2>
 2b4:	9f30                	.2byte	0x9f30
 2b6:	00034607          	.4byte	0x34607
 2ba:	48e0                	lw	s0,84(s1)
 2bc:	02e00003          	lb	zero,46(zero) # 2e <_min_stack-0x1fd2>
 2c0:	9f31                	.2byte	0x9f31
 2c2:	00034a07          	.4byte	0x34a07
 2c6:	84e0                	.2byte	0x84e0
 2c8:	01e00003          	lb	zero,30(zero) # 1e <_min_stack-0x1fe2>
 2cc:	075e                	slli	a4,a4,0x17
 2ce:	0384                	addi	s1,sp,448
 2d0:	e000                	.2byte	0xe000
 2d2:	0385                	addi	t2,t2,1
 2d4:	e000                	.2byte	0xe000
 2d6:	5c01                	li	s8,-32
 2d8:	00038807          	.4byte	0x38807
 2dc:	b1e0                	.2byte	0xb1e0
 2de:	01e00003          	lb	zero,30(zero) # 1e <_min_stack-0x1fe2>
 2e2:	075e                	slli	a4,a4,0x17
 2e4:	03ba                	slli	t2,t2,0xe
 2e6:	e000                	.2byte	0xe000
 2e8:	0414                	addi	a3,sp,512
 2ea:	e000                	.2byte	0xe000
 2ec:	5e01                	li	t3,-32
 2ee:	00041407          	.4byte	0x41407
 2f2:	16e0                	addi	s0,sp,876
 2f4:	0004                	.2byte	0x4
 2f6:	02e0                	addi	s0,sp,332
 2f8:	9f30                	.2byte	0x9f30
 2fa:	0700                	addi	s0,sp,896
 2fc:	030a                	slli	t1,t1,0x2
 2fe:	e000                	.2byte	0xe000
 300:	0326                	slli	t1,t1,0x9
 302:	e000                	.2byte	0xe000
 304:	6701                	.2byte	0x6701
 306:	00032607          	.4byte	0x32607
 30a:	2ae0                	.2byte	0x2ae0
 30c:	01e00003          	lb	zero,30(zero) # 1e <_min_stack-0x1fe2>
 310:	075a                	slli	a4,a4,0x16
 312:	032a                	slli	t1,t1,0xa
 314:	e000                	.2byte	0xe000
 316:	041c                	addi	a5,sp,512
 318:	e000                	.2byte	0xe000
 31a:	6701                	.2byte	0x6701
 31c:	00041c07          	.4byte	0x41c07
 320:	1ee0                	addi	s0,sp,892
 322:	0004                	.2byte	0x4
 324:	03e0                	addi	s0,sp,460
 326:	079f7f87          	.4byte	0x79f7f87
 32a:	041e                	slli	s0,s0,0x7
 32c:	e000                	.2byte	0xe000
 32e:	0420                	addi	s0,sp,520
 330:	e000                	.2byte	0xe000
 332:	6701                	.2byte	0x6701
 334:	0700                	addi	s0,sp,896
 336:	0416                	slli	s0,s0,0x5
 338:	e000                	.2byte	0xe000
 33a:	041e                	slli	s0,s0,0x7
 33c:	e000                	.2byte	0xe000
 33e:	3002                	.2byte	0x3002
 340:	009f 1607 0004      	.byte	0x9f, 0x00, 0x07, 0x16, 0x04, 0x00
 346:	1de0                	addi	s0,sp,764
 348:	0004                	.2byte	0x4
 34a:	08e0                	addi	s0,sp,92
 34c:	0086                	slli	ra,ra,0x1
 34e:	0194                	addi	a3,sp,192
 350:	ff08                	.2byte	0xff08
 352:	9f1a                	add	t5,t5,t1
 354:	0700                	addi	s0,sp,896
 356:	00b2                	slli	ra,ra,0xc
 358:	e000                	.2byte	0xe000
 35a:	00cc                	addi	a1,sp,68
 35c:	e000                	.2byte	0xe000
 35e:	5a01                	li	s4,-32
 360:	0000cc07          	.4byte	0xcc07
 364:	d8e0                	sw	s0,116(s1)
 366:	0000                	unimp
 368:	01e0                	addi	s0,sp,204
 36a:	005a                	c.slli	zero,0x16
 36c:	0000b207          	.4byte	0xb207
 370:	cee0                	sw	s0,92(a3)
 372:	0000                	unimp
 374:	01e0                	addi	s0,sp,204
 376:	00ce075b          	.4byte	0xce075b
 37a:	e000                	.2byte	0xe000
 37c:	00d0                	addi	a2,sp,68
 37e:	e000                	.2byte	0xe000
 380:	9f017b03          	.4byte	0x9f017b03
 384:	0000d007          	.4byte	0xd007
 388:	d8e0                	sw	s0,116(s1)
 38a:	0000                	unimp
 38c:	01e0                	addi	s0,sp,204
 38e:	8407005b          	.4byte	0x8407005b
 392:	0000                	unimp
 394:	98e0                	.2byte	0x98e0
 396:	0000                	unimp
 398:	01e0                	addi	s0,sp,204
 39a:	0098075b          	.4byte	0x98075b
 39e:	e000                	.2byte	0xe000
 3a0:	00b2                	slli	ra,ra,0xc
 3a2:	e000                	.2byte	0xe000
 3a4:	a304                	.2byte	0xa304
 3a6:	5b01                	li	s6,-32
 3a8:	009f fa07 0000      	.byte	0x9f, 0x00, 0x07, 0xfa, 0x00, 0x00
 3ae:	4ae0                	lw	s0,84(a3)
 3b0:	0001                	nop
 3b2:	01e0                	addi	s0,sp,204
 3b4:	075a                	slli	a4,a4,0x16
 3b6:	014a                	slli	sp,sp,0x12
 3b8:	e000                	.2byte	0xe000
 3ba:	0164                	addi	s1,sp,140
 3bc:	e000                	.2byte	0xe000
 3be:	6401                	.2byte	0x6401
 3c0:	00016407          	.4byte	0x16407
 3c4:	76e0                	.2byte	0x76e0
 3c6:	0001                	nop
 3c8:	09e0                	addi	s0,sp,220
 3ca:	0084                	addi	s1,sp,64
 3cc:	0082                	c.slli64	ra
 3ce:	831c                	.2byte	0x831c
 3d0:	2200                	.2byte	0x2200
 3d2:	009f fa07 0000      	.byte	0x9f, 0x00, 0x07, 0xfa, 0x00, 0x00
 3d8:	2ae0                	.2byte	0x2ae0
 3da:	0001                	nop
 3dc:	01e0                	addi	s0,sp,204
 3de:	012a075b          	.4byte	0x12a075b
 3e2:	e000                	.2byte	0xe000
 3e4:	0148                	addi	a0,sp,132
 3e6:	e000                	.2byte	0xe000
 3e8:	5801                	li	a6,-32
 3ea:	00014807          	.4byte	0x14807
 3ee:	4ae0                	lw	s0,84(a3)
 3f0:	0001                	nop
 3f2:	01e0                	addi	s0,sp,204
 3f4:	014a075b          	.4byte	0x14a075b
 3f8:	e000                	.2byte	0xe000
 3fa:	014e                	slli	sp,sp,0x13
 3fc:	e000                	.2byte	0xe000
 3fe:	6201                	.2byte	0x6201
 400:	00014e07          	.4byte	0x14e07
 404:	50e0                	lw	s0,100(s1)
 406:	0001                	nop
 408:	03e0                	addi	s0,sp,460
 40a:	7f82                	.2byte	0x7f82
 40c:	079f 0150 e000      	.byte	0x9f, 0x07, 0x50, 0x01, 0x00, 0xe0
 412:	0156                	slli	sp,sp,0x15
 414:	e000                	.2byte	0xe000
 416:	6201                	.2byte	0x6201
 418:	00016407          	.4byte	0x16407
 41c:	7ae0                	.2byte	0x7ae0
 41e:	0001                	nop
 420:	01e0                	addi	s0,sp,204
 422:	0758                	addi	a4,sp,900
 424:	017a                	slli	sp,sp,0x1e
 426:	e000                	.2byte	0xe000
 428:	0190                	addi	a2,sp,192
 42a:	e000                	.2byte	0xe000
 42c:	6201                	.2byte	0x6201
 42e:	00019807          	.4byte	0x19807
 432:	a0e0                	.2byte	0xa0e0
 434:	0001                	nop
 436:	01e0                	addi	s0,sp,204
 438:	0062                	c.slli	zero,0x18
 43a:	0000fa07          	.4byte	0xfa07
 43e:	3ae0                	.2byte	0x3ae0
 440:	0001                	nop
 442:	01e0                	addi	s0,sp,204
 444:	075c                	addi	a5,sp,900
 446:	013a                	slli	sp,sp,0xe
 448:	e000                	.2byte	0xe000
 44a:	0146                	slli	sp,sp,0x11
 44c:	e000                	.2byte	0xe000
 44e:	a304                	.2byte	0xa304
 450:	5c01                	li	s8,-32
 452:	079f 0146 e000      	.byte	0x9f, 0x07, 0x46, 0x01, 0x00, 0xe0
 458:	014a                	slli	sp,sp,0x12
 45a:	e000                	.2byte	0xe000
 45c:	5c01                	li	s8,-32
 45e:	00014a07          	.4byte	0x14a07
 462:	a0e0                	.2byte	0xa0e0
 464:	0001                	nop
 466:	04e0                	addi	s0,sp,588
 468:	9f5c01a3          	sb	s5,-1565(s8) # 9e3 <_min_stack-0x161d>
 46c:	0700                	addi	s0,sp,896
 46e:	00fa                	slli	ra,ra,0x1e
 470:	e000                	.2byte	0xe000
 472:	014a                	slli	sp,sp,0x12
 474:	e000                	.2byte	0xe000
 476:	3002                	.2byte	0x3002
 478:	079f 0164 e000      	.byte	0x9f, 0x07, 0x64, 0x01, 0x00, 0xe0
 47e:	017a                	slli	sp,sp,0x1e
 480:	e000                	.2byte	0xe000
 482:	6301                	.2byte	0x6301
 484:	0700                	addi	s0,sp,896
 486:	00fa                	slli	ra,ra,0x1e
 488:	e000                	.2byte	0xe000
 48a:	0138                	addi	a4,sp,136
 48c:	e000                	.2byte	0xe000
 48e:	9f200803          	lb	a6,-1550(zero) # fffff9f2 <fromhost+0x1ffef9e2>
 492:	00014607          	.4byte	0x14607
 496:	4ae0                	lw	s0,84(a3)
 498:	0001                	nop
 49a:	03e0                	addi	s0,sp,460
 49c:	2008                	.2byte	0x2008
 49e:	009f 1807 0001      	.byte	0x9f, 0x00, 0x07, 0x18, 0x01, 0x00
 4a4:	2ee0                	.2byte	0x2ee0
 4a6:	0001                	nop
 4a8:	01e0                	addi	s0,sp,204
 4aa:	075f 0146 e000      	.byte	0x5f, 0x07, 0x46, 0x01, 0x00, 0xe0
 4b0:	014a                	slli	sp,sp,0x12
 4b2:	e000                	.2byte	0xe000
 4b4:	5f01                	li	t5,-32
 4b6:	0700                	addi	s0,sp,896
 4b8:	0118                	addi	a4,sp,128
 4ba:	e000                	.2byte	0xe000
 4bc:	011e                	slli	sp,sp,0x7
 4be:	e000                	.2byte	0xe000
 4c0:	7a06                	.2byte	0x7a06
 4c2:	7f00                	.2byte	0x7f00
 4c4:	2200                	.2byte	0x2200
 4c6:	079f 011e e000      	.byte	0x9f, 0x07, 0x1e, 0x01, 0x00, 0xe0
 4cc:	0122                	slli	sp,sp,0x8
 4ce:	e000                	.2byte	0xe000
 4d0:	5e01                	li	t3,-32
 4d2:	00012207          	.4byte	0x12207
 4d6:	2ee0                	.2byte	0x2ee0
 4d8:	0001                	nop
 4da:	06e0                	addi	s0,sp,844
 4dc:	007a                	c.slli	zero,0x1e
 4de:	007f                	.2byte	0x7f
 4e0:	9f22                	add	t5,t5,s0
 4e2:	00014607          	.4byte	0x14607
 4e6:	4ae0                	lw	s0,84(a3)
 4e8:	0001                	nop
 4ea:	06e0                	addi	s0,sp,844
 4ec:	007a                	c.slli	zero,0x1e
 4ee:	007f                	.2byte	0x7f
 4f0:	9f22                	add	t5,t5,s0
 4f2:	0700                	addi	s0,sp,896
 4f4:	014a                	slli	sp,sp,0x12
 4f6:	e000                	.2byte	0xe000
 4f8:	014e                	slli	sp,sp,0x13
 4fa:	e000                	.2byte	0xe000
 4fc:	3002                	.2byte	0x3002
 4fe:	009f 6407 0001      	.byte	0x9f, 0x00, 0x07, 0x64, 0x01, 0x00
 504:	66e0                	.2byte	0x66e0
 506:	0001                	nop
 508:	02e0                	addi	s0,sp,332
 50a:	9f30                	.2byte	0x9f30
 50c:	0700                	addi	s0,sp,896
 50e:	0164                	addi	s1,sp,140
 510:	e000                	.2byte	0xe000
 512:	0165                	addi	sp,sp,25
 514:	e000                	.2byte	0xe000
 516:	7a06                	.2byte	0x7a06
 518:	0800                	addi	s0,sp,16
 51a:	1aff                	.2byte	0x1aff
 51c:	009f 9807 0001      	.byte	0x9f, 0x00, 0x07, 0x98, 0x01, 0x00
 522:	9ce0                	.2byte	0x9ce0
 524:	0001                	nop
 526:	02e0                	addi	s0,sp,332
 528:	9f30                	.2byte	0x9f30
 52a:	0700                	addi	s0,sp,896
 52c:	01a0                	addi	s0,sp,200
 52e:	e000                	.2byte	0xe000
 530:	01b8                	addi	a4,sp,200
 532:	e000                	.2byte	0xe000
 534:	5a01                	li	s4,-32
 536:	0001b807          	.4byte	0x1b807
 53a:	c8e0                	sw	s0,84(s1)
 53c:	0001                	nop
 53e:	04e0                	addi	s0,sp,588
 540:	9f5a01a3          	sb	s5,-1565(s4)
 544:	0001c807          	.4byte	0x1c807
 548:	fae0                	.2byte	0xfae0
 54a:	0001                	nop
 54c:	01e0                	addi	s0,sp,204
 54e:	075a                	slli	a4,a4,0x16
 550:	01fa                	slli	gp,gp,0x1e
 552:	e000                	.2byte	0xe000
 554:	024c                	addi	a1,sp,260
 556:	e000                	.2byte	0xe000
 558:	a304                	.2byte	0xa304
 55a:	5a01                	li	s4,-32
 55c:	079f 024c e000      	.byte	0x9f, 0x07, 0x4c, 0x02, 0x00, 0xe0
 562:	0256                	slli	tp,tp,0x15
 564:	e000                	.2byte	0xe000
 566:	5a01                	li	s4,-32
 568:	00025607          	.4byte	0x25607
 56c:	a2e0                	.2byte	0xa2e0
 56e:	0002                	c.slli64	zero
 570:	04e0                	addi	s0,sp,588
 572:	9f5a01a3          	sb	s5,-1565(s4)
 576:	0700                	addi	s0,sp,896
 578:	01a0                	addi	s0,sp,200
 57a:	e000                	.2byte	0xe000
 57c:	01ae                	slli	gp,gp,0xb
 57e:	e000                	.2byte	0xe000
 580:	5b01                	li	s6,-32
 582:	0001ae07          	.4byte	0x1ae07
 586:	bde0                	.2byte	0xbde0
 588:	0001                	nop
 58a:	01e0                	addi	s0,sp,204
 58c:	0761                	addi	a4,a4,24
 58e:	01bd                	addi	gp,gp,15
 590:	e000                	.2byte	0xe000
 592:	01c8                	addi	a0,sp,196
 594:	e000                	.2byte	0xe000
 596:	a304                	.2byte	0xa304
 598:	5b01                	li	s6,-32
 59a:	079f 01c8 e000      	.byte	0x9f, 0x07, 0xc8, 0x01, 0x00, 0xe0
 5a0:	01f4                	addi	a3,sp,204
 5a2:	e000                	.2byte	0xe000
 5a4:	6101                	addi	sp,sp,0
 5a6:	0001f407          	.4byte	0x1f407
 5aa:	4ce0                	lw	s0,92(s1)
 5ac:	0002                	c.slli64	zero
 5ae:	04e0                	addi	s0,sp,588
 5b0:	9f5b01a3          	sb	s5,-1565(s6)
 5b4:	00024c07          	.4byte	0x24c07
 5b8:	72e0                	.2byte	0x72e0
 5ba:	0002                	c.slli64	zero
 5bc:	01e0                	addi	s0,sp,204
 5be:	0761                	addi	a4,a4,24
 5c0:	0272                	slli	tp,tp,0x1c
 5c2:	e000                	.2byte	0xe000
 5c4:	02a2                	slli	t0,t0,0x8
 5c6:	e000                	.2byte	0xe000
 5c8:	a304                	.2byte	0xa304
 5ca:	5b01                	li	s6,-32
 5cc:	009f a007 0001      	.byte	0x9f, 0x00, 0x07, 0xa0, 0x01, 0x00
 5d2:	b0e0                	.2byte	0xb0e0
 5d4:	0001                	nop
 5d6:	01e0                	addi	s0,sp,204
 5d8:	075c                	addi	a5,sp,900
 5da:	01b0                	addi	a2,sp,200
 5dc:	e000                	.2byte	0xe000
 5de:	01be                	slli	gp,gp,0xf
 5e0:	e000                	.2byte	0xe000
 5e2:	5901                	li	s2,-32
 5e4:	0001be07          	.4byte	0x1be07
 5e8:	c8e0                	sw	s0,84(s1)
 5ea:	0001                	nop
 5ec:	04e0                	addi	s0,sp,588
 5ee:	9f5c01a3          	sb	s5,-1565(s8)
 5f2:	0001c807          	.4byte	0x1c807
 5f6:	dae0                	sw	s0,116(a3)
 5f8:	0001                	nop
 5fa:	01e0                	addi	s0,sp,204
 5fc:	0759                	addi	a4,a4,22
 5fe:	01da                	slli	gp,gp,0x16
 600:	e000                	.2byte	0xe000
 602:	024c                	addi	a1,sp,260
 604:	e000                	.2byte	0xe000
 606:	a304                	.2byte	0xa304
 608:	5c01                	li	s8,-32
 60a:	079f 024c e000      	.byte	0x9f, 0x07, 0x4c, 0x02, 0x00, 0xe0
 610:	024e                	slli	tp,tp,0x13
 612:	e000                	.2byte	0xe000
 614:	5901                	li	s2,-32
 616:	00024e07          	.4byte	0x24e07
 61a:	a2e0                	.2byte	0xa2e0
 61c:	0002                	c.slli64	zero
 61e:	04e0                	addi	s0,sp,588
 620:	9f5c01a3          	sb	s5,-1565(s8)
 624:	0700                	addi	s0,sp,896
 626:	01a0                	addi	s0,sp,200
 628:	e000                	.2byte	0xe000
 62a:	01bd                	addi	gp,gp,15
 62c:	e000                	.2byte	0xe000
 62e:	5d01                	li	s10,-32
 630:	0001bd07          	.4byte	0x1bd07
 634:	bee0                	.2byte	0xbee0
 636:	0001                	nop
 638:	04e0                	addi	s0,sp,588
 63a:	9f5d01a3          	sb	s5,-1565(s10) # fffdf9e3 <fromhost+0x1ffcf9d3>
 63e:	0001c807          	.4byte	0x1c807
 642:	85e0                	.2byte	0x85e0
 644:	0002                	c.slli64	zero
 646:	01e0                	addi	s0,sp,204
 648:	0285075b          	.4byte	0x285075b
 64c:	e000                	.2byte	0xe000
 64e:	028c                	addi	a1,sp,320
 650:	e000                	.2byte	0xe000
 652:	9102                	jalr	sp
 654:	0748                	addi	a0,sp,900
 656:	028c                	addi	a1,sp,320
 658:	e000                	.2byte	0xe000
 65a:	e000028f          	.4byte	0xe000028f
 65e:	5b01                	li	s6,-32
 660:	00029407          	.4byte	0x29407
 664:	a2e0                	.2byte	0xa2e0
 666:	0002                	c.slli64	zero
 668:	01e0                	addi	s0,sp,204
 66a:	a007005b          	.4byte	0xa007005b
 66e:	0001                	nop
 670:	bde0                	.2byte	0xbde0
 672:	0001                	nop
 674:	01e0                	addi	s0,sp,204
 676:	075e                	slli	a4,a4,0x17
 678:	01bd                	addi	gp,gp,15
 67a:	e000                	.2byte	0xe000
 67c:	01c8                	addi	a0,sp,196
 67e:	e000                	.2byte	0xe000
 680:	a304                	.2byte	0xa304
 682:	5e01                	li	t3,-32
 684:	079f 01c8 e000      	.byte	0x9f, 0x07, 0xc8, 0x01, 0x00, 0xe0
 68a:	0285                	addi	t0,t0,1
 68c:	e000                	.2byte	0xe000
 68e:	5c01                	li	s8,-32
 690:	00028507          	.4byte	0x28507
 694:	8ce0                	.2byte	0x8ce0
 696:	0002                	c.slli64	zero
 698:	02e0                	addi	s0,sp,332
 69a:	4c91                	li	s9,4
 69c:	00028c07          	.4byte	0x28c07
 6a0:	94e0                	.2byte	0x94e0
 6a2:	0002                	c.slli64	zero
 6a4:	04e0                	addi	s0,sp,588
 6a6:	9f5e01a3          	sb	s5,-1565(t3)
 6aa:	00029407          	.4byte	0x29407
 6ae:	a2e0                	.2byte	0xa2e0
 6b0:	0002                	c.slli64	zero
 6b2:	01e0                	addi	s0,sp,204
 6b4:	005c                	addi	a5,sp,4
 6b6:	0001a007          	.4byte	0x1a007
 6ba:	b6e0                	.2byte	0xb6e0
 6bc:	0001                	nop
 6be:	01e0                	addi	s0,sp,204
 6c0:	075f 01b6 e000      	.byte	0x5f, 0x07, 0xb6, 0x01, 0x00, 0xe0
 6c6:	01c8                	addi	a0,sp,196
 6c8:	e000                	.2byte	0xe000
 6ca:	a304                	.2byte	0xa304
 6cc:	5f01                	li	t5,-32
 6ce:	079f 01c8 e000      	.byte	0x9f, 0x07, 0xc8, 0x01, 0x00, 0xe0
 6d4:	01fa                	slli	gp,gp,0x1e
 6d6:	e000                	.2byte	0xe000
 6d8:	5f01                	li	t5,-32
 6da:	0001fa07          	.4byte	0x1fa07
 6de:	4ce0                	lw	s0,92(s1)
 6e0:	0002                	c.slli64	zero
 6e2:	04e0                	addi	s0,sp,588
 6e4:	9f5f01a3          	sb	s5,-1565(t5) # fffe59e3 <fromhost+0x1ffd59d3>
 6e8:	00024c07          	.4byte	0x24c07
 6ec:	56e0                	lw	s0,108(a3)
 6ee:	0002                	c.slli64	zero
 6f0:	01e0                	addi	s0,sp,204
 6f2:	075f 0256 e000      	.byte	0x5f, 0x07, 0x56, 0x02, 0x00, 0xe0
 6f8:	02a2                	slli	t0,t0,0x8
 6fa:	e000                	.2byte	0xe000
 6fc:	a304                	.2byte	0xa304
 6fe:	5f01                	li	t5,-32
 700:	009f da07 0001      	.byte	0x9f, 0x00, 0x07, 0xda, 0x01, 0x00
 706:	e4e0                	.2byte	0xe4e0
 708:	0001                	nop
 70a:	03e0                	addi	s0,sp,460
 70c:	6f91                	lui	t6,0x4
 70e:	079f 01e4 e000      	.byte	0x9f, 0x07, 0xe4, 0x01, 0x00, 0xe0
 714:	024c                	addi	a1,sp,260
 716:	e000                	.2byte	0xe000
 718:	5801                	li	a6,-32
 71a:	00025007          	.4byte	0x25007
 71e:	94e0                	.2byte	0x94e0
 720:	0002                	c.slli64	zero
 722:	01e0                	addi	s0,sp,204
 724:	0758                	addi	a4,sp,900
 726:	0294                	addi	a3,sp,320
 728:	e000                	.2byte	0xe000
 72a:	02a0                	addi	s0,sp,328
 72c:	e000                	.2byte	0xe000
 72e:	9f7f7803          	.4byte	0x9f7f7803
 732:	0002a007          	.4byte	0x2a007
 736:	a2e0                	.2byte	0xa2e0
 738:	0002                	c.slli64	zero
 73a:	01e0                	addi	s0,sp,204
 73c:	0058                	addi	a4,sp,4
 73e:	0001a007          	.4byte	0x1a007
 742:	bee0                	.2byte	0xbee0
 744:	0001                	nop
 746:	02e0                	addi	s0,sp,332
 748:	9f30                	.2byte	0x9f30
 74a:	0001c807          	.4byte	0x1c807
 74e:	d6e0                	sw	s0,108(a3)
 750:	0001                	nop
 752:	02e0                	addi	s0,sp,332
 754:	9f30                	.2byte	0x9f30
 756:	0001d607          	.4byte	0x1d607
 75a:	dae0                	sw	s0,116(a3)
 75c:	0001                	nop
 75e:	02e0                	addi	s0,sp,332
 760:	9f31                	.2byte	0x9f31
 762:	0001da07          	.4byte	0x1da07
 766:	4ce0                	lw	s0,92(s1)
 768:	0002                	c.slli64	zero
 76a:	01e0                	addi	s0,sp,204
 76c:	0759                	addi	a4,a4,22
 76e:	024c                	addi	a1,sp,260
 770:	e000                	.2byte	0xe000
 772:	0250                	addi	a2,sp,260
 774:	e000                	.2byte	0xe000
 776:	3002                	.2byte	0x3002
 778:	079f 0250 e000      	.byte	0x9f, 0x07, 0x50, 0x02, 0x00, 0xe0
 77e:	028c                	addi	a1,sp,320
 780:	e000                	.2byte	0xe000
 782:	5901                	li	s2,-32
 784:	00029407          	.4byte	0x29407
 788:	9ee0                	.2byte	0x9ee0
 78a:	0002                	c.slli64	zero
 78c:	01e0                	addi	s0,sp,204
 78e:	0059                	c.nop	22
 790:	0001a007          	.4byte	0x1a007
 794:	bee0                	.2byte	0xbee0
 796:	0001                	nop
 798:	02e0                	addi	s0,sp,332
 79a:	9f30                	.2byte	0x9f30
 79c:	0001c807          	.4byte	0x1c807
 7a0:	86e0                	.2byte	0x86e0
 7a2:	0002                	c.slli64	zero
 7a4:	02e0                	addi	s0,sp,332
 7a6:	9f30                	.2byte	0x9f30
 7a8:	00028607          	.4byte	0x28607
 7ac:	8ce0                	.2byte	0x8ce0
 7ae:	0002                	c.slli64	zero
 7b0:	02e0                	addi	s0,sp,332
 7b2:	9f31                	.2byte	0x9f31
 7b4:	00028c07          	.4byte	0x28c07
 7b8:	94e0                	.2byte	0x94e0
 7ba:	0002                	c.slli64	zero
 7bc:	01e0                	addi	s0,sp,204
 7be:	0759                	addi	a4,a4,22
 7c0:	0294                	addi	a3,sp,320
 7c2:	e000                	.2byte	0xe000
 7c4:	02a2                	slli	t0,t0,0x8
 7c6:	e000                	.2byte	0xe000
 7c8:	3002                	.2byte	0x3002
 7ca:	009f a007 0001      	.byte	0x9f, 0x00, 0x07, 0xa0, 0x01, 0x00
 7d0:	b8e0                	.2byte	0xb8e0
 7d2:	0001                	nop
 7d4:	01e0                	addi	s0,sp,204
 7d6:	075a                	slli	a4,a4,0x16
 7d8:	01b8                	addi	a4,sp,200
 7da:	e000                	.2byte	0xe000
 7dc:	01be                	slli	gp,gp,0xf
 7de:	e000                	.2byte	0xe000
 7e0:	a304                	.2byte	0xa304
 7e2:	5a01                	li	s4,-32
 7e4:	079f 01c8 e000      	.byte	0x9f, 0x07, 0xc8, 0x01, 0x00, 0xe0
 7ea:	01da                	slli	gp,gp,0x16
 7ec:	e000                	.2byte	0xe000
 7ee:	5a01                	li	s4,-32
 7f0:	0001da07          	.4byte	0x1da07
 7f4:	3ce0                	.2byte	0x3ce0
 7f6:	0002                	c.slli64	zero
 7f8:	01e0                	addi	s0,sp,204
 7fa:	0760                	addi	s0,sp,908
 7fc:	023c                	addi	a5,sp,264
 7fe:	e000                	.2byte	0xe000
 800:	0240                	addi	s0,sp,260
 802:	e000                	.2byte	0xe000
 804:	9f7a8003          	lb	zero,-1545(s5)
 808:	00024607          	.4byte	0x24607
 80c:	4ce0                	lw	s0,92(s1)
 80e:	0002                	c.slli64	zero
 810:	01e0                	addi	s0,sp,204
 812:	0760                	addi	s0,sp,908
 814:	024c                	addi	a1,sp,260
 816:	e000                	.2byte	0xe000
 818:	0250                	addi	a2,sp,260
 81a:	e000                	.2byte	0xe000
 81c:	5a01                	li	s4,-32
 81e:	00025007          	.4byte	0x25007
 822:	85e0                	.2byte	0x85e0
 824:	0002                	c.slli64	zero
 826:	01e0                	addi	s0,sp,204
 828:	0760                	addi	s0,sp,908
 82a:	0294                	addi	a3,sp,320
 82c:	e000                	.2byte	0xe000
 82e:	02a2                	slli	t0,t0,0x8
 830:	e000                	.2byte	0xe000
 832:	6001                	.2byte	0x6001
 834:	0700                	addi	s0,sp,896
 836:	01fa                	slli	gp,gp,0x1e
 838:	e000                	.2byte	0xe000
 83a:	0202                	c.slli64	tp
 83c:	e000                	.2byte	0xe000
 83e:	6001                	.2byte	0x6001
 840:	0700                	addi	s0,sp,896
 842:	021c                	addi	a5,sp,256
 844:	e000                	.2byte	0xe000
 846:	023c                	addi	a5,sp,264
 848:	e000                	.2byte	0xe000
 84a:	6001                	.2byte	0x6001
 84c:	00023c07          	.4byte	0x23c07
 850:	40e0                	lw	s0,68(s1)
 852:	0002                	c.slli64	zero
 854:	03e0                	addi	s0,sp,460
 856:	7a80                	.2byte	0x7a80
 858:	009f 2207 0002      	.byte	0x9f, 0x00, 0x07, 0x22, 0x02, 0x00
 85e:	46e0                	lw	s0,76(a3)
 860:	0002                	c.slli64	zero
 862:	01e0                	addi	s0,sp,204
 864:	005f 3607 0002      	.byte	0x5f, 0x00, 0x07, 0x36, 0x02, 0x00
 86a:	3ce0                	.2byte	0x3ce0
 86c:	0002                	c.slli64	zero
 86e:	09e0                	addi	s0,sp,220
 870:	007f                	.2byte	0x7f
 872:	f609                	bnez	a2,77c <_min_stack-0x1884>
 874:	801e                	c.mv	zero,t2
 876:	2200                	.2byte	0x2200
 878:	079f 023c e000      	.byte	0x9f, 0x07, 0x3c, 0x02, 0x00, 0xe0
 87e:	0240                	addi	s0,sp,260
 880:	e000                	.2byte	0xe000
 882:	09007f0b          	.4byte	0x9007f0b
 886:	1ef6                	slli	t4,t4,0x3d
 888:	0080                	addi	s0,sp,64
 88a:	3622                	.2byte	0x3622
 88c:	9f1c                	.2byte	0x9f1c
 88e:	0700                	addi	s0,sp,896
 890:	025a                	slli	tp,tp,0x16
 892:	e000                	.2byte	0xe000
 894:	0266                	slli	tp,tp,0x19
 896:	e000                	.2byte	0xe000
 898:	5a01                	li	s4,-32
 89a:	00026607          	.4byte	0x26607
 89e:	72e0                	.2byte	0x72e0
 8a0:	0002                	c.slli64	zero
 8a2:	03e0                	addi	s0,sp,460
 8a4:	507a                	.2byte	0x507a
 8a6:	009f 8407 0002      	.byte	0x9f, 0x00, 0x07, 0x84, 0x02, 0x00
 8ac:	86e0                	.2byte	0x86e0
 8ae:	0002                	c.slli64	zero
 8b0:	02e0                	addi	s0,sp,332
 8b2:	9f30                	.2byte	0x9f30
 8b4:	0700                	addi	s0,sp,896
 8b6:	0284                	addi	s1,sp,320
 8b8:	e000                	.2byte	0xe000
 8ba:	0286                	slli	t0,t0,0x1
 8bc:	e000                	.2byte	0xe000
 8be:	9f2d0803          	lb	a6,-1550(s10)
 8c2:	0700                	addi	s0,sp,896
 8c4:	02b0                	addi	a2,sp,328
 8c6:	e000                	.2byte	0xe000
 8c8:	02ba                	slli	t0,t0,0xe
 8ca:	e000                	.2byte	0xe000
 8cc:	5a01                	li	s4,-32
 8ce:	0002ba07          	.4byte	0x2ba07
 8d2:	c4e0                	sw	s0,76(s1)
 8d4:	0002                	c.slli64	zero
 8d6:	01e0                	addi	s0,sp,204
 8d8:	0758                	addi	a4,sp,900
 8da:	02c4                	addi	s1,sp,324
 8dc:	e000                	.2byte	0xe000
 8de:	02c8                	addi	a0,sp,324
 8e0:	e000                	.2byte	0xe000
 8e2:	5a01                	li	s4,-32
	...

Disassembly of section .debug_aranges:

00000000 <.debug_aranges>:
   0:	001c                	.2byte	0x1c
   2:	0000                	unimp
   4:	0002                	c.slli64	zero
   6:	0000                	unimp
   8:	0000                	unimp
   a:	0004                	.2byte	0x4
   c:	0000                	unimp
   e:	0000                	unimp
  10:	0084                	addi	s1,sp,64
  12:	e000                	.2byte	0xe000
  14:	043e                	slli	s0,s0,0xf
	...
  1e:	0000                	unimp
  20:	0024                	addi	s1,sp,8
  22:	0000                	unimp
  24:	0002                	c.slli64	zero
  26:	0946                	slli	s2,s2,0x11
  28:	0000                	unimp
  2a:	0004                	.2byte	0x4
  2c:	0000                	unimp
  2e:	0000                	unimp
  30:	04c2                	slli	s1,s1,0x10
  32:	e000                	.2byte	0xe000
  34:	1eac                	addi	a1,sp,888
  36:	0000                	unimp
  38:	23f2                	.2byte	0x23f2
  3a:	e000                	.2byte	0xe000
  3c:	0004                	.2byte	0x4
	...
  46:	0000                	unimp
  48:	0024                	addi	s1,sp,8
  4a:	0000                	unimp
  4c:	0002                	c.slli64	zero
  4e:	00000a07          	.4byte	0xa07
  52:	0004                	.2byte	0x4
  54:	0000                	unimp
  56:	0000                	unimp
  58:	236e                	.2byte	0x236e
  5a:	e000                	.2byte	0xe000
  5c:	0084                	addi	s1,sp,64
  5e:	0000                	unimp
  60:	0000                	unimp
  62:	e000                	.2byte	0xe000
  64:	0084                	addi	s1,sp,64
	...

Disassembly of section .debug_rnglists:

00000000 <.debug_rnglists>:
   0:	000000eb          	.4byte	0xeb
   4:	0005                	c.nop	1
   6:	0004                	.2byte	0x4
   8:	0000                	unimp
   a:	0000                	unimp
   c:	1806                	slli	a6,a6,0x21
   e:	0001                	nop
  10:	2ee0                	.2byte	0x2ee0
  12:	0001                	nop
  14:	06e0                	addi	s0,sp,844
  16:	0132                	slli	sp,sp,0xc
  18:	e000                	.2byte	0xe000
  1a:	0138                	addi	a4,sp,136
  1c:	e000                	.2byte	0xe000
  1e:	4606                	lw	a2,64(sp)
  20:	0001                	nop
  22:	4ae0                	lw	s0,84(a3)
  24:	0001                	nop
  26:	00e0                	addi	s0,sp,76
  28:	4006                	.2byte	0x4006
  2a:	0001                	nop
  2c:	46e0                	lw	s0,76(a3)
  2e:	0001                	nop
  30:	06e0                	addi	s0,sp,844
  32:	014a                	slli	sp,sp,0x12
  34:	e000                	.2byte	0xe000
  36:	014e                	slli	sp,sp,0x13
  38:	e000                	.2byte	0xe000
  3a:	0600                	addi	s0,sp,768
  3c:	0140                	addi	s0,sp,132
  3e:	e000                	.2byte	0xe000
  40:	0146                	slli	sp,sp,0x11
  42:	e000                	.2byte	0xe000
  44:	4a06                	lw	s4,64(sp)
  46:	0001                	nop
  48:	4ee0                	lw	s0,92(a3)
  4a:	0001                	nop
  4c:	00e0                	addi	s0,sp,76
  4e:	7606                	.2byte	0x7606
  50:	0001                	nop
  52:	7ae0                	.2byte	0x7ae0
  54:	0001                	nop
  56:	06e0                	addi	s0,sp,844
  58:	0198                	addi	a4,sp,192
  5a:	e000                	.2byte	0xe000
  5c:	019c                	addi	a5,sp,192
  5e:	e000                	.2byte	0xe000
  60:	0600                	addi	s0,sp,768
  62:	0176                	slli	sp,sp,0x1d
  64:	e000                	.2byte	0xe000
  66:	017a                	slli	sp,sp,0x1e
  68:	e000                	.2byte	0xe000
  6a:	9806                	add	a6,a6,ra
  6c:	0001                	nop
  6e:	9ce0                	.2byte	0x9ce0
  70:	0001                	nop
  72:	00e0                	addi	s0,sp,76
  74:	e806                	.2byte	0xe806
  76:	0001                	nop
  78:	f8e0                	.2byte	0xf8e0
  7a:	0001                	nop
  7c:	06e0                	addi	s0,sp,844
  7e:	01fa                	slli	gp,gp,0x1e
  80:	e000                	.2byte	0xe000
  82:	0206                	slli	tp,tp,0x1
  84:	e000                	.2byte	0xe000
  86:	0806                	slli	a6,a6,0x1
  88:	0002                	c.slli64	zero
  8a:	10e0                	addi	s0,sp,108
  8c:	0002                	c.slli64	zero
  8e:	00e0                	addi	s0,sp,76
  90:	f806                	.2byte	0xf806
  92:	0001                	nop
  94:	fae0                	.2byte	0xfae0
  96:	0001                	nop
  98:	06e0                	addi	s0,sp,844
  9a:	021c                	addi	a5,sp,256
  9c:	e000                	.2byte	0xe000
  9e:	0246                	slli	tp,tp,0x11
  a0:	e000                	.2byte	0xe000
  a2:	0600                	addi	s0,sp,768
  a4:	027c                	addi	a5,sp,268
  a6:	e000                	.2byte	0xe000
  a8:	0284                	addi	s1,sp,320
  aa:	e000                	.2byte	0xe000
  ac:	8406                	mv	s0,ra
  ae:	0002                	c.slli64	zero
  b0:	86e0                	.2byte	0x86e0
  b2:	0002                	c.slli64	zero
  b4:	00e0                	addi	s0,sp,76
  b6:	f206                	.2byte	0xf206
  b8:	0002                	c.slli64	zero
  ba:	10e0                	addi	s0,sp,108
  bc:	06e00003          	lb	zero,110(zero) # 6e <_min_stack-0x1f92>
  c0:	032a                	slli	t1,t1,0xa
  c2:	e000                	.2byte	0xe000
  c4:	0420                	addi	s0,sp,520
  c6:	e000                	.2byte	0xe000
  c8:	0600                	addi	s0,sp,768
  ca:	0302                	c.slli64	t1
  cc:	e000                	.2byte	0xe000
  ce:	030a                	slli	t1,t1,0x2
  d0:	e000                	.2byte	0xe000
  d2:	7606                	.2byte	0x7606
  d4:	84e00003          	lb	zero,-1970(zero) # fffff84e <fromhost+0x1ffef83e>
  d8:	00e00003          	lb	zero,14(zero) # e <_min_stack-0x1ff2>
  dc:	1606                	slli	a2,a2,0x21
  de:	0004                	.2byte	0x4
  e0:	1ae0                	addi	s0,sp,380
  e2:	0004                	.2byte	0x4
  e4:	06e0                	addi	s0,sp,844
  e6:	041c                	addi	a5,sp,512
  e8:	e000                	.2byte	0xe000
  ea:	041e                	slli	s0,s0,0x7
  ec:	e000                	.2byte	0xe000
  ee:	1b00                	addi	s0,sp,432
  f0:	0000                	unimp
  f2:	0500                	addi	s0,sp,640
  f4:	0400                	addi	s0,sp,512
  f6:	0000                	unimp
  f8:	0000                	unimp
  fa:	0600                	addi	s0,sp,768
  fc:	04c2                	slli	s1,s1,0x10
  fe:	e000                	.2byte	0xe000
 100:	236e                	.2byte	0x236e
 102:	e000                	.2byte	0xe000
 104:	f206                	.2byte	0xf206
 106:	f6e00023          	sb	a4,-160(zero) # ffffff60 <fromhost+0x1ffeff50>
 10a:	00e00023          	sb	a4,0(zero) # 0 <_min_stack-0x2000>
 10e:	00000017          	auipc	zero,0x0
 112:	0005                	c.nop	1
 114:	0004                	.2byte	0x4
 116:	0000                	unimp
 118:	0000                	unimp
 11a:	00236e07          	.4byte	0x236e07
 11e:	84e0                	.2byte	0x84e0
 120:	0701                	addi	a4,a4,0
 122:	0000                	unimp
 124:	e000                	.2byte	0xe000
 126:	0184                	addi	s1,sp,192
	...

Disassembly of section .debug_line:

00000000 <.debug_line>:
       0:	0dd5                	addi	s11,s11,21
       2:	0000                	unimp
       4:	0005                	c.nop	1
       6:	0004                	.2byte	0x4
       8:	003c                	addi	a5,sp,8
       a:	0000                	unimp
       c:	0101                	addi	sp,sp,0
       e:	fb01                	bnez	a4,ffffff1e <fromhost+0x1ffeff0e>
      10:	0d0e                	slli	s10,s10,0x3
      12:	0100                	addi	s0,sp,128
      14:	0101                	addi	sp,sp,0
      16:	0001                	nop
      18:	0000                	unimp
      1a:	0001                	nop
      1c:	0100                	addi	s0,sp,128
      1e:	0101                	addi	sp,sp,0
      20:	031f 0000 0000      	.byte	0x1f, 0x03, 0x00, 0x00, 0x00, 0x00
      26:	0094                	addi	a3,sp,64
      28:	0000                	unimp
      2a:	00d8                	addi	a4,sp,68
      2c:	0000                	unimp
      2e:	0102                	c.slli64	sp
      30:	021f 040f 008c      	.byte	0x1f, 0x02, 0x0f, 0x04, 0x8c, 0x00
      36:	0000                	unimp
      38:	8c01                	sub	s0,s0,s0
      3a:	0000                	unimp
      3c:	0100                	addi	s0,sp,128
      3e:	012e                	slli	sp,sp,0xb
      40:	0000                	unimp
      42:	3702                	.2byte	0x3702
      44:	0001                	nop
      46:	0200                	addi	s0,sp,256
      48:	3505                	jal	fffffe68 <fromhost+0x1ffefe58>
      4a:	0500                	addi	s0,sp,640
      4c:	8402                	jr	s0
      4e:	0000                	unimp
      50:	03e0                	addi	s0,sp,460
      52:	0129                	addi	sp,sp,10
      54:	0305                	addi	t1,t1,1
      56:	00090103          	lb	sp,0(s2)
      5a:	0100                	addi	s0,sp,128
      5c:	00090103          	lb	sp,0(s2)
      60:	0100                	addi	s0,sp,128
      62:	2b05                	jal	592 <_min_stack-0x1a6e>
      64:	0306                	slli	t1,t1,0x1
      66:	0900                	addi	s0,sp,144
      68:	0000                	unimp
      6a:	0501                	addi	a0,a0,0 # 317545a <tohost+0x3155452>
      6c:	01030603          	lb	a2,16(t1)
      70:	0a09                	addi	s4,s4,2
      72:	0100                	addi	s0,sp,128
      74:	4005                	c.li	zero,1
      76:	0306                	slli	t1,t1,0x1
      78:	0900                	addi	s0,sp,144
      7a:	0000                	unimp
      7c:	0501                	addi	a0,a0,0
      7e:	0900032b          	.4byte	0x900032b
      82:	0004                	.2byte	0x4
      84:	0501                	addi	a0,a0,0
      86:	01030603          	lb	a2,16(t1)
      8a:	0209                	addi	tp,tp,2 # 2 <_min_stack-0x1ffe>
      8c:	0100                	addi	s0,sp,128
      8e:	4005                	c.li	zero,1
      90:	0306                	slli	t1,t1,0x1
      92:	0900                	addi	s0,sp,144
      94:	0000                	unimp
      96:	0501                	addi	a0,a0,0
      98:	0900032b          	.4byte	0x900032b
      9c:	0004                	.2byte	0x4
      9e:	0501                	addi	a0,a0,0
      a0:	01030603          	lb	a2,16(t1)
      a4:	0209                	addi	tp,tp,2 # 2 <_min_stack-0x1ffe>
      a6:	0100                	addi	s0,sp,128
      a8:	2b05                	jal	5d8 <_min_stack-0x1a28>
      aa:	0306                	slli	t1,t1,0x1
      ac:	0900                	addi	s0,sp,144
      ae:	0000                	unimp
      b0:	0501                	addi	a0,a0,0
      b2:	01030603          	lb	a2,16(t1)
      b6:	0609                	addi	a2,a2,2
      b8:	0100                	addi	s0,sp,128
      ba:	2b05                	jal	5ea <_min_stack-0x1a16>
      bc:	0306                	slli	t1,t1,0x1
      be:	0900                	addi	s0,sp,144
      c0:	0000                	unimp
      c2:	0501                	addi	a0,a0,0
      c4:	02030603          	lb	a2,32(t1)
      c8:	0409                	addi	s0,s0,2
      ca:	0100                	addi	s0,sp,128
      cc:	2f05                	jal	7fc <_min_stack-0x1804>
      ce:	0306                	slli	t1,t1,0x1
      d0:	0900                	addi	s0,sp,144
      d2:	0000                	unimp
      d4:	0501                	addi	a0,a0,0
      d6:	0358                	addi	a4,sp,388
      d8:	0900                	addi	s0,sp,144
      da:	0002                	c.slli64	zero
      dc:	0501                	addi	a0,a0,0
      de:	0360                	addi	s0,sp,396
      e0:	0900                	addi	s0,sp,144
      e2:	0004                	.2byte	0x4
      e4:	0501                	addi	a0,a0,0
      e6:	0900032b          	.4byte	0x900032b
      ea:	0004                	.2byte	0x4
      ec:	0501                	addi	a0,a0,0
      ee:	0301                	addi	t1,t1,0
      f0:	0901                	addi	s2,s2,0
      f2:	0002                	c.slli64	zero
      f4:	0501                	addi	a0,a0,0
      f6:	02030633          	mul	a2,t1,zero
      fa:	0209                	addi	tp,tp,2 # 2 <_min_stack-0x1ffe>
      fc:	0100                	addi	s0,sp,128
      fe:	0305                	addi	t1,t1,1
     100:	00090103          	lb	sp,0(s2)
     104:	0100                	addi	s0,sp,128
     106:	00090203          	lb	tp,0(s2)
     10a:	0100                	addi	s0,sp,128
     10c:	0d05                	addi	s10,s10,1
     10e:	0306                	slli	t1,t1,0x1
     110:	0904                	addi	s1,sp,144
     112:	0000                	unimp
     114:	0601                	addi	a2,a2,0
     116:	04097c03          	.4byte	0x4097c03
     11a:	0100                	addi	s0,sp,128
     11c:	0105                	addi	sp,sp,1
     11e:	0306                	slli	t1,t1,0x1
     120:	090d                	addi	s2,s2,3
     122:	0002                	c.slli64	zero
     124:	0501                	addi	a0,a0,0
     126:	003d                	c.nop	15
     128:	0402                	c.slli64	s0
     12a:	0601                	addi	a2,a2,0
     12c:	02097703          	.4byte	0x2097703
     130:	0100                	addi	s0,sp,128
     132:	0d05                	addi	s10,s10,1
     134:	0200                	addi	s0,sp,256
     136:	0104                	addi	s1,sp,128
     138:	0306                	slli	t1,t1,0x1
     13a:	0900                	addi	s0,sp,144
     13c:	0000                	unimp
     13e:	0501                	addi	a0,a0,0
     140:	0035                	c.nop	13
     142:	0402                	c.slli64	s0
     144:	0301                	addi	t1,t1,0
     146:	0900                	addi	s0,sp,144
     148:	0002                	c.slli64	zero
     14a:	0501                	addi	a0,a0,0
     14c:	003d                	c.nop	15
     14e:	0402                	c.slli64	s0
     150:	0301                	addi	t1,t1,0
     152:	0900                	addi	s0,sp,144
     154:	0004                	.2byte	0x4
     156:	0501                	addi	a0,a0,0
     158:	04020007          	.4byte	0x4020007
     15c:	0604                	addi	s1,sp,768
     15e:	06090403          	lb	s0,96(s2)
     162:	0100                	addi	s0,sp,128
     164:	3105                	jal	fffffd84 <fromhost+0x1ffefd74>
     166:	0200                	addi	s0,sp,256
     168:	0404                	addi	s1,sp,512
     16a:	0306                	slli	t1,t1,0x1
     16c:	0900                	addi	s0,sp,144
     16e:	0000                	unimp
     170:	0501                	addi	a0,a0,0
     172:	0035                	c.nop	13
     174:	0402                	c.slli64	s0
     176:	0304                	addi	s1,sp,384
     178:	0900                	addi	s0,sp,144
     17a:	0004                	.2byte	0x4
     17c:	0501                	addi	a0,a0,0
     17e:	000a                	c.slli	zero,0x2
     180:	0402                	c.slli64	s0
     182:	0304                	addi	s1,sp,384
     184:	0902                	c.slli64	s2
     186:	0002                	c.slli64	zero
     188:	0501                	addi	a0,a0,0
     18a:	0402002f          	.4byte	0x402002f
     18e:	0304                	addi	s1,sp,384
     190:	097e                	slli	s2,s2,0x1f
     192:	0002                	c.slli64	zero
     194:	0501                	addi	a0,a0,0
     196:	04020007          	.4byte	0x4020007
     19a:	0604                	addi	s1,sp,768
     19c:	02090203          	lb	tp,32(s2)
     1a0:	0100                	addi	s0,sp,128
     1a2:	3505                	jal	ffffffc2 <fromhost+0x1ffeffb2>
     1a4:	0200                	addi	s0,sp,256
     1a6:	0404                	addi	s1,sp,512
     1a8:	00097c03          	.4byte	0x97c03
     1ac:	0100                	addi	s0,sp,128
     1ae:	2605                	jal	4ce <_min_stack-0x1b32>
     1b0:	0200                	addi	s0,sp,256
     1b2:	0404                	addi	s1,sp,512
     1b4:	00090003          	lb	zero,0(s2)
     1b8:	0100                	addi	s0,sp,128
     1ba:	0200                	addi	s0,sp,256
     1bc:	0304                	addi	s1,sp,384
     1be:	0306                	slli	t1,t1,0x1
     1c0:	0900                	addi	s0,sp,144
     1c2:	0004                	.2byte	0x4
     1c4:	0501                	addi	a0,a0,0
     1c6:	0615                	addi	a2,a2,5
     1c8:	04090903          	lb	s2,64(s2)
     1cc:	0100                	addi	s0,sp,128
     1ce:	0305                	addi	t1,t1,1
     1d0:	00090103          	lb	sp,0(s2)
     1d4:	0100                	addi	s0,sp,128
     1d6:	0a05                	addi	s4,s4,1
     1d8:	0306                	slli	t1,t1,0x1
     1da:	0900                	addi	s0,sp,144
     1dc:	0000                	unimp
     1de:	0501                	addi	a0,a0,0
     1e0:	0030                	addi	a2,sp,8
     1e2:	0402                	c.slli64	s0
     1e4:	0601                	addi	a2,a2,0
     1e6:	04090003          	lb	zero,64(s2)
     1ea:	0100                	addi	s0,sp,128
     1ec:	0a05                	addi	s4,s4,1
     1ee:	0200                	addi	s0,sp,256
     1f0:	0104                	addi	s1,sp,128
     1f2:	0306                	slli	t1,t1,0x1
     1f4:	0900                	addi	s0,sp,144
     1f6:	0000                	unimp
     1f8:	0501                	addi	a0,a0,0
     1fa:	0029                	c.nop	10
     1fc:	0402                	c.slli64	s0
     1fe:	0301                	addi	t1,t1,0
     200:	0900                	addi	s0,sp,144
     202:	0002                	c.slli64	zero
     204:	0501                	addi	a0,a0,0
     206:	0030                	addi	a2,sp,8
     208:	0402                	c.slli64	s0
     20a:	0301                	addi	t1,t1,0
     20c:	0900                	addi	s0,sp,144
     20e:	0002                	c.slli64	zero
     210:	0501                	addi	a0,a0,0
     212:	02030603          	lb	a2,32(t1)
     216:	0209                	addi	tp,tp,2 # 2 <_min_stack-0x1ffe>
     218:	0100                	addi	s0,sp,128
     21a:	0a05                	addi	s4,s4,1
     21c:	0306                	slli	t1,t1,0x1
     21e:	0900                	addi	s0,sp,144
     220:	0000                	unimp
     222:	0501                	addi	a0,a0,0
     224:	0301                	addi	t1,t1,0
     226:	0901                	addi	s2,s2,0
     228:	0002                	c.slli64	zero
     22a:	0501                	addi	a0,a0,0
     22c:	0622                	slli	a2,a2,0x8
     22e:	06090203          	lb	tp,96(s2)
     232:	0100                	addi	s0,sp,128
     234:	0305                	addi	t1,t1,1
     236:	00090203          	lb	tp,0(s2)
     23a:	0100                	addi	s0,sp,128
     23c:	0b05                	addi	s6,s6,1
     23e:	0306                	slli	t1,t1,0x1
     240:	0900                	addi	s0,sp,144
     242:	0000                	unimp
     244:	0501                	addi	a0,a0,0
     246:	0402003b          	.4byte	0x402003b
     24a:	0601                	addi	a2,a2,0
     24c:	04090003          	lb	zero,64(s2)
     250:	0100                	addi	s0,sp,128
     252:	0b05                	addi	s6,s6,1
     254:	0200                	addi	s0,sp,256
     256:	0104                	addi	s1,sp,128
     258:	0306                	slli	t1,t1,0x1
     25a:	0900                	addi	s0,sp,144
     25c:	0000                	unimp
     25e:	0501                	addi	a0,a0,0
     260:	04020033          	.4byte	0x4020033
     264:	0301                	addi	t1,t1,0
     266:	0900                	addi	s0,sp,144
     268:	0002                	c.slli64	zero
     26a:	0501                	addi	a0,a0,0
     26c:	0402003b          	.4byte	0x402003b
     270:	0301                	addi	t1,t1,0
     272:	0900                	addi	s0,sp,144
     274:	0004                	.2byte	0x4
     276:	0501                	addi	a0,a0,0
     278:	03030603          	lb	a2,48(t1)
     27c:	0209                	addi	tp,tp,2 # 2 <_min_stack-0x1ffe>
     27e:	0100                	addi	s0,sp,128
     280:	2b05                	jal	7b0 <_min_stack-0x1850>
     282:	0306                	slli	t1,t1,0x1
     284:	0900                	addi	s0,sp,144
     286:	0000                	unimp
     288:	0501                	addi	a0,a0,0
     28a:	0301                	addi	t1,t1,0
     28c:	0901                	addi	s2,s2,0
     28e:	0002                	c.slli64	zero
     290:	0501                	addi	a0,a0,0
     292:	060c                	addi	a1,sp,768
     294:	0900c803          	lbu	a6,144(ra)
     298:	0002                	c.slli64	zero
     29a:	0501                	addi	a0,a0,0
     29c:	09020303          	lb	t1,144(tp) # 90 <_min_stack-0x1f70>
     2a0:	0000                	unimp
     2a2:	0301                	addi	t1,t1,0
     2a4:	0902                	c.slli64	s2
     2a6:	0000                	unimp
     2a8:	0501                	addi	a0,a0,0
     2aa:	060c                	addi	a1,sp,768
     2ac:	00097c03          	.4byte	0x97c03
     2b0:	0100                	addi	s0,sp,128
     2b2:	0e090003          	lb	zero,224(s2)
     2b6:	0100                	addi	s0,sp,128
     2b8:	1805                	addi	a6,a6,-31 # 12150c9 <tohost+0x11f50c1>
     2ba:	04090203          	lb	tp,64(s2)
     2be:	0100                	addi	s0,sp,128
     2c0:	0605                	addi	a2,a2,1
     2c2:	04090203          	lb	tp,64(s2)
     2c6:	0100                	addi	s0,sp,128
     2c8:	2505                	jal	8e8 <_min_stack-0x1718>
     2ca:	0306                	slli	t1,t1,0x1
     2cc:	00080903          	lb	s2,0(a6)
     2d0:	0501                	addi	a0,a0,0
     2d2:	031e                	slli	t1,t1,0x7
     2d4:	0900                	addi	s0,sp,144
     2d6:	0002                	c.slli64	zero
     2d8:	0501                	addi	a0,a0,0
     2da:	0318                	addi	a4,sp,384
     2dc:	0900                	addi	s0,sp,144
     2de:	0000                	unimp
     2e0:	0501                	addi	a0,a0,0
     2e2:	0305                	addi	t1,t1,1
     2e4:	0901                	addi	s2,s2,0
     2e6:	000a                	c.slli	zero,0x2
     2e8:	0501                	addi	a0,a0,0
     2ea:	0608                	addi	a0,sp,768
     2ec:	00090003          	lb	zero,0(s2)
     2f0:	0100                	addi	s0,sp,128
     2f2:	0a05                	addi	s4,s4,1
     2f4:	0306                	slli	t1,t1,0x1
     2f6:	0901                	addi	s2,s2,0
     2f8:	0004                	.2byte	0x4
     2fa:	0501                	addi	a0,a0,0
     2fc:	0610                	addi	a2,sp,768
     2fe:	00090003          	lb	zero,0(s2)
     302:	0100                	addi	s0,sp,128
     304:	0505                	addi	a0,a0,1
     306:	0306                	slli	t1,t1,0x1
     308:	0901                	addi	s2,s2,0
     30a:	0002                	c.slli64	zero
     30c:	0501                	addi	a0,a0,0
     30e:	060d                	addi	a2,a2,3
     310:	00090003          	lb	zero,0(s2)
     314:	0100                	addi	s0,sp,128
     316:	1805                	addi	a6,a6,-31
     318:	04097803          	.4byte	0x4097803
     31c:	0100                	addi	s0,sp,128
     31e:	0805                	addi	a6,a6,1
     320:	04090803          	lb	a6,64(s2)
     324:	0100                	addi	s0,sp,128
     326:	2105                	jal	746 <_min_stack-0x18ba>
     328:	02090003          	lb	zero,32(s2)
     32c:	0100                	addi	s0,sp,128
     32e:	0305                	addi	t1,t1,1
     330:	0306                	slli	t1,t1,0x1
     332:	0902                	c.slli64	s2
     334:	0004                	.2byte	0x4
     336:	0501                	addi	a0,a0,0
     338:	060d                	addi	a2,a2,3
     33a:	00090003          	lb	zero,0(s2)
     33e:	0100                	addi	s0,sp,128
     340:	1005                	c.nop	-31
     342:	02097603          	.4byte	0x2097603
     346:	0100                	addi	s0,sp,128
     348:	0605                	addi	a2,a2,1
     34a:	02090a03          	lb	s4,32(s2)
     34e:	0100                	addi	s0,sp,128
     350:	0305                	addi	t1,t1,1
     352:	04096503          	.4byte	0x4096503
     356:	0100                	addi	s0,sp,128
     358:	1d05                	addi	s10,s10,-31
     35a:	06091703          	lh	a4,96(s2)
     35e:	0100                	addi	s0,sp,128
     360:	0705                	addi	a4,a4,1
     362:	0306                	slli	t1,t1,0x1
     364:	0906                	slli	s2,s2,0x1
     366:	0004                	.2byte	0x4
     368:	0501                	addi	a0,a0,0
     36a:	09690303          	lb	t1,150(s2)
     36e:	0000                	unimp
     370:	0501                	addi	a0,a0,0
     372:	0305                	addi	t1,t1,1
     374:	0906                	slli	s2,s2,0x1
     376:	0000                	unimp
     378:	0501                	addi	a0,a0,0
     37a:	09740303          	lb	t1,151(s0)
     37e:	0000                	unimp
     380:	0301                	addi	t1,t1,0
     382:	0901                	addi	s2,s2,0
     384:	0004                	.2byte	0x4
     386:	0501                	addi	a0,a0,0
     388:	091d0307          	.4byte	0x91d0307
     38c:	0000                	unimp
     38e:	0501                	addi	a0,a0,0
     390:	0318                	addi	a4,sp,384
     392:	097e                	slli	s2,s2,0x1f
     394:	0000                	unimp
     396:	0501                	addi	a0,a0,0
     398:	09000313          	li	t1,144
     39c:	0002                	c.slli64	zero
     39e:	0501                	addi	a0,a0,0
     3a0:	0610                	addi	a2,sp,768
     3a2:	10097503          	.4byte	0x10097503
     3a6:	0100                	addi	s0,sp,128
     3a8:	0505                	addi	a0,a0,1
     3aa:	0306                	slli	t1,t1,0x1
     3ac:	0911                	addi	s2,s2,4
     3ae:	0004                	.2byte	0x4
     3b0:	0501                	addi	a0,a0,0
     3b2:	09640303          	lb	t1,150(s0)
     3b6:	0000                	unimp
     3b8:	0501                	addi	a0,a0,0
     3ba:	0305                	addi	t1,t1,1
     3bc:	0906                	slli	s2,s2,0x1
     3be:	0000                	unimp
     3c0:	0501                	addi	a0,a0,0
     3c2:	09740303          	lb	t1,151(s0)
     3c6:	0000                	unimp
     3c8:	0301                	addi	t1,t1,0
     3ca:	0901                	addi	s2,s2,0
     3cc:	0002                	c.slli64	zero
     3ce:	0501                	addi	a0,a0,0
     3d0:	0305                	addi	t1,t1,1
     3d2:	0922                	slli	s2,s2,0x8
     3d4:	0000                	unimp
     3d6:	0501                	addi	a0,a0,0
     3d8:	0315                	addi	t1,t1,5
     3da:	097e                	slli	s2,s2,0x1f
     3dc:	0002                	c.slli64	zero
     3de:	0501                	addi	a0,a0,0
     3e0:	0900030b          	.4byte	0x900030b
     3e4:	0000                	unimp
     3e6:	0501                	addi	a0,a0,0
     3e8:	5f030603          	lb	a2,1520(t1)
     3ec:	0e09                	addi	t3,t3,2
     3ee:	0100                	addi	s0,sp,128
     3f0:	1105                	addi	sp,sp,-31
     3f2:	0306                	slli	t1,t1,0x1
     3f4:	0925                	addi	s2,s2,9
     3f6:	0004                	.2byte	0x4
     3f8:	0501                	addi	a0,a0,0
     3fa:	09050303          	lb	t1,144(a0)
     3fe:	0004                	.2byte	0x4
     400:	0501                	addi	a0,a0,0
     402:	060a                	slli	a2,a2,0x2
     404:	00090003          	lb	zero,0(s2)
     408:	0100                	addi	s0,sp,128
     40a:	0105                	addi	sp,sp,1
     40c:	06090103          	lb	sp,96(s2)
     410:	0100                	addi	s0,sp,128
     412:	0505                	addi	a0,a0,1
     414:	0306                	slli	t1,t1,0x1
     416:	0014097b          	.4byte	0x14097b
     41a:	0501                	addi	a0,a0,0
     41c:	09600303          	lb	t1,150(zero) # 96 <_min_stack-0x1f6a>
     420:	0000                	unimp
     422:	0501                	addi	a0,a0,0
     424:	0305                	addi	t1,t1,1
     426:	0906                	slli	s2,s2,0x1
     428:	0000                	unimp
     42a:	0501                	addi	a0,a0,0
     42c:	09740303          	lb	t1,151(s0)
     430:	0000                	unimp
     432:	0301                	addi	t1,t1,0
     434:	0901                	addi	s2,s2,0
     436:	0004                	.2byte	0x4
     438:	0501                	addi	a0,a0,0
     43a:	0305                	addi	t1,t1,1
     43c:	0926                	slli	s2,s2,0x9
     43e:	0000                	unimp
     440:	0501                	addi	a0,a0,0
     442:	0316                	slli	t1,t1,0x5
     444:	097e                	slli	s2,s2,0x1f
     446:	0000                	unimp
     448:	0501                	addi	a0,a0,0
     44a:	030c                	addi	a1,sp,384
     44c:	0908                	addi	a0,sp,144
     44e:	0004                	.2byte	0x4
     450:	0501                	addi	a0,a0,0
     452:	09020303          	lb	t1,144(tp) # 90 <_min_stack-0x1f70>
     456:	0000                	unimp
     458:	0301                	addi	t1,t1,0
     45a:	0901                	addi	s2,s2,0
     45c:	0000                	unimp
     45e:	0301                	addi	t1,t1,0
     460:	0901                	addi	s2,s2,0
     462:	0000                	unimp
     464:	0301                	addi	t1,t1,0
     466:	0901                	addi	s2,s2,0
     468:	0000                	unimp
     46a:	0301                	addi	t1,t1,0
     46c:	0902                	c.slli64	s2
     46e:	0000                	unimp
     470:	0501                	addi	a0,a0,0
     472:	060c                	addi	a1,sp,768
     474:	00097903          	.4byte	0x97903
     478:	0100                	addi	s0,sp,128
     47a:	08090003          	lb	zero,128(s2)
     47e:	0100                	addi	s0,sp,128
     480:	0605                	addi	a2,a2,1
     482:	08090703          	lb	a4,128(s2)
     486:	0100                	addi	s0,sp,128
     488:	0505                	addi	a0,a0,1
     48a:	0306                	slli	t1,t1,0x1
     48c:	0902                	c.slli64	s2
     48e:	0002                	c.slli64	zero
     490:	0301                	addi	t1,t1,0
     492:	0901                	addi	s2,s2,0
     494:	0000                	unimp
     496:	0501                	addi	a0,a0,0
     498:	0612                	slli	a2,a2,0x4
     49a:	00097f03          	.4byte	0x97f03
     49e:	0100                	addi	s0,sp,128
     4a0:	0c05                	addi	s8,s8,1
     4a2:	04090203          	lb	tp,64(s2)
     4a6:	0100                	addi	s0,sp,128
     4a8:	1205                	addi	tp,tp,-31 # ffffffe1 <fromhost+0x1ffeffd1>
     4aa:	02097e03          	.4byte	0x2097e03
     4ae:	0100                	addi	s0,sp,128
     4b0:	0505                	addi	a0,a0,1
     4b2:	0306                	slli	t1,t1,0x1
     4b4:	0902                	c.slli64	s2
     4b6:	0004                	.2byte	0x4
     4b8:	0501                	addi	a0,a0,0
     4ba:	060c                	addi	a1,sp,768
     4bc:	00090003          	lb	zero,0(s2)
     4c0:	0100                	addi	s0,sp,128
     4c2:	0105                	addi	sp,sp,1
     4c4:	02092d03          	lw	s10,32(s2)
     4c8:	0100                	addi	s0,sp,128
     4ca:	0305                	addi	t1,t1,1
     4cc:	0306                	slli	t1,t1,0x1
     4ce:	0956                	slli	s2,s2,0x15
     4d0:	000c                	.2byte	0xc
     4d2:	0501                	addi	a0,a0,0
     4d4:	0606                	slli	a2,a2,0x1
     4d6:	00090003          	lb	zero,0(s2)
     4da:	0100                	addi	s0,sp,128
     4dc:	0a05                	addi	s4,s4,1
     4de:	02090003          	lb	zero,32(s2)
     4e2:	0100                	addi	s0,sp,128
     4e4:	1505                	addi	a0,a0,-31
     4e6:	06090003          	lb	zero,96(s2)
     4ea:	0100                	addi	s0,sp,128
     4ec:	0505                	addi	a0,a0,1
     4ee:	0306                	slli	t1,t1,0x1
     4f0:	0902                	c.slli64	s2
     4f2:	0004                	.2byte	0x4
     4f4:	0301                	addi	t1,t1,0
     4f6:	0901                	addi	s2,s2,0
     4f8:	0000                	unimp
     4fa:	0501                	addi	a0,a0,0
     4fc:	0609                	addi	a2,a2,2
     4fe:	00090003          	lb	zero,0(s2)
     502:	0100                	addi	s0,sp,128
     504:	0305                	addi	t1,t1,1
     506:	0306                	slli	t1,t1,0x1
     508:	00040903          	lb	s2,0(s0)
     50c:	0301                	addi	t1,t1,0
     50e:	0901                	addi	s2,s2,0
     510:	0000                	unimp
     512:	0501                	addi	a0,a0,0
     514:	0606                	slli	a2,a2,0x1
     516:	00090003          	lb	zero,0(s2)
     51a:	0100                	addi	s0,sp,128
     51c:	0305                	addi	t1,t1,1
     51e:	0306                	slli	t1,t1,0x1
     520:	00040903          	lb	s2,0(s0)
     524:	0501                	addi	a0,a0,0
     526:	0605                	addi	a2,a2,1
     528:	00090003          	lb	zero,0(s2)
     52c:	0100                	addi	s0,sp,128
     52e:	1305                	addi	t1,t1,-31
     530:	097fb503          	.4byte	0x97fb503
     534:	000a                	c.slli	zero,0x2
     536:	0501                	addi	a0,a0,0
     538:	0316                	slli	t1,t1,0x5
     53a:	0901                	addi	s2,s2,0
     53c:	0004                	.2byte	0x4
     53e:	0501                	addi	a0,a0,0
     540:	097f0313          	addi	t1,t5,151
     544:	0008                	.2byte	0x8
     546:	0501                	addi	a0,a0,0
     548:	030d                	addi	t1,t1,3
     54a:	0975                	addi	s2,s2,29
     54c:	0004                	.2byte	0x4
     54e:	0501                	addi	a0,a0,0
     550:	e4030607          	.4byte	0xe4030607
     554:	0900                	addi	s0,sp,144
     556:	0002                	c.slli64	zero
     558:	0501                	addi	a0,a0,0
     55a:	7fa70303          	lb	t1,2042(a4)
     55e:	0009                	c.nop	2
     560:	0100                	addi	s0,sp,128
     562:	1305                	addi	t1,t1,-31
     564:	0306                	slli	t1,t1,0x1
     566:	0900                	addi	s0,sp,144
     568:	0000                	unimp
     56a:	0501                	addi	a0,a0,0
     56c:	031c                	addi	a5,sp,384
     56e:	0900                	addi	s0,sp,144
     570:	0004                	.2byte	0x4
     572:	0501                	addi	a0,a0,0
     574:	01030603          	lb	a2,16(t1)
     578:	0409                	addi	s0,s0,2
     57a:	0100                	addi	s0,sp,128
     57c:	2705                	jal	c9c <_min_stack-0x1364>
     57e:	0306                	slli	t1,t1,0x1
     580:	097f                	.2byte	0x97f
     582:	0000                	unimp
     584:	0501                	addi	a0,a0,0
     586:	030c                	addi	a1,sp,384
     588:	00d9                	addi	ra,ra,22
     58a:	0409                	addi	s0,s0,2
     58c:	0100                	addi	s0,sp,128
     58e:	1705                	addi	a4,a4,-31
     590:	097fa703          	lw	a4,151(t6) # 4097 <_min_stack+0x2097>
     594:	0002                	c.slli64	zero
     596:	0501                	addi	a0,a0,0
     598:	0322                	slli	t1,t1,0x8
     59a:	0900                	addi	s0,sp,144
     59c:	0002                	c.slli64	zero
     59e:	0501                	addi	a0,a0,0
     5a0:	0305                	addi	t1,t1,1
     5a2:	0900                	addi	s0,sp,144
     5a4:	0002                	c.slli64	zero
     5a6:	0501                	addi	a0,a0,0
     5a8:	0316                	slli	t1,t1,0x5
     5aa:	0901                	addi	s2,s2,0
     5ac:	0002                	c.slli64	zero
     5ae:	0501                	addi	a0,a0,0
     5b0:	0318                	addi	a4,sp,384
     5b2:	00d8                	addi	a4,sp,68
     5b4:	0209                	addi	tp,tp,2 # 2 <_min_stack-0x1ffe>
     5b6:	0100                	addi	s0,sp,128
     5b8:	0c05                	addi	s8,s8,1
     5ba:	08090003          	lb	zero,128(s2)
     5be:	0100                	addi	s0,sp,128
     5c0:	0705                	addi	a4,a4,1
     5c2:	0306                	slli	t1,t1,0x1
     5c4:	0901                	addi	s2,s2,0
     5c6:	0004                	.2byte	0x4
     5c8:	0501                	addi	a0,a0,0
     5ca:	7f940303          	lb	t1,2041(s0)
     5ce:	0009                	c.nop	2
     5d0:	0100                	addi	s0,sp,128
     5d2:	00090203          	lb	tp,0(s2)
     5d6:	0100                	addi	s0,sp,128
     5d8:	1505                	addi	a0,a0,-31
     5da:	0306                	slli	t1,t1,0x1
     5dc:	0900                	addi	s0,sp,144
     5de:	0000                	unimp
     5e0:	0501                	addi	a0,a0,0
     5e2:	0305                	addi	t1,t1,1
     5e4:	0900                	addi	s0,sp,144
     5e6:	0004                	.2byte	0x4
     5e8:	0501                	addi	a0,a0,0
     5ea:	01030603          	lb	a2,16(t1)
     5ee:	0209                	addi	tp,tp,2 # 2 <_min_stack-0x1ffe>
     5f0:	0100                	addi	s0,sp,128
     5f2:	0e05                	addi	t3,t3,1
     5f4:	0306                	slli	t1,t1,0x1
     5f6:	0900                	addi	s0,sp,144
     5f8:	0000                	unimp
     5fa:	0501                	addi	a0,a0,0
     5fc:	0305                	addi	t1,t1,1
     5fe:	0900                	addi	s0,sp,144
     600:	0004                	.2byte	0x4
     602:	0501                	addi	a0,a0,0
     604:	01030603          	lb	a2,16(t1)
     608:	0209                	addi	tp,tp,2 # 2 <_min_stack-0x1ffe>
     60a:	0100                	addi	s0,sp,128
     60c:	0e05                	addi	t3,t3,1
     60e:	0306                	slli	t1,t1,0x1
     610:	0900                	addi	s0,sp,144
     612:	0000                	unimp
     614:	0501                	addi	a0,a0,0
     616:	0305                	addi	t1,t1,1
     618:	0900                	addi	s0,sp,144
     61a:	0004                	.2byte	0x4
     61c:	0501                	addi	a0,a0,0
     61e:	01030603          	lb	a2,16(t1)
     622:	0209                	addi	tp,tp,2 # 2 <_min_stack-0x1ffe>
     624:	0100                	addi	s0,sp,128
     626:	0e05                	addi	t3,t3,1
     628:	0306                	slli	t1,t1,0x1
     62a:	0900                	addi	s0,sp,144
     62c:	0000                	unimp
     62e:	0501                	addi	a0,a0,0
     630:	0305                	addi	t1,t1,1
     632:	0900                	addi	s0,sp,144
     634:	0004                	.2byte	0x4
     636:	0501                	addi	a0,a0,0
     638:	01030603          	lb	a2,16(t1)
     63c:	0209                	addi	tp,tp,2 # 2 <_min_stack-0x1ffe>
     63e:	0100                	addi	s0,sp,128
     640:	0505                	addi	a0,a0,1
     642:	0306                	slli	t1,t1,0x1
     644:	0900                	addi	s0,sp,144
     646:	0000                	unimp
     648:	0501                	addi	a0,a0,0
     64a:	01030603          	lb	a2,16(t1)
     64e:	0209                	addi	tp,tp,2 # 2 <_min_stack-0x1ffe>
     650:	0100                	addi	s0,sp,128
     652:	00090203          	lb	tp,0(s2)
     656:	0100                	addi	s0,sp,128
     658:	0d05                	addi	s10,s10,1
     65a:	0306                	slli	t1,t1,0x1
     65c:	097e                	slli	s2,s2,0x1f
     65e:	0000                	unimp
     660:	0501                	addi	a0,a0,0
     662:	0312                	slli	t1,t1,0x4
     664:	0902                	c.slli64	s2
     666:	0004                	.2byte	0x4
     668:	0501                	addi	a0,a0,0
     66a:	09000317          	auipc	t1,0x9000
     66e:	0006                	c.slli	zero,0x1
     670:	0501                	addi	a0,a0,0
     672:	030c                	addi	a1,sp,384
     674:	0900                	addi	s0,sp,144
     676:	0004                	.2byte	0x4
     678:	0601                	addi	a2,a2,0
     67a:	0900e103          	.4byte	0x900e103
     67e:	0002                	c.slli64	zero
     680:	0501                	addi	a0,a0,0
     682:	0610                	addi	a2,sp,768
     684:	06095f03          	lhu	t5,96(s2)
     688:	0100                	addi	s0,sp,128
     68a:	0a05                	addi	s4,s4,1
     68c:	04091903          	lh	s2,64(s2)
     690:	0100                	addi	s0,sp,128
     692:	1c05                	addi	s8,s8,-31
     694:	02090103          	lb	sp,32(s2)
     698:	0100                	addi	s0,sp,128
     69a:	0705                	addi	a4,a4,1
     69c:	0306                	slli	t1,t1,0x1
     69e:	097d                	addi	s2,s2,31
     6a0:	0004                	.2byte	0x4
     6a2:	0501                	addi	a0,a0,0
     6a4:	0003060b          	.4byte	0x3060b
     6a8:	0009                	c.nop	2
     6aa:	0100                	addi	s0,sp,128
     6ac:	0705                	addi	a4,a4,1
     6ae:	0306                	slli	t1,t1,0x1
     6b0:	0902                	c.slli64	s2
     6b2:	0004                	.2byte	0x4
     6b4:	0501                	addi	a0,a0,0
     6b6:	060a                	slli	a2,a2,0x2
     6b8:	00090003          	lb	zero,0(s2)
     6bc:	0100                	addi	s0,sp,128
     6be:	0905                	addi	s2,s2,1
     6c0:	0306                	slli	t1,t1,0x1
     6c2:	0901                	addi	s2,s2,0
     6c4:	0004                	.2byte	0x4
     6c6:	0501                	addi	a0,a0,0
     6c8:	0003060b          	.4byte	0x3060b
     6cc:	0009                	c.nop	2
     6ce:	0100                	addi	s0,sp,128
     6d0:	0705                	addi	a4,a4,1
     6d2:	0306                	slli	t1,t1,0x1
     6d4:	0902                	c.slli64	s2
     6d6:	0002                	c.slli64	zero
     6d8:	0501                	addi	a0,a0,0
     6da:	060c                	addi	a1,sp,768
     6dc:	00090003          	lb	zero,0(s2)
     6e0:	0100                	addi	s0,sp,128
     6e2:	1005                	c.nop	-31
     6e4:	02090003          	lb	zero,32(s2)
     6e8:	0100                	addi	s0,sp,128
     6ea:	0c05                	addi	s8,s8,1
     6ec:	04090003          	lb	zero,64(s2)
     6f0:	0100                	addi	s0,sp,128
     6f2:	0705                	addi	a4,a4,1
     6f4:	0306                	slli	t1,t1,0x1
     6f6:	0901                	addi	s2,s2,0
     6f8:	0004                	.2byte	0x4
     6fa:	0501                	addi	a0,a0,0
     6fc:	0609                	addi	a2,a2,2
     6fe:	00090003          	lb	zero,0(s2)
     702:	0100                	addi	s0,sp,128
     704:	0c05                	addi	s8,s8,1
     706:	0306                	slli	t1,t1,0x1
     708:	0979                	addi	s2,s2,30
     70a:	0004                	.2byte	0x4
     70c:	0501                	addi	a0,a0,0
     70e:	09110303          	lb	t1,145(sp)
     712:	0004                	.2byte	0x4
     714:	0501                	addi	a0,a0,0
     716:	0606                	slli	a2,a2,0x1
     718:	00090003          	lb	zero,0(s2)
     71c:	0100                	addi	s0,sp,128
     71e:	0505                	addi	a0,a0,1
     720:	0306                	slli	t1,t1,0x1
     722:	0901                	addi	s2,s2,0
     724:	0002                	c.slli64	zero
     726:	0501                	addi	a0,a0,0
     728:	00030607          	.4byte	0x30607
     72c:	0009                	c.nop	2
     72e:	0100                	addi	s0,sp,128
     730:	1705                	addi	a4,a4,-31
     732:	02090003          	lb	zero,32(s2)
     736:	0100                	addi	s0,sp,128
     738:	0f05                	addi	t5,t5,1
     73a:	04090003          	lb	zero,64(s2)
     73e:	0100                	addi	s0,sp,128
     740:	0305                	addi	t1,t1,1 # 900066b <tohost+0x8fe0663>
     742:	097fa703          	lw	a4,151(t6)
     746:	0002                	c.slli64	zero
     748:	0501                	addi	a0,a0,0
     74a:	db030607          	.4byte	0xdb030607
     74e:	0900                	addi	s0,sp,144
     750:	0008                	.2byte	0x8
     752:	0501                	addi	a0,a0,0
     754:	7fab0303          	lb	t1,2042(s6)
     758:	0009                	c.nop	2
     75a:	0100                	addi	s0,sp,128
     75c:	0505                	addi	a0,a0,1
     75e:	00090603          	lb	a2,0(s2)
     762:	0100                	addi	s0,sp,128
     764:	0305                	addi	t1,t1,1
     766:	00097403          	.4byte	0x97403
     76a:	0100                	addi	s0,sp,128
     76c:	02090103          	lb	sp,32(s2)
     770:	0100                	addi	s0,sp,128
     772:	0705                	addi	a4,a4,1
     774:	0900db03          	lhu	s6,144(ra)
     778:	0000                	unimp
     77a:	0301                	addi	t1,t1,0
     77c:	0901                	addi	s2,s2,0
     77e:	0000                	unimp
     780:	0501                	addi	a0,a0,0
     782:	09070303          	lb	t1,144(a4)
     786:	0006                	c.slli	zero,0x1
     788:	0501                	addi	a0,a0,0
     78a:	0003060f          	.4byte	0x3060f
     78e:	0009                	c.nop	2
     790:	0100                	addi	s0,sp,128
     792:	0d05                	addi	s10,s10,1
     794:	04090003          	lb	zero,64(s2)
     798:	0100                	addi	s0,sp,128
     79a:	0705                	addi	a4,a4,1
     79c:	0306                	slli	t1,t1,0x1
     79e:	097d                	addi	s2,s2,31
     7a0:	0004                	.2byte	0x4
     7a2:	0501                	addi	a0,a0,0
     7a4:	060c                	addi	a1,sp,768
     7a6:	00090003          	lb	zero,0(s2)
     7aa:	0100                	addi	s0,sp,128
     7ac:	1905                	addi	s2,s2,-31
     7ae:	08095003          	lhu	zero,128(s2)
     7b2:	0100                	addi	s0,sp,128
     7b4:	0c05                	addi	s8,s8,1
     7b6:	02093003          	.4byte	0x2093003
     7ba:	0100                	addi	s0,sp,128
     7bc:	1e05                	addi	t3,t3,-31
     7be:	0306                	slli	t1,t1,0x1
     7c0:	7ee8                	.2byte	0x7ee8
     7c2:	0409                	addi	s0,s0,2
     7c4:	0100                	addi	s0,sp,128
     7c6:	0305                	addi	t1,t1,1
     7c8:	00090203          	lb	tp,0(s2)
     7cc:	0100                	addi	s0,sp,128
     7ce:	0b05                	addi	s6,s6,1
     7d0:	0306                	slli	t1,t1,0x1
     7d2:	0900                	addi	s0,sp,144
     7d4:	0000                	unimp
     7d6:	0501                	addi	a0,a0,0
     7d8:	0402003b          	.4byte	0x402003b
     7dc:	0601                	addi	a2,a2,0
     7de:	04090003          	lb	zero,64(s2)
     7e2:	0100                	addi	s0,sp,128
     7e4:	0b05                	addi	s6,s6,1
     7e6:	0200                	addi	s0,sp,256
     7e8:	0104                	addi	s1,sp,128
     7ea:	0306                	slli	t1,t1,0x1
     7ec:	0900                	addi	s0,sp,144
     7ee:	0000                	unimp
     7f0:	0501                	addi	a0,a0,0
     7f2:	04020033          	.4byte	0x4020033
     7f6:	0301                	addi	t1,t1,0
     7f8:	0900                	addi	s0,sp,144
     7fa:	0002                	c.slli64	zero
     7fc:	0501                	addi	a0,a0,0
     7fe:	0402003b          	.4byte	0x402003b
     802:	0301                	addi	t1,t1,0
     804:	0900                	addi	s0,sp,144
     806:	0004                	.2byte	0x4
     808:	0501                	addi	a0,a0,0
     80a:	0301                	addi	t1,t1,0
     80c:	0901                	addi	s2,s2,0
     80e:	0002                	c.slli64	zero
     810:	0601                	addi	a2,a2,0
     812:	02093303          	.4byte	0x2093303
     816:	0100                	addi	s0,sp,128
     818:	0305                	addi	t1,t1,1
     81a:	00090103          	lb	sp,0(s2)
     81e:	0100                	addi	s0,sp,128
     820:	0105                	addi	sp,sp,1
     822:	0306                	slli	t1,t1,0x1
     824:	097f                	.2byte	0x97f
     826:	0000                	unimp
     828:	0501                	addi	a0,a0,0
     82a:	09010303          	lb	t1,144(sp)
     82e:	0006                	c.slli	zero,0x1
     830:	0501                	addi	a0,a0,0
     832:	0301                	addi	t1,t1,0
     834:	097f                	.2byte	0x97f
     836:	0004                	.2byte	0x4
     838:	0501                	addi	a0,a0,0
     83a:	09010303          	lb	t1,144(sp)
     83e:	0002                	c.slli64	zero
     840:	0601                	addi	a2,a2,0
     842:	02090103          	lb	sp,32(s2)
     846:	0100                	addi	s0,sp,128
     848:	0105                	addi	sp,sp,1
     84a:	0306                	slli	t1,t1,0x1
     84c:	0901                	addi	s2,s2,0
     84e:	0000                	unimp
     850:	0601                	addi	a2,a2,0
     852:	0901aa03          	lw	s4,144(gp)
     856:	000a                	c.slli	zero,0x2
     858:	0501                	addi	a0,a0,0
     85a:	09010303          	lb	t1,144(sp)
     85e:	0000                	unimp
     860:	0301                	addi	t1,t1,0
     862:	0901                	addi	s2,s2,0
     864:	0000                	unimp
     866:	0301                	addi	t1,t1,0
     868:	0902                	c.slli64	s2
     86a:	0000                	unimp
     86c:	0501                	addi	a0,a0,0
     86e:	0601                	addi	a2,a2,0
     870:	00097c03          	.4byte	0x97c03
     874:	0100                	addi	s0,sp,128
     876:	0305                	addi	t1,t1,1
     878:	04090403          	lb	s0,64(s2)
     87c:	0100                	addi	s0,sp,128
     87e:	0105                	addi	sp,sp,1
     880:	02097c03          	.4byte	0x2097c03
     884:	0100                	addi	s0,sp,128
     886:	12090003          	lb	zero,288(s2)
     88a:	0100                	addi	s0,sp,128
     88c:	0305                	addi	t1,t1,1
     88e:	10090403          	lb	s0,256(s2)
     892:	0100                	addi	s0,sp,128
     894:	0306                	slli	t1,t1,0x1
     896:	0902                	c.slli64	s2
     898:	0002                	c.slli64	zero
     89a:	0501                	addi	a0,a0,0
     89c:	0610                	addi	a2,sp,768
     89e:	097fb803          	.4byte	0x97fb803
     8a2:	0000                	unimp
     8a4:	0501                	addi	a0,a0,0
     8a6:	0308                	addi	a0,sp,384
     8a8:	0905                	addi	s2,s2,1
     8aa:	0002                	c.slli64	zero
     8ac:	0501                	addi	a0,a0,0
     8ae:	030a                	slli	t1,t1,0x2
     8b0:	0906                	slli	s2,s2,0x1
     8b2:	0004                	.2byte	0x4
     8b4:	0501                	addi	a0,a0,0
     8b6:	0316                	slli	t1,t1,0x5
     8b8:	0905                	addi	s2,s2,1
     8ba:	0004                	.2byte	0x4
     8bc:	0501                	addi	a0,a0,0
     8be:	0906030f          	.4byte	0x906030f
     8c2:	0004                	.2byte	0x4
     8c4:	0301                	addi	t1,t1,0
     8c6:	0905                	addi	s2,s2,1
     8c8:	0002                	c.slli64	zero
     8ca:	0501                	addi	a0,a0,0
     8cc:	0612                	slli	a2,a2,0x4
     8ce:	08096803          	.4byte	0x8096803
     8d2:	0100                	addi	s0,sp,128
     8d4:	0a05                	addi	s4,s4,1
     8d6:	0306                	slli	t1,t1,0x1
     8d8:	0900                	addi	s0,sp,144
     8da:	0000                	unimp
     8dc:	0501                	addi	a0,a0,0
     8de:	0312                	slli	t1,t1,0x4
     8e0:	0900                	addi	s0,sp,144
     8e2:	0004                	.2byte	0x4
     8e4:	0501                	addi	a0,a0,0
     8e6:	0301                	addi	t1,t1,0
     8e8:	020900cb          	.4byte	0x20900cb
     8ec:	0100                	addi	s0,sp,128
     8ee:	0505                	addi	a0,a0,1
     8f0:	0306                	slli	t1,t1,0x1
     8f2:	1a097fb7          	lui	t6,0x1a097
     8f6:	0100                	addi	s0,sp,128
     8f8:	0805                	addi	a6,a6,1
     8fa:	0306                	slli	t1,t1,0x1
     8fc:	0900                	addi	s0,sp,144
     8fe:	0000                	unimp
     900:	0501                	addi	a0,a0,0
     902:	02030607          	.4byte	0x2030607
     906:	0409                	addi	s0,s0,2
     908:	0100                	addi	s0,sp,128
     90a:	00090103          	lb	sp,0(s2)
     90e:	0100                	addi	s0,sp,128
     910:	00090103          	lb	sp,0(s2)
     914:	0100                	addi	s0,sp,128
     916:	0b05                	addi	s6,s6,1
     918:	0306                	slli	t1,t1,0x1
     91a:	0900                	addi	s0,sp,144
     91c:	0000                	unimp
     91e:	0501                	addi	a0,a0,0
     920:	030a                	slli	t1,t1,0x2
     922:	0900                	addi	s0,sp,144
     924:	0004                	.2byte	0x4
     926:	0501                	addi	a0,a0,0
     928:	097e0307          	.4byte	0x97e0307
     92c:	0002                	c.slli64	zero
     92e:	0601                	addi	a2,a2,0
     930:	04090303          	lb	t1,64(s2)
     934:	0100                	addi	s0,sp,128
     936:	0a05                	addi	s4,s4,1
     938:	0306                	slli	t1,t1,0x1
     93a:	0900                	addi	s0,sp,144
     93c:	0000                	unimp
     93e:	0501                	addi	a0,a0,0
     940:	01030607          	.4byte	0x1030607
     944:	0409                	addi	s0,s0,2
     946:	0100                	addi	s0,sp,128
     948:	1305                	addi	t1,t1,-31
     94a:	0306                	slli	t1,t1,0x1
     94c:	097d                	addi	s2,s2,31
     94e:	0000                	unimp
     950:	0501                	addi	a0,a0,0
     952:	030a                	slli	t1,t1,0x2
     954:	00020903          	lb	s2,0(tp) # 0 <_min_stack-0x2000>
     958:	0501                	addi	a0,a0,0
     95a:	0609                	addi	a2,a2,2
     95c:	04090203          	lb	tp,64(s2)
     960:	0100                	addi	s0,sp,128
     962:	04090103          	lb	sp,64(s2)
     966:	0100                	addi	s0,sp,128
     968:	0d05                	addi	s10,s10,1
     96a:	0306                	slli	t1,t1,0x1
     96c:	0900                	addi	s0,sp,144
     96e:	0000                	unimp
     970:	0501                	addi	a0,a0,0
     972:	0616                	slli	a2,a2,0x5
     974:	04090203          	lb	tp,64(s2)
     978:	0100                	addi	s0,sp,128
     97a:	0905                	addi	s2,s2,1
     97c:	0306                	slli	t1,t1,0x1
     97e:	0902                	c.slli64	s2
     980:	0004                	.2byte	0x4
     982:	0501                	addi	a0,a0,0
     984:	0316                	slli	t1,t1,0x5
     986:	097e                	slli	s2,s2,0x1f
     988:	0004                	.2byte	0x4
     98a:	0501                	addi	a0,a0,0
     98c:	030d                	addi	t1,t1,3
     98e:	0978                	addi	a4,sp,156
     990:	0004                	.2byte	0x4
     992:	0501                	addi	a0,a0,0
     994:	031e                	slli	t1,t1,0x7
     996:	090d                	addi	s2,s2,3
     998:	0002                	c.slli64	zero
     99a:	0601                	addi	a2,a2,0
     99c:	02090003          	lb	zero,32(s2)
     9a0:	0100                	addi	s0,sp,128
     9a2:	0f05                	addi	t5,t5,1
     9a4:	0306                	slli	t1,t1,0x1
     9a6:	0900                	addi	s0,sp,144
     9a8:	0000                	unimp
     9aa:	0501                	addi	a0,a0,0
     9ac:	0331                	addi	t1,t1,12
     9ae:	0900                	addi	s0,sp,144
     9b0:	0004                	.2byte	0x4
     9b2:	0501                	addi	a0,a0,0
     9b4:	031e                	slli	t1,t1,0x7
     9b6:	0900                	addi	s0,sp,144
     9b8:	0004                	.2byte	0x4
     9ba:	0501                	addi	a0,a0,0
     9bc:	04030607          	.4byte	0x4030607
     9c0:	0c09                	addi	s8,s8,2
     9c2:	0100                	addi	s0,sp,128
     9c4:	0905                	addi	s2,s2,1
     9c6:	0306                	slli	t1,t1,0x1
     9c8:	0900                	addi	s0,sp,144
     9ca:	0000                	unimp
     9cc:	0601                	addi	a2,a2,0
     9ce:	08090103          	lb	sp,128(s2)
     9d2:	0100                	addi	s0,sp,128
     9d4:	1805                	addi	a6,a6,-31
     9d6:	0306                	slli	t1,t1,0x1
     9d8:	0900                	addi	s0,sp,144
     9da:	0000                	unimp
     9dc:	0501                	addi	a0,a0,0
     9de:	0609                	addi	a2,a2,2
     9e0:	06090103          	lb	sp,96(s2)
     9e4:	0100                	addi	s0,sp,128
     9e6:	0f05                	addi	t5,t5,1
     9e8:	0306                	slli	t1,t1,0x1
     9ea:	0900                	addi	s0,sp,144
     9ec:	0000                	unimp
     9ee:	0301                	addi	t1,t1,0
     9f0:	0916                	slli	s2,s2,0x5
     9f2:	0008                	.2byte	0x8
     9f4:	0501                	addi	a0,a0,0
     9f6:	0609                	addi	a2,a2,2
     9f8:	04096103          	.4byte	0x4096103
     9fc:	0100                	addi	s0,sp,128
     9fe:	00090103          	lb	sp,0(s2)
     a02:	0100                	addi	s0,sp,128
     a04:	0d05                	addi	s10,s10,1
     a06:	0306                	slli	t1,t1,0x1
     a08:	0900                	addi	s0,sp,144
     a0a:	0000                	unimp
     a0c:	0501                	addi	a0,a0,0
     a0e:	0309                	addi	t1,t1,2
     a10:	097f                	.2byte	0x97f
     a12:	0004                	.2byte	0x4
     a14:	0601                	addi	a2,a2,0
     a16:	04090403          	lb	s0,64(s2)
     a1a:	0100                	addi	s0,sp,128
     a1c:	0f05                	addi	t5,t5,1
     a1e:	0306                	slli	t1,t1,0x1
     a20:	0900                	addi	s0,sp,144
     a22:	0000                	unimp
     a24:	0501                	addi	a0,a0,0
     a26:	0609                	addi	a2,a2,2
     a28:	04090103          	lb	sp,64(s2)
     a2c:	0100                	addi	s0,sp,128
     a2e:	3105                	jal	64e <_min_stack-0x19b2>
     a30:	0306                	slli	t1,t1,0x1
     a32:	097e                	slli	s2,s2,0x1f
     a34:	0000                	unimp
     a36:	0501                	addi	a0,a0,0
     a38:	0902030f          	.4byte	0x902030f
     a3c:	0002                	c.slli64	zero
     a3e:	0501                	addi	a0,a0,0
     a40:	0631                	addi	a2,a2,12
     a42:	02097e03          	.4byte	0x2097e03
     a46:	0100                	addi	s0,sp,128
     a48:	0705                	addi	a4,a4,1
     a4a:	02090903          	lb	s2,32(s2)
     a4e:	0100                	addi	s0,sp,128
     a50:	0905                	addi	s2,s2,1
     a52:	0306                	slli	t1,t1,0x1
     a54:	0900                	addi	s0,sp,144
     a56:	0000                	unimp
     a58:	0601                	addi	a2,a2,0
     a5a:	08090103          	lb	sp,128(s2)
     a5e:	0100                	addi	s0,sp,128
     a60:	0f05                	addi	t5,t5,1
     a62:	0306                	slli	t1,t1,0x1
     a64:	0900                	addi	s0,sp,144
     a66:	0000                	unimp
     a68:	0501                	addi	a0,a0,0
     a6a:	030c                	addi	a1,sp,384
     a6c:	0900                	addi	s0,sp,144
     a6e:	0010                	.2byte	0x10
     a70:	0501                	addi	a0,a0,0
     a72:	0609                	addi	a2,a2,2
     a74:	02090103          	lb	sp,32(s2)
     a78:	0100                	addi	s0,sp,128
     a7a:	0f05                	addi	t5,t5,1
     a7c:	0306                	slli	t1,t1,0x1
     a7e:	097f                	.2byte	0x97f
     a80:	0000                	unimp
     a82:	0501                	addi	a0,a0,0
     a84:	0618                	addi	a4,sp,768
     a86:	02096403          	.4byte	0x2096403
     a8a:	0100                	addi	s0,sp,128
     a8c:	0705                	addi	a4,a4,1
     a8e:	04091f03          	lh	t5,64(s2)
     a92:	0100                	addi	s0,sp,128
     a94:	0905                	addi	s2,s2,1
     a96:	0306                	slli	t1,t1,0x1
     a98:	0900                	addi	s0,sp,144
     a9a:	0000                	unimp
     a9c:	0601                	addi	a2,a2,0
     a9e:	08090103          	lb	sp,128(s2)
     aa2:	0100                	addi	s0,sp,128
     aa4:	1d05                	addi	s10,s10,-31
     aa6:	0306                	slli	t1,t1,0x1
     aa8:	0900                	addi	s0,sp,144
     aaa:	0000                	unimp
     aac:	0501                	addi	a0,a0,0
     aae:	0900030f          	.4byte	0x900030f
     ab2:	0004                	.2byte	0x4
     ab4:	0501                	addi	a0,a0,0
     ab6:	03030607          	.4byte	0x3030607
     aba:	0809                	addi	a6,a6,2
     abc:	0100                	addi	s0,sp,128
     abe:	0905                	addi	s2,s2,1
     ac0:	0306                	slli	t1,t1,0x1
     ac2:	0900                	addi	s0,sp,144
     ac4:	0000                	unimp
     ac6:	0601                	addi	a2,a2,0
     ac8:	08090103          	lb	sp,128(s2)
     acc:	0100                	addi	s0,sp,128
     ace:	1d05                	addi	s10,s10,-31
     ad0:	0306                	slli	t1,t1,0x1
     ad2:	0900                	addi	s0,sp,144
     ad4:	0000                	unimp
     ad6:	0501                	addi	a0,a0,0
     ad8:	0900030f          	.4byte	0x900030f
     adc:	0004                	.2byte	0x4
     ade:	0301                	addi	t1,t1,0
     ae0:	0904                	addi	s1,sp,144
     ae2:	0004                	.2byte	0x4
     ae4:	0501                	addi	a0,a0,0
     ae6:	7f030607          	.4byte	0x7f030607
     aea:	0609                	addi	a2,a2,2
     aec:	0100                	addi	s0,sp,128
     aee:	0905                	addi	s2,s2,1
     af0:	0306                	slli	t1,t1,0x1
     af2:	0900                	addi	s0,sp,144
     af4:	0000                	unimp
     af6:	0601                	addi	a2,a2,0
     af8:	08090103          	lb	sp,128(s2)
     afc:	0100                	addi	s0,sp,128
     afe:	1d05                	addi	s10,s10,-31
     b00:	0306                	slli	t1,t1,0x1
     b02:	0900                	addi	s0,sp,144
     b04:	0000                	unimp
     b06:	0501                	addi	a0,a0,0
     b08:	0900030f          	.4byte	0x900030f
     b0c:	0004                	.2byte	0x4
     b0e:	0501                	addi	a0,a0,0
     b10:	03030607          	.4byte	0x3030607
     b14:	0609                	addi	a2,a2,2
     b16:	0100                	addi	s0,sp,128
     b18:	0905                	addi	s2,s2,1
     b1a:	0306                	slli	t1,t1,0x1
     b1c:	0900                	addi	s0,sp,144
     b1e:	0000                	unimp
     b20:	0601                	addi	a2,a2,0
     b22:	08090103          	lb	sp,128(s2)
     b26:	0100                	addi	s0,sp,128
     b28:	1005                	c.nop	-31
     b2a:	0306                	slli	t1,t1,0x1
     b2c:	0900                	addi	s0,sp,144
     b2e:	0000                	unimp
     b30:	0501                	addi	a0,a0,0
     b32:	0312                	slli	t1,t1,0x4
     b34:	0900                	addi	s0,sp,144
     b36:	0002                	c.slli64	zero
     b38:	0501                	addi	a0,a0,0
     b3a:	0310                	addi	a2,sp,384
     b3c:	0901                	addi	s2,s2,0
     b3e:	0004                	.2byte	0x4
     b40:	0301                	addi	t1,t1,0
     b42:	097f                	.2byte	0x97f
     b44:	0004                	.2byte	0x4
     b46:	0501                	addi	a0,a0,0
     b48:	0609                	addi	a2,a2,2
     b4a:	04090103          	lb	sp,64(s2)
     b4e:	0100                	addi	s0,sp,128
     b50:	00090103          	lb	sp,0(s2)
     b54:	0100                	addi	s0,sp,128
     b56:	0f05                	addi	t5,t5,1
     b58:	0306                	slli	t1,t1,0x1
     b5a:	0900                	addi	s0,sp,144
     b5c:	0000                	unimp
     b5e:	0501                	addi	a0,a0,0
     b60:	09560307          	.4byte	0x9560307
     b64:	0008                	.2byte	0x8
     b66:	0601                	addi	a2,a2,0
     b68:	02093103          	.4byte	0x2093103
     b6c:	0100                	addi	s0,sp,128
     b6e:	0305                	addi	t1,t1,1
     b70:	097ee403          	.4byte	0x97ee403
     b74:	0000                	unimp
     b76:	0501                	addi	a0,a0,0
     b78:	0305                	addi	t1,t1,1
     b7a:	0906                	slli	s2,s2,0x1
     b7c:	0000                	unimp
     b7e:	0501                	addi	a0,a0,0
     b80:	09740303          	lb	t1,151(s0)
     b84:	0000                	unimp
     b86:	0501                	addi	a0,a0,0
     b88:	a3030607          	.4byte	0xa3030607
     b8c:	0901                	addi	s2,s2,0
     b8e:	0004                	.2byte	0x4
     b90:	0501                	addi	a0,a0,0
     b92:	7edd0303          	lb	t1,2029(s10)
     b96:	0209                	addi	tp,tp,2 # 2 <_min_stack-0x1ffe>
     b98:	0100                	addi	s0,sp,128
     b9a:	0306                	slli	t1,t1,0x1
     b9c:	0901                	addi	s2,s2,0
     b9e:	0002                	c.slli64	zero
     ba0:	0501                	addi	a0,a0,0
     ba2:	01a20307          	.4byte	0x1a20307
     ba6:	0009                	c.nop	2
     ba8:	0100                	addi	s0,sp,128
     baa:	1f05                	addi	t5,t5,-31
     bac:	097dec03          	.4byte	0x97dec03
     bb0:	0002                	c.slli64	zero
     bb2:	0501                	addi	a0,a0,0
     bb4:	09010303          	lb	t1,144(sp)
     bb8:	0000                	unimp
     bba:	0501                	addi	a0,a0,0
     bbc:	0301                	addi	t1,t1,0
     bbe:	0a0902ab          	.4byte	0xa0902ab
     bc2:	0100                	addi	s0,sp,128
     bc4:	0305                	addi	t1,t1,1
     bc6:	00090103          	lb	sp,0(s2)
     bca:	0100                	addi	s0,sp,128
     bcc:	00090203          	lb	tp,0(s2)
     bd0:	0100                	addi	s0,sp,128
     bd2:	0105                	addi	sp,sp,1
     bd4:	0306                	slli	t1,t1,0x1
     bd6:	097d                	addi	s2,s2,31
     bd8:	0000                	unimp
     bda:	0301                	addi	t1,t1,0
     bdc:	0900                	addi	s0,sp,144
     bde:	0008                	.2byte	0x8
     be0:	0501                	addi	a0,a0,0
     be2:	09010307          	.4byte	0x9010307
     be6:	0002                	c.slli64	zero
     be8:	0501                	addi	a0,a0,0
     bea:	060e                	slli	a2,a2,0x3
     bec:	02090203          	lb	tp,32(s2)
     bf0:	0100                	addi	s0,sp,128
     bf2:	0a05                	addi	s4,s4,1
     bf4:	0306                	slli	t1,t1,0x1
     bf6:	0900                	addi	s0,sp,144
     bf8:	0000                	unimp
     bfa:	0501                	addi	a0,a0,0
     bfc:	030e                	slli	t1,t1,0x3
     bfe:	0900                	addi	s0,sp,144
     c00:	0008                	.2byte	0x8
     c02:	0501                	addi	a0,a0,0
     c04:	03030603          	lb	a2,48(t1)
     c08:	0209                	addi	tp,tp,2 # 2 <_min_stack-0x1ffe>
     c0a:	0100                	addi	s0,sp,128
     c0c:	097ebf03          	.4byte	0x97ebf03
     c10:	0000                	unimp
     c12:	0301                	addi	t1,t1,0
     c14:	0901                	addi	s2,s2,0
     c16:	0004                	.2byte	0x4
     c18:	0301                	addi	t1,t1,0
     c1a:	01c2                	slli	gp,gp,0x10
     c1c:	0009                	c.nop	2
     c1e:	0100                	addi	s0,sp,128
     c20:	0105                	addi	sp,sp,1
     c22:	0306                	slli	t1,t1,0x1
     c24:	0901                	addi	s2,s2,0
     c26:	0000                	unimp
     c28:	0501                	addi	a0,a0,0
     c2a:	0605                	addi	a2,a2,1
     c2c:	0c097b03          	.4byte	0xc097b03
     c30:	0100                	addi	s0,sp,128
     c32:	1005                	c.nop	-31
     c34:	0306                	slli	t1,t1,0x1
     c36:	0900                	addi	s0,sp,144
     c38:	0000                	unimp
     c3a:	0501                	addi	a0,a0,0
     c3c:	c1030603          	lb	a2,-1008(t1)
     c40:	097e                	slli	s2,s2,0x1f
     c42:	0002                	c.slli64	zero
     c44:	0301                	addi	t1,t1,0
     c46:	0901                	addi	s2,s2,0
     c48:	0002                	c.slli64	zero
     c4a:	0501                	addi	a0,a0,0
     c4c:	060a                	slli	a2,a2,0x2
     c4e:	00090003          	lb	zero,0(s2)
     c52:	0100                	addi	s0,sp,128
     c54:	2205                	jal	d74 <_min_stack-0x128c>
     c56:	0306                	slli	t1,t1,0x1
     c58:	01c5                	addi	gp,gp,17
     c5a:	0209                	addi	tp,tp,2 # 2 <_min_stack-0x1ffe>
     c5c:	0100                	addi	s0,sp,128
     c5e:	0305                	addi	t1,t1,1
     c60:	00090203          	lb	tp,0(s2)
     c64:	0100                	addi	s0,sp,128
     c66:	00090103          	lb	sp,0(s2)
     c6a:	0100                	addi	s0,sp,128
     c6c:	00090103          	lb	sp,0(s2)
     c70:	0100                	addi	s0,sp,128
     c72:	00090403          	lb	s0,0(s2)
     c76:	0100                	addi	s0,sp,128
     c78:	00090103          	lb	sp,0(s2)
     c7c:	0100                	addi	s0,sp,128
     c7e:	00090103          	lb	sp,0(s2)
     c82:	0100                	addi	s0,sp,128
     c84:	00090103          	lb	sp,0(s2)
     c88:	0100                	addi	s0,sp,128
     c8a:	00090103          	lb	sp,0(s2)
     c8e:	0100                	addi	s0,sp,128
     c90:	00090403          	lb	s0,0(s2)
     c94:	0100                	addi	s0,sp,128
     c96:	00090103          	lb	sp,0(s2)
     c9a:	0100                	addi	s0,sp,128
     c9c:	2205                	jal	dbc <_min_stack-0x1244>
     c9e:	0306                	slli	t1,t1,0x1
     ca0:	0000096f          	jal	s2,ca0 <_min_stack-0x1360>
     ca4:	0501                	addi	a0,a0,0
     ca6:	0309                	addi	t1,t1,2
     ca8:	0911                	addi	s2,s2,4
     caa:	0010                	.2byte	0x10
     cac:	0501                	addi	a0,a0,0
     cae:	0315                	addi	t1,t1,5
     cb0:	0900                	addi	s0,sp,144
     cb2:	0004                	.2byte	0x4
     cb4:	0001                	nop
     cb6:	0402                	c.slli64	s0
     cb8:	0601                	addi	a2,a2,0
     cba:	04090003          	lb	zero,64(s2)
     cbe:	0100                	addi	s0,sp,128
     cc0:	0905                	addi	s2,s2,1
     cc2:	0200                	addi	s0,sp,256
     cc4:	0104                	addi	s1,sp,128
     cc6:	0306                	slli	t1,t1,0x1
     cc8:	0900                	addi	s0,sp,144
     cca:	0000                	unimp
     ccc:	0501                	addi	a0,a0,0
     cce:	0015                	c.nop	5
     cd0:	0402                	c.slli64	s0
     cd2:	0301                	addi	t1,t1,0
     cd4:	0900                	addi	s0,sp,144
     cd6:	0006                	c.slli	zero,0x1
     cd8:	0501                	addi	a0,a0,0
     cda:	02030603          	lb	a2,32(t1)
     cde:	0409                	addi	s0,s0,2
     ce0:	0100                	addi	s0,sp,128
     ce2:	0205                	addi	tp,tp,1 # 1 <_min_stack-0x1fff>
     ce4:	00090103          	lb	sp,0(s2)
     ce8:	0100                	addi	s0,sp,128
     cea:	0905                	addi	s2,s2,1
     cec:	0306                	slli	t1,t1,0x1
     cee:	0900                	addi	s0,sp,144
     cf0:	0000                	unimp
     cf2:	0501                	addi	a0,a0,0
     cf4:	0602                	c.slli64	a2
     cf6:	08090203          	lb	tp,128(s2)
     cfa:	0100                	addi	s0,sp,128
     cfc:	0e05                	addi	t3,t3,1
     cfe:	0306                	slli	t1,t1,0x1
     d00:	0900                	addi	s0,sp,144
     d02:	0000                	unimp
     d04:	0501                	addi	a0,a0,0
     d06:	02030603          	lb	a2,32(t1)
     d0a:	0209                	addi	tp,tp,2 # 2 <_min_stack-0x1ffe>
     d0c:	0100                	addi	s0,sp,128
     d0e:	0505                	addi	a0,a0,1
     d10:	0306                	slli	t1,t1,0x1
     d12:	0900                	addi	s0,sp,144
     d14:	0000                	unimp
     d16:	0501                	addi	a0,a0,0
     d18:	01030603          	lb	a2,16(t1)
     d1c:	0209                	addi	tp,tp,2 # 2 <_min_stack-0x1ffe>
     d1e:	0100                	addi	s0,sp,128
     d20:	0505                	addi	a0,a0,1
     d22:	0306                	slli	t1,t1,0x1
     d24:	0906                	slli	s2,s2,0x1
     d26:	0000                	unimp
     d28:	0301                	addi	t1,t1,0
     d2a:	097a                	slli	s2,s2,0x1e
     d2c:	0004                	.2byte	0x4
     d2e:	0501                	addi	a0,a0,0
     d30:	01030603          	lb	a2,16(t1)
     d34:	0209                	addi	tp,tp,2 # 2 <_min_stack-0x1ffe>
     d36:	0100                	addi	s0,sp,128
     d38:	0505                	addi	a0,a0,1
     d3a:	0306                	slli	t1,t1,0x1
     d3c:	0900                	addi	s0,sp,144
     d3e:	0000                	unimp
     d40:	0501                	addi	a0,a0,0
     d42:	01030603          	lb	a2,16(t1)
     d46:	0209                	addi	tp,tp,2 # 2 <_min_stack-0x1ffe>
     d48:	0100                	addi	s0,sp,128
     d4a:	0505                	addi	a0,a0,1
     d4c:	0306                	slli	t1,t1,0x1
     d4e:	0900                	addi	s0,sp,144
     d50:	0000                	unimp
     d52:	0501                	addi	a0,a0,0
     d54:	01030603          	lb	a2,16(t1)
     d58:	0209                	addi	tp,tp,2 # 2 <_min_stack-0x1ffe>
     d5a:	0100                	addi	s0,sp,128
     d5c:	0505                	addi	a0,a0,1
     d5e:	0306                	slli	t1,t1,0x1
     d60:	0900                	addi	s0,sp,144
     d62:	0000                	unimp
     d64:	0501                	addi	a0,a0,0
     d66:	03030603          	lb	a2,48(t1)
     d6a:	0409                	addi	s0,s0,2
     d6c:	0100                	addi	s0,sp,128
     d6e:	0505                	addi	a0,a0,1
     d70:	0306                	slli	t1,t1,0x1
     d72:	0900                	addi	s0,sp,144
     d74:	0000                	unimp
     d76:	0501                	addi	a0,a0,0
     d78:	04020017          	auipc	zero,0x4020
     d7c:	0301                	addi	t1,t1,0
     d7e:	0900                	addi	s0,sp,144
     d80:	0008                	.2byte	0x8
     d82:	0501                	addi	a0,a0,0
     d84:	0402002b          	.4byte	0x402002b
     d88:	0302                	c.slli64	t1
     d8a:	0900                	addi	s0,sp,144
     d8c:	0004                	.2byte	0x4
     d8e:	0501                	addi	a0,a0,0
     d90:	003e                	c.slli	zero,0xf
     d92:	0402                	c.slli64	s0
     d94:	09000303          	lb	t1,144(zero) # 90 <_min_stack-0x1f70>
     d98:	0004                	.2byte	0x4
     d9a:	0501                	addi	a0,a0,0
     d9c:	0051                	c.nop	20
     d9e:	0402                	c.slli64	s0
     da0:	0304                	addi	s1,sp,384
     da2:	0900                	addi	s0,sp,144
     da4:	0004                	.2byte	0x4
     da6:	0501                	addi	a0,a0,0
     da8:	01030607          	.4byte	0x1030607
     dac:	0409                	addi	s0,s0,2
     dae:	0100                	addi	s0,sp,128
     db0:	0605                	addi	a2,a2,1
     db2:	00090103          	lb	sp,0(s2)
     db6:	0100                	addi	s0,sp,128
     db8:	0d05                	addi	s10,s10,1
     dba:	0306                	slli	t1,t1,0x1
     dbc:	0900                	addi	s0,sp,144
     dbe:	0000                	unimp
     dc0:	0501                	addi	a0,a0,0
     dc2:	03030603          	lb	a2,48(t1)
     dc6:	0409                	addi	s0,s0,2
     dc8:	0100                	addi	s0,sp,128
     dca:	0105                	addi	sp,sp,1
     dcc:	0306                	slli	t1,t1,0x1
     dce:	0901                	addi	s2,s2,0
     dd0:	0000                	unimp
     dd2:	0901                	addi	s2,s2,0
     dd4:	0014                	.2byte	0x14
     dd6:	0100                	addi	s0,sp,128
     dd8:	8b01                	andi	a4,a4,0
     dda:	003c                	addi	a5,sp,8
     ddc:	0500                	addi	s0,sp,640
     dde:	0400                	addi	s0,sp,512
     de0:	2f00                	.2byte	0x2f00
     de2:	0000                	unimp
     de4:	0100                	addi	s0,sp,128
     de6:	0101                	addi	sp,sp,0
     de8:	000d0efb          	.4byte	0xd0efb
     dec:	0101                	addi	sp,sp,0
     dee:	0101                	addi	sp,sp,0
     df0:	0000                	unimp
     df2:	0100                	addi	s0,sp,128
     df4:	0000                	unimp
     df6:	0101                	addi	sp,sp,0
     df8:	1f01                	addi	t5,t5,-32
     dfa:	0001                	nop
     dfc:	0000                	unimp
     dfe:	0200                	addi	s0,sp,256
     e00:	1f01                	addi	t5,t5,-32
     e02:	0f02                	c.slli64	t5
     e04:	00014403          	lbu	s0,0(sp)
     e08:	0000                	unimp
     e0a:	0151                	addi	sp,sp,20
     e0c:	0000                	unimp
     e0e:	4400                	lw	s0,8(s0)
     e10:	0001                	nop
     e12:	0000                	unimp
     e14:	1905                	addi	s2,s2,-31
     e16:	0500                	addi	s0,sp,640
     e18:	c202                	sw	zero,4(sp)
     e1a:	0004                	.2byte	0x4
     e1c:	1ae0                	addi	s0,sp,380
     e1e:	0305                	addi	t1,t1,1
     e20:	00091a03          	lh	s4,0(s2)
     e24:	0100                	addi	s0,sp,128
     e26:	2c05                	jal	1056 <_min_stack-0xfaa>
     e28:	0306                	slli	t1,t1,0x1
     e2a:	0900                	addi	s0,sp,144
     e2c:	0000                	unimp
     e2e:	0501                	addi	a0,a0,0
     e30:	01030603          	lb	a2,16(t1)
     e34:	0c09                	addi	s8,s8,2
     e36:	0100                	addi	s0,sp,128
     e38:	2c05                	jal	1068 <_min_stack-0xf98>
     e3a:	0306                	slli	t1,t1,0x1
     e3c:	0900                	addi	s0,sp,144
     e3e:	0000                	unimp
     e40:	0501                	addi	a0,a0,0
     e42:	01030603          	lb	a2,16(t1)
     e46:	0809                	addi	a6,a6,2
     e48:	0100                	addi	s0,sp,128
     e4a:	2c05                	jal	107a <_min_stack-0xf86>
     e4c:	0306                	slli	t1,t1,0x1
     e4e:	0900                	addi	s0,sp,144
     e50:	0000                	unimp
     e52:	0501                	addi	a0,a0,0
     e54:	01030603          	lb	a2,16(t1)
     e58:	0809                	addi	a6,a6,2
     e5a:	0100                	addi	s0,sp,128
     e5c:	2c05                	jal	108c <_min_stack-0xf74>
     e5e:	0306                	slli	t1,t1,0x1
     e60:	0900                	addi	s0,sp,144
     e62:	0000                	unimp
     e64:	0501                	addi	a0,a0,0
     e66:	01030603          	lb	a2,16(t1)
     e6a:	0609                	addi	a2,a2,2
     e6c:	0100                	addi	s0,sp,128
     e6e:	2c05                	jal	109e <_min_stack-0xf62>
     e70:	0306                	slli	t1,t1,0x1
     e72:	0900                	addi	s0,sp,144
     e74:	0000                	unimp
     e76:	0501                	addi	a0,a0,0
     e78:	01030603          	lb	a2,16(t1)
     e7c:	0609                	addi	a2,a2,2
     e7e:	0100                	addi	s0,sp,128
     e80:	2c05                	jal	10b0 <_min_stack-0xf50>
     e82:	0306                	slli	t1,t1,0x1
     e84:	0900                	addi	s0,sp,144
     e86:	0000                	unimp
     e88:	0501                	addi	a0,a0,0
     e8a:	01030603          	lb	a2,16(t1)
     e8e:	0809                	addi	a6,a6,2
     e90:	0100                	addi	s0,sp,128
     e92:	2c05                	jal	10c2 <_min_stack-0xf3e>
     e94:	0306                	slli	t1,t1,0x1
     e96:	0900                	addi	s0,sp,144
     e98:	0000                	unimp
     e9a:	0501                	addi	a0,a0,0
     e9c:	01030603          	lb	a2,16(t1)
     ea0:	0809                	addi	a6,a6,2
     ea2:	0100                	addi	s0,sp,128
     ea4:	2c05                	jal	10d4 <_min_stack-0xf2c>
     ea6:	0306                	slli	t1,t1,0x1
     ea8:	0900                	addi	s0,sp,144
     eaa:	0000                	unimp
     eac:	0501                	addi	a0,a0,0
     eae:	01030603          	lb	a2,16(t1)
     eb2:	0809                	addi	a6,a6,2
     eb4:	0100                	addi	s0,sp,128
     eb6:	2c05                	jal	10e6 <_min_stack-0xf1a>
     eb8:	0306                	slli	t1,t1,0x1
     eba:	0900                	addi	s0,sp,144
     ebc:	0000                	unimp
     ebe:	0501                	addi	a0,a0,0
     ec0:	01030603          	lb	a2,16(t1)
     ec4:	0809                	addi	a6,a6,2
     ec6:	0100                	addi	s0,sp,128
     ec8:	2c05                	jal	10f8 <_min_stack-0xf08>
     eca:	0306                	slli	t1,t1,0x1
     ecc:	0900                	addi	s0,sp,144
     ece:	0000                	unimp
     ed0:	0501                	addi	a0,a0,0
     ed2:	01030603          	lb	a2,16(t1)
     ed6:	0809                	addi	a6,a6,2
     ed8:	0100                	addi	s0,sp,128
     eda:	2c05                	jal	110a <_min_stack-0xef6>
     edc:	0306                	slli	t1,t1,0x1
     ede:	0900                	addi	s0,sp,144
     ee0:	0000                	unimp
     ee2:	0501                	addi	a0,a0,0
     ee4:	01030603          	lb	a2,16(t1)
     ee8:	0809                	addi	a6,a6,2
     eea:	0100                	addi	s0,sp,128
     eec:	2c05                	jal	111c <_min_stack-0xee4>
     eee:	0306                	slli	t1,t1,0x1
     ef0:	0900                	addi	s0,sp,144
     ef2:	0000                	unimp
     ef4:	0501                	addi	a0,a0,0
     ef6:	01030603          	lb	a2,16(t1)
     efa:	0809                	addi	a6,a6,2
     efc:	0100                	addi	s0,sp,128
     efe:	2c05                	jal	112e <_min_stack-0xed2>
     f00:	0306                	slli	t1,t1,0x1
     f02:	0900                	addi	s0,sp,144
     f04:	0000                	unimp
     f06:	0501                	addi	a0,a0,0
     f08:	01030603          	lb	a2,16(t1)
     f0c:	0809                	addi	a6,a6,2
     f0e:	0100                	addi	s0,sp,128
     f10:	2c05                	jal	1140 <_min_stack-0xec0>
     f12:	0306                	slli	t1,t1,0x1
     f14:	0900                	addi	s0,sp,144
     f16:	0000                	unimp
     f18:	0501                	addi	a0,a0,0
     f1a:	01030603          	lb	a2,16(t1)
     f1e:	0809                	addi	a6,a6,2
     f20:	0100                	addi	s0,sp,128
     f22:	2c05                	jal	1152 <_min_stack-0xeae>
     f24:	0306                	slli	t1,t1,0x1
     f26:	0900                	addi	s0,sp,144
     f28:	0000                	unimp
     f2a:	0501                	addi	a0,a0,0
     f2c:	01030603          	lb	a2,16(t1)
     f30:	0809                	addi	a6,a6,2
     f32:	0100                	addi	s0,sp,128
     f34:	2c05                	jal	1164 <_min_stack-0xe9c>
     f36:	0306                	slli	t1,t1,0x1
     f38:	0900                	addi	s0,sp,144
     f3a:	0000                	unimp
     f3c:	0501                	addi	a0,a0,0
     f3e:	01030603          	lb	a2,16(t1)
     f42:	0809                	addi	a6,a6,2
     f44:	0100                	addi	s0,sp,128
     f46:	2c05                	jal	1176 <_min_stack-0xe8a>
     f48:	0306                	slli	t1,t1,0x1
     f4a:	0900                	addi	s0,sp,144
     f4c:	0000                	unimp
     f4e:	0501                	addi	a0,a0,0
     f50:	01030603          	lb	a2,16(t1)
     f54:	0809                	addi	a6,a6,2
     f56:	0100                	addi	s0,sp,128
     f58:	2c05                	jal	1188 <_min_stack-0xe78>
     f5a:	0306                	slli	t1,t1,0x1
     f5c:	0900                	addi	s0,sp,144
     f5e:	0000                	unimp
     f60:	0501                	addi	a0,a0,0
     f62:	01030603          	lb	a2,16(t1)
     f66:	0809                	addi	a6,a6,2
     f68:	0100                	addi	s0,sp,128
     f6a:	2c05                	jal	119a <_min_stack-0xe66>
     f6c:	0306                	slli	t1,t1,0x1
     f6e:	0900                	addi	s0,sp,144
     f70:	0000                	unimp
     f72:	0501                	addi	a0,a0,0
     f74:	01030603          	lb	a2,16(t1)
     f78:	0809                	addi	a6,a6,2
     f7a:	0100                	addi	s0,sp,128
     f7c:	2c05                	jal	11ac <_min_stack-0xe54>
     f7e:	0306                	slli	t1,t1,0x1
     f80:	0900                	addi	s0,sp,144
     f82:	0000                	unimp
     f84:	0501                	addi	a0,a0,0
     f86:	01030603          	lb	a2,16(t1)
     f8a:	0809                	addi	a6,a6,2
     f8c:	0100                	addi	s0,sp,128
     f8e:	2c05                	jal	11be <_min_stack-0xe42>
     f90:	0306                	slli	t1,t1,0x1
     f92:	0900                	addi	s0,sp,144
     f94:	0000                	unimp
     f96:	0501                	addi	a0,a0,0
     f98:	01030603          	lb	a2,16(t1)
     f9c:	0809                	addi	a6,a6,2
     f9e:	0100                	addi	s0,sp,128
     fa0:	2c05                	jal	11d0 <_min_stack-0xe30>
     fa2:	0306                	slli	t1,t1,0x1
     fa4:	0900                	addi	s0,sp,144
     fa6:	0000                	unimp
     fa8:	0501                	addi	a0,a0,0
     faa:	01030603          	lb	a2,16(t1)
     fae:	0809                	addi	a6,a6,2
     fb0:	0100                	addi	s0,sp,128
     fb2:	2c05                	jal	11e2 <_min_stack-0xe1e>
     fb4:	0306                	slli	t1,t1,0x1
     fb6:	0900                	addi	s0,sp,144
     fb8:	0000                	unimp
     fba:	0501                	addi	a0,a0,0
     fbc:	01030603          	lb	a2,16(t1)
     fc0:	0809                	addi	a6,a6,2
     fc2:	0100                	addi	s0,sp,128
     fc4:	2c05                	jal	11f4 <_min_stack-0xe0c>
     fc6:	0306                	slli	t1,t1,0x1
     fc8:	0900                	addi	s0,sp,144
     fca:	0000                	unimp
     fcc:	0501                	addi	a0,a0,0
     fce:	01030603          	lb	a2,16(t1)
     fd2:	0809                	addi	a6,a6,2
     fd4:	0100                	addi	s0,sp,128
     fd6:	2c05                	jal	1206 <_min_stack-0xdfa>
     fd8:	0306                	slli	t1,t1,0x1
     fda:	0900                	addi	s0,sp,144
     fdc:	0000                	unimp
     fde:	0501                	addi	a0,a0,0
     fe0:	01030603          	lb	a2,16(t1)
     fe4:	0809                	addi	a6,a6,2
     fe6:	0100                	addi	s0,sp,128
     fe8:	2c05                	jal	1218 <_min_stack-0xde8>
     fea:	0306                	slli	t1,t1,0x1
     fec:	0900                	addi	s0,sp,144
     fee:	0000                	unimp
     ff0:	0501                	addi	a0,a0,0
     ff2:	01030603          	lb	a2,16(t1)
     ff6:	0809                	addi	a6,a6,2
     ff8:	0100                	addi	s0,sp,128
     ffa:	2c05                	jal	122a <_min_stack-0xdd6>
     ffc:	0306                	slli	t1,t1,0x1
     ffe:	0900                	addi	s0,sp,144
    1000:	0000                	unimp
    1002:	0501                	addi	a0,a0,0
    1004:	01030603          	lb	a2,16(t1)
    1008:	0809                	addi	a6,a6,2
    100a:	0100                	addi	s0,sp,128
    100c:	2c05                	jal	123c <_min_stack-0xdc4>
    100e:	0306                	slli	t1,t1,0x1
    1010:	0900                	addi	s0,sp,144
    1012:	0000                	unimp
    1014:	0501                	addi	a0,a0,0
    1016:	01030603          	lb	a2,16(t1)
    101a:	0809                	addi	a6,a6,2
    101c:	0100                	addi	s0,sp,128
    101e:	2c05                	jal	124e <_min_stack-0xdb2>
    1020:	0306                	slli	t1,t1,0x1
    1022:	0900                	addi	s0,sp,144
    1024:	0000                	unimp
    1026:	0501                	addi	a0,a0,0
    1028:	01030603          	lb	a2,16(t1)
    102c:	0809                	addi	a6,a6,2
    102e:	0100                	addi	s0,sp,128
    1030:	2c05                	jal	1260 <_min_stack-0xda0>
    1032:	0306                	slli	t1,t1,0x1
    1034:	0900                	addi	s0,sp,144
    1036:	0000                	unimp
    1038:	0501                	addi	a0,a0,0
    103a:	01030603          	lb	a2,16(t1)
    103e:	0809                	addi	a6,a6,2
    1040:	0100                	addi	s0,sp,128
    1042:	2c05                	jal	1272 <_min_stack-0xd8e>
    1044:	0306                	slli	t1,t1,0x1
    1046:	0900                	addi	s0,sp,144
    1048:	0000                	unimp
    104a:	0501                	addi	a0,a0,0
    104c:	01030603          	lb	a2,16(t1)
    1050:	0809                	addi	a6,a6,2
    1052:	0100                	addi	s0,sp,128
    1054:	2c05                	jal	1284 <_min_stack-0xd7c>
    1056:	0306                	slli	t1,t1,0x1
    1058:	0900                	addi	s0,sp,144
    105a:	0000                	unimp
    105c:	0501                	addi	a0,a0,0
    105e:	01030603          	lb	a2,16(t1)
    1062:	0809                	addi	a6,a6,2
    1064:	0100                	addi	s0,sp,128
    1066:	2c05                	jal	1296 <_min_stack-0xd6a>
    1068:	0306                	slli	t1,t1,0x1
    106a:	0900                	addi	s0,sp,144
    106c:	0000                	unimp
    106e:	0501                	addi	a0,a0,0
    1070:	01030603          	lb	a2,16(t1)
    1074:	0809                	addi	a6,a6,2
    1076:	0100                	addi	s0,sp,128
    1078:	2c05                	jal	12a8 <_min_stack-0xd58>
    107a:	0306                	slli	t1,t1,0x1
    107c:	0900                	addi	s0,sp,144
    107e:	0000                	unimp
    1080:	0501                	addi	a0,a0,0
    1082:	01030603          	lb	a2,16(t1)
    1086:	0809                	addi	a6,a6,2
    1088:	0100                	addi	s0,sp,128
    108a:	2c05                	jal	12ba <_min_stack-0xd46>
    108c:	0306                	slli	t1,t1,0x1
    108e:	0900                	addi	s0,sp,144
    1090:	0000                	unimp
    1092:	0501                	addi	a0,a0,0
    1094:	01030603          	lb	a2,16(t1)
    1098:	0809                	addi	a6,a6,2
    109a:	0100                	addi	s0,sp,128
    109c:	2c05                	jal	12cc <_min_stack-0xd34>
    109e:	0306                	slli	t1,t1,0x1
    10a0:	0900                	addi	s0,sp,144
    10a2:	0000                	unimp
    10a4:	0501                	addi	a0,a0,0
    10a6:	01030603          	lb	a2,16(t1)
    10aa:	0809                	addi	a6,a6,2
    10ac:	0100                	addi	s0,sp,128
    10ae:	2c05                	jal	12de <_min_stack-0xd22>
    10b0:	0306                	slli	t1,t1,0x1
    10b2:	0900                	addi	s0,sp,144
    10b4:	0000                	unimp
    10b6:	0501                	addi	a0,a0,0
    10b8:	01030603          	lb	a2,16(t1)
    10bc:	0809                	addi	a6,a6,2
    10be:	0100                	addi	s0,sp,128
    10c0:	2c05                	jal	12f0 <_min_stack-0xd10>
    10c2:	0306                	slli	t1,t1,0x1
    10c4:	0900                	addi	s0,sp,144
    10c6:	0000                	unimp
    10c8:	0501                	addi	a0,a0,0
    10ca:	01030603          	lb	a2,16(t1)
    10ce:	0809                	addi	a6,a6,2
    10d0:	0100                	addi	s0,sp,128
    10d2:	2c05                	jal	1302 <_min_stack-0xcfe>
    10d4:	0306                	slli	t1,t1,0x1
    10d6:	0900                	addi	s0,sp,144
    10d8:	0000                	unimp
    10da:	0501                	addi	a0,a0,0
    10dc:	01030603          	lb	a2,16(t1)
    10e0:	0809                	addi	a6,a6,2
    10e2:	0100                	addi	s0,sp,128
    10e4:	2c05                	jal	1314 <_min_stack-0xcec>
    10e6:	0306                	slli	t1,t1,0x1
    10e8:	0900                	addi	s0,sp,144
    10ea:	0000                	unimp
    10ec:	0501                	addi	a0,a0,0
    10ee:	01030603          	lb	a2,16(t1)
    10f2:	0809                	addi	a6,a6,2
    10f4:	0100                	addi	s0,sp,128
    10f6:	2c05                	jal	1326 <_min_stack-0xcda>
    10f8:	0306                	slli	t1,t1,0x1
    10fa:	0900                	addi	s0,sp,144
    10fc:	0000                	unimp
    10fe:	0501                	addi	a0,a0,0
    1100:	01030603          	lb	a2,16(t1)
    1104:	0809                	addi	a6,a6,2
    1106:	0100                	addi	s0,sp,128
    1108:	2c05                	jal	1338 <_min_stack-0xcc8>
    110a:	0306                	slli	t1,t1,0x1
    110c:	0900                	addi	s0,sp,144
    110e:	0000                	unimp
    1110:	0501                	addi	a0,a0,0
    1112:	01030603          	lb	a2,16(t1)
    1116:	0809                	addi	a6,a6,2
    1118:	0100                	addi	s0,sp,128
    111a:	2c05                	jal	134a <_min_stack-0xcb6>
    111c:	0306                	slli	t1,t1,0x1
    111e:	0900                	addi	s0,sp,144
    1120:	0000                	unimp
    1122:	0501                	addi	a0,a0,0
    1124:	01030603          	lb	a2,16(t1)
    1128:	0809                	addi	a6,a6,2
    112a:	0100                	addi	s0,sp,128
    112c:	2c05                	jal	135c <_min_stack-0xca4>
    112e:	0306                	slli	t1,t1,0x1
    1130:	0900                	addi	s0,sp,144
    1132:	0000                	unimp
    1134:	0501                	addi	a0,a0,0
    1136:	01030603          	lb	a2,16(t1)
    113a:	0809                	addi	a6,a6,2
    113c:	0100                	addi	s0,sp,128
    113e:	2c05                	jal	136e <_min_stack-0xc92>
    1140:	0306                	slli	t1,t1,0x1
    1142:	0900                	addi	s0,sp,144
    1144:	0000                	unimp
    1146:	0501                	addi	a0,a0,0
    1148:	01030603          	lb	a2,16(t1)
    114c:	0809                	addi	a6,a6,2
    114e:	0100                	addi	s0,sp,128
    1150:	2c05                	jal	1380 <_min_stack-0xc80>
    1152:	0306                	slli	t1,t1,0x1
    1154:	0900                	addi	s0,sp,144
    1156:	0000                	unimp
    1158:	0501                	addi	a0,a0,0
    115a:	01030603          	lb	a2,16(t1)
    115e:	0809                	addi	a6,a6,2
    1160:	0100                	addi	s0,sp,128
    1162:	2c05                	jal	1392 <_min_stack-0xc6e>
    1164:	0306                	slli	t1,t1,0x1
    1166:	0900                	addi	s0,sp,144
    1168:	0000                	unimp
    116a:	0501                	addi	a0,a0,0
    116c:	01030603          	lb	a2,16(t1)
    1170:	0809                	addi	a6,a6,2
    1172:	0100                	addi	s0,sp,128
    1174:	2c05                	jal	13a4 <_min_stack-0xc5c>
    1176:	0306                	slli	t1,t1,0x1
    1178:	0900                	addi	s0,sp,144
    117a:	0000                	unimp
    117c:	0501                	addi	a0,a0,0
    117e:	01030603          	lb	a2,16(t1)
    1182:	0809                	addi	a6,a6,2
    1184:	0100                	addi	s0,sp,128
    1186:	2c05                	jal	13b6 <_min_stack-0xc4a>
    1188:	0306                	slli	t1,t1,0x1
    118a:	0900                	addi	s0,sp,144
    118c:	0000                	unimp
    118e:	0501                	addi	a0,a0,0
    1190:	01030603          	lb	a2,16(t1)
    1194:	0809                	addi	a6,a6,2
    1196:	0100                	addi	s0,sp,128
    1198:	2c05                	jal	13c8 <_min_stack-0xc38>
    119a:	0306                	slli	t1,t1,0x1
    119c:	0900                	addi	s0,sp,144
    119e:	0000                	unimp
    11a0:	0501                	addi	a0,a0,0
    11a2:	01030603          	lb	a2,16(t1)
    11a6:	0809                	addi	a6,a6,2
    11a8:	0100                	addi	s0,sp,128
    11aa:	2c05                	jal	13da <_min_stack-0xc26>
    11ac:	0306                	slli	t1,t1,0x1
    11ae:	0900                	addi	s0,sp,144
    11b0:	0000                	unimp
    11b2:	0501                	addi	a0,a0,0
    11b4:	01030603          	lb	a2,16(t1)
    11b8:	0809                	addi	a6,a6,2
    11ba:	0100                	addi	s0,sp,128
    11bc:	2c05                	jal	13ec <_min_stack-0xc14>
    11be:	0306                	slli	t1,t1,0x1
    11c0:	0900                	addi	s0,sp,144
    11c2:	0000                	unimp
    11c4:	0501                	addi	a0,a0,0
    11c6:	01030603          	lb	a2,16(t1)
    11ca:	0809                	addi	a6,a6,2
    11cc:	0100                	addi	s0,sp,128
    11ce:	2c05                	jal	13fe <_min_stack-0xc02>
    11d0:	0306                	slli	t1,t1,0x1
    11d2:	0900                	addi	s0,sp,144
    11d4:	0000                	unimp
    11d6:	0501                	addi	a0,a0,0
    11d8:	01030603          	lb	a2,16(t1)
    11dc:	0809                	addi	a6,a6,2
    11de:	0100                	addi	s0,sp,128
    11e0:	2c05                	jal	1410 <_min_stack-0xbf0>
    11e2:	0306                	slli	t1,t1,0x1
    11e4:	0900                	addi	s0,sp,144
    11e6:	0000                	unimp
    11e8:	0501                	addi	a0,a0,0
    11ea:	01030603          	lb	a2,16(t1)
    11ee:	0809                	addi	a6,a6,2
    11f0:	0100                	addi	s0,sp,128
    11f2:	2c05                	jal	1422 <_min_stack-0xbde>
    11f4:	0306                	slli	t1,t1,0x1
    11f6:	0900                	addi	s0,sp,144
    11f8:	0000                	unimp
    11fa:	0501                	addi	a0,a0,0
    11fc:	01030603          	lb	a2,16(t1)
    1200:	0809                	addi	a6,a6,2
    1202:	0100                	addi	s0,sp,128
    1204:	2c05                	jal	1434 <_min_stack-0xbcc>
    1206:	0306                	slli	t1,t1,0x1
    1208:	0900                	addi	s0,sp,144
    120a:	0000                	unimp
    120c:	0501                	addi	a0,a0,0
    120e:	01030603          	lb	a2,16(t1)
    1212:	0809                	addi	a6,a6,2
    1214:	0100                	addi	s0,sp,128
    1216:	2c05                	jal	1446 <_min_stack-0xbba>
    1218:	0306                	slli	t1,t1,0x1
    121a:	0900                	addi	s0,sp,144
    121c:	0000                	unimp
    121e:	0501                	addi	a0,a0,0
    1220:	01030603          	lb	a2,16(t1)
    1224:	0809                	addi	a6,a6,2
    1226:	0100                	addi	s0,sp,128
    1228:	2c05                	jal	1458 <_min_stack-0xba8>
    122a:	0306                	slli	t1,t1,0x1
    122c:	0900                	addi	s0,sp,144
    122e:	0000                	unimp
    1230:	0501                	addi	a0,a0,0
    1232:	01030603          	lb	a2,16(t1)
    1236:	0809                	addi	a6,a6,2
    1238:	0100                	addi	s0,sp,128
    123a:	2c05                	jal	146a <_min_stack-0xb96>
    123c:	0306                	slli	t1,t1,0x1
    123e:	0900                	addi	s0,sp,144
    1240:	0000                	unimp
    1242:	0501                	addi	a0,a0,0
    1244:	01030603          	lb	a2,16(t1)
    1248:	0809                	addi	a6,a6,2
    124a:	0100                	addi	s0,sp,128
    124c:	2c05                	jal	147c <_min_stack-0xb84>
    124e:	0306                	slli	t1,t1,0x1
    1250:	0900                	addi	s0,sp,144
    1252:	0000                	unimp
    1254:	0501                	addi	a0,a0,0
    1256:	01030603          	lb	a2,16(t1)
    125a:	0809                	addi	a6,a6,2
    125c:	0100                	addi	s0,sp,128
    125e:	2c05                	jal	148e <_min_stack-0xb72>
    1260:	0306                	slli	t1,t1,0x1
    1262:	0900                	addi	s0,sp,144
    1264:	0000                	unimp
    1266:	0501                	addi	a0,a0,0
    1268:	01030603          	lb	a2,16(t1)
    126c:	0809                	addi	a6,a6,2
    126e:	0100                	addi	s0,sp,128
    1270:	2c05                	jal	14a0 <_min_stack-0xb60>
    1272:	0306                	slli	t1,t1,0x1
    1274:	0900                	addi	s0,sp,144
    1276:	0000                	unimp
    1278:	0501                	addi	a0,a0,0
    127a:	01030603          	lb	a2,16(t1)
    127e:	0809                	addi	a6,a6,2
    1280:	0100                	addi	s0,sp,128
    1282:	2c05                	jal	14b2 <_min_stack-0xb4e>
    1284:	0306                	slli	t1,t1,0x1
    1286:	0900                	addi	s0,sp,144
    1288:	0000                	unimp
    128a:	0501                	addi	a0,a0,0
    128c:	01030603          	lb	a2,16(t1)
    1290:	0809                	addi	a6,a6,2
    1292:	0100                	addi	s0,sp,128
    1294:	2c05                	jal	14c4 <_min_stack-0xb3c>
    1296:	0306                	slli	t1,t1,0x1
    1298:	0900                	addi	s0,sp,144
    129a:	0000                	unimp
    129c:	0501                	addi	a0,a0,0
    129e:	01030603          	lb	a2,16(t1)
    12a2:	0809                	addi	a6,a6,2
    12a4:	0100                	addi	s0,sp,128
    12a6:	2c05                	jal	14d6 <_min_stack-0xb2a>
    12a8:	0306                	slli	t1,t1,0x1
    12aa:	0900                	addi	s0,sp,144
    12ac:	0000                	unimp
    12ae:	0501                	addi	a0,a0,0
    12b0:	01030603          	lb	a2,16(t1)
    12b4:	0809                	addi	a6,a6,2
    12b6:	0100                	addi	s0,sp,128
    12b8:	2c05                	jal	14e8 <_min_stack-0xb18>
    12ba:	0306                	slli	t1,t1,0x1
    12bc:	0900                	addi	s0,sp,144
    12be:	0000                	unimp
    12c0:	0501                	addi	a0,a0,0
    12c2:	01030603          	lb	a2,16(t1)
    12c6:	0809                	addi	a6,a6,2
    12c8:	0100                	addi	s0,sp,128
    12ca:	2c05                	jal	14fa <_min_stack-0xb06>
    12cc:	0306                	slli	t1,t1,0x1
    12ce:	0900                	addi	s0,sp,144
    12d0:	0000                	unimp
    12d2:	0501                	addi	a0,a0,0
    12d4:	01030603          	lb	a2,16(t1)
    12d8:	0809                	addi	a6,a6,2
    12da:	0100                	addi	s0,sp,128
    12dc:	2c05                	jal	150c <_min_stack-0xaf4>
    12de:	0306                	slli	t1,t1,0x1
    12e0:	0900                	addi	s0,sp,144
    12e2:	0000                	unimp
    12e4:	0501                	addi	a0,a0,0
    12e6:	01030603          	lb	a2,16(t1)
    12ea:	0809                	addi	a6,a6,2
    12ec:	0100                	addi	s0,sp,128
    12ee:	2c05                	jal	151e <_min_stack-0xae2>
    12f0:	0306                	slli	t1,t1,0x1
    12f2:	0900                	addi	s0,sp,144
    12f4:	0000                	unimp
    12f6:	0501                	addi	a0,a0,0
    12f8:	01030603          	lb	a2,16(t1)
    12fc:	0809                	addi	a6,a6,2
    12fe:	0100                	addi	s0,sp,128
    1300:	2c05                	jal	1530 <_min_stack-0xad0>
    1302:	0306                	slli	t1,t1,0x1
    1304:	0900                	addi	s0,sp,144
    1306:	0000                	unimp
    1308:	0501                	addi	a0,a0,0
    130a:	01030603          	lb	a2,16(t1)
    130e:	0809                	addi	a6,a6,2
    1310:	0100                	addi	s0,sp,128
    1312:	2c05                	jal	1542 <_min_stack-0xabe>
    1314:	0306                	slli	t1,t1,0x1
    1316:	0900                	addi	s0,sp,144
    1318:	0000                	unimp
    131a:	0501                	addi	a0,a0,0
    131c:	01030603          	lb	a2,16(t1)
    1320:	0809                	addi	a6,a6,2
    1322:	0100                	addi	s0,sp,128
    1324:	2c05                	jal	1554 <_min_stack-0xaac>
    1326:	0306                	slli	t1,t1,0x1
    1328:	0900                	addi	s0,sp,144
    132a:	0000                	unimp
    132c:	0501                	addi	a0,a0,0
    132e:	01030603          	lb	a2,16(t1)
    1332:	0809                	addi	a6,a6,2
    1334:	0100                	addi	s0,sp,128
    1336:	2c05                	jal	1566 <_min_stack-0xa9a>
    1338:	0306                	slli	t1,t1,0x1
    133a:	0900                	addi	s0,sp,144
    133c:	0000                	unimp
    133e:	0501                	addi	a0,a0,0
    1340:	01030603          	lb	a2,16(t1)
    1344:	0809                	addi	a6,a6,2
    1346:	0100                	addi	s0,sp,128
    1348:	2c05                	jal	1578 <_min_stack-0xa88>
    134a:	0306                	slli	t1,t1,0x1
    134c:	0900                	addi	s0,sp,144
    134e:	0000                	unimp
    1350:	0501                	addi	a0,a0,0
    1352:	01030603          	lb	a2,16(t1)
    1356:	0809                	addi	a6,a6,2
    1358:	0100                	addi	s0,sp,128
    135a:	2c05                	jal	158a <_min_stack-0xa76>
    135c:	0306                	slli	t1,t1,0x1
    135e:	0900                	addi	s0,sp,144
    1360:	0000                	unimp
    1362:	0501                	addi	a0,a0,0
    1364:	01030603          	lb	a2,16(t1)
    1368:	0809                	addi	a6,a6,2
    136a:	0100                	addi	s0,sp,128
    136c:	2c05                	jal	159c <_min_stack-0xa64>
    136e:	0306                	slli	t1,t1,0x1
    1370:	0900                	addi	s0,sp,144
    1372:	0000                	unimp
    1374:	0501                	addi	a0,a0,0
    1376:	01030603          	lb	a2,16(t1)
    137a:	0809                	addi	a6,a6,2
    137c:	0100                	addi	s0,sp,128
    137e:	2c05                	jal	15ae <_min_stack-0xa52>
    1380:	0306                	slli	t1,t1,0x1
    1382:	0900                	addi	s0,sp,144
    1384:	0000                	unimp
    1386:	0501                	addi	a0,a0,0
    1388:	01030603          	lb	a2,16(t1)
    138c:	0809                	addi	a6,a6,2
    138e:	0100                	addi	s0,sp,128
    1390:	2c05                	jal	15c0 <_min_stack-0xa40>
    1392:	0306                	slli	t1,t1,0x1
    1394:	0900                	addi	s0,sp,144
    1396:	0000                	unimp
    1398:	0501                	addi	a0,a0,0
    139a:	01030603          	lb	a2,16(t1)
    139e:	0809                	addi	a6,a6,2
    13a0:	0100                	addi	s0,sp,128
    13a2:	2c05                	jal	15d2 <_min_stack-0xa2e>
    13a4:	0306                	slli	t1,t1,0x1
    13a6:	0900                	addi	s0,sp,144
    13a8:	0000                	unimp
    13aa:	0501                	addi	a0,a0,0
    13ac:	01030603          	lb	a2,16(t1)
    13b0:	0809                	addi	a6,a6,2
    13b2:	0100                	addi	s0,sp,128
    13b4:	2c05                	jal	15e4 <_min_stack-0xa1c>
    13b6:	0306                	slli	t1,t1,0x1
    13b8:	0900                	addi	s0,sp,144
    13ba:	0000                	unimp
    13bc:	0501                	addi	a0,a0,0
    13be:	01030603          	lb	a2,16(t1)
    13c2:	0809                	addi	a6,a6,2
    13c4:	0100                	addi	s0,sp,128
    13c6:	2c05                	jal	15f6 <_min_stack-0xa0a>
    13c8:	0306                	slli	t1,t1,0x1
    13ca:	0900                	addi	s0,sp,144
    13cc:	0000                	unimp
    13ce:	0501                	addi	a0,a0,0
    13d0:	01030603          	lb	a2,16(t1)
    13d4:	0809                	addi	a6,a6,2
    13d6:	0100                	addi	s0,sp,128
    13d8:	2c05                	jal	1608 <_min_stack-0x9f8>
    13da:	0306                	slli	t1,t1,0x1
    13dc:	0900                	addi	s0,sp,144
    13de:	0000                	unimp
    13e0:	0501                	addi	a0,a0,0
    13e2:	01030603          	lb	a2,16(t1)
    13e6:	0809                	addi	a6,a6,2
    13e8:	0100                	addi	s0,sp,128
    13ea:	2c05                	jal	161a <_min_stack-0x9e6>
    13ec:	0306                	slli	t1,t1,0x1
    13ee:	0900                	addi	s0,sp,144
    13f0:	0000                	unimp
    13f2:	0501                	addi	a0,a0,0
    13f4:	01030603          	lb	a2,16(t1)
    13f8:	0809                	addi	a6,a6,2
    13fa:	0100                	addi	s0,sp,128
    13fc:	2c05                	jal	162c <_min_stack-0x9d4>
    13fe:	0306                	slli	t1,t1,0x1
    1400:	0900                	addi	s0,sp,144
    1402:	0000                	unimp
    1404:	0501                	addi	a0,a0,0
    1406:	01030603          	lb	a2,16(t1)
    140a:	0809                	addi	a6,a6,2
    140c:	0100                	addi	s0,sp,128
    140e:	2c05                	jal	163e <_min_stack-0x9c2>
    1410:	0306                	slli	t1,t1,0x1
    1412:	0900                	addi	s0,sp,144
    1414:	0000                	unimp
    1416:	0501                	addi	a0,a0,0
    1418:	01030603          	lb	a2,16(t1)
    141c:	0809                	addi	a6,a6,2
    141e:	0100                	addi	s0,sp,128
    1420:	2c05                	jal	1650 <_min_stack-0x9b0>
    1422:	0306                	slli	t1,t1,0x1
    1424:	0900                	addi	s0,sp,144
    1426:	0000                	unimp
    1428:	0501                	addi	a0,a0,0
    142a:	01030603          	lb	a2,16(t1)
    142e:	0809                	addi	a6,a6,2
    1430:	0100                	addi	s0,sp,128
    1432:	2c05                	jal	1662 <_min_stack-0x99e>
    1434:	0306                	slli	t1,t1,0x1
    1436:	0900                	addi	s0,sp,144
    1438:	0000                	unimp
    143a:	0501                	addi	a0,a0,0
    143c:	01030603          	lb	a2,16(t1)
    1440:	0809                	addi	a6,a6,2
    1442:	0100                	addi	s0,sp,128
    1444:	2c05                	jal	1674 <_min_stack-0x98c>
    1446:	0306                	slli	t1,t1,0x1
    1448:	0900                	addi	s0,sp,144
    144a:	0000                	unimp
    144c:	0501                	addi	a0,a0,0
    144e:	01030603          	lb	a2,16(t1)
    1452:	0809                	addi	a6,a6,2
    1454:	0100                	addi	s0,sp,128
    1456:	2c05                	jal	1686 <_min_stack-0x97a>
    1458:	0306                	slli	t1,t1,0x1
    145a:	0900                	addi	s0,sp,144
    145c:	0000                	unimp
    145e:	0501                	addi	a0,a0,0
    1460:	01030603          	lb	a2,16(t1)
    1464:	0809                	addi	a6,a6,2
    1466:	0100                	addi	s0,sp,128
    1468:	2c05                	jal	1698 <_min_stack-0x968>
    146a:	0306                	slli	t1,t1,0x1
    146c:	0900                	addi	s0,sp,144
    146e:	0000                	unimp
    1470:	0501                	addi	a0,a0,0
    1472:	01030603          	lb	a2,16(t1)
    1476:	0809                	addi	a6,a6,2
    1478:	0100                	addi	s0,sp,128
    147a:	2c05                	jal	16aa <_min_stack-0x956>
    147c:	0306                	slli	t1,t1,0x1
    147e:	0900                	addi	s0,sp,144
    1480:	0000                	unimp
    1482:	0501                	addi	a0,a0,0
    1484:	01030603          	lb	a2,16(t1)
    1488:	0809                	addi	a6,a6,2
    148a:	0100                	addi	s0,sp,128
    148c:	2c05                	jal	16bc <_min_stack-0x944>
    148e:	0306                	slli	t1,t1,0x1
    1490:	0900                	addi	s0,sp,144
    1492:	0000                	unimp
    1494:	0501                	addi	a0,a0,0
    1496:	01030603          	lb	a2,16(t1)
    149a:	0809                	addi	a6,a6,2
    149c:	0100                	addi	s0,sp,128
    149e:	2c05                	jal	16ce <_min_stack-0x932>
    14a0:	0306                	slli	t1,t1,0x1
    14a2:	0900                	addi	s0,sp,144
    14a4:	0000                	unimp
    14a6:	0501                	addi	a0,a0,0
    14a8:	01030603          	lb	a2,16(t1)
    14ac:	0809                	addi	a6,a6,2
    14ae:	0100                	addi	s0,sp,128
    14b0:	2c05                	jal	16e0 <_min_stack-0x920>
    14b2:	0306                	slli	t1,t1,0x1
    14b4:	0900                	addi	s0,sp,144
    14b6:	0000                	unimp
    14b8:	0501                	addi	a0,a0,0
    14ba:	01030603          	lb	a2,16(t1)
    14be:	0809                	addi	a6,a6,2
    14c0:	0100                	addi	s0,sp,128
    14c2:	2c05                	jal	16f2 <_min_stack-0x90e>
    14c4:	0306                	slli	t1,t1,0x1
    14c6:	0900                	addi	s0,sp,144
    14c8:	0000                	unimp
    14ca:	0501                	addi	a0,a0,0
    14cc:	01030603          	lb	a2,16(t1)
    14d0:	0809                	addi	a6,a6,2
    14d2:	0100                	addi	s0,sp,128
    14d4:	2c05                	jal	1704 <_min_stack-0x8fc>
    14d6:	0306                	slli	t1,t1,0x1
    14d8:	0900                	addi	s0,sp,144
    14da:	0000                	unimp
    14dc:	0501                	addi	a0,a0,0
    14de:	01030603          	lb	a2,16(t1)
    14e2:	0809                	addi	a6,a6,2
    14e4:	0100                	addi	s0,sp,128
    14e6:	2c05                	jal	1716 <_min_stack-0x8ea>
    14e8:	0306                	slli	t1,t1,0x1
    14ea:	0900                	addi	s0,sp,144
    14ec:	0000                	unimp
    14ee:	0501                	addi	a0,a0,0
    14f0:	01030603          	lb	a2,16(t1)
    14f4:	0809                	addi	a6,a6,2
    14f6:	0100                	addi	s0,sp,128
    14f8:	2c05                	jal	1728 <_min_stack-0x8d8>
    14fa:	0306                	slli	t1,t1,0x1
    14fc:	0900                	addi	s0,sp,144
    14fe:	0000                	unimp
    1500:	0501                	addi	a0,a0,0
    1502:	01030603          	lb	a2,16(t1)
    1506:	0809                	addi	a6,a6,2
    1508:	0100                	addi	s0,sp,128
    150a:	2c05                	jal	173a <_min_stack-0x8c6>
    150c:	0306                	slli	t1,t1,0x1
    150e:	0900                	addi	s0,sp,144
    1510:	0000                	unimp
    1512:	0501                	addi	a0,a0,0
    1514:	01030603          	lb	a2,16(t1)
    1518:	0809                	addi	a6,a6,2
    151a:	0100                	addi	s0,sp,128
    151c:	2c05                	jal	174c <_min_stack-0x8b4>
    151e:	0306                	slli	t1,t1,0x1
    1520:	0900                	addi	s0,sp,144
    1522:	0000                	unimp
    1524:	0501                	addi	a0,a0,0
    1526:	01030603          	lb	a2,16(t1)
    152a:	0809                	addi	a6,a6,2
    152c:	0100                	addi	s0,sp,128
    152e:	2c05                	jal	175e <_min_stack-0x8a2>
    1530:	0306                	slli	t1,t1,0x1
    1532:	0900                	addi	s0,sp,144
    1534:	0000                	unimp
    1536:	0501                	addi	a0,a0,0
    1538:	01030603          	lb	a2,16(t1)
    153c:	0809                	addi	a6,a6,2
    153e:	0100                	addi	s0,sp,128
    1540:	2c05                	jal	1770 <_min_stack-0x890>
    1542:	0306                	slli	t1,t1,0x1
    1544:	0900                	addi	s0,sp,144
    1546:	0000                	unimp
    1548:	0501                	addi	a0,a0,0
    154a:	01030603          	lb	a2,16(t1)
    154e:	0809                	addi	a6,a6,2
    1550:	0100                	addi	s0,sp,128
    1552:	2c05                	jal	1782 <_min_stack-0x87e>
    1554:	0306                	slli	t1,t1,0x1
    1556:	0900                	addi	s0,sp,144
    1558:	0000                	unimp
    155a:	0501                	addi	a0,a0,0
    155c:	01030603          	lb	a2,16(t1)
    1560:	0809                	addi	a6,a6,2
    1562:	0100                	addi	s0,sp,128
    1564:	2c05                	jal	1794 <_min_stack-0x86c>
    1566:	0306                	slli	t1,t1,0x1
    1568:	0900                	addi	s0,sp,144
    156a:	0000                	unimp
    156c:	0501                	addi	a0,a0,0
    156e:	01030603          	lb	a2,16(t1)
    1572:	0809                	addi	a6,a6,2
    1574:	0100                	addi	s0,sp,128
    1576:	2c05                	jal	17a6 <_min_stack-0x85a>
    1578:	0306                	slli	t1,t1,0x1
    157a:	0900                	addi	s0,sp,144
    157c:	0000                	unimp
    157e:	0501                	addi	a0,a0,0
    1580:	01030603          	lb	a2,16(t1)
    1584:	0809                	addi	a6,a6,2
    1586:	0100                	addi	s0,sp,128
    1588:	2c05                	jal	17b8 <_min_stack-0x848>
    158a:	0306                	slli	t1,t1,0x1
    158c:	0900                	addi	s0,sp,144
    158e:	0000                	unimp
    1590:	0501                	addi	a0,a0,0
    1592:	01030603          	lb	a2,16(t1)
    1596:	0809                	addi	a6,a6,2
    1598:	0100                	addi	s0,sp,128
    159a:	2c05                	jal	17ca <_min_stack-0x836>
    159c:	0306                	slli	t1,t1,0x1
    159e:	0900                	addi	s0,sp,144
    15a0:	0000                	unimp
    15a2:	0501                	addi	a0,a0,0
    15a4:	01030603          	lb	a2,16(t1)
    15a8:	0809                	addi	a6,a6,2
    15aa:	0100                	addi	s0,sp,128
    15ac:	2c05                	jal	17dc <_min_stack-0x824>
    15ae:	0306                	slli	t1,t1,0x1
    15b0:	0900                	addi	s0,sp,144
    15b2:	0000                	unimp
    15b4:	0501                	addi	a0,a0,0
    15b6:	01030603          	lb	a2,16(t1)
    15ba:	0809                	addi	a6,a6,2
    15bc:	0100                	addi	s0,sp,128
    15be:	2c05                	jal	17ee <_min_stack-0x812>
    15c0:	0306                	slli	t1,t1,0x1
    15c2:	0900                	addi	s0,sp,144
    15c4:	0000                	unimp
    15c6:	0501                	addi	a0,a0,0
    15c8:	01030603          	lb	a2,16(t1)
    15cc:	0809                	addi	a6,a6,2
    15ce:	0100                	addi	s0,sp,128
    15d0:	2c05                	jal	1800 <_min_stack-0x800>
    15d2:	0306                	slli	t1,t1,0x1
    15d4:	0900                	addi	s0,sp,144
    15d6:	0000                	unimp
    15d8:	0501                	addi	a0,a0,0
    15da:	01030603          	lb	a2,16(t1)
    15de:	0809                	addi	a6,a6,2
    15e0:	0100                	addi	s0,sp,128
    15e2:	2c05                	jal	1812 <_min_stack-0x7ee>
    15e4:	0306                	slli	t1,t1,0x1
    15e6:	0900                	addi	s0,sp,144
    15e8:	0000                	unimp
    15ea:	0501                	addi	a0,a0,0
    15ec:	01030603          	lb	a2,16(t1)
    15f0:	0809                	addi	a6,a6,2
    15f2:	0100                	addi	s0,sp,128
    15f4:	2c05                	jal	1824 <_min_stack-0x7dc>
    15f6:	0306                	slli	t1,t1,0x1
    15f8:	0900                	addi	s0,sp,144
    15fa:	0000                	unimp
    15fc:	0501                	addi	a0,a0,0
    15fe:	01030603          	lb	a2,16(t1)
    1602:	0809                	addi	a6,a6,2
    1604:	0100                	addi	s0,sp,128
    1606:	2c05                	jal	1836 <_min_stack-0x7ca>
    1608:	0306                	slli	t1,t1,0x1
    160a:	0900                	addi	s0,sp,144
    160c:	0000                	unimp
    160e:	0501                	addi	a0,a0,0
    1610:	01030603          	lb	a2,16(t1)
    1614:	0809                	addi	a6,a6,2
    1616:	0100                	addi	s0,sp,128
    1618:	2c05                	jal	1848 <_min_stack-0x7b8>
    161a:	0306                	slli	t1,t1,0x1
    161c:	0900                	addi	s0,sp,144
    161e:	0000                	unimp
    1620:	0501                	addi	a0,a0,0
    1622:	01030603          	lb	a2,16(t1)
    1626:	0809                	addi	a6,a6,2
    1628:	0100                	addi	s0,sp,128
    162a:	2c05                	jal	185a <_min_stack-0x7a6>
    162c:	0306                	slli	t1,t1,0x1
    162e:	0900                	addi	s0,sp,144
    1630:	0000                	unimp
    1632:	0501                	addi	a0,a0,0
    1634:	01030603          	lb	a2,16(t1)
    1638:	0809                	addi	a6,a6,2
    163a:	0100                	addi	s0,sp,128
    163c:	2c05                	jal	186c <_min_stack-0x794>
    163e:	0306                	slli	t1,t1,0x1
    1640:	0900                	addi	s0,sp,144
    1642:	0000                	unimp
    1644:	0501                	addi	a0,a0,0
    1646:	01030603          	lb	a2,16(t1)
    164a:	0809                	addi	a6,a6,2
    164c:	0100                	addi	s0,sp,128
    164e:	2c05                	jal	187e <_min_stack-0x782>
    1650:	0306                	slli	t1,t1,0x1
    1652:	0900                	addi	s0,sp,144
    1654:	0000                	unimp
    1656:	0501                	addi	a0,a0,0
    1658:	01030603          	lb	a2,16(t1)
    165c:	0809                	addi	a6,a6,2
    165e:	0100                	addi	s0,sp,128
    1660:	2c05                	jal	1890 <_min_stack-0x770>
    1662:	0306                	slli	t1,t1,0x1
    1664:	0900                	addi	s0,sp,144
    1666:	0000                	unimp
    1668:	0501                	addi	a0,a0,0
    166a:	01030603          	lb	a2,16(t1)
    166e:	0809                	addi	a6,a6,2
    1670:	0100                	addi	s0,sp,128
    1672:	2c05                	jal	18a2 <_min_stack-0x75e>
    1674:	0306                	slli	t1,t1,0x1
    1676:	0900                	addi	s0,sp,144
    1678:	0000                	unimp
    167a:	0501                	addi	a0,a0,0
    167c:	01030603          	lb	a2,16(t1)
    1680:	0809                	addi	a6,a6,2
    1682:	0100                	addi	s0,sp,128
    1684:	2c05                	jal	18b4 <_min_stack-0x74c>
    1686:	0306                	slli	t1,t1,0x1
    1688:	0900                	addi	s0,sp,144
    168a:	0000                	unimp
    168c:	0501                	addi	a0,a0,0
    168e:	01030603          	lb	a2,16(t1)
    1692:	0809                	addi	a6,a6,2
    1694:	0100                	addi	s0,sp,128
    1696:	2c05                	jal	18c6 <_min_stack-0x73a>
    1698:	0306                	slli	t1,t1,0x1
    169a:	0900                	addi	s0,sp,144
    169c:	0000                	unimp
    169e:	0501                	addi	a0,a0,0
    16a0:	01030603          	lb	a2,16(t1)
    16a4:	0809                	addi	a6,a6,2
    16a6:	0100                	addi	s0,sp,128
    16a8:	2c05                	jal	18d8 <_min_stack-0x728>
    16aa:	0306                	slli	t1,t1,0x1
    16ac:	0900                	addi	s0,sp,144
    16ae:	0000                	unimp
    16b0:	0501                	addi	a0,a0,0
    16b2:	01030603          	lb	a2,16(t1)
    16b6:	0809                	addi	a6,a6,2
    16b8:	0100                	addi	s0,sp,128
    16ba:	2c05                	jal	18ea <_min_stack-0x716>
    16bc:	0306                	slli	t1,t1,0x1
    16be:	0900                	addi	s0,sp,144
    16c0:	0000                	unimp
    16c2:	0501                	addi	a0,a0,0
    16c4:	01030603          	lb	a2,16(t1)
    16c8:	0809                	addi	a6,a6,2
    16ca:	0100                	addi	s0,sp,128
    16cc:	2c05                	jal	18fc <_min_stack-0x704>
    16ce:	0306                	slli	t1,t1,0x1
    16d0:	0900                	addi	s0,sp,144
    16d2:	0000                	unimp
    16d4:	0501                	addi	a0,a0,0
    16d6:	01030603          	lb	a2,16(t1)
    16da:	0809                	addi	a6,a6,2
    16dc:	0100                	addi	s0,sp,128
    16de:	2c05                	jal	190e <_min_stack-0x6f2>
    16e0:	0306                	slli	t1,t1,0x1
    16e2:	0900                	addi	s0,sp,144
    16e4:	0000                	unimp
    16e6:	0501                	addi	a0,a0,0
    16e8:	01030603          	lb	a2,16(t1)
    16ec:	0809                	addi	a6,a6,2
    16ee:	0100                	addi	s0,sp,128
    16f0:	2c05                	jal	1920 <_min_stack-0x6e0>
    16f2:	0306                	slli	t1,t1,0x1
    16f4:	0900                	addi	s0,sp,144
    16f6:	0000                	unimp
    16f8:	0501                	addi	a0,a0,0
    16fa:	01030603          	lb	a2,16(t1)
    16fe:	0809                	addi	a6,a6,2
    1700:	0100                	addi	s0,sp,128
    1702:	2c05                	jal	1932 <_min_stack-0x6ce>
    1704:	0306                	slli	t1,t1,0x1
    1706:	0900                	addi	s0,sp,144
    1708:	0000                	unimp
    170a:	0501                	addi	a0,a0,0
    170c:	01030603          	lb	a2,16(t1)
    1710:	0809                	addi	a6,a6,2
    1712:	0100                	addi	s0,sp,128
    1714:	2c05                	jal	1944 <_min_stack-0x6bc>
    1716:	0306                	slli	t1,t1,0x1
    1718:	0900                	addi	s0,sp,144
    171a:	0000                	unimp
    171c:	0501                	addi	a0,a0,0
    171e:	01030603          	lb	a2,16(t1)
    1722:	0809                	addi	a6,a6,2
    1724:	0100                	addi	s0,sp,128
    1726:	2c05                	jal	1956 <_min_stack-0x6aa>
    1728:	0306                	slli	t1,t1,0x1
    172a:	0900                	addi	s0,sp,144
    172c:	0000                	unimp
    172e:	0501                	addi	a0,a0,0
    1730:	01030603          	lb	a2,16(t1)
    1734:	0809                	addi	a6,a6,2
    1736:	0100                	addi	s0,sp,128
    1738:	2c05                	jal	1968 <_min_stack-0x698>
    173a:	0306                	slli	t1,t1,0x1
    173c:	0900                	addi	s0,sp,144
    173e:	0000                	unimp
    1740:	0501                	addi	a0,a0,0
    1742:	01030603          	lb	a2,16(t1)
    1746:	0809                	addi	a6,a6,2
    1748:	0100                	addi	s0,sp,128
    174a:	2c05                	jal	197a <_min_stack-0x686>
    174c:	0306                	slli	t1,t1,0x1
    174e:	0900                	addi	s0,sp,144
    1750:	0000                	unimp
    1752:	0501                	addi	a0,a0,0
    1754:	01030603          	lb	a2,16(t1)
    1758:	0809                	addi	a6,a6,2
    175a:	0100                	addi	s0,sp,128
    175c:	2c05                	jal	198c <_min_stack-0x674>
    175e:	0306                	slli	t1,t1,0x1
    1760:	0900                	addi	s0,sp,144
    1762:	0000                	unimp
    1764:	0501                	addi	a0,a0,0
    1766:	01030603          	lb	a2,16(t1)
    176a:	0809                	addi	a6,a6,2
    176c:	0100                	addi	s0,sp,128
    176e:	2c05                	jal	199e <_min_stack-0x662>
    1770:	0306                	slli	t1,t1,0x1
    1772:	0900                	addi	s0,sp,144
    1774:	0000                	unimp
    1776:	0501                	addi	a0,a0,0
    1778:	01030603          	lb	a2,16(t1)
    177c:	0809                	addi	a6,a6,2
    177e:	0100                	addi	s0,sp,128
    1780:	2c05                	jal	19b0 <_min_stack-0x650>
    1782:	0306                	slli	t1,t1,0x1
    1784:	0900                	addi	s0,sp,144
    1786:	0000                	unimp
    1788:	0501                	addi	a0,a0,0
    178a:	01030603          	lb	a2,16(t1)
    178e:	0809                	addi	a6,a6,2
    1790:	0100                	addi	s0,sp,128
    1792:	2c05                	jal	19c2 <_min_stack-0x63e>
    1794:	0306                	slli	t1,t1,0x1
    1796:	0900                	addi	s0,sp,144
    1798:	0000                	unimp
    179a:	0501                	addi	a0,a0,0
    179c:	01030603          	lb	a2,16(t1)
    17a0:	0809                	addi	a6,a6,2
    17a2:	0100                	addi	s0,sp,128
    17a4:	2c05                	jal	19d4 <_min_stack-0x62c>
    17a6:	0306                	slli	t1,t1,0x1
    17a8:	0900                	addi	s0,sp,144
    17aa:	0000                	unimp
    17ac:	0501                	addi	a0,a0,0
    17ae:	01030603          	lb	a2,16(t1)
    17b2:	0809                	addi	a6,a6,2
    17b4:	0100                	addi	s0,sp,128
    17b6:	2c05                	jal	19e6 <_min_stack-0x61a>
    17b8:	0306                	slli	t1,t1,0x1
    17ba:	0900                	addi	s0,sp,144
    17bc:	0000                	unimp
    17be:	0501                	addi	a0,a0,0
    17c0:	01030603          	lb	a2,16(t1)
    17c4:	0809                	addi	a6,a6,2
    17c6:	0100                	addi	s0,sp,128
    17c8:	2c05                	jal	19f8 <_min_stack-0x608>
    17ca:	0306                	slli	t1,t1,0x1
    17cc:	0900                	addi	s0,sp,144
    17ce:	0000                	unimp
    17d0:	0501                	addi	a0,a0,0
    17d2:	01030603          	lb	a2,16(t1)
    17d6:	0809                	addi	a6,a6,2
    17d8:	0100                	addi	s0,sp,128
    17da:	2c05                	jal	1a0a <_min_stack-0x5f6>
    17dc:	0306                	slli	t1,t1,0x1
    17de:	0900                	addi	s0,sp,144
    17e0:	0000                	unimp
    17e2:	0501                	addi	a0,a0,0
    17e4:	01030603          	lb	a2,16(t1)
    17e8:	0809                	addi	a6,a6,2
    17ea:	0100                	addi	s0,sp,128
    17ec:	2c05                	jal	1a1c <_min_stack-0x5e4>
    17ee:	0306                	slli	t1,t1,0x1
    17f0:	0900                	addi	s0,sp,144
    17f2:	0000                	unimp
    17f4:	0501                	addi	a0,a0,0
    17f6:	01030603          	lb	a2,16(t1)
    17fa:	0809                	addi	a6,a6,2
    17fc:	0100                	addi	s0,sp,128
    17fe:	2c05                	jal	1a2e <_min_stack-0x5d2>
    1800:	0306                	slli	t1,t1,0x1
    1802:	0900                	addi	s0,sp,144
    1804:	0000                	unimp
    1806:	0501                	addi	a0,a0,0
    1808:	01030603          	lb	a2,16(t1)
    180c:	0809                	addi	a6,a6,2
    180e:	0100                	addi	s0,sp,128
    1810:	2c05                	jal	1a40 <_min_stack-0x5c0>
    1812:	0306                	slli	t1,t1,0x1
    1814:	0900                	addi	s0,sp,144
    1816:	0000                	unimp
    1818:	0501                	addi	a0,a0,0
    181a:	01030603          	lb	a2,16(t1)
    181e:	0809                	addi	a6,a6,2
    1820:	0100                	addi	s0,sp,128
    1822:	2c05                	jal	1a52 <_min_stack-0x5ae>
    1824:	0306                	slli	t1,t1,0x1
    1826:	0900                	addi	s0,sp,144
    1828:	0000                	unimp
    182a:	0501                	addi	a0,a0,0
    182c:	01030603          	lb	a2,16(t1)
    1830:	0809                	addi	a6,a6,2
    1832:	0100                	addi	s0,sp,128
    1834:	2c05                	jal	1a64 <_min_stack-0x59c>
    1836:	0306                	slli	t1,t1,0x1
    1838:	0900                	addi	s0,sp,144
    183a:	0000                	unimp
    183c:	0501                	addi	a0,a0,0
    183e:	01030603          	lb	a2,16(t1)
    1842:	0809                	addi	a6,a6,2
    1844:	0100                	addi	s0,sp,128
    1846:	2c05                	jal	1a76 <_min_stack-0x58a>
    1848:	0306                	slli	t1,t1,0x1
    184a:	0900                	addi	s0,sp,144
    184c:	0000                	unimp
    184e:	0501                	addi	a0,a0,0
    1850:	01030603          	lb	a2,16(t1)
    1854:	0809                	addi	a6,a6,2
    1856:	0100                	addi	s0,sp,128
    1858:	2c05                	jal	1a88 <_min_stack-0x578>
    185a:	0306                	slli	t1,t1,0x1
    185c:	0900                	addi	s0,sp,144
    185e:	0000                	unimp
    1860:	0501                	addi	a0,a0,0
    1862:	01030603          	lb	a2,16(t1)
    1866:	0809                	addi	a6,a6,2
    1868:	0100                	addi	s0,sp,128
    186a:	2c05                	jal	1a9a <_min_stack-0x566>
    186c:	0306                	slli	t1,t1,0x1
    186e:	0900                	addi	s0,sp,144
    1870:	0000                	unimp
    1872:	0501                	addi	a0,a0,0
    1874:	01030603          	lb	a2,16(t1)
    1878:	0809                	addi	a6,a6,2
    187a:	0100                	addi	s0,sp,128
    187c:	2c05                	jal	1aac <_min_stack-0x554>
    187e:	0306                	slli	t1,t1,0x1
    1880:	0900                	addi	s0,sp,144
    1882:	0000                	unimp
    1884:	0501                	addi	a0,a0,0
    1886:	01030603          	lb	a2,16(t1)
    188a:	0809                	addi	a6,a6,2
    188c:	0100                	addi	s0,sp,128
    188e:	2c05                	jal	1abe <_min_stack-0x542>
    1890:	0306                	slli	t1,t1,0x1
    1892:	0900                	addi	s0,sp,144
    1894:	0000                	unimp
    1896:	0501                	addi	a0,a0,0
    1898:	01030603          	lb	a2,16(t1)
    189c:	0809                	addi	a6,a6,2
    189e:	0100                	addi	s0,sp,128
    18a0:	2c05                	jal	1ad0 <_min_stack-0x530>
    18a2:	0306                	slli	t1,t1,0x1
    18a4:	0900                	addi	s0,sp,144
    18a6:	0000                	unimp
    18a8:	0501                	addi	a0,a0,0
    18aa:	01030603          	lb	a2,16(t1)
    18ae:	0809                	addi	a6,a6,2
    18b0:	0100                	addi	s0,sp,128
    18b2:	2c05                	jal	1ae2 <_min_stack-0x51e>
    18b4:	0306                	slli	t1,t1,0x1
    18b6:	0900                	addi	s0,sp,144
    18b8:	0000                	unimp
    18ba:	0501                	addi	a0,a0,0
    18bc:	01030603          	lb	a2,16(t1)
    18c0:	0809                	addi	a6,a6,2
    18c2:	0100                	addi	s0,sp,128
    18c4:	2c05                	jal	1af4 <_min_stack-0x50c>
    18c6:	0306                	slli	t1,t1,0x1
    18c8:	0900                	addi	s0,sp,144
    18ca:	0000                	unimp
    18cc:	0501                	addi	a0,a0,0
    18ce:	01030603          	lb	a2,16(t1)
    18d2:	0809                	addi	a6,a6,2
    18d4:	0100                	addi	s0,sp,128
    18d6:	2c05                	jal	1b06 <_min_stack-0x4fa>
    18d8:	0306                	slli	t1,t1,0x1
    18da:	0900                	addi	s0,sp,144
    18dc:	0000                	unimp
    18de:	0501                	addi	a0,a0,0
    18e0:	01030603          	lb	a2,16(t1)
    18e4:	0809                	addi	a6,a6,2
    18e6:	0100                	addi	s0,sp,128
    18e8:	2c05                	jal	1b18 <_min_stack-0x4e8>
    18ea:	0306                	slli	t1,t1,0x1
    18ec:	0900                	addi	s0,sp,144
    18ee:	0000                	unimp
    18f0:	0501                	addi	a0,a0,0
    18f2:	01030603          	lb	a2,16(t1)
    18f6:	0809                	addi	a6,a6,2
    18f8:	0100                	addi	s0,sp,128
    18fa:	2c05                	jal	1b2a <_min_stack-0x4d6>
    18fc:	0306                	slli	t1,t1,0x1
    18fe:	0900                	addi	s0,sp,144
    1900:	0000                	unimp
    1902:	0501                	addi	a0,a0,0
    1904:	01030603          	lb	a2,16(t1)
    1908:	0809                	addi	a6,a6,2
    190a:	0100                	addi	s0,sp,128
    190c:	2c05                	jal	1b3c <_min_stack-0x4c4>
    190e:	0306                	slli	t1,t1,0x1
    1910:	0900                	addi	s0,sp,144
    1912:	0000                	unimp
    1914:	0501                	addi	a0,a0,0
    1916:	01030603          	lb	a2,16(t1)
    191a:	0809                	addi	a6,a6,2
    191c:	0100                	addi	s0,sp,128
    191e:	2c05                	jal	1b4e <_min_stack-0x4b2>
    1920:	0306                	slli	t1,t1,0x1
    1922:	0900                	addi	s0,sp,144
    1924:	0000                	unimp
    1926:	0501                	addi	a0,a0,0
    1928:	01030603          	lb	a2,16(t1)
    192c:	0809                	addi	a6,a6,2
    192e:	0100                	addi	s0,sp,128
    1930:	2c05                	jal	1b60 <_min_stack-0x4a0>
    1932:	0306                	slli	t1,t1,0x1
    1934:	0900                	addi	s0,sp,144
    1936:	0000                	unimp
    1938:	0501                	addi	a0,a0,0
    193a:	01030603          	lb	a2,16(t1)
    193e:	0809                	addi	a6,a6,2
    1940:	0100                	addi	s0,sp,128
    1942:	2c05                	jal	1b72 <_min_stack-0x48e>
    1944:	0306                	slli	t1,t1,0x1
    1946:	0900                	addi	s0,sp,144
    1948:	0000                	unimp
    194a:	0501                	addi	a0,a0,0
    194c:	01030603          	lb	a2,16(t1)
    1950:	0809                	addi	a6,a6,2
    1952:	0100                	addi	s0,sp,128
    1954:	2c05                	jal	1b84 <_min_stack-0x47c>
    1956:	0306                	slli	t1,t1,0x1
    1958:	0900                	addi	s0,sp,144
    195a:	0000                	unimp
    195c:	0501                	addi	a0,a0,0
    195e:	01030603          	lb	a2,16(t1)
    1962:	0809                	addi	a6,a6,2
    1964:	0100                	addi	s0,sp,128
    1966:	2c05                	jal	1b96 <_min_stack-0x46a>
    1968:	0306                	slli	t1,t1,0x1
    196a:	0900                	addi	s0,sp,144
    196c:	0000                	unimp
    196e:	0501                	addi	a0,a0,0
    1970:	01030603          	lb	a2,16(t1)
    1974:	0809                	addi	a6,a6,2
    1976:	0100                	addi	s0,sp,128
    1978:	2c05                	jal	1ba8 <_min_stack-0x458>
    197a:	0306                	slli	t1,t1,0x1
    197c:	0900                	addi	s0,sp,144
    197e:	0000                	unimp
    1980:	0501                	addi	a0,a0,0
    1982:	01030603          	lb	a2,16(t1)
    1986:	0809                	addi	a6,a6,2
    1988:	0100                	addi	s0,sp,128
    198a:	2c05                	jal	1bba <_min_stack-0x446>
    198c:	0306                	slli	t1,t1,0x1
    198e:	0900                	addi	s0,sp,144
    1990:	0000                	unimp
    1992:	0501                	addi	a0,a0,0
    1994:	01030603          	lb	a2,16(t1)
    1998:	0809                	addi	a6,a6,2
    199a:	0100                	addi	s0,sp,128
    199c:	2c05                	jal	1bcc <_min_stack-0x434>
    199e:	0306                	slli	t1,t1,0x1
    19a0:	0900                	addi	s0,sp,144
    19a2:	0000                	unimp
    19a4:	0501                	addi	a0,a0,0
    19a6:	01030603          	lb	a2,16(t1)
    19aa:	0809                	addi	a6,a6,2
    19ac:	0100                	addi	s0,sp,128
    19ae:	2c05                	jal	1bde <_min_stack-0x422>
    19b0:	0306                	slli	t1,t1,0x1
    19b2:	0900                	addi	s0,sp,144
    19b4:	0000                	unimp
    19b6:	0501                	addi	a0,a0,0
    19b8:	01030603          	lb	a2,16(t1)
    19bc:	0809                	addi	a6,a6,2
    19be:	0100                	addi	s0,sp,128
    19c0:	2c05                	jal	1bf0 <_min_stack-0x410>
    19c2:	0306                	slli	t1,t1,0x1
    19c4:	0900                	addi	s0,sp,144
    19c6:	0000                	unimp
    19c8:	0501                	addi	a0,a0,0
    19ca:	01030603          	lb	a2,16(t1)
    19ce:	0809                	addi	a6,a6,2
    19d0:	0100                	addi	s0,sp,128
    19d2:	2c05                	jal	1c02 <_min_stack-0x3fe>
    19d4:	0306                	slli	t1,t1,0x1
    19d6:	0900                	addi	s0,sp,144
    19d8:	0000                	unimp
    19da:	0501                	addi	a0,a0,0
    19dc:	01030603          	lb	a2,16(t1)
    19e0:	0809                	addi	a6,a6,2
    19e2:	0100                	addi	s0,sp,128
    19e4:	2c05                	jal	1c14 <_min_stack-0x3ec>
    19e6:	0306                	slli	t1,t1,0x1
    19e8:	0900                	addi	s0,sp,144
    19ea:	0000                	unimp
    19ec:	0501                	addi	a0,a0,0
    19ee:	01030603          	lb	a2,16(t1)
    19f2:	0809                	addi	a6,a6,2
    19f4:	0100                	addi	s0,sp,128
    19f6:	2c05                	jal	1c26 <_min_stack-0x3da>
    19f8:	0306                	slli	t1,t1,0x1
    19fa:	0900                	addi	s0,sp,144
    19fc:	0000                	unimp
    19fe:	0501                	addi	a0,a0,0
    1a00:	01030603          	lb	a2,16(t1)
    1a04:	0809                	addi	a6,a6,2
    1a06:	0100                	addi	s0,sp,128
    1a08:	2c05                	jal	1c38 <_min_stack-0x3c8>
    1a0a:	0306                	slli	t1,t1,0x1
    1a0c:	0900                	addi	s0,sp,144
    1a0e:	0000                	unimp
    1a10:	0501                	addi	a0,a0,0
    1a12:	01030603          	lb	a2,16(t1)
    1a16:	0809                	addi	a6,a6,2
    1a18:	0100                	addi	s0,sp,128
    1a1a:	2c05                	jal	1c4a <_min_stack-0x3b6>
    1a1c:	0306                	slli	t1,t1,0x1
    1a1e:	0900                	addi	s0,sp,144
    1a20:	0000                	unimp
    1a22:	0501                	addi	a0,a0,0
    1a24:	01030603          	lb	a2,16(t1)
    1a28:	0809                	addi	a6,a6,2
    1a2a:	0100                	addi	s0,sp,128
    1a2c:	2c05                	jal	1c5c <_min_stack-0x3a4>
    1a2e:	0306                	slli	t1,t1,0x1
    1a30:	0900                	addi	s0,sp,144
    1a32:	0000                	unimp
    1a34:	0501                	addi	a0,a0,0
    1a36:	01030603          	lb	a2,16(t1)
    1a3a:	0809                	addi	a6,a6,2
    1a3c:	0100                	addi	s0,sp,128
    1a3e:	2c05                	jal	1c6e <_min_stack-0x392>
    1a40:	0306                	slli	t1,t1,0x1
    1a42:	0900                	addi	s0,sp,144
    1a44:	0000                	unimp
    1a46:	0501                	addi	a0,a0,0
    1a48:	01030603          	lb	a2,16(t1)
    1a4c:	0809                	addi	a6,a6,2
    1a4e:	0100                	addi	s0,sp,128
    1a50:	2c05                	jal	1c80 <_min_stack-0x380>
    1a52:	0306                	slli	t1,t1,0x1
    1a54:	0900                	addi	s0,sp,144
    1a56:	0000                	unimp
    1a58:	0501                	addi	a0,a0,0
    1a5a:	01030603          	lb	a2,16(t1)
    1a5e:	0809                	addi	a6,a6,2
    1a60:	0100                	addi	s0,sp,128
    1a62:	2c05                	jal	1c92 <_min_stack-0x36e>
    1a64:	0306                	slli	t1,t1,0x1
    1a66:	0900                	addi	s0,sp,144
    1a68:	0000                	unimp
    1a6a:	0501                	addi	a0,a0,0
    1a6c:	01030603          	lb	a2,16(t1)
    1a70:	0809                	addi	a6,a6,2
    1a72:	0100                	addi	s0,sp,128
    1a74:	2c05                	jal	1ca4 <_min_stack-0x35c>
    1a76:	0306                	slli	t1,t1,0x1
    1a78:	0900                	addi	s0,sp,144
    1a7a:	0000                	unimp
    1a7c:	0501                	addi	a0,a0,0
    1a7e:	01030603          	lb	a2,16(t1)
    1a82:	0809                	addi	a6,a6,2
    1a84:	0100                	addi	s0,sp,128
    1a86:	2c05                	jal	1cb6 <_min_stack-0x34a>
    1a88:	0306                	slli	t1,t1,0x1
    1a8a:	0900                	addi	s0,sp,144
    1a8c:	0000                	unimp
    1a8e:	0501                	addi	a0,a0,0
    1a90:	01030603          	lb	a2,16(t1)
    1a94:	0809                	addi	a6,a6,2
    1a96:	0100                	addi	s0,sp,128
    1a98:	2c05                	jal	1cc8 <_min_stack-0x338>
    1a9a:	0306                	slli	t1,t1,0x1
    1a9c:	0900                	addi	s0,sp,144
    1a9e:	0000                	unimp
    1aa0:	0501                	addi	a0,a0,0
    1aa2:	01030603          	lb	a2,16(t1)
    1aa6:	0809                	addi	a6,a6,2
    1aa8:	0100                	addi	s0,sp,128
    1aaa:	2c05                	jal	1cda <_min_stack-0x326>
    1aac:	0306                	slli	t1,t1,0x1
    1aae:	0900                	addi	s0,sp,144
    1ab0:	0000                	unimp
    1ab2:	0501                	addi	a0,a0,0
    1ab4:	01030603          	lb	a2,16(t1)
    1ab8:	0809                	addi	a6,a6,2
    1aba:	0100                	addi	s0,sp,128
    1abc:	2c05                	jal	1cec <_min_stack-0x314>
    1abe:	0306                	slli	t1,t1,0x1
    1ac0:	0900                	addi	s0,sp,144
    1ac2:	0000                	unimp
    1ac4:	0501                	addi	a0,a0,0
    1ac6:	01030603          	lb	a2,16(t1)
    1aca:	0809                	addi	a6,a6,2
    1acc:	0100                	addi	s0,sp,128
    1ace:	2c05                	jal	1cfe <_min_stack-0x302>
    1ad0:	0306                	slli	t1,t1,0x1
    1ad2:	0900                	addi	s0,sp,144
    1ad4:	0000                	unimp
    1ad6:	0501                	addi	a0,a0,0
    1ad8:	01030603          	lb	a2,16(t1)
    1adc:	0809                	addi	a6,a6,2
    1ade:	0100                	addi	s0,sp,128
    1ae0:	2c05                	jal	1d10 <_min_stack-0x2f0>
    1ae2:	0306                	slli	t1,t1,0x1
    1ae4:	0900                	addi	s0,sp,144
    1ae6:	0000                	unimp
    1ae8:	0501                	addi	a0,a0,0
    1aea:	01030603          	lb	a2,16(t1)
    1aee:	0809                	addi	a6,a6,2
    1af0:	0100                	addi	s0,sp,128
    1af2:	2c05                	jal	1d22 <_min_stack-0x2de>
    1af4:	0306                	slli	t1,t1,0x1
    1af6:	0900                	addi	s0,sp,144
    1af8:	0000                	unimp
    1afa:	0501                	addi	a0,a0,0
    1afc:	01030603          	lb	a2,16(t1)
    1b00:	0809                	addi	a6,a6,2
    1b02:	0100                	addi	s0,sp,128
    1b04:	2c05                	jal	1d34 <_min_stack-0x2cc>
    1b06:	0306                	slli	t1,t1,0x1
    1b08:	0900                	addi	s0,sp,144
    1b0a:	0000                	unimp
    1b0c:	0501                	addi	a0,a0,0
    1b0e:	01030603          	lb	a2,16(t1)
    1b12:	0809                	addi	a6,a6,2
    1b14:	0100                	addi	s0,sp,128
    1b16:	2c05                	jal	1d46 <_min_stack-0x2ba>
    1b18:	0306                	slli	t1,t1,0x1
    1b1a:	0900                	addi	s0,sp,144
    1b1c:	0000                	unimp
    1b1e:	0501                	addi	a0,a0,0
    1b20:	01030603          	lb	a2,16(t1)
    1b24:	0809                	addi	a6,a6,2
    1b26:	0100                	addi	s0,sp,128
    1b28:	2c05                	jal	1d58 <_min_stack-0x2a8>
    1b2a:	0306                	slli	t1,t1,0x1
    1b2c:	0900                	addi	s0,sp,144
    1b2e:	0000                	unimp
    1b30:	0501                	addi	a0,a0,0
    1b32:	01030603          	lb	a2,16(t1)
    1b36:	0809                	addi	a6,a6,2
    1b38:	0100                	addi	s0,sp,128
    1b3a:	2c05                	jal	1d6a <_min_stack-0x296>
    1b3c:	0306                	slli	t1,t1,0x1
    1b3e:	0900                	addi	s0,sp,144
    1b40:	0000                	unimp
    1b42:	0501                	addi	a0,a0,0
    1b44:	01030603          	lb	a2,16(t1)
    1b48:	0809                	addi	a6,a6,2
    1b4a:	0100                	addi	s0,sp,128
    1b4c:	2c05                	jal	1d7c <_min_stack-0x284>
    1b4e:	0306                	slli	t1,t1,0x1
    1b50:	0900                	addi	s0,sp,144
    1b52:	0000                	unimp
    1b54:	0501                	addi	a0,a0,0
    1b56:	01030603          	lb	a2,16(t1)
    1b5a:	0809                	addi	a6,a6,2
    1b5c:	0100                	addi	s0,sp,128
    1b5e:	2c05                	jal	1d8e <_min_stack-0x272>
    1b60:	0306                	slli	t1,t1,0x1
    1b62:	0900                	addi	s0,sp,144
    1b64:	0000                	unimp
    1b66:	0501                	addi	a0,a0,0
    1b68:	01030603          	lb	a2,16(t1)
    1b6c:	0809                	addi	a6,a6,2
    1b6e:	0100                	addi	s0,sp,128
    1b70:	2c05                	jal	1da0 <_min_stack-0x260>
    1b72:	0306                	slli	t1,t1,0x1
    1b74:	0900                	addi	s0,sp,144
    1b76:	0000                	unimp
    1b78:	0501                	addi	a0,a0,0
    1b7a:	01030603          	lb	a2,16(t1)
    1b7e:	0809                	addi	a6,a6,2
    1b80:	0100                	addi	s0,sp,128
    1b82:	2c05                	jal	1db2 <_min_stack-0x24e>
    1b84:	0306                	slli	t1,t1,0x1
    1b86:	0900                	addi	s0,sp,144
    1b88:	0000                	unimp
    1b8a:	0501                	addi	a0,a0,0
    1b8c:	01030603          	lb	a2,16(t1)
    1b90:	0809                	addi	a6,a6,2
    1b92:	0100                	addi	s0,sp,128
    1b94:	2c05                	jal	1dc4 <_min_stack-0x23c>
    1b96:	0306                	slli	t1,t1,0x1
    1b98:	0900                	addi	s0,sp,144
    1b9a:	0000                	unimp
    1b9c:	0501                	addi	a0,a0,0
    1b9e:	01030603          	lb	a2,16(t1)
    1ba2:	0809                	addi	a6,a6,2
    1ba4:	0100                	addi	s0,sp,128
    1ba6:	2c05                	jal	1dd6 <_min_stack-0x22a>
    1ba8:	0306                	slli	t1,t1,0x1
    1baa:	0900                	addi	s0,sp,144
    1bac:	0000                	unimp
    1bae:	0501                	addi	a0,a0,0
    1bb0:	01030603          	lb	a2,16(t1)
    1bb4:	0809                	addi	a6,a6,2
    1bb6:	0100                	addi	s0,sp,128
    1bb8:	2c05                	jal	1de8 <_min_stack-0x218>
    1bba:	0306                	slli	t1,t1,0x1
    1bbc:	0900                	addi	s0,sp,144
    1bbe:	0000                	unimp
    1bc0:	0501                	addi	a0,a0,0
    1bc2:	01030603          	lb	a2,16(t1)
    1bc6:	0809                	addi	a6,a6,2
    1bc8:	0100                	addi	s0,sp,128
    1bca:	2c05                	jal	1dfa <_min_stack-0x206>
    1bcc:	0306                	slli	t1,t1,0x1
    1bce:	0900                	addi	s0,sp,144
    1bd0:	0000                	unimp
    1bd2:	0501                	addi	a0,a0,0
    1bd4:	01030603          	lb	a2,16(t1)
    1bd8:	0809                	addi	a6,a6,2
    1bda:	0100                	addi	s0,sp,128
    1bdc:	2c05                	jal	1e0c <_min_stack-0x1f4>
    1bde:	0306                	slli	t1,t1,0x1
    1be0:	0900                	addi	s0,sp,144
    1be2:	0000                	unimp
    1be4:	0501                	addi	a0,a0,0
    1be6:	01030603          	lb	a2,16(t1)
    1bea:	0809                	addi	a6,a6,2
    1bec:	0100                	addi	s0,sp,128
    1bee:	2c05                	jal	1e1e <_min_stack-0x1e2>
    1bf0:	0306                	slli	t1,t1,0x1
    1bf2:	0900                	addi	s0,sp,144
    1bf4:	0000                	unimp
    1bf6:	0501                	addi	a0,a0,0
    1bf8:	01030603          	lb	a2,16(t1)
    1bfc:	0809                	addi	a6,a6,2
    1bfe:	0100                	addi	s0,sp,128
    1c00:	2c05                	jal	1e30 <_min_stack-0x1d0>
    1c02:	0306                	slli	t1,t1,0x1
    1c04:	0900                	addi	s0,sp,144
    1c06:	0000                	unimp
    1c08:	0501                	addi	a0,a0,0
    1c0a:	01030603          	lb	a2,16(t1)
    1c0e:	0809                	addi	a6,a6,2
    1c10:	0100                	addi	s0,sp,128
    1c12:	2c05                	jal	1e42 <_min_stack-0x1be>
    1c14:	0306                	slli	t1,t1,0x1
    1c16:	0900                	addi	s0,sp,144
    1c18:	0000                	unimp
    1c1a:	0501                	addi	a0,a0,0
    1c1c:	01030603          	lb	a2,16(t1)
    1c20:	0809                	addi	a6,a6,2
    1c22:	0100                	addi	s0,sp,128
    1c24:	2c05                	jal	1e54 <_min_stack-0x1ac>
    1c26:	0306                	slli	t1,t1,0x1
    1c28:	0900                	addi	s0,sp,144
    1c2a:	0000                	unimp
    1c2c:	0501                	addi	a0,a0,0
    1c2e:	01030603          	lb	a2,16(t1)
    1c32:	0809                	addi	a6,a6,2
    1c34:	0100                	addi	s0,sp,128
    1c36:	2c05                	jal	1e66 <_min_stack-0x19a>
    1c38:	0306                	slli	t1,t1,0x1
    1c3a:	0900                	addi	s0,sp,144
    1c3c:	0000                	unimp
    1c3e:	0501                	addi	a0,a0,0
    1c40:	01030603          	lb	a2,16(t1)
    1c44:	0809                	addi	a6,a6,2
    1c46:	0100                	addi	s0,sp,128
    1c48:	2c05                	jal	1e78 <_min_stack-0x188>
    1c4a:	0306                	slli	t1,t1,0x1
    1c4c:	0900                	addi	s0,sp,144
    1c4e:	0000                	unimp
    1c50:	0501                	addi	a0,a0,0
    1c52:	01030603          	lb	a2,16(t1)
    1c56:	0809                	addi	a6,a6,2
    1c58:	0100                	addi	s0,sp,128
    1c5a:	2c05                	jal	1e8a <_min_stack-0x176>
    1c5c:	0306                	slli	t1,t1,0x1
    1c5e:	0900                	addi	s0,sp,144
    1c60:	0000                	unimp
    1c62:	0501                	addi	a0,a0,0
    1c64:	01030603          	lb	a2,16(t1)
    1c68:	0809                	addi	a6,a6,2
    1c6a:	0100                	addi	s0,sp,128
    1c6c:	2c05                	jal	1e9c <_min_stack-0x164>
    1c6e:	0306                	slli	t1,t1,0x1
    1c70:	0900                	addi	s0,sp,144
    1c72:	0000                	unimp
    1c74:	0501                	addi	a0,a0,0
    1c76:	01030603          	lb	a2,16(t1)
    1c7a:	0809                	addi	a6,a6,2
    1c7c:	0100                	addi	s0,sp,128
    1c7e:	2c05                	jal	1eae <_min_stack-0x152>
    1c80:	0306                	slli	t1,t1,0x1
    1c82:	0900                	addi	s0,sp,144
    1c84:	0000                	unimp
    1c86:	0501                	addi	a0,a0,0
    1c88:	01030603          	lb	a2,16(t1)
    1c8c:	0809                	addi	a6,a6,2
    1c8e:	0100                	addi	s0,sp,128
    1c90:	2c05                	jal	1ec0 <_min_stack-0x140>
    1c92:	0306                	slli	t1,t1,0x1
    1c94:	0900                	addi	s0,sp,144
    1c96:	0000                	unimp
    1c98:	0501                	addi	a0,a0,0
    1c9a:	01030603          	lb	a2,16(t1)
    1c9e:	0809                	addi	a6,a6,2
    1ca0:	0100                	addi	s0,sp,128
    1ca2:	2c05                	jal	1ed2 <_min_stack-0x12e>
    1ca4:	0306                	slli	t1,t1,0x1
    1ca6:	0900                	addi	s0,sp,144
    1ca8:	0000                	unimp
    1caa:	0501                	addi	a0,a0,0
    1cac:	01030603          	lb	a2,16(t1)
    1cb0:	0809                	addi	a6,a6,2
    1cb2:	0100                	addi	s0,sp,128
    1cb4:	2c05                	jal	1ee4 <_min_stack-0x11c>
    1cb6:	0306                	slli	t1,t1,0x1
    1cb8:	0900                	addi	s0,sp,144
    1cba:	0000                	unimp
    1cbc:	0501                	addi	a0,a0,0
    1cbe:	01030603          	lb	a2,16(t1)
    1cc2:	0809                	addi	a6,a6,2
    1cc4:	0100                	addi	s0,sp,128
    1cc6:	2c05                	jal	1ef6 <_min_stack-0x10a>
    1cc8:	0306                	slli	t1,t1,0x1
    1cca:	0900                	addi	s0,sp,144
    1ccc:	0000                	unimp
    1cce:	0501                	addi	a0,a0,0
    1cd0:	01030603          	lb	a2,16(t1)
    1cd4:	0809                	addi	a6,a6,2
    1cd6:	0100                	addi	s0,sp,128
    1cd8:	2c05                	jal	1f08 <_min_stack-0xf8>
    1cda:	0306                	slli	t1,t1,0x1
    1cdc:	0900                	addi	s0,sp,144
    1cde:	0000                	unimp
    1ce0:	0501                	addi	a0,a0,0
    1ce2:	01030603          	lb	a2,16(t1)
    1ce6:	0809                	addi	a6,a6,2
    1ce8:	0100                	addi	s0,sp,128
    1cea:	2c05                	jal	1f1a <_min_stack-0xe6>
    1cec:	0306                	slli	t1,t1,0x1
    1cee:	0900                	addi	s0,sp,144
    1cf0:	0000                	unimp
    1cf2:	0501                	addi	a0,a0,0
    1cf4:	01030603          	lb	a2,16(t1)
    1cf8:	0809                	addi	a6,a6,2
    1cfa:	0100                	addi	s0,sp,128
    1cfc:	2c05                	jal	1f2c <_min_stack-0xd4>
    1cfe:	0306                	slli	t1,t1,0x1
    1d00:	0900                	addi	s0,sp,144
    1d02:	0000                	unimp
    1d04:	0501                	addi	a0,a0,0
    1d06:	01030603          	lb	a2,16(t1)
    1d0a:	0809                	addi	a6,a6,2
    1d0c:	0100                	addi	s0,sp,128
    1d0e:	2c05                	jal	1f3e <_min_stack-0xc2>
    1d10:	0306                	slli	t1,t1,0x1
    1d12:	0900                	addi	s0,sp,144
    1d14:	0000                	unimp
    1d16:	0501                	addi	a0,a0,0
    1d18:	01030603          	lb	a2,16(t1)
    1d1c:	0809                	addi	a6,a6,2
    1d1e:	0100                	addi	s0,sp,128
    1d20:	2c05                	jal	1f50 <_min_stack-0xb0>
    1d22:	0306                	slli	t1,t1,0x1
    1d24:	0900                	addi	s0,sp,144
    1d26:	0000                	unimp
    1d28:	0501                	addi	a0,a0,0
    1d2a:	01030603          	lb	a2,16(t1)
    1d2e:	0809                	addi	a6,a6,2
    1d30:	0100                	addi	s0,sp,128
    1d32:	2c05                	jal	1f62 <_min_stack-0x9e>
    1d34:	0306                	slli	t1,t1,0x1
    1d36:	0900                	addi	s0,sp,144
    1d38:	0000                	unimp
    1d3a:	0501                	addi	a0,a0,0
    1d3c:	01030603          	lb	a2,16(t1)
    1d40:	0809                	addi	a6,a6,2
    1d42:	0100                	addi	s0,sp,128
    1d44:	2c05                	jal	1f74 <_min_stack-0x8c>
    1d46:	0306                	slli	t1,t1,0x1
    1d48:	0900                	addi	s0,sp,144
    1d4a:	0000                	unimp
    1d4c:	0501                	addi	a0,a0,0
    1d4e:	01030603          	lb	a2,16(t1)
    1d52:	0809                	addi	a6,a6,2
    1d54:	0100                	addi	s0,sp,128
    1d56:	2c05                	jal	1f86 <_min_stack-0x7a>
    1d58:	0306                	slli	t1,t1,0x1
    1d5a:	0900                	addi	s0,sp,144
    1d5c:	0000                	unimp
    1d5e:	0501                	addi	a0,a0,0
    1d60:	01030603          	lb	a2,16(t1)
    1d64:	0809                	addi	a6,a6,2
    1d66:	0100                	addi	s0,sp,128
    1d68:	2c05                	jal	1f98 <_min_stack-0x68>
    1d6a:	0306                	slli	t1,t1,0x1
    1d6c:	0900                	addi	s0,sp,144
    1d6e:	0000                	unimp
    1d70:	0501                	addi	a0,a0,0
    1d72:	01030603          	lb	a2,16(t1)
    1d76:	0809                	addi	a6,a6,2
    1d78:	0100                	addi	s0,sp,128
    1d7a:	2c05                	jal	1faa <_min_stack-0x56>
    1d7c:	0306                	slli	t1,t1,0x1
    1d7e:	0900                	addi	s0,sp,144
    1d80:	0000                	unimp
    1d82:	0501                	addi	a0,a0,0
    1d84:	01030603          	lb	a2,16(t1)
    1d88:	0809                	addi	a6,a6,2
    1d8a:	0100                	addi	s0,sp,128
    1d8c:	2c05                	jal	1fbc <_min_stack-0x44>
    1d8e:	0306                	slli	t1,t1,0x1
    1d90:	0900                	addi	s0,sp,144
    1d92:	0000                	unimp
    1d94:	0501                	addi	a0,a0,0
    1d96:	01030603          	lb	a2,16(t1)
    1d9a:	0809                	addi	a6,a6,2
    1d9c:	0100                	addi	s0,sp,128
    1d9e:	2c05                	jal	1fce <_min_stack-0x32>
    1da0:	0306                	slli	t1,t1,0x1
    1da2:	0900                	addi	s0,sp,144
    1da4:	0000                	unimp
    1da6:	0501                	addi	a0,a0,0
    1da8:	01030603          	lb	a2,16(t1)
    1dac:	0809                	addi	a6,a6,2
    1dae:	0100                	addi	s0,sp,128
    1db0:	2c05                	jal	1fe0 <_min_stack-0x20>
    1db2:	0306                	slli	t1,t1,0x1
    1db4:	0900                	addi	s0,sp,144
    1db6:	0000                	unimp
    1db8:	0501                	addi	a0,a0,0
    1dba:	01030603          	lb	a2,16(t1)
    1dbe:	0809                	addi	a6,a6,2
    1dc0:	0100                	addi	s0,sp,128
    1dc2:	2c05                	jal	1ff2 <_min_stack-0xe>
    1dc4:	0306                	slli	t1,t1,0x1
    1dc6:	0900                	addi	s0,sp,144
    1dc8:	0000                	unimp
    1dca:	0501                	addi	a0,a0,0
    1dcc:	01030603          	lb	a2,16(t1)
    1dd0:	0809                	addi	a6,a6,2
    1dd2:	0100                	addi	s0,sp,128
    1dd4:	2c05                	jal	2004 <_min_stack+0x4>
    1dd6:	0306                	slli	t1,t1,0x1
    1dd8:	0900                	addi	s0,sp,144
    1dda:	0000                	unimp
    1ddc:	0501                	addi	a0,a0,0
    1dde:	01030603          	lb	a2,16(t1)
    1de2:	0809                	addi	a6,a6,2
    1de4:	0100                	addi	s0,sp,128
    1de6:	2c05                	jal	2016 <_min_stack+0x16>
    1de8:	0306                	slli	t1,t1,0x1
    1dea:	0900                	addi	s0,sp,144
    1dec:	0000                	unimp
    1dee:	0501                	addi	a0,a0,0
    1df0:	01030603          	lb	a2,16(t1)
    1df4:	0809                	addi	a6,a6,2
    1df6:	0100                	addi	s0,sp,128
    1df8:	2c05                	jal	2028 <_min_stack+0x28>
    1dfa:	0306                	slli	t1,t1,0x1
    1dfc:	0900                	addi	s0,sp,144
    1dfe:	0000                	unimp
    1e00:	0501                	addi	a0,a0,0
    1e02:	01030603          	lb	a2,16(t1)
    1e06:	0809                	addi	a6,a6,2
    1e08:	0100                	addi	s0,sp,128
    1e0a:	2c05                	jal	203a <_min_stack+0x3a>
    1e0c:	0306                	slli	t1,t1,0x1
    1e0e:	0900                	addi	s0,sp,144
    1e10:	0000                	unimp
    1e12:	0501                	addi	a0,a0,0
    1e14:	01030603          	lb	a2,16(t1)
    1e18:	0809                	addi	a6,a6,2
    1e1a:	0100                	addi	s0,sp,128
    1e1c:	2c05                	jal	204c <_min_stack+0x4c>
    1e1e:	0306                	slli	t1,t1,0x1
    1e20:	0900                	addi	s0,sp,144
    1e22:	0000                	unimp
    1e24:	0501                	addi	a0,a0,0
    1e26:	01030603          	lb	a2,16(t1)
    1e2a:	0809                	addi	a6,a6,2
    1e2c:	0100                	addi	s0,sp,128
    1e2e:	2c05                	jal	205e <_min_stack+0x5e>
    1e30:	0306                	slli	t1,t1,0x1
    1e32:	0900                	addi	s0,sp,144
    1e34:	0000                	unimp
    1e36:	0501                	addi	a0,a0,0
    1e38:	01030603          	lb	a2,16(t1)
    1e3c:	0809                	addi	a6,a6,2
    1e3e:	0100                	addi	s0,sp,128
    1e40:	2c05                	jal	2070 <_min_stack+0x70>
    1e42:	0306                	slli	t1,t1,0x1
    1e44:	0900                	addi	s0,sp,144
    1e46:	0000                	unimp
    1e48:	0501                	addi	a0,a0,0
    1e4a:	01030603          	lb	a2,16(t1)
    1e4e:	0809                	addi	a6,a6,2
    1e50:	0100                	addi	s0,sp,128
    1e52:	2c05                	jal	2082 <_min_stack+0x82>
    1e54:	0306                	slli	t1,t1,0x1
    1e56:	0900                	addi	s0,sp,144
    1e58:	0000                	unimp
    1e5a:	0501                	addi	a0,a0,0
    1e5c:	01030603          	lb	a2,16(t1)
    1e60:	0809                	addi	a6,a6,2
    1e62:	0100                	addi	s0,sp,128
    1e64:	2c05                	jal	2094 <_min_stack+0x94>
    1e66:	0306                	slli	t1,t1,0x1
    1e68:	0900                	addi	s0,sp,144
    1e6a:	0000                	unimp
    1e6c:	0501                	addi	a0,a0,0
    1e6e:	01030603          	lb	a2,16(t1)
    1e72:	0809                	addi	a6,a6,2
    1e74:	0100                	addi	s0,sp,128
    1e76:	2c05                	jal	20a6 <_min_stack+0xa6>
    1e78:	0306                	slli	t1,t1,0x1
    1e7a:	0900                	addi	s0,sp,144
    1e7c:	0000                	unimp
    1e7e:	0501                	addi	a0,a0,0
    1e80:	01030603          	lb	a2,16(t1)
    1e84:	0809                	addi	a6,a6,2
    1e86:	0100                	addi	s0,sp,128
    1e88:	2c05                	jal	20b8 <_min_stack+0xb8>
    1e8a:	0306                	slli	t1,t1,0x1
    1e8c:	0900                	addi	s0,sp,144
    1e8e:	0000                	unimp
    1e90:	0501                	addi	a0,a0,0
    1e92:	01030603          	lb	a2,16(t1)
    1e96:	0809                	addi	a6,a6,2
    1e98:	0100                	addi	s0,sp,128
    1e9a:	2c05                	jal	20ca <_min_stack+0xca>
    1e9c:	0306                	slli	t1,t1,0x1
    1e9e:	0900                	addi	s0,sp,144
    1ea0:	0000                	unimp
    1ea2:	0501                	addi	a0,a0,0
    1ea4:	01030603          	lb	a2,16(t1)
    1ea8:	0809                	addi	a6,a6,2
    1eaa:	0100                	addi	s0,sp,128
    1eac:	2c05                	jal	20dc <_min_stack+0xdc>
    1eae:	0306                	slli	t1,t1,0x1
    1eb0:	0900                	addi	s0,sp,144
    1eb2:	0000                	unimp
    1eb4:	0501                	addi	a0,a0,0
    1eb6:	01030603          	lb	a2,16(t1)
    1eba:	0809                	addi	a6,a6,2
    1ebc:	0100                	addi	s0,sp,128
    1ebe:	2c05                	jal	20ee <_min_stack+0xee>
    1ec0:	0306                	slli	t1,t1,0x1
    1ec2:	0900                	addi	s0,sp,144
    1ec4:	0000                	unimp
    1ec6:	0501                	addi	a0,a0,0
    1ec8:	01030603          	lb	a2,16(t1)
    1ecc:	0809                	addi	a6,a6,2
    1ece:	0100                	addi	s0,sp,128
    1ed0:	2c05                	jal	2100 <_min_stack+0x100>
    1ed2:	0306                	slli	t1,t1,0x1
    1ed4:	0900                	addi	s0,sp,144
    1ed6:	0000                	unimp
    1ed8:	0501                	addi	a0,a0,0
    1eda:	01030603          	lb	a2,16(t1)
    1ede:	0809                	addi	a6,a6,2
    1ee0:	0100                	addi	s0,sp,128
    1ee2:	2c05                	jal	2112 <_min_stack+0x112>
    1ee4:	0306                	slli	t1,t1,0x1
    1ee6:	0900                	addi	s0,sp,144
    1ee8:	0000                	unimp
    1eea:	0501                	addi	a0,a0,0
    1eec:	01030603          	lb	a2,16(t1)
    1ef0:	0809                	addi	a6,a6,2
    1ef2:	0100                	addi	s0,sp,128
    1ef4:	2c05                	jal	2124 <_min_stack+0x124>
    1ef6:	0306                	slli	t1,t1,0x1
    1ef8:	0900                	addi	s0,sp,144
    1efa:	0000                	unimp
    1efc:	0501                	addi	a0,a0,0
    1efe:	01030603          	lb	a2,16(t1)
    1f02:	0809                	addi	a6,a6,2
    1f04:	0100                	addi	s0,sp,128
    1f06:	2c05                	jal	2136 <_min_stack+0x136>
    1f08:	0306                	slli	t1,t1,0x1
    1f0a:	0900                	addi	s0,sp,144
    1f0c:	0000                	unimp
    1f0e:	0501                	addi	a0,a0,0
    1f10:	01030603          	lb	a2,16(t1)
    1f14:	0809                	addi	a6,a6,2
    1f16:	0100                	addi	s0,sp,128
    1f18:	2c05                	jal	2148 <_min_stack+0x148>
    1f1a:	0306                	slli	t1,t1,0x1
    1f1c:	0900                	addi	s0,sp,144
    1f1e:	0000                	unimp
    1f20:	0501                	addi	a0,a0,0
    1f22:	01030603          	lb	a2,16(t1)
    1f26:	0809                	addi	a6,a6,2
    1f28:	0100                	addi	s0,sp,128
    1f2a:	2c05                	jal	215a <_min_stack+0x15a>
    1f2c:	0306                	slli	t1,t1,0x1
    1f2e:	0900                	addi	s0,sp,144
    1f30:	0000                	unimp
    1f32:	0501                	addi	a0,a0,0
    1f34:	01030603          	lb	a2,16(t1)
    1f38:	0809                	addi	a6,a6,2
    1f3a:	0100                	addi	s0,sp,128
    1f3c:	2c05                	jal	216c <_min_stack+0x16c>
    1f3e:	0306                	slli	t1,t1,0x1
    1f40:	0900                	addi	s0,sp,144
    1f42:	0000                	unimp
    1f44:	0501                	addi	a0,a0,0
    1f46:	01030603          	lb	a2,16(t1)
    1f4a:	0809                	addi	a6,a6,2
    1f4c:	0100                	addi	s0,sp,128
    1f4e:	2c05                	jal	217e <_min_stack+0x17e>
    1f50:	0306                	slli	t1,t1,0x1
    1f52:	0900                	addi	s0,sp,144
    1f54:	0000                	unimp
    1f56:	0501                	addi	a0,a0,0
    1f58:	01030603          	lb	a2,16(t1)
    1f5c:	0809                	addi	a6,a6,2
    1f5e:	0100                	addi	s0,sp,128
    1f60:	2c05                	jal	2190 <_min_stack+0x190>
    1f62:	0306                	slli	t1,t1,0x1
    1f64:	0900                	addi	s0,sp,144
    1f66:	0000                	unimp
    1f68:	0501                	addi	a0,a0,0
    1f6a:	01030603          	lb	a2,16(t1)
    1f6e:	0809                	addi	a6,a6,2
    1f70:	0100                	addi	s0,sp,128
    1f72:	2c05                	jal	21a2 <_min_stack+0x1a2>
    1f74:	0306                	slli	t1,t1,0x1
    1f76:	0900                	addi	s0,sp,144
    1f78:	0000                	unimp
    1f7a:	0501                	addi	a0,a0,0
    1f7c:	01030603          	lb	a2,16(t1)
    1f80:	0809                	addi	a6,a6,2
    1f82:	0100                	addi	s0,sp,128
    1f84:	2c05                	jal	21b4 <_min_stack+0x1b4>
    1f86:	0306                	slli	t1,t1,0x1
    1f88:	0900                	addi	s0,sp,144
    1f8a:	0000                	unimp
    1f8c:	0501                	addi	a0,a0,0
    1f8e:	01030603          	lb	a2,16(t1)
    1f92:	0809                	addi	a6,a6,2
    1f94:	0100                	addi	s0,sp,128
    1f96:	2c05                	jal	21c6 <_min_stack+0x1c6>
    1f98:	0306                	slli	t1,t1,0x1
    1f9a:	0900                	addi	s0,sp,144
    1f9c:	0000                	unimp
    1f9e:	0501                	addi	a0,a0,0
    1fa0:	01030603          	lb	a2,16(t1)
    1fa4:	0809                	addi	a6,a6,2
    1fa6:	0100                	addi	s0,sp,128
    1fa8:	2c05                	jal	21d8 <_min_stack+0x1d8>
    1faa:	0306                	slli	t1,t1,0x1
    1fac:	0900                	addi	s0,sp,144
    1fae:	0000                	unimp
    1fb0:	0501                	addi	a0,a0,0
    1fb2:	01030603          	lb	a2,16(t1)
    1fb6:	0809                	addi	a6,a6,2
    1fb8:	0100                	addi	s0,sp,128
    1fba:	2c05                	jal	21ea <_min_stack+0x1ea>
    1fbc:	0306                	slli	t1,t1,0x1
    1fbe:	0900                	addi	s0,sp,144
    1fc0:	0000                	unimp
    1fc2:	0501                	addi	a0,a0,0
    1fc4:	01030603          	lb	a2,16(t1)
    1fc8:	0809                	addi	a6,a6,2
    1fca:	0100                	addi	s0,sp,128
    1fcc:	2c05                	jal	21fc <_min_stack+0x1fc>
    1fce:	0306                	slli	t1,t1,0x1
    1fd0:	0900                	addi	s0,sp,144
    1fd2:	0000                	unimp
    1fd4:	0501                	addi	a0,a0,0
    1fd6:	01030603          	lb	a2,16(t1)
    1fda:	0809                	addi	a6,a6,2
    1fdc:	0100                	addi	s0,sp,128
    1fde:	2c05                	jal	220e <_min_stack+0x20e>
    1fe0:	0306                	slli	t1,t1,0x1
    1fe2:	0900                	addi	s0,sp,144
    1fe4:	0000                	unimp
    1fe6:	0501                	addi	a0,a0,0
    1fe8:	01030603          	lb	a2,16(t1)
    1fec:	0809                	addi	a6,a6,2
    1fee:	0100                	addi	s0,sp,128
    1ff0:	2c05                	jal	2220 <_min_stack+0x220>
    1ff2:	0306                	slli	t1,t1,0x1
    1ff4:	0900                	addi	s0,sp,144
    1ff6:	0000                	unimp
    1ff8:	0501                	addi	a0,a0,0
    1ffa:	01030603          	lb	a2,16(t1)
    1ffe:	0809                	addi	a6,a6,2
    2000:	0100                	addi	s0,sp,128
    2002:	2c05                	jal	2232 <_min_stack+0x232>
    2004:	0306                	slli	t1,t1,0x1
    2006:	0900                	addi	s0,sp,144
    2008:	0000                	unimp
    200a:	0501                	addi	a0,a0,0
    200c:	01030603          	lb	a2,16(t1)
    2010:	0809                	addi	a6,a6,2
    2012:	0100                	addi	s0,sp,128
    2014:	2c05                	jal	2244 <_min_stack+0x244>
    2016:	0306                	slli	t1,t1,0x1
    2018:	0900                	addi	s0,sp,144
    201a:	0000                	unimp
    201c:	0501                	addi	a0,a0,0
    201e:	01030603          	lb	a2,16(t1)
    2022:	0809                	addi	a6,a6,2
    2024:	0100                	addi	s0,sp,128
    2026:	2c05                	jal	2256 <_min_stack+0x256>
    2028:	0306                	slli	t1,t1,0x1
    202a:	0900                	addi	s0,sp,144
    202c:	0000                	unimp
    202e:	0501                	addi	a0,a0,0
    2030:	01030603          	lb	a2,16(t1)
    2034:	0809                	addi	a6,a6,2
    2036:	0100                	addi	s0,sp,128
    2038:	2c05                	jal	2268 <_min_stack+0x268>
    203a:	0306                	slli	t1,t1,0x1
    203c:	0900                	addi	s0,sp,144
    203e:	0000                	unimp
    2040:	0501                	addi	a0,a0,0
    2042:	01030603          	lb	a2,16(t1)
    2046:	0809                	addi	a6,a6,2
    2048:	0100                	addi	s0,sp,128
    204a:	2c05                	jal	227a <_min_stack+0x27a>
    204c:	0306                	slli	t1,t1,0x1
    204e:	0900                	addi	s0,sp,144
    2050:	0000                	unimp
    2052:	0501                	addi	a0,a0,0
    2054:	01030603          	lb	a2,16(t1)
    2058:	0809                	addi	a6,a6,2
    205a:	0100                	addi	s0,sp,128
    205c:	2c05                	jal	228c <_min_stack+0x28c>
    205e:	0306                	slli	t1,t1,0x1
    2060:	0900                	addi	s0,sp,144
    2062:	0000                	unimp
    2064:	0501                	addi	a0,a0,0
    2066:	01030603          	lb	a2,16(t1)
    206a:	0809                	addi	a6,a6,2
    206c:	0100                	addi	s0,sp,128
    206e:	2c05                	jal	229e <_min_stack+0x29e>
    2070:	0306                	slli	t1,t1,0x1
    2072:	0900                	addi	s0,sp,144
    2074:	0000                	unimp
    2076:	0501                	addi	a0,a0,0
    2078:	01030603          	lb	a2,16(t1)
    207c:	0809                	addi	a6,a6,2
    207e:	0100                	addi	s0,sp,128
    2080:	2c05                	jal	22b0 <_min_stack+0x2b0>
    2082:	0306                	slli	t1,t1,0x1
    2084:	0900                	addi	s0,sp,144
    2086:	0000                	unimp
    2088:	0501                	addi	a0,a0,0
    208a:	01030603          	lb	a2,16(t1)
    208e:	0809                	addi	a6,a6,2
    2090:	0100                	addi	s0,sp,128
    2092:	2c05                	jal	22c2 <_min_stack+0x2c2>
    2094:	0306                	slli	t1,t1,0x1
    2096:	0900                	addi	s0,sp,144
    2098:	0000                	unimp
    209a:	0501                	addi	a0,a0,0
    209c:	01030603          	lb	a2,16(t1)
    20a0:	0809                	addi	a6,a6,2
    20a2:	0100                	addi	s0,sp,128
    20a4:	2c05                	jal	22d4 <_min_stack+0x2d4>
    20a6:	0306                	slli	t1,t1,0x1
    20a8:	0900                	addi	s0,sp,144
    20aa:	0000                	unimp
    20ac:	0501                	addi	a0,a0,0
    20ae:	01030603          	lb	a2,16(t1)
    20b2:	0809                	addi	a6,a6,2
    20b4:	0100                	addi	s0,sp,128
    20b6:	2c05                	jal	22e6 <_min_stack+0x2e6>
    20b8:	0306                	slli	t1,t1,0x1
    20ba:	0900                	addi	s0,sp,144
    20bc:	0000                	unimp
    20be:	0501                	addi	a0,a0,0
    20c0:	01030603          	lb	a2,16(t1)
    20c4:	0809                	addi	a6,a6,2
    20c6:	0100                	addi	s0,sp,128
    20c8:	2c05                	jal	22f8 <_min_stack+0x2f8>
    20ca:	0306                	slli	t1,t1,0x1
    20cc:	0900                	addi	s0,sp,144
    20ce:	0000                	unimp
    20d0:	0501                	addi	a0,a0,0
    20d2:	01030603          	lb	a2,16(t1)
    20d6:	0809                	addi	a6,a6,2
    20d8:	0100                	addi	s0,sp,128
    20da:	2c05                	jal	230a <_min_stack+0x30a>
    20dc:	0306                	slli	t1,t1,0x1
    20de:	0900                	addi	s0,sp,144
    20e0:	0000                	unimp
    20e2:	0501                	addi	a0,a0,0
    20e4:	01030603          	lb	a2,16(t1)
    20e8:	0809                	addi	a6,a6,2
    20ea:	0100                	addi	s0,sp,128
    20ec:	2c05                	jal	231c <_min_stack+0x31c>
    20ee:	0306                	slli	t1,t1,0x1
    20f0:	0900                	addi	s0,sp,144
    20f2:	0000                	unimp
    20f4:	0501                	addi	a0,a0,0
    20f6:	01030603          	lb	a2,16(t1)
    20fa:	0809                	addi	a6,a6,2
    20fc:	0100                	addi	s0,sp,128
    20fe:	2c05                	jal	232e <_min_stack+0x32e>
    2100:	0306                	slli	t1,t1,0x1
    2102:	0900                	addi	s0,sp,144
    2104:	0000                	unimp
    2106:	0501                	addi	a0,a0,0
    2108:	01030603          	lb	a2,16(t1)
    210c:	0809                	addi	a6,a6,2
    210e:	0100                	addi	s0,sp,128
    2110:	2c05                	jal	2340 <_min_stack+0x340>
    2112:	0306                	slli	t1,t1,0x1
    2114:	0900                	addi	s0,sp,144
    2116:	0000                	unimp
    2118:	0501                	addi	a0,a0,0
    211a:	01030603          	lb	a2,16(t1)
    211e:	0809                	addi	a6,a6,2
    2120:	0100                	addi	s0,sp,128
    2122:	2c05                	jal	2352 <_min_stack+0x352>
    2124:	0306                	slli	t1,t1,0x1
    2126:	0900                	addi	s0,sp,144
    2128:	0000                	unimp
    212a:	0501                	addi	a0,a0,0
    212c:	01030603          	lb	a2,16(t1)
    2130:	0809                	addi	a6,a6,2
    2132:	0100                	addi	s0,sp,128
    2134:	2c05                	jal	2364 <_min_stack+0x364>
    2136:	0306                	slli	t1,t1,0x1
    2138:	0900                	addi	s0,sp,144
    213a:	0000                	unimp
    213c:	0501                	addi	a0,a0,0
    213e:	01030603          	lb	a2,16(t1)
    2142:	0809                	addi	a6,a6,2
    2144:	0100                	addi	s0,sp,128
    2146:	2c05                	jal	2376 <_min_stack+0x376>
    2148:	0306                	slli	t1,t1,0x1
    214a:	0900                	addi	s0,sp,144
    214c:	0000                	unimp
    214e:	0501                	addi	a0,a0,0
    2150:	01030603          	lb	a2,16(t1)
    2154:	0809                	addi	a6,a6,2
    2156:	0100                	addi	s0,sp,128
    2158:	2c05                	jal	2388 <_min_stack+0x388>
    215a:	0306                	slli	t1,t1,0x1
    215c:	0900                	addi	s0,sp,144
    215e:	0000                	unimp
    2160:	0501                	addi	a0,a0,0
    2162:	01030603          	lb	a2,16(t1)
    2166:	0809                	addi	a6,a6,2
    2168:	0100                	addi	s0,sp,128
    216a:	2c05                	jal	239a <_min_stack+0x39a>
    216c:	0306                	slli	t1,t1,0x1
    216e:	0900                	addi	s0,sp,144
    2170:	0000                	unimp
    2172:	0501                	addi	a0,a0,0
    2174:	01030603          	lb	a2,16(t1)
    2178:	0809                	addi	a6,a6,2
    217a:	0100                	addi	s0,sp,128
    217c:	2c05                	jal	23ac <_min_stack+0x3ac>
    217e:	0306                	slli	t1,t1,0x1
    2180:	0900                	addi	s0,sp,144
    2182:	0000                	unimp
    2184:	0501                	addi	a0,a0,0
    2186:	01030603          	lb	a2,16(t1)
    218a:	0809                	addi	a6,a6,2
    218c:	0100                	addi	s0,sp,128
    218e:	2c05                	jal	23be <_min_stack+0x3be>
    2190:	0306                	slli	t1,t1,0x1
    2192:	0900                	addi	s0,sp,144
    2194:	0000                	unimp
    2196:	0501                	addi	a0,a0,0
    2198:	01030603          	lb	a2,16(t1)
    219c:	0809                	addi	a6,a6,2
    219e:	0100                	addi	s0,sp,128
    21a0:	2c05                	jal	23d0 <_min_stack+0x3d0>
    21a2:	0306                	slli	t1,t1,0x1
    21a4:	0900                	addi	s0,sp,144
    21a6:	0000                	unimp
    21a8:	0501                	addi	a0,a0,0
    21aa:	01030603          	lb	a2,16(t1)
    21ae:	0809                	addi	a6,a6,2
    21b0:	0100                	addi	s0,sp,128
    21b2:	2c05                	jal	23e2 <_min_stack+0x3e2>
    21b4:	0306                	slli	t1,t1,0x1
    21b6:	0900                	addi	s0,sp,144
    21b8:	0000                	unimp
    21ba:	0501                	addi	a0,a0,0
    21bc:	01030603          	lb	a2,16(t1)
    21c0:	0809                	addi	a6,a6,2
    21c2:	0100                	addi	s0,sp,128
    21c4:	2c05                	jal	23f4 <_min_stack+0x3f4>
    21c6:	0306                	slli	t1,t1,0x1
    21c8:	0900                	addi	s0,sp,144
    21ca:	0000                	unimp
    21cc:	0501                	addi	a0,a0,0
    21ce:	01030603          	lb	a2,16(t1)
    21d2:	0809                	addi	a6,a6,2
    21d4:	0100                	addi	s0,sp,128
    21d6:	2c05                	jal	2406 <_min_stack+0x406>
    21d8:	0306                	slli	t1,t1,0x1
    21da:	0900                	addi	s0,sp,144
    21dc:	0000                	unimp
    21de:	0501                	addi	a0,a0,0
    21e0:	01030603          	lb	a2,16(t1)
    21e4:	0809                	addi	a6,a6,2
    21e6:	0100                	addi	s0,sp,128
    21e8:	2c05                	jal	2418 <_min_stack+0x418>
    21ea:	0306                	slli	t1,t1,0x1
    21ec:	0900                	addi	s0,sp,144
    21ee:	0000                	unimp
    21f0:	0501                	addi	a0,a0,0
    21f2:	01030603          	lb	a2,16(t1)
    21f6:	0809                	addi	a6,a6,2
    21f8:	0100                	addi	s0,sp,128
    21fa:	2c05                	jal	242a <_min_stack+0x42a>
    21fc:	0306                	slli	t1,t1,0x1
    21fe:	0900                	addi	s0,sp,144
    2200:	0000                	unimp
    2202:	0501                	addi	a0,a0,0
    2204:	01030603          	lb	a2,16(t1)
    2208:	0809                	addi	a6,a6,2
    220a:	0100                	addi	s0,sp,128
    220c:	2c05                	jal	243c <_min_stack+0x43c>
    220e:	0306                	slli	t1,t1,0x1
    2210:	0900                	addi	s0,sp,144
    2212:	0000                	unimp
    2214:	0501                	addi	a0,a0,0
    2216:	01030603          	lb	a2,16(t1)
    221a:	0809                	addi	a6,a6,2
    221c:	0100                	addi	s0,sp,128
    221e:	2c05                	jal	244e <_min_stack+0x44e>
    2220:	0306                	slli	t1,t1,0x1
    2222:	0900                	addi	s0,sp,144
    2224:	0000                	unimp
    2226:	0501                	addi	a0,a0,0
    2228:	01030603          	lb	a2,16(t1)
    222c:	0809                	addi	a6,a6,2
    222e:	0100                	addi	s0,sp,128
    2230:	2c05                	jal	2460 <_min_stack+0x460>
    2232:	0306                	slli	t1,t1,0x1
    2234:	0900                	addi	s0,sp,144
    2236:	0000                	unimp
    2238:	0501                	addi	a0,a0,0
    223a:	01030603          	lb	a2,16(t1)
    223e:	0809                	addi	a6,a6,2
    2240:	0100                	addi	s0,sp,128
    2242:	2c05                	jal	2472 <_min_stack+0x472>
    2244:	0306                	slli	t1,t1,0x1
    2246:	0900                	addi	s0,sp,144
    2248:	0000                	unimp
    224a:	0501                	addi	a0,a0,0
    224c:	01030603          	lb	a2,16(t1)
    2250:	0809                	addi	a6,a6,2
    2252:	0100                	addi	s0,sp,128
    2254:	2c05                	jal	2484 <_min_stack+0x484>
    2256:	0306                	slli	t1,t1,0x1
    2258:	0900                	addi	s0,sp,144
    225a:	0000                	unimp
    225c:	0501                	addi	a0,a0,0
    225e:	01030603          	lb	a2,16(t1)
    2262:	0809                	addi	a6,a6,2
    2264:	0100                	addi	s0,sp,128
    2266:	2c05                	jal	2496 <_min_stack+0x496>
    2268:	0306                	slli	t1,t1,0x1
    226a:	0900                	addi	s0,sp,144
    226c:	0000                	unimp
    226e:	0501                	addi	a0,a0,0
    2270:	01030603          	lb	a2,16(t1)
    2274:	0809                	addi	a6,a6,2
    2276:	0100                	addi	s0,sp,128
    2278:	2c05                	jal	24a8 <_min_stack+0x4a8>
    227a:	0306                	slli	t1,t1,0x1
    227c:	0900                	addi	s0,sp,144
    227e:	0000                	unimp
    2280:	0501                	addi	a0,a0,0
    2282:	01030603          	lb	a2,16(t1)
    2286:	0809                	addi	a6,a6,2
    2288:	0100                	addi	s0,sp,128
    228a:	2c05                	jal	24ba <_min_stack+0x4ba>
    228c:	0306                	slli	t1,t1,0x1
    228e:	0900                	addi	s0,sp,144
    2290:	0000                	unimp
    2292:	0501                	addi	a0,a0,0
    2294:	01030603          	lb	a2,16(t1)
    2298:	0809                	addi	a6,a6,2
    229a:	0100                	addi	s0,sp,128
    229c:	2c05                	jal	24cc <_min_stack+0x4cc>
    229e:	0306                	slli	t1,t1,0x1
    22a0:	0900                	addi	s0,sp,144
    22a2:	0000                	unimp
    22a4:	0501                	addi	a0,a0,0
    22a6:	01030603          	lb	a2,16(t1)
    22aa:	0809                	addi	a6,a6,2
    22ac:	0100                	addi	s0,sp,128
    22ae:	2c05                	jal	24de <_min_stack+0x4de>
    22b0:	0306                	slli	t1,t1,0x1
    22b2:	0900                	addi	s0,sp,144
    22b4:	0000                	unimp
    22b6:	0501                	addi	a0,a0,0
    22b8:	01030603          	lb	a2,16(t1)
    22bc:	0809                	addi	a6,a6,2
    22be:	0100                	addi	s0,sp,128
    22c0:	2c05                	jal	24f0 <_min_stack+0x4f0>
    22c2:	0306                	slli	t1,t1,0x1
    22c4:	0900                	addi	s0,sp,144
    22c6:	0000                	unimp
    22c8:	0501                	addi	a0,a0,0
    22ca:	01030603          	lb	a2,16(t1)
    22ce:	0809                	addi	a6,a6,2
    22d0:	0100                	addi	s0,sp,128
    22d2:	2c05                	jal	2502 <_min_stack+0x502>
    22d4:	0306                	slli	t1,t1,0x1
    22d6:	0900                	addi	s0,sp,144
    22d8:	0000                	unimp
    22da:	0501                	addi	a0,a0,0
    22dc:	01030603          	lb	a2,16(t1)
    22e0:	0809                	addi	a6,a6,2
    22e2:	0100                	addi	s0,sp,128
    22e4:	2c05                	jal	2514 <_min_stack+0x514>
    22e6:	0306                	slli	t1,t1,0x1
    22e8:	0900                	addi	s0,sp,144
    22ea:	0000                	unimp
    22ec:	0501                	addi	a0,a0,0
    22ee:	01030603          	lb	a2,16(t1)
    22f2:	0809                	addi	a6,a6,2
    22f4:	0100                	addi	s0,sp,128
    22f6:	2c05                	jal	2526 <_min_stack+0x526>
    22f8:	0306                	slli	t1,t1,0x1
    22fa:	0900                	addi	s0,sp,144
    22fc:	0000                	unimp
    22fe:	0501                	addi	a0,a0,0
    2300:	01030603          	lb	a2,16(t1)
    2304:	0809                	addi	a6,a6,2
    2306:	0100                	addi	s0,sp,128
    2308:	2c05                	jal	2538 <_min_stack+0x538>
    230a:	0306                	slli	t1,t1,0x1
    230c:	0900                	addi	s0,sp,144
    230e:	0000                	unimp
    2310:	0501                	addi	a0,a0,0
    2312:	01030603          	lb	a2,16(t1)
    2316:	0809                	addi	a6,a6,2
    2318:	0100                	addi	s0,sp,128
    231a:	2c05                	jal	254a <_min_stack+0x54a>
    231c:	0306                	slli	t1,t1,0x1
    231e:	0900                	addi	s0,sp,144
    2320:	0000                	unimp
    2322:	0501                	addi	a0,a0,0
    2324:	01030603          	lb	a2,16(t1)
    2328:	0809                	addi	a6,a6,2
    232a:	0100                	addi	s0,sp,128
    232c:	2c05                	jal	255c <_min_stack+0x55c>
    232e:	0306                	slli	t1,t1,0x1
    2330:	0900                	addi	s0,sp,144
    2332:	0000                	unimp
    2334:	0501                	addi	a0,a0,0
    2336:	01030603          	lb	a2,16(t1)
    233a:	0809                	addi	a6,a6,2
    233c:	0100                	addi	s0,sp,128
    233e:	2c05                	jal	256e <_min_stack+0x56e>
    2340:	0306                	slli	t1,t1,0x1
    2342:	0900                	addi	s0,sp,144
    2344:	0000                	unimp
    2346:	0501                	addi	a0,a0,0
    2348:	01030603          	lb	a2,16(t1)
    234c:	0809                	addi	a6,a6,2
    234e:	0100                	addi	s0,sp,128
    2350:	2c05                	jal	2580 <_min_stack+0x580>
    2352:	0306                	slli	t1,t1,0x1
    2354:	0900                	addi	s0,sp,144
    2356:	0000                	unimp
    2358:	0501                	addi	a0,a0,0
    235a:	01030603          	lb	a2,16(t1)
    235e:	0809                	addi	a6,a6,2
    2360:	0100                	addi	s0,sp,128
    2362:	2c05                	jal	2592 <_min_stack+0x592>
    2364:	0306                	slli	t1,t1,0x1
    2366:	0900                	addi	s0,sp,144
    2368:	0000                	unimp
    236a:	0501                	addi	a0,a0,0
    236c:	01030603          	lb	a2,16(t1)
    2370:	0809                	addi	a6,a6,2
    2372:	0100                	addi	s0,sp,128
    2374:	2c05                	jal	25a4 <_min_stack+0x5a4>
    2376:	0306                	slli	t1,t1,0x1
    2378:	0900                	addi	s0,sp,144
    237a:	0000                	unimp
    237c:	0501                	addi	a0,a0,0
    237e:	01030603          	lb	a2,16(t1)
    2382:	0809                	addi	a6,a6,2
    2384:	0100                	addi	s0,sp,128
    2386:	2c05                	jal	25b6 <_min_stack+0x5b6>
    2388:	0306                	slli	t1,t1,0x1
    238a:	0900                	addi	s0,sp,144
    238c:	0000                	unimp
    238e:	0501                	addi	a0,a0,0
    2390:	01030603          	lb	a2,16(t1)
    2394:	0809                	addi	a6,a6,2
    2396:	0100                	addi	s0,sp,128
    2398:	2c05                	jal	25c8 <_min_stack+0x5c8>
    239a:	0306                	slli	t1,t1,0x1
    239c:	0900                	addi	s0,sp,144
    239e:	0000                	unimp
    23a0:	0501                	addi	a0,a0,0
    23a2:	01030603          	lb	a2,16(t1)
    23a6:	0809                	addi	a6,a6,2
    23a8:	0100                	addi	s0,sp,128
    23aa:	2c05                	jal	25da <_min_stack+0x5da>
    23ac:	0306                	slli	t1,t1,0x1
    23ae:	0900                	addi	s0,sp,144
    23b0:	0000                	unimp
    23b2:	0501                	addi	a0,a0,0
    23b4:	01030603          	lb	a2,16(t1)
    23b8:	0809                	addi	a6,a6,2
    23ba:	0100                	addi	s0,sp,128
    23bc:	2c05                	jal	25ec <_min_stack+0x5ec>
    23be:	0306                	slli	t1,t1,0x1
    23c0:	0900                	addi	s0,sp,144
    23c2:	0000                	unimp
    23c4:	0501                	addi	a0,a0,0
    23c6:	01030603          	lb	a2,16(t1)
    23ca:	0809                	addi	a6,a6,2
    23cc:	0100                	addi	s0,sp,128
    23ce:	2c05                	jal	25fe <_min_stack+0x5fe>
    23d0:	0306                	slli	t1,t1,0x1
    23d2:	0900                	addi	s0,sp,144
    23d4:	0000                	unimp
    23d6:	0501                	addi	a0,a0,0
    23d8:	01030603          	lb	a2,16(t1)
    23dc:	0809                	addi	a6,a6,2
    23de:	0100                	addi	s0,sp,128
    23e0:	2c05                	jal	2610 <_min_stack+0x610>
    23e2:	0306                	slli	t1,t1,0x1
    23e4:	0900                	addi	s0,sp,144
    23e6:	0000                	unimp
    23e8:	0501                	addi	a0,a0,0
    23ea:	01030603          	lb	a2,16(t1)
    23ee:	0809                	addi	a6,a6,2
    23f0:	0100                	addi	s0,sp,128
    23f2:	2c05                	jal	2622 <_min_stack+0x622>
    23f4:	0306                	slli	t1,t1,0x1
    23f6:	0900                	addi	s0,sp,144
    23f8:	0000                	unimp
    23fa:	0501                	addi	a0,a0,0
    23fc:	01030603          	lb	a2,16(t1)
    2400:	0809                	addi	a6,a6,2
    2402:	0100                	addi	s0,sp,128
    2404:	2c05                	jal	2634 <_min_stack+0x634>
    2406:	0306                	slli	t1,t1,0x1
    2408:	0900                	addi	s0,sp,144
    240a:	0000                	unimp
    240c:	0501                	addi	a0,a0,0
    240e:	01030603          	lb	a2,16(t1)
    2412:	0809                	addi	a6,a6,2
    2414:	0100                	addi	s0,sp,128
    2416:	2c05                	jal	2646 <_min_stack+0x646>
    2418:	0306                	slli	t1,t1,0x1
    241a:	0900                	addi	s0,sp,144
    241c:	0000                	unimp
    241e:	0501                	addi	a0,a0,0
    2420:	01030603          	lb	a2,16(t1)
    2424:	0809                	addi	a6,a6,2
    2426:	0100                	addi	s0,sp,128
    2428:	2c05                	jal	2658 <_min_stack+0x658>
    242a:	0306                	slli	t1,t1,0x1
    242c:	0900                	addi	s0,sp,144
    242e:	0000                	unimp
    2430:	0501                	addi	a0,a0,0
    2432:	01030603          	lb	a2,16(t1)
    2436:	0809                	addi	a6,a6,2
    2438:	0100                	addi	s0,sp,128
    243a:	2c05                	jal	266a <_min_stack+0x66a>
    243c:	0306                	slli	t1,t1,0x1
    243e:	0900                	addi	s0,sp,144
    2440:	0000                	unimp
    2442:	0501                	addi	a0,a0,0
    2444:	01030603          	lb	a2,16(t1)
    2448:	0809                	addi	a6,a6,2
    244a:	0100                	addi	s0,sp,128
    244c:	2c05                	jal	267c <_min_stack+0x67c>
    244e:	0306                	slli	t1,t1,0x1
    2450:	0900                	addi	s0,sp,144
    2452:	0000                	unimp
    2454:	0501                	addi	a0,a0,0
    2456:	01030603          	lb	a2,16(t1)
    245a:	0809                	addi	a6,a6,2
    245c:	0100                	addi	s0,sp,128
    245e:	2c05                	jal	268e <_min_stack+0x68e>
    2460:	0306                	slli	t1,t1,0x1
    2462:	0900                	addi	s0,sp,144
    2464:	0000                	unimp
    2466:	0501                	addi	a0,a0,0
    2468:	01030603          	lb	a2,16(t1)
    246c:	0809                	addi	a6,a6,2
    246e:	0100                	addi	s0,sp,128
    2470:	2c05                	jal	26a0 <_min_stack+0x6a0>
    2472:	0306                	slli	t1,t1,0x1
    2474:	0900                	addi	s0,sp,144
    2476:	0000                	unimp
    2478:	0501                	addi	a0,a0,0
    247a:	01030603          	lb	a2,16(t1)
    247e:	0809                	addi	a6,a6,2
    2480:	0100                	addi	s0,sp,128
    2482:	2c05                	jal	26b2 <_min_stack+0x6b2>
    2484:	0306                	slli	t1,t1,0x1
    2486:	0900                	addi	s0,sp,144
    2488:	0000                	unimp
    248a:	0501                	addi	a0,a0,0
    248c:	01030603          	lb	a2,16(t1)
    2490:	0809                	addi	a6,a6,2
    2492:	0100                	addi	s0,sp,128
    2494:	2c05                	jal	26c4 <_min_stack+0x6c4>
    2496:	0306                	slli	t1,t1,0x1
    2498:	0900                	addi	s0,sp,144
    249a:	0000                	unimp
    249c:	0501                	addi	a0,a0,0
    249e:	01030603          	lb	a2,16(t1)
    24a2:	0809                	addi	a6,a6,2
    24a4:	0100                	addi	s0,sp,128
    24a6:	2c05                	jal	26d6 <_min_stack+0x6d6>
    24a8:	0306                	slli	t1,t1,0x1
    24aa:	0900                	addi	s0,sp,144
    24ac:	0000                	unimp
    24ae:	0501                	addi	a0,a0,0
    24b0:	01030603          	lb	a2,16(t1)
    24b4:	0809                	addi	a6,a6,2
    24b6:	0100                	addi	s0,sp,128
    24b8:	2c05                	jal	26e8 <_min_stack+0x6e8>
    24ba:	0306                	slli	t1,t1,0x1
    24bc:	0900                	addi	s0,sp,144
    24be:	0000                	unimp
    24c0:	0501                	addi	a0,a0,0
    24c2:	01030603          	lb	a2,16(t1)
    24c6:	0809                	addi	a6,a6,2
    24c8:	0100                	addi	s0,sp,128
    24ca:	2c05                	jal	26fa <_min_stack+0x6fa>
    24cc:	0306                	slli	t1,t1,0x1
    24ce:	0900                	addi	s0,sp,144
    24d0:	0000                	unimp
    24d2:	0501                	addi	a0,a0,0
    24d4:	01030603          	lb	a2,16(t1)
    24d8:	0809                	addi	a6,a6,2
    24da:	0100                	addi	s0,sp,128
    24dc:	2c05                	jal	270c <_min_stack+0x70c>
    24de:	0306                	slli	t1,t1,0x1
    24e0:	0900                	addi	s0,sp,144
    24e2:	0000                	unimp
    24e4:	0501                	addi	a0,a0,0
    24e6:	01030603          	lb	a2,16(t1)
    24ea:	0809                	addi	a6,a6,2
    24ec:	0100                	addi	s0,sp,128
    24ee:	2c05                	jal	271e <_min_stack+0x71e>
    24f0:	0306                	slli	t1,t1,0x1
    24f2:	0900                	addi	s0,sp,144
    24f4:	0000                	unimp
    24f6:	0501                	addi	a0,a0,0
    24f8:	01030603          	lb	a2,16(t1)
    24fc:	0809                	addi	a6,a6,2
    24fe:	0100                	addi	s0,sp,128
    2500:	2c05                	jal	2730 <_min_stack+0x730>
    2502:	0306                	slli	t1,t1,0x1
    2504:	0900                	addi	s0,sp,144
    2506:	0000                	unimp
    2508:	0501                	addi	a0,a0,0
    250a:	01030603          	lb	a2,16(t1)
    250e:	0809                	addi	a6,a6,2
    2510:	0100                	addi	s0,sp,128
    2512:	2c05                	jal	2742 <_min_stack+0x742>
    2514:	0306                	slli	t1,t1,0x1
    2516:	0900                	addi	s0,sp,144
    2518:	0000                	unimp
    251a:	0501                	addi	a0,a0,0
    251c:	01030603          	lb	a2,16(t1)
    2520:	0809                	addi	a6,a6,2
    2522:	0100                	addi	s0,sp,128
    2524:	2c05                	jal	2754 <_min_stack+0x754>
    2526:	0306                	slli	t1,t1,0x1
    2528:	0900                	addi	s0,sp,144
    252a:	0000                	unimp
    252c:	0501                	addi	a0,a0,0
    252e:	01030603          	lb	a2,16(t1)
    2532:	0809                	addi	a6,a6,2
    2534:	0100                	addi	s0,sp,128
    2536:	2c05                	jal	2766 <_min_stack+0x766>
    2538:	0306                	slli	t1,t1,0x1
    253a:	0900                	addi	s0,sp,144
    253c:	0000                	unimp
    253e:	0501                	addi	a0,a0,0
    2540:	01030603          	lb	a2,16(t1)
    2544:	0809                	addi	a6,a6,2
    2546:	0100                	addi	s0,sp,128
    2548:	2c05                	jal	2778 <_min_stack+0x778>
    254a:	0306                	slli	t1,t1,0x1
    254c:	0900                	addi	s0,sp,144
    254e:	0000                	unimp
    2550:	0501                	addi	a0,a0,0
    2552:	01030603          	lb	a2,16(t1)
    2556:	0809                	addi	a6,a6,2
    2558:	0100                	addi	s0,sp,128
    255a:	2c05                	jal	278a <_min_stack+0x78a>
    255c:	0306                	slli	t1,t1,0x1
    255e:	0900                	addi	s0,sp,144
    2560:	0000                	unimp
    2562:	0501                	addi	a0,a0,0
    2564:	01030603          	lb	a2,16(t1)
    2568:	0809                	addi	a6,a6,2
    256a:	0100                	addi	s0,sp,128
    256c:	2c05                	jal	279c <_min_stack+0x79c>
    256e:	0306                	slli	t1,t1,0x1
    2570:	0900                	addi	s0,sp,144
    2572:	0000                	unimp
    2574:	0501                	addi	a0,a0,0
    2576:	01030603          	lb	a2,16(t1)
    257a:	0809                	addi	a6,a6,2
    257c:	0100                	addi	s0,sp,128
    257e:	2c05                	jal	27ae <_min_stack+0x7ae>
    2580:	0306                	slli	t1,t1,0x1
    2582:	0900                	addi	s0,sp,144
    2584:	0000                	unimp
    2586:	0501                	addi	a0,a0,0
    2588:	01030603          	lb	a2,16(t1)
    258c:	0809                	addi	a6,a6,2
    258e:	0100                	addi	s0,sp,128
    2590:	2c05                	jal	27c0 <_min_stack+0x7c0>
    2592:	0306                	slli	t1,t1,0x1
    2594:	0900                	addi	s0,sp,144
    2596:	0000                	unimp
    2598:	0501                	addi	a0,a0,0
    259a:	01030603          	lb	a2,16(t1)
    259e:	0809                	addi	a6,a6,2
    25a0:	0100                	addi	s0,sp,128
    25a2:	2c05                	jal	27d2 <_min_stack+0x7d2>
    25a4:	0306                	slli	t1,t1,0x1
    25a6:	0900                	addi	s0,sp,144
    25a8:	0000                	unimp
    25aa:	0501                	addi	a0,a0,0
    25ac:	01030603          	lb	a2,16(t1)
    25b0:	0809                	addi	a6,a6,2
    25b2:	0100                	addi	s0,sp,128
    25b4:	2c05                	jal	27e4 <_min_stack+0x7e4>
    25b6:	0306                	slli	t1,t1,0x1
    25b8:	0900                	addi	s0,sp,144
    25ba:	0000                	unimp
    25bc:	0501                	addi	a0,a0,0
    25be:	01030603          	lb	a2,16(t1)
    25c2:	0809                	addi	a6,a6,2
    25c4:	0100                	addi	s0,sp,128
    25c6:	2c05                	jal	27f6 <_min_stack+0x7f6>
    25c8:	0306                	slli	t1,t1,0x1
    25ca:	0900                	addi	s0,sp,144
    25cc:	0000                	unimp
    25ce:	0501                	addi	a0,a0,0
    25d0:	01030603          	lb	a2,16(t1)
    25d4:	0809                	addi	a6,a6,2
    25d6:	0100                	addi	s0,sp,128
    25d8:	2c05                	jal	2808 <_min_stack+0x808>
    25da:	0306                	slli	t1,t1,0x1
    25dc:	0900                	addi	s0,sp,144
    25de:	0000                	unimp
    25e0:	0501                	addi	a0,a0,0
    25e2:	01030603          	lb	a2,16(t1)
    25e6:	0809                	addi	a6,a6,2
    25e8:	0100                	addi	s0,sp,128
    25ea:	2c05                	jal	281a <_min_stack+0x81a>
    25ec:	0306                	slli	t1,t1,0x1
    25ee:	0900                	addi	s0,sp,144
    25f0:	0000                	unimp
    25f2:	0501                	addi	a0,a0,0
    25f4:	01030603          	lb	a2,16(t1)
    25f8:	0809                	addi	a6,a6,2
    25fa:	0100                	addi	s0,sp,128
    25fc:	2c05                	jal	282c <_min_stack+0x82c>
    25fe:	0306                	slli	t1,t1,0x1
    2600:	0900                	addi	s0,sp,144
    2602:	0000                	unimp
    2604:	0501                	addi	a0,a0,0
    2606:	01030603          	lb	a2,16(t1)
    260a:	0809                	addi	a6,a6,2
    260c:	0100                	addi	s0,sp,128
    260e:	2c05                	jal	283e <_min_stack+0x83e>
    2610:	0306                	slli	t1,t1,0x1
    2612:	0900                	addi	s0,sp,144
    2614:	0000                	unimp
    2616:	0501                	addi	a0,a0,0
    2618:	01030603          	lb	a2,16(t1)
    261c:	0809                	addi	a6,a6,2
    261e:	0100                	addi	s0,sp,128
    2620:	2c05                	jal	2850 <_min_stack+0x850>
    2622:	0306                	slli	t1,t1,0x1
    2624:	0900                	addi	s0,sp,144
    2626:	0000                	unimp
    2628:	0501                	addi	a0,a0,0
    262a:	01030603          	lb	a2,16(t1)
    262e:	0809                	addi	a6,a6,2
    2630:	0100                	addi	s0,sp,128
    2632:	2c05                	jal	2862 <_min_stack+0x862>
    2634:	0306                	slli	t1,t1,0x1
    2636:	0900                	addi	s0,sp,144
    2638:	0000                	unimp
    263a:	0501                	addi	a0,a0,0
    263c:	01030603          	lb	a2,16(t1)
    2640:	0809                	addi	a6,a6,2
    2642:	0100                	addi	s0,sp,128
    2644:	2c05                	jal	2874 <_min_stack+0x874>
    2646:	0306                	slli	t1,t1,0x1
    2648:	0900                	addi	s0,sp,144
    264a:	0000                	unimp
    264c:	0501                	addi	a0,a0,0
    264e:	01030603          	lb	a2,16(t1)
    2652:	0809                	addi	a6,a6,2
    2654:	0100                	addi	s0,sp,128
    2656:	2c05                	jal	2886 <_min_stack+0x886>
    2658:	0306                	slli	t1,t1,0x1
    265a:	0900                	addi	s0,sp,144
    265c:	0000                	unimp
    265e:	0501                	addi	a0,a0,0
    2660:	01030603          	lb	a2,16(t1)
    2664:	0809                	addi	a6,a6,2
    2666:	0100                	addi	s0,sp,128
    2668:	2c05                	jal	2898 <_min_stack+0x898>
    266a:	0306                	slli	t1,t1,0x1
    266c:	0900                	addi	s0,sp,144
    266e:	0000                	unimp
    2670:	0501                	addi	a0,a0,0
    2672:	01030603          	lb	a2,16(t1)
    2676:	0809                	addi	a6,a6,2
    2678:	0100                	addi	s0,sp,128
    267a:	2c05                	jal	28aa <_min_stack+0x8aa>
    267c:	0306                	slli	t1,t1,0x1
    267e:	0900                	addi	s0,sp,144
    2680:	0000                	unimp
    2682:	0501                	addi	a0,a0,0
    2684:	01030603          	lb	a2,16(t1)
    2688:	0809                	addi	a6,a6,2
    268a:	0100                	addi	s0,sp,128
    268c:	2c05                	jal	28bc <_min_stack+0x8bc>
    268e:	0306                	slli	t1,t1,0x1
    2690:	0900                	addi	s0,sp,144
    2692:	0000                	unimp
    2694:	0501                	addi	a0,a0,0
    2696:	01030603          	lb	a2,16(t1)
    269a:	0809                	addi	a6,a6,2
    269c:	0100                	addi	s0,sp,128
    269e:	2c05                	jal	28ce <_min_stack+0x8ce>
    26a0:	0306                	slli	t1,t1,0x1
    26a2:	0900                	addi	s0,sp,144
    26a4:	0000                	unimp
    26a6:	0501                	addi	a0,a0,0
    26a8:	01030603          	lb	a2,16(t1)
    26ac:	0809                	addi	a6,a6,2
    26ae:	0100                	addi	s0,sp,128
    26b0:	2c05                	jal	28e0 <_min_stack+0x8e0>
    26b2:	0306                	slli	t1,t1,0x1
    26b4:	0900                	addi	s0,sp,144
    26b6:	0000                	unimp
    26b8:	0501                	addi	a0,a0,0
    26ba:	01030603          	lb	a2,16(t1)
    26be:	0809                	addi	a6,a6,2
    26c0:	0100                	addi	s0,sp,128
    26c2:	2c05                	jal	28f2 <_min_stack+0x8f2>
    26c4:	0306                	slli	t1,t1,0x1
    26c6:	0900                	addi	s0,sp,144
    26c8:	0000                	unimp
    26ca:	0501                	addi	a0,a0,0
    26cc:	01030603          	lb	a2,16(t1)
    26d0:	0809                	addi	a6,a6,2
    26d2:	0100                	addi	s0,sp,128
    26d4:	2c05                	jal	2904 <_min_stack+0x904>
    26d6:	0306                	slli	t1,t1,0x1
    26d8:	0900                	addi	s0,sp,144
    26da:	0000                	unimp
    26dc:	0501                	addi	a0,a0,0
    26de:	01030603          	lb	a2,16(t1)
    26e2:	0809                	addi	a6,a6,2
    26e4:	0100                	addi	s0,sp,128
    26e6:	2c05                	jal	2916 <_min_stack+0x916>
    26e8:	0306                	slli	t1,t1,0x1
    26ea:	0900                	addi	s0,sp,144
    26ec:	0000                	unimp
    26ee:	0501                	addi	a0,a0,0
    26f0:	01030603          	lb	a2,16(t1)
    26f4:	0809                	addi	a6,a6,2
    26f6:	0100                	addi	s0,sp,128
    26f8:	2c05                	jal	2928 <_min_stack+0x928>
    26fa:	0306                	slli	t1,t1,0x1
    26fc:	0900                	addi	s0,sp,144
    26fe:	0000                	unimp
    2700:	0501                	addi	a0,a0,0
    2702:	01030603          	lb	a2,16(t1)
    2706:	0809                	addi	a6,a6,2
    2708:	0100                	addi	s0,sp,128
    270a:	2c05                	jal	293a <_min_stack+0x93a>
    270c:	0306                	slli	t1,t1,0x1
    270e:	0900                	addi	s0,sp,144
    2710:	0000                	unimp
    2712:	0501                	addi	a0,a0,0
    2714:	01030603          	lb	a2,16(t1)
    2718:	0809                	addi	a6,a6,2
    271a:	0100                	addi	s0,sp,128
    271c:	2c05                	jal	294c <_min_stack+0x94c>
    271e:	0306                	slli	t1,t1,0x1
    2720:	0900                	addi	s0,sp,144
    2722:	0000                	unimp
    2724:	0501                	addi	a0,a0,0
    2726:	01030603          	lb	a2,16(t1)
    272a:	0809                	addi	a6,a6,2
    272c:	0100                	addi	s0,sp,128
    272e:	2c05                	jal	295e <_min_stack+0x95e>
    2730:	0306                	slli	t1,t1,0x1
    2732:	0900                	addi	s0,sp,144
    2734:	0000                	unimp
    2736:	0501                	addi	a0,a0,0
    2738:	01030603          	lb	a2,16(t1)
    273c:	0809                	addi	a6,a6,2
    273e:	0100                	addi	s0,sp,128
    2740:	2c05                	jal	2970 <_min_stack+0x970>
    2742:	0306                	slli	t1,t1,0x1
    2744:	0900                	addi	s0,sp,144
    2746:	0000                	unimp
    2748:	0501                	addi	a0,a0,0
    274a:	01030603          	lb	a2,16(t1)
    274e:	0809                	addi	a6,a6,2
    2750:	0100                	addi	s0,sp,128
    2752:	2c05                	jal	2982 <_min_stack+0x982>
    2754:	0306                	slli	t1,t1,0x1
    2756:	0900                	addi	s0,sp,144
    2758:	0000                	unimp
    275a:	0501                	addi	a0,a0,0
    275c:	01030603          	lb	a2,16(t1)
    2760:	0809                	addi	a6,a6,2
    2762:	0100                	addi	s0,sp,128
    2764:	2c05                	jal	2994 <_min_stack+0x994>
    2766:	0306                	slli	t1,t1,0x1
    2768:	0900                	addi	s0,sp,144
    276a:	0000                	unimp
    276c:	0501                	addi	a0,a0,0
    276e:	01030603          	lb	a2,16(t1)
    2772:	0809                	addi	a6,a6,2
    2774:	0100                	addi	s0,sp,128
    2776:	2c05                	jal	29a6 <_min_stack+0x9a6>
    2778:	0306                	slli	t1,t1,0x1
    277a:	0900                	addi	s0,sp,144
    277c:	0000                	unimp
    277e:	0501                	addi	a0,a0,0
    2780:	01030603          	lb	a2,16(t1)
    2784:	0809                	addi	a6,a6,2
    2786:	0100                	addi	s0,sp,128
    2788:	2c05                	jal	29b8 <_min_stack+0x9b8>
    278a:	0306                	slli	t1,t1,0x1
    278c:	0900                	addi	s0,sp,144
    278e:	0000                	unimp
    2790:	0501                	addi	a0,a0,0
    2792:	01030603          	lb	a2,16(t1)
    2796:	0809                	addi	a6,a6,2
    2798:	0100                	addi	s0,sp,128
    279a:	2c05                	jal	29ca <_min_stack+0x9ca>
    279c:	0306                	slli	t1,t1,0x1
    279e:	0900                	addi	s0,sp,144
    27a0:	0000                	unimp
    27a2:	0501                	addi	a0,a0,0
    27a4:	01030603          	lb	a2,16(t1)
    27a8:	0809                	addi	a6,a6,2
    27aa:	0100                	addi	s0,sp,128
    27ac:	2c05                	jal	29dc <_min_stack+0x9dc>
    27ae:	0306                	slli	t1,t1,0x1
    27b0:	0900                	addi	s0,sp,144
    27b2:	0000                	unimp
    27b4:	0501                	addi	a0,a0,0
    27b6:	01030603          	lb	a2,16(t1)
    27ba:	0809                	addi	a6,a6,2
    27bc:	0100                	addi	s0,sp,128
    27be:	2c05                	jal	29ee <_min_stack+0x9ee>
    27c0:	0306                	slli	t1,t1,0x1
    27c2:	0900                	addi	s0,sp,144
    27c4:	0000                	unimp
    27c6:	0501                	addi	a0,a0,0
    27c8:	01030603          	lb	a2,16(t1)
    27cc:	0809                	addi	a6,a6,2
    27ce:	0100                	addi	s0,sp,128
    27d0:	2c05                	jal	2a00 <_min_stack+0xa00>
    27d2:	0306                	slli	t1,t1,0x1
    27d4:	0900                	addi	s0,sp,144
    27d6:	0000                	unimp
    27d8:	0501                	addi	a0,a0,0
    27da:	01030603          	lb	a2,16(t1)
    27de:	0809                	addi	a6,a6,2
    27e0:	0100                	addi	s0,sp,128
    27e2:	2c05                	jal	2a12 <_min_stack+0xa12>
    27e4:	0306                	slli	t1,t1,0x1
    27e6:	0900                	addi	s0,sp,144
    27e8:	0000                	unimp
    27ea:	0501                	addi	a0,a0,0
    27ec:	01030603          	lb	a2,16(t1)
    27f0:	0809                	addi	a6,a6,2
    27f2:	0100                	addi	s0,sp,128
    27f4:	2c05                	jal	2a24 <_min_stack+0xa24>
    27f6:	0306                	slli	t1,t1,0x1
    27f8:	0900                	addi	s0,sp,144
    27fa:	0000                	unimp
    27fc:	0501                	addi	a0,a0,0
    27fe:	01030603          	lb	a2,16(t1)
    2802:	0809                	addi	a6,a6,2
    2804:	0100                	addi	s0,sp,128
    2806:	2c05                	jal	2a36 <_min_stack+0xa36>
    2808:	0306                	slli	t1,t1,0x1
    280a:	0900                	addi	s0,sp,144
    280c:	0000                	unimp
    280e:	0501                	addi	a0,a0,0
    2810:	01030603          	lb	a2,16(t1)
    2814:	0809                	addi	a6,a6,2
    2816:	0100                	addi	s0,sp,128
    2818:	2c05                	jal	2a48 <_min_stack+0xa48>
    281a:	0306                	slli	t1,t1,0x1
    281c:	0900                	addi	s0,sp,144
    281e:	0000                	unimp
    2820:	0501                	addi	a0,a0,0
    2822:	01030603          	lb	a2,16(t1)
    2826:	0809                	addi	a6,a6,2
    2828:	0100                	addi	s0,sp,128
    282a:	2c05                	jal	2a5a <_min_stack+0xa5a>
    282c:	0306                	slli	t1,t1,0x1
    282e:	0900                	addi	s0,sp,144
    2830:	0000                	unimp
    2832:	0501                	addi	a0,a0,0
    2834:	01030603          	lb	a2,16(t1)
    2838:	0809                	addi	a6,a6,2
    283a:	0100                	addi	s0,sp,128
    283c:	2c05                	jal	2a6c <_min_stack+0xa6c>
    283e:	0306                	slli	t1,t1,0x1
    2840:	0900                	addi	s0,sp,144
    2842:	0000                	unimp
    2844:	0501                	addi	a0,a0,0
    2846:	01030603          	lb	a2,16(t1)
    284a:	0809                	addi	a6,a6,2
    284c:	0100                	addi	s0,sp,128
    284e:	2c05                	jal	2a7e <_min_stack+0xa7e>
    2850:	0306                	slli	t1,t1,0x1
    2852:	0900                	addi	s0,sp,144
    2854:	0000                	unimp
    2856:	0501                	addi	a0,a0,0
    2858:	01030603          	lb	a2,16(t1)
    285c:	0809                	addi	a6,a6,2
    285e:	0100                	addi	s0,sp,128
    2860:	2c05                	jal	2a90 <_min_stack+0xa90>
    2862:	0306                	slli	t1,t1,0x1
    2864:	0900                	addi	s0,sp,144
    2866:	0000                	unimp
    2868:	0501                	addi	a0,a0,0
    286a:	01030603          	lb	a2,16(t1)
    286e:	0809                	addi	a6,a6,2
    2870:	0100                	addi	s0,sp,128
    2872:	2c05                	jal	2aa2 <_min_stack+0xaa2>
    2874:	0306                	slli	t1,t1,0x1
    2876:	0900                	addi	s0,sp,144
    2878:	0000                	unimp
    287a:	0501                	addi	a0,a0,0
    287c:	01030603          	lb	a2,16(t1)
    2880:	0809                	addi	a6,a6,2
    2882:	0100                	addi	s0,sp,128
    2884:	2c05                	jal	2ab4 <_min_stack+0xab4>
    2886:	0306                	slli	t1,t1,0x1
    2888:	0900                	addi	s0,sp,144
    288a:	0000                	unimp
    288c:	0501                	addi	a0,a0,0
    288e:	01030603          	lb	a2,16(t1)
    2892:	0809                	addi	a6,a6,2
    2894:	0100                	addi	s0,sp,128
    2896:	2c05                	jal	2ac6 <_min_stack+0xac6>
    2898:	0306                	slli	t1,t1,0x1
    289a:	0900                	addi	s0,sp,144
    289c:	0000                	unimp
    289e:	0501                	addi	a0,a0,0
    28a0:	01030603          	lb	a2,16(t1)
    28a4:	0809                	addi	a6,a6,2
    28a6:	0100                	addi	s0,sp,128
    28a8:	2c05                	jal	2ad8 <_min_stack+0xad8>
    28aa:	0306                	slli	t1,t1,0x1
    28ac:	0900                	addi	s0,sp,144
    28ae:	0000                	unimp
    28b0:	0501                	addi	a0,a0,0
    28b2:	01030603          	lb	a2,16(t1)
    28b6:	0809                	addi	a6,a6,2
    28b8:	0100                	addi	s0,sp,128
    28ba:	2c05                	jal	2aea <_min_stack+0xaea>
    28bc:	0306                	slli	t1,t1,0x1
    28be:	0900                	addi	s0,sp,144
    28c0:	0000                	unimp
    28c2:	0501                	addi	a0,a0,0
    28c4:	01030603          	lb	a2,16(t1)
    28c8:	0809                	addi	a6,a6,2
    28ca:	0100                	addi	s0,sp,128
    28cc:	2c05                	jal	2afc <_min_stack+0xafc>
    28ce:	0306                	slli	t1,t1,0x1
    28d0:	0900                	addi	s0,sp,144
    28d2:	0000                	unimp
    28d4:	0501                	addi	a0,a0,0
    28d6:	01030603          	lb	a2,16(t1)
    28da:	0809                	addi	a6,a6,2
    28dc:	0100                	addi	s0,sp,128
    28de:	2c05                	jal	2b0e <_min_stack+0xb0e>
    28e0:	0306                	slli	t1,t1,0x1
    28e2:	0900                	addi	s0,sp,144
    28e4:	0000                	unimp
    28e6:	0501                	addi	a0,a0,0
    28e8:	01030603          	lb	a2,16(t1)
    28ec:	0809                	addi	a6,a6,2
    28ee:	0100                	addi	s0,sp,128
    28f0:	2c05                	jal	2b20 <_min_stack+0xb20>
    28f2:	0306                	slli	t1,t1,0x1
    28f4:	0900                	addi	s0,sp,144
    28f6:	0000                	unimp
    28f8:	0501                	addi	a0,a0,0
    28fa:	01030603          	lb	a2,16(t1)
    28fe:	0809                	addi	a6,a6,2
    2900:	0100                	addi	s0,sp,128
    2902:	2c05                	jal	2b32 <_min_stack+0xb32>
    2904:	0306                	slli	t1,t1,0x1
    2906:	0900                	addi	s0,sp,144
    2908:	0000                	unimp
    290a:	0501                	addi	a0,a0,0
    290c:	01030603          	lb	a2,16(t1)
    2910:	0809                	addi	a6,a6,2
    2912:	0100                	addi	s0,sp,128
    2914:	2c05                	jal	2b44 <_min_stack+0xb44>
    2916:	0306                	slli	t1,t1,0x1
    2918:	0900                	addi	s0,sp,144
    291a:	0000                	unimp
    291c:	0501                	addi	a0,a0,0
    291e:	01030603          	lb	a2,16(t1)
    2922:	0809                	addi	a6,a6,2
    2924:	0100                	addi	s0,sp,128
    2926:	2c05                	jal	2b56 <_min_stack+0xb56>
    2928:	0306                	slli	t1,t1,0x1
    292a:	0900                	addi	s0,sp,144
    292c:	0000                	unimp
    292e:	0501                	addi	a0,a0,0
    2930:	01030603          	lb	a2,16(t1)
    2934:	0809                	addi	a6,a6,2
    2936:	0100                	addi	s0,sp,128
    2938:	2c05                	jal	2b68 <_min_stack+0xb68>
    293a:	0306                	slli	t1,t1,0x1
    293c:	0900                	addi	s0,sp,144
    293e:	0000                	unimp
    2940:	0501                	addi	a0,a0,0
    2942:	01030603          	lb	a2,16(t1)
    2946:	0809                	addi	a6,a6,2
    2948:	0100                	addi	s0,sp,128
    294a:	2c05                	jal	2b7a <_min_stack+0xb7a>
    294c:	0306                	slli	t1,t1,0x1
    294e:	0900                	addi	s0,sp,144
    2950:	0000                	unimp
    2952:	0501                	addi	a0,a0,0
    2954:	01030603          	lb	a2,16(t1)
    2958:	0809                	addi	a6,a6,2
    295a:	0100                	addi	s0,sp,128
    295c:	2c05                	jal	2b8c <_min_stack+0xb8c>
    295e:	0306                	slli	t1,t1,0x1
    2960:	0900                	addi	s0,sp,144
    2962:	0000                	unimp
    2964:	0501                	addi	a0,a0,0
    2966:	01030603          	lb	a2,16(t1)
    296a:	0809                	addi	a6,a6,2
    296c:	0100                	addi	s0,sp,128
    296e:	2c05                	jal	2b9e <_min_stack+0xb9e>
    2970:	0306                	slli	t1,t1,0x1
    2972:	0900                	addi	s0,sp,144
    2974:	0000                	unimp
    2976:	0501                	addi	a0,a0,0
    2978:	01030603          	lb	a2,16(t1)
    297c:	0809                	addi	a6,a6,2
    297e:	0100                	addi	s0,sp,128
    2980:	2c05                	jal	2bb0 <_min_stack+0xbb0>
    2982:	0306                	slli	t1,t1,0x1
    2984:	0900                	addi	s0,sp,144
    2986:	0000                	unimp
    2988:	0501                	addi	a0,a0,0
    298a:	01030603          	lb	a2,16(t1)
    298e:	0809                	addi	a6,a6,2
    2990:	0100                	addi	s0,sp,128
    2992:	2c05                	jal	2bc2 <_min_stack+0xbc2>
    2994:	0306                	slli	t1,t1,0x1
    2996:	0900                	addi	s0,sp,144
    2998:	0000                	unimp
    299a:	0501                	addi	a0,a0,0
    299c:	01030603          	lb	a2,16(t1)
    29a0:	0809                	addi	a6,a6,2
    29a2:	0100                	addi	s0,sp,128
    29a4:	2c05                	jal	2bd4 <_min_stack+0xbd4>
    29a6:	0306                	slli	t1,t1,0x1
    29a8:	0900                	addi	s0,sp,144
    29aa:	0000                	unimp
    29ac:	0501                	addi	a0,a0,0
    29ae:	01030603          	lb	a2,16(t1)
    29b2:	0809                	addi	a6,a6,2
    29b4:	0100                	addi	s0,sp,128
    29b6:	2c05                	jal	2be6 <_min_stack+0xbe6>
    29b8:	0306                	slli	t1,t1,0x1
    29ba:	0900                	addi	s0,sp,144
    29bc:	0000                	unimp
    29be:	0501                	addi	a0,a0,0
    29c0:	01030603          	lb	a2,16(t1)
    29c4:	0809                	addi	a6,a6,2
    29c6:	0100                	addi	s0,sp,128
    29c8:	2c05                	jal	2bf8 <_min_stack+0xbf8>
    29ca:	0306                	slli	t1,t1,0x1
    29cc:	0900                	addi	s0,sp,144
    29ce:	0000                	unimp
    29d0:	0501                	addi	a0,a0,0
    29d2:	01030603          	lb	a2,16(t1)
    29d6:	0809                	addi	a6,a6,2
    29d8:	0100                	addi	s0,sp,128
    29da:	2c05                	jal	2c0a <_min_stack+0xc0a>
    29dc:	0306                	slli	t1,t1,0x1
    29de:	0900                	addi	s0,sp,144
    29e0:	0000                	unimp
    29e2:	0501                	addi	a0,a0,0
    29e4:	01030603          	lb	a2,16(t1)
    29e8:	0809                	addi	a6,a6,2
    29ea:	0100                	addi	s0,sp,128
    29ec:	2c05                	jal	2c1c <_min_stack+0xc1c>
    29ee:	0306                	slli	t1,t1,0x1
    29f0:	0900                	addi	s0,sp,144
    29f2:	0000                	unimp
    29f4:	0501                	addi	a0,a0,0
    29f6:	01030603          	lb	a2,16(t1)
    29fa:	0809                	addi	a6,a6,2
    29fc:	0100                	addi	s0,sp,128
    29fe:	2c05                	jal	2c2e <_min_stack+0xc2e>
    2a00:	0306                	slli	t1,t1,0x1
    2a02:	0900                	addi	s0,sp,144
    2a04:	0000                	unimp
    2a06:	0501                	addi	a0,a0,0
    2a08:	01030603          	lb	a2,16(t1)
    2a0c:	0809                	addi	a6,a6,2
    2a0e:	0100                	addi	s0,sp,128
    2a10:	2c05                	jal	2c40 <_min_stack+0xc40>
    2a12:	0306                	slli	t1,t1,0x1
    2a14:	0900                	addi	s0,sp,144
    2a16:	0000                	unimp
    2a18:	0501                	addi	a0,a0,0
    2a1a:	01030603          	lb	a2,16(t1)
    2a1e:	0809                	addi	a6,a6,2
    2a20:	0100                	addi	s0,sp,128
    2a22:	2c05                	jal	2c52 <_min_stack+0xc52>
    2a24:	0306                	slli	t1,t1,0x1
    2a26:	0900                	addi	s0,sp,144
    2a28:	0000                	unimp
    2a2a:	0501                	addi	a0,a0,0
    2a2c:	01030603          	lb	a2,16(t1)
    2a30:	0809                	addi	a6,a6,2
    2a32:	0100                	addi	s0,sp,128
    2a34:	2c05                	jal	2c64 <_min_stack+0xc64>
    2a36:	0306                	slli	t1,t1,0x1
    2a38:	0900                	addi	s0,sp,144
    2a3a:	0000                	unimp
    2a3c:	0501                	addi	a0,a0,0
    2a3e:	01030603          	lb	a2,16(t1)
    2a42:	0809                	addi	a6,a6,2
    2a44:	0100                	addi	s0,sp,128
    2a46:	2c05                	jal	2c76 <_min_stack+0xc76>
    2a48:	0306                	slli	t1,t1,0x1
    2a4a:	0900                	addi	s0,sp,144
    2a4c:	0000                	unimp
    2a4e:	0501                	addi	a0,a0,0
    2a50:	01030603          	lb	a2,16(t1)
    2a54:	0809                	addi	a6,a6,2
    2a56:	0100                	addi	s0,sp,128
    2a58:	2c05                	jal	2c88 <_min_stack+0xc88>
    2a5a:	0306                	slli	t1,t1,0x1
    2a5c:	0900                	addi	s0,sp,144
    2a5e:	0000                	unimp
    2a60:	0501                	addi	a0,a0,0
    2a62:	01030603          	lb	a2,16(t1)
    2a66:	0809                	addi	a6,a6,2
    2a68:	0100                	addi	s0,sp,128
    2a6a:	2c05                	jal	2c9a <_min_stack+0xc9a>
    2a6c:	0306                	slli	t1,t1,0x1
    2a6e:	0900                	addi	s0,sp,144
    2a70:	0000                	unimp
    2a72:	0501                	addi	a0,a0,0
    2a74:	01030603          	lb	a2,16(t1)
    2a78:	0809                	addi	a6,a6,2
    2a7a:	0100                	addi	s0,sp,128
    2a7c:	2c05                	jal	2cac <_min_stack+0xcac>
    2a7e:	0306                	slli	t1,t1,0x1
    2a80:	0900                	addi	s0,sp,144
    2a82:	0000                	unimp
    2a84:	0501                	addi	a0,a0,0
    2a86:	01030603          	lb	a2,16(t1)
    2a8a:	0809                	addi	a6,a6,2
    2a8c:	0100                	addi	s0,sp,128
    2a8e:	2c05                	jal	2cbe <_min_stack+0xcbe>
    2a90:	0306                	slli	t1,t1,0x1
    2a92:	0900                	addi	s0,sp,144
    2a94:	0000                	unimp
    2a96:	0501                	addi	a0,a0,0
    2a98:	01030603          	lb	a2,16(t1)
    2a9c:	0809                	addi	a6,a6,2
    2a9e:	0100                	addi	s0,sp,128
    2aa0:	2c05                	jal	2cd0 <_min_stack+0xcd0>
    2aa2:	0306                	slli	t1,t1,0x1
    2aa4:	0900                	addi	s0,sp,144
    2aa6:	0000                	unimp
    2aa8:	0501                	addi	a0,a0,0
    2aaa:	01030603          	lb	a2,16(t1)
    2aae:	0809                	addi	a6,a6,2
    2ab0:	0100                	addi	s0,sp,128
    2ab2:	2c05                	jal	2ce2 <_min_stack+0xce2>
    2ab4:	0306                	slli	t1,t1,0x1
    2ab6:	0900                	addi	s0,sp,144
    2ab8:	0000                	unimp
    2aba:	0501                	addi	a0,a0,0
    2abc:	01030603          	lb	a2,16(t1)
    2ac0:	0809                	addi	a6,a6,2
    2ac2:	0100                	addi	s0,sp,128
    2ac4:	2c05                	jal	2cf4 <_min_stack+0xcf4>
    2ac6:	0306                	slli	t1,t1,0x1
    2ac8:	0900                	addi	s0,sp,144
    2aca:	0000                	unimp
    2acc:	0501                	addi	a0,a0,0
    2ace:	01030603          	lb	a2,16(t1)
    2ad2:	0809                	addi	a6,a6,2
    2ad4:	0100                	addi	s0,sp,128
    2ad6:	2c05                	jal	2d06 <_min_stack+0xd06>
    2ad8:	0306                	slli	t1,t1,0x1
    2ada:	0900                	addi	s0,sp,144
    2adc:	0000                	unimp
    2ade:	0501                	addi	a0,a0,0
    2ae0:	01030603          	lb	a2,16(t1)
    2ae4:	0809                	addi	a6,a6,2
    2ae6:	0100                	addi	s0,sp,128
    2ae8:	2c05                	jal	2d18 <_min_stack+0xd18>
    2aea:	0306                	slli	t1,t1,0x1
    2aec:	0900                	addi	s0,sp,144
    2aee:	0000                	unimp
    2af0:	0501                	addi	a0,a0,0
    2af2:	01030603          	lb	a2,16(t1)
    2af6:	0809                	addi	a6,a6,2
    2af8:	0100                	addi	s0,sp,128
    2afa:	2c05                	jal	2d2a <_min_stack+0xd2a>
    2afc:	0306                	slli	t1,t1,0x1
    2afe:	0900                	addi	s0,sp,144
    2b00:	0000                	unimp
    2b02:	0501                	addi	a0,a0,0
    2b04:	01030603          	lb	a2,16(t1)
    2b08:	0809                	addi	a6,a6,2
    2b0a:	0100                	addi	s0,sp,128
    2b0c:	2c05                	jal	2d3c <_min_stack+0xd3c>
    2b0e:	0306                	slli	t1,t1,0x1
    2b10:	0900                	addi	s0,sp,144
    2b12:	0000                	unimp
    2b14:	0501                	addi	a0,a0,0
    2b16:	01030603          	lb	a2,16(t1)
    2b1a:	0809                	addi	a6,a6,2
    2b1c:	0100                	addi	s0,sp,128
    2b1e:	2c05                	jal	2d4e <_min_stack+0xd4e>
    2b20:	0306                	slli	t1,t1,0x1
    2b22:	0900                	addi	s0,sp,144
    2b24:	0000                	unimp
    2b26:	0501                	addi	a0,a0,0
    2b28:	01030603          	lb	a2,16(t1)
    2b2c:	0809                	addi	a6,a6,2
    2b2e:	0100                	addi	s0,sp,128
    2b30:	2c05                	jal	2d60 <_min_stack+0xd60>
    2b32:	0306                	slli	t1,t1,0x1
    2b34:	0900                	addi	s0,sp,144
    2b36:	0000                	unimp
    2b38:	0501                	addi	a0,a0,0
    2b3a:	01030603          	lb	a2,16(t1)
    2b3e:	0809                	addi	a6,a6,2
    2b40:	0100                	addi	s0,sp,128
    2b42:	2c05                	jal	2d72 <_min_stack+0xd72>
    2b44:	0306                	slli	t1,t1,0x1
    2b46:	0900                	addi	s0,sp,144
    2b48:	0000                	unimp
    2b4a:	0501                	addi	a0,a0,0
    2b4c:	01030603          	lb	a2,16(t1)
    2b50:	0809                	addi	a6,a6,2
    2b52:	0100                	addi	s0,sp,128
    2b54:	2c05                	jal	2d84 <_min_stack+0xd84>
    2b56:	0306                	slli	t1,t1,0x1
    2b58:	0900                	addi	s0,sp,144
    2b5a:	0000                	unimp
    2b5c:	0501                	addi	a0,a0,0
    2b5e:	01030603          	lb	a2,16(t1)
    2b62:	0809                	addi	a6,a6,2
    2b64:	0100                	addi	s0,sp,128
    2b66:	2c05                	jal	2d96 <_min_stack+0xd96>
    2b68:	0306                	slli	t1,t1,0x1
    2b6a:	0900                	addi	s0,sp,144
    2b6c:	0000                	unimp
    2b6e:	0501                	addi	a0,a0,0
    2b70:	01030603          	lb	a2,16(t1)
    2b74:	0809                	addi	a6,a6,2
    2b76:	0100                	addi	s0,sp,128
    2b78:	2c05                	jal	2da8 <_min_stack+0xda8>
    2b7a:	0306                	slli	t1,t1,0x1
    2b7c:	0900                	addi	s0,sp,144
    2b7e:	0000                	unimp
    2b80:	0501                	addi	a0,a0,0
    2b82:	01030603          	lb	a2,16(t1)
    2b86:	0809                	addi	a6,a6,2
    2b88:	0100                	addi	s0,sp,128
    2b8a:	2c05                	jal	2dba <_min_stack+0xdba>
    2b8c:	0306                	slli	t1,t1,0x1
    2b8e:	0900                	addi	s0,sp,144
    2b90:	0000                	unimp
    2b92:	0501                	addi	a0,a0,0
    2b94:	01030603          	lb	a2,16(t1)
    2b98:	0809                	addi	a6,a6,2
    2b9a:	0100                	addi	s0,sp,128
    2b9c:	2c05                	jal	2dcc <_min_stack+0xdcc>
    2b9e:	0306                	slli	t1,t1,0x1
    2ba0:	0900                	addi	s0,sp,144
    2ba2:	0000                	unimp
    2ba4:	0501                	addi	a0,a0,0
    2ba6:	01030603          	lb	a2,16(t1)
    2baa:	0809                	addi	a6,a6,2
    2bac:	0100                	addi	s0,sp,128
    2bae:	2c05                	jal	2dde <_min_stack+0xdde>
    2bb0:	0306                	slli	t1,t1,0x1
    2bb2:	0900                	addi	s0,sp,144
    2bb4:	0000                	unimp
    2bb6:	0501                	addi	a0,a0,0
    2bb8:	01030603          	lb	a2,16(t1)
    2bbc:	0809                	addi	a6,a6,2
    2bbe:	0100                	addi	s0,sp,128
    2bc0:	2c05                	jal	2df0 <_min_stack+0xdf0>
    2bc2:	0306                	slli	t1,t1,0x1
    2bc4:	0900                	addi	s0,sp,144
    2bc6:	0000                	unimp
    2bc8:	0501                	addi	a0,a0,0
    2bca:	01030603          	lb	a2,16(t1)
    2bce:	0809                	addi	a6,a6,2
    2bd0:	0100                	addi	s0,sp,128
    2bd2:	2c05                	jal	2e02 <_min_stack+0xe02>
    2bd4:	0306                	slli	t1,t1,0x1
    2bd6:	0900                	addi	s0,sp,144
    2bd8:	0000                	unimp
    2bda:	0501                	addi	a0,a0,0
    2bdc:	01030603          	lb	a2,16(t1)
    2be0:	0809                	addi	a6,a6,2
    2be2:	0100                	addi	s0,sp,128
    2be4:	2c05                	jal	2e14 <_min_stack+0xe14>
    2be6:	0306                	slli	t1,t1,0x1
    2be8:	0900                	addi	s0,sp,144
    2bea:	0000                	unimp
    2bec:	0501                	addi	a0,a0,0
    2bee:	01030603          	lb	a2,16(t1)
    2bf2:	0809                	addi	a6,a6,2
    2bf4:	0100                	addi	s0,sp,128
    2bf6:	2c05                	jal	2e26 <_min_stack+0xe26>
    2bf8:	0306                	slli	t1,t1,0x1
    2bfa:	0900                	addi	s0,sp,144
    2bfc:	0000                	unimp
    2bfe:	0501                	addi	a0,a0,0
    2c00:	01030603          	lb	a2,16(t1)
    2c04:	0809                	addi	a6,a6,2
    2c06:	0100                	addi	s0,sp,128
    2c08:	2c05                	jal	2e38 <_min_stack+0xe38>
    2c0a:	0306                	slli	t1,t1,0x1
    2c0c:	0900                	addi	s0,sp,144
    2c0e:	0000                	unimp
    2c10:	0501                	addi	a0,a0,0
    2c12:	01030603          	lb	a2,16(t1)
    2c16:	0809                	addi	a6,a6,2
    2c18:	0100                	addi	s0,sp,128
    2c1a:	2c05                	jal	2e4a <_min_stack+0xe4a>
    2c1c:	0306                	slli	t1,t1,0x1
    2c1e:	0900                	addi	s0,sp,144
    2c20:	0000                	unimp
    2c22:	0501                	addi	a0,a0,0
    2c24:	01030603          	lb	a2,16(t1)
    2c28:	0809                	addi	a6,a6,2
    2c2a:	0100                	addi	s0,sp,128
    2c2c:	2c05                	jal	2e5c <_min_stack+0xe5c>
    2c2e:	0306                	slli	t1,t1,0x1
    2c30:	0900                	addi	s0,sp,144
    2c32:	0000                	unimp
    2c34:	0501                	addi	a0,a0,0
    2c36:	01030603          	lb	a2,16(t1)
    2c3a:	0809                	addi	a6,a6,2
    2c3c:	0100                	addi	s0,sp,128
    2c3e:	2c05                	jal	2e6e <_min_stack+0xe6e>
    2c40:	0306                	slli	t1,t1,0x1
    2c42:	0900                	addi	s0,sp,144
    2c44:	0000                	unimp
    2c46:	0501                	addi	a0,a0,0
    2c48:	01030603          	lb	a2,16(t1)
    2c4c:	0809                	addi	a6,a6,2
    2c4e:	0100                	addi	s0,sp,128
    2c50:	2c05                	jal	2e80 <_min_stack+0xe80>
    2c52:	0306                	slli	t1,t1,0x1
    2c54:	0900                	addi	s0,sp,144
    2c56:	0000                	unimp
    2c58:	0501                	addi	a0,a0,0
    2c5a:	01030603          	lb	a2,16(t1)
    2c5e:	0809                	addi	a6,a6,2
    2c60:	0100                	addi	s0,sp,128
    2c62:	2c05                	jal	2e92 <_min_stack+0xe92>
    2c64:	0306                	slli	t1,t1,0x1
    2c66:	0900                	addi	s0,sp,144
    2c68:	0000                	unimp
    2c6a:	0501                	addi	a0,a0,0
    2c6c:	01030603          	lb	a2,16(t1)
    2c70:	0809                	addi	a6,a6,2
    2c72:	0100                	addi	s0,sp,128
    2c74:	2c05                	jal	2ea4 <_min_stack+0xea4>
    2c76:	0306                	slli	t1,t1,0x1
    2c78:	0900                	addi	s0,sp,144
    2c7a:	0000                	unimp
    2c7c:	0501                	addi	a0,a0,0
    2c7e:	01030603          	lb	a2,16(t1)
    2c82:	0809                	addi	a6,a6,2
    2c84:	0100                	addi	s0,sp,128
    2c86:	2c05                	jal	2eb6 <_min_stack+0xeb6>
    2c88:	0306                	slli	t1,t1,0x1
    2c8a:	0900                	addi	s0,sp,144
    2c8c:	0000                	unimp
    2c8e:	0501                	addi	a0,a0,0
    2c90:	01030603          	lb	a2,16(t1)
    2c94:	0809                	addi	a6,a6,2
    2c96:	0100                	addi	s0,sp,128
    2c98:	2c05                	jal	2ec8 <_min_stack+0xec8>
    2c9a:	0306                	slli	t1,t1,0x1
    2c9c:	0900                	addi	s0,sp,144
    2c9e:	0000                	unimp
    2ca0:	0501                	addi	a0,a0,0
    2ca2:	01030603          	lb	a2,16(t1)
    2ca6:	0809                	addi	a6,a6,2
    2ca8:	0100                	addi	s0,sp,128
    2caa:	2c05                	jal	2eda <_min_stack+0xeda>
    2cac:	0306                	slli	t1,t1,0x1
    2cae:	0900                	addi	s0,sp,144
    2cb0:	0000                	unimp
    2cb2:	0501                	addi	a0,a0,0
    2cb4:	01030603          	lb	a2,16(t1)
    2cb8:	0809                	addi	a6,a6,2
    2cba:	0100                	addi	s0,sp,128
    2cbc:	2c05                	jal	2eec <_min_stack+0xeec>
    2cbe:	0306                	slli	t1,t1,0x1
    2cc0:	0900                	addi	s0,sp,144
    2cc2:	0000                	unimp
    2cc4:	0501                	addi	a0,a0,0
    2cc6:	01030603          	lb	a2,16(t1)
    2cca:	0809                	addi	a6,a6,2
    2ccc:	0100                	addi	s0,sp,128
    2cce:	2c05                	jal	2efe <_min_stack+0xefe>
    2cd0:	0306                	slli	t1,t1,0x1
    2cd2:	0900                	addi	s0,sp,144
    2cd4:	0000                	unimp
    2cd6:	0501                	addi	a0,a0,0
    2cd8:	01030603          	lb	a2,16(t1)
    2cdc:	0809                	addi	a6,a6,2
    2cde:	0100                	addi	s0,sp,128
    2ce0:	2c05                	jal	2f10 <_min_stack+0xf10>
    2ce2:	0306                	slli	t1,t1,0x1
    2ce4:	0900                	addi	s0,sp,144
    2ce6:	0000                	unimp
    2ce8:	0501                	addi	a0,a0,0
    2cea:	01030603          	lb	a2,16(t1)
    2cee:	0809                	addi	a6,a6,2
    2cf0:	0100                	addi	s0,sp,128
    2cf2:	2c05                	jal	2f22 <_min_stack+0xf22>
    2cf4:	0306                	slli	t1,t1,0x1
    2cf6:	0900                	addi	s0,sp,144
    2cf8:	0000                	unimp
    2cfa:	0501                	addi	a0,a0,0
    2cfc:	01030603          	lb	a2,16(t1)
    2d00:	0809                	addi	a6,a6,2
    2d02:	0100                	addi	s0,sp,128
    2d04:	2c05                	jal	2f34 <_min_stack+0xf34>
    2d06:	0306                	slli	t1,t1,0x1
    2d08:	0900                	addi	s0,sp,144
    2d0a:	0000                	unimp
    2d0c:	0501                	addi	a0,a0,0
    2d0e:	01030603          	lb	a2,16(t1)
    2d12:	0809                	addi	a6,a6,2
    2d14:	0100                	addi	s0,sp,128
    2d16:	2c05                	jal	2f46 <_min_stack+0xf46>
    2d18:	0306                	slli	t1,t1,0x1
    2d1a:	0900                	addi	s0,sp,144
    2d1c:	0000                	unimp
    2d1e:	0501                	addi	a0,a0,0
    2d20:	01030603          	lb	a2,16(t1)
    2d24:	0809                	addi	a6,a6,2
    2d26:	0100                	addi	s0,sp,128
    2d28:	2c05                	jal	2f58 <_min_stack+0xf58>
    2d2a:	0306                	slli	t1,t1,0x1
    2d2c:	0900                	addi	s0,sp,144
    2d2e:	0000                	unimp
    2d30:	0501                	addi	a0,a0,0
    2d32:	01030603          	lb	a2,16(t1)
    2d36:	0809                	addi	a6,a6,2
    2d38:	0100                	addi	s0,sp,128
    2d3a:	2c05                	jal	2f6a <_min_stack+0xf6a>
    2d3c:	0306                	slli	t1,t1,0x1
    2d3e:	0900                	addi	s0,sp,144
    2d40:	0000                	unimp
    2d42:	0501                	addi	a0,a0,0
    2d44:	01030603          	lb	a2,16(t1)
    2d48:	0809                	addi	a6,a6,2
    2d4a:	0100                	addi	s0,sp,128
    2d4c:	2c05                	jal	2f7c <_min_stack+0xf7c>
    2d4e:	0306                	slli	t1,t1,0x1
    2d50:	0900                	addi	s0,sp,144
    2d52:	0000                	unimp
    2d54:	0501                	addi	a0,a0,0
    2d56:	01030603          	lb	a2,16(t1)
    2d5a:	0809                	addi	a6,a6,2
    2d5c:	0100                	addi	s0,sp,128
    2d5e:	2c05                	jal	2f8e <_min_stack+0xf8e>
    2d60:	0306                	slli	t1,t1,0x1
    2d62:	0900                	addi	s0,sp,144
    2d64:	0000                	unimp
    2d66:	0501                	addi	a0,a0,0
    2d68:	01030603          	lb	a2,16(t1)
    2d6c:	0809                	addi	a6,a6,2
    2d6e:	0100                	addi	s0,sp,128
    2d70:	2c05                	jal	2fa0 <_min_stack+0xfa0>
    2d72:	0306                	slli	t1,t1,0x1
    2d74:	0900                	addi	s0,sp,144
    2d76:	0000                	unimp
    2d78:	0501                	addi	a0,a0,0
    2d7a:	01030603          	lb	a2,16(t1)
    2d7e:	0809                	addi	a6,a6,2
    2d80:	0100                	addi	s0,sp,128
    2d82:	2c05                	jal	2fb2 <_min_stack+0xfb2>
    2d84:	0306                	slli	t1,t1,0x1
    2d86:	0900                	addi	s0,sp,144
    2d88:	0000                	unimp
    2d8a:	0501                	addi	a0,a0,0
    2d8c:	01030603          	lb	a2,16(t1)
    2d90:	0809                	addi	a6,a6,2
    2d92:	0100                	addi	s0,sp,128
    2d94:	2c05                	jal	2fc4 <_min_stack+0xfc4>
    2d96:	0306                	slli	t1,t1,0x1
    2d98:	0900                	addi	s0,sp,144
    2d9a:	0000                	unimp
    2d9c:	0501                	addi	a0,a0,0
    2d9e:	01030603          	lb	a2,16(t1)
    2da2:	0809                	addi	a6,a6,2
    2da4:	0100                	addi	s0,sp,128
    2da6:	2c05                	jal	2fd6 <_min_stack+0xfd6>
    2da8:	0306                	slli	t1,t1,0x1
    2daa:	0900                	addi	s0,sp,144
    2dac:	0000                	unimp
    2dae:	0501                	addi	a0,a0,0
    2db0:	01030603          	lb	a2,16(t1)
    2db4:	0c09                	addi	s8,s8,2
    2db6:	0100                	addi	s0,sp,128
    2db8:	2c05                	jal	2fe8 <_min_stack+0xfe8>
    2dba:	0306                	slli	t1,t1,0x1
    2dbc:	0900                	addi	s0,sp,144
    2dbe:	0000                	unimp
    2dc0:	0501                	addi	a0,a0,0
    2dc2:	01030603          	lb	a2,16(t1)
    2dc6:	0809                	addi	a6,a6,2
    2dc8:	0100                	addi	s0,sp,128
    2dca:	2c05                	jal	2ffa <_min_stack+0xffa>
    2dcc:	0306                	slli	t1,t1,0x1
    2dce:	0900                	addi	s0,sp,144
    2dd0:	0000                	unimp
    2dd2:	0501                	addi	a0,a0,0
    2dd4:	01030603          	lb	a2,16(t1)
    2dd8:	0809                	addi	a6,a6,2
    2dda:	0100                	addi	s0,sp,128
    2ddc:	2c05                	jal	300c <_min_stack+0x100c>
    2dde:	0306                	slli	t1,t1,0x1
    2de0:	0900                	addi	s0,sp,144
    2de2:	0000                	unimp
    2de4:	0501                	addi	a0,a0,0
    2de6:	01030603          	lb	a2,16(t1)
    2dea:	0809                	addi	a6,a6,2
    2dec:	0100                	addi	s0,sp,128
    2dee:	2c05                	jal	301e <_min_stack+0x101e>
    2df0:	0306                	slli	t1,t1,0x1
    2df2:	0900                	addi	s0,sp,144
    2df4:	0000                	unimp
    2df6:	0501                	addi	a0,a0,0
    2df8:	01030603          	lb	a2,16(t1)
    2dfc:	0809                	addi	a6,a6,2
    2dfe:	0100                	addi	s0,sp,128
    2e00:	2c05                	jal	3030 <_min_stack+0x1030>
    2e02:	0306                	slli	t1,t1,0x1
    2e04:	0900                	addi	s0,sp,144
    2e06:	0000                	unimp
    2e08:	0501                	addi	a0,a0,0
    2e0a:	01030603          	lb	a2,16(t1)
    2e0e:	0809                	addi	a6,a6,2
    2e10:	0100                	addi	s0,sp,128
    2e12:	2c05                	jal	3042 <_min_stack+0x1042>
    2e14:	0306                	slli	t1,t1,0x1
    2e16:	0900                	addi	s0,sp,144
    2e18:	0000                	unimp
    2e1a:	0501                	addi	a0,a0,0
    2e1c:	01030603          	lb	a2,16(t1)
    2e20:	0809                	addi	a6,a6,2
    2e22:	0100                	addi	s0,sp,128
    2e24:	2c05                	jal	3054 <_min_stack+0x1054>
    2e26:	0306                	slli	t1,t1,0x1
    2e28:	0900                	addi	s0,sp,144
    2e2a:	0000                	unimp
    2e2c:	0501                	addi	a0,a0,0
    2e2e:	01030603          	lb	a2,16(t1)
    2e32:	0809                	addi	a6,a6,2
    2e34:	0100                	addi	s0,sp,128
    2e36:	2c05                	jal	3066 <_min_stack+0x1066>
    2e38:	0306                	slli	t1,t1,0x1
    2e3a:	0900                	addi	s0,sp,144
    2e3c:	0000                	unimp
    2e3e:	0501                	addi	a0,a0,0
    2e40:	01030603          	lb	a2,16(t1)
    2e44:	0809                	addi	a6,a6,2
    2e46:	0100                	addi	s0,sp,128
    2e48:	2c05                	jal	3078 <_min_stack+0x1078>
    2e4a:	0306                	slli	t1,t1,0x1
    2e4c:	0900                	addi	s0,sp,144
    2e4e:	0000                	unimp
    2e50:	0501                	addi	a0,a0,0
    2e52:	01030603          	lb	a2,16(t1)
    2e56:	0809                	addi	a6,a6,2
    2e58:	0100                	addi	s0,sp,128
    2e5a:	2c05                	jal	308a <_min_stack+0x108a>
    2e5c:	0306                	slli	t1,t1,0x1
    2e5e:	0900                	addi	s0,sp,144
    2e60:	0000                	unimp
    2e62:	0501                	addi	a0,a0,0
    2e64:	01030603          	lb	a2,16(t1)
    2e68:	0809                	addi	a6,a6,2
    2e6a:	0100                	addi	s0,sp,128
    2e6c:	2c05                	jal	309c <_min_stack+0x109c>
    2e6e:	0306                	slli	t1,t1,0x1
    2e70:	0900                	addi	s0,sp,144
    2e72:	0000                	unimp
    2e74:	0501                	addi	a0,a0,0
    2e76:	01030603          	lb	a2,16(t1)
    2e7a:	0809                	addi	a6,a6,2
    2e7c:	0100                	addi	s0,sp,128
    2e7e:	2c05                	jal	30ae <_min_stack+0x10ae>
    2e80:	0306                	slli	t1,t1,0x1
    2e82:	0900                	addi	s0,sp,144
    2e84:	0000                	unimp
    2e86:	0501                	addi	a0,a0,0
    2e88:	01030603          	lb	a2,16(t1)
    2e8c:	0809                	addi	a6,a6,2
    2e8e:	0100                	addi	s0,sp,128
    2e90:	2c05                	jal	30c0 <_min_stack+0x10c0>
    2e92:	0306                	slli	t1,t1,0x1
    2e94:	0900                	addi	s0,sp,144
    2e96:	0000                	unimp
    2e98:	0501                	addi	a0,a0,0
    2e9a:	01030603          	lb	a2,16(t1)
    2e9e:	0809                	addi	a6,a6,2
    2ea0:	0100                	addi	s0,sp,128
    2ea2:	2c05                	jal	30d2 <_min_stack+0x10d2>
    2ea4:	0306                	slli	t1,t1,0x1
    2ea6:	0900                	addi	s0,sp,144
    2ea8:	0000                	unimp
    2eaa:	0501                	addi	a0,a0,0
    2eac:	01030603          	lb	a2,16(t1)
    2eb0:	0809                	addi	a6,a6,2
    2eb2:	0100                	addi	s0,sp,128
    2eb4:	2c05                	jal	30e4 <_min_stack+0x10e4>
    2eb6:	0306                	slli	t1,t1,0x1
    2eb8:	0900                	addi	s0,sp,144
    2eba:	0000                	unimp
    2ebc:	0501                	addi	a0,a0,0
    2ebe:	01030603          	lb	a2,16(t1)
    2ec2:	0809                	addi	a6,a6,2
    2ec4:	0100                	addi	s0,sp,128
    2ec6:	2c05                	jal	30f6 <_min_stack+0x10f6>
    2ec8:	0306                	slli	t1,t1,0x1
    2eca:	0900                	addi	s0,sp,144
    2ecc:	0000                	unimp
    2ece:	0501                	addi	a0,a0,0
    2ed0:	01030603          	lb	a2,16(t1)
    2ed4:	0809                	addi	a6,a6,2
    2ed6:	0100                	addi	s0,sp,128
    2ed8:	2c05                	jal	3108 <_min_stack+0x1108>
    2eda:	0306                	slli	t1,t1,0x1
    2edc:	0900                	addi	s0,sp,144
    2ede:	0000                	unimp
    2ee0:	0501                	addi	a0,a0,0
    2ee2:	01030603          	lb	a2,16(t1)
    2ee6:	0809                	addi	a6,a6,2
    2ee8:	0100                	addi	s0,sp,128
    2eea:	2c05                	jal	311a <_min_stack+0x111a>
    2eec:	0306                	slli	t1,t1,0x1
    2eee:	0900                	addi	s0,sp,144
    2ef0:	0000                	unimp
    2ef2:	0501                	addi	a0,a0,0
    2ef4:	01030603          	lb	a2,16(t1)
    2ef8:	0809                	addi	a6,a6,2
    2efa:	0100                	addi	s0,sp,128
    2efc:	2c05                	jal	312c <_min_stack+0x112c>
    2efe:	0306                	slli	t1,t1,0x1
    2f00:	0900                	addi	s0,sp,144
    2f02:	0000                	unimp
    2f04:	0501                	addi	a0,a0,0
    2f06:	01030603          	lb	a2,16(t1)
    2f0a:	0809                	addi	a6,a6,2
    2f0c:	0100                	addi	s0,sp,128
    2f0e:	2c05                	jal	313e <_min_stack+0x113e>
    2f10:	0306                	slli	t1,t1,0x1
    2f12:	0900                	addi	s0,sp,144
    2f14:	0000                	unimp
    2f16:	0501                	addi	a0,a0,0
    2f18:	01030603          	lb	a2,16(t1)
    2f1c:	0809                	addi	a6,a6,2
    2f1e:	0100                	addi	s0,sp,128
    2f20:	2c05                	jal	3150 <_min_stack+0x1150>
    2f22:	0306                	slli	t1,t1,0x1
    2f24:	0900                	addi	s0,sp,144
    2f26:	0000                	unimp
    2f28:	0501                	addi	a0,a0,0
    2f2a:	01030603          	lb	a2,16(t1)
    2f2e:	0809                	addi	a6,a6,2
    2f30:	0100                	addi	s0,sp,128
    2f32:	2c05                	jal	3162 <_min_stack+0x1162>
    2f34:	0306                	slli	t1,t1,0x1
    2f36:	0900                	addi	s0,sp,144
    2f38:	0000                	unimp
    2f3a:	0501                	addi	a0,a0,0
    2f3c:	01030603          	lb	a2,16(t1)
    2f40:	0809                	addi	a6,a6,2
    2f42:	0100                	addi	s0,sp,128
    2f44:	2c05                	jal	3174 <_min_stack+0x1174>
    2f46:	0306                	slli	t1,t1,0x1
    2f48:	0900                	addi	s0,sp,144
    2f4a:	0000                	unimp
    2f4c:	0501                	addi	a0,a0,0
    2f4e:	01030603          	lb	a2,16(t1)
    2f52:	0809                	addi	a6,a6,2
    2f54:	0100                	addi	s0,sp,128
    2f56:	2c05                	jal	3186 <_min_stack+0x1186>
    2f58:	0306                	slli	t1,t1,0x1
    2f5a:	0900                	addi	s0,sp,144
    2f5c:	0000                	unimp
    2f5e:	0501                	addi	a0,a0,0
    2f60:	01030603          	lb	a2,16(t1)
    2f64:	0809                	addi	a6,a6,2
    2f66:	0100                	addi	s0,sp,128
    2f68:	2c05                	jal	3198 <_min_stack+0x1198>
    2f6a:	0306                	slli	t1,t1,0x1
    2f6c:	0900                	addi	s0,sp,144
    2f6e:	0000                	unimp
    2f70:	0501                	addi	a0,a0,0
    2f72:	01030603          	lb	a2,16(t1)
    2f76:	0809                	addi	a6,a6,2
    2f78:	0100                	addi	s0,sp,128
    2f7a:	2c05                	jal	31aa <_min_stack+0x11aa>
    2f7c:	0306                	slli	t1,t1,0x1
    2f7e:	0900                	addi	s0,sp,144
    2f80:	0000                	unimp
    2f82:	0501                	addi	a0,a0,0
    2f84:	01030603          	lb	a2,16(t1)
    2f88:	0809                	addi	a6,a6,2
    2f8a:	0100                	addi	s0,sp,128
    2f8c:	2c05                	jal	31bc <_min_stack+0x11bc>
    2f8e:	0306                	slli	t1,t1,0x1
    2f90:	0900                	addi	s0,sp,144
    2f92:	0000                	unimp
    2f94:	0501                	addi	a0,a0,0
    2f96:	01030603          	lb	a2,16(t1)
    2f9a:	0809                	addi	a6,a6,2
    2f9c:	0100                	addi	s0,sp,128
    2f9e:	2c05                	jal	31ce <_min_stack+0x11ce>
    2fa0:	0306                	slli	t1,t1,0x1
    2fa2:	0900                	addi	s0,sp,144
    2fa4:	0000                	unimp
    2fa6:	0501                	addi	a0,a0,0
    2fa8:	01030603          	lb	a2,16(t1)
    2fac:	0809                	addi	a6,a6,2
    2fae:	0100                	addi	s0,sp,128
    2fb0:	2c05                	jal	31e0 <_min_stack+0x11e0>
    2fb2:	0306                	slli	t1,t1,0x1
    2fb4:	0900                	addi	s0,sp,144
    2fb6:	0000                	unimp
    2fb8:	0501                	addi	a0,a0,0
    2fba:	01030603          	lb	a2,16(t1)
    2fbe:	0809                	addi	a6,a6,2
    2fc0:	0100                	addi	s0,sp,128
    2fc2:	2c05                	jal	31f2 <_min_stack+0x11f2>
    2fc4:	0306                	slli	t1,t1,0x1
    2fc6:	0900                	addi	s0,sp,144
    2fc8:	0000                	unimp
    2fca:	0501                	addi	a0,a0,0
    2fcc:	01030603          	lb	a2,16(t1)
    2fd0:	0809                	addi	a6,a6,2
    2fd2:	0100                	addi	s0,sp,128
    2fd4:	2c05                	jal	3204 <_min_stack+0x1204>
    2fd6:	0306                	slli	t1,t1,0x1
    2fd8:	0900                	addi	s0,sp,144
    2fda:	0000                	unimp
    2fdc:	0501                	addi	a0,a0,0
    2fde:	01030603          	lb	a2,16(t1)
    2fe2:	0809                	addi	a6,a6,2
    2fe4:	0100                	addi	s0,sp,128
    2fe6:	2c05                	jal	3216 <_min_stack+0x1216>
    2fe8:	0306                	slli	t1,t1,0x1
    2fea:	0900                	addi	s0,sp,144
    2fec:	0000                	unimp
    2fee:	0501                	addi	a0,a0,0
    2ff0:	01030603          	lb	a2,16(t1)
    2ff4:	0809                	addi	a6,a6,2
    2ff6:	0100                	addi	s0,sp,128
    2ff8:	2c05                	jal	3228 <_min_stack+0x1228>
    2ffa:	0306                	slli	t1,t1,0x1
    2ffc:	0900                	addi	s0,sp,144
    2ffe:	0000                	unimp
    3000:	0501                	addi	a0,a0,0
    3002:	01030603          	lb	a2,16(t1)
    3006:	0809                	addi	a6,a6,2
    3008:	0100                	addi	s0,sp,128
    300a:	2c05                	jal	323a <_min_stack+0x123a>
    300c:	0306                	slli	t1,t1,0x1
    300e:	0900                	addi	s0,sp,144
    3010:	0000                	unimp
    3012:	0501                	addi	a0,a0,0
    3014:	01030603          	lb	a2,16(t1)
    3018:	0809                	addi	a6,a6,2
    301a:	0100                	addi	s0,sp,128
    301c:	2c05                	jal	324c <_min_stack+0x124c>
    301e:	0306                	slli	t1,t1,0x1
    3020:	0900                	addi	s0,sp,144
    3022:	0000                	unimp
    3024:	0501                	addi	a0,a0,0
    3026:	01030603          	lb	a2,16(t1)
    302a:	0809                	addi	a6,a6,2
    302c:	0100                	addi	s0,sp,128
    302e:	2c05                	jal	325e <_min_stack+0x125e>
    3030:	0306                	slli	t1,t1,0x1
    3032:	0900                	addi	s0,sp,144
    3034:	0000                	unimp
    3036:	0501                	addi	a0,a0,0
    3038:	01030603          	lb	a2,16(t1)
    303c:	0809                	addi	a6,a6,2
    303e:	0100                	addi	s0,sp,128
    3040:	2c05                	jal	3270 <_min_stack+0x1270>
    3042:	0306                	slli	t1,t1,0x1
    3044:	0900                	addi	s0,sp,144
    3046:	0000                	unimp
    3048:	0501                	addi	a0,a0,0
    304a:	01030603          	lb	a2,16(t1)
    304e:	0809                	addi	a6,a6,2
    3050:	0100                	addi	s0,sp,128
    3052:	2c05                	jal	3282 <_min_stack+0x1282>
    3054:	0306                	slli	t1,t1,0x1
    3056:	0900                	addi	s0,sp,144
    3058:	0000                	unimp
    305a:	0501                	addi	a0,a0,0
    305c:	01030603          	lb	a2,16(t1)
    3060:	0809                	addi	a6,a6,2
    3062:	0100                	addi	s0,sp,128
    3064:	2c05                	jal	3294 <_min_stack+0x1294>
    3066:	0306                	slli	t1,t1,0x1
    3068:	0900                	addi	s0,sp,144
    306a:	0000                	unimp
    306c:	0501                	addi	a0,a0,0
    306e:	01030603          	lb	a2,16(t1)
    3072:	0809                	addi	a6,a6,2
    3074:	0100                	addi	s0,sp,128
    3076:	2c05                	jal	32a6 <_min_stack+0x12a6>
    3078:	0306                	slli	t1,t1,0x1
    307a:	0900                	addi	s0,sp,144
    307c:	0000                	unimp
    307e:	0501                	addi	a0,a0,0
    3080:	01030603          	lb	a2,16(t1)
    3084:	0809                	addi	a6,a6,2
    3086:	0100                	addi	s0,sp,128
    3088:	2c05                	jal	32b8 <_min_stack+0x12b8>
    308a:	0306                	slli	t1,t1,0x1
    308c:	0900                	addi	s0,sp,144
    308e:	0000                	unimp
    3090:	0501                	addi	a0,a0,0
    3092:	01030603          	lb	a2,16(t1)
    3096:	0809                	addi	a6,a6,2
    3098:	0100                	addi	s0,sp,128
    309a:	2c05                	jal	32ca <_min_stack+0x12ca>
    309c:	0306                	slli	t1,t1,0x1
    309e:	0900                	addi	s0,sp,144
    30a0:	0000                	unimp
    30a2:	0501                	addi	a0,a0,0
    30a4:	01030603          	lb	a2,16(t1)
    30a8:	0809                	addi	a6,a6,2
    30aa:	0100                	addi	s0,sp,128
    30ac:	2c05                	jal	32dc <_min_stack+0x12dc>
    30ae:	0306                	slli	t1,t1,0x1
    30b0:	0900                	addi	s0,sp,144
    30b2:	0000                	unimp
    30b4:	0501                	addi	a0,a0,0
    30b6:	01030603          	lb	a2,16(t1)
    30ba:	0809                	addi	a6,a6,2
    30bc:	0100                	addi	s0,sp,128
    30be:	2c05                	jal	32ee <_min_stack+0x12ee>
    30c0:	0306                	slli	t1,t1,0x1
    30c2:	0900                	addi	s0,sp,144
    30c4:	0000                	unimp
    30c6:	0501                	addi	a0,a0,0
    30c8:	01030603          	lb	a2,16(t1)
    30cc:	0809                	addi	a6,a6,2
    30ce:	0100                	addi	s0,sp,128
    30d0:	2c05                	jal	3300 <_min_stack+0x1300>
    30d2:	0306                	slli	t1,t1,0x1
    30d4:	0900                	addi	s0,sp,144
    30d6:	0000                	unimp
    30d8:	0501                	addi	a0,a0,0
    30da:	01030603          	lb	a2,16(t1)
    30de:	0809                	addi	a6,a6,2
    30e0:	0100                	addi	s0,sp,128
    30e2:	2c05                	jal	3312 <_min_stack+0x1312>
    30e4:	0306                	slli	t1,t1,0x1
    30e6:	0900                	addi	s0,sp,144
    30e8:	0000                	unimp
    30ea:	0501                	addi	a0,a0,0
    30ec:	01030603          	lb	a2,16(t1)
    30f0:	0809                	addi	a6,a6,2
    30f2:	0100                	addi	s0,sp,128
    30f4:	2c05                	jal	3324 <_min_stack+0x1324>
    30f6:	0306                	slli	t1,t1,0x1
    30f8:	0900                	addi	s0,sp,144
    30fa:	0000                	unimp
    30fc:	0501                	addi	a0,a0,0
    30fe:	01030603          	lb	a2,16(t1)
    3102:	0809                	addi	a6,a6,2
    3104:	0100                	addi	s0,sp,128
    3106:	2c05                	jal	3336 <_min_stack+0x1336>
    3108:	0306                	slli	t1,t1,0x1
    310a:	0900                	addi	s0,sp,144
    310c:	0000                	unimp
    310e:	0501                	addi	a0,a0,0
    3110:	01030603          	lb	a2,16(t1)
    3114:	0809                	addi	a6,a6,2
    3116:	0100                	addi	s0,sp,128
    3118:	2c05                	jal	3348 <_min_stack+0x1348>
    311a:	0306                	slli	t1,t1,0x1
    311c:	0900                	addi	s0,sp,144
    311e:	0000                	unimp
    3120:	0501                	addi	a0,a0,0
    3122:	01030603          	lb	a2,16(t1)
    3126:	0809                	addi	a6,a6,2
    3128:	0100                	addi	s0,sp,128
    312a:	2c05                	jal	335a <_min_stack+0x135a>
    312c:	0306                	slli	t1,t1,0x1
    312e:	0900                	addi	s0,sp,144
    3130:	0000                	unimp
    3132:	0501                	addi	a0,a0,0
    3134:	01030603          	lb	a2,16(t1)
    3138:	0809                	addi	a6,a6,2
    313a:	0100                	addi	s0,sp,128
    313c:	2c05                	jal	336c <_min_stack+0x136c>
    313e:	0306                	slli	t1,t1,0x1
    3140:	0900                	addi	s0,sp,144
    3142:	0000                	unimp
    3144:	0501                	addi	a0,a0,0
    3146:	01030603          	lb	a2,16(t1)
    314a:	0809                	addi	a6,a6,2
    314c:	0100                	addi	s0,sp,128
    314e:	2c05                	jal	337e <_min_stack+0x137e>
    3150:	0306                	slli	t1,t1,0x1
    3152:	0900                	addi	s0,sp,144
    3154:	0000                	unimp
    3156:	0501                	addi	a0,a0,0
    3158:	01030603          	lb	a2,16(t1)
    315c:	0809                	addi	a6,a6,2
    315e:	0100                	addi	s0,sp,128
    3160:	2c05                	jal	3390 <_min_stack+0x1390>
    3162:	0306                	slli	t1,t1,0x1
    3164:	0900                	addi	s0,sp,144
    3166:	0000                	unimp
    3168:	0501                	addi	a0,a0,0
    316a:	01030603          	lb	a2,16(t1)
    316e:	0809                	addi	a6,a6,2
    3170:	0100                	addi	s0,sp,128
    3172:	2c05                	jal	33a2 <_min_stack+0x13a2>
    3174:	0306                	slli	t1,t1,0x1
    3176:	0900                	addi	s0,sp,144
    3178:	0000                	unimp
    317a:	0501                	addi	a0,a0,0
    317c:	01030603          	lb	a2,16(t1)
    3180:	0809                	addi	a6,a6,2
    3182:	0100                	addi	s0,sp,128
    3184:	2c05                	jal	33b4 <_min_stack+0x13b4>
    3186:	0306                	slli	t1,t1,0x1
    3188:	0900                	addi	s0,sp,144
    318a:	0000                	unimp
    318c:	0501                	addi	a0,a0,0
    318e:	01030603          	lb	a2,16(t1)
    3192:	0809                	addi	a6,a6,2
    3194:	0100                	addi	s0,sp,128
    3196:	2c05                	jal	33c6 <_min_stack+0x13c6>
    3198:	0306                	slli	t1,t1,0x1
    319a:	0900                	addi	s0,sp,144
    319c:	0000                	unimp
    319e:	0501                	addi	a0,a0,0
    31a0:	01030603          	lb	a2,16(t1)
    31a4:	0809                	addi	a6,a6,2
    31a6:	0100                	addi	s0,sp,128
    31a8:	2c05                	jal	33d8 <_min_stack+0x13d8>
    31aa:	0306                	slli	t1,t1,0x1
    31ac:	0900                	addi	s0,sp,144
    31ae:	0000                	unimp
    31b0:	0501                	addi	a0,a0,0
    31b2:	01030603          	lb	a2,16(t1)
    31b6:	0809                	addi	a6,a6,2
    31b8:	0100                	addi	s0,sp,128
    31ba:	2c05                	jal	33ea <_min_stack+0x13ea>
    31bc:	0306                	slli	t1,t1,0x1
    31be:	0900                	addi	s0,sp,144
    31c0:	0000                	unimp
    31c2:	0501                	addi	a0,a0,0
    31c4:	01030603          	lb	a2,16(t1)
    31c8:	0809                	addi	a6,a6,2
    31ca:	0100                	addi	s0,sp,128
    31cc:	2c05                	jal	33fc <_min_stack+0x13fc>
    31ce:	0306                	slli	t1,t1,0x1
    31d0:	0900                	addi	s0,sp,144
    31d2:	0000                	unimp
    31d4:	0501                	addi	a0,a0,0
    31d6:	01030603          	lb	a2,16(t1)
    31da:	0809                	addi	a6,a6,2
    31dc:	0100                	addi	s0,sp,128
    31de:	2c05                	jal	340e <_min_stack+0x140e>
    31e0:	0306                	slli	t1,t1,0x1
    31e2:	0900                	addi	s0,sp,144
    31e4:	0000                	unimp
    31e6:	0501                	addi	a0,a0,0
    31e8:	01030603          	lb	a2,16(t1)
    31ec:	0809                	addi	a6,a6,2
    31ee:	0100                	addi	s0,sp,128
    31f0:	2c05                	jal	3420 <_min_stack+0x1420>
    31f2:	0306                	slli	t1,t1,0x1
    31f4:	0900                	addi	s0,sp,144
    31f6:	0000                	unimp
    31f8:	0501                	addi	a0,a0,0
    31fa:	01030603          	lb	a2,16(t1)
    31fe:	0809                	addi	a6,a6,2
    3200:	0100                	addi	s0,sp,128
    3202:	2c05                	jal	3432 <_min_stack+0x1432>
    3204:	0306                	slli	t1,t1,0x1
    3206:	0900                	addi	s0,sp,144
    3208:	0000                	unimp
    320a:	0501                	addi	a0,a0,0
    320c:	01030603          	lb	a2,16(t1)
    3210:	0809                	addi	a6,a6,2
    3212:	0100                	addi	s0,sp,128
    3214:	2c05                	jal	3444 <_min_stack+0x1444>
    3216:	0306                	slli	t1,t1,0x1
    3218:	0900                	addi	s0,sp,144
    321a:	0000                	unimp
    321c:	0501                	addi	a0,a0,0
    321e:	01030603          	lb	a2,16(t1)
    3222:	0809                	addi	a6,a6,2
    3224:	0100                	addi	s0,sp,128
    3226:	2c05                	jal	3456 <_min_stack+0x1456>
    3228:	0306                	slli	t1,t1,0x1
    322a:	0900                	addi	s0,sp,144
    322c:	0000                	unimp
    322e:	0501                	addi	a0,a0,0
    3230:	01030603          	lb	a2,16(t1)
    3234:	0809                	addi	a6,a6,2
    3236:	0100                	addi	s0,sp,128
    3238:	2c05                	jal	3468 <_min_stack+0x1468>
    323a:	0306                	slli	t1,t1,0x1
    323c:	0900                	addi	s0,sp,144
    323e:	0000                	unimp
    3240:	0501                	addi	a0,a0,0
    3242:	01030603          	lb	a2,16(t1)
    3246:	0809                	addi	a6,a6,2
    3248:	0100                	addi	s0,sp,128
    324a:	2c05                	jal	347a <_min_stack+0x147a>
    324c:	0306                	slli	t1,t1,0x1
    324e:	0900                	addi	s0,sp,144
    3250:	0000                	unimp
    3252:	0501                	addi	a0,a0,0
    3254:	01030603          	lb	a2,16(t1)
    3258:	0809                	addi	a6,a6,2
    325a:	0100                	addi	s0,sp,128
    325c:	2c05                	jal	348c <_min_stack+0x148c>
    325e:	0306                	slli	t1,t1,0x1
    3260:	0900                	addi	s0,sp,144
    3262:	0000                	unimp
    3264:	0501                	addi	a0,a0,0
    3266:	01030603          	lb	a2,16(t1)
    326a:	0809                	addi	a6,a6,2
    326c:	0100                	addi	s0,sp,128
    326e:	2c05                	jal	349e <_min_stack+0x149e>
    3270:	0306                	slli	t1,t1,0x1
    3272:	0900                	addi	s0,sp,144
    3274:	0000                	unimp
    3276:	0501                	addi	a0,a0,0
    3278:	01030603          	lb	a2,16(t1)
    327c:	0809                	addi	a6,a6,2
    327e:	0100                	addi	s0,sp,128
    3280:	2c05                	jal	34b0 <_min_stack+0x14b0>
    3282:	0306                	slli	t1,t1,0x1
    3284:	0900                	addi	s0,sp,144
    3286:	0000                	unimp
    3288:	0501                	addi	a0,a0,0
    328a:	01030603          	lb	a2,16(t1)
    328e:	0809                	addi	a6,a6,2
    3290:	0100                	addi	s0,sp,128
    3292:	2c05                	jal	34c2 <_min_stack+0x14c2>
    3294:	0306                	slli	t1,t1,0x1
    3296:	0900                	addi	s0,sp,144
    3298:	0000                	unimp
    329a:	0501                	addi	a0,a0,0
    329c:	01030603          	lb	a2,16(t1)
    32a0:	0809                	addi	a6,a6,2
    32a2:	0100                	addi	s0,sp,128
    32a4:	2c05                	jal	34d4 <_min_stack+0x14d4>
    32a6:	0306                	slli	t1,t1,0x1
    32a8:	0900                	addi	s0,sp,144
    32aa:	0000                	unimp
    32ac:	0501                	addi	a0,a0,0
    32ae:	01030603          	lb	a2,16(t1)
    32b2:	0809                	addi	a6,a6,2
    32b4:	0100                	addi	s0,sp,128
    32b6:	2c05                	jal	34e6 <_min_stack+0x14e6>
    32b8:	0306                	slli	t1,t1,0x1
    32ba:	0900                	addi	s0,sp,144
    32bc:	0000                	unimp
    32be:	0501                	addi	a0,a0,0
    32c0:	01030603          	lb	a2,16(t1)
    32c4:	0809                	addi	a6,a6,2
    32c6:	0100                	addi	s0,sp,128
    32c8:	2c05                	jal	34f8 <_min_stack+0x14f8>
    32ca:	0306                	slli	t1,t1,0x1
    32cc:	0900                	addi	s0,sp,144
    32ce:	0000                	unimp
    32d0:	0501                	addi	a0,a0,0
    32d2:	01030603          	lb	a2,16(t1)
    32d6:	0809                	addi	a6,a6,2
    32d8:	0100                	addi	s0,sp,128
    32da:	2c05                	jal	350a <_min_stack+0x150a>
    32dc:	0306                	slli	t1,t1,0x1
    32de:	0900                	addi	s0,sp,144
    32e0:	0000                	unimp
    32e2:	0501                	addi	a0,a0,0
    32e4:	01030603          	lb	a2,16(t1)
    32e8:	0809                	addi	a6,a6,2
    32ea:	0100                	addi	s0,sp,128
    32ec:	2c05                	jal	351c <_min_stack+0x151c>
    32ee:	0306                	slli	t1,t1,0x1
    32f0:	0900                	addi	s0,sp,144
    32f2:	0000                	unimp
    32f4:	0501                	addi	a0,a0,0
    32f6:	01030603          	lb	a2,16(t1)
    32fa:	0809                	addi	a6,a6,2
    32fc:	0100                	addi	s0,sp,128
    32fe:	2c05                	jal	352e <_min_stack+0x152e>
    3300:	0306                	slli	t1,t1,0x1
    3302:	0900                	addi	s0,sp,144
    3304:	0000                	unimp
    3306:	0501                	addi	a0,a0,0
    3308:	01030603          	lb	a2,16(t1)
    330c:	0809                	addi	a6,a6,2
    330e:	0100                	addi	s0,sp,128
    3310:	2c05                	jal	3540 <_min_stack+0x1540>
    3312:	0306                	slli	t1,t1,0x1
    3314:	0900                	addi	s0,sp,144
    3316:	0000                	unimp
    3318:	0501                	addi	a0,a0,0
    331a:	01030603          	lb	a2,16(t1)
    331e:	0809                	addi	a6,a6,2
    3320:	0100                	addi	s0,sp,128
    3322:	2c05                	jal	3552 <_min_stack+0x1552>
    3324:	0306                	slli	t1,t1,0x1
    3326:	0900                	addi	s0,sp,144
    3328:	0000                	unimp
    332a:	0501                	addi	a0,a0,0
    332c:	01030603          	lb	a2,16(t1)
    3330:	0809                	addi	a6,a6,2
    3332:	0100                	addi	s0,sp,128
    3334:	2c05                	jal	3564 <_min_stack+0x1564>
    3336:	0306                	slli	t1,t1,0x1
    3338:	0900                	addi	s0,sp,144
    333a:	0000                	unimp
    333c:	0501                	addi	a0,a0,0
    333e:	01030603          	lb	a2,16(t1)
    3342:	0809                	addi	a6,a6,2
    3344:	0100                	addi	s0,sp,128
    3346:	2c05                	jal	3576 <_min_stack+0x1576>
    3348:	0306                	slli	t1,t1,0x1
    334a:	0900                	addi	s0,sp,144
    334c:	0000                	unimp
    334e:	0501                	addi	a0,a0,0
    3350:	01030603          	lb	a2,16(t1)
    3354:	0809                	addi	a6,a6,2
    3356:	0100                	addi	s0,sp,128
    3358:	2c05                	jal	3588 <_min_stack+0x1588>
    335a:	0306                	slli	t1,t1,0x1
    335c:	0900                	addi	s0,sp,144
    335e:	0000                	unimp
    3360:	0301                	addi	t1,t1,0
    3362:	0901                	addi	s2,s2,0
    3364:	0004                	.2byte	0x4
    3366:	0301                	addi	t1,t1,0
    3368:	097f                	.2byte	0x97f
    336a:	0004                	.2byte	0x4
    336c:	0501                	addi	a0,a0,0
    336e:	01030603          	lb	a2,16(t1)
    3372:	0409                	addi	s0,s0,2
    3374:	0100                	addi	s0,sp,128
    3376:	2c05                	jal	35a6 <_min_stack+0x15a6>
    3378:	0306                	slli	t1,t1,0x1
    337a:	0901                	addi	s2,s2,0
    337c:	0000                	unimp
    337e:	0301                	addi	t1,t1,0
    3380:	097f                	.2byte	0x97f
    3382:	0004                	.2byte	0x4
    3384:	0501                	addi	a0,a0,0
    3386:	01030603          	lb	a2,16(t1)
    338a:	0a09                	addi	s4,s4,2
    338c:	0100                	addi	s0,sp,128
    338e:	2c05                	jal	35be <_min_stack+0x15be>
    3390:	0306                	slli	t1,t1,0x1
    3392:	0900                	addi	s0,sp,144
    3394:	0000                	unimp
    3396:	0501                	addi	a0,a0,0
    3398:	01030603          	lb	a2,16(t1)
    339c:	0609                	addi	a2,a2,2
    339e:	0100                	addi	s0,sp,128
    33a0:	2c05                	jal	35d0 <_min_stack+0x15d0>
    33a2:	0306                	slli	t1,t1,0x1
    33a4:	0900                	addi	s0,sp,144
    33a6:	0000                	unimp
    33a8:	0501                	addi	a0,a0,0
    33aa:	01030603          	lb	a2,16(t1)
    33ae:	0a09                	addi	s4,s4,2
    33b0:	0100                	addi	s0,sp,128
    33b2:	2c05                	jal	35e2 <_min_stack+0x15e2>
    33b4:	0306                	slli	t1,t1,0x1
    33b6:	0900                	addi	s0,sp,144
    33b8:	0000                	unimp
    33ba:	0501                	addi	a0,a0,0
    33bc:	01030603          	lb	a2,16(t1)
    33c0:	0a09                	addi	s4,s4,2
    33c2:	0100                	addi	s0,sp,128
    33c4:	2c05                	jal	35f4 <_min_stack+0x15f4>
    33c6:	0306                	slli	t1,t1,0x1
    33c8:	0900                	addi	s0,sp,144
    33ca:	0000                	unimp
    33cc:	0501                	addi	a0,a0,0
    33ce:	01030603          	lb	a2,16(t1)
    33d2:	0a09                	addi	s4,s4,2
    33d4:	0100                	addi	s0,sp,128
    33d6:	2c05                	jal	3606 <_min_stack+0x1606>
    33d8:	0306                	slli	t1,t1,0x1
    33da:	0900                	addi	s0,sp,144
    33dc:	0000                	unimp
    33de:	0501                	addi	a0,a0,0
    33e0:	01030603          	lb	a2,16(t1)
    33e4:	0a09                	addi	s4,s4,2
    33e6:	0100                	addi	s0,sp,128
    33e8:	2c05                	jal	3618 <_min_stack+0x1618>
    33ea:	0306                	slli	t1,t1,0x1
    33ec:	0900                	addi	s0,sp,144
    33ee:	0000                	unimp
    33f0:	0501                	addi	a0,a0,0
    33f2:	01030603          	lb	a2,16(t1)
    33f6:	0a09                	addi	s4,s4,2
    33f8:	0100                	addi	s0,sp,128
    33fa:	2c05                	jal	362a <_min_stack+0x162a>
    33fc:	0306                	slli	t1,t1,0x1
    33fe:	0900                	addi	s0,sp,144
    3400:	0000                	unimp
    3402:	0501                	addi	a0,a0,0
    3404:	01030603          	lb	a2,16(t1)
    3408:	0a09                	addi	s4,s4,2
    340a:	0100                	addi	s0,sp,128
    340c:	2c05                	jal	363c <_min_stack+0x163c>
    340e:	0306                	slli	t1,t1,0x1
    3410:	0900                	addi	s0,sp,144
    3412:	0000                	unimp
    3414:	0501                	addi	a0,a0,0
    3416:	01030603          	lb	a2,16(t1)
    341a:	0a09                	addi	s4,s4,2
    341c:	0100                	addi	s0,sp,128
    341e:	2c05                	jal	364e <_min_stack+0x164e>
    3420:	0306                	slli	t1,t1,0x1
    3422:	0900                	addi	s0,sp,144
    3424:	0000                	unimp
    3426:	0501                	addi	a0,a0,0
    3428:	01030603          	lb	a2,16(t1)
    342c:	0a09                	addi	s4,s4,2
    342e:	0100                	addi	s0,sp,128
    3430:	2c05                	jal	3660 <_min_stack+0x1660>
    3432:	0306                	slli	t1,t1,0x1
    3434:	0900                	addi	s0,sp,144
    3436:	0000                	unimp
    3438:	0501                	addi	a0,a0,0
    343a:	01030603          	lb	a2,16(t1)
    343e:	0a09                	addi	s4,s4,2
    3440:	0100                	addi	s0,sp,128
    3442:	2c05                	jal	3672 <_min_stack+0x1672>
    3444:	0306                	slli	t1,t1,0x1
    3446:	0900                	addi	s0,sp,144
    3448:	0000                	unimp
    344a:	0501                	addi	a0,a0,0
    344c:	01030603          	lb	a2,16(t1)
    3450:	0a09                	addi	s4,s4,2
    3452:	0100                	addi	s0,sp,128
    3454:	2c05                	jal	3684 <_min_stack+0x1684>
    3456:	0306                	slli	t1,t1,0x1
    3458:	0900                	addi	s0,sp,144
    345a:	0000                	unimp
    345c:	0501                	addi	a0,a0,0
    345e:	01030603          	lb	a2,16(t1)
    3462:	0a09                	addi	s4,s4,2
    3464:	0100                	addi	s0,sp,128
    3466:	2c05                	jal	3696 <_min_stack+0x1696>
    3468:	0306                	slli	t1,t1,0x1
    346a:	0900                	addi	s0,sp,144
    346c:	0000                	unimp
    346e:	0501                	addi	a0,a0,0
    3470:	01030603          	lb	a2,16(t1)
    3474:	0a09                	addi	s4,s4,2
    3476:	0100                	addi	s0,sp,128
    3478:	2c05                	jal	36a8 <_min_stack+0x16a8>
    347a:	0306                	slli	t1,t1,0x1
    347c:	0900                	addi	s0,sp,144
    347e:	0000                	unimp
    3480:	0501                	addi	a0,a0,0
    3482:	01030603          	lb	a2,16(t1)
    3486:	0a09                	addi	s4,s4,2
    3488:	0100                	addi	s0,sp,128
    348a:	2c05                	jal	36ba <_min_stack+0x16ba>
    348c:	0306                	slli	t1,t1,0x1
    348e:	0900                	addi	s0,sp,144
    3490:	0000                	unimp
    3492:	0501                	addi	a0,a0,0
    3494:	01030603          	lb	a2,16(t1)
    3498:	0a09                	addi	s4,s4,2
    349a:	0100                	addi	s0,sp,128
    349c:	2c05                	jal	36cc <_min_stack+0x16cc>
    349e:	0306                	slli	t1,t1,0x1
    34a0:	0900                	addi	s0,sp,144
    34a2:	0000                	unimp
    34a4:	0501                	addi	a0,a0,0
    34a6:	01030603          	lb	a2,16(t1)
    34aa:	0a09                	addi	s4,s4,2
    34ac:	0100                	addi	s0,sp,128
    34ae:	2c05                	jal	36de <_min_stack+0x16de>
    34b0:	0306                	slli	t1,t1,0x1
    34b2:	0900                	addi	s0,sp,144
    34b4:	0000                	unimp
    34b6:	0501                	addi	a0,a0,0
    34b8:	01030603          	lb	a2,16(t1)
    34bc:	0a09                	addi	s4,s4,2
    34be:	0100                	addi	s0,sp,128
    34c0:	2c05                	jal	36f0 <_min_stack+0x16f0>
    34c2:	0306                	slli	t1,t1,0x1
    34c4:	0900                	addi	s0,sp,144
    34c6:	0000                	unimp
    34c8:	0501                	addi	a0,a0,0
    34ca:	01030603          	lb	a2,16(t1)
    34ce:	0a09                	addi	s4,s4,2
    34d0:	0100                	addi	s0,sp,128
    34d2:	2c05                	jal	3702 <_min_stack+0x1702>
    34d4:	0306                	slli	t1,t1,0x1
    34d6:	0900                	addi	s0,sp,144
    34d8:	0000                	unimp
    34da:	0501                	addi	a0,a0,0
    34dc:	01030603          	lb	a2,16(t1)
    34e0:	0a09                	addi	s4,s4,2
    34e2:	0100                	addi	s0,sp,128
    34e4:	2c05                	jal	3714 <_min_stack+0x1714>
    34e6:	0306                	slli	t1,t1,0x1
    34e8:	0900                	addi	s0,sp,144
    34ea:	0000                	unimp
    34ec:	0501                	addi	a0,a0,0
    34ee:	01030603          	lb	a2,16(t1)
    34f2:	0a09                	addi	s4,s4,2
    34f4:	0100                	addi	s0,sp,128
    34f6:	2c05                	jal	3726 <_min_stack+0x1726>
    34f8:	0306                	slli	t1,t1,0x1
    34fa:	0900                	addi	s0,sp,144
    34fc:	0000                	unimp
    34fe:	0501                	addi	a0,a0,0
    3500:	01030603          	lb	a2,16(t1)
    3504:	0a09                	addi	s4,s4,2
    3506:	0100                	addi	s0,sp,128
    3508:	2c05                	jal	3738 <_min_stack+0x1738>
    350a:	0306                	slli	t1,t1,0x1
    350c:	0900                	addi	s0,sp,144
    350e:	0000                	unimp
    3510:	0501                	addi	a0,a0,0
    3512:	01030603          	lb	a2,16(t1)
    3516:	0a09                	addi	s4,s4,2
    3518:	0100                	addi	s0,sp,128
    351a:	2c05                	jal	374a <_min_stack+0x174a>
    351c:	0306                	slli	t1,t1,0x1
    351e:	0900                	addi	s0,sp,144
    3520:	0000                	unimp
    3522:	0501                	addi	a0,a0,0
    3524:	01030603          	lb	a2,16(t1)
    3528:	0a09                	addi	s4,s4,2
    352a:	0100                	addi	s0,sp,128
    352c:	2c05                	jal	375c <_min_stack+0x175c>
    352e:	0306                	slli	t1,t1,0x1
    3530:	0900                	addi	s0,sp,144
    3532:	0000                	unimp
    3534:	0501                	addi	a0,a0,0
    3536:	01030603          	lb	a2,16(t1)
    353a:	0a09                	addi	s4,s4,2
    353c:	0100                	addi	s0,sp,128
    353e:	2c05                	jal	376e <_min_stack+0x176e>
    3540:	0306                	slli	t1,t1,0x1
    3542:	0900                	addi	s0,sp,144
    3544:	0000                	unimp
    3546:	0501                	addi	a0,a0,0
    3548:	01030603          	lb	a2,16(t1)
    354c:	0a09                	addi	s4,s4,2
    354e:	0100                	addi	s0,sp,128
    3550:	2c05                	jal	3780 <_min_stack+0x1780>
    3552:	0306                	slli	t1,t1,0x1
    3554:	0900                	addi	s0,sp,144
    3556:	0000                	unimp
    3558:	0501                	addi	a0,a0,0
    355a:	01030603          	lb	a2,16(t1)
    355e:	0a09                	addi	s4,s4,2
    3560:	0100                	addi	s0,sp,128
    3562:	2c05                	jal	3792 <_min_stack+0x1792>
    3564:	0306                	slli	t1,t1,0x1
    3566:	0900                	addi	s0,sp,144
    3568:	0000                	unimp
    356a:	0501                	addi	a0,a0,0
    356c:	01030603          	lb	a2,16(t1)
    3570:	0a09                	addi	s4,s4,2
    3572:	0100                	addi	s0,sp,128
    3574:	2c05                	jal	37a4 <_min_stack+0x17a4>
    3576:	0306                	slli	t1,t1,0x1
    3578:	0900                	addi	s0,sp,144
    357a:	0000                	unimp
    357c:	0501                	addi	a0,a0,0
    357e:	01030603          	lb	a2,16(t1)
    3582:	0a09                	addi	s4,s4,2
    3584:	0100                	addi	s0,sp,128
    3586:	2c05                	jal	37b6 <_min_stack+0x17b6>
    3588:	0306                	slli	t1,t1,0x1
    358a:	0900                	addi	s0,sp,144
    358c:	0000                	unimp
    358e:	0501                	addi	a0,a0,0
    3590:	01030603          	lb	a2,16(t1)
    3594:	0a09                	addi	s4,s4,2
    3596:	0100                	addi	s0,sp,128
    3598:	2c05                	jal	37c8 <_min_stack+0x17c8>
    359a:	0306                	slli	t1,t1,0x1
    359c:	0900                	addi	s0,sp,144
    359e:	0000                	unimp
    35a0:	0501                	addi	a0,a0,0
    35a2:	01030603          	lb	a2,16(t1)
    35a6:	0a09                	addi	s4,s4,2
    35a8:	0100                	addi	s0,sp,128
    35aa:	2c05                	jal	37da <_min_stack+0x17da>
    35ac:	0306                	slli	t1,t1,0x1
    35ae:	0900                	addi	s0,sp,144
    35b0:	0000                	unimp
    35b2:	0501                	addi	a0,a0,0
    35b4:	01030603          	lb	a2,16(t1)
    35b8:	0a09                	addi	s4,s4,2
    35ba:	0100                	addi	s0,sp,128
    35bc:	2c05                	jal	37ec <_min_stack+0x17ec>
    35be:	0306                	slli	t1,t1,0x1
    35c0:	0900                	addi	s0,sp,144
    35c2:	0000                	unimp
    35c4:	0501                	addi	a0,a0,0
    35c6:	01030603          	lb	a2,16(t1)
    35ca:	0a09                	addi	s4,s4,2
    35cc:	0100                	addi	s0,sp,128
    35ce:	2c05                	jal	37fe <_min_stack+0x17fe>
    35d0:	0306                	slli	t1,t1,0x1
    35d2:	0900                	addi	s0,sp,144
    35d4:	0000                	unimp
    35d6:	0501                	addi	a0,a0,0
    35d8:	01030603          	lb	a2,16(t1)
    35dc:	0a09                	addi	s4,s4,2
    35de:	0100                	addi	s0,sp,128
    35e0:	2c05                	jal	3810 <_min_stack+0x1810>
    35e2:	0306                	slli	t1,t1,0x1
    35e4:	0900                	addi	s0,sp,144
    35e6:	0000                	unimp
    35e8:	0501                	addi	a0,a0,0
    35ea:	01030603          	lb	a2,16(t1)
    35ee:	0a09                	addi	s4,s4,2
    35f0:	0100                	addi	s0,sp,128
    35f2:	2c05                	jal	3822 <_min_stack+0x1822>
    35f4:	0306                	slli	t1,t1,0x1
    35f6:	0900                	addi	s0,sp,144
    35f8:	0000                	unimp
    35fa:	0501                	addi	a0,a0,0
    35fc:	01030603          	lb	a2,16(t1)
    3600:	0a09                	addi	s4,s4,2
    3602:	0100                	addi	s0,sp,128
    3604:	2c05                	jal	3834 <_min_stack+0x1834>
    3606:	0306                	slli	t1,t1,0x1
    3608:	0900                	addi	s0,sp,144
    360a:	0000                	unimp
    360c:	0501                	addi	a0,a0,0
    360e:	01030603          	lb	a2,16(t1)
    3612:	0a09                	addi	s4,s4,2
    3614:	0100                	addi	s0,sp,128
    3616:	2c05                	jal	3846 <_min_stack+0x1846>
    3618:	0306                	slli	t1,t1,0x1
    361a:	0900                	addi	s0,sp,144
    361c:	0000                	unimp
    361e:	0501                	addi	a0,a0,0
    3620:	01030603          	lb	a2,16(t1)
    3624:	0a09                	addi	s4,s4,2
    3626:	0100                	addi	s0,sp,128
    3628:	2c05                	jal	3858 <_min_stack+0x1858>
    362a:	0306                	slli	t1,t1,0x1
    362c:	0900                	addi	s0,sp,144
    362e:	0000                	unimp
    3630:	0501                	addi	a0,a0,0
    3632:	01030603          	lb	a2,16(t1)
    3636:	0a09                	addi	s4,s4,2
    3638:	0100                	addi	s0,sp,128
    363a:	2c05                	jal	386a <_min_stack+0x186a>
    363c:	0306                	slli	t1,t1,0x1
    363e:	0900                	addi	s0,sp,144
    3640:	0000                	unimp
    3642:	0501                	addi	a0,a0,0
    3644:	01030603          	lb	a2,16(t1)
    3648:	0a09                	addi	s4,s4,2
    364a:	0100                	addi	s0,sp,128
    364c:	2c05                	jal	387c <_min_stack+0x187c>
    364e:	0306                	slli	t1,t1,0x1
    3650:	0900                	addi	s0,sp,144
    3652:	0000                	unimp
    3654:	0501                	addi	a0,a0,0
    3656:	01030603          	lb	a2,16(t1)
    365a:	0a09                	addi	s4,s4,2
    365c:	0100                	addi	s0,sp,128
    365e:	2c05                	jal	388e <_min_stack+0x188e>
    3660:	0306                	slli	t1,t1,0x1
    3662:	0900                	addi	s0,sp,144
    3664:	0000                	unimp
    3666:	0501                	addi	a0,a0,0
    3668:	01030603          	lb	a2,16(t1)
    366c:	0a09                	addi	s4,s4,2
    366e:	0100                	addi	s0,sp,128
    3670:	2c05                	jal	38a0 <_min_stack+0x18a0>
    3672:	0306                	slli	t1,t1,0x1
    3674:	0900                	addi	s0,sp,144
    3676:	0000                	unimp
    3678:	0501                	addi	a0,a0,0
    367a:	01030603          	lb	a2,16(t1)
    367e:	0a09                	addi	s4,s4,2
    3680:	0100                	addi	s0,sp,128
    3682:	2c05                	jal	38b2 <_min_stack+0x18b2>
    3684:	0306                	slli	t1,t1,0x1
    3686:	0900                	addi	s0,sp,144
    3688:	0000                	unimp
    368a:	0501                	addi	a0,a0,0
    368c:	01030603          	lb	a2,16(t1)
    3690:	0a09                	addi	s4,s4,2
    3692:	0100                	addi	s0,sp,128
    3694:	2c05                	jal	38c4 <_min_stack+0x18c4>
    3696:	0306                	slli	t1,t1,0x1
    3698:	0900                	addi	s0,sp,144
    369a:	0000                	unimp
    369c:	0501                	addi	a0,a0,0
    369e:	01030603          	lb	a2,16(t1)
    36a2:	0a09                	addi	s4,s4,2
    36a4:	0100                	addi	s0,sp,128
    36a6:	2c05                	jal	38d6 <_min_stack+0x18d6>
    36a8:	0306                	slli	t1,t1,0x1
    36aa:	0900                	addi	s0,sp,144
    36ac:	0000                	unimp
    36ae:	0501                	addi	a0,a0,0
    36b0:	01030603          	lb	a2,16(t1)
    36b4:	0a09                	addi	s4,s4,2
    36b6:	0100                	addi	s0,sp,128
    36b8:	2c05                	jal	38e8 <_min_stack+0x18e8>
    36ba:	0306                	slli	t1,t1,0x1
    36bc:	0900                	addi	s0,sp,144
    36be:	0000                	unimp
    36c0:	0501                	addi	a0,a0,0
    36c2:	01030603          	lb	a2,16(t1)
    36c6:	0a09                	addi	s4,s4,2
    36c8:	0100                	addi	s0,sp,128
    36ca:	2c05                	jal	38fa <_min_stack+0x18fa>
    36cc:	0306                	slli	t1,t1,0x1
    36ce:	0900                	addi	s0,sp,144
    36d0:	0000                	unimp
    36d2:	0501                	addi	a0,a0,0
    36d4:	01030603          	lb	a2,16(t1)
    36d8:	0c09                	addi	s8,s8,2
    36da:	0100                	addi	s0,sp,128
    36dc:	2c05                	jal	390c <_min_stack+0x190c>
    36de:	0306                	slli	t1,t1,0x1
    36e0:	0900                	addi	s0,sp,144
    36e2:	0000                	unimp
    36e4:	0501                	addi	a0,a0,0
    36e6:	01030603          	lb	a2,16(t1)
    36ea:	0a09                	addi	s4,s4,2
    36ec:	0100                	addi	s0,sp,128
    36ee:	2c05                	jal	391e <_min_stack+0x191e>
    36f0:	0306                	slli	t1,t1,0x1
    36f2:	0900                	addi	s0,sp,144
    36f4:	0000                	unimp
    36f6:	0501                	addi	a0,a0,0
    36f8:	01030603          	lb	a2,16(t1)
    36fc:	0a09                	addi	s4,s4,2
    36fe:	0100                	addi	s0,sp,128
    3700:	2c05                	jal	3930 <_min_stack+0x1930>
    3702:	0306                	slli	t1,t1,0x1
    3704:	0900                	addi	s0,sp,144
    3706:	0000                	unimp
    3708:	0501                	addi	a0,a0,0
    370a:	01030603          	lb	a2,16(t1)
    370e:	0a09                	addi	s4,s4,2
    3710:	0100                	addi	s0,sp,128
    3712:	2c05                	jal	3942 <_min_stack+0x1942>
    3714:	0306                	slli	t1,t1,0x1
    3716:	0900                	addi	s0,sp,144
    3718:	0000                	unimp
    371a:	0501                	addi	a0,a0,0
    371c:	01030603          	lb	a2,16(t1)
    3720:	0a09                	addi	s4,s4,2
    3722:	0100                	addi	s0,sp,128
    3724:	2c05                	jal	3954 <_min_stack+0x1954>
    3726:	0306                	slli	t1,t1,0x1
    3728:	0900                	addi	s0,sp,144
    372a:	0000                	unimp
    372c:	0501                	addi	a0,a0,0
    372e:	01030603          	lb	a2,16(t1)
    3732:	0a09                	addi	s4,s4,2
    3734:	0100                	addi	s0,sp,128
    3736:	2c05                	jal	3966 <_min_stack+0x1966>
    3738:	0306                	slli	t1,t1,0x1
    373a:	0900                	addi	s0,sp,144
    373c:	0000                	unimp
    373e:	0501                	addi	a0,a0,0
    3740:	01030603          	lb	a2,16(t1)
    3744:	0a09                	addi	s4,s4,2
    3746:	0100                	addi	s0,sp,128
    3748:	2c05                	jal	3978 <_min_stack+0x1978>
    374a:	0306                	slli	t1,t1,0x1
    374c:	0900                	addi	s0,sp,144
    374e:	0000                	unimp
    3750:	0501                	addi	a0,a0,0
    3752:	01030603          	lb	a2,16(t1)
    3756:	0a09                	addi	s4,s4,2
    3758:	0100                	addi	s0,sp,128
    375a:	2c05                	jal	398a <_min_stack+0x198a>
    375c:	0306                	slli	t1,t1,0x1
    375e:	0900                	addi	s0,sp,144
    3760:	0000                	unimp
    3762:	0501                	addi	a0,a0,0
    3764:	01030603          	lb	a2,16(t1)
    3768:	0a09                	addi	s4,s4,2
    376a:	0100                	addi	s0,sp,128
    376c:	2c05                	jal	399c <_min_stack+0x199c>
    376e:	0306                	slli	t1,t1,0x1
    3770:	0900                	addi	s0,sp,144
    3772:	0000                	unimp
    3774:	0501                	addi	a0,a0,0
    3776:	01030603          	lb	a2,16(t1)
    377a:	0a09                	addi	s4,s4,2
    377c:	0100                	addi	s0,sp,128
    377e:	2c05                	jal	39ae <_min_stack+0x19ae>
    3780:	0306                	slli	t1,t1,0x1
    3782:	0900                	addi	s0,sp,144
    3784:	0000                	unimp
    3786:	0501                	addi	a0,a0,0
    3788:	01030603          	lb	a2,16(t1)
    378c:	0a09                	addi	s4,s4,2
    378e:	0100                	addi	s0,sp,128
    3790:	2c05                	jal	39c0 <_min_stack+0x19c0>
    3792:	0306                	slli	t1,t1,0x1
    3794:	0900                	addi	s0,sp,144
    3796:	0000                	unimp
    3798:	0501                	addi	a0,a0,0
    379a:	01030603          	lb	a2,16(t1)
    379e:	0a09                	addi	s4,s4,2
    37a0:	0100                	addi	s0,sp,128
    37a2:	2c05                	jal	39d2 <_min_stack+0x19d2>
    37a4:	0306                	slli	t1,t1,0x1
    37a6:	0900                	addi	s0,sp,144
    37a8:	0000                	unimp
    37aa:	0501                	addi	a0,a0,0
    37ac:	01030603          	lb	a2,16(t1)
    37b0:	0a09                	addi	s4,s4,2
    37b2:	0100                	addi	s0,sp,128
    37b4:	2c05                	jal	39e4 <_min_stack+0x19e4>
    37b6:	0306                	slli	t1,t1,0x1
    37b8:	0900                	addi	s0,sp,144
    37ba:	0000                	unimp
    37bc:	0501                	addi	a0,a0,0
    37be:	01030603          	lb	a2,16(t1)
    37c2:	0a09                	addi	s4,s4,2
    37c4:	0100                	addi	s0,sp,128
    37c6:	2c05                	jal	39f6 <_min_stack+0x19f6>
    37c8:	0306                	slli	t1,t1,0x1
    37ca:	0900                	addi	s0,sp,144
    37cc:	0000                	unimp
    37ce:	0501                	addi	a0,a0,0
    37d0:	01030603          	lb	a2,16(t1)
    37d4:	0a09                	addi	s4,s4,2
    37d6:	0100                	addi	s0,sp,128
    37d8:	2c05                	jal	3a08 <_min_stack+0x1a08>
    37da:	0306                	slli	t1,t1,0x1
    37dc:	0901                	addi	s2,s2,0
    37de:	0000                	unimp
    37e0:	0301                	addi	t1,t1,0
    37e2:	097f                	.2byte	0x97f
    37e4:	0004                	.2byte	0x4
    37e6:	0501                	addi	a0,a0,0
    37e8:	01030603          	lb	a2,16(t1)
    37ec:	0a09                	addi	s4,s4,2
    37ee:	0100                	addi	s0,sp,128
    37f0:	2c05                	jal	3a20 <_min_stack+0x1a20>
    37f2:	0306                	slli	t1,t1,0x1
    37f4:	0900                	addi	s0,sp,144
    37f6:	0000                	unimp
    37f8:	0501                	addi	a0,a0,0
    37fa:	01030603          	lb	a2,16(t1)
    37fe:	0a09                	addi	s4,s4,2
    3800:	0100                	addi	s0,sp,128
    3802:	2c05                	jal	3a32 <_min_stack+0x1a32>
    3804:	0306                	slli	t1,t1,0x1
    3806:	0900                	addi	s0,sp,144
    3808:	0000                	unimp
    380a:	0501                	addi	a0,a0,0
    380c:	01030603          	lb	a2,16(t1)
    3810:	0e09                	addi	t3,t3,2
    3812:	0100                	addi	s0,sp,128
    3814:	2c05                	jal	3a44 <_min_stack+0x1a44>
    3816:	0306                	slli	t1,t1,0x1
    3818:	0900                	addi	s0,sp,144
    381a:	0000                	unimp
    381c:	0501                	addi	a0,a0,0
    381e:	01030603          	lb	a2,16(t1)
    3822:	0e09                	addi	t3,t3,2
    3824:	0100                	addi	s0,sp,128
    3826:	2c05                	jal	3a56 <_min_stack+0x1a56>
    3828:	0306                	slli	t1,t1,0x1
    382a:	0900                	addi	s0,sp,144
    382c:	0000                	unimp
    382e:	0501                	addi	a0,a0,0
    3830:	01030603          	lb	a2,16(t1)
    3834:	1009                	c.nop	-30
    3836:	0100                	addi	s0,sp,128
    3838:	2c05                	jal	3a68 <_min_stack+0x1a68>
    383a:	0306                	slli	t1,t1,0x1
    383c:	0900                	addi	s0,sp,144
    383e:	0000                	unimp
    3840:	0501                	addi	a0,a0,0
    3842:	01030603          	lb	a2,16(t1)
    3846:	0a09                	addi	s4,s4,2
    3848:	0100                	addi	s0,sp,128
    384a:	2c05                	jal	3a7a <_min_stack+0x1a7a>
    384c:	0306                	slli	t1,t1,0x1
    384e:	0900                	addi	s0,sp,144
    3850:	0000                	unimp
    3852:	0501                	addi	a0,a0,0
    3854:	01030603          	lb	a2,16(t1)
    3858:	0c09                	addi	s8,s8,2
    385a:	0100                	addi	s0,sp,128
    385c:	2c05                	jal	3a8c <_min_stack+0x1a8c>
    385e:	0306                	slli	t1,t1,0x1
    3860:	0900                	addi	s0,sp,144
    3862:	0000                	unimp
    3864:	0501                	addi	a0,a0,0
    3866:	01030603          	lb	a2,16(t1)
    386a:	0c09                	addi	s8,s8,2
    386c:	0100                	addi	s0,sp,128
    386e:	2c05                	jal	3a9e <_min_stack+0x1a9e>
    3870:	0306                	slli	t1,t1,0x1
    3872:	0900                	addi	s0,sp,144
    3874:	0000                	unimp
    3876:	0501                	addi	a0,a0,0
    3878:	01030603          	lb	a2,16(t1)
    387c:	0a09                	addi	s4,s4,2
    387e:	0100                	addi	s0,sp,128
    3880:	2c05                	jal	3ab0 <_min_stack+0x1ab0>
    3882:	0306                	slli	t1,t1,0x1
    3884:	0900                	addi	s0,sp,144
    3886:	0000                	unimp
    3888:	0501                	addi	a0,a0,0
    388a:	01030603          	lb	a2,16(t1)
    388e:	0809                	addi	a6,a6,2
    3890:	0100                	addi	s0,sp,128
    3892:	2c05                	jal	3ac2 <_min_stack+0x1ac2>
    3894:	0306                	slli	t1,t1,0x1
    3896:	0900                	addi	s0,sp,144
    3898:	0000                	unimp
    389a:	0501                	addi	a0,a0,0
    389c:	01030603          	lb	a2,16(t1)
    38a0:	0c09                	addi	s8,s8,2
    38a2:	0100                	addi	s0,sp,128
    38a4:	2c05                	jal	3ad4 <_min_stack+0x1ad4>
    38a6:	0306                	slli	t1,t1,0x1
    38a8:	0900                	addi	s0,sp,144
    38aa:	0000                	unimp
    38ac:	0501                	addi	a0,a0,0
    38ae:	01030603          	lb	a2,16(t1)
    38b2:	0c09                	addi	s8,s8,2
    38b4:	0100                	addi	s0,sp,128
    38b6:	2c05                	jal	3ae6 <_min_stack+0x1ae6>
    38b8:	0306                	slli	t1,t1,0x1
    38ba:	0900                	addi	s0,sp,144
    38bc:	0000                	unimp
    38be:	0501                	addi	a0,a0,0
    38c0:	01030603          	lb	a2,16(t1)
    38c4:	0c09                	addi	s8,s8,2
    38c6:	0100                	addi	s0,sp,128
    38c8:	2c05                	jal	3af8 <_min_stack+0x1af8>
    38ca:	0306                	slli	t1,t1,0x1
    38cc:	0900                	addi	s0,sp,144
    38ce:	0000                	unimp
    38d0:	0501                	addi	a0,a0,0
    38d2:	01030603          	lb	a2,16(t1)
    38d6:	0c09                	addi	s8,s8,2
    38d8:	0100                	addi	s0,sp,128
    38da:	2c05                	jal	3b0a <_min_stack+0x1b0a>
    38dc:	0306                	slli	t1,t1,0x1
    38de:	0900                	addi	s0,sp,144
    38e0:	0000                	unimp
    38e2:	0501                	addi	a0,a0,0
    38e4:	01030603          	lb	a2,16(t1)
    38e8:	0c09                	addi	s8,s8,2
    38ea:	0100                	addi	s0,sp,128
    38ec:	2c05                	jal	3b1c <_min_stack+0x1b1c>
    38ee:	0306                	slli	t1,t1,0x1
    38f0:	0900                	addi	s0,sp,144
    38f2:	0000                	unimp
    38f4:	0501                	addi	a0,a0,0
    38f6:	01030603          	lb	a2,16(t1)
    38fa:	0c09                	addi	s8,s8,2
    38fc:	0100                	addi	s0,sp,128
    38fe:	2c05                	jal	3b2e <_min_stack+0x1b2e>
    3900:	0306                	slli	t1,t1,0x1
    3902:	0900                	addi	s0,sp,144
    3904:	0000                	unimp
    3906:	0501                	addi	a0,a0,0
    3908:	01030603          	lb	a2,16(t1)
    390c:	0a09                	addi	s4,s4,2
    390e:	0100                	addi	s0,sp,128
    3910:	2c05                	jal	3b40 <_min_stack+0x1b40>
    3912:	0306                	slli	t1,t1,0x1
    3914:	0900                	addi	s0,sp,144
    3916:	0000                	unimp
    3918:	0501                	addi	a0,a0,0
    391a:	01030603          	lb	a2,16(t1)
    391e:	0a09                	addi	s4,s4,2
    3920:	0100                	addi	s0,sp,128
    3922:	2c05                	jal	3b52 <_min_stack+0x1b52>
    3924:	0306                	slli	t1,t1,0x1
    3926:	0900                	addi	s0,sp,144
    3928:	0000                	unimp
    392a:	0501                	addi	a0,a0,0
    392c:	01030603          	lb	a2,16(t1)
    3930:	0e09                	addi	t3,t3,2
    3932:	0100                	addi	s0,sp,128
    3934:	2c05                	jal	3b64 <_min_stack+0x1b64>
    3936:	0306                	slli	t1,t1,0x1
    3938:	0900                	addi	s0,sp,144
    393a:	0000                	unimp
    393c:	0501                	addi	a0,a0,0
    393e:	01030603          	lb	a2,16(t1)
    3942:	0e09                	addi	t3,t3,2
    3944:	0100                	addi	s0,sp,128
    3946:	2c05                	jal	3b76 <_min_stack+0x1b76>
    3948:	0306                	slli	t1,t1,0x1
    394a:	0900                	addi	s0,sp,144
    394c:	0000                	unimp
    394e:	0501                	addi	a0,a0,0
    3950:	01030603          	lb	a2,16(t1)
    3954:	0e09                	addi	t3,t3,2
    3956:	0100                	addi	s0,sp,128
    3958:	2c05                	jal	3b88 <_min_stack+0x1b88>
    395a:	0306                	slli	t1,t1,0x1
    395c:	0900                	addi	s0,sp,144
    395e:	0000                	unimp
    3960:	0501                	addi	a0,a0,0
    3962:	01030603          	lb	a2,16(t1)
    3966:	0e09                	addi	t3,t3,2
    3968:	0100                	addi	s0,sp,128
    396a:	2c05                	jal	3b9a <_min_stack+0x1b9a>
    396c:	0306                	slli	t1,t1,0x1
    396e:	0900                	addi	s0,sp,144
    3970:	0000                	unimp
    3972:	0501                	addi	a0,a0,0
    3974:	01030603          	lb	a2,16(t1)
    3978:	0e09                	addi	t3,t3,2
    397a:	0100                	addi	s0,sp,128
    397c:	2c05                	jal	3bac <_min_stack+0x1bac>
    397e:	0306                	slli	t1,t1,0x1
    3980:	0900                	addi	s0,sp,144
    3982:	0000                	unimp
    3984:	0301                	addi	t1,t1,0
    3986:	0901                	addi	s2,s2,0
    3988:	0008                	.2byte	0x8
    398a:	0301                	addi	t1,t1,0
    398c:	097f                	.2byte	0x97f
    398e:	0004                	.2byte	0x4
    3990:	0501                	addi	a0,a0,0
    3992:	01030603          	lb	a2,16(t1)
    3996:	0209                	addi	tp,tp,2 # 2 <_min_stack-0x1ffe>
    3998:	0100                	addi	s0,sp,128
    399a:	2c05                	jal	3bca <_min_stack+0x1bca>
    399c:	0306                	slli	t1,t1,0x1
    399e:	0900                	addi	s0,sp,144
    39a0:	0000                	unimp
    39a2:	0501                	addi	a0,a0,0
    39a4:	01030603          	lb	a2,16(t1)
    39a8:	0a09                	addi	s4,s4,2
    39aa:	0100                	addi	s0,sp,128
    39ac:	2c05                	jal	3bdc <_min_stack+0x1bdc>
    39ae:	0306                	slli	t1,t1,0x1
    39b0:	0900                	addi	s0,sp,144
    39b2:	0000                	unimp
    39b4:	0501                	addi	a0,a0,0
    39b6:	01030603          	lb	a2,16(t1)
    39ba:	0c09                	addi	s8,s8,2
    39bc:	0100                	addi	s0,sp,128
    39be:	2c05                	jal	3bee <_min_stack+0x1bee>
    39c0:	0306                	slli	t1,t1,0x1
    39c2:	0900                	addi	s0,sp,144
    39c4:	0000                	unimp
    39c6:	0301                	addi	t1,t1,0
    39c8:	0901                	addi	s2,s2,0
    39ca:	0008                	.2byte	0x8
    39cc:	0301                	addi	t1,t1,0
    39ce:	097f                	.2byte	0x97f
    39d0:	0004                	.2byte	0x4
    39d2:	0501                	addi	a0,a0,0
    39d4:	01030603          	lb	a2,16(t1)
    39d8:	0409                	addi	s0,s0,2
    39da:	0100                	addi	s0,sp,128
    39dc:	2c05                	jal	3c0c <_min_stack+0x1c0c>
    39de:	0306                	slli	t1,t1,0x1
    39e0:	0900                	addi	s0,sp,144
    39e2:	0000                	unimp
    39e4:	0501                	addi	a0,a0,0
    39e6:	01030603          	lb	a2,16(t1)
    39ea:	0809                	addi	a6,a6,2
    39ec:	0100                	addi	s0,sp,128
    39ee:	2c05                	jal	3c1e <_min_stack+0x1c1e>
    39f0:	0306                	slli	t1,t1,0x1
    39f2:	0900                	addi	s0,sp,144
    39f4:	0000                	unimp
    39f6:	0301                	addi	t1,t1,0
    39f8:	0901                	addi	s2,s2,0
    39fa:	0008                	.2byte	0x8
    39fc:	0301                	addi	t1,t1,0
    39fe:	097f                	.2byte	0x97f
    3a00:	0004                	.2byte	0x4
    3a02:	0501                	addi	a0,a0,0
    3a04:	01030603          	lb	a2,16(t1)
    3a08:	0409                	addi	s0,s0,2
    3a0a:	0100                	addi	s0,sp,128
    3a0c:	2c05                	jal	3c3c <_min_stack+0x1c3c>
    3a0e:	0306                	slli	t1,t1,0x1
    3a10:	0900                	addi	s0,sp,144
    3a12:	0000                	unimp
    3a14:	0301                	addi	t1,t1,0
    3a16:	0901                	addi	s2,s2,0
    3a18:	0004                	.2byte	0x4
    3a1a:	0301                	addi	t1,t1,0
    3a1c:	097f                	.2byte	0x97f
    3a1e:	0004                	.2byte	0x4
    3a20:	0501                	addi	a0,a0,0
    3a22:	01030603          	lb	a2,16(t1)
    3a26:	0409                	addi	s0,s0,2
    3a28:	0100                	addi	s0,sp,128
    3a2a:	2c05                	jal	3c5a <_min_stack+0x1c5a>
    3a2c:	0306                	slli	t1,t1,0x1
    3a2e:	0900                	addi	s0,sp,144
    3a30:	0000                	unimp
    3a32:	0501                	addi	a0,a0,0
    3a34:	01030603          	lb	a2,16(t1)
    3a38:	0809                	addi	a6,a6,2
    3a3a:	0100                	addi	s0,sp,128
    3a3c:	2c05                	jal	3c6c <_min_stack+0x1c6c>
    3a3e:	0306                	slli	t1,t1,0x1
    3a40:	0900                	addi	s0,sp,144
    3a42:	0000                	unimp
    3a44:	0501                	addi	a0,a0,0
    3a46:	01030603          	lb	a2,16(t1)
    3a4a:	0809                	addi	a6,a6,2
    3a4c:	0100                	addi	s0,sp,128
    3a4e:	2c05                	jal	3c7e <_min_stack+0x1c7e>
    3a50:	0306                	slli	t1,t1,0x1
    3a52:	0900                	addi	s0,sp,144
    3a54:	0000                	unimp
    3a56:	0301                	addi	t1,t1,0
    3a58:	0901                	addi	s2,s2,0
    3a5a:	0004                	.2byte	0x4
    3a5c:	0301                	addi	t1,t1,0
    3a5e:	097f                	.2byte	0x97f
    3a60:	0004                	.2byte	0x4
    3a62:	0501                	addi	a0,a0,0
    3a64:	01030603          	lb	a2,16(t1)
    3a68:	0409                	addi	s0,s0,2
    3a6a:	0100                	addi	s0,sp,128
    3a6c:	2c05                	jal	3c9c <_min_stack+0x1c9c>
    3a6e:	0306                	slli	t1,t1,0x1
    3a70:	0900                	addi	s0,sp,144
    3a72:	0000                	unimp
    3a74:	0501                	addi	a0,a0,0
    3a76:	01030603          	lb	a2,16(t1)
    3a7a:	0809                	addi	a6,a6,2
    3a7c:	0100                	addi	s0,sp,128
    3a7e:	2c05                	jal	3cae <_min_stack+0x1cae>
    3a80:	0306                	slli	t1,t1,0x1
    3a82:	0900                	addi	s0,sp,144
    3a84:	0000                	unimp
    3a86:	0501                	addi	a0,a0,0
    3a88:	01030603          	lb	a2,16(t1)
    3a8c:	0c09                	addi	s8,s8,2
    3a8e:	0100                	addi	s0,sp,128
    3a90:	2c05                	jal	3cc0 <_min_stack+0x1cc0>
    3a92:	0306                	slli	t1,t1,0x1
    3a94:	0900                	addi	s0,sp,144
    3a96:	0000                	unimp
    3a98:	0301                	addi	t1,t1,0
    3a9a:	0901                	addi	s2,s2,0
    3a9c:	0006                	c.slli	zero,0x1
    3a9e:	0301                	addi	t1,t1,0
    3aa0:	097f                	.2byte	0x97f
    3aa2:	0004                	.2byte	0x4
    3aa4:	0501                	addi	a0,a0,0
    3aa6:	01030603          	lb	a2,16(t1)
    3aaa:	0409                	addi	s0,s0,2
    3aac:	0100                	addi	s0,sp,128
    3aae:	2c05                	jal	3cde <_min_stack+0x1cde>
    3ab0:	0306                	slli	t1,t1,0x1
    3ab2:	0900                	addi	s0,sp,144
    3ab4:	0000                	unimp
    3ab6:	0501                	addi	a0,a0,0
    3ab8:	01030603          	lb	a2,16(t1)
    3abc:	0809                	addi	a6,a6,2
    3abe:	0100                	addi	s0,sp,128
    3ac0:	2c05                	jal	3cf0 <_min_stack+0x1cf0>
    3ac2:	0306                	slli	t1,t1,0x1
    3ac4:	0900                	addi	s0,sp,144
    3ac6:	0000                	unimp
    3ac8:	0501                	addi	a0,a0,0
    3aca:	01030603          	lb	a2,16(t1)
    3ace:	0809                	addi	a6,a6,2
    3ad0:	0100                	addi	s0,sp,128
    3ad2:	2c05                	jal	3d02 <_min_stack+0x1d02>
    3ad4:	0306                	slli	t1,t1,0x1
    3ad6:	0900                	addi	s0,sp,144
    3ad8:	0000                	unimp
    3ada:	0501                	addi	a0,a0,0
    3adc:	01030603          	lb	a2,16(t1)
    3ae0:	0c09                	addi	s8,s8,2
    3ae2:	0100                	addi	s0,sp,128
    3ae4:	2c05                	jal	3d14 <_min_stack+0x1d14>
    3ae6:	0306                	slli	t1,t1,0x1
    3ae8:	0900                	addi	s0,sp,144
    3aea:	0000                	unimp
    3aec:	0501                	addi	a0,a0,0
    3aee:	01030603          	lb	a2,16(t1)
    3af2:	0409                	addi	s0,s0,2
    3af4:	0100                	addi	s0,sp,128
    3af6:	2c05                	jal	3d26 <_min_stack+0x1d26>
    3af8:	0306                	slli	t1,t1,0x1
    3afa:	0900                	addi	s0,sp,144
    3afc:	0000                	unimp
    3afe:	0501                	addi	a0,a0,0
    3b00:	01030603          	lb	a2,16(t1)
    3b04:	0c09                	addi	s8,s8,2
    3b06:	0100                	addi	s0,sp,128
    3b08:	2c05                	jal	3d38 <_min_stack+0x1d38>
    3b0a:	0306                	slli	t1,t1,0x1
    3b0c:	0900                	addi	s0,sp,144
    3b0e:	0000                	unimp
    3b10:	0501                	addi	a0,a0,0
    3b12:	01030603          	lb	a2,16(t1)
    3b16:	0c09                	addi	s8,s8,2
    3b18:	0100                	addi	s0,sp,128
    3b1a:	2c05                	jal	3d4a <_min_stack+0x1d4a>
    3b1c:	0306                	slli	t1,t1,0x1
    3b1e:	0900                	addi	s0,sp,144
    3b20:	0000                	unimp
    3b22:	0501                	addi	a0,a0,0
    3b24:	01030603          	lb	a2,16(t1)
    3b28:	0a09                	addi	s4,s4,2
    3b2a:	0100                	addi	s0,sp,128
    3b2c:	2c05                	jal	3d5c <_min_stack+0x1d5c>
    3b2e:	0306                	slli	t1,t1,0x1
    3b30:	0900                	addi	s0,sp,144
    3b32:	0000                	unimp
    3b34:	0301                	addi	t1,t1,0
    3b36:	0901                	addi	s2,s2,0
    3b38:	0008                	.2byte	0x8
    3b3a:	0301                	addi	t1,t1,0
    3b3c:	097f                	.2byte	0x97f
    3b3e:	0004                	.2byte	0x4
    3b40:	0501                	addi	a0,a0,0
    3b42:	01030603          	lb	a2,16(t1)
    3b46:	0409                	addi	s0,s0,2
    3b48:	0100                	addi	s0,sp,128
    3b4a:	2c05                	jal	3d7a <_min_stack+0x1d7a>
    3b4c:	0306                	slli	t1,t1,0x1
    3b4e:	0900                	addi	s0,sp,144
    3b50:	0000                	unimp
    3b52:	0501                	addi	a0,a0,0
    3b54:	01030603          	lb	a2,16(t1)
    3b58:	0809                	addi	a6,a6,2
    3b5a:	0100                	addi	s0,sp,128
    3b5c:	2c05                	jal	3d8c <_min_stack+0x1d8c>
    3b5e:	0306                	slli	t1,t1,0x1
    3b60:	0900                	addi	s0,sp,144
    3b62:	0000                	unimp
    3b64:	0501                	addi	a0,a0,0
    3b66:	01030603          	lb	a2,16(t1)
    3b6a:	0c09                	addi	s8,s8,2
    3b6c:	0100                	addi	s0,sp,128
    3b6e:	2c05                	jal	3d9e <_min_stack+0x1d9e>
    3b70:	0306                	slli	t1,t1,0x1
    3b72:	0900                	addi	s0,sp,144
    3b74:	0000                	unimp
    3b76:	0501                	addi	a0,a0,0
    3b78:	01030603          	lb	a2,16(t1)
    3b7c:	0c09                	addi	s8,s8,2
    3b7e:	0100                	addi	s0,sp,128
    3b80:	2c05                	jal	3db0 <_min_stack+0x1db0>
    3b82:	0306                	slli	t1,t1,0x1
    3b84:	0900                	addi	s0,sp,144
    3b86:	0000                	unimp
    3b88:	0301                	addi	t1,t1,0
    3b8a:	0901                	addi	s2,s2,0
    3b8c:	0004                	.2byte	0x4
    3b8e:	0301                	addi	t1,t1,0
    3b90:	097f                	.2byte	0x97f
    3b92:	0004                	.2byte	0x4
    3b94:	0501                	addi	a0,a0,0
    3b96:	01030603          	lb	a2,16(t1)
    3b9a:	0409                	addi	s0,s0,2
    3b9c:	0100                	addi	s0,sp,128
    3b9e:	2c05                	jal	3dce <_min_stack+0x1dce>
    3ba0:	0306                	slli	t1,t1,0x1
    3ba2:	0900                	addi	s0,sp,144
    3ba4:	0000                	unimp
    3ba6:	0501                	addi	a0,a0,0
    3ba8:	01030603          	lb	a2,16(t1)
    3bac:	0809                	addi	a6,a6,2
    3bae:	0100                	addi	s0,sp,128
    3bb0:	2c05                	jal	3de0 <_min_stack+0x1de0>
    3bb2:	0306                	slli	t1,t1,0x1
    3bb4:	0900                	addi	s0,sp,144
    3bb6:	0000                	unimp
    3bb8:	0501                	addi	a0,a0,0
    3bba:	01030603          	lb	a2,16(t1)
    3bbe:	0c09                	addi	s8,s8,2
    3bc0:	0100                	addi	s0,sp,128
    3bc2:	2c05                	jal	3df2 <_min_stack+0x1df2>
    3bc4:	0306                	slli	t1,t1,0x1
    3bc6:	0900                	addi	s0,sp,144
    3bc8:	0000                	unimp
    3bca:	0501                	addi	a0,a0,0
    3bcc:	01030603          	lb	a2,16(t1)
    3bd0:	0809                	addi	a6,a6,2
    3bd2:	0100                	addi	s0,sp,128
    3bd4:	2c05                	jal	3e04 <_min_stack+0x1e04>
    3bd6:	0306                	slli	t1,t1,0x1
    3bd8:	0900                	addi	s0,sp,144
    3bda:	0000                	unimp
    3bdc:	0501                	addi	a0,a0,0
    3bde:	01030603          	lb	a2,16(t1)
    3be2:	0809                	addi	a6,a6,2
    3be4:	0100                	addi	s0,sp,128
    3be6:	2c05                	jal	3e16 <_min_stack+0x1e16>
    3be8:	0306                	slli	t1,t1,0x1
    3bea:	0901                	addi	s2,s2,0
    3bec:	0000                	unimp
    3bee:	0301                	addi	t1,t1,0
    3bf0:	097f                	.2byte	0x97f
    3bf2:	0004                	.2byte	0x4
    3bf4:	0501                	addi	a0,a0,0
    3bf6:	01030603          	lb	a2,16(t1)
    3bfa:	0809                	addi	a6,a6,2
    3bfc:	0100                	addi	s0,sp,128
    3bfe:	2c05                	jal	3e2e <_min_stack+0x1e2e>
    3c00:	0306                	slli	t1,t1,0x1
    3c02:	0900                	addi	s0,sp,144
    3c04:	0000                	unimp
    3c06:	0501                	addi	a0,a0,0
    3c08:	01030603          	lb	a2,16(t1)
    3c0c:	0809                	addi	a6,a6,2
    3c0e:	0100                	addi	s0,sp,128
    3c10:	2c05                	jal	3e40 <_min_stack+0x1e40>
    3c12:	0306                	slli	t1,t1,0x1
    3c14:	0900                	addi	s0,sp,144
    3c16:	0000                	unimp
    3c18:	0501                	addi	a0,a0,0
    3c1a:	01030603          	lb	a2,16(t1)
    3c1e:	0c09                	addi	s8,s8,2
    3c20:	0100                	addi	s0,sp,128
    3c22:	2c05                	jal	3e52 <_min_stack+0x1e52>
    3c24:	0306                	slli	t1,t1,0x1
    3c26:	0900                	addi	s0,sp,144
    3c28:	0000                	unimp
    3c2a:	0501                	addi	a0,a0,0
    3c2c:	01030603          	lb	a2,16(t1)
    3c30:	0809                	addi	a6,a6,2
    3c32:	0100                	addi	s0,sp,128
    3c34:	2c05                	jal	3e64 <_min_stack+0x1e64>
    3c36:	0306                	slli	t1,t1,0x1
    3c38:	0900                	addi	s0,sp,144
    3c3a:	0000                	unimp
    3c3c:	0501                	addi	a0,a0,0
    3c3e:	01030603          	lb	a2,16(t1)
    3c42:	0c09                	addi	s8,s8,2
    3c44:	0100                	addi	s0,sp,128
    3c46:	2c05                	jal	3e76 <_min_stack+0x1e76>
    3c48:	0306                	slli	t1,t1,0x1
    3c4a:	0900                	addi	s0,sp,144
    3c4c:	0000                	unimp
    3c4e:	0501                	addi	a0,a0,0
    3c50:	01030603          	lb	a2,16(t1)
    3c54:	0a09                	addi	s4,s4,2
    3c56:	0100                	addi	s0,sp,128
    3c58:	2c05                	jal	3e88 <_min_stack+0x1e88>
    3c5a:	0306                	slli	t1,t1,0x1
    3c5c:	0900                	addi	s0,sp,144
    3c5e:	0000                	unimp
    3c60:	0501                	addi	a0,a0,0
    3c62:	01030603          	lb	a2,16(t1)
    3c66:	1009                	c.nop	-30
    3c68:	0100                	addi	s0,sp,128
    3c6a:	2c05                	jal	3e9a <_min_stack+0x1e9a>
    3c6c:	0306                	slli	t1,t1,0x1
    3c6e:	0900                	addi	s0,sp,144
    3c70:	0000                	unimp
    3c72:	0501                	addi	a0,a0,0
    3c74:	01030603          	lb	a2,16(t1)
    3c78:	0c09                	addi	s8,s8,2
    3c7a:	0100                	addi	s0,sp,128
    3c7c:	2c05                	jal	3eac <_min_stack+0x1eac>
    3c7e:	0306                	slli	t1,t1,0x1
    3c80:	0900                	addi	s0,sp,144
    3c82:	0000                	unimp
    3c84:	0501                	addi	a0,a0,0
    3c86:	01030603          	lb	a2,16(t1)
    3c8a:	0c09                	addi	s8,s8,2
    3c8c:	0100                	addi	s0,sp,128
    3c8e:	2c05                	jal	3ebe <_min_stack+0x1ebe>
    3c90:	0306                	slli	t1,t1,0x1
    3c92:	0900                	addi	s0,sp,144
    3c94:	0000                	unimp
    3c96:	0501                	addi	a0,a0,0
    3c98:	01030603          	lb	a2,16(t1)
    3c9c:	0c09                	addi	s8,s8,2
    3c9e:	0100                	addi	s0,sp,128
    3ca0:	2c05                	jal	3ed0 <_min_stack+0x1ed0>
    3ca2:	0306                	slli	t1,t1,0x1
    3ca4:	0900                	addi	s0,sp,144
    3ca6:	0000                	unimp
    3ca8:	0501                	addi	a0,a0,0
    3caa:	01030603          	lb	a2,16(t1)
    3cae:	0c09                	addi	s8,s8,2
    3cb0:	0100                	addi	s0,sp,128
    3cb2:	2c05                	jal	3ee2 <_min_stack+0x1ee2>
    3cb4:	0306                	slli	t1,t1,0x1
    3cb6:	0900                	addi	s0,sp,144
    3cb8:	0000                	unimp
    3cba:	0501                	addi	a0,a0,0
    3cbc:	01030603          	lb	a2,16(t1)
    3cc0:	0a09                	addi	s4,s4,2
    3cc2:	0100                	addi	s0,sp,128
    3cc4:	2c05                	jal	3ef4 <_min_stack+0x1ef4>
    3cc6:	0306                	slli	t1,t1,0x1
    3cc8:	0900                	addi	s0,sp,144
    3cca:	0000                	unimp
    3ccc:	0501                	addi	a0,a0,0
    3cce:	01030603          	lb	a2,16(t1)
    3cd2:	0c09                	addi	s8,s8,2
    3cd4:	0100                	addi	s0,sp,128
    3cd6:	2c05                	jal	3f06 <_min_stack+0x1f06>
    3cd8:	0306                	slli	t1,t1,0x1
    3cda:	0900                	addi	s0,sp,144
    3cdc:	0000                	unimp
    3cde:	0501                	addi	a0,a0,0
    3ce0:	01030603          	lb	a2,16(t1)
    3ce4:	0c09                	addi	s8,s8,2
    3ce6:	0100                	addi	s0,sp,128
    3ce8:	2c05                	jal	3f18 <_min_stack+0x1f18>
    3cea:	0306                	slli	t1,t1,0x1
    3cec:	0900                	addi	s0,sp,144
    3cee:	0000                	unimp
    3cf0:	0501                	addi	a0,a0,0
    3cf2:	01030603          	lb	a2,16(t1)
    3cf6:	0609                	addi	a2,a2,2
    3cf8:	0100                	addi	s0,sp,128
    3cfa:	2c05                	jal	3f2a <_min_stack+0x1f2a>
    3cfc:	0306                	slli	t1,t1,0x1
    3cfe:	0900                	addi	s0,sp,144
    3d00:	0000                	unimp
    3d02:	0501                	addi	a0,a0,0
    3d04:	01030603          	lb	a2,16(t1)
    3d08:	0e09                	addi	t3,t3,2
    3d0a:	0100                	addi	s0,sp,128
    3d0c:	2c05                	jal	3f3c <_min_stack+0x1f3c>
    3d0e:	0306                	slli	t1,t1,0x1
    3d10:	0900                	addi	s0,sp,144
    3d12:	0000                	unimp
    3d14:	0501                	addi	a0,a0,0
    3d16:	01030603          	lb	a2,16(t1)
    3d1a:	0c09                	addi	s8,s8,2
    3d1c:	0100                	addi	s0,sp,128
    3d1e:	2c05                	jal	3f4e <_min_stack+0x1f4e>
    3d20:	0306                	slli	t1,t1,0x1
    3d22:	0900                	addi	s0,sp,144
    3d24:	0000                	unimp
    3d26:	0501                	addi	a0,a0,0
    3d28:	01030603          	lb	a2,16(t1)
    3d2c:	0a09                	addi	s4,s4,2
    3d2e:	0100                	addi	s0,sp,128
    3d30:	2c05                	jal	3f60 <_min_stack+0x1f60>
    3d32:	0306                	slli	t1,t1,0x1
    3d34:	0900                	addi	s0,sp,144
    3d36:	0000                	unimp
    3d38:	0501                	addi	a0,a0,0
    3d3a:	01030603          	lb	a2,16(t1)
    3d3e:	0c09                	addi	s8,s8,2
    3d40:	0100                	addi	s0,sp,128
    3d42:	2c05                	jal	3f72 <_min_stack+0x1f72>
    3d44:	0306                	slli	t1,t1,0x1
    3d46:	0900                	addi	s0,sp,144
    3d48:	0000                	unimp
    3d4a:	0501                	addi	a0,a0,0
    3d4c:	01030603          	lb	a2,16(t1)
    3d50:	0c09                	addi	s8,s8,2
    3d52:	0100                	addi	s0,sp,128
    3d54:	2c05                	jal	3f84 <_min_stack+0x1f84>
    3d56:	0306                	slli	t1,t1,0x1
    3d58:	0900                	addi	s0,sp,144
    3d5a:	0000                	unimp
    3d5c:	0501                	addi	a0,a0,0
    3d5e:	01030603          	lb	a2,16(t1)
    3d62:	0c09                	addi	s8,s8,2
    3d64:	0100                	addi	s0,sp,128
    3d66:	2c05                	jal	3f96 <_min_stack+0x1f96>
    3d68:	0306                	slli	t1,t1,0x1
    3d6a:	0900                	addi	s0,sp,144
    3d6c:	0000                	unimp
    3d6e:	0501                	addi	a0,a0,0
    3d70:	01030603          	lb	a2,16(t1)
    3d74:	0609                	addi	a2,a2,2
    3d76:	0100                	addi	s0,sp,128
    3d78:	2c05                	jal	3fa8 <_min_stack+0x1fa8>
    3d7a:	0306                	slli	t1,t1,0x1
    3d7c:	0900                	addi	s0,sp,144
    3d7e:	0000                	unimp
    3d80:	0501                	addi	a0,a0,0
    3d82:	01030603          	lb	a2,16(t1)
    3d86:	0c09                	addi	s8,s8,2
    3d88:	0100                	addi	s0,sp,128
    3d8a:	2c05                	jal	3fba <_min_stack+0x1fba>
    3d8c:	0306                	slli	t1,t1,0x1
    3d8e:	0900                	addi	s0,sp,144
    3d90:	0000                	unimp
    3d92:	0501                	addi	a0,a0,0
    3d94:	01030603          	lb	a2,16(t1)
    3d98:	0c09                	addi	s8,s8,2
    3d9a:	0100                	addi	s0,sp,128
    3d9c:	2c05                	jal	3fcc <_min_stack+0x1fcc>
    3d9e:	0306                	slli	t1,t1,0x1
    3da0:	0900                	addi	s0,sp,144
    3da2:	0000                	unimp
    3da4:	0501                	addi	a0,a0,0
    3da6:	01030603          	lb	a2,16(t1)
    3daa:	0c09                	addi	s8,s8,2
    3dac:	0100                	addi	s0,sp,128
    3dae:	2c05                	jal	3fde <_min_stack+0x1fde>
    3db0:	0306                	slli	t1,t1,0x1
    3db2:	0900                	addi	s0,sp,144
    3db4:	0000                	unimp
    3db6:	0501                	addi	a0,a0,0
    3db8:	01030603          	lb	a2,16(t1)
    3dbc:	0609                	addi	a2,a2,2
    3dbe:	0100                	addi	s0,sp,128
    3dc0:	2c05                	jal	3ff0 <_min_stack+0x1ff0>
    3dc2:	0306                	slli	t1,t1,0x1
    3dc4:	0900                	addi	s0,sp,144
    3dc6:	0000                	unimp
    3dc8:	0501                	addi	a0,a0,0
    3dca:	01030603          	lb	a2,16(t1)
    3dce:	0c09                	addi	s8,s8,2
    3dd0:	0100                	addi	s0,sp,128
    3dd2:	2c05                	jal	4002 <_min_stack+0x2002>
    3dd4:	0306                	slli	t1,t1,0x1
    3dd6:	0900                	addi	s0,sp,144
    3dd8:	0000                	unimp
    3dda:	0301                	addi	t1,t1,0
    3ddc:	0901                	addi	s2,s2,0
    3dde:	000c                	.2byte	0xc
    3de0:	0301                	addi	t1,t1,0
    3de2:	097f                	.2byte	0x97f
    3de4:	0004                	.2byte	0x4
    3de6:	0501                	addi	a0,a0,0
    3de8:	01030603          	lb	a2,16(t1)
    3dec:	0209                	addi	tp,tp,2 # 2 <_min_stack-0x1ffe>
    3dee:	0100                	addi	s0,sp,128
    3df0:	2c05                	jal	4020 <_min_stack+0x2020>
    3df2:	0306                	slli	t1,t1,0x1
    3df4:	0900                	addi	s0,sp,144
    3df6:	0000                	unimp
    3df8:	0501                	addi	a0,a0,0
    3dfa:	01030603          	lb	a2,16(t1)
    3dfe:	0a09                	addi	s4,s4,2
    3e00:	0100                	addi	s0,sp,128
    3e02:	2c05                	jal	4032 <_min_stack+0x2032>
    3e04:	0306                	slli	t1,t1,0x1
    3e06:	0900                	addi	s0,sp,144
    3e08:	0000                	unimp
    3e0a:	0501                	addi	a0,a0,0
    3e0c:	01030603          	lb	a2,16(t1)
    3e10:	0e09                	addi	t3,t3,2
    3e12:	0100                	addi	s0,sp,128
    3e14:	2c05                	jal	4044 <_min_stack+0x2044>
    3e16:	0306                	slli	t1,t1,0x1
    3e18:	0900                	addi	s0,sp,144
    3e1a:	0000                	unimp
    3e1c:	0501                	addi	a0,a0,0
    3e1e:	01030603          	lb	a2,16(t1)
    3e22:	0e09                	addi	t3,t3,2
    3e24:	0100                	addi	s0,sp,128
    3e26:	2c05                	jal	4056 <_min_stack+0x2056>
    3e28:	0306                	slli	t1,t1,0x1
    3e2a:	0900                	addi	s0,sp,144
    3e2c:	0000                	unimp
    3e2e:	0301                	addi	t1,t1,0
    3e30:	0901                	addi	s2,s2,0
    3e32:	000c                	.2byte	0xc
    3e34:	0301                	addi	t1,t1,0
    3e36:	097f                	.2byte	0x97f
    3e38:	0004                	.2byte	0x4
    3e3a:	0501                	addi	a0,a0,0
    3e3c:	01030603          	lb	a2,16(t1)
    3e40:	0209                	addi	tp,tp,2 # 2 <_min_stack-0x1ffe>
    3e42:	0100                	addi	s0,sp,128
    3e44:	2c05                	jal	4074 <_min_stack+0x2074>
    3e46:	0306                	slli	t1,t1,0x1
    3e48:	0900                	addi	s0,sp,144
    3e4a:	0000                	unimp
    3e4c:	0501                	addi	a0,a0,0
    3e4e:	01030603          	lb	a2,16(t1)
    3e52:	0a09                	addi	s4,s4,2
    3e54:	0100                	addi	s0,sp,128
    3e56:	2c05                	jal	4086 <_min_stack+0x2086>
    3e58:	0306                	slli	t1,t1,0x1
    3e5a:	0900                	addi	s0,sp,144
    3e5c:	0000                	unimp
    3e5e:	0501                	addi	a0,a0,0
    3e60:	01030603          	lb	a2,16(t1)
    3e64:	0e09                	addi	t3,t3,2
    3e66:	0100                	addi	s0,sp,128
    3e68:	2c05                	jal	4098 <_min_stack+0x2098>
    3e6a:	0306                	slli	t1,t1,0x1
    3e6c:	0900                	addi	s0,sp,144
    3e6e:	0000                	unimp
    3e70:	0501                	addi	a0,a0,0
    3e72:	01030603          	lb	a2,16(t1)
    3e76:	0e09                	addi	t3,t3,2
    3e78:	0100                	addi	s0,sp,128
    3e7a:	2c05                	jal	40aa <_min_stack+0x20aa>
    3e7c:	0306                	slli	t1,t1,0x1
    3e7e:	0900                	addi	s0,sp,144
    3e80:	0000                	unimp
    3e82:	0501                	addi	a0,a0,0
    3e84:	01030603          	lb	a2,16(t1)
    3e88:	0e09                	addi	t3,t3,2
    3e8a:	0100                	addi	s0,sp,128
    3e8c:	2c05                	jal	40bc <_min_stack+0x20bc>
    3e8e:	0306                	slli	t1,t1,0x1
    3e90:	0900                	addi	s0,sp,144
    3e92:	0000                	unimp
    3e94:	0501                	addi	a0,a0,0
    3e96:	01030603          	lb	a2,16(t1)
    3e9a:	0e09                	addi	t3,t3,2
    3e9c:	0100                	addi	s0,sp,128
    3e9e:	2c05                	jal	40ce <_min_stack+0x20ce>
    3ea0:	0306                	slli	t1,t1,0x1
    3ea2:	0900                	addi	s0,sp,144
    3ea4:	0000                	unimp
    3ea6:	0501                	addi	a0,a0,0
    3ea8:	01030603          	lb	a2,16(t1)
    3eac:	0e09                	addi	t3,t3,2
    3eae:	0100                	addi	s0,sp,128
    3eb0:	2c05                	jal	40e0 <_min_stack+0x20e0>
    3eb2:	0306                	slli	t1,t1,0x1
    3eb4:	0900                	addi	s0,sp,144
    3eb6:	0000                	unimp
    3eb8:	0501                	addi	a0,a0,0
    3eba:	01030603          	lb	a2,16(t1)
    3ebe:	0e09                	addi	t3,t3,2
    3ec0:	0100                	addi	s0,sp,128
    3ec2:	2c05                	jal	40f2 <_min_stack+0x20f2>
    3ec4:	0306                	slli	t1,t1,0x1
    3ec6:	0900                	addi	s0,sp,144
    3ec8:	0000                	unimp
    3eca:	0501                	addi	a0,a0,0
    3ecc:	01030603          	lb	a2,16(t1)
    3ed0:	0c09                	addi	s8,s8,2
    3ed2:	0100                	addi	s0,sp,128
    3ed4:	2c05                	jal	4104 <_min_stack+0x2104>
    3ed6:	0306                	slli	t1,t1,0x1
    3ed8:	0900                	addi	s0,sp,144
    3eda:	0000                	unimp
    3edc:	0501                	addi	a0,a0,0
    3ede:	01030603          	lb	a2,16(t1)
    3ee2:	0e09                	addi	t3,t3,2
    3ee4:	0100                	addi	s0,sp,128
    3ee6:	2c05                	jal	4116 <_min_stack+0x2116>
    3ee8:	0306                	slli	t1,t1,0x1
    3eea:	0900                	addi	s0,sp,144
    3eec:	0000                	unimp
    3eee:	0301                	addi	t1,t1,0
    3ef0:	0901                	addi	s2,s2,0
    3ef2:	000c                	.2byte	0xc
    3ef4:	0301                	addi	t1,t1,0
    3ef6:	097f                	.2byte	0x97f
    3ef8:	0004                	.2byte	0x4
    3efa:	0501                	addi	a0,a0,0
    3efc:	01030603          	lb	a2,16(t1)
    3f00:	0209                	addi	tp,tp,2 # 2 <_min_stack-0x1ffe>
    3f02:	0100                	addi	s0,sp,128
    3f04:	2c05                	jal	4134 <_min_stack+0x2134>
    3f06:	0306                	slli	t1,t1,0x1
    3f08:	0900                	addi	s0,sp,144
    3f0a:	0000                	unimp
    3f0c:	0501                	addi	a0,a0,0
    3f0e:	01030603          	lb	a2,16(t1)
    3f12:	0c09                	addi	s8,s8,2
    3f14:	0100                	addi	s0,sp,128
    3f16:	2c05                	jal	4146 <_min_stack+0x2146>
    3f18:	0306                	slli	t1,t1,0x1
    3f1a:	0900                	addi	s0,sp,144
    3f1c:	0000                	unimp
    3f1e:	0301                	addi	t1,t1,0
    3f20:	0901                	addi	s2,s2,0
    3f22:	0008                	.2byte	0x8
    3f24:	0301                	addi	t1,t1,0
    3f26:	097f                	.2byte	0x97f
    3f28:	0004                	.2byte	0x4
    3f2a:	0501                	addi	a0,a0,0
    3f2c:	01030603          	lb	a2,16(t1)
    3f30:	0409                	addi	s0,s0,2
    3f32:	0100                	addi	s0,sp,128
    3f34:	2c05                	jal	4164 <_min_stack+0x2164>
    3f36:	0306                	slli	t1,t1,0x1
    3f38:	0900                	addi	s0,sp,144
    3f3a:	0000                	unimp
    3f3c:	0501                	addi	a0,a0,0
    3f3e:	01030603          	lb	a2,16(t1)
    3f42:	0809                	addi	a6,a6,2
    3f44:	0100                	addi	s0,sp,128
    3f46:	2c05                	jal	4176 <_min_stack+0x2176>
    3f48:	0306                	slli	t1,t1,0x1
    3f4a:	0900                	addi	s0,sp,144
    3f4c:	0000                	unimp
    3f4e:	0501                	addi	a0,a0,0
    3f50:	01030603          	lb	a2,16(t1)
    3f54:	0c09                	addi	s8,s8,2
    3f56:	0100                	addi	s0,sp,128
    3f58:	2c05                	jal	4188 <_min_stack+0x2188>
    3f5a:	0306                	slli	t1,t1,0x1
    3f5c:	0900                	addi	s0,sp,144
    3f5e:	0000                	unimp
    3f60:	0501                	addi	a0,a0,0
    3f62:	01030603          	lb	a2,16(t1)
    3f66:	0c09                	addi	s8,s8,2
    3f68:	0100                	addi	s0,sp,128
    3f6a:	2c05                	jal	419a <_min_stack+0x219a>
    3f6c:	0306                	slli	t1,t1,0x1
    3f6e:	0900                	addi	s0,sp,144
    3f70:	0000                	unimp
    3f72:	0501                	addi	a0,a0,0
    3f74:	01030603          	lb	a2,16(t1)
    3f78:	0c09                	addi	s8,s8,2
    3f7a:	0100                	addi	s0,sp,128
    3f7c:	2c05                	jal	41ac <_min_stack+0x21ac>
    3f7e:	0306                	slli	t1,t1,0x1
    3f80:	0900                	addi	s0,sp,144
    3f82:	0000                	unimp
    3f84:	0501                	addi	a0,a0,0
    3f86:	01030603          	lb	a2,16(t1)
    3f8a:	0c09                	addi	s8,s8,2
    3f8c:	0100                	addi	s0,sp,128
    3f8e:	2c05                	jal	41be <_min_stack+0x21be>
    3f90:	0306                	slli	t1,t1,0x1
    3f92:	0900                	addi	s0,sp,144
    3f94:	0000                	unimp
    3f96:	0501                	addi	a0,a0,0
    3f98:	01030603          	lb	a2,16(t1)
    3f9c:	0c09                	addi	s8,s8,2
    3f9e:	0100                	addi	s0,sp,128
    3fa0:	2c05                	jal	41d0 <_min_stack+0x21d0>
    3fa2:	0306                	slli	t1,t1,0x1
    3fa4:	0900                	addi	s0,sp,144
    3fa6:	0000                	unimp
    3fa8:	0501                	addi	a0,a0,0
    3faa:	01030603          	lb	a2,16(t1)
    3fae:	0a09                	addi	s4,s4,2
    3fb0:	0100                	addi	s0,sp,128
    3fb2:	2c05                	jal	41e2 <_min_stack+0x21e2>
    3fb4:	0306                	slli	t1,t1,0x1
    3fb6:	0900                	addi	s0,sp,144
    3fb8:	0000                	unimp
    3fba:	0501                	addi	a0,a0,0
    3fbc:	01030603          	lb	a2,16(t1)
    3fc0:	0c09                	addi	s8,s8,2
    3fc2:	0100                	addi	s0,sp,128
    3fc4:	2c05                	jal	41f4 <_min_stack+0x21f4>
    3fc6:	0306                	slli	t1,t1,0x1
    3fc8:	0900                	addi	s0,sp,144
    3fca:	0000                	unimp
    3fcc:	0501                	addi	a0,a0,0
    3fce:	01030603          	lb	a2,16(t1)
    3fd2:	0c09                	addi	s8,s8,2
    3fd4:	0100                	addi	s0,sp,128
    3fd6:	2c05                	jal	4206 <_min_stack+0x2206>
    3fd8:	0306                	slli	t1,t1,0x1
    3fda:	0900                	addi	s0,sp,144
    3fdc:	0000                	unimp
    3fde:	0501                	addi	a0,a0,0
    3fe0:	01030603          	lb	a2,16(t1)
    3fe4:	0409                	addi	s0,s0,2
    3fe6:	0100                	addi	s0,sp,128
    3fe8:	2c05                	jal	4218 <_min_stack+0x2218>
    3fea:	0306                	slli	t1,t1,0x1
    3fec:	0900                	addi	s0,sp,144
    3fee:	0000                	unimp
    3ff0:	0301                	addi	t1,t1,0
    3ff2:	0901                	addi	s2,s2,0
    3ff4:	0004                	.2byte	0x4
    3ff6:	0301                	addi	t1,t1,0
    3ff8:	097f                	.2byte	0x97f
    3ffa:	0004                	.2byte	0x4
    3ffc:	0501                	addi	a0,a0,0
    3ffe:	01030603          	lb	a2,16(t1)
    4002:	0409                	addi	s0,s0,2
    4004:	0100                	addi	s0,sp,128
    4006:	2c05                	jal	4236 <_min_stack+0x2236>
    4008:	0306                	slli	t1,t1,0x1
    400a:	0900                	addi	s0,sp,144
    400c:	0000                	unimp
    400e:	0501                	addi	a0,a0,0
    4010:	01030603          	lb	a2,16(t1)
    4014:	0809                	addi	a6,a6,2
    4016:	0100                	addi	s0,sp,128
    4018:	2c05                	jal	4248 <_min_stack+0x2248>
    401a:	0306                	slli	t1,t1,0x1
    401c:	0900                	addi	s0,sp,144
    401e:	0000                	unimp
    4020:	0501                	addi	a0,a0,0
    4022:	01030603          	lb	a2,16(t1)
    4026:	0c09                	addi	s8,s8,2
    4028:	0100                	addi	s0,sp,128
    402a:	2c05                	jal	425a <_min_stack+0x225a>
    402c:	0306                	slli	t1,t1,0x1
    402e:	0900                	addi	s0,sp,144
    4030:	0000                	unimp
    4032:	0501                	addi	a0,a0,0
    4034:	01030603          	lb	a2,16(t1)
    4038:	0c09                	addi	s8,s8,2
    403a:	0100                	addi	s0,sp,128
    403c:	2c05                	jal	426c <_min_stack+0x226c>
    403e:	0306                	slli	t1,t1,0x1
    4040:	0900                	addi	s0,sp,144
    4042:	0000                	unimp
    4044:	0501                	addi	a0,a0,0
    4046:	01030603          	lb	a2,16(t1)
    404a:	0c09                	addi	s8,s8,2
    404c:	0100                	addi	s0,sp,128
    404e:	2c05                	jal	427e <_min_stack+0x227e>
    4050:	0306                	slli	t1,t1,0x1
    4052:	0900                	addi	s0,sp,144
    4054:	0000                	unimp
    4056:	0501                	addi	a0,a0,0
    4058:	01030603          	lb	a2,16(t1)
    405c:	0409                	addi	s0,s0,2
    405e:	0100                	addi	s0,sp,128
    4060:	2c05                	jal	4290 <_min_stack+0x2290>
    4062:	0306                	slli	t1,t1,0x1
    4064:	0901                	addi	s2,s2,0
    4066:	0000                	unimp
    4068:	0301                	addi	t1,t1,0
    406a:	097f                	.2byte	0x97f
    406c:	0004                	.2byte	0x4
    406e:	0501                	addi	a0,a0,0
    4070:	01030603          	lb	a2,16(t1)
    4074:	0409                	addi	s0,s0,2
    4076:	0100                	addi	s0,sp,128
    4078:	2c05                	jal	42a8 <_min_stack+0x22a8>
    407a:	0306                	slli	t1,t1,0x1
    407c:	0900                	addi	s0,sp,144
    407e:	0000                	unimp
    4080:	0501                	addi	a0,a0,0
    4082:	01030603          	lb	a2,16(t1)
    4086:	0809                	addi	a6,a6,2
    4088:	0100                	addi	s0,sp,128
    408a:	2c05                	jal	42ba <_min_stack+0x22ba>
    408c:	0306                	slli	t1,t1,0x1
    408e:	0900                	addi	s0,sp,144
    4090:	0000                	unimp
    4092:	0501                	addi	a0,a0,0
    4094:	01030603          	lb	a2,16(t1)
    4098:	0c09                	addi	s8,s8,2
    409a:	0100                	addi	s0,sp,128
    409c:	2c05                	jal	42cc <_min_stack+0x22cc>
    409e:	0306                	slli	t1,t1,0x1
    40a0:	0900                	addi	s0,sp,144
    40a2:	0000                	unimp
    40a4:	0501                	addi	a0,a0,0
    40a6:	01030603          	lb	a2,16(t1)
    40aa:	0c09                	addi	s8,s8,2
    40ac:	0100                	addi	s0,sp,128
    40ae:	2c05                	jal	42de <_min_stack+0x22de>
    40b0:	0306                	slli	t1,t1,0x1
    40b2:	0900                	addi	s0,sp,144
    40b4:	0000                	unimp
    40b6:	0501                	addi	a0,a0,0
    40b8:	01030603          	lb	a2,16(t1)
    40bc:	0c09                	addi	s8,s8,2
    40be:	0100                	addi	s0,sp,128
    40c0:	2c05                	jal	42f0 <_min_stack+0x22f0>
    40c2:	0306                	slli	t1,t1,0x1
    40c4:	0900                	addi	s0,sp,144
    40c6:	0000                	unimp
    40c8:	0501                	addi	a0,a0,0
    40ca:	01030603          	lb	a2,16(t1)
    40ce:	0c09                	addi	s8,s8,2
    40d0:	0100                	addi	s0,sp,128
    40d2:	2c05                	jal	4302 <_min_stack+0x2302>
    40d4:	0306                	slli	t1,t1,0x1
    40d6:	0900                	addi	s0,sp,144
    40d8:	0000                	unimp
    40da:	0501                	addi	a0,a0,0
    40dc:	01030603          	lb	a2,16(t1)
    40e0:	0c09                	addi	s8,s8,2
    40e2:	0100                	addi	s0,sp,128
    40e4:	2c05                	jal	4314 <_min_stack+0x2314>
    40e6:	0306                	slli	t1,t1,0x1
    40e8:	0900                	addi	s0,sp,144
    40ea:	0000                	unimp
    40ec:	0301                	addi	t1,t1,0
    40ee:	0901                	addi	s2,s2,0
    40f0:	0008                	.2byte	0x8
    40f2:	0301                	addi	t1,t1,0
    40f4:	097f                	.2byte	0x97f
    40f6:	0004                	.2byte	0x4
    40f8:	0501                	addi	a0,a0,0
    40fa:	01030603          	lb	a2,16(t1)
    40fe:	0409                	addi	s0,s0,2
    4100:	0100                	addi	s0,sp,128
    4102:	2c05                	jal	4332 <_min_stack+0x2332>
    4104:	0306                	slli	t1,t1,0x1
    4106:	0900                	addi	s0,sp,144
    4108:	0000                	unimp
    410a:	0501                	addi	a0,a0,0
    410c:	01030603          	lb	a2,16(t1)
    4110:	0809                	addi	a6,a6,2
    4112:	0100                	addi	s0,sp,128
    4114:	2c05                	jal	4344 <_min_stack+0x2344>
    4116:	0306                	slli	t1,t1,0x1
    4118:	0900                	addi	s0,sp,144
    411a:	0000                	unimp
    411c:	0501                	addi	a0,a0,0
    411e:	01030603          	lb	a2,16(t1)
    4122:	0c09                	addi	s8,s8,2
    4124:	0100                	addi	s0,sp,128
    4126:	2c05                	jal	4356 <_min_stack+0x2356>
    4128:	0306                	slli	t1,t1,0x1
    412a:	0900                	addi	s0,sp,144
    412c:	0000                	unimp
    412e:	0501                	addi	a0,a0,0
    4130:	01030603          	lb	a2,16(t1)
    4134:	0c09                	addi	s8,s8,2
    4136:	0100                	addi	s0,sp,128
    4138:	2c05                	jal	4368 <_min_stack+0x2368>
    413a:	0306                	slli	t1,t1,0x1
    413c:	0900                	addi	s0,sp,144
    413e:	0000                	unimp
    4140:	0501                	addi	a0,a0,0
    4142:	01030603          	lb	a2,16(t1)
    4146:	0c09                	addi	s8,s8,2
    4148:	0100                	addi	s0,sp,128
    414a:	2c05                	jal	437a <_min_stack+0x237a>
    414c:	0306                	slli	t1,t1,0x1
    414e:	0900                	addi	s0,sp,144
    4150:	0000                	unimp
    4152:	0501                	addi	a0,a0,0
    4154:	01030603          	lb	a2,16(t1)
    4158:	0c09                	addi	s8,s8,2
    415a:	0100                	addi	s0,sp,128
    415c:	2c05                	jal	438c <_min_stack+0x238c>
    415e:	0306                	slli	t1,t1,0x1
    4160:	0900                	addi	s0,sp,144
    4162:	0000                	unimp
    4164:	0501                	addi	a0,a0,0
    4166:	01030603          	lb	a2,16(t1)
    416a:	0c09                	addi	s8,s8,2
    416c:	0100                	addi	s0,sp,128
    416e:	2c05                	jal	439e <_min_stack+0x239e>
    4170:	0306                	slli	t1,t1,0x1
    4172:	0900                	addi	s0,sp,144
    4174:	0000                	unimp
    4176:	0501                	addi	a0,a0,0
    4178:	01030603          	lb	a2,16(t1)
    417c:	0c09                	addi	s8,s8,2
    417e:	0100                	addi	s0,sp,128
    4180:	2c05                	jal	43b0 <_min_stack+0x23b0>
    4182:	0306                	slli	t1,t1,0x1
    4184:	0900                	addi	s0,sp,144
    4186:	0000                	unimp
    4188:	0501                	addi	a0,a0,0
    418a:	01030603          	lb	a2,16(t1)
    418e:	0609                	addi	a2,a2,2
    4190:	0100                	addi	s0,sp,128
    4192:	2c05                	jal	43c2 <_min_stack+0x23c2>
    4194:	0306                	slli	t1,t1,0x1
    4196:	0900                	addi	s0,sp,144
    4198:	0000                	unimp
    419a:	0501                	addi	a0,a0,0
    419c:	01030603          	lb	a2,16(t1)
    41a0:	0c09                	addi	s8,s8,2
    41a2:	0100                	addi	s0,sp,128
    41a4:	2c05                	jal	43d4 <_min_stack+0x23d4>
    41a6:	0306                	slli	t1,t1,0x1
    41a8:	0900                	addi	s0,sp,144
    41aa:	0000                	unimp
    41ac:	0501                	addi	a0,a0,0
    41ae:	01030603          	lb	a2,16(t1)
    41b2:	0c09                	addi	s8,s8,2
    41b4:	0100                	addi	s0,sp,128
    41b6:	2c05                	jal	43e6 <_min_stack+0x23e6>
    41b8:	0306                	slli	t1,t1,0x1
    41ba:	0900                	addi	s0,sp,144
    41bc:	0000                	unimp
    41be:	0501                	addi	a0,a0,0
    41c0:	01030603          	lb	a2,16(t1)
    41c4:	0c09                	addi	s8,s8,2
    41c6:	0100                	addi	s0,sp,128
    41c8:	2c05                	jal	43f8 <_min_stack+0x23f8>
    41ca:	0306                	slli	t1,t1,0x1
    41cc:	0900                	addi	s0,sp,144
    41ce:	0000                	unimp
    41d0:	0501                	addi	a0,a0,0
    41d2:	01030603          	lb	a2,16(t1)
    41d6:	0c09                	addi	s8,s8,2
    41d8:	0100                	addi	s0,sp,128
    41da:	2c05                	jal	440a <_min_stack+0x240a>
    41dc:	0306                	slli	t1,t1,0x1
    41de:	0900                	addi	s0,sp,144
    41e0:	0000                	unimp
    41e2:	0501                	addi	a0,a0,0
    41e4:	01030603          	lb	a2,16(t1)
    41e8:	0c09                	addi	s8,s8,2
    41ea:	0100                	addi	s0,sp,128
    41ec:	2c05                	jal	441c <_min_stack+0x241c>
    41ee:	0306                	slli	t1,t1,0x1
    41f0:	0900                	addi	s0,sp,144
    41f2:	0000                	unimp
    41f4:	0501                	addi	a0,a0,0
    41f6:	01030603          	lb	a2,16(t1)
    41fa:	0c09                	addi	s8,s8,2
    41fc:	0100                	addi	s0,sp,128
    41fe:	2c05                	jal	442e <_min_stack+0x242e>
    4200:	0306                	slli	t1,t1,0x1
    4202:	0900                	addi	s0,sp,144
    4204:	0000                	unimp
    4206:	0501                	addi	a0,a0,0
    4208:	01030603          	lb	a2,16(t1)
    420c:	0c09                	addi	s8,s8,2
    420e:	0100                	addi	s0,sp,128
    4210:	2c05                	jal	4440 <_min_stack+0x2440>
    4212:	0306                	slli	t1,t1,0x1
    4214:	0900                	addi	s0,sp,144
    4216:	0000                	unimp
    4218:	0501                	addi	a0,a0,0
    421a:	01030603          	lb	a2,16(t1)
    421e:	0c09                	addi	s8,s8,2
    4220:	0100                	addi	s0,sp,128
    4222:	2c05                	jal	4452 <_min_stack+0x2452>
    4224:	0306                	slli	t1,t1,0x1
    4226:	0900                	addi	s0,sp,144
    4228:	0000                	unimp
    422a:	0501                	addi	a0,a0,0
    422c:	01030603          	lb	a2,16(t1)
    4230:	0c09                	addi	s8,s8,2
    4232:	0100                	addi	s0,sp,128
    4234:	2c05                	jal	4464 <_min_stack+0x2464>
    4236:	0306                	slli	t1,t1,0x1
    4238:	0900                	addi	s0,sp,144
    423a:	0000                	unimp
    423c:	0501                	addi	a0,a0,0
    423e:	01030603          	lb	a2,16(t1)
    4242:	0c09                	addi	s8,s8,2
    4244:	0100                	addi	s0,sp,128
    4246:	2c05                	jal	4476 <_min_stack+0x2476>
    4248:	0306                	slli	t1,t1,0x1
    424a:	0900                	addi	s0,sp,144
    424c:	0000                	unimp
    424e:	0501                	addi	a0,a0,0
    4250:	01030603          	lb	a2,16(t1)
    4254:	0c09                	addi	s8,s8,2
    4256:	0100                	addi	s0,sp,128
    4258:	2c05                	jal	4488 <_min_stack+0x2488>
    425a:	0306                	slli	t1,t1,0x1
    425c:	0900                	addi	s0,sp,144
    425e:	0000                	unimp
    4260:	0501                	addi	a0,a0,0
    4262:	01030603          	lb	a2,16(t1)
    4266:	0c09                	addi	s8,s8,2
    4268:	0100                	addi	s0,sp,128
    426a:	2c05                	jal	449a <_min_stack+0x249a>
    426c:	0306                	slli	t1,t1,0x1
    426e:	0900                	addi	s0,sp,144
    4270:	0000                	unimp
    4272:	0501                	addi	a0,a0,0
    4274:	01030603          	lb	a2,16(t1)
    4278:	0c09                	addi	s8,s8,2
    427a:	0100                	addi	s0,sp,128
    427c:	2c05                	jal	44ac <_min_stack+0x24ac>
    427e:	0306                	slli	t1,t1,0x1
    4280:	0900                	addi	s0,sp,144
    4282:	0000                	unimp
    4284:	0301                	addi	t1,t1,0
    4286:	0901                	addi	s2,s2,0
    4288:	0008                	.2byte	0x8
    428a:	0301                	addi	t1,t1,0
    428c:	097f                	.2byte	0x97f
    428e:	0004                	.2byte	0x4
    4290:	0501                	addi	a0,a0,0
    4292:	01030603          	lb	a2,16(t1)
    4296:	0409                	addi	s0,s0,2
    4298:	0100                	addi	s0,sp,128
    429a:	2c05                	jal	44ca <_min_stack+0x24ca>
    429c:	0306                	slli	t1,t1,0x1
    429e:	0900                	addi	s0,sp,144
    42a0:	0000                	unimp
    42a2:	0501                	addi	a0,a0,0
    42a4:	01030603          	lb	a2,16(t1)
    42a8:	0809                	addi	a6,a6,2
    42aa:	0100                	addi	s0,sp,128
    42ac:	2c05                	jal	44dc <_min_stack+0x24dc>
    42ae:	0306                	slli	t1,t1,0x1
    42b0:	0900                	addi	s0,sp,144
    42b2:	0000                	unimp
    42b4:	0501                	addi	a0,a0,0
    42b6:	01030603          	lb	a2,16(t1)
    42ba:	0c09                	addi	s8,s8,2
    42bc:	0100                	addi	s0,sp,128
    42be:	2c05                	jal	44ee <_min_stack+0x24ee>
    42c0:	0306                	slli	t1,t1,0x1
    42c2:	0900                	addi	s0,sp,144
    42c4:	0000                	unimp
    42c6:	0501                	addi	a0,a0,0
    42c8:	01030603          	lb	a2,16(t1)
    42cc:	0c09                	addi	s8,s8,2
    42ce:	0100                	addi	s0,sp,128
    42d0:	2c05                	jal	4500 <_min_stack+0x2500>
    42d2:	0306                	slli	t1,t1,0x1
    42d4:	0900                	addi	s0,sp,144
    42d6:	0000                	unimp
    42d8:	0501                	addi	a0,a0,0
    42da:	01030603          	lb	a2,16(t1)
    42de:	0c09                	addi	s8,s8,2
    42e0:	0100                	addi	s0,sp,128
    42e2:	2c05                	jal	4512 <_min_stack+0x2512>
    42e4:	0306                	slli	t1,t1,0x1
    42e6:	0900                	addi	s0,sp,144
    42e8:	0000                	unimp
    42ea:	0501                	addi	a0,a0,0
    42ec:	01030603          	lb	a2,16(t1)
    42f0:	0c09                	addi	s8,s8,2
    42f2:	0100                	addi	s0,sp,128
    42f4:	2c05                	jal	4524 <_min_stack+0x2524>
    42f6:	0306                	slli	t1,t1,0x1
    42f8:	0900                	addi	s0,sp,144
    42fa:	0000                	unimp
    42fc:	0501                	addi	a0,a0,0
    42fe:	01030603          	lb	a2,16(t1)
    4302:	0c09                	addi	s8,s8,2
    4304:	0100                	addi	s0,sp,128
    4306:	2c05                	jal	4536 <_min_stack+0x2536>
    4308:	0306                	slli	t1,t1,0x1
    430a:	0900                	addi	s0,sp,144
    430c:	0000                	unimp
    430e:	0501                	addi	a0,a0,0
    4310:	01030603          	lb	a2,16(t1)
    4314:	0809                	addi	a6,a6,2
    4316:	0100                	addi	s0,sp,128
    4318:	2c05                	jal	4548 <_min_stack+0x2548>
    431a:	0306                	slli	t1,t1,0x1
    431c:	0900                	addi	s0,sp,144
    431e:	0000                	unimp
    4320:	0501                	addi	a0,a0,0
    4322:	01030603          	lb	a2,16(t1)
    4326:	0c09                	addi	s8,s8,2
    4328:	0100                	addi	s0,sp,128
    432a:	2c05                	jal	455a <_min_stack+0x255a>
    432c:	0306                	slli	t1,t1,0x1
    432e:	0900                	addi	s0,sp,144
    4330:	0000                	unimp
    4332:	0501                	addi	a0,a0,0
    4334:	01030603          	lb	a2,16(t1)
    4338:	0c09                	addi	s8,s8,2
    433a:	0100                	addi	s0,sp,128
    433c:	2c05                	jal	456c <_min_stack+0x256c>
    433e:	0306                	slli	t1,t1,0x1
    4340:	0900                	addi	s0,sp,144
    4342:	0000                	unimp
    4344:	0501                	addi	a0,a0,0
    4346:	01030603          	lb	a2,16(t1)
    434a:	0c09                	addi	s8,s8,2
    434c:	0100                	addi	s0,sp,128
    434e:	2c05                	jal	457e <_min_stack+0x257e>
    4350:	0306                	slli	t1,t1,0x1
    4352:	0900                	addi	s0,sp,144
    4354:	0000                	unimp
    4356:	0501                	addi	a0,a0,0
    4358:	01030603          	lb	a2,16(t1)
    435c:	0c09                	addi	s8,s8,2
    435e:	0100                	addi	s0,sp,128
    4360:	2c05                	jal	4590 <_min_stack+0x2590>
    4362:	0306                	slli	t1,t1,0x1
    4364:	0900                	addi	s0,sp,144
    4366:	0000                	unimp
    4368:	0501                	addi	a0,a0,0
    436a:	01030603          	lb	a2,16(t1)
    436e:	0409                	addi	s0,s0,2
    4370:	0100                	addi	s0,sp,128
    4372:	2c05                	jal	45a2 <_min_stack+0x25a2>
    4374:	0306                	slli	t1,t1,0x1
    4376:	0900                	addi	s0,sp,144
    4378:	0000                	unimp
    437a:	0501                	addi	a0,a0,0
    437c:	01030603          	lb	a2,16(t1)
    4380:	0c09                	addi	s8,s8,2
    4382:	0100                	addi	s0,sp,128
    4384:	2c05                	jal	45b4 <_min_stack+0x25b4>
    4386:	0306                	slli	t1,t1,0x1
    4388:	0900                	addi	s0,sp,144
    438a:	0000                	unimp
    438c:	0501                	addi	a0,a0,0
    438e:	01030603          	lb	a2,16(t1)
    4392:	0c09                	addi	s8,s8,2
    4394:	0100                	addi	s0,sp,128
    4396:	2c05                	jal	45c6 <_min_stack+0x25c6>
    4398:	0306                	slli	t1,t1,0x1
    439a:	0900                	addi	s0,sp,144
    439c:	0000                	unimp
    439e:	0501                	addi	a0,a0,0
    43a0:	01030603          	lb	a2,16(t1)
    43a4:	0c09                	addi	s8,s8,2
    43a6:	0100                	addi	s0,sp,128
    43a8:	2c05                	jal	45d8 <_min_stack+0x25d8>
    43aa:	0306                	slli	t1,t1,0x1
    43ac:	0900                	addi	s0,sp,144
    43ae:	0000                	unimp
    43b0:	0301                	addi	t1,t1,0
    43b2:	0901                	addi	s2,s2,0
    43b4:	0004                	.2byte	0x4
    43b6:	0301                	addi	t1,t1,0
    43b8:	097f                	.2byte	0x97f
    43ba:	0004                	.2byte	0x4
    43bc:	0501                	addi	a0,a0,0
    43be:	01030603          	lb	a2,16(t1)
    43c2:	0809                	addi	a6,a6,2
    43c4:	0100                	addi	s0,sp,128
    43c6:	2c05                	jal	45f6 <_min_stack+0x25f6>
    43c8:	0306                	slli	t1,t1,0x1
    43ca:	0900                	addi	s0,sp,144
    43cc:	0000                	unimp
    43ce:	0501                	addi	a0,a0,0
    43d0:	01030603          	lb	a2,16(t1)
    43d4:	0c09                	addi	s8,s8,2
    43d6:	0100                	addi	s0,sp,128
    43d8:	2c05                	jal	4608 <_min_stack+0x2608>
    43da:	0306                	slli	t1,t1,0x1
    43dc:	0900                	addi	s0,sp,144
    43de:	0000                	unimp
    43e0:	0501                	addi	a0,a0,0
    43e2:	01030603          	lb	a2,16(t1)
    43e6:	0c09                	addi	s8,s8,2
    43e8:	0100                	addi	s0,sp,128
    43ea:	2c05                	jal	461a <_min_stack+0x261a>
    43ec:	0306                	slli	t1,t1,0x1
    43ee:	0900                	addi	s0,sp,144
    43f0:	0000                	unimp
    43f2:	0501                	addi	a0,a0,0
    43f4:	01030603          	lb	a2,16(t1)
    43f8:	0c09                	addi	s8,s8,2
    43fa:	0100                	addi	s0,sp,128
    43fc:	2c05                	jal	462c <_min_stack+0x262c>
    43fe:	0306                	slli	t1,t1,0x1
    4400:	0900                	addi	s0,sp,144
    4402:	0000                	unimp
    4404:	0501                	addi	a0,a0,0
    4406:	01030603          	lb	a2,16(t1)
    440a:	0c09                	addi	s8,s8,2
    440c:	0100                	addi	s0,sp,128
    440e:	2c05                	jal	463e <_min_stack+0x263e>
    4410:	0306                	slli	t1,t1,0x1
    4412:	0900                	addi	s0,sp,144
    4414:	0000                	unimp
    4416:	0501                	addi	a0,a0,0
    4418:	01030603          	lb	a2,16(t1)
    441c:	0c09                	addi	s8,s8,2
    441e:	0100                	addi	s0,sp,128
    4420:	2c05                	jal	4650 <_min_stack+0x2650>
    4422:	0306                	slli	t1,t1,0x1
    4424:	0900                	addi	s0,sp,144
    4426:	0000                	unimp
    4428:	0501                	addi	a0,a0,0
    442a:	01030603          	lb	a2,16(t1)
    442e:	0c09                	addi	s8,s8,2
    4430:	0100                	addi	s0,sp,128
    4432:	2c05                	jal	4662 <_min_stack+0x2662>
    4434:	0306                	slli	t1,t1,0x1
    4436:	0900                	addi	s0,sp,144
    4438:	0000                	unimp
    443a:	0501                	addi	a0,a0,0
    443c:	01030603          	lb	a2,16(t1)
    4440:	0c09                	addi	s8,s8,2
    4442:	0100                	addi	s0,sp,128
    4444:	2c05                	jal	4674 <_min_stack+0x2674>
    4446:	0306                	slli	t1,t1,0x1
    4448:	0900                	addi	s0,sp,144
    444a:	0000                	unimp
    444c:	0501                	addi	a0,a0,0
    444e:	01030603          	lb	a2,16(t1)
    4452:	0c09                	addi	s8,s8,2
    4454:	0100                	addi	s0,sp,128
    4456:	2c05                	jal	4686 <_min_stack+0x2686>
    4458:	0306                	slli	t1,t1,0x1
    445a:	0900                	addi	s0,sp,144
    445c:	0000                	unimp
    445e:	0501                	addi	a0,a0,0
    4460:	01030603          	lb	a2,16(t1)
    4464:	0c09                	addi	s8,s8,2
    4466:	0100                	addi	s0,sp,128
    4468:	2c05                	jal	4698 <_min_stack+0x2698>
    446a:	0306                	slli	t1,t1,0x1
    446c:	0900                	addi	s0,sp,144
    446e:	0000                	unimp
    4470:	0501                	addi	a0,a0,0
    4472:	01030603          	lb	a2,16(t1)
    4476:	0c09                	addi	s8,s8,2
    4478:	0100                	addi	s0,sp,128
    447a:	2c05                	jal	46aa <_min_stack+0x26aa>
    447c:	0306                	slli	t1,t1,0x1
    447e:	0900                	addi	s0,sp,144
    4480:	0000                	unimp
    4482:	0501                	addi	a0,a0,0
    4484:	01030603          	lb	a2,16(t1)
    4488:	0c09                	addi	s8,s8,2
    448a:	0100                	addi	s0,sp,128
    448c:	2c05                	jal	46bc <_min_stack+0x26bc>
    448e:	0306                	slli	t1,t1,0x1
    4490:	0900                	addi	s0,sp,144
    4492:	0000                	unimp
    4494:	0501                	addi	a0,a0,0
    4496:	01030603          	lb	a2,16(t1)
    449a:	0c09                	addi	s8,s8,2
    449c:	0100                	addi	s0,sp,128
    449e:	2c05                	jal	46ce <_min_stack+0x26ce>
    44a0:	0306                	slli	t1,t1,0x1
    44a2:	0900                	addi	s0,sp,144
    44a4:	0000                	unimp
    44a6:	0501                	addi	a0,a0,0
    44a8:	01030603          	lb	a2,16(t1)
    44ac:	0c09                	addi	s8,s8,2
    44ae:	0100                	addi	s0,sp,128
    44b0:	2c05                	jal	46e0 <_min_stack+0x26e0>
    44b2:	0306                	slli	t1,t1,0x1
    44b4:	0900                	addi	s0,sp,144
    44b6:	0000                	unimp
    44b8:	0501                	addi	a0,a0,0
    44ba:	01030603          	lb	a2,16(t1)
    44be:	0c09                	addi	s8,s8,2
    44c0:	0100                	addi	s0,sp,128
    44c2:	2c05                	jal	46f2 <_min_stack+0x26f2>
    44c4:	0306                	slli	t1,t1,0x1
    44c6:	0900                	addi	s0,sp,144
    44c8:	0000                	unimp
    44ca:	0501                	addi	a0,a0,0
    44cc:	01030603          	lb	a2,16(t1)
    44d0:	0c09                	addi	s8,s8,2
    44d2:	0100                	addi	s0,sp,128
    44d4:	2c05                	jal	4704 <_min_stack+0x2704>
    44d6:	0306                	slli	t1,t1,0x1
    44d8:	0900                	addi	s0,sp,144
    44da:	0000                	unimp
    44dc:	0501                	addi	a0,a0,0
    44de:	01030603          	lb	a2,16(t1)
    44e2:	0c09                	addi	s8,s8,2
    44e4:	0100                	addi	s0,sp,128
    44e6:	2c05                	jal	4716 <_min_stack+0x2716>
    44e8:	0306                	slli	t1,t1,0x1
    44ea:	0900                	addi	s0,sp,144
    44ec:	0000                	unimp
    44ee:	0501                	addi	a0,a0,0
    44f0:	01030603          	lb	a2,16(t1)
    44f4:	0c09                	addi	s8,s8,2
    44f6:	0100                	addi	s0,sp,128
    44f8:	2c05                	jal	4728 <_min_stack+0x2728>
    44fa:	0306                	slli	t1,t1,0x1
    44fc:	0900                	addi	s0,sp,144
    44fe:	0000                	unimp
    4500:	0501                	addi	a0,a0,0
    4502:	01030603          	lb	a2,16(t1)
    4506:	0c09                	addi	s8,s8,2
    4508:	0100                	addi	s0,sp,128
    450a:	2c05                	jal	473a <_min_stack+0x273a>
    450c:	0306                	slli	t1,t1,0x1
    450e:	0900                	addi	s0,sp,144
    4510:	0000                	unimp
    4512:	0301                	addi	t1,t1,0
    4514:	0901                	addi	s2,s2,0
    4516:	0008                	.2byte	0x8
    4518:	0301                	addi	t1,t1,0
    451a:	097f                	.2byte	0x97f
    451c:	0004                	.2byte	0x4
    451e:	0501                	addi	a0,a0,0
    4520:	01030603          	lb	a2,16(t1)
    4524:	0409                	addi	s0,s0,2
    4526:	0100                	addi	s0,sp,128
    4528:	2c05                	jal	4758 <_min_stack+0x2758>
    452a:	0306                	slli	t1,t1,0x1
    452c:	0900                	addi	s0,sp,144
    452e:	0000                	unimp
    4530:	0501                	addi	a0,a0,0
    4532:	01030603          	lb	a2,16(t1)
    4536:	0809                	addi	a6,a6,2
    4538:	0100                	addi	s0,sp,128
    453a:	2c05                	jal	476a <_min_stack+0x276a>
    453c:	0306                	slli	t1,t1,0x1
    453e:	0900                	addi	s0,sp,144
    4540:	0000                	unimp
    4542:	0501                	addi	a0,a0,0
    4544:	01030603          	lb	a2,16(t1)
    4548:	0409                	addi	s0,s0,2
    454a:	0100                	addi	s0,sp,128
    454c:	2c05                	jal	477c <_min_stack+0x277c>
    454e:	0306                	slli	t1,t1,0x1
    4550:	0900                	addi	s0,sp,144
    4552:	0000                	unimp
    4554:	0501                	addi	a0,a0,0
    4556:	01030603          	lb	a2,16(t1)
    455a:	0c09                	addi	s8,s8,2
    455c:	0100                	addi	s0,sp,128
    455e:	2c05                	jal	478e <_min_stack+0x278e>
    4560:	0306                	slli	t1,t1,0x1
    4562:	0900                	addi	s0,sp,144
    4564:	0000                	unimp
    4566:	0501                	addi	a0,a0,0
    4568:	01030603          	lb	a2,16(t1)
    456c:	0a09                	addi	s4,s4,2
    456e:	0100                	addi	s0,sp,128
    4570:	2c05                	jal	47a0 <_min_stack+0x27a0>
    4572:	0306                	slli	t1,t1,0x1
    4574:	0900                	addi	s0,sp,144
    4576:	0000                	unimp
    4578:	0501                	addi	a0,a0,0
    457a:	01030603          	lb	a2,16(t1)
    457e:	0e09                	addi	t3,t3,2
    4580:	0100                	addi	s0,sp,128
    4582:	2c05                	jal	47b2 <_min_stack+0x27b2>
    4584:	0306                	slli	t1,t1,0x1
    4586:	0900                	addi	s0,sp,144
    4588:	0000                	unimp
    458a:	0501                	addi	a0,a0,0
    458c:	01030603          	lb	a2,16(t1)
    4590:	0e09                	addi	t3,t3,2
    4592:	0100                	addi	s0,sp,128
    4594:	2c05                	jal	47c4 <_min_stack+0x27c4>
    4596:	0306                	slli	t1,t1,0x1
    4598:	0900                	addi	s0,sp,144
    459a:	0000                	unimp
    459c:	0501                	addi	a0,a0,0
    459e:	01030603          	lb	a2,16(t1)
    45a2:	0e09                	addi	t3,t3,2
    45a4:	0100                	addi	s0,sp,128
    45a6:	2c05                	jal	47d6 <_min_stack+0x27d6>
    45a8:	0306                	slli	t1,t1,0x1
    45aa:	0900                	addi	s0,sp,144
    45ac:	0000                	unimp
    45ae:	0501                	addi	a0,a0,0
    45b0:	01030603          	lb	a2,16(t1)
    45b4:	0e09                	addi	t3,t3,2
    45b6:	0100                	addi	s0,sp,128
    45b8:	2c05                	jal	47e8 <_min_stack+0x27e8>
    45ba:	0306                	slli	t1,t1,0x1
    45bc:	0900                	addi	s0,sp,144
    45be:	0000                	unimp
    45c0:	0501                	addi	a0,a0,0
    45c2:	01030603          	lb	a2,16(t1)
    45c6:	0e09                	addi	t3,t3,2
    45c8:	0100                	addi	s0,sp,128
    45ca:	2c05                	jal	47fa <_min_stack+0x27fa>
    45cc:	0306                	slli	t1,t1,0x1
    45ce:	0900                	addi	s0,sp,144
    45d0:	0000                	unimp
    45d2:	0501                	addi	a0,a0,0
    45d4:	01030603          	lb	a2,16(t1)
    45d8:	0e09                	addi	t3,t3,2
    45da:	0100                	addi	s0,sp,128
    45dc:	2c05                	jal	480c <_min_stack+0x280c>
    45de:	0306                	slli	t1,t1,0x1
    45e0:	0900                	addi	s0,sp,144
    45e2:	0000                	unimp
    45e4:	0301                	addi	t1,t1,0
    45e6:	7edd                	lui	t4,0xffff7
    45e8:	0c09                	addi	s8,s8,2
    45ea:	0100                	addi	s0,sp,128
    45ec:	0901a303          	lw	t1,144(gp)
    45f0:	0004                	.2byte	0x4
    45f2:	0501                	addi	a0,a0,0
    45f4:	01030603          	lb	a2,16(t1)
    45f8:	0209                	addi	tp,tp,2 # 2 <_min_stack-0x1ffe>
    45fa:	0100                	addi	s0,sp,128
    45fc:	2c05                	jal	482c <_min_stack+0x282c>
    45fe:	0306                	slli	t1,t1,0x1
    4600:	0900                	addi	s0,sp,144
    4602:	0000                	unimp
    4604:	0501                	addi	a0,a0,0
    4606:	01030603          	lb	a2,16(t1)
    460a:	0e09                	addi	t3,t3,2
    460c:	0100                	addi	s0,sp,128
    460e:	2c05                	jal	483e <_min_stack+0x283e>
    4610:	0306                	slli	t1,t1,0x1
    4612:	0900                	addi	s0,sp,144
    4614:	0000                	unimp
    4616:	0501                	addi	a0,a0,0
    4618:	01030603          	lb	a2,16(t1)
    461c:	0a09                	addi	s4,s4,2
    461e:	0100                	addi	s0,sp,128
    4620:	2c05                	jal	4850 <_min_stack+0x2850>
    4622:	0306                	slli	t1,t1,0x1
    4624:	0900                	addi	s0,sp,144
    4626:	0000                	unimp
    4628:	0501                	addi	a0,a0,0
    462a:	01030603          	lb	a2,16(t1)
    462e:	0c09                	addi	s8,s8,2
    4630:	0100                	addi	s0,sp,128
    4632:	2c05                	jal	4862 <_min_stack+0x2862>
    4634:	0306                	slli	t1,t1,0x1
    4636:	0900                	addi	s0,sp,144
    4638:	0000                	unimp
    463a:	0501                	addi	a0,a0,0
    463c:	01030603          	lb	a2,16(t1)
    4640:	0e09                	addi	t3,t3,2
    4642:	0100                	addi	s0,sp,128
    4644:	2c05                	jal	4874 <_min_stack+0x2874>
    4646:	0306                	slli	t1,t1,0x1
    4648:	0900                	addi	s0,sp,144
    464a:	0000                	unimp
    464c:	0501                	addi	a0,a0,0
    464e:	01030603          	lb	a2,16(t1)
    4652:	0e09                	addi	t3,t3,2
    4654:	0100                	addi	s0,sp,128
    4656:	2c05                	jal	4886 <_min_stack+0x2886>
    4658:	0306                	slli	t1,t1,0x1
    465a:	0900                	addi	s0,sp,144
    465c:	0000                	unimp
    465e:	0501                	addi	a0,a0,0
    4660:	01030603          	lb	a2,16(t1)
    4664:	0e09                	addi	t3,t3,2
    4666:	0100                	addi	s0,sp,128
    4668:	2c05                	jal	4898 <_min_stack+0x2898>
    466a:	0306                	slli	t1,t1,0x1
    466c:	0900                	addi	s0,sp,144
    466e:	0000                	unimp
    4670:	0501                	addi	a0,a0,0
    4672:	01030603          	lb	a2,16(t1)
    4676:	0c09                	addi	s8,s8,2
    4678:	0100                	addi	s0,sp,128
    467a:	2c05                	jal	48aa <_min_stack+0x28aa>
    467c:	0306                	slli	t1,t1,0x1
    467e:	0900                	addi	s0,sp,144
    4680:	0000                	unimp
    4682:	0501                	addi	a0,a0,0
    4684:	01030603          	lb	a2,16(t1)
    4688:	0c09                	addi	s8,s8,2
    468a:	0100                	addi	s0,sp,128
    468c:	2c05                	jal	48bc <_min_stack+0x28bc>
    468e:	0306                	slli	t1,t1,0x1
    4690:	0900                	addi	s0,sp,144
    4692:	0000                	unimp
    4694:	0501                	addi	a0,a0,0
    4696:	01030603          	lb	a2,16(t1)
    469a:	0c09                	addi	s8,s8,2
    469c:	0100                	addi	s0,sp,128
    469e:	2c05                	jal	48ce <_min_stack+0x28ce>
    46a0:	0306                	slli	t1,t1,0x1
    46a2:	0900                	addi	s0,sp,144
    46a4:	0000                	unimp
    46a6:	0501                	addi	a0,a0,0
    46a8:	01030603          	lb	a2,16(t1)
    46ac:	0c09                	addi	s8,s8,2
    46ae:	0100                	addi	s0,sp,128
    46b0:	2c05                	jal	48e0 <_min_stack+0x28e0>
    46b2:	0306                	slli	t1,t1,0x1
    46b4:	0900                	addi	s0,sp,144
    46b6:	0000                	unimp
    46b8:	0501                	addi	a0,a0,0
    46ba:	01030603          	lb	a2,16(t1)
    46be:	0c09                	addi	s8,s8,2
    46c0:	0100                	addi	s0,sp,128
    46c2:	2c05                	jal	48f2 <_min_stack+0x28f2>
    46c4:	0306                	slli	t1,t1,0x1
    46c6:	0900                	addi	s0,sp,144
    46c8:	0000                	unimp
    46ca:	0501                	addi	a0,a0,0
    46cc:	01030603          	lb	a2,16(t1)
    46d0:	0609                	addi	a2,a2,2
    46d2:	0100                	addi	s0,sp,128
    46d4:	2c05                	jal	4904 <_min_stack+0x2904>
    46d6:	0306                	slli	t1,t1,0x1
    46d8:	0900                	addi	s0,sp,144
    46da:	0000                	unimp
    46dc:	0501                	addi	a0,a0,0
    46de:	01030603          	lb	a2,16(t1)
    46e2:	0e09                	addi	t3,t3,2
    46e4:	0100                	addi	s0,sp,128
    46e6:	2c05                	jal	4916 <_min_stack+0x2916>
    46e8:	0306                	slli	t1,t1,0x1
    46ea:	0900                	addi	s0,sp,144
    46ec:	0000                	unimp
    46ee:	0501                	addi	a0,a0,0
    46f0:	01030603          	lb	a2,16(t1)
    46f4:	0e09                	addi	t3,t3,2
    46f6:	0100                	addi	s0,sp,128
    46f8:	2c05                	jal	4928 <_min_stack+0x2928>
    46fa:	0306                	slli	t1,t1,0x1
    46fc:	0900                	addi	s0,sp,144
    46fe:	0000                	unimp
    4700:	0501                	addi	a0,a0,0
    4702:	01030603          	lb	a2,16(t1)
    4706:	0e09                	addi	t3,t3,2
    4708:	0100                	addi	s0,sp,128
    470a:	2c05                	jal	493a <_min_stack+0x293a>
    470c:	0306                	slli	t1,t1,0x1
    470e:	0900                	addi	s0,sp,144
    4710:	0000                	unimp
    4712:	0501                	addi	a0,a0,0
    4714:	01030603          	lb	a2,16(t1)
    4718:	0c09                	addi	s8,s8,2
    471a:	0100                	addi	s0,sp,128
    471c:	2c05                	jal	494c <_min_stack+0x294c>
    471e:	0306                	slli	t1,t1,0x1
    4720:	0900                	addi	s0,sp,144
    4722:	0000                	unimp
    4724:	0501                	addi	a0,a0,0
    4726:	01030603          	lb	a2,16(t1)
    472a:	0e09                	addi	t3,t3,2
    472c:	0100                	addi	s0,sp,128
    472e:	2c05                	jal	495e <_min_stack+0x295e>
    4730:	0306                	slli	t1,t1,0x1
    4732:	0900                	addi	s0,sp,144
    4734:	0000                	unimp
    4736:	0501                	addi	a0,a0,0
    4738:	01030603          	lb	a2,16(t1)
    473c:	0e09                	addi	t3,t3,2
    473e:	0100                	addi	s0,sp,128
    4740:	2c05                	jal	4970 <_min_stack+0x2970>
    4742:	0306                	slli	t1,t1,0x1
    4744:	0900                	addi	s0,sp,144
    4746:	0000                	unimp
    4748:	0501                	addi	a0,a0,0
    474a:	01030603          	lb	a2,16(t1)
    474e:	1009                	c.nop	-30
    4750:	0100                	addi	s0,sp,128
    4752:	2c05                	jal	4982 <_min_stack+0x2982>
    4754:	0306                	slli	t1,t1,0x1
    4756:	0900                	addi	s0,sp,144
    4758:	0000                	unimp
    475a:	0501                	addi	a0,a0,0
    475c:	01030603          	lb	a2,16(t1)
    4760:	0a09                	addi	s4,s4,2
    4762:	0100                	addi	s0,sp,128
    4764:	2c05                	jal	4994 <_min_stack+0x2994>
    4766:	0306                	slli	t1,t1,0x1
    4768:	0900                	addi	s0,sp,144
    476a:	0000                	unimp
    476c:	0501                	addi	a0,a0,0
    476e:	01030603          	lb	a2,16(t1)
    4772:	0e09                	addi	t3,t3,2
    4774:	0100                	addi	s0,sp,128
    4776:	2c05                	jal	49a6 <_min_stack+0x29a6>
    4778:	0306                	slli	t1,t1,0x1
    477a:	0900                	addi	s0,sp,144
    477c:	0000                	unimp
    477e:	0501                	addi	a0,a0,0
    4780:	01030603          	lb	a2,16(t1)
    4784:	0609                	addi	a2,a2,2
    4786:	0100                	addi	s0,sp,128
    4788:	2c05                	jal	49b8 <_min_stack+0x29b8>
    478a:	0306                	slli	t1,t1,0x1
    478c:	0900                	addi	s0,sp,144
    478e:	0000                	unimp
    4790:	0501                	addi	a0,a0,0
    4792:	01030603          	lb	a2,16(t1)
    4796:	0e09                	addi	t3,t3,2
    4798:	0100                	addi	s0,sp,128
    479a:	2c05                	jal	49ca <_min_stack+0x29ca>
    479c:	0306                	slli	t1,t1,0x1
    479e:	0900                	addi	s0,sp,144
    47a0:	0000                	unimp
    47a2:	0501                	addi	a0,a0,0
    47a4:	01030603          	lb	a2,16(t1)
    47a8:	0e09                	addi	t3,t3,2
    47aa:	0100                	addi	s0,sp,128
    47ac:	2c05                	jal	49dc <_min_stack+0x29dc>
    47ae:	0306                	slli	t1,t1,0x1
    47b0:	0900                	addi	s0,sp,144
    47b2:	0000                	unimp
    47b4:	0501                	addi	a0,a0,0
    47b6:	01030603          	lb	a2,16(t1)
    47ba:	0e09                	addi	t3,t3,2
    47bc:	0100                	addi	s0,sp,128
    47be:	2c05                	jal	49ee <_min_stack+0x29ee>
    47c0:	0306                	slli	t1,t1,0x1
    47c2:	0900                	addi	s0,sp,144
    47c4:	0000                	unimp
    47c6:	0501                	addi	a0,a0,0
    47c8:	01030603          	lb	a2,16(t1)
    47cc:	0609                	addi	a2,a2,2
    47ce:	0100                	addi	s0,sp,128
    47d0:	2c05                	jal	4a00 <_min_stack+0x2a00>
    47d2:	0306                	slli	t1,t1,0x1
    47d4:	0900                	addi	s0,sp,144
    47d6:	0000                	unimp
    47d8:	0501                	addi	a0,a0,0
    47da:	01030603          	lb	a2,16(t1)
    47de:	0e09                	addi	t3,t3,2
    47e0:	0100                	addi	s0,sp,128
    47e2:	2c05                	jal	4a12 <_min_stack+0x2a12>
    47e4:	0306                	slli	t1,t1,0x1
    47e6:	0900                	addi	s0,sp,144
    47e8:	0000                	unimp
    47ea:	0501                	addi	a0,a0,0
    47ec:	01030603          	lb	a2,16(t1)
    47f0:	0609                	addi	a2,a2,2
    47f2:	0100                	addi	s0,sp,128
    47f4:	2c05                	jal	4a24 <_min_stack+0x2a24>
    47f6:	0306                	slli	t1,t1,0x1
    47f8:	0900                	addi	s0,sp,144
    47fa:	0000                	unimp
    47fc:	0501                	addi	a0,a0,0
    47fe:	01030603          	lb	a2,16(t1)
    4802:	0e09                	addi	t3,t3,2
    4804:	0100                	addi	s0,sp,128
    4806:	2c05                	jal	4a36 <_min_stack+0x2a36>
    4808:	0306                	slli	t1,t1,0x1
    480a:	0900                	addi	s0,sp,144
    480c:	0000                	unimp
    480e:	0501                	addi	a0,a0,0
    4810:	01030603          	lb	a2,16(t1)
    4814:	0e09                	addi	t3,t3,2
    4816:	0100                	addi	s0,sp,128
    4818:	2c05                	jal	4a48 <_min_stack+0x2a48>
    481a:	0306                	slli	t1,t1,0x1
    481c:	0900                	addi	s0,sp,144
    481e:	0000                	unimp
    4820:	0501                	addi	a0,a0,0
    4822:	01030603          	lb	a2,16(t1)
    4826:	0e09                	addi	t3,t3,2
    4828:	0100                	addi	s0,sp,128
    482a:	2c05                	jal	4a5a <_min_stack+0x2a5a>
    482c:	0306                	slli	t1,t1,0x1
    482e:	0900                	addi	s0,sp,144
    4830:	0000                	unimp
    4832:	0501                	addi	a0,a0,0
    4834:	01030603          	lb	a2,16(t1)
    4838:	0e09                	addi	t3,t3,2
    483a:	0100                	addi	s0,sp,128
    483c:	2c05                	jal	4a6c <_min_stack+0x2a6c>
    483e:	0306                	slli	t1,t1,0x1
    4840:	0900                	addi	s0,sp,144
    4842:	0000                	unimp
    4844:	0501                	addi	a0,a0,0
    4846:	01030603          	lb	a2,16(t1)
    484a:	0e09                	addi	t3,t3,2
    484c:	0100                	addi	s0,sp,128
    484e:	2c05                	jal	4a7e <_min_stack+0x2a7e>
    4850:	0306                	slli	t1,t1,0x1
    4852:	0900                	addi	s0,sp,144
    4854:	0000                	unimp
    4856:	0501                	addi	a0,a0,0
    4858:	01030603          	lb	a2,16(t1)
    485c:	0e09                	addi	t3,t3,2
    485e:	0100                	addi	s0,sp,128
    4860:	2c05                	jal	4a90 <_min_stack+0x2a90>
    4862:	0306                	slli	t1,t1,0x1
    4864:	0900                	addi	s0,sp,144
    4866:	0000                	unimp
    4868:	0501                	addi	a0,a0,0
    486a:	01030603          	lb	a2,16(t1)
    486e:	0e09                	addi	t3,t3,2
    4870:	0100                	addi	s0,sp,128
    4872:	2c05                	jal	4aa2 <_min_stack+0x2aa2>
    4874:	0306                	slli	t1,t1,0x1
    4876:	0900                	addi	s0,sp,144
    4878:	0000                	unimp
    487a:	0501                	addi	a0,a0,0
    487c:	01030603          	lb	a2,16(t1)
    4880:	0e09                	addi	t3,t3,2
    4882:	0100                	addi	s0,sp,128
    4884:	2c05                	jal	4ab4 <_min_stack+0x2ab4>
    4886:	0306                	slli	t1,t1,0x1
    4888:	0900                	addi	s0,sp,144
    488a:	0000                	unimp
    488c:	0501                	addi	a0,a0,0
    488e:	01030603          	lb	a2,16(t1)
    4892:	0e09                	addi	t3,t3,2
    4894:	0100                	addi	s0,sp,128
    4896:	2c05                	jal	4ac6 <_min_stack+0x2ac6>
    4898:	0306                	slli	t1,t1,0x1
    489a:	0900                	addi	s0,sp,144
    489c:	0000                	unimp
    489e:	0501                	addi	a0,a0,0
    48a0:	01030603          	lb	a2,16(t1)
    48a4:	1209                	addi	tp,tp,-30 # ffffffe2 <fromhost+0x1ffeffd2>
    48a6:	0100                	addi	s0,sp,128
    48a8:	2c05                	jal	4ad8 <_min_stack+0x2ad8>
    48aa:	0306                	slli	t1,t1,0x1
    48ac:	0900                	addi	s0,sp,144
    48ae:	0000                	unimp
    48b0:	0501                	addi	a0,a0,0
    48b2:	01030603          	lb	a2,16(t1)
    48b6:	0e09                	addi	t3,t3,2
    48b8:	0100                	addi	s0,sp,128
    48ba:	2c05                	jal	4aea <_min_stack+0x2aea>
    48bc:	0306                	slli	t1,t1,0x1
    48be:	0900                	addi	s0,sp,144
    48c0:	0000                	unimp
    48c2:	0501                	addi	a0,a0,0
    48c4:	01030603          	lb	a2,16(t1)
    48c8:	0e09                	addi	t3,t3,2
    48ca:	0100                	addi	s0,sp,128
    48cc:	2c05                	jal	4afc <_min_stack+0x2afc>
    48ce:	0306                	slli	t1,t1,0x1
    48d0:	0900                	addi	s0,sp,144
    48d2:	0000                	unimp
    48d4:	0501                	addi	a0,a0,0
    48d6:	01030603          	lb	a2,16(t1)
    48da:	0e09                	addi	t3,t3,2
    48dc:	0100                	addi	s0,sp,128
    48de:	2c05                	jal	4b0e <_min_stack+0x2b0e>
    48e0:	0306                	slli	t1,t1,0x1
    48e2:	0900                	addi	s0,sp,144
    48e4:	0000                	unimp
    48e6:	0501                	addi	a0,a0,0
    48e8:	01030603          	lb	a2,16(t1)
    48ec:	0e09                	addi	t3,t3,2
    48ee:	0100                	addi	s0,sp,128
    48f0:	2c05                	jal	4b20 <_min_stack+0x2b20>
    48f2:	0306                	slli	t1,t1,0x1
    48f4:	0900                	addi	s0,sp,144
    48f6:	0000                	unimp
    48f8:	0501                	addi	a0,a0,0
    48fa:	01030603          	lb	a2,16(t1)
    48fe:	0e09                	addi	t3,t3,2
    4900:	0100                	addi	s0,sp,128
    4902:	2c05                	jal	4b32 <_min_stack+0x2b32>
    4904:	0306                	slli	t1,t1,0x1
    4906:	0900                	addi	s0,sp,144
    4908:	0000                	unimp
    490a:	0501                	addi	a0,a0,0
    490c:	01030603          	lb	a2,16(t1)
    4910:	0e09                	addi	t3,t3,2
    4912:	0100                	addi	s0,sp,128
    4914:	2c05                	jal	4b44 <_min_stack+0x2b44>
    4916:	0306                	slli	t1,t1,0x1
    4918:	0900                	addi	s0,sp,144
    491a:	0000                	unimp
    491c:	0501                	addi	a0,a0,0
    491e:	01030603          	lb	a2,16(t1)
    4922:	0e09                	addi	t3,t3,2
    4924:	0100                	addi	s0,sp,128
    4926:	2c05                	jal	4b56 <_min_stack+0x2b56>
    4928:	0306                	slli	t1,t1,0x1
    492a:	0900                	addi	s0,sp,144
    492c:	0000                	unimp
    492e:	0501                	addi	a0,a0,0
    4930:	01030603          	lb	a2,16(t1)
    4934:	0e09                	addi	t3,t3,2
    4936:	0100                	addi	s0,sp,128
    4938:	2c05                	jal	4b68 <_min_stack+0x2b68>
    493a:	0306                	slli	t1,t1,0x1
    493c:	0900                	addi	s0,sp,144
    493e:	0000                	unimp
    4940:	0501                	addi	a0,a0,0
    4942:	01030603          	lb	a2,16(t1)
    4946:	0e09                	addi	t3,t3,2
    4948:	0100                	addi	s0,sp,128
    494a:	2c05                	jal	4b7a <_min_stack+0x2b7a>
    494c:	0306                	slli	t1,t1,0x1
    494e:	0900                	addi	s0,sp,144
    4950:	0000                	unimp
    4952:	0501                	addi	a0,a0,0
    4954:	01030603          	lb	a2,16(t1)
    4958:	0e09                	addi	t3,t3,2
    495a:	0100                	addi	s0,sp,128
    495c:	2c05                	jal	4b8c <_min_stack+0x2b8c>
    495e:	0306                	slli	t1,t1,0x1
    4960:	0900                	addi	s0,sp,144
    4962:	0000                	unimp
    4964:	0501                	addi	a0,a0,0
    4966:	01030603          	lb	a2,16(t1)
    496a:	0e09                	addi	t3,t3,2
    496c:	0100                	addi	s0,sp,128
    496e:	2c05                	jal	4b9e <_min_stack+0x2b9e>
    4970:	0306                	slli	t1,t1,0x1
    4972:	0900                	addi	s0,sp,144
    4974:	0000                	unimp
    4976:	0501                	addi	a0,a0,0
    4978:	01030603          	lb	a2,16(t1)
    497c:	0e09                	addi	t3,t3,2
    497e:	0100                	addi	s0,sp,128
    4980:	2c05                	jal	4bb0 <_min_stack+0x2bb0>
    4982:	0306                	slli	t1,t1,0x1
    4984:	0900                	addi	s0,sp,144
    4986:	0000                	unimp
    4988:	0501                	addi	a0,a0,0
    498a:	01030603          	lb	a2,16(t1)
    498e:	0e09                	addi	t3,t3,2
    4990:	0100                	addi	s0,sp,128
    4992:	2c05                	jal	4bc2 <_min_stack+0x2bc2>
    4994:	0306                	slli	t1,t1,0x1
    4996:	0900                	addi	s0,sp,144
    4998:	0000                	unimp
    499a:	0501                	addi	a0,a0,0
    499c:	01030603          	lb	a2,16(t1)
    49a0:	0e09                	addi	t3,t3,2
    49a2:	0100                	addi	s0,sp,128
    49a4:	2c05                	jal	4bd4 <_min_stack+0x2bd4>
    49a6:	0306                	slli	t1,t1,0x1
    49a8:	0900                	addi	s0,sp,144
    49aa:	0000                	unimp
    49ac:	0501                	addi	a0,a0,0
    49ae:	01030603          	lb	a2,16(t1)
    49b2:	0e09                	addi	t3,t3,2
    49b4:	0100                	addi	s0,sp,128
    49b6:	2c05                	jal	4be6 <_min_stack+0x2be6>
    49b8:	0306                	slli	t1,t1,0x1
    49ba:	0900                	addi	s0,sp,144
    49bc:	0000                	unimp
    49be:	0501                	addi	a0,a0,0
    49c0:	01030603          	lb	a2,16(t1)
    49c4:	0e09                	addi	t3,t3,2
    49c6:	0100                	addi	s0,sp,128
    49c8:	2c05                	jal	4bf8 <_min_stack+0x2bf8>
    49ca:	0306                	slli	t1,t1,0x1
    49cc:	0900                	addi	s0,sp,144
    49ce:	0000                	unimp
    49d0:	0501                	addi	a0,a0,0
    49d2:	01030603          	lb	a2,16(t1)
    49d6:	0e09                	addi	t3,t3,2
    49d8:	0100                	addi	s0,sp,128
    49da:	2c05                	jal	4c0a <_min_stack+0x2c0a>
    49dc:	0306                	slli	t1,t1,0x1
    49de:	0900                	addi	s0,sp,144
    49e0:	0000                	unimp
    49e2:	0501                	addi	a0,a0,0
    49e4:	01030603          	lb	a2,16(t1)
    49e8:	0e09                	addi	t3,t3,2
    49ea:	0100                	addi	s0,sp,128
    49ec:	2c05                	jal	4c1c <_min_stack+0x2c1c>
    49ee:	0306                	slli	t1,t1,0x1
    49f0:	0900                	addi	s0,sp,144
    49f2:	0000                	unimp
    49f4:	0501                	addi	a0,a0,0
    49f6:	01030603          	lb	a2,16(t1)
    49fa:	0609                	addi	a2,a2,2
    49fc:	0100                	addi	s0,sp,128
    49fe:	2c05                	jal	4c2e <_min_stack+0x2c2e>
    4a00:	0306                	slli	t1,t1,0x1
    4a02:	0900                	addi	s0,sp,144
    4a04:	0000                	unimp
    4a06:	0501                	addi	a0,a0,0
    4a08:	01030603          	lb	a2,16(t1)
    4a0c:	0e09                	addi	t3,t3,2
    4a0e:	0100                	addi	s0,sp,128
    4a10:	2c05                	jal	4c40 <_min_stack+0x2c40>
    4a12:	0306                	slli	t1,t1,0x1
    4a14:	0900                	addi	s0,sp,144
    4a16:	0000                	unimp
    4a18:	0501                	addi	a0,a0,0
    4a1a:	01030603          	lb	a2,16(t1)
    4a1e:	0e09                	addi	t3,t3,2
    4a20:	0100                	addi	s0,sp,128
    4a22:	2c05                	jal	4c52 <_min_stack+0x2c52>
    4a24:	0306                	slli	t1,t1,0x1
    4a26:	0900                	addi	s0,sp,144
    4a28:	0000                	unimp
    4a2a:	0501                	addi	a0,a0,0
    4a2c:	0601                	addi	a2,a2,0
    4a2e:	0c090203          	lb	tp,192(s2)
    4a32:	0100                	addi	s0,sp,128
    4a34:	0205                	addi	tp,tp,1 # 1 <_min_stack-0x1fff>
    4a36:	0306                	slli	t1,t1,0x1
    4a38:	0901                	addi	s2,s2,0
    4a3a:	0000                	unimp
    4a3c:	0901                	addi	s2,s2,0
    4a3e:	0004                	.2byte	0x4
    4a40:	0100                	addi	s0,sp,128
    4a42:	0401                	addi	s0,s0,0
    4a44:	0502                	c.slli64	a0
    4a46:	000c                	.2byte	0xc
    4a48:	0205                	addi	tp,tp,1 # 1 <_min_stack-0x1fff>
    4a4a:	23f2                	.2byte	0x23f2
    4a4c:	e000                	.2byte	0xe000
    4a4e:	05010903          	lb	s2,80(sp)
    4a52:	09090303          	lb	t1,144(s2)
    4a56:	0000                	unimp
    4a58:	0501                	addi	a0,a0,0
    4a5a:	060d                	addi	a2,a2,3
    4a5c:	00090003          	lb	zero,0(s2)
    4a60:	0100                	addi	s0,sp,128
    4a62:	0409                	addi	s0,s0,2
    4a64:	0000                	unimp
    4a66:	0101                	addi	sp,sp,0
    4a68:	018d                	addi	gp,gp,3
    4a6a:	0000                	unimp
    4a6c:	0005                	c.nop	1
    4a6e:	0004                	.2byte	0x4
    4a70:	002e                	c.slli	zero,0xb
    4a72:	0000                	unimp
    4a74:	0101                	addi	sp,sp,0
    4a76:	fb01                	bnez	a4,4986 <_min_stack+0x2986>
    4a78:	0d0e                	slli	s10,s10,0x3
    4a7a:	0100                	addi	s0,sp,128
    4a7c:	0101                	addi	sp,sp,0
    4a7e:	0001                	nop
    4a80:	0000                	unimp
    4a82:	0001                	nop
    4a84:	0100                	addi	s0,sp,128
    4a86:	0101                	addi	sp,sp,0
    4a88:	021f 0000 0000      	.byte	0x1f, 0x02, 0x00, 0x00, 0x00, 0x00
    4a8e:	0094                	addi	a3,sp,64
    4a90:	0000                	unimp
    4a92:	0102                	c.slli64	sp
    4a94:	021f 020f 0160      	.byte	0x1f, 0x02, 0x0f, 0x02, 0x60, 0x01
    4a9a:	0000                	unimp
    4a9c:	6001                	.2byte	0x6001
    4a9e:	0001                	nop
    4aa0:	0100                	addi	s0,sp,128
    4aa2:	0500                	addi	s0,sp,640
    4aa4:	6e02                	.2byte	0x6e02
    4aa6:	1ae00023          	sb	a4,416(zero) # 1a0 <_min_stack-0x1e60>
    4aaa:	04090403          	lb	s0,64(s2)
    4aae:	0100                	addi	s0,sp,128
    4ab0:	04090103          	lb	sp,64(s2)
    4ab4:	0100                	addi	s0,sp,128
    4ab6:	02090103          	lb	sp,32(s2)
    4aba:	0100                	addi	s0,sp,128
    4abc:	02090103          	lb	sp,32(s2)
    4ac0:	0100                	addi	s0,sp,128
    4ac2:	02090103          	lb	sp,32(s2)
    4ac6:	0100                	addi	s0,sp,128
    4ac8:	02090103          	lb	sp,32(s2)
    4acc:	0100                	addi	s0,sp,128
    4ace:	02090103          	lb	sp,32(s2)
    4ad2:	0100                	addi	s0,sp,128
    4ad4:	02090103          	lb	sp,32(s2)
    4ad8:	0100                	addi	s0,sp,128
    4ada:	02090103          	lb	sp,32(s2)
    4ade:	0100                	addi	s0,sp,128
    4ae0:	02090103          	lb	sp,32(s2)
    4ae4:	0100                	addi	s0,sp,128
    4ae6:	02090103          	lb	sp,32(s2)
    4aea:	0100                	addi	s0,sp,128
    4aec:	02090103          	lb	sp,32(s2)
    4af0:	0100                	addi	s0,sp,128
    4af2:	02090103          	lb	sp,32(s2)
    4af6:	0100                	addi	s0,sp,128
    4af8:	02090103          	lb	sp,32(s2)
    4afc:	0100                	addi	s0,sp,128
    4afe:	02090103          	lb	sp,32(s2)
    4b02:	0100                	addi	s0,sp,128
    4b04:	02090103          	lb	sp,32(s2)
    4b08:	0100                	addi	s0,sp,128
    4b0a:	02090103          	lb	sp,32(s2)
    4b0e:	0100                	addi	s0,sp,128
    4b10:	02090103          	lb	sp,32(s2)
    4b14:	0100                	addi	s0,sp,128
    4b16:	02090103          	lb	sp,32(s2)
    4b1a:	0100                	addi	s0,sp,128
    4b1c:	02090103          	lb	sp,32(s2)
    4b20:	0100                	addi	s0,sp,128
    4b22:	02090103          	lb	sp,32(s2)
    4b26:	0100                	addi	s0,sp,128
    4b28:	02090103          	lb	sp,32(s2)
    4b2c:	0100                	addi	s0,sp,128
    4b2e:	02090103          	lb	sp,32(s2)
    4b32:	0100                	addi	s0,sp,128
    4b34:	02090103          	lb	sp,32(s2)
    4b38:	0100                	addi	s0,sp,128
    4b3a:	02090103          	lb	sp,32(s2)
    4b3e:	0100                	addi	s0,sp,128
    4b40:	02090103          	lb	sp,32(s2)
    4b44:	0100                	addi	s0,sp,128
    4b46:	02090103          	lb	sp,32(s2)
    4b4a:	0100                	addi	s0,sp,128
    4b4c:	02090103          	lb	sp,32(s2)
    4b50:	0100                	addi	s0,sp,128
    4b52:	02090103          	lb	sp,32(s2)
    4b56:	0100                	addi	s0,sp,128
    4b58:	02090103          	lb	sp,32(s2)
    4b5c:	0100                	addi	s0,sp,128
    4b5e:	02090103          	lb	sp,32(s2)
    4b62:	0100                	addi	s0,sp,128
    4b64:	02090303          	lb	t1,32(s2)
    4b68:	0100                	addi	s0,sp,128
    4b6a:	08090703          	lb	a4,128(s2)
    4b6e:	0100                	addi	s0,sp,128
    4b70:	08090103          	lb	sp,128(s2)
    4b74:	0100                	addi	s0,sp,128
    4b76:	08090103          	lb	sp,128(s2)
    4b7a:	0100                	addi	s0,sp,128
    4b7c:	04090403          	lb	s0,64(s2)
    4b80:	0100                	addi	s0,sp,128
    4b82:	04090103          	lb	sp,64(s2)
    4b86:	0100                	addi	s0,sp,128
    4b88:	02090103          	lb	sp,32(s2)
    4b8c:	0100                	addi	s0,sp,128
    4b8e:	04090603          	lb	a2,64(s2)
    4b92:	0100                	addi	s0,sp,128
    4b94:	02090103          	lb	sp,32(s2)
    4b98:	0100                	addi	s0,sp,128
    4b9a:	02090103          	lb	sp,32(s2)
    4b9e:	0100                	addi	s0,sp,128
    4ba0:	04090203          	lb	tp,64(s2)
    4ba4:	0100                	addi	s0,sp,128
    4ba6:	06090103          	lb	sp,96(s2)
    4baa:	0100                	addi	s0,sp,128
    4bac:	02090103          	lb	sp,32(s2)
    4bb0:	0100                	addi	s0,sp,128
    4bb2:	04090203          	lb	tp,64(s2)
    4bb6:	0100                	addi	s0,sp,128
    4bb8:	04090103          	lb	sp,64(s2)
    4bbc:	0100                	addi	s0,sp,128
    4bbe:	0209                	addi	tp,tp,2 # 2 <_min_stack-0x1ffe>
    4bc0:	0000                	unimp
    4bc2:	0101                	addi	sp,sp,0
    4bc4:	0500                	addi	s0,sp,640
    4bc6:	0002                	c.slli64	zero
    4bc8:	0000                	unimp
    4bca:	03e0                	addi	s0,sp,460
    4bcc:	030100d7          	.4byte	0x30100d7
    4bd0:	0902                	c.slli64	s2
    4bd2:	0028                	addi	a0,sp,8
    4bd4:	0301                	addi	t1,t1,0
    4bd6:	0902                	c.slli64	s2
    4bd8:	0004                	.2byte	0x4
    4bda:	0301                	addi	t1,t1,0
    4bdc:	0905                	addi	s2,s2,1
    4bde:	0004                	.2byte	0x4
    4be0:	0301                	addi	t1,t1,0
    4be2:	0901                	addi	s2,s2,0
    4be4:	0048                	addi	a0,sp,4
    4be6:	0301                	addi	t1,t1,0
    4be8:	0901                	addi	s2,s2,0
    4bea:	0004                	.2byte	0x4
    4bec:	0301                	addi	t1,t1,0
    4bee:	0905                	addi	s2,s2,1
    4bf0:	0004                	.2byte	0x4
    4bf2:	0901                	addi	s2,s2,0
    4bf4:	0004                	.2byte	0x4
    4bf6:	0100                	addi	s0,sp,128
    4bf8:	01              	Address 0x0000000000004bf8 is out of bounds.


Disassembly of section .debug_str:

00000000 <.debug_str>:
   0:	7071                	c.lui	zero,0xffffc
   2:	6972                	.2byte	0x6972
   4:	746e                	.2byte	0x746e
   6:	68730073          	.4byte	0x68730073
   a:	2074726f          	jal	tp,47a10 <tohost+0x27a08>
   e:	6e69                	lui	t3,0x1a
  10:	0074                	addi	a3,sp,12
  12:	5f70                	lw	a2,124(a4)
  14:	6572                	.2byte	0x6572
  16:	75700067          	jr	1879(zero) # 0 <_min_stack-0x2000>
  1a:	6374                	.2byte	0x6374
  1c:	6168                	.2byte	0x6168
  1e:	0072                	c.slli	zero,0x1c
  20:	6170                	.2byte	0x6170
  22:	6364                	.2byte	0x6364
  24:	6168                	.2byte	0x6168
  26:	0072                	c.slli	zero,0x1c
  28:	6175                	addi	sp,sp,368
  2a:	7472                	.2byte	0x7472
  2c:	735f 7465 635f      	.byte	0x5f, 0x73, 0x65, 0x74, 0x5f, 0x63
  32:	6766                	.2byte	0x6766
  34:	7000                	.2byte	0x7000
  36:	7475                	lui	s0,0xffffd
  38:	69770073          	.4byte	0x69770073
  3c:	7464                	.2byte	0x7464
  3e:	0068                	addi	a0,sp,12
  40:	706d6973          	csrrsi	s2,0x706,26
  44:	656c                	.2byte	0x656c
  46:	655f 6378 685f      	.byte	0x5f, 0x65, 0x78, 0x63, 0x5f, 0x68
  4c:	6e61                	lui	t3,0x18
  4e:	6c64                	.2byte	0x6c64
  50:	7265                	lui	tp,0xffff9
  52:	6c00                	.2byte	0x6c00
  54:	20676e6f          	jal	t3,7625a <tohost+0x56252>
  58:	6f6c                	.2byte	0x6f6c
  5a:	676e                	.2byte	0x676e
  5c:	6920                	.2byte	0x6920
  5e:	746e                	.2byte	0x746e
  60:	7200                	.2byte	0x7200
  62:	6d65                	lui	s10,0x19
  64:	3175                	jal	fffffd10 <fromhost+0x1ffefd00>
  66:	5f30                	lw	a2,120(a4)
  68:	6174                	.2byte	0x6174
  6a:	6c62                	.2byte	0x6c62
  6c:	0065                	c.nop	25
  6e:	6175                	addi	sp,sp,368
  70:	7472                	.2byte	0x7472
  72:	675f 7465 6863      	.byte	0x5f, 0x67, 0x65, 0x74, 0x63, 0x68
  78:	7261                	lui	tp,0xffff8
  7a:	7200                	.2byte	0x7200
  7c:	6d65                	lui	s10,0x19
  7e:	3175                	jal	fffffd2a <fromhost+0x1ffefd1a>
  80:	0030                	addi	a2,sp,8
  82:	656c                	.2byte	0x656c
  84:	6274                	.2byte	0x6274
  86:	7361                	lui	t1,0xffff8
  88:	0065                	c.nop	25
  8a:	69727473          	csrrci	s0,0x697,4
  8e:	676e                	.2byte	0x676e
  90:	7000                	.2byte	0x7000
  92:	6972                	.2byte	0x6972
  94:	746e                	.2byte	0x746e
  96:	0066                	c.slli	zero,0x19
  98:	7071                	c.lui	zero,0xffffc
  9a:	6972                	.2byte	0x6972
  9c:	746e                	.2byte	0x746e
  9e:	0069                	c.nop	26
  a0:	6170                	.2byte	0x6170
  a2:	6972                	.2byte	0x6972
  a4:	7974                	.2byte	0x7974
  a6:	7000                	.2byte	0x7000
  a8:	725f 6765 0031      	.byte	0x5f, 0x72, 0x65, 0x67, 0x31, 0x00
  ae:	5f70                	lw	a2,124(a4)
  b0:	6572                	.2byte	0x6572
  b2:	70003267          	.4byte	0x70003267
  b6:	725f 6765 0033      	.byte	0x5f, 0x72, 0x65, 0x67, 0x33, 0x00
  bc:	5f70                	lw	a2,124(a4)
  be:	6572                	.2byte	0x6572
  c0:	47003467          	.4byte	0x47003467
  c4:	554e                	lw	a0,240(sp)
  c6:	4320                	lw	s0,64(a4)
  c8:	3731                	jal	ffffffd4 <fromhost+0x1ffeffc4>
  ca:	3120                	.2byte	0x3120
  cc:	2e31                	jal	3e8 <_min_stack-0x1c18>
  ce:	2e32                	.2byte	0x2e32
  d0:	2030                	.2byte	0x2030
  d2:	6d2d                	lui	s10,0xb
  d4:	6261                	lui	tp,0x18
  d6:	3d69                	jal	ffffff70 <fromhost+0x1ffeff60>
  d8:	6c69                	lui	s8,0x1a
  da:	3370                	.2byte	0x3370
  dc:	2032                	.2byte	0x2032
  de:	6d2d                	lui	s10,0xb
  e0:	646f6d63          	bltu	t5,t1,73a <_min_stack-0x18c6>
  e4:	6c65                	lui	s8,0x19
  e6:	6d3d                	lui	s10,0xf
  e8:	6465                	lui	s0,0x19
  ea:	6e61                	lui	t3,0x18
  ec:	2079                	jal	17a <_min_stack-0x1e86>
  ee:	6d2d                	lui	s10,0xb
  f0:	7261                	lui	tp,0xffff8
  f2:	723d6863          	bltu	s10,gp,822 <_min_stack-0x17de>
  f6:	3376                	.2byte	0x3376
  f8:	6932                	.2byte	0x6932
  fa:	636d                	lui	t1,0x1b
  fc:	2d20                	.2byte	0x2d20
  fe:	4f2d2067          	.4byte	0x4f2d2067
 102:	662d2073          	csrs	0x662,s10
 106:	6976                	.2byte	0x6976
 108:	69626973          	csrrsi	s2,0x696,4
 10c:	696c                	.2byte	0x696c
 10e:	7974                	.2byte	0x7974
 110:	683d                	lui	a6,0xf
 112:	6469                	lui	s0,0x1a
 114:	6564                	.2byte	0x6564
 116:	206e                	.2byte	0x206e
 118:	662d                	lui	a2,0xb
 11a:	7266                	.2byte	0x7266
 11c:	6565                	lui	a0,0x19
 11e:	6e617473          	csrrci	s0,0x6e6,2
 122:	6964                	.2byte	0x6964
 124:	676e                	.2byte	0x676e
 126:	6c00                	.2byte	0x6c00
 128:	20676e6f          	jal	t3,7632e <tohost+0x56326>
 12c:	6f64                	.2byte	0x6f64
 12e:	6275                	lui	tp,0x1d
 130:	656c                	.2byte	0x656c
 132:	7500                	.2byte	0x7500
 134:	736e                	.2byte	0x736e
 136:	6769                	lui	a4,0x1a
 138:	656e                	.2byte	0x656e
 13a:	2064                	.2byte	0x2064
 13c:	72616863          	bltu	sp,t1,86c <_min_stack-0x1794>
 140:	7500                	.2byte	0x7500
 142:	7261                	lui	tp,0xffff8
 144:	5f74                	lw	a3,124(a4)
 146:	74696177          	.4byte	0x74696177
 14a:	745f 5f78 6f64      	.byte	0x5f, 0x74, 0x78, 0x5f, 0x64, 0x6f
 150:	656e                	.2byte	0x656e
 152:	6c00                	.2byte	0x6c00
 154:	20676e6f          	jal	t3,7635a <tohost+0x56352>
 158:	6f6c                	.2byte	0x6f6c
 15a:	676e                	.2byte	0x676e
 15c:	7520                	.2byte	0x7520
 15e:	736e                	.2byte	0x736e
 160:	6769                	lui	a4,0x1a
 162:	656e                	.2byte	0x656e
 164:	2064                	.2byte	0x2064
 166:	6e69                	lui	t3,0x1a
 168:	0074                	addi	a3,sp,12
 16a:	7071                	c.lui	zero,0xffffc
 16c:	6972                	.2byte	0x6972
 16e:	746e                	.2byte	0x746e
 170:	7500                	.2byte	0x7500
 172:	6e69                	lui	t3,0x1a
 174:	3174                	.2byte	0x3174
 176:	5f36                	lw	t5,108(sp)
 178:	0074                	addi	a3,sp,12
 17a:	6c70                	.2byte	0x6c70
 17c:	6369                	lui	t1,0x1a
 17e:	635f 6568 6b63      	.byte	0x5f, 0x63, 0x68, 0x65, 0x63, 0x6b
 184:	7300                	.2byte	0x7300
 186:	6f68                	.2byte	0x6f68
 188:	7472                	.2byte	0x7472
 18a:	7520                	.2byte	0x7520
 18c:	736e                	.2byte	0x736e
 18e:	6769                	lui	a4,0x1a
 190:	656e                	.2byte	0x656e
 192:	2064                	.2byte	0x2064
 194:	6e69                	lui	t3,0x1a
 196:	0074                	addi	a3,sp,12
 198:	7270                	.2byte	0x7270
 19a:	6e69                	lui	t3,0x1a
 19c:	5f74                	lw	a3,124(a4)
 19e:	7562                	.2byte	0x7562
 1a0:	0066                	c.slli	zero,0x19
 1a2:	7071                	c.lui	zero,0xffffc
 1a4:	6972                	.2byte	0x6972
 1a6:	746e                	.2byte	0x746e
 1a8:	72616863          	bltu	sp,t1,8d8 <_min_stack-0x1728>
 1ac:	5f00                	lw	s0,56(a4)
 1ae:	625f 6975 746c      	.byte	0x5f, 0x62, 0x75, 0x69, 0x6c, 0x74
 1b4:	6e69                	lui	t3,0x1a
 1b6:	765f 5f61 696c      	.byte	0x5f, 0x76, 0x61, 0x5f, 0x6c, 0x69
 1bc:	64007473          	csrrci	s0,0x640,0
 1c0:	7669                	lui	a2,0xffffa
 1c2:	3175                	jal	fffffe6e <fromhost+0x1ffefe5e>
 1c4:	0030                	addi	a2,sp,8
 1c6:	6175                	addi	sp,sp,368
 1c8:	7472                	.2byte	0x7472
 1ca:	735f 6e65 6364      	.byte	0x5f, 0x73, 0x65, 0x6e, 0x64, 0x63
 1d0:	6168                	.2byte	0x6168
 1d2:	0072                	c.slli	zero,0x1c
 1d4:	5f6b6c63          	bltu	s6,s6,7cc <_min_stack-0x1834>
 1d8:	6e756f63          	bltu	a0,t2,8d6 <_min_stack-0x172a>
 1dc:	6574                	.2byte	0x6574
 1de:	0072                	c.slli	zero,0x1c
 1e0:	5f5f 6e67 6375      	.byte	0x5f, 0x5f, 0x67, 0x6e, 0x75, 0x63
 1e6:	765f 5f61 696c      	.byte	0x5f, 0x76, 0x61, 0x5f, 0x6c, 0x69
 1ec:	65007473          	csrrci	s0,0x650,0
 1f0:	7478                	.2byte	0x7478
 1f2:	7265                	lui	tp,0xffff9
 1f4:	616e                	.2byte	0x616e
 1f6:	5f6c                	lw	a1,124(a4)
 1f8:	7269                	lui	tp,0xffffa
 1fa:	5f71                	li	t5,-4
 1fc:	6168                	.2byte	0x6168
 1fe:	646e                	.2byte	0x646e
 200:	656c                	.2byte	0x656c
 202:	0072                	c.slli	zero,0x1c
 204:	6175                	addi	sp,sp,368
 206:	7472                	.2byte	0x7472
 208:	735f 6e65 0064      	.byte	0x5f, 0x73, 0x65, 0x6e, 0x64, 0x00
 20e:	626d                	lui	tp,0x1b
 210:	695f786f          	jal	a6,f80a4 <tohost+0xd809c>
 214:	0064                	addi	s1,sp,12
 216:	6f66                	.2byte	0x6f66
 218:	6d72                	.2byte	0x6d72
 21a:	7461                	lui	s0,0xffff8
 21c:	7000                	.2byte	0x7000
 21e:	725f 6765 0035      	.byte	0x5f, 0x72, 0x65, 0x67, 0x35, 0x00
 224:	616d                	addi	sp,sp,240
 226:	6e69                	lui	t3,0x1a
 228:	6c00                	.2byte	0x6c00
 22a:	5f64616f          	jal	sp,46820 <tohost+0x26818>
 22e:	73756c63          	bltu	a0,s7,966 <_min_stack-0x169a>
 232:	6574                	.2byte	0x6574
 234:	5f72                	lw	t5,60(sp)
 236:	65646f63          	bltu	s0,s6,894 <_min_stack-0x176c>
 23a:	2f00                	.2byte	0x2f00
 23c:	61726373          	csrrsi	t1,0x617,4
 240:	6374                	.2byte	0x6374
 242:	3268                	.2byte	0x3268
 244:	69636d2f          	.4byte	0x69636d2f
 248:	6e61                	lui	t3,0x18
 24a:	2f69                	jal	9e4 <_min_stack-0x161c>
 24c:	6c61                	lui	s8,0x18
 24e:	72716173          	csrrsi	sp,0x727,2
 252:	322d                	jal	fffffb7c <fromhost+0x1ffefb6c>
 254:	2d6c6d2f          	.4byte	0x2d6c6d2f
 258:	2f696663          	bltu	s2,s6,544 <_min_stack-0x1abc>
 25c:	632d746f          	jal	s0,d788e <tohost+0xb7886>
 260:	756c                	.2byte	0x756c
 262:	72657473          	csrrci	s0,0x726,10
 266:	2f77732f          	.4byte	0x2f77732f
 26a:	6574                	.2byte	0x6574
 26c:	2f737473          	csrrci	s0,0x2f7,6
 270:	73756c63          	bltu	a0,s7,9a8 <_min_stack-0x1658>
 274:	6574                	.2byte	0x6574
 276:	2f72                	.2byte	0x2f72
 278:	6d6d6f63          	bltu	s10,s6,956 <_min_stack-0x16aa>
 27c:	632f6e6f          	jal	t3,f68ae <tohost+0xd68a6>
 280:	7472                	.2byte	0x7472
 282:	2e30                	.2byte	0x2e30
 284:	732f0053          	.4byte	0x732f0053
 288:	74617263          	bgeu	sp,t1,9cc <_min_stack-0x1634>
 28c:	2f326863          	bltu	tp,s3,57c <_min_stack-0x1a84>
 290:	636d                	lui	t1,0x1b
 292:	6169                	addi	sp,sp,208
 294:	696e                	.2byte	0x696e
 296:	736c612f          	.4byte	0x736c612f
 29a:	7161                	addi	sp,sp,-432
 29c:	2d72                	.2byte	0x2d72
 29e:	2f32                	.2byte	0x2f32
 2a0:	6c6d                	lui	s8,0x1b
 2a2:	632d                	lui	t1,0xb
 2a4:	6966                	.2byte	0x6966
 2a6:	2d746f2f          	.4byte	0x2d746f2f
 2aa:	73756c63          	bltu	a0,s7,9e2 <_min_stack-0x161e>
 2ae:	6574                	.2byte	0x6574
 2b0:	2f72                	.2byte	0x2f72
 2b2:	742f7773          	csrrci	a4,0x742,30
 2b6:	7365                	lui	t1,0xffff9
 2b8:	7374                	.2byte	0x7374
 2ba:	756c632f          	.4byte	0x756c632f
 2be:	72657473          	csrrci	s0,0x726,10
 2c2:	6c65682f          	.4byte	0x6c65682f
 2c6:	6f6c                	.2byte	0x6f6c
 2c8:	705f 6c75 0070      	.byte	0x5f, 0x70, 0x75, 0x6c, 0x70, 0x00
 2ce:	20554e47          	.4byte	0x20554e47
 2d2:	5341                	li	t1,-16
 2d4:	3220                	.2byte	0x3220
 2d6:	332e                	.2byte	0x332e
 2d8:	0038                	addi	a4,sp,8

Disassembly of section .debug_line_str:

00000000 <.debug_line_str>:
   0:	7263732f          	.4byte	0x7263732f
   4:	7461                	lui	s0,0xffff8
   6:	2f326863          	bltu	tp,s3,2f6 <_min_stack-0x1d0a>
   a:	636d                	lui	t1,0x1b
   c:	6169                	addi	sp,sp,208
   e:	696e                	.2byte	0x696e
  10:	736c612f          	.4byte	0x736c612f
  14:	7161                	addi	sp,sp,-432
  16:	2d72                	.2byte	0x2d72
  18:	2f32                	.2byte	0x2f32
  1a:	6c6d                	lui	s8,0x1b
  1c:	632d                	lui	t1,0xb
  1e:	6966                	.2byte	0x6966
  20:	2d746f2f          	.4byte	0x2d746f2f
  24:	73756c63          	bltu	a0,s7,75c <_min_stack-0x18a4>
  28:	6574                	.2byte	0x6574
  2a:	2f72                	.2byte	0x2f72
  2c:	742f7773          	csrrci	a4,0x742,30
  30:	7365                	lui	t1,0xffff9
  32:	7374                	.2byte	0x7374
  34:	756c632f          	.4byte	0x756c632f
  38:	72657473          	csrrci	s0,0x726,10
  3c:	6c65682f          	.4byte	0x6c65682f
  40:	6f6c                	.2byte	0x6f6c
  42:	705f 6c75 0070      	.byte	0x5f, 0x70, 0x75, 0x6c, 0x70, 0x00
  48:	7263732f          	.4byte	0x7263732f
  4c:	7461                	lui	s0,0xffff8
  4e:	2f326863          	bltu	tp,s3,33e <_min_stack-0x1cc2>
  52:	636d                	lui	t1,0x1b
  54:	6169                	addi	sp,sp,208
  56:	696e                	.2byte	0x696e
  58:	736c612f          	.4byte	0x736c612f
  5c:	7161                	addi	sp,sp,-432
  5e:	2d72                	.2byte	0x2d72
  60:	2f32                	.2byte	0x2f32
  62:	6c6d                	lui	s8,0x1b
  64:	632d                	lui	t1,0xb
  66:	6966                	.2byte	0x6966
  68:	2d746f2f          	.4byte	0x2d746f2f
  6c:	73756c63          	bltu	a0,s7,7a4 <_min_stack-0x185c>
  70:	6574                	.2byte	0x6574
  72:	2f72                	.2byte	0x2f72
  74:	742f7773          	csrrci	a4,0x742,30
  78:	7365                	lui	t1,0xffff9
  7a:	7374                	.2byte	0x7374
  7c:	756c632f          	.4byte	0x756c632f
  80:	72657473          	csrrci	s0,0x726,10
  84:	6d6f632f          	.4byte	0x6d6f632f
  88:	6f6d                	lui	t5,0x1b
  8a:	2f6e                	.2byte	0x2f6e
  8c:	7475                	lui	s0,0xffffd
  8e:	6c69                	lui	s8,0x1a
  90:	00632e73          	csrrs	t3,0x6,t1
  94:	7263732f          	.4byte	0x7263732f
  98:	7461                	lui	s0,0xffff8
  9a:	2f326863          	bltu	tp,s3,38a <_min_stack-0x1c76>
  9e:	636d                	lui	t1,0x1b
  a0:	6169                	addi	sp,sp,208
  a2:	696e                	.2byte	0x696e
  a4:	736c612f          	.4byte	0x736c612f
  a8:	7161                	addi	sp,sp,-432
  aa:	2d72                	.2byte	0x2d72
  ac:	2f32                	.2byte	0x2f32
  ae:	6c6d                	lui	s8,0x1b
  b0:	632d                	lui	t1,0xb
  b2:	6966                	.2byte	0x6966
  b4:	2d746f2f          	.4byte	0x2d746f2f
  b8:	73756c63          	bltu	a0,s7,7f0 <_min_stack-0x1810>
  bc:	6574                	.2byte	0x6574
  be:	2f72                	.2byte	0x2f72
  c0:	742f7773          	csrrci	a4,0x742,30
  c4:	7365                	lui	t1,0xffff9
  c6:	7374                	.2byte	0x7374
  c8:	756c632f          	.4byte	0x756c632f
  cc:	72657473          	csrrci	s0,0x726,10
  d0:	6d6f632f          	.4byte	0x6d6f632f
  d4:	6f6d                	lui	t5,0x1b
  d6:	006e                	c.slli	zero,0x1b
  d8:	7273752f          	.4byte	0x7273752f
  dc:	6361702f          	.4byte	0x6361702f
  e0:	69722f6b          	.4byte	0x69722f6b
  e4:	2d766373          	csrrsi	t1,0x2d7,12
  e8:	2e31                	jal	404 <_min_stack-0x1bfc>
  ea:	2d30                	.2byte	0x2d30
  ec:	2f66676b          	.4byte	0x2f66676b
  f0:	6972                	.2byte	0x6972
  f2:	36766373          	csrrsi	t1,0x367,12
  f6:	2d34                	.2byte	0x2d34
  f8:	2d636367          	.4byte	0x2d636367
  fc:	3131                	jal	fffffd08 <fromhost+0x1ffefcf8>
  fe:	322e                	.2byte	0x322e
 100:	302e                	.2byte	0x302e
 102:	62696c2f          	.4byte	0x62696c2f
 106:	6363672f          	.4byte	0x6363672f
 10a:	7369722f          	.4byte	0x7369722f
 10e:	34367663          	bgeu	a2,gp,45a <_min_stack-0x1ba6>
 112:	752d                	lui	a0,0xfffeb
 114:	6b6e                	.2byte	0x6b6e
 116:	6f6e                	.2byte	0x6f6e
 118:	652d6e77          	.4byte	0x652d6e77
 11c:	666c                	.2byte	0x666c
 11e:	2e31312f          	.4byte	0x2e31312f
 122:	2e32                	.2byte	0x2e32
 124:	2f30                	.2byte	0x2f30
 126:	6e69                	lui	t3,0x1a
 128:	64756c63          	bltu	a0,t2,780 <_min_stack-0x1880>
 12c:	0065                	c.nop	25
 12e:	61647473          	csrrci	s0,0x616,8
 132:	6772                	.2byte	0x6772
 134:	682e                	.2byte	0x682e
 136:	7300                	.2byte	0x7300
 138:	6474                	.2byte	0x6474
 13a:	6e69                	lui	t3,0x1a
 13c:	2d74                	.2byte	0x2d74
 13e:	2e636367          	.4byte	0x2e636367
 142:	0068                	addi	a0,sp,12
 144:	6568                	.2byte	0x6568
 146:	6c6c                	.2byte	0x6c6c
 148:	75705f6f          	jal	t5,609e <_min_stack+0x409e>
 14c:	706c                	.2byte	0x706c
 14e:	632e                	.2byte	0x632e
 150:	6300                	.2byte	0x6300
 152:	756c                	.2byte	0x756c
 154:	72657473          	csrrci	s0,0x726,10
 158:	635f 646f 2e65      	.byte	0x5f, 0x63, 0x6f, 0x64, 0x65, 0x2e
 15e:	0068                	addi	a0,sp,12
 160:	30747263          	bgeu	s0,t2,464 <_min_stack-0x1b9c>
 164:	532e                	lw	t1,232(sp)
	...

Disassembly of section .comment:

00000000 <.comment>:
   0:	3a434347          	.4byte	0x3a434347
   4:	2820                	.2byte	0x2820
   6:	736f7263          	bgeu	t5,s6,72a <_min_stack-0x18d6>
   a:	6f6f7473          	csrrci	s0,0x6f6,30
   e:	2d6c                	.2byte	0x2d6c
  10:	474e                	lw	a4,208(sp)
  12:	3120                	.2byte	0x3120
  14:	322e                	.2byte	0x322e
  16:	2e35                	jal	352 <_min_stack-0x1cae>
  18:	5f30                	lw	a2,120(a4)
  1a:	6372                	.2byte	0x6372
  1c:	2931                	jal	438 <_min_stack-0x1bc8>
  1e:	3120                	.2byte	0x3120
  20:	2e31                	jal	33c <_min_stack-0x1cc4>
  22:	2e32                	.2byte	0x2e32
  24:	0030                	addi	a2,sp,8

Disassembly of section .riscv.attributes:

00000000 <.riscv.attributes>:
   0:	3e41                	jal	fffffb90 <fromhost+0x1ffefb80>
   2:	0000                	unimp
   4:	7200                	.2byte	0x7200
   6:	7369                	lui	t1,0xffffa
   8:	01007663          	bgeu	zero,a6,14 <_min_stack-0x1fec>
   c:	0034                	addi	a3,sp,8
   e:	0000                	unimp
  10:	1004                	addi	s1,sp,32
  12:	7205                	lui	tp,0xfffe1
  14:	3376                	.2byte	0x3376
  16:	6932                	.2byte	0x6932
  18:	7032                	.2byte	0x7032
  1a:	5f31                	li	t5,-20
  1c:	326d                	jal	fffff9c6 <fromhost+0x1ffef9b6>
  1e:	3070                	.2byte	0x3070
  20:	635f 7032 5f30      	.byte	0x5f, 0x63, 0x32, 0x70, 0x30, 0x5f
  26:	697a                	.2byte	0x697a
  28:	32727363          	bgeu	tp,t2,34e <_min_stack-0x1cb2>
  2c:	3070                	.2byte	0x3070
  2e:	7a5f 6669 6e65      	.byte	0x5f, 0x7a, 0x69, 0x66, 0x65, 0x6e
  34:	32696563          	bltu	s2,t1,35e <_min_stack-0x1ca2>
  38:	3070                	.2byte	0x3070
  3a:	0800                	addi	s0,sp,16
  3c:	0a01                	addi	s4,s4,0
  3e:	0b              	Address 0x000000000000003e is out of bounds.


Disassembly of section .debug_frame:

00000000 <.debug_frame>:
   0:	000c                	.2byte	0xc
   2:	0000                	unimp
   4:	ffff                	.2byte	0xffff
   6:	ffff                	.2byte	0xffff
   8:	7c010003          	lb	zero,1984(sp)
   c:	0d01                	addi	s10,s10,0 # b000 <_stack_len+0x3000>
   e:	0002                	c.slli64	zero
  10:	000c                	.2byte	0xc
  12:	0000                	unimp
  14:	0000                	unimp
  16:	0000                	unimp
  18:	0084                	addi	s1,sp,64
  1a:	e000                	.2byte	0xe000
  1c:	002e                	c.slli	zero,0xb
  1e:	0000                	unimp
  20:	000c                	.2byte	0xc
  22:	0000                	unimp
  24:	0000                	unimp
  26:	0000                	unimp
  28:	00b2                	slli	ra,ra,0xc
  2a:	e000                	.2byte	0xe000
  2c:	0026                	c.slli	zero,0x9
  2e:	0000                	unimp
  30:	000c                	.2byte	0xc
  32:	0000                	unimp
  34:	0000                	unimp
  36:	0000                	unimp
  38:	00d8                	addi	a4,sp,68
  3a:	e000                	.2byte	0xe000
  3c:	0012                	c.slli	zero,0x4
  3e:	0000                	unimp
  40:	000c                	.2byte	0xc
  42:	0000                	unimp
  44:	0000                	unimp
  46:	0000                	unimp
  48:	00ea                	slli	ra,ra,0x1a
  4a:	e000                	.2byte	0xe000
  4c:	0010                	.2byte	0x10
  4e:	0000                	unimp
  50:	0030                	addi	a2,sp,8
  52:	0000                	unimp
  54:	0000                	unimp
  56:	0000                	unimp
  58:	00fa                	slli	ra,ra,0x1e
  5a:	e000                	.2byte	0xe000
  5c:	00a6                	slli	ra,ra,0x9
  5e:	0000                	unimp
  60:	0e42                	slli	t3,t3,0x10
  62:	4c20                	lw	s0,88(s0)
  64:	0288                	addi	a0,sp,320
  66:	0389                	addi	t2,t2,2
  68:	0694                	addi	a3,sp,832
  6a:	0181                	addi	gp,gp,0
  6c:	0492                	slli	s1,s1,0x4
  6e:	82020593          	addi	a1,tp,-2016 # fffe0820 <fromhost+0x1ffd0810>
  72:	c10a                	sw	sp,128(sp)
  74:	c842                	sw	a6,16(sp)
  76:	c942                	sw	a6,144(sp)
  78:	d242                	sw	a6,36(sp)
  7a:	d342                	sw	a6,164(sp)
  7c:	d442                	sw	a6,40(sp)
  7e:	0e42                	slli	t3,t3,0x10
  80:	4200                	lw	s0,0(a2)
  82:	0024000b          	.4byte	0x24000b
  86:	0000                	unimp
  88:	0000                	unimp
  8a:	0000                	unimp
  8c:	01a0                	addi	s0,sp,200
  8e:	e000                	.2byte	0xe000
  90:	0102                	c.slli64	sp
  92:	0000                	unimp
  94:	0e42                	slli	t3,t3,0x10
  96:	4640                	lw	s0,12(a2)
  98:	0389                	addi	t2,t2,2
  9a:	0181                	addi	gp,gp,0
  9c:	0288                	addi	a0,sp,320
  9e:	0a58                	addi	a4,sp,276
  a0:	42c1                	li	t0,16
  a2:	42c8                	lw	a0,4(a3)
  a4:	42c9                	li	t0,18
  a6:	000e                	c.slli	zero,0x3
  a8:	0b42                	slli	s6,s6,0x10
  aa:	0000                	unimp
  ac:	000c                	.2byte	0xc
  ae:	0000                	unimp
  b0:	0000                	unimp
  b2:	0000                	unimp
  b4:	02a2                	slli	t0,t0,0x8
  b6:	e000                	.2byte	0xe000
  b8:	000e                	c.slli	zero,0x3
  ba:	0000                	unimp
  bc:	001c                	.2byte	0x1c
  be:	0000                	unimp
  c0:	0000                	unimp
  c2:	0000                	unimp
  c4:	02b0                	addi	a2,sp,328
  c6:	e000                	.2byte	0xe000
  c8:	0018                	.2byte	0x18
  ca:	0000                	unimp
  cc:	0e42                	slli	t3,t3,0x10
  ce:	4210                	lw	a2,0(a2)
  d0:	0288                	addi	a0,sp,320
  d2:	8148                	.2byte	0x8148
  d4:	4401                	li	s0,0
  d6:	44c1                	li	s1,16
  d8:	42c8                	lw	a0,4(a3)
  da:	000e                	c.slli	zero,0x3
  dc:	0040                	addi	s0,sp,4
  de:	0000                	unimp
  e0:	0000                	unimp
  e2:	0000                	unimp
  e4:	02c8                	addi	a0,sp,324
  e6:	e000                	.2byte	0xe000
  e8:	0158                	addi	a4,sp,132
  ea:	0000                	unimp
  ec:	0e42                	slli	t3,t3,0x10
  ee:	4260                	lw	s0,68(a2)
  f0:	0a88                	addi	a0,sp,336
  f2:	8954                	.2byte	0x8954
  f4:	930c920b          	.4byte	0x930c920b
  f8:	940d                	srai	s0,s0,0x23
  fa:	950e                	add	a0,a0,gp
  fc:	9710960f          	.4byte	0x9710960f
 100:	8111                	srli	a0,a0,0x4
 102:	9809                	andi	s0,s0,-30
 104:	7212                	.2byte	0x7212
 106:	c10a                	sw	sp,128(sp)
 108:	c842                	sw	a6,16(sp)
 10a:	c942                	sw	a6,144(sp)
 10c:	d242                	sw	a6,36(sp)
 10e:	d342                	sw	a6,164(sp)
 110:	d442                	sw	a6,40(sp)
 112:	d542                	sw	a6,168(sp)
 114:	d642                	sw	a6,44(sp)
 116:	d842                	sw	a6,48(sp)
 118:	d744                	sw	s1,44(a4)
 11a:	0e42                	slli	t3,t3,0x10
 11c:	4200                	lw	s0,0(a2)
 11e:	000c000b          	.4byte	0xc000b
 122:	0000                	unimp
 124:	0000                	unimp
 126:	0000                	unimp
 128:	0420                	addi	s0,sp,520
 12a:	e000                	.2byte	0xe000
 12c:	000a                	c.slli	zero,0x2
 12e:	0000                	unimp
 130:	0024                	addi	s1,sp,8
 132:	0000                	unimp
 134:	0000                	unimp
 136:	0000                	unimp
 138:	042a                	slli	s0,s0,0xa
 13a:	e000                	.2byte	0xe000
 13c:	002c                	addi	a1,sp,8
 13e:	0000                	unimp
 140:	0e42                	slli	t3,t3,0x10
 142:	4610                	lw	a2,8(a2)
 144:	0288                	addi	a0,sp,320
 146:	0389                	addi	t2,t2,2
 148:	0181                	addi	gp,gp,0
 14a:	0a54                	addi	a3,sp,276
 14c:	44c1                	li	s1,16
 14e:	42c8                	lw	a0,4(a3)
 150:	42c9                	li	t0,18
 152:	000e                	c.slli	zero,0x3
 154:	0b42                	slli	s6,s6,0x10
 156:	0000                	unimp
 158:	0030                	addi	a2,sp,8
 15a:	0000                	unimp
 15c:	0000                	unimp
 15e:	0000                	unimp
 160:	0456                	slli	s0,s0,0x15
 162:	e000                	.2byte	0xe000
 164:	006c                	addi	a1,sp,12
 166:	0000                	unimp
 168:	0e42                	slli	t3,t3,0x10
 16a:	4e20                	lw	s0,88(a2)
 16c:	058e                	slli	a1,a1,0x3
 16e:	018a068f          	.4byte	0x18a068f
 172:	038c028b          	.4byte	0x38c028b
 176:	048d                	addi	s1,s1,3 # 3 <_min_stack-0x1ffd>
 178:	0790                	addi	a2,sp,960
 17a:	4a02                	lw	s4,0(sp)
 17c:	42ca                	lw	t0,144(sp)
 17e:	42cc42cb          	.4byte	0x42cc42cb
 182:	42cd                	li	t0,19
 184:	42ce                	lw	t0,208(sp)
 186:	42d042cf          	.4byte	0x42d042cf
 18a:	000e                	c.slli	zero,0x3
 18c:	000c                	.2byte	0xc
 18e:	0000                	unimp
 190:	ffff                	.2byte	0xffff
 192:	ffff                	.2byte	0xffff
 194:	7c010003          	lb	zero,1984(sp)
 198:	0d01                	addi	s10,s10,0
 19a:	0002                	c.slli64	zero
 19c:	000c                	.2byte	0xc
 19e:	0000                	unimp
 1a0:	018c                	addi	a1,sp,192
 1a2:	0000                	unimp
 1a4:	04c2                	slli	s1,s1,0x10
 1a6:	e000                	.2byte	0xe000
 1a8:	1eac                	addi	a1,sp,888
 1aa:	0000                	unimp
 1ac:	000c                	.2byte	0xc
 1ae:	0000                	unimp
 1b0:	018c                	addi	a1,sp,192
 1b2:	0000                	unimp
 1b4:	23f2                	.2byte	0x23f2
 1b6:	e000                	.2byte	0xe000
 1b8:	0004                	.2byte	0x4
	...
