
preboot_code.elf:     file format elf32-littleriscv
architecture: riscv:rv32, flags 0x00000112:
EXEC_P, HAS_SYMS, D_PAGED
start address 0xe0000080

Sections:
Idx Name          Size      VMA       LMA       File off  Algn
  0 .vectors      00000084  e0000000  e0000000  00001000  2**0
                  CONTENTS, ALLOC, LOAD, READONLY, CODE
  1 .text         00000508  e0000084  e0000084  00001084  2**1
                  CONTENTS, ALLOC, LOAD, READONLY, CODE
  2 .rodata       000065a0  e000058c  e000058c  0000158c  2**2
                  CONTENTS, ALLOC, LOAD, READONLY, DATA
  3 .data         00000010  e0006b2c  e0006b2c  00007b2c  2**2
                  CONTENTS, ALLOC, LOAD, DATA
  4 .bss          00000000  e0006b3c  e0006b3c  00007b3c  2**0
                  ALLOC
  5 .logs.fields  00000000  e0006b3c  e0006b3c  00007b3c  2**0
                  CONTENTS
  6 .stack        00002000  e0008000  e0008000  00008000  2**0
                  ALLOC
  7 .debug_frame  00000290  00000000  00000000  00007b3c  2**2
                  CONTENTS, READONLY, DEBUGGING
  8 .debug_info   00000b7f  00000000  00000000  00007dcc  2**0
                  CONTENTS, READONLY, DEBUGGING
  9 .debug_abbrev 00000458  00000000  00000000  0000894b  2**0
                  CONTENTS, READONLY, DEBUGGING
 10 .debug_loc    00000ac3  00000000  00000000  00008da3  2**0
                  CONTENTS, READONLY, DEBUGGING
 11 .debug_aranges 00000068  00000000  00000000  00009868  2**3
                  CONTENTS, READONLY, DEBUGGING
 12 .debug_ranges 00000168  00000000  00000000  000098d0  2**3
                  CONTENTS, READONLY, DEBUGGING
 13 .debug_line   000008f1  00000000  00000000  00009a38  2**0
                  CONTENTS, READONLY, DEBUGGING
 14 .debug_str    0000035f  00000000  00000000  0000a329  2**0
                  CONTENTS, READONLY, DEBUGGING
 15 .comment      0000001a  00000000  00000000  0000a688  2**0
                  CONTENTS, READONLY
 16 .Pulp_Chip.Info 0000004e  00000000  00000000  0000a6a2  2**0
                  CONTENTS, READONLY

Disassembly of section .vectors:

e0000000 <_vectors_start>:
  .option norvc;
  
  .org 0x00
  .rept 10
  jal x0, default_exc_handler
  .endr
e0000000:	4be0006f          	j	e00004be <default_exc_handler>
e0000004:	4ba0006f          	j	e00004be <default_exc_handler>
e0000008:	4b60006f          	j	e00004be <default_exc_handler>
e000000c:	4b20006f          	j	e00004be <default_exc_handler>
e0000010:	4ae0006f          	j	e00004be <default_exc_handler>
e0000014:	4aa0006f          	j	e00004be <default_exc_handler>
e0000018:	4a60006f          	j	e00004be <default_exc_handler>
e000001c:	4a20006f          	j	e00004be <default_exc_handler>
e0000020:	49e0006f          	j	e00004be <default_exc_handler>
e0000024:	49a0006f          	j	e00004be <default_exc_handler>
  
  jal x0, default_exc_handler
e0000028:	4960006f          	j	e00004be <default_exc_handler>
  
  jal x0, external_irq_handler
e000002c:	4260006f          	j	e0000452 <external_irq_handler>

  .org 0x30
  .rept 18
  jal x0, default_exc_handler
  .endr
e0000030:	48e0006f          	j	e00004be <default_exc_handler>
e0000034:	48a0006f          	j	e00004be <default_exc_handler>
e0000038:	4860006f          	j	e00004be <default_exc_handler>
e000003c:	4820006f          	j	e00004be <default_exc_handler>
e0000040:	47e0006f          	j	e00004be <default_exc_handler>
e0000044:	47a0006f          	j	e00004be <default_exc_handler>
e0000048:	4760006f          	j	e00004be <default_exc_handler>
e000004c:	4720006f          	j	e00004be <default_exc_handler>
e0000050:	46e0006f          	j	e00004be <default_exc_handler>
e0000054:	46a0006f          	j	e00004be <default_exc_handler>
e0000058:	4660006f          	j	e00004be <default_exc_handler>
e000005c:	4620006f          	j	e00004be <default_exc_handler>
e0000060:	45e0006f          	j	e00004be <default_exc_handler>
e0000064:	45a0006f          	j	e00004be <default_exc_handler>
e0000068:	4560006f          	j	e00004be <default_exc_handler>
e000006c:	4520006f          	j	e00004be <default_exc_handler>
e0000070:	44e0006f          	j	e00004be <default_exc_handler>
e0000074:	44a0006f          	j	e00004be <default_exc_handler>
  jal x0, default_exc_handler
e0000078:	4460006f          	j	e00004be <default_exc_handler>
  jal x0, default_exc_handler
e000007c:	4420006f          	j	e00004be <default_exc_handler>


  // reset vector
  .org 0x80
  jal x0, reset_handler
e0000080:	4420006f          	j	e00004c2 <reset_handler>

Disassembly of section .text:

e0000084 <uart_set_cfg>:
}


void uart_set_cfg(int parity, uint16_t clk_counter) {
  unsigned int i;
  *(volatile unsigned int*)(UART_REG_LCR) = 0x83; //sets 8N1 and set DLAB to 1
e0000084:	400007b7          	lui	a5,0x40000
e0000088:	08300713          	li	a4,131
e000008c:	c7d8                	sw	a4,12(a5)
  *(volatile unsigned int*)(UART_REG_DLM) = (clk_counter >> 8) & 0xFF;
e000008e:	0085d713          	srli	a4,a1,0x8
e0000092:	c3d8                	sw	a4,4(a5)
  *(volatile unsigned int*)(UART_REG_DLL) =  clk_counter       & 0xFF;
e0000094:	0ff5f593          	andi	a1,a1,255
e0000098:	c38c                	sw	a1,0(a5)
  *(volatile unsigned int*)(UART_REG_FCR) = 0xA7; //enables 16byte FIFO and clear FIFOs
e000009a:	0a700713          	li	a4,167
e000009e:	c798                	sw	a4,8(a5)
  *(volatile unsigned int*)(UART_REG_LCR) = 0x03; //sets 8N1 and set DLAB to 0
e00000a0:	470d                	li	a4,3
e00000a2:	c7d8                	sw	a4,12(a5)

  *(volatile unsigned int*)(UART_REG_IER) = ((*(volatile unsigned int*)(UART_REG_IER)) & 0xF0) | 0x02; // set IER (interrupt enable register) on UART
e00000a4:	43d8                	lw	a4,4(a5)
e00000a6:	0f077713          	andi	a4,a4,240
e00000aa:	00276713          	ori	a4,a4,2
e00000ae:	c3d8                	sw	a4,4(a5)
}
e00000b0:	8082                	ret

e00000b2 <uart_send>:

  while(len > 0) {
    // process this in batches of 16 bytes to actually use the FIFO in the UART

    // wait until there is space in the fifo
    while( (*(volatile unsigned int*)(UART_REG_LSR) & 0x20) == 0);
e00000b2:	40000737          	lui	a4,0x40000
  while(len > 0) {
e00000b6:	e191                	bnez	a1,e00000ba <uart_send+0x8>
      *(volatile unsigned int*)(UART_REG_THR) = *str++;

      len--;
    }
  }
}
e00000b8:	8082                	ret
    while( (*(volatile unsigned int*)(UART_REG_LSR) & 0x20) == 0);
e00000ba:	4b5c                	lw	a5,20(a4)
e00000bc:	0207f793          	andi	a5,a5,32
e00000c0:	dfed                	beqz	a5,e00000ba <uart_send+0x8>
e00000c2:	04050793          	addi	a5,a0,64
      *(volatile unsigned int*)(UART_REG_THR) = *str++;
e00000c6:	0505                	addi	a0,a0,1
e00000c8:	fff54683          	lbu	a3,-1(a0)
      len--;
e00000cc:	15fd                	addi	a1,a1,-1
      *(volatile unsigned int*)(UART_REG_THR) = *str++;
e00000ce:	c314                	sw	a3,0(a4)
    for(i = 0; (i < UART_FIFO_DEPTH) && (len > 0); i++) {
e00000d0:	fef503e3          	beq	a0,a5,e00000b6 <uart_send+0x4>
e00000d4:	f9ed                	bnez	a1,e00000c6 <uart_send+0x14>
e00000d6:	8082                	ret

e00000d8 <uart_getchar>:

char uart_getchar() {
  while((*((volatile int*)UART_REG_LSR) & 0x1) != 0x1);
e00000d8:	40000737          	lui	a4,0x40000
e00000dc:	4b5c                	lw	a5,20(a4)
e00000de:	8b85                	andi	a5,a5,1
e00000e0:	dff5                	beqz	a5,e00000dc <uart_getchar+0x4>

  return *(volatile int*)UART_REG_RBR;
e00000e2:	4308                	lw	a0,0(a4)
}
e00000e4:	0ff57513          	andi	a0,a0,255
e00000e8:	8082                	ret

e00000ea <uart_sendchar>:

void uart_sendchar(const char c) {
  // wait until there is space in the fifo
  while( (*(volatile unsigned int*)(UART_REG_LSR) & 0x20) == 0);
e00000ea:	40000737          	lui	a4,0x40000
e00000ee:	4b5c                	lw	a5,20(a4)
e00000f0:	0207f793          	andi	a5,a5,32
e00000f4:	dfed                	beqz	a5,e00000ee <uart_sendchar+0x4>

  // load FIFO
  *(volatile unsigned int*)(UART_REG_THR) = c;
e00000f6:	c308                	sw	a0,0(a4)
}
e00000f8:	8082                	ret

e00000fa <qprints.constprop.2>:
  }
  else
    putchar((char)c);
}

static int qprints(char **out, const char *string, int width, int pad)
e00000fa:	1101                	addi	sp,sp,-32
e00000fc:	cc22                	sw	s0,24(sp)
e00000fe:	ca26                	sw	s1,20(sp)
e0000100:	c84a                	sw	s2,16(sp)
e0000102:	ce06                	sw	ra,28(sp)
e0000104:	c64e                	sw	s3,12(sp)
e0000106:	c452                	sw	s4,8(sp)
e0000108:	84aa                	mv	s1,a0
e000010a:	842e                	mv	s0,a1
{
  register int pc = 0, padchar = ' ';
e000010c:	02000913          	li	s2,32

  if (width > 0) {
e0000110:	02b05463          	blez	a1,e0000138 <qprints.constprop.2+0x3e>
e0000114:	87aa                	mv	a5,a0
e0000116:	a011                	j	e000011a <qprints.constprop.2+0x20>
    register int len = 0;
    register const char *ptr;
    for (ptr = string; *ptr; ++ptr) ++len;
e0000118:	0785                	addi	a5,a5,1
e000011a:	0007c683          	lbu	a3,0(a5) # 40000000 <tohost+0x3ffdfff8>
e000011e:	40978733          	sub	a4,a5,s1
e0000122:	fafd                	bnez	a3,e0000118 <qprints.constprop.2+0x1e>
    if (len >= width) width = 0;
e0000124:	04875663          	ble	s0,a4,e0000170 <qprints.constprop.2+0x76>
    else width -= len;
e0000128:	8c19                	sub	s0,s0,a4
    if (pad & PAD_ZERO) padchar = '0';
e000012a:	00267793          	andi	a5,a2,2
  register int pc = 0, padchar = ' ';
e000012e:	02000913          	li	s2,32
    if (pad & PAD_ZERO) padchar = '0';
e0000132:	c399                	beqz	a5,e0000138 <qprints.constprop.2+0x3e>
e0000134:	03000913          	li	s2,48
  }
  if (!(pad & PAD_RIGHT)) {
e0000138:	8a05                	andi	a2,a2,1
e000013a:	ca21                	beqz	a2,e000018a <qprints.constprop.2+0x90>
  register int pc = 0, padchar = ' ';
e000013c:	4781                	li	a5,0
e000013e:	409789b3          	sub	s3,a5,s1
    for ( ; width > 0; --width) {
      qprintchar (out, padchar);
      ++pc;
    }
  }
  for ( ; *string ; ++string) {
e0000142:	0004c503          	lbu	a0,0(s1)
e0000146:	01348a33          	add	s4,s1,s3
e000014a:	e521                	bnez	a0,e0000192 <qprints.constprop.2+0x98>
e000014c:	84a2                	mv	s1,s0
  uart_sendchar(s);
e000014e:	0ff97913          	andi	s2,s2,255
    qprintchar (out, *string);
    ++pc;
  }
  for ( ; width > 0; --width) {
e0000152:	04904363          	bgtz	s1,e0000198 <qprints.constprop.2+0x9e>
    qprintchar (out, padchar);
    ++pc;
  }

  return pc;
e0000156:	00045363          	bgez	s0,e000015c <qprints.constprop.2+0x62>
e000015a:	4401                	li	s0,0
}
e000015c:	01440533          	add	a0,s0,s4
e0000160:	40f2                	lw	ra,28(sp)
e0000162:	4462                	lw	s0,24(sp)
e0000164:	44d2                	lw	s1,20(sp)
e0000166:	4942                	lw	s2,16(sp)
e0000168:	49b2                	lw	s3,12(sp)
e000016a:	4a22                	lw	s4,8(sp)
e000016c:	6105                	addi	sp,sp,32
e000016e:	8082                	ret
    if (len >= width) width = 0;
e0000170:	4401                	li	s0,0
e0000172:	bf65                	j	e000012a <qprints.constprop.2+0x30>
  uart_sendchar(s);
e0000174:	8552                	mv	a0,s4
e0000176:	3f95                	jal	e00000ea <uart_sendchar>
    for ( ; width > 0; --width) {
e0000178:	19fd                	addi	s3,s3,-1
e000017a:	ff304de3          	bgtz	s3,e0000174 <qprints.constprop.2+0x7a>
e000017e:	87a2                	mv	a5,s0
e0000180:	00045363          	bgez	s0,e0000186 <qprints.constprop.2+0x8c>
e0000184:	4781                	li	a5,0
e0000186:	8c1d                	sub	s0,s0,a5
e0000188:	bf5d                	j	e000013e <qprints.constprop.2+0x44>
  if (!(pad & PAD_RIGHT)) {
e000018a:	89a2                	mv	s3,s0
  uart_sendchar(s);
e000018c:	0ff97a13          	andi	s4,s2,255
e0000190:	b7ed                	j	e000017a <qprints.constprop.2+0x80>
e0000192:	3fa1                	jal	e00000ea <uart_sendchar>
  for ( ; *string ; ++string) {
e0000194:	0485                	addi	s1,s1,1
e0000196:	b775                	j	e0000142 <qprints.constprop.2+0x48>
  uart_sendchar(s);
e0000198:	854a                	mv	a0,s2
e000019a:	3f81                	jal	e00000ea <uart_sendchar>
  for ( ; width > 0; --width) {
e000019c:	14fd                	addi	s1,s1,-1
e000019e:	bf55                	j	e0000152 <qprints.constprop.2+0x58>

e00001a0 <qprinti.constprop.1>:

static int qprinti(char **out, int i, int b, int sg, int width, int pad, char letbase)
e00001a0:	7139                	addi	sp,sp,-64
e00001a2:	da26                	sw	s1,52(sp)
e00001a4:	de06                	sw	ra,60(sp)
e00001a6:	dc22                	sw	s0,56(sp)
e00001a8:	84b2                	mv	s1,a2
e00001aa:	863a                	mv	a2,a4
  char print_buf[PRINT_BUF_LEN];
  register char *s;
  register int neg = 0, pc = 0;
  unsigned int t,u = i;

  if (i == 0)
e00001ac:	ed09                	bnez	a0,e00001c6 <qprinti.constprop.1+0x26>
  {
    print_buf[0] = '0';
e00001ae:	03000793          	li	a5,48
    print_buf[1] = '\0';
    return qprints (out, print_buf, width, pad);
e00001b2:	85b6                	mv	a1,a3
e00001b4:	0808                	addi	a0,sp,16
    print_buf[0] = '0';
e00001b6:	00f11823          	sh	a5,16(sp)
    return qprints (out, print_buf, width, pad);
e00001ba:	3781                	jal	e00000fa <qprints.constprop.2>
    {
      *--s = '-';
    }
  }
  return pc + qprints (out, s, width, pad);
}
e00001bc:	50f2                	lw	ra,60(sp)
e00001be:	5462                	lw	s0,56(sp)
e00001c0:	54d2                	lw	s1,52(sp)
e00001c2:	6121                	addi	sp,sp,64
e00001c4:	8082                	ret
  if (sg && b == 10 && i < 0)
e00001c6:	c881                	beqz	s1,e00001d6 <qprinti.constprop.1+0x36>
e00001c8:	4729                	li	a4,10
e00001ca:	06e59d63          	bne	a1,a4,e0000244 <qprinti.constprop.1+0xa4>
e00001ce:	06055b63          	bgez	a0,e0000244 <qprinti.constprop.1+0xa4>
    u = -i;
e00001d2:	40a00533          	neg	a0,a0
  *s = '\0';
e00001d6:	020107a3          	sb	zero,47(sp)
  if(b == 16) {
e00001da:	4741                	li	a4,16
  s = print_buf + PRINT_BUF_LEN-1;
e00001dc:	02f10413          	addi	s0,sp,47
  if(b == 16) {
e00001e0:	0ae58263          	beq	a1,a4,e0000284 <qprinti.constprop.1+0xe4>
  n = (0x19999999 * n + (n >> 1) + (n >> 3)) >> 28;
e00001e4:	1999a737          	lui	a4,0x1999a
  return remu10_table[n];
e00001e8:	00007317          	auipc	t1,0x7
e00001ec:	94430313          	addi	t1,t1,-1724 # e0006b2c <remu10_table>
  n = (0x19999999 * n + (n >> 1) + (n >> 3)) >> 28;
e00001f0:	99970713          	addi	a4,a4,-1639 # 19999999 <tohost+0x19979991>
  r = n - q * 10;
e00001f4:	4e29                	li	t3,10
    while (u) {
e00001f6:	c52d                	beqz	a0,e0000260 <qprinti.constprop.1+0xc0>
  n = (0x19999999 * n + (n >> 1) + (n >> 3)) >> 28;
e00001f8:	02e50833          	mul	a6,a0,a4
e00001fc:	00155893          	srli	a7,a0,0x1
e0000200:	00355793          	srli	a5,a0,0x3
      *--s = remu10(u) + '0';
e0000204:	147d                	addi	s0,s0,-1
  n = (0x19999999 * n + (n >> 1) + (n >> 3)) >> 28;
e0000206:	9846                	add	a6,a6,a7
e0000208:	983e                	add	a6,a6,a5
e000020a:	01c85813          	srli	a6,a6,0x1c
  return remu10_table[n];
e000020e:	981a                	add	a6,a6,t1
      *--s = remu10(u) + '0';
e0000210:	00084583          	lbu	a1,0(a6)
  q = (n >> 1) + (n >> 2);
e0000214:	00255793          	srli	a5,a0,0x2
e0000218:	97c6                	add	a5,a5,a7
      *--s = remu10(u) + '0';
e000021a:	03058593          	addi	a1,a1,48
e000021e:	00b40023          	sb	a1,0(s0)
  q = q + (q >> 4);
e0000222:	0047d593          	srli	a1,a5,0x4
e0000226:	97ae                	add	a5,a5,a1
  q = q + (q >> 8);
e0000228:	0087d593          	srli	a1,a5,0x8
e000022c:	97ae                	add	a5,a5,a1
  q = q + (q >> 16);
e000022e:	0107d593          	srli	a1,a5,0x10
e0000232:	97ae                	add	a5,a5,a1
  q = q >> 3;
e0000234:	838d                	srli	a5,a5,0x3
  r = n - q * 10;
e0000236:	03c785b3          	mul	a1,a5,t3
  return q + ((r + 6) >> 4);
e000023a:	0519                	addi	a0,a0,6
e000023c:	8d0d                	sub	a0,a0,a1
e000023e:	8111                	srli	a0,a0,0x4
e0000240:	953e                	add	a0,a0,a5
e0000242:	bf55                	j	e00001f6 <qprinti.constprop.1+0x56>
  register int neg = 0, pc = 0;
e0000244:	4481                	li	s1,0
e0000246:	bf41                	j	e00001d6 <qprinti.constprop.1+0x36>
      int t = u & 0xF;
e0000248:	00f57813          	andi	a6,a0,15
      if (t >= 10)
e000024c:	01075363          	ble	a6,a4,e0000252 <qprinti.constprop.1+0xb2>
        t += letbase - '0' - 10;
e0000250:	983e                	add	a6,a6,a5
      *--s = t + '0';
e0000252:	147d                	addi	s0,s0,-1
e0000254:	03080813          	addi	a6,a6,48
e0000258:	01040023          	sb	a6,0(s0)
      u >>= 4;
e000025c:	8111                	srli	a0,a0,0x4
    while (u) {
e000025e:	f56d                	bnez	a0,e0000248 <qprinti.constprop.1+0xa8>
  if (neg) {
e0000260:	cc89                	beqz	s1,e000027a <qprinti.constprop.1+0xda>
    if( width && (pad & PAD_ZERO) )
e0000262:	c68d                	beqz	a3,e000028c <qprinti.constprop.1+0xec>
e0000264:	00267793          	andi	a5,a2,2
e0000268:	c395                	beqz	a5,e000028c <qprinti.constprop.1+0xec>
  uart_sendchar(s);
e000026a:	02d00513          	li	a0,45
e000026e:	c432                	sw	a2,8(sp)
e0000270:	c636                	sw	a3,12(sp)
e0000272:	3da5                	jal	e00000ea <uart_sendchar>
      --width;
e0000274:	46b2                	lw	a3,12(sp)
e0000276:	4622                	lw	a2,8(sp)
e0000278:	16fd                	addi	a3,a3,-1
  return pc + qprints (out, s, width, pad);
e000027a:	85b6                	mv	a1,a3
e000027c:	8522                	mv	a0,s0
e000027e:	3db5                	jal	e00000fa <qprints.constprop.2>
e0000280:	9526                	add	a0,a0,s1
e0000282:	bf2d                	j	e00001bc <qprinti.constprop.1+0x1c>
      if (t >= 10)
e0000284:	4725                	li	a4,9
        t += letbase - '0' - 10;
e0000286:	fc678793          	addi	a5,a5,-58
e000028a:	bfd1                	j	e000025e <qprinti.constprop.1+0xbe>
      *--s = '-';
e000028c:	02d00793          	li	a5,45
e0000290:	fef40fa3          	sb	a5,-1(s0)
  register int neg = 0, pc = 0;
e0000294:	4481                	li	s1,0
      *--s = '-';
e0000296:	147d                	addi	s0,s0,-1
e0000298:	b7cd                	j	e000027a <qprinti.constprop.1+0xda>

e000029a <uart_wait_tx_done>:
  while( (*(volatile unsigned int*)(UART_REG_LSR) & 0x40) == 0);
e000029a:	40000737          	lui	a4,0x40000
e000029e:	4b5c                	lw	a5,20(a4)
e00002a0:	0407f793          	andi	a5,a5,64
e00002a4:	dfed                	beqz	a5,e000029e <uart_wait_tx_done+0x4>
}
e00002a6:	8082                	ret

e00002a8 <putchar>:
{
e00002a8:	1141                	addi	sp,sp,-16
e00002aa:	c422                	sw	s0,8(sp)
e00002ac:	842a                	mv	s0,a0
  uart_sendchar(s);
e00002ae:	0ff57513          	andi	a0,a0,255
{
e00002b2:	c606                	sw	ra,12(sp)
  uart_sendchar(s);
e00002b4:	3d1d                	jal	e00000ea <uart_sendchar>
}
e00002b6:	8522                	mv	a0,s0
e00002b8:	40b2                	lw	ra,12(sp)
e00002ba:	4422                	lw	s0,8(sp)
e00002bc:	0141                	addi	sp,sp,16
e00002be:	8082                	ret

e00002c0 <printf>:

  return pc;
}

int printf(const char *format, ...)
{
e00002c0:	711d                	addi	sp,sp,-96
e00002c2:	dc22                	sw	s0,56(sp)
  int pc;
  va_list va;

  va_start(va, format);
e00002c4:	00c0                	addi	s0,sp,68
{
e00002c6:	da26                	sw	s1,52(sp)
e00002c8:	d84a                	sw	s2,48(sp)
e00002ca:	d64e                	sw	s3,44(sp)
e00002cc:	d452                	sw	s4,40(sp)
e00002ce:	d256                	sw	s5,36(sp)
e00002d0:	d05a                	sw	s6,32(sp)
e00002d2:	ce5e                	sw	s7,28(sp)
e00002d4:	de06                	sw	ra,60(sp)
e00002d6:	cc62                	sw	s8,24(sp)
e00002d8:	8baa                	mv	s7,a0
e00002da:	c2ae                	sw	a1,68(sp)
e00002dc:	c4b2                	sw	a2,72(sp)
e00002de:	c6b6                	sw	a3,76(sp)
e00002e0:	c8ba                	sw	a4,80(sp)
e00002e2:	cabe                	sw	a5,84(sp)
e00002e4:	ccc2                	sw	a6,88(sp)
e00002e6:	cec6                	sw	a7,92(sp)
  va_start(va, format);
e00002e8:	c622                	sw	s0,12(sp)
  register int pc = 0;
e00002ea:	4b01                	li	s6,0
    if (*format == '%')
e00002ec:	02500493          	li	s1,37
      if (*format == '-')
e00002f0:	02d00913          	li	s2,45
      while (*format == '0')
e00002f4:	03000993          	li	s3,48
        width *= 10;
e00002f8:	4a29                	li	s4,10
        pc += qprints (out, s?s:"(null)", width, pad);
e00002fa:	00007a97          	auipc	s5,0x7
e00002fe:	81aa8a93          	addi	s5,s5,-2022 # e0006b14 <hmac_smoketest+0x6588>
  for (; *format != 0; ++format)
e0000302:	000bc783          	lbu	a5,0(s7)
e0000306:	ef91                	bnez	a5,e0000322 <printf+0x62>

  va_end(va);

  return pc;

}
e0000308:	50f2                	lw	ra,60(sp)
e000030a:	5462                	lw	s0,56(sp)
e000030c:	855a                	mv	a0,s6
e000030e:	54d2                	lw	s1,52(sp)
e0000310:	5942                	lw	s2,48(sp)
e0000312:	59b2                	lw	s3,44(sp)
e0000314:	5a22                	lw	s4,40(sp)
e0000316:	5a92                	lw	s5,36(sp)
e0000318:	5b02                	lw	s6,32(sp)
e000031a:	4bf2                	lw	s7,28(sp)
e000031c:	4c62                	lw	s8,24(sp)
e000031e:	6125                	addi	sp,sp,96
e0000320:	8082                	ret
    if (*format == '%')
e0000322:	0e979663          	bne	a5,s1,e000040e <printf+0x14e>
      if (*format == '\0') break;
e0000326:	001bc683          	lbu	a3,1(s7)
e000032a:	def9                	beqz	a3,e0000308 <printf+0x48>
e000032c:	001b8793          	addi	a5,s7,1
      if (*format == '%') goto out;
e0000330:	0c968e63          	beq	a3,s1,e000040c <printf+0x14c>
      width = pad = 0;
e0000334:	4701                	li	a4,0
      if (*format == '-')
e0000336:	01269563          	bne	a3,s2,e0000340 <printf+0x80>
        ++format;
e000033a:	002b8793          	addi	a5,s7,2
        pad = PAD_RIGHT;
e000033e:	4705                	li	a4,1
e0000340:	8bbe                	mv	s7,a5
      while (*format == '0')
e0000342:	000bc783          	lbu	a5,0(s7)
e0000346:	001b8693          	addi	a3,s7,1
e000034a:	03378b63          	beq	a5,s3,e0000380 <printf+0xc0>
      width = pad = 0;
e000034e:	4681                	li	a3,0
      for ( ; *format >= '0' && *format <= '9'; ++format) {
e0000350:	4525                	li	a0,9
e0000352:	000bc783          	lbu	a5,0(s7)
e0000356:	001b8813          	addi	a6,s7,1
e000035a:	fd078613          	addi	a2,a5,-48
e000035e:	0ff67593          	andi	a1,a2,255
e0000362:	02b57363          	bleu	a1,a0,e0000388 <printf+0xc8>
      if( *format == 's' ) {
e0000366:	07300613          	li	a2,115
e000036a:	02c79463          	bne	a5,a2,e0000392 <printf+0xd2>
        register char *s = va_arg(va, char*);
e000036e:	4008                	lw	a0,0(s0)
e0000370:	00440c13          	addi	s8,s0,4
        pc += qprints (out, s?s:"(null)", width, pad);
e0000374:	e111                	bnez	a0,e0000378 <printf+0xb8>
e0000376:	8556                	mv	a0,s5
e0000378:	863a                	mv	a2,a4
e000037a:	85b6                	mv	a1,a3
        pc += qprints (out, scr, width, pad);
e000037c:	3bbd                	jal	e00000fa <qprints.constprop.2>
e000037e:	a035                	j	e00003aa <printf+0xea>
        pad |= PAD_ZERO;
e0000380:	00276713          	ori	a4,a4,2
        ++format;
e0000384:	8bb6                	mv	s7,a3
e0000386:	bf75                	j	e0000342 <printf+0x82>
        width *= 10;
e0000388:	034686b3          	mul	a3,a3,s4
      for ( ; *format >= '0' && *format <= '9'; ++format) {
e000038c:	8bc2                	mv	s7,a6
        width += *format - '0';
e000038e:	96b2                	add	a3,a3,a2
e0000390:	b7c9                	j	e0000352 <printf+0x92>
      if( *format == 'd' ) {
e0000392:	06400613          	li	a2,100
e0000396:	00c79e63          	bne	a5,a2,e00003b2 <printf+0xf2>
        pc += qprinti (out, va_arg(va, int), 10, 1, width, pad, 'a');
e000039a:	00440c13          	addi	s8,s0,4
e000039e:	06100793          	li	a5,97
e00003a2:	4605                	li	a2,1
e00003a4:	45a9                	li	a1,10
e00003a6:	4008                	lw	a0,0(s0)
e00003a8:	3be5                	jal	e00001a0 <qprinti.constprop.1>
e00003aa:	9b2a                	add	s6,s6,a0
e00003ac:	8462                	mv	s0,s8
  for (; *format != 0; ++format)
e00003ae:	0b85                	addi	s7,s7,1
e00003b0:	bf89                	j	e0000302 <printf+0x42>
      if( *format == 'u' ) {
e00003b2:	07500613          	li	a2,117
e00003b6:	00c79863          	bne	a5,a2,e00003c6 <printf+0x106>
        pc += qprinti (out, va_arg(va, unsigned int), 10, 0, width, pad, 'a');
e00003ba:	00440c13          	addi	s8,s0,4
e00003be:	06100793          	li	a5,97
e00003c2:	4601                	li	a2,0
e00003c4:	b7c5                	j	e00003a4 <printf+0xe4>
      if( *format == 'x' ) {
e00003c6:	07800613          	li	a2,120
e00003ca:	00c79963          	bne	a5,a2,e00003dc <printf+0x11c>
        pc += qprinti (out, va_arg(va, uint32_t), 16, 0, width, pad, 'a');
e00003ce:	00440c13          	addi	s8,s0,4
e00003d2:	06100793          	li	a5,97
        pc += qprinti (out, va_arg(va, uint32_t), 16, 0, width, pad, 'A');
e00003d6:	4601                	li	a2,0
e00003d8:	45c1                	li	a1,16
e00003da:	b7f1                	j	e00003a6 <printf+0xe6>
      if( *format == 'X' ) {
e00003dc:	05800613          	li	a2,88
e00003e0:	00c79763          	bne	a5,a2,e00003ee <printf+0x12e>
        pc += qprinti (out, va_arg(va, uint32_t), 16, 0, width, pad, 'A');
e00003e4:	00440c13          	addi	s8,s0,4
e00003e8:	04100793          	li	a5,65
e00003ec:	b7ed                	j	e00003d6 <printf+0x116>
      if( *format == 'c' ) {
e00003ee:	06300613          	li	a2,99
e00003f2:	fac79ee3          	bne	a5,a2,e00003ae <printf+0xee>
        scr[0] = va_arg(va, int);
e00003f6:	401c                	lw	a5,0(s0)
e00003f8:	00440c13          	addi	s8,s0,4
        scr[1] = '\0';
e00003fc:	000104a3          	sb	zero,9(sp)
        scr[0] = va_arg(va, int);
e0000400:	00f10423          	sb	a5,8(sp)
        pc += qprints (out, scr, width, pad);
e0000404:	863a                	mv	a2,a4
e0000406:	85b6                	mv	a1,a3
e0000408:	0028                	addi	a0,sp,8
e000040a:	bf8d                	j	e000037c <printf+0xbc>
      ++format;
e000040c:	8bbe                	mv	s7,a5
  uart_sendchar(s);
e000040e:	000bc503          	lbu	a0,0(s7)
      ++pc;
e0000412:	0b05                	addi	s6,s6,1
  uart_sendchar(s);
e0000414:	39d9                	jal	e00000ea <uart_sendchar>
e0000416:	bf61                	j	e00003ae <printf+0xee>

e0000418 <simple_exc_handler>:
  printf("EXCEPTION!!!\r\n");
e0000418:	00006517          	auipc	a0,0x6
e000041c:	70450513          	addi	a0,a0,1796 # e0006b1c <hmac_smoketest+0x6590>
e0000420:	b545                	j	e00002c0 <printf>

e0000422 <puts>:

int puts(const char *s)
{
e0000422:	1141                	addi	sp,sp,-16
e0000424:	c422                	sw	s0,8(sp)
e0000426:	c226                	sw	s1,4(sp)
e0000428:	c606                	sw	ra,12(sp)
e000042a:	c04a                	sw	s2,0(sp)
e000042c:	84aa                	mv	s1,a0
  int i=0;

  while(s[i] != '\0')
e000042e:	842a                	mv	s0,a0
e0000430:	40940933          	sub	s2,s0,s1
e0000434:	0405                	addi	s0,s0,1
e0000436:	fff44503          	lbu	a0,-1(s0)
e000043a:	e911                	bnez	a0,e000044e <puts+0x2c>
  uart_sendchar(s);
e000043c:	4529                	li	a0,10
e000043e:	3175                	jal	e00000ea <uart_sendchar>
    putchar(s[i++]);

  putchar('\n');

  return i;
}
e0000440:	40b2                	lw	ra,12(sp)
e0000442:	4422                	lw	s0,8(sp)
e0000444:	854a                	mv	a0,s2
e0000446:	4492                	lw	s1,4(sp)
e0000448:	4902                	lw	s2,0(sp)
e000044a:	0141                	addi	sp,sp,16
e000044c:	8082                	ret
  uart_sendchar(s);
e000044e:	3971                	jal	e00000ea <uart_sendchar>
e0000450:	b7c5                	j	e0000430 <puts+0xe>

e0000452 <external_irq_handler>:

void external_irq_handler(void)  {
e0000452:	1101                	addi	sp,sp,-32
e0000454:	c63a                	sw	a4,12(sp)
e0000456:	c43e                	sw	a5,8(sp)
e0000458:	ce2a                	sw	a0,28(sp)
e000045a:	cc2e                	sw	a1,24(sp)
e000045c:	ca32                	sw	a2,20(sp)
e000045e:	c836                	sw	a3,16(sp)
e0000460:	c242                	sw	a6,4(sp)
  p_reg5 = (int *) 0x1040401C;

  // start of """Interrupt Service Routine"""
  
  plic_check = (int *) 0xC8200004;
  while(*plic_check != mbox_id);   //check wether the intr is the correct one
e0000462:	c82007b7          	lui	a5,0xc8200
e0000466:	09f00713          	li	a4,159
e000046a:	43d0                	lw	a2,4(a5)
e000046c:	00478693          	addi	a3,a5,4 # c8200004 <pulp__FC+0xc8200005>
e0000470:	fee61de3          	bne	a2,a4,e000046a <external_irq_handler+0x18>
  
  p_reg = (int *) 0x10404020;
 *p_reg = 0x00000000;        //clearing the pending interrupt signal
e0000474:	104047b7          	lui	a5,0x10404
e0000478:	0207a023          	sw	zero,32(a5) # 10404020 <tohost+0x103e4018>
 
 *plic_check = mbox_id;      //completing interrupt
e000047c:	c298                	sw	a4,0(a3)
 
  a = *p_reg1;
e000047e:	4788                	lw	a0,8(a5)
  c = *p_reg3;
  d = *p_reg4;
  e = *p_reg5;
  
  
  if( a == 0xBAADC0DE &&  b == 0xBAADC0DE && c == 0xBAADC0DE && d == 0xBAADC0DE && e == 0xBAADC0DE){
e0000480:	baadc737          	lui	a4,0xbaadc
  b = *p_reg2;
e0000484:	4b8c                	lw	a1,16(a5)
  c = *p_reg3;
e0000486:	4bd0                	lw	a2,20(a5)
  d = *p_reg4;
e0000488:	4f94                	lw	a3,24(a5)
  e = *p_reg5;
e000048a:	01c7a803          	lw	a6,28(a5)
  if( a == 0xBAADC0DE &&  b == 0xBAADC0DE && c == 0xBAADC0DE && d == 0xBAADC0DE && e == 0xBAADC0DE){
e000048e:	0de70713          	addi	a4,a4,222 # baadc0de <pulp__FC+0xbaadc0df>
e0000492:	00e51c63          	bne	a0,a4,e00004aa <external_irq_handler+0x58>
e0000496:	00a59a63          	bne	a1,a0,e00004aa <external_irq_handler+0x58>
e000049a:	00b61863          	bne	a2,a1,e00004aa <external_irq_handler+0x58>
e000049e:	00c69663          	bne	a3,a2,e00004aa <external_irq_handler+0x58>
e00004a2:	00d81463          	bne	a6,a3,e00004aa <external_irq_handler+0x58>
      p_reg = (int *) 0x10404024; // completion interrupt to ariane agent
     *p_reg = 0x00000001;
e00004a6:	4705                	li	a4,1
e00004a8:	d3d8                	sw	a4,36(a5)
  }
  
  return;
}
e00004aa:	4572                	lw	a0,28(sp)
e00004ac:	45e2                	lw	a1,24(sp)
e00004ae:	4652                	lw	a2,20(sp)
e00004b0:	46c2                	lw	a3,16(sp)
e00004b2:	4732                	lw	a4,12(sp)
e00004b4:	47a2                	lw	a5,8(sp)
e00004b6:	4812                	lw	a6,4(sp)
e00004b8:	6105                	addi	sp,sp,32
e00004ba:	30200073          	mret

e00004be <default_exc_handler>:
  jal x0, sleep_loop //exc handler
e00004be:	0760006f          	j	e0000534 <sleep_loop>

e00004c2 <reset_handler>:
  mv  x1, x0
e00004c2:	00000093          	li	ra,0
  mv  x2, x1
e00004c6:	8106                	mv	sp,ra
  mv  x3, x1
e00004c8:	8186                	mv	gp,ra
  mv  x4, x1
e00004ca:	8206                	mv	tp,ra
  mv  x5, x1
e00004cc:	8286                	mv	t0,ra
  mv  x6, x1
e00004ce:	8306                	mv	t1,ra
  mv  x7, x1
e00004d0:	8386                	mv	t2,ra
  mv  x8, x1
e00004d2:	8406                	mv	s0,ra
  mv  x9, x1
e00004d4:	8486                	mv	s1,ra
  mv x10, x1
e00004d6:	8506                	mv	a0,ra
  mv x11, x1
e00004d8:	8586                	mv	a1,ra
  mv x12, x1
e00004da:	8606                	mv	a2,ra
  mv x13, x1
e00004dc:	8686                	mv	a3,ra
  mv x14, x1
e00004de:	8706                	mv	a4,ra
  mv x15, x1
e00004e0:	8786                	mv	a5,ra
  mv x16, x1
e00004e2:	8806                	mv	a6,ra
  mv x17, x1
e00004e4:	8886                	mv	a7,ra
  mv x18, x1
e00004e6:	8906                	mv	s2,ra
  mv x19, x1
e00004e8:	8986                	mv	s3,ra
  mv x20, x1
e00004ea:	8a06                	mv	s4,ra
  mv x21, x1
e00004ec:	8a86                	mv	s5,ra
  mv x22, x1
e00004ee:	8b06                	mv	s6,ra
  mv x23, x1
e00004f0:	8b86                	mv	s7,ra
  mv x24, x1
e00004f2:	8c06                	mv	s8,ra
  mv x25, x1
e00004f4:	8c86                	mv	s9,ra
  mv x26, x1
e00004f6:	8d06                	mv	s10,ra
  mv x27, x1
e00004f8:	8d86                	mv	s11,ra
  mv x28, x1
e00004fa:	8e06                	mv	t3,ra
  mv x29, x1
e00004fc:	8e86                	mv	t4,ra
  mv x30, x1
e00004fe:	8f06                	mv	t5,ra
  mv x31, x1
e0000500:	8f86                	mv	t6,ra
  la   x2, _stack_start
e0000502:	00010117          	auipc	sp,0x10
e0000506:	afe10113          	addi	sp,sp,-1282 # e0010000 <_stack_start>

e000050a <_start>:
  la x26, _bss_start
e000050a:	00006d17          	auipc	s10,0x6
e000050e:	632d0d13          	addi	s10,s10,1586 # e0006b3c <_bss_end>
  la x27, _bss_end
e0000512:	00006d97          	auipc	s11,0x6
e0000516:	62ad8d93          	addi	s11,s11,1578 # e0006b3c <_bss_end>
  bge x26, x27, zero_loop_end
e000051a:	01bd5763          	ble	s11,s10,e0000528 <main_entry>

e000051e <zero_loop>:
  sw x0, 0(x26)
e000051e:	000d2023          	sw	zero,0(s10)
  addi x26, x26, 4
e0000522:	0d11                	addi	s10,s10,4
  ble x26, x27, zero_loop
e0000524:	ffaddde3          	ble	s10,s11,e000051e <zero_loop>

e0000528 <main_entry>:
  addi x10, x0, 0
e0000528:	00000513          	li	a0,0
  addi x11, x0, 0
e000052c:	00000593          	li	a1,0
  jal x1, main
e0000530:	00a000ef          	jal	ra,e000053a <main>

e0000534 <sleep_loop>:
  wfi
e0000534:	10500073          	wfi
  j sleep_loop
e0000538:	bff5                	j	e0000534 <sleep_loop>

e000053a <main>:
  payload_3  = (int *) 0xff000008;
  address    = (int *) 0xff00000C;
  start      = (int *) 0xff000010;
  debug_mode = (int *) 0xff000014;
  
  *debug_mode = 0x00000001;
e000053a:	ff0007b7          	lui	a5,0xff000
e000053e:	4705                	li	a4,1
  
  for(int i = 0; i < buffer_size; i += 3) {
e0000540:	6609                	lui	a2,0x2
  *debug_mode = 0x00000001;
e0000542:	cbd8                	sw	a4,20(a5)
  for(int i = 0; i < buffer_size; i += 3) {
e0000544:	4681                	li	a3,0
e0000546:	00000717          	auipc	a4,0x0
e000054a:	04670713          	addi	a4,a4,70 # e000058c <hmac_smoketest>
     if(i + 2 < buffer_size) {
        *payload_1 = hmac_smoketest[i];
        *payload_2 = hmac_smoketest[i+1];
        *payload_3 = hmac_smoketest[i+2];
        *address = i/3;
e000054e:	488d                	li	a7,3
        *start = 0x1;
e0000550:	01078593          	addi	a1,a5,16 # ff000010 <pulp__FC+0xff000011>
e0000554:	4505                	li	a0,1
  for(int i = 0; i < buffer_size; i += 3) {
e0000556:	96260613          	addi	a2,a2,-1694 # 1962 <_min_stack-0x69e>
        *payload_1 = hmac_smoketest[i];
e000055a:	00072803          	lw	a6,0(a4)
e000055e:	0731                	addi	a4,a4,12
e0000560:	0107a023          	sw	a6,0(a5)
        *payload_2 = hmac_smoketest[i+1];
e0000564:	ff872803          	lw	a6,-8(a4)
e0000568:	0107a223          	sw	a6,4(a5)
        *payload_3 = hmac_smoketest[i+2];
e000056c:	ffc72803          	lw	a6,-4(a4)
e0000570:	0107a423          	sw	a6,8(a5)
        *address = i/3;
e0000574:	0316c833          	div	a6,a3,a7
  for(int i = 0; i < buffer_size; i += 3) {
e0000578:	068d                	addi	a3,a3,3
        *address = i/3;
e000057a:	0107a623          	sw	a6,12(a5)
        *start = 0x1;
e000057e:	c188                	sw	a0,0(a1)
  for(int i = 0; i < buffer_size; i += 3) {
e0000580:	fcc69de3          	bne	a3,a2,e000055a <main+0x20>
     }
  }

  *debug_mode = 0x0;
e0000584:	0007aa23          	sw	zero,20(a5)
  
  return 0;
  
}
e0000588:	4501                	li	a0,0
e000058a:	8082                	ret

Disassembly of section .rodata:

e000058c <hmac_smoketest>:
e000058c:	9709                	srai	a4,a4,0x22
e000058e:	46e2                	lw	a3,24(sp)
e0000590:	88e4                	0x88e4
e0000592:	7a24                	flw	fs1,112(a2)
e0000594:	0000                	unimp
e0000596:	8690                	0x8690
e0000598:	b409                	j	dfffff9a <tohost+0xdffdff92>
e000059a:	4916                	lw	s2,68(sp)
e000059c:	abc1                	j	e0000b6c <hmac_smoketest+0x5e0>
e000059e:	5b74                	lw	a3,116(a4)
e00005a0:	0000                	unimp
e00005a2:	09e0                	addi	s0,sp,220
e00005a4:	7cc4                	flw	fs1,60(s1)
e00005a6:	a4e9fe43          	fmadd.h	t3,s3,a4,s4
e00005aa:	5b98                	lw	a4,48(a5)
e00005ac:	0000                	unimp
e00005ae:	8a80                	0x8a80
e00005b0:	b474                	fsd	fa3,232(s0)
e00005b2:	e008                	fsw	fa0,0(s0)
e00005b4:	2d2e                	fld	fs10,200(sp)
e00005b6:	fd78                	fsw	fa4,124(a0)
e00005b8:	0000                	unimp
e00005ba:	d9f0                	sw	a2,116(a1)
e00005bc:	06de                	slli	a3,a3,0x17
e00005be:	7e46                	flw	ft8,112(sp)
e00005c0:	22f9a75b          	p.addn	a4,s3,a5,17
e00005c4:	0000                	unimp
e00005c6:	f080                	fsw	fs0,32(s1)
e00005c8:	4352                	lw	t1,20(sp)
e00005ca:	01ba                	slli	gp,gp,0xe
e00005cc:	efb717d3          	0xefb717d3
e00005d0:	0000                	unimp
e00005d2:	bf20                	fsd	fs0,120(a4)
e00005d4:	02ed                	addi	t0,t0,27
e00005d6:	5754                	lw	a3,44(a4)
e00005d8:	a6c8                	fsd	fa0,136(a3)
e00005da:	cd8a                	sw	sp,216(sp)
e00005dc:	0000                	unimp
e00005de:	0d80                	addi	s0,sp,720
e00005e0:	5809                	li	a6,-30
e00005e2:	1758                	addi	a4,sp,932
e00005e4:	e02d                	bnez	s0,e0000646 <hmac_smoketest+0xba>
e00005e6:	e5e0                	fsw	fs0,76(a1)
e00005e8:	0000                	unimp
e00005ea:	df50                	sw	a2,60(a4)
e00005ec:	7750                	flw	fa2,44(a4)
e00005ee:	81be                	mv	gp,a5
e00005f0:	0826                	slli	a6,a6,0x9
e00005f2:	afc5                	j	e0000de2 <hmac_smoketest+0x856>
e00005f4:	0000                	unimp
e00005f6:	4680                	lw	s0,8(a3)
e00005f8:	de3c                	sw	a5,120(a2)
e00005fa:	aff0                	fsd	fa2,216(a5)
e00005fc:	1cf6                	slli	s9,s9,0x3d
e00005fe:	7522                	flw	fa0,40(sp)
e0000600:	0000                	unimp
e0000602:	8ea0                	0x8ea0
e0000604:	3237438f          	0x3237438f
e0000608:	7903b6a3          	0x7903b6a3
e000060c:	0000                	unimp
e000060e:	2040                	fld	fs0,128(s0)
e0000610:	20ae                	fld	ft1,200(sp)
e0000612:	ec72                	fsw	ft8,24(sp)
e0000614:	e7d0                	fsw	fa2,12(a5)
e0000616:	c8d0                	sw	a2,20(s1)
e0000618:	0000                	unimp
e000061a:	4320                	lw	s0,64(a4)
e000061c:	b398                	fsd	fa4,32(a5)
e000061e:	7564                	flw	fs1,108(a0)
e0000620:	bb1a                	fsd	ft6,432(sp)
e0000622:	93d8                	0x93d8
e0000624:	0000                	unimp
e0000626:	5c10                	lw	a2,56(s0)
e0000628:	c85d                	beqz	s0,e00006de <hmac_smoketest+0x152>
e000062a:	19b7d1b3          	0x19b7d1b3
e000062e:	8b0a                	mv	s6,sp
e0000630:	0000                	unimp
e0000632:	bf70                	fsd	fa2,248(a4)
e0000634:	bb2eba83          	0xbb2eba83
e0000638:	ad8e                	fsd	ft3,216(sp)
e000063a:	baec                	fsd	fa1,240(a3)
e000063c:	0000                	unimp
e000063e:	8140                	0x8140
e0000640:	2ffcae27          	fsw	ft11,764(s9)
e0000644:	ca31                	beqz	a2,e0000698 <hmac_smoketest+0x10c>
e0000646:	4ee4                	lw	s1,92(a3)
e0000648:	0000                	unimp
e000064a:	e810                	fsw	fa2,16(s0)
e000064c:	2ca5                	jal	e00008c4 <hmac_smoketest+0x338>
e000064e:	8389                	srli	a5,a5,0x2
e0000650:	c2c6                	sw	a7,68(sp)
e0000652:	e5d6                	fsw	fs5,200(sp)
e0000654:	0000                	unimp
e0000656:	44f0                	lw	a2,76(s1)
e0000658:	34de78cf          	fnmadd.h	a7,t3,a3,t1
e000065c:	7b6684fb          	0x7b6684fb
e0000660:	0000                	unimp
e0000662:	d570                	sw	a2,108(a0)
e0000664:	deb9                	beqz	a3,e00005c2 <hmac_smoketest+0x36>
e0000666:	ae42                	fsd	fa6,280(sp)
e0000668:	bf90                	fsd	fa2,56(a5)
e000066a:	550e                	lw	a0,224(sp)
e000066c:	0000                	unimp
e000066e:	2750                	fld	fa2,136(a4)
e0000670:	09b6                	slli	s3,s3,0xd
e0000672:	66e5                	lui	a3,0x19
e0000674:	2b7e3baf          	0x2b7e3baf
e0000678:	0000                	unimp
e000067a:	adf0                	fsd	fa2,216(a1)
e000067c:	1c7bcecb          	fnmsub.h	t4,s7,t2,gp,rmm
e0000680:	aa5c                	fsd	fa5,144(a2)
e0000682:	8e19                	sub	a2,a2,a4
e0000684:	0000                	unimp
e0000686:	fd20                	fsw	fs0,120(a0)
e0000688:	e31e                	fsw	ft7,132(sp)
e000068a:	275e                	fld	fa4,464(sp)
e000068c:	8675                	srai	a2,a2,0x1d
e000068e:	9524                	0x9524
e0000690:	0000                	unimp
e0000692:	5410                	lw	a2,40(s0)
e0000694:	323e3f93          	sltiu	t6,t3,803
e0000698:	99947e83          	0x99947e83
e000069c:	0000                	unimp
e000069e:	b520                	fsd	fs0,104(a0)
e00006a0:	8dc9733f 90c81bcd 	0x90c81bcd8dc9733f
e00006a8:	0000                	unimp
e00006aa:	a1c0                	fsd	fs0,128(a1)
e00006ac:	c00a325b          	p.subunr	tp,s4,zero
e00006b0:	fda9                	bnez	a1,e000060a <hmac_smoketest+0x7e>
e00006b2:	bf96                	fsd	ft5,504(sp)
e00006b4:	0000                	unimp
e00006b6:	7680                	flw	fs0,40(a3)
e00006b8:	1a05                	addi	s4,s4,-31
e00006ba:	7dc2                	flw	fs11,48(sp)
e00006bc:	e12069e7          	0xe12069e7
e00006c0:	0000                	unimp
e00006c2:	0d30                	addi	a2,sp,664
e00006c4:	89ea                	mv	s3,s10
e00006c6:	7104d1bb          	0x7104d1bb
e00006ca:	00000fbb          	0xfbb
e00006ce:	4300                	lw	s0,0(a4)
e00006d0:	f13e                	fsw	fa5,160(sp)
e00006d2:	9916                	add	s2,s2,t0
e00006d4:	ac31                	j	e00008f0 <hmac_smoketest+0x364>
e00006d6:	0dae                	slli	s11,s11,0xb
e00006d8:	0000                	unimp
e00006da:	7a40                	flw	fs0,52(a2)
e00006dc:	51ff                	0x51ff
e00006de:	9238                	0x9238
e00006e0:	2190                	fld	fa2,0(a1)
e00006e2:	0000d0ef          	jal	ra,e000d6e2 <_stack+0x36e2>
e00006e6:	eff0                	fsw	fa2,92(a5)
e00006e8:	3c71a10f          	0x3c71a10f
e00006ec:	610e                	flw	ft2,192(sp)
e00006ee:	a8e8                	fsd	fa0,208(s1)
e00006f0:	0000                	unimp
e00006f2:	e4a0                	fsw	fs0,72(s1)
e00006f4:	ba11                	j	e0000008 <_vectors_start+0x8>
e00006f6:	438a                	lw	t2,128(sp)
e00006f8:	fbd8                	fsw	fa4,52(a5)
e00006fa:	c958                	sw	a4,20(a0)
e00006fc:	0000                	unimp
e00006fe:	3a40                	fld	fs0,176(a2)
e0000700:	cf42                	sw	a6,156(sp)
e0000702:	fd7d71b3          	0xfd7d71b3
e0000706:	5130                	lw	a2,96(a0)
e0000708:	0000                	unimp
e000070a:	8840                	0x8840
e000070c:	191c3b87          	fld	fs7,401(s8)
e0000710:	9375                	srli	a4,a4,0x3d
e0000712:	dc14                	sw	a3,56(s0)
e0000714:	0000                	unimp
e0000716:	dc90                	sw	a2,56(s1)
e0000718:	54b1                	li	s1,-20
e000071a:	b919                	j	e0000330 <printf+0x70>
e000071c:	0f48                	addi	a0,sp,916
e000071e:	a9d0                	fsd	fa2,144(a1)
e0000720:	0000                	unimp
e0000722:	e7a0                	fsw	fs0,72(a5)
e0000724:	6bfe                	flw	fs7,220(sp)
e0000726:	a4dd                	j	e0000a0c <hmac_smoketest+0x480>
e0000728:	3f59                	jal	e00006be <hmac_smoketest+0x132>
e000072a:	d11a                	sw	t1,160(sp)
e000072c:	0000                	unimp
e000072e:	3950                	fld	fa2,176(a0)
e0000730:	78a0e6af          	0x78a0e6af
e0000734:	0c3c                	addi	a5,sp,536
e0000736:	b749                	j	e00006b8 <hmac_smoketest+0x12c>
e0000738:	0000                	unimp
e000073a:	8a70                	0x8a70
e000073c:	58a8                	lw	a0,112(s1)
e000073e:	64d2                	flw	fs1,20(sp)
e0000740:	f686b5cf          	0xf686b5cf
e0000744:	0000                	unimp
e0000746:	43c0                	lw	s0,4(a5)
e0000748:	4fdf 31ba 1091      	0x109131ba4fdf
e000074e:	dc01                	beqz	s0,e0000666 <hmac_smoketest+0xda>
e0000750:	0000                	unimp
e0000752:	5a90                	lw	a2,48(a3)
e0000754:	2d58                	fld	fa4,152(a0)
e0000756:	fa95                	bnez	a3,e000068a <hmac_smoketest+0xfe>
e0000758:	27852adb          	p.addn	s5,a0,s8,19
e000075c:	0000                	unimp
e000075e:	89a0                	0x89a0
e0000760:	2c76                	fld	fs8,344(sp)
e0000762:	2e806b2b          	0x2e806b2b
e0000766:	6f28                	flw	fa0,88(a4)
e0000768:	0000                	unimp
e000076a:	4850                	lw	a2,20(s0)
e000076c:	3e45                	jal	e000031c <printf+0x5c>
e000076e:	ab29                	j	e0000c88 <hmac_smoketest+0x6fc>
e0000770:	b3f5                	j	e000055c <main+0x22>
e0000772:	7db9                	lui	s11,0xfffee
e0000774:	0000                	unimp
e0000776:	f6c0                	fsw	fs0,44(a3)
e0000778:	8c8e                	mv	s9,gp
e000077a:	ab20                	fsd	fs0,80(a4)
e000077c:	698e                	flw	fs3,192(sp)
e000077e:	0e58                	addi	a4,sp,788
e0000780:	0000                	unimp
e0000782:	e270                	fsw	fa2,68(a2)
e0000784:	53a0                	lw	s0,96(a5)
e0000786:	9238                	0x9238
e0000788:	a51a                	fsd	ft6,136(sp)
e000078a:	00004e27          	0x4e27
e000078e:	ce00                	sw	s0,24(a2)
e0000790:	7e0d                	lui	t3,0xfffe3
e0000792:	74d0                	flw	fa2,44(s1)
e0000794:	7ff4                	flw	fa3,124(a5)
e0000796:	000051db          	p.mac.zl.zh	gp,zero,zero,zero
e000079a:	04c0                	addi	s0,sp,580
e000079c:	eb30                	fsw	fa2,80(a4)
e000079e:	8002                	0x8002
e00007a0:	a881                	j	e00007f0 <hmac_smoketest+0x264>
e00007a2:	9749                	srai	a4,a4,0x32
e00007a4:	0000                	unimp
e00007a6:	4480                	lw	s0,8(s1)
e00007a8:	866e                	mv	a2,s11
e00007aa:	34da                	fld	fs1,432(sp)
e00007ac:	b639                	j	e00002ba <putchar+0x12>
e00007ae:	4df2                	lw	s11,28(sp)
e00007b0:	0000                	unimp
e00007b2:	b160                	fsd	fs0,224(a0)
e00007b4:	23809ab7          	lui	s5,0x23809
e00007b8:	2c29                	jal	e00009d2 <hmac_smoketest+0x446>
e00007ba:	000066d7          	pv.add.sci.h	a3,zero,0
e00007be:	9fc0                	0x9fc0
e00007c0:	3b30                	fld	fa2,112(a4)
e00007c2:	16740dcb          	0x16740dcb
e00007c6:	09d2                	slli	s3,s3,0x14
e00007c8:	0000                	unimp
e00007ca:	8c20                	0x8c20
e00007cc:	5a5a                	lw	s4,180(sp)
e00007ce:	e23a                	fsw	fa4,4(sp)
e00007d0:	0000                	unimp
e00007d2:	5a50                	lw	a2,52(a2)
e00007d4:	0000                	unimp
e00007d6:	0000                	unimp
e00007d8:	5a5a                	lw	s4,180(sp)
e00007da:	191a                	slli	s2,s2,0x26
e00007dc:	5a5a                	lw	s4,180(sp)
e00007de:	5a5a                	lw	s4,180(sp)
e00007e0:	0000                	unimp
e00007e2:	5a50                	lw	a2,52(a2)
e00007e4:	5a5a                	lw	s4,180(sp)
e00007e6:	191a                	slli	s2,s2,0x26
e00007e8:	5a5a                	lw	s4,180(sp)
e00007ea:	5a5a                	lw	s4,180(sp)
e00007ec:	0000                	unimp
e00007ee:	5a50                	lw	a2,52(a2)
e00007f0:	5a5a                	lw	s4,180(sp)
e00007f2:	191a                	slli	s2,s2,0x26
e00007f4:	5a5a                	lw	s4,180(sp)
e00007f6:	5a5a                	lw	s4,180(sp)
e00007f8:	0000                	unimp
e00007fa:	5a50                	lw	a2,52(a2)
e00007fc:	5a5a                	lw	s4,180(sp)
e00007fe:	191a                	slli	s2,s2,0x26
e0000800:	5a5a                	lw	s4,180(sp)
e0000802:	5a5a                	lw	s4,180(sp)
e0000804:	0000                	unimp
e0000806:	5a50                	lw	a2,52(a2)
e0000808:	5a5a                	lw	s4,180(sp)
e000080a:	191a                	slli	s2,s2,0x26
e000080c:	5a5a                	lw	s4,180(sp)
e000080e:	5a5a                	lw	s4,180(sp)
e0000810:	0000                	unimp
e0000812:	5a50                	lw	a2,52(a2)
e0000814:	ff64                	fsw	fs1,124(a4)
e0000816:	5b2e                	lw	s6,232(sp)
e0000818:	801a                	0x801a
e000081a:	a465                	j	e0000ac2 <hmac_smoketest+0x536>
e000081c:	0000                	unimp
e000081e:	2bd0                	fld	fa2,144(a5)
e0000820:	7cd6                	flw	fs9,116(sp)
e0000822:	6b2a                	flw	fs6,136(sp)
e0000824:	8cf2                	mv	s9,t3
e0000826:	2cbc                	fld	fa5,88(s1)
e0000828:	0000                	unimp
e000082a:	2510                	fld	fa2,8(a0)
e000082c:	14d55c93          	0x14d55c93
e0000830:	6d3634a3          	0x6d3634a3
e0000834:	0000                	unimp
e0000836:	9c20                	0x9c20
e0000838:	94d762eb          	0x94d762eb
e000083c:	63d6                	flw	ft7,84(sp)
e000083e:	baa4                	fsd	fs1,112(a3)
e0000840:	0000                	unimp
e0000842:	1fc0                	addi	s0,sp,1012
e0000844:	3da1                	jal	e000069c <hmac_smoketest+0x110>
e0000846:	f912                	fsw	ft4,176(sp)
e0000848:	1aad                	addi	s5,s5,-21
e000084a:	5d10                	lw	a2,56(a0)
e000084c:	0000                	unimp
e000084e:	fb20                	fsw	fs0,112(a4)
e0000850:	dc74ec67          	0xdc74ec67
e0000854:	475f b7b8 0000      	0xb7b8475f
e000085a:	dc60                	sw	s0,124(s0)
e000085c:	23ec                	fld	fa1,192(a5)
e000085e:	f1bd                	bnez	a1,e00007c4 <hmac_smoketest+0x238>
e0000860:	9364                	0x9364
e0000862:	7c7e                	flw	fs8,252(sp)
e0000864:	0000                	unimp
e0000866:	5700                	lw	s0,40(a4)
e0000868:	688a                	flw	fa7,128(sp)
e000086a:	18a5                	addi	a7,a7,-23
e000086c:	8038                	0x8038
e000086e:	56b9                	li	a3,-18
e0000870:	0000                	unimp
e0000872:	d630                	sw	a2,104(a2)
e0000874:	20ff                	0x20ff
e0000876:	8037738b          	0x8037738b
e000087a:	2896                	fld	fa7,320(sp)
e000087c:	0000                	unimp
e000087e:	add0                	fsd	fa2,152(a1)
e0000880:	fdcbac0b          	p.lw	s8,-36(s7!)
e0000884:	d96c                	sw	a1,116(a0)
e0000886:	8cd9                	or	s1,s1,a4
e0000888:	0000                	unimp
e000088a:	1ce0                	addi	s0,sp,636
e000088c:	95f8                	0x95f8
e000088e:	a231                	j	e000099a <hmac_smoketest+0x40e>
e0000890:	9c8ead33          	vfsgnjn.h	s10,t4,s0
e0000894:	0000                	unimp
e0000896:	d0b0                	sw	a2,96(s1)
e0000898:	5bcc                	lw	a1,52(a5)
e000089a:	c75f 7dc1 c12d      	0xc12d7dc1c75f
e00008a0:	0000                	unimp
e00008a2:	10e0                	addi	s0,sp,108
e00008a4:	dc40                	sw	s0,60(s0)
e00008a6:	4a9e                	lw	s5,196(sp)
e00008a8:	4d28dfa3          	0x4d28dfa3
e00008ac:	0000                	unimp
e00008ae:	3dc0                	fld	fs0,184(a1)
e00008b0:	197c                	addi	a5,sp,188
e00008b2:	6c79                	lui	s8,0x1e
e00008b4:	4ef8                	lw	a4,92(a3)
e00008b6:	00000c87          	0xc87
e00008ba:	5240                	lw	s0,36(a2)
e00008bc:	c9c5                	beqz	a1,e000096c <hmac_smoketest+0x3e0>
e00008be:	a384                	fsd	fs1,0(a5)
e00008c0:	9cc4                	0x9cc4
e00008c2:	000005d7          	pv.add.h	a1,zero,zero
e00008c6:	48e0                	lw	s0,84(s1)
e00008c8:	a75e2d0f          	0xa75e2d0f
e00008cc:	a586                	fsd	ft1,200(sp)
e00008ce:	0714                	addi	a3,sp,896
e00008d0:	0000                	unimp
e00008d2:	ad70                	fsd	fa2,216(a0)
e00008d4:	ca7f                	0xca7f
e00008d6:	5002                	0x5002
e00008d8:	89f2                	mv	s3,t3
e00008da:	c225                	beqz	a2,e000093a <hmac_smoketest+0x3ae>
e00008dc:	0000                	unimp
e00008de:	8c20                	0x8c20
e00008e0:	66eefb63          	bleu	a4,t4,e0000f56 <hmac_smoketest+0x9ca>
e00008e4:	b440354b          	fnmsub.h	a0,zero,tp,s6,rup
e00008e8:	0000                	unimp
e00008ea:	0e20                	addi	s0,sp,792
e00008ec:	e194                	fsw	fa3,0(a1)
e00008ee:	d759                	beqz	a4,e000087c <hmac_smoketest+0x2f0>
e00008f0:	3a75                	jal	e00002ac <putchar+0x4>
e00008f2:	00004543          	fmadd.s	fa0,ft0,ft0,ft0,rmm
e00008f6:	b040                	fsd	fs0,160(s0)
e00008f8:	a008e3f7          	0xa008e3f7
e00008fc:	b4b2                	fsd	fa2,104(sp)
e00008fe:	8e01                	sub	a2,a2,s0
e0000900:	0000                	unimp
e0000902:	cde0                	sw	s0,92(a1)
e0000904:	5685                	li	a3,-31
e0000906:	2910                	fld	fa2,16(a0)
e0000908:	2608                	fld	fa0,8(a2)
e000090a:	b725                	j	e0000832 <hmac_smoketest+0x2a6>
e000090c:	0000                	unimp
e000090e:	77c0                	flw	fs0,44(a5)
e0000910:	81b10303          	lb	t1,-2021(sp)
e0000914:	868a                	mv	a3,sp
e0000916:	ac94                	fsd	fa3,24(s1)
e0000918:	0000                	unimp
e000091a:	d4e0                	sw	s0,108(s1)
e000091c:	7ff5e797          	auipc	a5,0x7ff5e
e0000920:	5ac2                	lw	s5,48(sp)
e0000922:	3810                	fld	fa2,48(s0)
e0000924:	0000                	unimp
e0000926:	4110                	lw	a2,0(a0)
e0000928:	3522                	fld	fa0,40(sp)
e000092a:	ba9e                	fsd	ft7,368(sp)
e000092c:	348d5407          	0x348d5407
e0000930:	0000                	unimp
e0000932:	6680                	flw	fs0,8(a3)
e0000934:	8f7a                	mv	t5,t5
e0000936:	33137ff3          	csrrci	t6,0x331,6
e000093a:	953a                	add	a0,a0,a4
e000093c:	0000                	unimp
e000093e:	4f80                	lw	s0,24(a5)
e0000940:	36f6                	fld	fa3,376(sp)
e0000942:	1751                	addi	a4,a4,-12
e0000944:	753d926f          	jal	tp,e00da896 <fromhost+0xca886>
e0000948:	0000                	unimp
e000094a:	6720                	flw	fs0,72(a4)
e000094c:	3dc5ccab          	0x3dc5ccab
e0000950:	586b186b          	0x586b186b
e0000954:	0000                	unimp
e0000956:	0ab0                	addi	a2,sp,344
e0000958:	fc0e                	fsw	ft3,56(sp)
e000095a:	b1b9                	j	e00005a8 <hmac_smoketest+0x1c>
e000095c:	ebb61e5b          	p.machhsn	t3,a2,s11,21
e0000960:	0000                	unimp
e0000962:	f2e0                	fsw	fs0,100(a3)
e0000964:	7b5f f754 88ed      	0x88edf7547b5f
e000096a:	0000c707          	0xc707
e000096e:	0bd0                	addi	a2,sp,468
e0000970:	b40d                	j	e0000392 <printf+0xd2>
e0000972:	97122753          	0x97122753
e0000976:	000099bf e3c962a0 	0xe3c962a0000099bf
e000097e:	96ec                	0x96ec
e0000980:	b9fd                	j	e000067e <hmac_smoketest+0xf2>
e0000982:	3bf5                	jal	e000077e <hmac_smoketest+0x1f2>
e0000984:	0000                	unimp
e0000986:	9260                	0x9260
e0000988:	2b9e                	fld	fs7,448(sp)
e000098a:	4060d1b7          	lui	gp,0x4060d
e000098e:	555d                	li	a0,-9
e0000990:	0000                	unimp
e0000992:	05e0                	addi	s0,sp,716
e0000994:	223fcef7          	0x223fcef7
e0000998:	9b92                	add	s7,s7,tp
e000099a:	47fc                	lw	a5,76(a5)
e000099c:	0000                	unimp
e000099e:	73e0                	flw	fs0,100(a5)
e00009a0:	761e                	flw	fa2,228(sp)
e00009a2:	48a2                	lw	a7,8(sp)
e00009a4:	0a35                	addi	s4,s4,13
e00009a6:	00008f6f          	jal	t5,e00089a6 <_bss_end+0x1e6a>
e00009aa:	5980                	lw	s0,48(a1)
e00009ac:	62bc                	flw	fa5,64(a3)
e00009ae:	6dc4                	flw	fs1,28(a1)
e00009b0:	c179                	beqz	a0,e0000a76 <hmac_smoketest+0x4ea>
e00009b2:	52de                	lw	t0,244(sp)
e00009b4:	0000                	unimp
e00009b6:	9df0                	0x9df0
e00009b8:	29cc                	fld	fa1,144(a1)
e00009ba:	61b4                	flw	fa3,64(a1)
e00009bc:	e472                	fsw	ft8,8(sp)
e00009be:	dae8                	sw	a0,116(a3)
e00009c0:	0000                	unimp
e00009c2:	18b0                	addi	a2,sp,120
e00009c4:	0c70                	addi	a2,sp,540
e00009c6:	7e7dc567          	0x7e7dc567
e00009ca:	b03e                	fsd	fa5,32(sp)
e00009cc:	0000                	unimp
e00009ce:	66c0                	flw	fs0,12(a3)
e00009d0:	cb3e                	sw	a5,148(sp)
e00009d2:	356c6913          	ori	s2,s8,854
e00009d6:	7d10                	flw	fa2,56(a0)
e00009d8:	0000                	unimp
e00009da:	3d20                	fld	fs0,120(a0)
e00009dc:	3c52                	fld	fs8,304(sp)
e00009de:	56e8                	lw	a0,108(a3)
e00009e0:	42d0                	lw	a2,4(a3)
e00009e2:	9a3d                	andi	a2,a2,-17
e00009e4:	0000                	unimp
e00009e6:	35d0                	fld	fa2,168(a1)
e00009e8:	082e                	slli	a6,a6,0xb
e00009ea:	df99238b          	p.lw	t2,-519(s2!)
e00009ee:	1f08                	addi	a0,sp,944
e00009f0:	0000                	unimp
e00009f2:	30e0                	fld	fs0,224(s1)
e00009f4:	c33a                	sw	a4,132(sp)
e00009f6:	adc5                	j	e00010e6 <hmac_smoketest+0xb5a>
e00009f8:	7509                	lui	a0,0xfffe2
e00009fa:	3500                	fld	fs0,40(a0)
e00009fc:	0000                	unimp
e00009fe:	c300                	sw	s0,0(a4)
e0000a00:	b9d2                	fsd	fs4,240(sp)
e0000a02:	f6881e47          	0xf6881e47
e0000a06:	de04                	sw	s1,56(a2)
e0000a08:	0000                	unimp
e0000a0a:	4b90                	lw	a2,16(a5)
e0000a0c:	8dbc                	0x8dbc
e0000a0e:	f1d184d3          	0xf1d184d3
e0000a12:	f550                	fsw	fa2,44(a0)
e0000a14:	0000                	unimp
e0000a16:	6b30                	flw	fa2,80(a4)
e0000a18:	2f2a                	fld	ft10,136(sp)
e0000a1a:	8b2c                	0x8b2c
e0000a1c:	6858                	flw	fa4,20(s0)
e0000a1e:	ca41                	beqz	a2,e0000aae <hmac_smoketest+0x522>
e0000a20:	0000                	unimp
e0000a22:	0ea0                	addi	s0,sp,856
e0000a24:	27dd                	jal	e000120a <hmac_smoketest+0xc7e>
e0000a26:	fb22                	fsw	fs0,180(sp)
e0000a28:	3f0a                	fld	ft10,160(sp)
e0000a2a:	2ed4                	fld	fa3,152(a3)
e0000a2c:	0000                	unimp
e0000a2e:	e600                	fsw	fs0,8(a2)
e0000a30:	404e                	0x404e
e0000a32:	8c79                	and	s0,s0,a4
e0000a34:	8dc6                	mv	s11,a7
e0000a36:	8bcd                	andi	a5,a5,19
e0000a38:	0000                	unimp
e0000a3a:	1f40                	addi	s0,sp,948
e0000a3c:	491d                	li	s2,7
e0000a3e:	db76b6e3          	p.bneimm	a3,-9,e00007ea <hmac_smoketest+0x25e>
e0000a42:	3b00                	fld	fs0,48(a4)
e0000a44:	0000                	unimp
e0000a46:	fe30                	fsw	fa2,120(a2)
e0000a48:	e91cda63          	ble	a7,s9,e00000dc <uart_getchar+0x4>
e0000a4c:	ca44                	sw	s1,20(a2)
e0000a4e:	7196                	flw	ft3,100(sp)
e0000a50:	0000                	unimp
e0000a52:	e270                	fsw	fa2,68(a2)
e0000a54:	5525                	li	a0,-23
e0000a56:	1564                	addi	s1,sp,684
e0000a58:	0000                	unimp
e0000a5a:	44f0                	lw	a2,76(s1)
e0000a5c:	0000                	unimp
e0000a5e:	1d40                	addi	s0,sp,692
e0000a60:	0000                	unimp
e0000a62:	1000                	addi	s0,sp,32
e0000a64:	0004                	addi	s1,sp,0
e0000a66:	0000                	unimp
e0000a68:	0000                	unimp
e0000a6a:	3ac0                	fld	fs0,176(a3)
	...
e0000ab4:	0000                	unimp
e0000ab6:	f910                	fsw	fa2,48(a0)
e0000ab8:	0000                	unimp
e0000aba:	4000                	lw	s0,0(s0)
e0000abc:	0000                	unimp
e0000abe:	0000                	unimp
e0000ac0:	0000                	unimp
e0000ac2:	9560                	0x9560
e0000ac4:	0002                	0x2
e0000ac6:	4800                	lw	s0,16(s0)
e0000ac8:	0000                	unimp
e0000aca:	f640                	fsw	fs0,44(a2)
	...
e0000b8c:	0001                	nop
e0000b8e:	e38c                	fsw	fa1,0(a5)
e0000b90:	0800                	addi	s0,sp,16
e0000b92:	0732                	slli	a4,a4,0xc
e0000b94:	0000                	unimp
e0000b96:	06f0                	addi	a2,sp,844
e0000b98:	4c00                	lw	s0,24(s0)
e0000b9a:	9562                	add	a0,a0,s8
e0000b9c:	0001                	nop
e0000b9e:	06fc                	addi	a5,sp,844
e0000ba0:	0000                	unimp
e0000ba2:	0730                	addi	a2,sp,904
e0000ba4:	0001                	nop
e0000ba6:	438c                	lw	a1,0(a5)
e0000ba8:	0001                	nop
e0000baa:	073c                	addi	a5,sp,904
e0000bac:	0000                	unimp
e0000bae:	0730                	addi	a2,sp,904
e0000bb0:	9000                	0x9000
e0000bb2:	e1b2                	fsw	fa2,192(sp)
e0000bb4:	0001                	nop
e0000bb6:	06fc                	addi	a5,sp,844
e0000bb8:	0000                	unimp
e0000bba:	0730                	addi	a2,sp,904
e0000bbc:	0001                	nop
e0000bbe:	438c                	lw	a1,0(a5)
e0000bc0:	0001                	nop
e0000bc2:	073c                	addi	a5,sp,904
e0000bc4:	0000                	unimp
e0000bc6:	0730                	addi	a2,sp,904
e0000bc8:	d400                	sw	s0,40(s0)
e0000bca:	1e42                	slli	t3,t3,0x30
e0000bcc:	0001                	nop
e0000bce:	06fc                	addi	a5,sp,844
e0000bd0:	0000                	unimp
e0000bd2:	0730                	addi	a2,sp,904
e0000bd4:	0001                	nop
e0000bd6:	438c                	lw	a1,0(a5)
e0000bd8:	0001                	nop
e0000bda:	073c                	addi	a5,sp,904
e0000bdc:	0000                	unimp
e0000bde:	0730                	addi	a2,sp,904
e0000be0:	0001                	nop
e0000be2:	438c                	lw	a1,0(a5)
e0000be4:	0001                	nop
e0000be6:	073c                	addi	a5,sp,904
e0000be8:	0000                	unimp
e0000bea:	0730                	addi	a2,sp,904
e0000bec:	0001                	nop
e0000bee:	438c                	lw	a1,0(a5)
e0000bf0:	0001                	nop
e0000bf2:	073c                	addi	a5,sp,904
e0000bf4:	0000                	unimp
e0000bf6:	0730                	addi	a2,sp,904
e0000bf8:	0001                	nop
e0000bfa:	438c                	lw	a1,0(a5)
e0000bfc:	0001                	nop
e0000bfe:	073c                	addi	a5,sp,904
e0000c00:	0000                	unimp
e0000c02:	0730                	addi	a2,sp,904
e0000c04:	0001                	nop
e0000c06:	438c                	lw	a1,0(a5)
e0000c08:	0001                	nop
e0000c0a:	073c                	addi	a5,sp,904
e0000c0c:	0000                	unimp
e0000c0e:	0730                	addi	a2,sp,904
e0000c10:	0001                	nop
e0000c12:	438c                	lw	a1,0(a5)
e0000c14:	0001                	nop
e0000c16:	073c                	addi	a5,sp,904
e0000c18:	0000                	unimp
e0000c1a:	0730                	addi	a2,sp,904
e0000c1c:	0001                	nop
e0000c1e:	438c                	lw	a1,0(a5)
e0000c20:	0001                	nop
e0000c22:	073c                	addi	a5,sp,904
e0000c24:	0000                	unimp
e0000c26:	0730                	addi	a2,sp,904
e0000c28:	0001                	nop
e0000c2a:	438c                	lw	a1,0(a5)
e0000c2c:	0001                	nop
e0000c2e:	073c                	addi	a5,sp,904
e0000c30:	0000                	unimp
e0000c32:	0730                	addi	a2,sp,904
e0000c34:	0001                	nop
e0000c36:	438c                	lw	a1,0(a5)
e0000c38:	0001                	nop
e0000c3a:	073c                	addi	a5,sp,904
e0000c3c:	0000                	unimp
e0000c3e:	0730                	addi	a2,sp,904
e0000c40:	d800                	sw	s0,48(s0)
e0000c42:	9c72                	add	s8,s8,t3
e0000c44:	0001                	nop
e0000c46:	06fc                	addi	a5,sp,844
e0000c48:	0000                	unimp
e0000c4a:	0730                	addi	a2,sp,904
e0000c4c:	4418                	lw	a4,8(s0)
e0000c4e:	00024753          	fadd.s	fa4,ft4,ft0,rmm
e0000c52:	0000193f 68101970 	0x681019700000193f
e0000c5a:	0020d00b          	p.lhu	zero,2(ra!)
e0000c5e:	0000113f 71281170 	0x712811700000113f
e0000c66:	0000f38f          	0xf38f
e0000c6a:	2930                	fld	fa2,80(a0)
e0000c6c:	0000                	unimp
e0000c6e:	2970                	fld	fa2,208(a0)
e0000c70:	0002                	0x2
e0000c72:	0529f38f          	0x529f38f
e0000c76:	00005173          	csrrwi	sp,0x0,0
e0000c7a:	0730                	addi	a2,sp,904
e0000c7c:	b418                	fsd	fa4,40(s0)
e0000c7e:	bb28                	fsd	fa0,112(a4)
e0000c80:	2850                	fld	fa2,144(s0)
e0000c82:	0000593b          	0x593b
e0000c86:	5130                	lw	a2,96(a0)
e0000c88:	5060                	lw	s0,100(s0)
e0000c8a:	c91e                	sw	t2,144(sp)
e0000c8c:	0004                	addi	s1,sp,0
e0000c8e:	6130                	flw	fa2,64(a0)
e0000c90:	0000                	unimp
e0000c92:	6170                	flw	fa2,68(a0)
e0000c94:	91b0513f 00025172 	0x2517291b0513f
e0000c9c:	0000                	unimp
e0000c9e:	8b10                	0x8b10
e0000ca0:	3ff8593f 0002597b 	0x2597b3ff8593f
e0000ca8:	0000                	unimp
e0000caa:	c650                	sw	a2,12(a2)
e0000cac:	0000                	unimp
e0000cae:	88a0                	0x88a0
e0000cb0:	01dc                	addi	a5,sp,196
e0000cb2:	4172                	lw	sp,28(sp)
e0000cb4:	0000                	unimp
e0000cb6:	fa50                	fsw	fa2,52(a2)
e0000cb8:	0000                	unimp
e0000cba:	7e40                	flw	fs0,60(a2)
e0000cbc:	8440                	0x8440
e0000cbe:	4970                	lw	a2,84(a0)
e0000cc0:	0000                	unimp
e0000cc2:	4130                	lw	a2,64(a0)
e0000cc4:	db200947          	fmsub.d	fs2,ft0,fs2,fs11,rne
e0000cc8:	7c48                	flw	fa0,60(s0)
e0000cca:	8630                	0x8630
e0000ccc:	0000                	unimp
e0000cce:	4930                	lw	a2,80(a0)
e0000cd0:	4119                	li	sp,6
e0000cd2:	3b20                	fld	fs0,112(a4)
e0000cd4:	0042                	0x42
e0000cd6:	2820                	fld	fs0,80(s0)
e0000cd8:	0000                	unimp
e0000cda:	2830                	fld	fa2,80(s0)
e0000cdc:	9500                	0x9500
e0000cde:	6e44                	flw	fs1,28(a2)
e0000ce0:	e946                	fsw	fa7,144(sp)
e0000ce2:	06ff                	0x6ff
e0000ce4:	0000                	unimp
e0000ce6:	ce30                	sw	a2,88(a2)
e0000ce8:	0b56                	slli	s6,s6,0x15
e0000cea:	3000                	fld	fs0,32(s0)
e0000cec:	2b300b57          	0x2b300b57
e0000cf0:	0000                	unimp
e0000cf2:	e630                	fsw	fa2,72(a2)
e0000cf4:	0029                	c.addi	zero,10
e0000cf6:	8750                	0x8750
e0000cf8:	b630032f          	0xb630032f
e0000cfc:	0000                	unimp
e0000cfe:	2930                	fld	fa2,80(a0)
e0000d00:	de30                	sw	a2,120(a2)
e0000d02:	46e6                	lw	a3,88(sp)
e0000d04:	0052                	0x52
e0000d06:	5110                	lw	a2,32(a0)
e0000d08:	0000                	unimp
e0000d0a:	0230                	addi	a2,sp,264
e0000d0c:	0b51                	addi	s6,s6,20
e0000d0e:	a230                	fsd	fa2,64(a2)
e0000d10:	3638082f          	0x3638082f
e0000d14:	0000                	unimp
e0000d16:	eb50                	fsw	fa2,20(a4)
e0000d18:	01b02b57          	pv.add.h.div2	s6,zero,s11
e0000d1c:	0008                	addi	a0,sp,0
e0000d1e:	9630                	0x9630
e0000d20:	0000                	unimp
e0000d22:	0820                	addi	s0,sp,24
e0000d24:	0c2e                	slli	s8,s8,0xb
e0000d26:	c380                	sw	s0,0(a5)
e0000d28:	0b56                	slli	s6,s6,0x15
e0000d2a:	2b30                	fld	fa2,80(a4)
e0000d2c:	0000                	unimp
e0000d2e:	2b30                	fld	fa2,80(a4)
e0000d30:	2029                	jal	e0000d3a <hmac_smoketest+0x7ae>
e0000d32:	9380                	0x9380
e0000d34:	4630032f          	0x4630032f
e0000d38:	0000                	unimp
e0000d3a:	2930                	fld	fa2,80(a0)
e0000d3c:	0a58                	addi	a4,sp,276
e0000d3e:	4564                	lw	s1,76(a0)
e0000d40:	0c50                	addi	a2,sp,532
e0000d42:	3334                	fld	fa3,96(a4)
e0000d44:	0000                	unimp
e0000d46:	2b30                	fld	fa2,80(a4)
e0000d48:	0062                	0x62
e0000d4a:	7910                	flw	fa2,48(a0)
e0000d4c:	062e                	slli	a2,a2,0xb
e0000d4e:	2830                	fld	fa2,80(s0)
e0000d50:	0000                	unimp
e0000d52:	e630                	fsw	fa2,72(a2)
e0000d54:	5110                	lw	a2,32(a0)
e0000d56:	4dc0                	lw	s0,28(a1)
e0000d58:	0230                	addi	a2,sp,264
e0000d5a:	0552                	slli	a0,a0,0x14
e0000d5c:	0000                	unimp
e0000d5e:	6110                	flw	fa2,0(a0)
e0000d60:	3638                	fld	fa4,104(a2)
e0000d62:	d4d1                	beqz	s1,e0000cee <hmac_smoketest+0x762>
e0000d64:	eb56                	fsw	fs5,148(sp)
e0000d66:	0000082f          	0x82f
e0000d6a:	ae30                	fsd	fa2,88(a2)
e0000d6c:	0000                	unimp
e0000d6e:	a560                	fsd	fs0,200(a0)
e0000d70:	0820                	addi	s0,sp,24
e0000d72:	0008                	addi	a0,sp,0
e0000d74:	0000                	unimp
e0000d76:	0b50                	addi	a2,sp,404
e0000d78:	4812                	lw	a6,4(sp)
e0000d7a:	000288ab          	p.sb	zero,17(t0!)
e0000d7e:	0000103f 3c241170 	0x3c2411700000103f
e0000d86:	b754                	fsd	fa3,168(a4)
e0000d88:	0824                	addi	s1,sp,24
e0000d8a:	3324                	fld	fs1,96(a4)
e0000d8c:	0000                	unimp
e0000d8e:	1020                	addi	s0,sp,40
e0000d90:	5824                	lw	s1,112(s0)
e0000d92:	4755                	li	a4,21
e0000d94:	4e24                	lw	s1,88(a2)
e0000d96:	5724                	lw	s1,104(a4)
e0000d98:	0000                	unimp
e0000d9a:	4520                	lw	s0,72(a0)
e0000d9c:	7c25                	lui	s8,0xfffe9
e0000d9e:	2005                	jal	e0000dbe <hmac_smoketest+0x832>
e0000da0:	6a25                	lui	s4,0x9
e0000da2:	7325                	lui	t1,0xfffe9
e0000da4:	0000                	unimp
e0000da6:	6120                	flw	fs0,64(a0)
e0000da8:	9865                	andi	s0,s0,-7
e0000daa:	a754                	fsd	fa3,136(a4)
e0000dac:	8e25                	xor	a2,a2,s1
e0000dae:	9725                	srai	a4,a4,0x29
e0000db0:	0000                	unimp
e0000db2:	8520                	0x8520
e0000db4:	bc64                	fsd	fs1,248(s0)
e0000db6:	3c74                	fld	fa3,248(s0)
e0000db8:	aa64                	fsd	fs1,208(a2)
e0000dba:	b364                	fsd	fs1,224(a4)
e0000dbc:	0000                	unimp
e0000dbe:	a160                	fsd	fs0,192(a0)
e0000dc0:	d864                	sw	s1,116(s0)
e0000dc2:	0a95                	addi	s5,s5,5
e0000dc4:	ce64                	sw	s1,92(a2)
e0000dc6:	d764                	sw	s1,108(a4)
e0000dc8:	0000                	unimp
e0000dca:	c560                	sw	s0,76(a0)
e0000dcc:	fc65                	bnez	s0,e0000dc4 <hmac_smoketest+0x838>
e0000dce:	6dc5                	lui	s11,0x11
e0000dd0:	ea65                	bnez	a2,e0000ec0 <hmac_smoketest+0x934>
e0000dd2:	f365                	bnez	a4,e0000db2 <hmac_smoketest+0x826>
e0000dd4:	0000                	unimp
e0000dd6:	e160                	fsw	fs0,68(a0)
e0000dd8:	0730                	addi	a2,sp,904
e0000dda:	41b9                	li	gp,14
e0000ddc:	2935                	jal	e0001218 <hmac_smoketest+0xc8c>
e0000dde:	082e                	slli	a6,a6,0xb
e0000de0:	0000                	unimp
e0000de2:	2d60                	fld	fs0,216(a0)
e0000de4:	7810                	flw	fa2,48(s0)
e0000de6:	5910                	lw	a2,48(a0)
e0000de8:	11342a23          	sw	s3,276(s0)
e0000dec:	0000                	unimp
e0000dee:	0020                	addi	s0,sp,8
e0000df0:	0002                	0x2
e0000df2:	0018ce43          	fmadd.s	ft8,fa7,ft1,ft0,rmm
e0000df6:	2f30                	fld	fa2,88(a4)
e0000df8:	0000                	unimp
e0000dfa:	0820                	addi	s0,sp,24
e0000dfc:	3136                	fld	ft2,360(sp)
e0000dfe:	1380                	addi	s0,sp,480
e0000e00:	309ff72f          	0x309ff72f
e0000e04:	0000                	unimp
e0000e06:	2930                	fld	fa2,80(a0)
e0000e08:	5130                	lw	a2,96(a0)
e0000e0a:	0c70                	addi	a2,sp,540
e0000e0c:	2b38                	fld	fa4,80(a4)
e0000e0e:	062e                	slli	a2,a2,0xb
e0000e10:	0000                	unimp
e0000e12:	8030                	0x8030
e0000e14:	d500                	sw	s0,40(a0)
e0000e16:	e1bc                	fsw	fa5,64(a1)
e0000e18:	6552a23f 88500000 	0x885000006552a23f
e0000e20:	082c                	addi	a1,sp,24
e0000e22:	3918                	fld	fa4,48(a0)
e0000e24:	0052                	0x52
e0000e26:	10c0                	addi	s0,sp,100
e0000e28:	0000                	unimp
e0000e2a:	2230                	fld	fa2,64(a2)
e0000e2c:	4202                	lw	tp,0(sp)
e0000e2e:	41029b23          	sh	a6,1046(t0)
e0000e32:	00003733          	snez	a4,zero
e0000e36:	2f30                	fld	fa2,88(a4)
e0000e38:	0820                	addi	s0,sp,24
e0000e3a:	96e8                	0x96e8
e0000e3c:	3634                	fld	fa3,104(a2)
e0000e3e:	0731                	addi	a4,a4,12
e0000e40:	0000                	unimp
e0000e42:	3850                	fld	fa2,176(s0)
e0000e44:	e334                	fsw	fa3,64(a4)
e0000e46:	dfff                	0xdfff
e0000e48:	0029                	c.addi	zero,10
e0000e4a:	30d0                	fld	fa2,160(s1)
e0000e4c:	0000                	unimp
e0000e4e:	3830                	fld	fa2,112(s0)
e0000e50:	2890                	fld	fa2,16(s1)
e0000e52:	b380                	fsd	fs0,32(a5)
e0000e54:	4630                	lw	a2,72(a2)
e0000e56:	06e0                	addi	s0,sp,844
e0000e58:	0000                	unimp
e0000e5a:	0630                	addi	a2,sp,776
e0000e5c:	0018                	addi	a4,sp,0
e0000e5e:	9750                	0x9750
e0000e60:	2918                	fld	fa4,16(a0)
e0000e62:	0820                	addi	s0,sp,24
e0000e64:	0000                	unimp
e0000e66:	0820                	addi	s0,sp,24
e0000e68:	3028                	fld	fa0,96(s0)
e0000e6a:	0003056b          	0x3056b
e0000e6e:	2930                	fld	fa2,80(a0)
e0000e70:	0000                	unimp
e0000e72:	2970                	fld	fa2,208(a0)
e0000e74:	0030                	addi	a2,sp,8
e0000e76:	7e40                	flw	fs0,60(a2)
e0000e78:	0028                	addi	a0,sp,8
e0000e7a:	8630                	0x8630
e0000e7c:	0000                	unimp
e0000e7e:	3030                	fld	fa2,96(s0)
e0000e80:	983a                	add	a6,a6,a4
e0000e82:	ab2a                	fsd	fa0,400(sp)
e0000e84:	0002                	0x2
e0000e86:	0000383f 00183970 	0x1839700000383f
e0000e8e:	dc70                	sw	a2,124(s0)
e0000e90:	023a                	slli	tp,tp,0xe
e0000e92:	0820                	addi	s0,sp,24
e0000e94:	0000                	unimp
e0000e96:	0230                	addi	a2,sp,264
e0000e98:	416c                	lw	a1,68(a0)
e0000e9a:	ae4c                	fsd	fa1,152(a2)
e0000e9c:	8810                	0x8810
e0000e9e:	0000206f          	j	e0002e9e <hmac_smoketest+0x2912>
e0000ea2:	1130                	addi	a2,sp,168
e0000ea4:	c26c                	sw	a1,68(a2)
e0000ea6:	56ec                	lw	a1,108(a3)
e0000ea8:	81ec                	0x81ec
e0000eaa:	a22c                	fsd	fa1,64(a2)
e0000eac:	0000                	unimp
e0000eae:	61a0                	flw	fs0,64(a1)
e0000eb0:	436d                	li	t1,27
e0000eb2:	18ad                	addi	a7,a7,-21
e0000eb4:	02ec                	addi	a1,sp,332
e0000eb6:	232d                	jal	e00013e0 <hmac_smoketest+0xe54>
e0000eb8:	0000                	unimp
e0000eba:	e2a0                	fsw	fs0,64(a3)
e0000ebc:	c46d                	beqz	s0,e0000fa6 <hmac_smoketest+0xa1a>
e0000ebe:	4a9d                	li	s5,7
e0000ec0:	83ed                	srli	a5,a5,0x1b
e0000ec2:	a42d                	j	e00010ec <hmac_smoketest+0xb60>
e0000ec4:	0000                	unimp
e0000ec6:	63a0                	flw	fs0,64(a5)
e0000ec8:	4d6c                	lw	a1,92(a0)
e0000eca:	9c7c                	0x9c7c
e0000ecc:	0ced                	addi	s9,s9,27
e0000ece:	2d2c                	fld	fa1,88(a0)
e0000ed0:	0000                	unimp
e0000ed2:	e4a0                	fsw	fs0,72(s1)
e0000ed4:	ce6c                	sw	a1,92(a2)
e0000ed6:	538c                	lw	a1,32(a5)
e0000ed8:	8dec                	0x8dec
e0000eda:	ae2c                	fsd	fa1,88(a2)
e0000edc:	0000                	unimp
e0000ede:	6da0                	flw	fs0,88(a1)
e0000ee0:	4f6d                	li	t5,27
e0000ee2:	1dcd                	addi	s11,s11,-13
e0000ee4:	0eec                	addi	a1,sp,860
e0000ee6:	2f2d                	jal	e0001620 <hmac_smoketest+0x1094>
e0000ee8:	0000                	unimp
e0000eea:	eea0                	fsw	fs0,88(a3)
e0000eec:	0002                	0x2
e0000eee:	8fed46e3          	blt	s10,t5,e00007da <hmac_smoketest+0x24e>
e0000ef2:	2f3d                	jal	e0001630 <hmac_smoketest+0x10a4>
e0000ef4:	0000                	unimp
e0000ef6:	6fa0                	flw	fs0,88(a5)
e0000ef8:	f69c                	fsw	fa5,40(a3)
e0000efa:	f9dd8e43          	fmadd.s	ft8,fs11,ft9,ft11,rne
e0000efe:	00000163          	beqz	zero,e0000f00 <hmac_smoketest+0x974>
e0000f02:	a960                	fsd	fs0,208(a0)
e0000f04:	5400                	lw	s0,40(s0)
e0000f06:	3dc1                	jal	e0000dd6 <hmac_smoketest+0x84a>
e0000f08:	0700                	addi	s0,sp,896
e0000f0a:	000006f7          	0x6f7
e0000f0e:	0ef0                	addi	a2,sp,860
e0000f10:	416c                	lw	a1,68(a0)
e0000f12:	ae4c                	fsd	fa1,152(a2)
e0000f14:	8810                	0x8810
e0000f16:	0000206f          	j	e0002f16 <hmac_smoketest+0x298a>
e0000f1a:	1130                	addi	a2,sp,168
e0000f1c:	c26c                	sw	a1,68(a2)
e0000f1e:	56ec                	lw	a1,108(a3)
e0000f20:	81ec                	0x81ec
e0000f22:	a22c                	fsd	fa1,64(a2)
e0000f24:	0000                	unimp
e0000f26:	61a0                	flw	fs0,64(a1)
e0000f28:	436d                	li	t1,27
e0000f2a:	18ad                	addi	a7,a7,-21
e0000f2c:	02ec                	addi	a1,sp,332
e0000f2e:	232d                	jal	e0001458 <hmac_smoketest+0xecc>
e0000f30:	0000                	unimp
e0000f32:	e2a0                	fsw	fs0,64(a3)
e0000f34:	c46d                	beqz	s0,e000101e <hmac_smoketest+0xa92>
e0000f36:	4a9d                	li	s5,7
e0000f38:	83ed                	srli	a5,a5,0x1b
e0000f3a:	a42d                	j	e0001164 <hmac_smoketest+0xbd8>
e0000f3c:	0000                	unimp
e0000f3e:	63a0                	flw	fs0,64(a5)
e0000f40:	4d6c                	lw	a1,92(a0)
e0000f42:	9c7c                	0x9c7c
e0000f44:	0ced                	addi	s9,s9,27
e0000f46:	2d2c                	fld	fa1,88(a0)
e0000f48:	0000                	unimp
e0000f4a:	e4a0                	fsw	fs0,72(s1)
e0000f4c:	ce6c                	sw	a1,92(a2)
e0000f4e:	538c                	lw	a1,32(a5)
e0000f50:	8dec                	0x8dec
e0000f52:	ae2c                	fsd	fa1,88(a2)
e0000f54:	0000                	unimp
e0000f56:	6da0                	flw	fs0,88(a1)
e0000f58:	4f6d                	li	t5,27
e0000f5a:	1dcd                	addi	s11,s11,-13
e0000f5c:	0eec                	addi	a1,sp,860
e0000f5e:	2f2d                	jal	e0001698 <hmac_smoketest+0x110c>
e0000f60:	0000                	unimp
e0000f62:	eea0                	fsw	fs0,88(a3)
e0000f64:	0002                	0x2
e0000f66:	8fed46e3          	blt	s10,t5,e0000852 <hmac_smoketest+0x2c6>
e0000f6a:	2f3d                	jal	e00016a8 <hmac_smoketest+0x111c>
e0000f6c:	0000                	unimp
e0000f6e:	6fa0                	flw	fs0,88(a5)
e0000f70:	956c0163          	beq	s8,s6,e00000b2 <uart_send>
e0000f74:	2f3d                	jal	e00016b2 <hmac_smoketest+0x1126>
e0000f76:	4102                	lw	sp,0(sp)
e0000f78:	0000                	unimp
e0000f7a:	a960                	fsd	fs0,208(a0)
e0000f7c:	61b006f7          	0x61b006f7
e0000f80:	1b000ef3          	0x1b000ef3
e0000f84:	0000                	unimp
e0000f86:	7a10                	flw	fa2,48(a2)
e0000f88:	8810                	0x8810
e0000f8a:	cfff                	0xcfff
e0000f8c:	0011                	c.addi	zero,4
e0000f8e:	1130                	addi	a2,sp,168
e0000f90:	0000                	unimp
e0000f92:	0200                	addi	s0,sp,256
e0000f94:	81ec                	0x81ec
e0000f96:	1b2c                	addi	a1,sp,440
e0000f98:	416c                	lw	a1,68(a0)
e0000f9a:	61ac                	flw	fa1,64(a1)
e0000f9c:	0000                	unimp
e0000f9e:	2060                	fld	fs0,192(s0)
e0000fa0:	02ec                	addi	a1,sp,332
e0000fa2:	5a9d                	li	s5,-25
e0000fa4:	c26c                	sw	a1,68(a2)
e0000fa6:	e2ac                	fsw	fa1,64(a3)
e0000fa8:	0000                	unimp
e0000faa:	a220                	fsd	fs0,64(a2)
e0000fac:	83ed                	srli	a5,a5,0x1b
e0000fae:	98ad                	andi	s1,s1,-21
e0000fb0:	436d                	li	t1,27
e0000fb2:	63ad                	lui	t2,0xb
e0000fb4:	0000                	unimp
e0000fb6:	2320                	fld	fs0,64(a4)
e0000fb8:	0ced                	addi	s9,s9,27
e0000fba:	6c7c                	flw	fa5,92(s0)
e0000fbc:	c46d                	beqz	s0,e00010a6 <hmac_smoketest+0xb1a>
e0000fbe:	e4ad                	bnez	s1,e0001028 <hmac_smoketest+0xa9c>
e0000fc0:	0000                	unimp
e0000fc2:	a420                	fsd	fs0,72(s0)
e0000fc4:	8dec                	0x8dec
e0000fc6:	11bc                	addi	a5,sp,232
e0000fc8:	4d6c                	lw	a1,92(a0)
e0000fca:	6dac                	flw	fa1,88(a1)
e0000fcc:	0000                	unimp
e0000fce:	2d20                	fld	fs0,88(a0)
e0000fd0:	0eec                	addi	a1,sp,860
e0000fd2:	5ffd                	li	t6,-1
e0000fd4:	ce6c                	sw	a1,92(a2)
e0000fd6:	eeac                	fsw	fa1,88(a3)
e0000fd8:	0000                	unimp
e0000fda:	ae20                	fsd	fs0,88(a2)
e0000fdc:	8fed                	and	a5,a5,a1
e0000fde:	9dcd                	0x9dcd
e0000fe0:	4f6d                	li	t5,27
e0000fe2:	6fad                	lui	t6,0xb
e0000fe4:	0000                	unimp
e0000fe6:	2f20                	fld	fs0,88(a4)
e0000fe8:	2f3d                	jal	e0001726 <hmac_smoketest+0x119a>
e0000fea:	6912                	flw	fs2,4(sp)
e0000fec:	0002                	0x2
e0000fee:	0000a963          	p.beqimm	ra,0,e0001000 <hmac_smoketest+0xa74>
e0000ff2:	2f30                	fld	fa2,88(a4)
e0000ff4:	aff00ef3          	0xaff00ef3
e0000ff8:	dd5c0163          	beq	s8,s5,e00005ba <hmac_smoketest+0x2e>
e0000ffc:	0000                	unimp
e0000ffe:	4100                	lw	s0,0(a0)
e0001000:	0010                	addi	a2,sp,0
e0001002:	0560                	addi	s0,sp,652
e0001004:	06f6                	slli	a3,a3,0x1d
e0001006:	ae00                	fsd	fs0,24(a2)
e0001008:	0000                	unimp
e000100a:	db00                	sw	s0,48(a4)
e000100c:	416c                	lw	a1,68(a0)
e000100e:	ae4c                	fsd	fa1,152(a2)
e0001010:	8810                	0x8810
e0001012:	0000206f          	j	e0003012 <hmac_smoketest+0x2a86>
e0001016:	1130                	addi	a2,sp,168
e0001018:	c26c                	sw	a1,68(a2)
e000101a:	56ec                	lw	a1,108(a3)
e000101c:	81ec                	0x81ec
e000101e:	a22c                	fsd	fa1,64(a2)
e0001020:	0000                	unimp
e0001022:	61a0                	flw	fs0,64(a1)
e0001024:	436d                	li	t1,27
e0001026:	18ad                	addi	a7,a7,-21
e0001028:	02ec                	addi	a1,sp,332
e000102a:	232d                	jal	e0001554 <hmac_smoketest+0xfc8>
e000102c:	0000                	unimp
e000102e:	e2a0                	fsw	fs0,64(a3)
e0001030:	c46d                	beqz	s0,e000111a <hmac_smoketest+0xb8e>
e0001032:	4a9d                	li	s5,7
e0001034:	83ed                	srli	a5,a5,0x1b
e0001036:	a42d                	j	e0001260 <hmac_smoketest+0xcd4>
e0001038:	0000                	unimp
e000103a:	63a0                	flw	fs0,64(a5)
e000103c:	4d6c                	lw	a1,92(a0)
e000103e:	9c7c                	0x9c7c
e0001040:	0ced                	addi	s9,s9,27
e0001042:	2d2c                	fld	fa1,88(a0)
e0001044:	0000                	unimp
e0001046:	e4a0                	fsw	fs0,72(s1)
e0001048:	ce6c                	sw	a1,92(a2)
e000104a:	538c                	lw	a1,32(a5)
e000104c:	8dec                	0x8dec
e000104e:	ae2c                	fsd	fa1,88(a2)
e0001050:	0000                	unimp
e0001052:	6da0                	flw	fs0,88(a1)
e0001054:	4f6d                	li	t5,27
e0001056:	1dcd                	addi	s11,s11,-13
e0001058:	0eec                	addi	a1,sp,860
e000105a:	2f2d                	jal	e0001794 <hmac_smoketest+0x1208>
e000105c:	0000                	unimp
e000105e:	eea0                	fsw	fs0,88(a3)
e0001060:	0002                	0x2
e0001062:	8fed46e3          	blt	s10,t5,e000094e <hmac_smoketest+0x3c2>
e0001066:	2f3d                	jal	e00017a4 <hmac_smoketest+0x1218>
e0001068:	0000                	unimp
e000106a:	6fa0                	flw	fs0,88(a5)
e000106c:	956c0163          	beq	s8,s6,e00001ae <qprinti.constprop.1+0xe>
e0001070:	2f3d                	jal	e00017ae <hmac_smoketest+0x1222>
e0001072:	4102                	lw	sp,0(sp)
e0001074:	0000                	unimp
e0001076:	a960                	fsd	fs0,208(a0)
e0001078:	06f6                	slli	a3,a3,0x1d
e000107a:	cb20                	sw	s0,80(a4)
e000107c:	9f000ef3          	0x9f000ef3
e0001080:	0000                	unimp
e0001082:	5450                	lw	a2,44(s0)
e0001084:	8810                	0x8810
e0001086:	0010d23f 00001130 	0x11300010d23f
e000108e:	5a00                	lw	s0,48(a2)
e0001090:	81ec                	0x81ec
e0001092:	1b2c                	addi	a1,sp,440
e0001094:	416c                	lw	a1,68(a0)
e0001096:	61ac                	flw	fa1,64(a1)
e0001098:	0000                	unimp
e000109a:	2060                	fld	fs0,192(s0)
e000109c:	02ec                	addi	a1,sp,332
e000109e:	5a9d                	li	s5,-25
e00010a0:	c26c                	sw	a1,68(a2)
e00010a2:	e2ac                	fsw	fa1,64(a3)
e00010a4:	0000                	unimp
e00010a6:	a220                	fsd	fs0,64(a2)
e00010a8:	83ed                	srli	a5,a5,0x1b
e00010aa:	98ad                	andi	s1,s1,-21
e00010ac:	436d                	li	t1,27
e00010ae:	63ad                	lui	t2,0xb
e00010b0:	0000                	unimp
e00010b2:	2320                	fld	fs0,64(a4)
e00010b4:	0ced                	addi	s9,s9,27
e00010b6:	6c7c                	flw	fa5,92(s0)
e00010b8:	c46d                	beqz	s0,e00011a2 <hmac_smoketest+0xc16>
e00010ba:	e4ad                	bnez	s1,e0001124 <hmac_smoketest+0xb98>
e00010bc:	0000                	unimp
e00010be:	a420                	fsd	fs0,72(s0)
e00010c0:	8dec                	0x8dec
e00010c2:	11bc                	addi	a5,sp,232
e00010c4:	4d6c                	lw	a1,92(a0)
e00010c6:	6dac                	flw	fa1,88(a1)
e00010c8:	0000                	unimp
e00010ca:	2d20                	fld	fs0,88(a0)
e00010cc:	0eec                	addi	a1,sp,860
e00010ce:	5ffd                	li	t6,-1
e00010d0:	ce6c                	sw	a1,92(a2)
e00010d2:	eeac                	fsw	fa1,88(a3)
e00010d4:	0000                	unimp
e00010d6:	ae20                	fsd	fs0,88(a2)
e00010d8:	8fed                	and	a5,a5,a1
e00010da:	9dcd                	0x9dcd
e00010dc:	4f6d                	li	t5,27
e00010de:	6fad                	lui	t6,0xb
e00010e0:	0000                	unimp
e00010e2:	2f20                	fld	fs0,88(a4)
e00010e4:	2f3d                	jal	e0001822 <hmac_smoketest+0x1296>
e00010e6:	6912                	flw	fs2,4(sp)
e00010e8:	0002                	0x2
e00010ea:	0000a963          	p.beqimm	ra,0,e00010fc <hmac_smoketest+0xb70>
e00010ee:	2f30                	fld	fa2,88(a4)
e00010f0:	b7500ef3          	0xb7500ef3
e00010f4:	5b1c0163          	beq	s8,a7,e0001696 <hmac_smoketest+0x110a>
e00010f8:	0000                	unimp
e00010fa:	4100                	lw	s0,0(a0)
e00010fc:	0010                	addi	a2,sp,0
e00010fe:	2750                	fld	fa2,136(a4)
e0001100:	060006f7          	0x60006f7
e0001104:	0000                	unimp
e0001106:	2b00                	fld	fs0,16(a4)
e0001108:	7028                	flw	fa0,96(s0)
e000110a:	4919                	li	s2,6
e000110c:	29300003          	lb	zero,659(zero) # 293 <_min_stack-0x1d6d>
e0001110:	0000                	unimp
e0001112:	2970                	fld	fa2,208(a0)
e0001114:	0030                	addi	a2,sp,8
e0001116:	7e40                	flw	fs0,60(a2)
e0001118:	0028                	addi	a0,sp,8
e000111a:	8630                	0x8630
e000111c:	0000                	unimp
e000111e:	3030                	fld	fa2,96(s0)
e0001120:	d83a                	sw	a4,48(sp)
e0001122:	e758                	fsw	fa4,12(a4)
e0001124:	0002                	0x2
e0001126:	0000383f 07343970 	0x73439700000383f
e000112e:	3a99                	jal	e0000a84 <hmac_smoketest+0x4f8>
e0001130:	003a                	0x3a
e0001132:	2820                	fld	fs0,80(s0)
e0001134:	0000                	unimp
e0001136:	1030                	addi	a2,sp,40
e0001138:	0029                	c.addi	zero,10
e000113a:	2d631563          	bne	t1,s6,e0001404 <hmac_smoketest+0xe78>
e000113e:	0735                	addi	a4,a4,13
e0001140:	0000                	unimp
e0001142:	4120                	lw	s0,64(a0)
e0001144:	3c24                	fld	fs1,120(s0)
e0001146:	ba94                	fsd	fa3,48(a3)
e0001148:	2a24                	fld	fs1,80(a2)
e000114a:	3324                	fld	fs1,96(a4)
e000114c:	0000                	unimp
e000114e:	0920                	addi	s0,sp,152
e0001150:	5824                	lw	s1,112(s0)
e0001152:	4755                	li	a4,21
e0001154:	4e24                	lw	s1,88(a2)
e0001156:	5724                	lw	s1,104(a4)
e0001158:	0000                	unimp
e000115a:	4520                	lw	s0,72(a0)
e000115c:	7c25                	lui	s8,0xfffe9
e000115e:	2005                	jal	e000117e <hmac_smoketest+0xbf2>
e0001160:	6a25                	lui	s4,0x9
e0001162:	7325                	lui	t1,0xfffe9
e0001164:	0000                	unimp
e0001166:	6120                	flw	fs0,64(a0)
e0001168:	9865                	andi	s0,s0,-7
e000116a:	a754                	fsd	fa3,136(a4)
e000116c:	8e25                	xor	a2,a2,s1
e000116e:	9725                	srai	a4,a4,0x29
e0001170:	0000                	unimp
e0001172:	8520                	0x8520
e0001174:	bc64                	fsd	fs1,248(s0)
e0001176:	3c74                	fld	fa3,248(s0)
e0001178:	aa64                	fsd	fs1,208(a2)
e000117a:	b364                	fsd	fs1,224(a4)
e000117c:	0000                	unimp
e000117e:	a160                	fsd	fs0,192(a0)
e0001180:	d864                	sw	s1,116(s0)
e0001182:	0a95                	addi	s5,s5,5
e0001184:	ce64                	sw	s1,92(a2)
e0001186:	d764                	sw	s1,108(a4)
e0001188:	0000                	unimp
e000118a:	c560                	sw	s0,76(a0)
e000118c:	fc65                	bnez	s0,e0001184 <hmac_smoketest+0xbf8>
e000118e:	6dc5                	lui	s11,0x11
e0001190:	ea65                	bnez	a2,e0001280 <hmac_smoketest+0xcf4>
e0001192:	f365                	bnez	a4,e0001172 <hmac_smoketest+0xbe6>
e0001194:	0000                	unimp
e0001196:	e160                	fsw	fs0,68(a0)
e0001198:	0200                	addi	s0,sp,256
e000119a:	7810f913          	andi	s2,ra,1921
e000119e:	0730                	addi	a2,sp,904
e00011a0:	0000                	unimp
e00011a2:	1130                	addi	a2,sp,168
e00011a4:	226d                	jal	e000134e <hmac_smoketest+0xdc2>
e00011a6:	ba9d                	j	e0000b1c <hmac_smoketest+0x590>
e00011a8:	422d6067          	0x422d6067
e00011ac:	0000                	unimp
e00011ae:	1790                	addi	a2,sp,992
e00011b0:	7150                	flw	fa2,36(a0)
e00011b2:	00026dc7          	fmsub.s	fs11,ft4,ft0,ft0,unknown
e00011b6:	5130                	lw	a2,96(a0)
e00011b8:	0000                	unimp
e00011ba:	5170                	lw	a2,100(a0)
e00011bc:	1110                	addi	a2,sp,160
e00011be:	7e4c                	flw	fa1,60(a2)
e00011c0:	ae02                	fsd	ft0,280(sp)
e00011c2:	00005373          	csrrwi	t1,0x0,0
e00011c6:	0ef0                	addi	a2,sp,860
e00011c8:	b00c1317          	auipc	t1,0xb00c1
e00011cc:	0ef0                	addi	a2,sp,860
e00011ce:	3a00                	fld	fs0,48(a2)
e00011d0:	0000                	unimp
e00011d2:	02c0                	addi	s0,sp,324
e00011d4:	5130                	lw	a2,96(a0)
e00011d6:	8b20                	0x8b20
e00011d8:	5178                	lw	a4,100(a0)
e00011da:	0004                	addi	s1,sp,0
e00011dc:	0000                	unimp
e00011de:	42a0                	lw	s0,64(a3)
e00011e0:	517c                	lw	a5,100(a0)
e00011e2:	1c7f                	0x1c7f
e00011e4:	108a                	slli	ra,ra,0x22
e00011e6:	9114                	0x9114
e00011e8:	0000                	unimp
e00011ea:	c250                	sw	a2,4(a2)
e00011ec:	e6e45857          	0xe6e45857
e00011f0:	5131                	li	sp,-20
e00011f2:	c250                	sw	a2,4(a2)
e00011f4:	0000                	unimp
e00011f6:	0000                	unimp
e00011f8:	8290                	0x8290
e00011fa:	600a                	flw	ft0,128(sp)
e00011fc:	0ef8                	addi	a4,sp,860
e00011fe:	f801                	bnez	s0,e000110e <hmac_smoketest+0xb82>
e0001200:	0000                	unimp
e0001202:	6220                	flw	fs0,64(a2)
e0001204:	a058                	fsd	fa4,128(s0)
e0001206:	61b9                	lui	gp,0xe
e0001208:	59300003          	lb	zero,1427(zero) # 593 <_min_stack-0x1a6d>
e000120c:	0000                	unimp
e000120e:	5970                	lw	a2,116(a0)
e0001210:	bd01                	j	e0001020 <hmac_smoketest+0xa94>
e0001212:	cdc1                	beqz	a1,e00012aa <hmac_smoketest+0xd1e>
e0001214:	6510                	flw	fa2,8(a0)
e0001216:	0ef4                	addi	a3,sp,860
e0001218:	0000                	unimp
e000121a:	8080                	0x8080
e000121c:	3c01                	jal	e0000c2c <hmac_smoketest+0x6a0>
e000121e:	7230                	flw	fa2,96(a2)
e0001220:	5a20                	lw	s0,112(a2)
e0001222:	0ef8                	addi	a4,sp,860
e0001224:	0000                	unimp
e0001226:	8080                	0x8080
e0001228:	0efa                	slli	t4,t4,0x1e
e000122a:	fe40                	fsw	fs0,60(a2)
e000122c:	5136                	lw	sp,108(sp)
e000122e:	ad50                	fsd	fa2,152(a0)
e0001230:	0000                	unimp
e0001232:	5310                	lw	a2,32(a4)
e0001234:	5130                	lw	a2,96(a0)
e0001236:	01b0                	addi	a2,sp,200
e0001238:	00025177          	0x25177
e000123c:	0000                	unimp
e000123e:	6d00                	flw	fs0,24(a0)
e0001240:	9c734173          	0x9c734173
e0001244:	54020ef7          	0x54020ef7
e0001248:	0000                	unimp
e000124a:	3050                	fld	fa2,160(s0)
e000124c:	0289                	addi	t0,t0,2
e000124e:	2230                	fld	fa2,64(a2)
e0001250:	4130                	lw	a2,64(a0)
e0001252:	3240                	fld	fs0,160(a2)
e0001254:	0000                	unimp
e0001256:	0000                	unimp
e0001258:	5172                	lw	sp,60(sp)
e000125a:	f912                	fsw	ft4,176(sp)
e000125c:	6224                	flw	fs1,64(a2)
e000125e:	8a98                	0x8a98
e0001260:	0000                	unimp
e0001262:	5810                	lw	a2,48(s0)
e0001264:	14d20ef7          	0x14d20ef7
e0001268:	5130                	lw	a2,96(a0)
e000126a:	3250                	fld	fa2,160(a2)
e000126c:	0000                	unimp
e000126e:	0000                	unimp
e0001270:	6224                	flw	fs1,64(a2)
e0001272:	a6e8                	fsd	fa0,200(a3)
e0001274:	58100283          	lb	t0,1409(zero) # 581 <_min_stack-0x1a7f>
e0001278:	0000                	unimp
e000127a:	3800                	fld	fs0,48(s0)
e000127c:	5130                	lw	a2,96(a0)
e000127e:	c230                	sw	a2,64(a2)
e0001280:	5172                	lw	sp,60(sp)
e0001282:	0002                	0x2
e0001284:	0000                	unimp
e0001286:	0990                	addi	a2,sp,208
e0001288:	71b14173          	0x71b14173
e000128c:	24020ef7          	0x24020ef7
e0001290:	0000                	unimp
e0001292:	3c50                	fld	fa2,184(s0)
e0001294:	7ff34977          	0x7ff34977
e0001298:	1640413f 00000000 	0x1640413f
e00012a0:	0289                	addi	t0,t0,2
e00012a2:	0560                	addi	s0,sp,652
e00012a4:	4930                	lw	a2,80(a0)
e00012a6:	1a48                	addi	a0,sp,308
e00012a8:	0000                	unimp
e00012aa:	0000                	unimp
e00012ac:	5172                	lw	sp,60(sp)
e00012ae:	74d2                	flw	fs1,52(sp)
e00012b0:	6268                	flw	fa0,68(a2)
e00012b2:	00d8                	addi	a4,sp,68
e00012b4:	0000                	unimp
e00012b6:	5a20                	lw	s0,112(a2)
e00012b8:	5dc20ef7          	0x5dc20ef7
e00012bc:	5130                	lw	a2,96(a0)
e00012be:	3450                	fld	fa2,168(s0)
e00012c0:	0000                	unimp
e00012c2:	0000                	unimp
e00012c4:	6268                	flw	fa0,68(a2)
e00012c6:	b388                	fsd	fa0,32(a5)
e00012c8:	5a200283          	lb	t0,1442(zero) # 5a2 <_min_stack-0x1a5e>
e00012cc:	0000                	unimp
e00012ce:	0000                	unimp
e00012d0:	4225                	li	tp,9
e00012d2:	96e5                	srai	a3,a3,0x39
e00012d4:	5052                	0x5052
e00012d6:	4924                	lw	s1,80(a0)
e00012d8:	0000                	unimp
e00012da:	0390                	addi	a2,sp,448
e00012dc:	1798                	addi	a4,sp,992
e00012de:	1455b6e7          	0x1455b6e7
e00012e2:	0826                	slli	a6,a6,0x9
e00012e4:	0000                	unimp
e00012e6:	0b20                	addi	s0,sp,408
e00012e8:	04ad                	addi	s1,s1,11
e00012ea:	01bd                	addi	gp,gp,15
e00012ec:	422d                	li	tp,11
e00012ee:	226d                	jal	e0001498 <hmac_smoketest+0xf0c>
e00012f0:	0000                	unimp
e00012f2:	6060                	flw	fs0,68(s0)
e00012f4:	9978                	0x9978
e00012f6:	9dc4                	0x9dc4
e00012f8:	932c                	0x932c
e00012fa:	4aa8                	lw	a0,80(a3)
e00012fc:	0000                	unimp
e00012fe:	e4e0                	fsw	fs0,76(s1)
e0001300:	d999                	beqz	a1,e0001216 <hmac_smoketest+0xc8a>
e0001302:	100c                	addi	a1,sp,32
e0001304:	9930                	0x9930
e0001306:	fe98                	fsw	fa4,56(a3)
e0001308:	0000                	unimp
e000130a:	0000                	unimp
e000130c:	5b58                	lw	a4,52(a4)
e000130e:	db22                	sw	s0,180(sp)
e0001310:	6854                	flw	fa3,20(s0)
e0001312:	5264                	lw	s1,100(a2)
e0001314:	0000                	unimp
e0001316:	6050                	flw	fa2,4(s0)
e0001318:	009a                	slli	ra,ra,0x6
e000131a:	0560                	addi	s0,sp,652
e000131c:	42ac                	lw	a1,64(a3)
e000131e:	5038                	lw	a4,96(s0)
e0001320:	0000                	unimp
e0001322:	1350                	addi	a2,sp,420
e0001324:	5131                	li	sp,-20
e0001326:	d8a0                	sw	s0,112(s1)
e0001328:	517c                	lw	a5,100(a0)
e000132a:	0000000f          	fence	unknown,unknown
e000132e:	9050                	0x9050
e0001330:	6054                	flw	fa3,4(s0)
e0001332:	21b4                	fld	fa3,64(a1)
e0001334:	585a8317          	auipc	t1,0x585a8
e0001338:	0000                	unimp
e000133a:	1650                	addi	a2,sp,804
e000133c:	42ac                	lw	a1,64(a3)
e000133e:	6e48                	flw	fa0,28(a2)
e0001340:	5e18                	lw	a4,56(a2)
e0001342:	5212                	lw	tp,36(sp)
e0001344:	0000                	unimp
e0001346:	5260                	lw	s0,100(a2)
e0001348:	517c                	lw	a5,100(a0)
e000134a:	009a3e4f          	fnmadd.s	ft8,fs4,fs1,ft0,rup
e000134e:	d190                	sw	a2,32(a1)
e0001350:	0000                	unimp
e0001352:	5030                	lw	a2,96(s0)
e0001354:	5856                	lw	a6,116(sp)
e0001356:	8004                	0x8004
e0001358:	5131                	li	sp,-20
e000135a:	e650                	fsw	fa2,12(a2)
e000135c:	0000                	unimp
e000135e:	0000                	unimp
e0001360:	0150                	addi	a2,sp,132
e0001362:	71ba                	flw	ft3,172(sp)
e0001364:	0ef8                	addi	a4,sp,860
e0001366:	0801                	addi	a6,a6,0
e0001368:	0000                	unimp
e000136a:	6220                	flw	fs0,64(a2)
e000136c:	d858                	sw	a4,52(s0)
e000136e:	24d8                	fld	fa4,136(s1)
e0001370:	59300003          	lb	zero,1427(zero) # 593 <_min_stack-0x1a6d>
e0001374:	0000                	unimp
e0001376:	5970                	lw	a2,116(a0)
e0001378:	5930                	lw	a2,112(a0)
e000137a:	56e8                	lw	a0,108(a3)
e000137c:	597a                	lw	s2,188(sp)
e000137e:	00000003          	lb	zero,0(zero) # 0 <_min_stack-0x2000>
e0001382:	0290                	addi	a2,sp,320
e0001384:	0ef4                	addi	a3,sp,860
e0001386:	ae41                	j	e0001716 <hmac_smoketest+0x118a>
e0001388:	0288                	addi	a0,sp,320
e000138a:	6510                	flw	fa2,8(a0)
e000138c:	0000                	unimp
e000138e:	ba50                	fsd	fa2,176(a2)
e0001390:	0ef8                	addi	a4,sp,860
e0001392:	66e0                	flw	fs0,76(a3)
e0001394:	0280                	addi	s0,sp,320
e0001396:	5a20                	lw	s0,112(a2)
e0001398:	0000                	unimp
e000139a:	c300                	sw	s0,0(a4)
e000139c:	ad50                	fsd	fa2,152(a0)
e000139e:	3dca                	fld	fs11,176(sp)
e00013a0:	51365317          	auipc	t1,0x51365
e00013a4:	0000                	unimp
e00013a6:	4300                	lw	s0,0(a4)
e00013a8:	0002                	0x2
e00013aa:	2230                	fld	fa2,64(a2)
e00013ac:	7300                	flw	fs0,32(a4)
e00013ae:	5976                	lw	s2,124(sp)
e00013b0:	0000                	unimp
e00013b2:	0ef0                	addi	a2,sp,860
e00013b4:	8e00                	0x8e00
e00013b6:	96e0                	0x96e0
e00013b8:	b458                	fsd	fa4,168(s0)
e00013ba:	00006137          	lui	sp,0x6
e00013be:	5930                	lw	a2,112(a0)
e00013c0:	21d8                	fld	fa4,128(a1)
e00013c2:	4b22                	lw	s6,8(sp)
e00013c4:	b258                	fsd	fa4,160(a2)
e00013c6:	5262                	lw	tp,56(sp)
e00013c8:	0000                	unimp
e00013ca:	5260                	lw	s0,100(a2)
e00013cc:	6018                	flw	fa4,0(s0)
e00013ce:	7234                	flw	fa3,96(a2)
e00013d0:	7000                	flw	fs0,32(s0)
e00013d2:	5264                	lw	s1,100(a2)
e00013d4:	0000                	unimp
e00013d6:	5930                	lw	a2,112(a0)
e00013d8:	3800                	fld	fs0,48(s0)
e00013da:	52622a97          	auipc	s5,0x52622
e00013de:	0ef8                	addi	a4,sp,860
e00013e0:	0000                	unimp
e00013e2:	8a90                	0x8a90
e00013e4:	009a                	slli	ra,ra,0x6
e00013e6:	1750                	addi	a2,sp,932
e00013e8:	42ac                	lw	a1,64(a3)
e00013ea:	5038                	lw	a4,96(s0)
e00013ec:	0000                	unimp
e00013ee:	d1d0                	sw	a2,36(a1)
e00013f0:	5131                	li	sp,-20
e00013f2:	d750                	sw	a2,44(a4)
e00013f4:	517c                	lw	a5,100(a0)
e00013f6:	0000000f          	fence	unknown,unknown
e00013fa:	9110                	0x9110
e00013fc:	0ef8                	addi	a4,sp,860
e00013fe:	56e0                	lw	s0,108(a3)
e0001400:	5856                	lw	a6,116(sp)
e0001402:	6224                	flw	fs1,64(a2)
e0001404:	0000                	unimp
e0001406:	a250                	fsd	fa2,128(a2)
e0001408:	8a900003          	lb	zero,-1879(zero) # fffff8a9 <pulp__FC+0xfffff8aa>
e000140c:	597a8297          	auipc	t0,0x597a8
e0001410:	0000                	unimp
e0001412:	9d00                	0x9d00
e0001414:	6510                	flw	fa2,8(a0)
e0001416:	6dc4                	flw	fs1,28(a1)
e0001418:	8058                	0x8058
e000141a:	0288                	addi	a0,sp,320
e000141c:	0000                	unimp
e000141e:	5930                	lw	a2,112(a0)
e0001420:	5a20                	lw	s0,112(a2)
e0001422:	38a8                	fld	fa0,112(s1)
e0001424:	6101                	addi	sp,sp,0
e0001426:	0280                	addi	s0,sp,320
e0001428:	0000                	unimp
e000142a:	0ef0                	addi	a2,sp,860
e000142c:	5136                	lw	sp,108(sp)
e000142e:	b1b0                	fsd	fa2,96(a1)
e0001430:	e100                	fsw	fs0,0(a0)
e0001432:	5316                	lw	t1,100(sp)
e0001434:	0000                	unimp
e0001436:	0ef0                	addi	a2,sp,860
e0001438:	5266                	lw	tp,120(sp)
e000143a:	88a8                	0x88a8
e000143c:	0efa                	slli	t4,t4,0x1e
e000143e:	1100                	addi	s0,sp,160
e0001440:	0000                	unimp
e0001442:	ad50                	fsd	fa2,152(a0)
e0001444:	9024                	0x9024
e0001446:	b4d5                	j	e0000f2a <hmac_smoketest+0x99e>
e0001448:	ed58                	fsw	fa4,28(a0)
e000144a:	9f22                	add	t5,t5,s0
e000144c:	0000                	unimp
e000144e:	5ca0                	lw	s0,120(s1)
e0001450:	1455                	addi	s0,s0,-11
e0001452:	a8a6                	fsd	fs1,80(sp)
e0001454:	4225                	li	tp,9
e0001456:	0b25                	addi	s6,s6,9
e0001458:	0000                	unimp
e000145a:	4920                	lw	s0,80(a0)
e000145c:	c22d                	beqz	a2,e00014be <hmac_smoketest+0xf32>
e000145e:	edcd                	bnez	a1,e0001518 <hmac_smoketest+0xf8c>
e0001460:	1398                	addi	a4,sp,480
e0001462:	0000e067          	0xe067
e0001466:	0820                	addi	s0,sp,24
e0001468:	452d                	li	a0,11
e000146a:	d1bd                	beqz	a1,e00013d0 <hmac_smoketest+0xe44>
e000146c:	84ad                	srai	s1,s1,0xb
e000146e:	64ed                	lui	s1,0x1b
e0001470:	0000                	unimp
e0001472:	a260                	fsd	fs0,192(a2)
e0001474:	d451                	beqz	s0,e0001400 <hmac_smoketest+0xe74>
e0001476:	edc2                	fsw	fa6,216(sp)
e0001478:	92e8                	0x92e8
e000147a:	00c8                	addi	a0,sp,68
e000147c:	0000                	unimp
e000147e:	9b20                	0x9b20
e0001480:	fca0                	fsw	fs0,120(s1)
e0001482:	d4d8                	sw	a4,44(s1)
e0001484:	0004                	addi	s1,sp,0
e0001486:	a130                	fsd	fa2,64(a0)
e0001488:	0000                	unimp
e000148a:	a170                	fsd	fa2,192(a0)
e000148c:	00a2                	slli	ra,ra,0x8
e000148e:	adc0                	fsd	fs0,152(a1)
e0001490:	42ac                	lw	a1,64(a3)
e0001492:	5038                	lw	a4,96(s0)
e0001494:	0000                	unimp
e0001496:	d1d0                	sw	a2,36(a1)
e0001498:	5131                	li	sp,-20
e000149a:	d750                	sw	a2,44(a4)
e000149c:	517c                	lw	a5,100(a0)
e000149e:	0000000f          	fence	unknown,unknown
e00014a2:	9110                	0x9110
e00014a4:	0ef8                	addi	a4,sp,860
e00014a6:	0750                	addi	a2,sp,900
e00014a8:	5856                	lw	a6,116(sp)
e00014aa:	6224                	flw	fs1,64(a2)
e00014ac:	0000                	unimp
e00014ae:	4650                	lw	a2,12(a2)
e00014b0:	51b00003          	lb	zero,1307(zero) # 51b <_min_stack-0x1ae5>
e00014b4:	597a8297          	auipc	t0,0x597a8
e00014b8:	0000                	unimp
e00014ba:	2d00                	fld	fs0,24(a0)
e00014bc:	6510                	flw	fa2,8(a0)
e00014be:	8384                	0x8384
e00014c0:	6458                	flw	fa4,12(s0)
e00014c2:	028a                	slli	t0,t0,0x2
e00014c4:	0000                	unimp
e00014c6:	5930                	lw	a2,112(a0)
e00014c8:	5a20                	lw	s0,112(a2)
e00014ca:	f6e8                	fsw	fa0,108(a3)
e00014cc:	f001                	bnez	s0,e00013cc <hmac_smoketest+0xe40>
e00014ce:	00000287          	0x287
e00014d2:	0ef0                	addi	a2,sp,860
e00014d4:	5136                	lw	sp,108(sp)
e00014d6:	0c70                	addi	a2,sp,540
e00014d8:	7100                	flw	fs0,32(a0)
e00014da:	5316                	lw	t1,100(sp)
e00014dc:	0000                	unimp
e00014de:	0ef0                	addi	a2,sp,860
e00014e0:	4025                	0x4025
e00014e2:	dff5                	beqz	a5,e00014de <hmac_smoketest+0xf52>
e00014e4:	0efa                	slli	t4,t4,0x1e
e00014e6:	a100                	fsd	fs0,0(a0)
e00014e8:	0000                	unimp
e00014ea:	ad50                	fsd	fa2,152(a0)
e00014ec:	5b30                	lw	a2,112(a4)
e00014ee:	f23c                	fsw	fa5,96(a2)
e00014f0:	5335                	li	t1,-19
e00014f2:	1244                	addi	s1,sp,292
e00014f4:	0000                	unimp
e00014f6:	4920                	lw	s0,80(a0)
e00014f8:	503c                	lw	a5,96(s0)
e00014fa:	1a92                	slli	s5,s5,0x24
e00014fc:	d4d0                	sw	a2,44(s1)
e00014fe:	5218                	lw	a4,32(a2)
e0001500:	0000                	unimp
e0001502:	1340                	addi	s0,sp,420
e0001504:	c001000f          	0xc001000f
e0001508:	d090                	sw	a2,32(s1)
e000150a:	517c                	lw	a5,100(a0)
e000150c:	0000                	unimp
e000150e:	00a0                	addi	s0,sp,72
e0001510:	64e4                	flw	fs1,76(s1)
e0001512:	9c78                	0x9c78
e0001514:	1050                	addi	a2,sp,36
e0001516:	5916                	lw	s2,100(sp)
e0001518:	0000                	unimp
e000151a:	5130                	lw	a2,96(a0)
e000151c:	0ef8                	addi	a4,sp,860
e000151e:	cb20                	sw	s0,80(a4)
e0001520:	7268                	flw	fa0,100(a2)
e0001522:	7a28                	flw	fa0,112(a2)
e0001524:	0000                	unimp
e0001526:	6ca0                	flw	fs0,88(s1)
e0001528:	adc00003          	lb	zero,-1316(zero) # fffffadc <pulp__FC+0xfffffadd>
e000152c:	0056                	0x56
e000152e:	597a                	lw	s2,188(sp)
e0001530:	0000                	unimp
e0001532:	dd00                	sw	s0,56(a0)
e0001534:	6510                	flw	fa2,8(a0)
e0001536:	a384                	fsd	fs1,0(a5)
e0001538:	2858                	fld	fa4,144(s0)
e000153a:	028a                	slli	t0,t0,0x2
e000153c:	0000                	unimp
e000153e:	5930                	lw	a2,112(a0)
e0001540:	5ce0                	lw	s0,124(s1)
e0001542:	0238                	addi	a4,sp,264
e0001544:	a001                	j	e0001544 <hmac_smoketest+0xfb8>
e0001546:	00000287          	0x287
e000154a:	0ef0                	addi	a2,sp,860
e000154c:	0ef8                	addi	a4,sp,860
e000154e:	2230                	fld	fa2,64(a2)
e0001550:	6a68                	flw	fa0,84(a2)
e0001552:	7228                	flw	fa0,96(a2)
e0001554:	0000                	unimp
e0001556:	64a0                	flw	fs0,72(s1)
e0001558:	ad50                	fsd	fa2,152(a0)
e000155a:	200a                	fld	ft0,128(sp)
e000155c:	5316                	lw	t1,100(sp)
e000155e:	5136                	lw	sp,108(sp)
e0001560:	0000                	unimp
e0001562:	1b00                	addi	s0,sp,432
e0001564:	9b25                	andi	a4,a4,-23
e0001566:	06e5                	addi	a3,a3,25
e0001568:	4b00                	lw	s0,16(a4)
e000156a:	a225                	j	e0001692 <hmac_smoketest+0x1106>
e000156c:	0000                	unimp
e000156e:	0ef0                	addi	a2,sp,860
e0001570:	0f25                	addi	t5,t5,9
e0001572:	9ff5                	0x9ff5
e0001574:	4d25                	li	s10,9
e0001576:	4625                	li	a2,9
e0001578:	0000                	unimp
e000157a:	9420                	0x9420
e000157c:	423ce867          	0x423ce867
e0001580:	0826                	slli	a6,a6,0x9
e0001582:	11d8                	addi	a4,sp,228
e0001584:	0000                	unimp
e0001586:	1210                	addi	a2,sp,288
e0001588:	6cec                	flw	fa1,92(s1)
e000158a:	691c                	flw	fa5,16(a0)
e000158c:	aa6c                	fsd	fa1,208(a2)
e000158e:	8cac                	0x8cac
e0001590:	0000                	unimp
e0001592:	ca20                	sw	s0,80(a2)
e0001594:	e5ec                	fsw	fa1,76(a1)
e0001596:	9dcd                	0x9dcd
e0001598:	2d6c                	fld	fa1,216(a0)
e000159a:	0dac                	addi	a1,sp,728
e000159c:	0000                	unimp
e000159e:	4d20                	lw	s0,88(a0)
e00015a0:	66ed                	lui	a3,0x1b
e00015a2:	a91d                	j	e00019d8 <hmac_smoketest+0x144c>
e00015a4:	a66d                	j	e000194e <hmac_smoketest+0x13c2>
e00015a6:	86ad                	srai	a3,a3,0xb
e00015a8:	0000                	unimp
e00015aa:	c620                	sw	s0,72(a2)
e00015ac:	1858                	addi	a4,sp,52
e00015ae:	fa98                	fsw	fa4,48(a3)
e00015b0:	0004                	addi	s1,sp,0
e00015b2:	5930                	lw	a2,112(a0)
e00015b4:	0000                	unimp
e00015b6:	5970                	lw	a2,116(a0)
e00015b8:	005a                	0x5a
e00015ba:	8ff0                	0x8ff0
e00015bc:	045a                	slli	s0,s0,0x16
e00015be:	a030                	fsd	fa2,64(s0)
e00015c0:	0000                	unimp
e00015c2:	9030                	0x9030
e00015c4:	5130                	lw	a2,96(a0)
e00015c6:	d8a0                	sw	s0,112(s1)
e00015c8:	5378                	lw	a4,100(a4)
e00015ca:	55d5                	li	a1,-11
e00015cc:	0000                	unimp
e00015ce:	aaa0                	fsd	fs0,80(a3)
e00015d0:	6524                	flw	fs1,72(a0)
e00015d2:	2b28                	fld	fa0,80(a4)
e00015d4:	62aa                	flw	ft5,136(sp)
e00015d6:	581c                	lw	a5,48(s0)
e00015d8:	0000                	unimp
e00015da:	8050                	0x8050
e00015dc:	8401                	srai	s0,s0,0x0
e00015de:	6ff6                	flw	ft11,92(sp)
e00015e0:	7018                	flw	fa4,32(s0)
e00015e2:	0ef4                	addi	a3,sp,860
e00015e4:	0000                	unimp
e00015e6:	6ca0                	flw	fs0,88(s1)
e00015e8:	6330                	flw	fa2,64(a4)
e00015ea:	5b309003          	lh	zero,1459(ra)
e00015ee:	2a90                	fld	fa2,16(a3)
e00015f0:	0000                	unimp
e00015f2:	5050                	lw	a2,36(s0)
e00015f4:	2aa0                	fld	fs0,80(a3)
e00015f6:	edc0                	fsw	fs0,28(a1)
e00015f8:	5b20                	lw	s0,112(a4)
e00015fa:	5339                	li	t1,-18
e00015fc:	0000                	unimp
e00015fe:	2aa0                	fld	fs0,80(a3)
e0001600:	4060                	lw	s0,68(s0)
e0001602:	3752                	fld	fa4,304(sp)
e0001604:	00f4                	addi	a3,sp,76
e0001606:	6130                	flw	fa2,64(a0)
e0001608:	0000                	unimp
e000160a:	6370                	flw	fa2,68(a4)
e000160c:	6401                	lui	s0,0x0
e000160e:	ee46                	fsw	fa7,28(sp)
e0001610:	7014                	flw	fa3,32(s0)
e0001612:	0ef4                	addi	a3,sp,860
e0001614:	0000                	unimp
e0001616:	6810                	flw	fa2,16(s0)
e0001618:	ec60                	fsw	fs0,92(s0)
e000161a:	00032a97          	auipc	s5,0x32
e000161e:	6130                	flw	fa2,64(a0)
e0001620:	0000                	unimp
e0001622:	6170                	flw	fa2,68(a0)
e0001624:	5738                	lw	a4,104(a4)
e0001626:	9232                	add	tp,tp,a2
e0001628:	baa4                	fsd	fs1,112(a3)
e000162a:	42e8                	lw	a0,68(a3)
e000162c:	0000                	unimp
e000162e:	2100                	fld	fs0,0(a0)
e0001630:	62326f3b          	0x62326f3b
e0001634:	00025f3b          	0x25f3b
e0001638:	0000                	unimp
e000163a:	8000                	0x8000
e000163c:	51b3c93f ed51ae3b 	0xed51ae3b51b3c93f
e0001644:	0000                	unimp
e0001646:	8000                	0x8000
e0001648:	5b34                	lw	a3,112(a4)
e000164a:	c3305ff3          	csrrwi	t6,0xc33,0
e000164e:	0b00                	addi	s0,sp,400
e0001650:	0000                	unimp
e0001652:	0160                	addi	s0,sp,140
e0001654:	0a00                	addi	s0,sp,272
e0001656:	0c74                	addi	a3,sp,540
e0001658:	52e0                	lw	s0,100(a3)
e000165a:	9b39                	andi	a4,a4,-18
e000165c:	0000                	unimp
e000165e:	0b00                	addi	s0,sp,400
e0001660:	7050                	flw	fa2,36(s0)
e0001662:	4919                	li	s2,6
e0001664:	51300003          	lb	zero,1299(zero) # 513 <_min_stack-0x1aed>
e0001668:	0000                	unimp
e000166a:	5170                	lw	a2,100(a0)
e000166c:	ad50                	fsd	fa2,152(a0)
e000166e:	300a                	fld	ft0,160(sp)
e0001670:	531c                	lw	a5,32(a4)
e0001672:	d936                	sw	a3,176(sp)
e0001674:	0000                	unimp
e0001676:	02a0                	addi	s0,sp,328
e0001678:	3050                	fld	fa2,160(s0)
e000167a:	6005                	0x6005
e000167c:	5131000f          	0x5131000f
e0001680:	0000                	unimp
e0001682:	5170                	lw	a2,100(a0)
e0001684:	5130                	lw	a2,96(a0)
e0001686:	be40                	fsd	fs0,184(a2)
e0001688:	517c                	lw	a5,100(a0)
e000168a:	00000003          	lb	zero,0(zero) # 0 <_min_stack-0x2000>
e000168e:	42a0                	lw	s0,64(a3)
e0001690:	36e1000f          	0x36e1000f
e0001694:	22a9                	jal	e00017de <hmac_smoketest+0x1252>
e0001696:	d17c                	sw	a5,100(a0)
e0001698:	0000                	unimp
e000169a:	ba50                	fsd	fa2,176(a2)
e000169c:	5561                	li	a0,-8
e000169e:	c6e8                	sw	a0,76(a3)
e00016a0:	80d0                	0x80d0
e00016a2:	02c5                	addi	t0,t0,17
e00016a4:	0000                	unimp
e00016a6:	d130                	sw	a2,96(a0)
e00016a8:	8638                	0x8638
e00016aa:	be49                	j	e000123c <hmac_smoketest+0xcb0>
e00016ac:	5152                	lw	sp,52(sp)
e00016ae:	4aac                	lw	a1,80(a3)
e00016b0:	0000                	unimp
e00016b2:	3050                	fld	fa2,160(s0)
e00016b4:	6268                	flw	fa0,68(a2)
e00016b6:	58a8                	lw	a0,112(s1)
e00016b8:	5850                	lw	a2,52(s0)
e00016ba:	56a4                	lw	s1,104(a3)
e00016bc:	0000                	unimp
e00016be:	00c0                	addi	s0,sp,68
e00016c0:	808a                	mv	ra,sp
e00016c2:	d560                	sw	s0,108(a0)
e00016c4:	cb00                	sw	s0,16(a4)
e00016c6:	8115                	srli	a0,a0,0x5
e00016c8:	0000                	unimp
e00016ca:	0ef0                	addi	a2,sp,860
e00016cc:	9401                	srai	s0,s0,0x20
e00016ce:	cdc6                	sw	a7,216(sp)
e00016d0:	5924                	lw	s1,112(a0)
e00016d2:	0ef4                	addi	a3,sp,860
e00016d4:	0000                	unimp
e00016d6:	6510                	flw	fa2,8(a0)
e00016d8:	1500                	addi	s0,sp,672
e00016da:	56e5                	li	a3,-7
e00016dc:	5a60                	lw	s0,116(a2)
e00016de:	0ef8                	addi	a4,sp,860
e00016e0:	0000                	unimp
e00016e2:	8080                	0x8080
e00016e4:	5224                	lw	s1,96(a2)
e00016e6:	bb25                	j	e000141e <hmac_smoketest+0xe92>
e00016e8:	0ef8                	addi	a4,sp,860
e00016ea:	4900                	lw	s0,16(a0)
e00016ec:	0000                	unimp
e00016ee:	56e0                	lw	s0,108(a3)
e00016f0:	0002573b          	0x2573b
e00016f4:	5f3c                	lw	a5,120(a4)
e00016f6:	8002                	0x8002
e00016f8:	0000                	unimp
e00016fa:	d350                	sw	a2,36(a4)
e00016fc:	a009ae3b          	0xa009ae3b
e0001700:	8002673b          	0x8002673b
e0001704:	0000                	unimp
e0001706:	0000                	unimp
e0001708:	3a901853          	0x3a901853
e000170c:	6339562f          	0x6339562f
e0001710:	0000                	unimp
e0001712:	ec50                	fsw	fa2,28(s0)
e0001714:	0858                	addi	a4,sp,20
e0001716:	e6e0                	fsw	fs0,76(a3)
e0001718:	5b29                	li	s6,-22
e000171a:	5639                	li	a2,-18
e000171c:	0000                	unimp
e000171e:	64e0                	flw	fs0,76(s1)
e0001720:	533a                	lw	t1,172(sp)
e0001722:	0b43175b          	p.macun	a4,t1,s4,5
e0001726:	0190                	addi	a2,sp,192
e0001728:	0000                	unimp
e000172a:	5330                	lw	a2,96(a4)
e000172c:	d590                	sw	a2,40(a1)
e000172e:	5130156f          	jal	a0,e0003440 <hmac_smoketest+0x2eb4>
e0001732:	0154                	addi	a3,sp,132
e0001734:	0000                	unimp
e0001736:	0ab0                	addi	a2,sp,344
e0001738:	6ca8                	flw	fa0,88(s1)
e000173a:	94d8                	0x94d8
e000173c:	5814                	lw	a3,48(s0)
e000173e:	6524                	flw	fs1,72(a0)
e0001740:	0000                	unimp
e0001742:	5320                	lw	s0,96(a4)
e0001744:	4935                	li	s2,13
e0001746:	f000                	fsw	fs0,32(s0)
e0001748:	0ef4                	addi	a3,sp,860
e000174a:	9601                	srai	a2,a2,0x20
e000174c:	0000                	unimp
e000174e:	7010                	flw	fa2,32(s0)
e0001750:	b330                	fsd	fa2,96(a4)
e0001752:	81b8                	0x81b8
e0001754:	5330                	lw	a2,96(a4)
e0001756:	00000a4b          	fnmsub.s	fs4,ft0,ft0,ft0,rne
e000175a:	0150                	addi	a2,sp,132
e000175c:	5890                	lw	a2,48(s1)
e000175e:	3564                	fld	fs1,232(a0)
e0001760:	a630                	fsd	fa2,72(a2)
e0001762:	00c9                	addi	ra,ra,18
e0001764:	0000                	unimp
e0001766:	0a50                	addi	a2,sp,276
e0001768:	75e8                	flw	fa0,108(a1)
e000176a:	86e8                	0x86e8
e000176c:	6264                	flw	fs1,68(a2)
e000176e:	6da8                	flw	fa0,88(a1)
e0001770:	0000                	unimp
e0001772:	5220                	lw	s0,96(a2)
e0001774:	808a                	mv	ra,sp
e0001776:	f000                	fsw	fs0,32(s0)
e0001778:	5300                	lw	s0,32(a4)
e000177a:	8215                	srli	a2,a2,0x5
e000177c:	0000                	unimp
e000177e:	0ef0                	addi	a2,sp,860
e0001780:	1c01                	addi	s8,s8,-32
e0001782:	61b6                	flw	ft3,76(sp)
e0001784:	5824                	lw	s1,112(s0)
e0001786:	0ef4                	addi	a3,sp,860
e0001788:	0000                	unimp
e000178a:	6510                	flw	fa2,8(a0)
e000178c:	75e8                	flw	fa0,108(a1)
e000178e:	0918                	addi	a4,sp,144
e0001790:	6260                	flw	fs0,68(a2)
e0001792:	6da8                	flw	fa0,88(a1)
e0001794:	0000                	unimp
e0001796:	8080                	0x8080
e0001798:	0ef8                	addi	a4,sp,860
e000179a:	a750                	fsd	fa2,136(a4)
e000179c:	9900                	0x9900
e000179e:	56e4                	lw	s1,108(a3)
e00017a0:	0000                	unimp
e00017a2:	0ef0                	addi	a2,sp,860
e00017a4:	d425                	beqz	s0,e000170c <hmac_smoketest+0x1180>
e00017a6:	7b25                	lui	s6,0xfffe9
e00017a8:	db2bf893          	andi	a7,s7,-590
e00017ac:	0000                	unimp
e00017ae:	cd00                	sw	s0,24(a0)
e00017b0:	b065                	j	e0001058 <hmac_smoketest+0xacc>
e00017b2:	b1b4                	fsd	fa3,96(a1)
e00017b4:	c625                	beqz	a2,e000181c <hmac_smoketest+0x1290>
e00017b6:	bf25                	j	e00016ee <hmac_smoketest+0x1162>
e00017b8:	0000                	unimp
e00017ba:	cd20                	sw	s0,88(a0)
e00017bc:	9464                	0x9464
e00017be:	cc74                	sw	a3,92(s0)
e00017c0:	a264                	fsd	fs1,192(a2)
e00017c2:	9b64                	0x9b64
e00017c4:	0000                	unimp
e00017c6:	a960                	fsd	fs0,208(a0)
e00017c8:	1254                	addi	a3,sp,292
e00017ca:	6e46                	flw	ft8,80(sp)
e00017cc:	4664                	lw	s1,76(a2)
e00017ce:	0f64                	addi	s1,sp,924
e00017d0:	0000                	unimp
e00017d2:	4d60                	lw	s0,92(a0)
e00017d4:	4a2d                	li	s4,11
e00017d6:	88ad                	andi	s1,s1,11
e00017d8:	1598                	addi	a4,sp,736
e00017da:	00006867          	0x6867
e00017de:	0820                	addi	s0,sp,24
e00017e0:	cd2c                	sw	a1,88(a0)
e00017e2:	2ffc                	fld	fa5,216(a5)
e00017e4:	0cad                	addi	s9,s9,11
e00017e6:	eced                	bnez	s1,e00018e0 <hmac_smoketest+0x1354>
e00017e8:	0000                	unimp
e00017ea:	2a60                	fld	fs0,208(a2)
e00017ec:	4e2c                	lw	a1,88(a2)
e00017ee:	ab2c                	fsd	fa1,80(a4)
e00017f0:	8dac                	0x8dac
e00017f2:	6dec                	flw	fa1,92(a1)
e00017f4:	0000                	unimp
e00017f6:	ad60                	fsd	fs0,216(a0)
e00017f8:	617d                	addi	sp,sp,496
e00017fa:	0eac3003          	0xeac3003
e00017fe:	e6ec                	fsw	fa1,76(a3)
e0001800:	0000                	unimp
e0001802:	2e60                	fld	fs0,216(a2)
e0001804:	2406                	fld	fs0,64(sp)
e0001806:	2ff4                	fld	fa3,216(a5)
e0001808:	6130                	flw	fa2,64(a0)
e000180a:	8a60                	0x8a60
e000180c:	0000                	unimp
e000180e:	0000                	unimp
e0001810:	5378                	lw	a4,100(a4)
e0001812:	effc                	fsw	fa5,92(a5)
e0001814:	aae4                	fsd	fs1,208(a3)
e0001816:	b2a8                	fsd	fa0,96(a3)
e0001818:	0000                	unimp
e000181a:	2040                	fld	fs0,128(s0)
e000181c:	e2a0                	fsw	fs0,64(a3)
e000181e:	f56c                	fsw	fa1,108(a0)
e0001820:	5131                	li	sp,-20
e0001822:	8050                	0x8050
e0001824:	0000                	unimp
e0001826:	60d0                	flw	fa2,4(s1)
e0001828:	7018                	flw	fa4,32(s0)
e000182a:	4754                	lw	a3,12(a4)
e000182c:	6264                	flw	fs1,68(a2)
e000182e:	6a28                	flw	fa0,80(a2)
e0001830:	0000                	unimp
e0001832:	5810                	lw	a2,48(s0)
e0001834:	2220                	fld	fs0,64(a2)
e0001836:	fb2d                	bnez	a4,e00017a8 <hmac_smoketest+0x121c>
e0001838:	f801                	bnez	s0,e0001748 <hmac_smoketest+0x11bc>
e000183a:	5054                	lw	a3,36(s0)
e000183c:	0000                	unimp
e000183e:	0ef0                	addi	a2,sp,860
e0001840:	83802a4b          	fnmsub.d	fs4,ft0,fs8,fa6,rdn
e0001844:	2a40                	fld	fs0,144(a2)
e0001846:	6330                	flw	fa2,64(a4)
e0001848:	0000                	unimp
e000184a:	5b30                	lw	a2,112(a4)
e000184c:	2a48                	fld	fa0,144(a2)
e000184e:	a910                	fsd	fa2,16(a0)
e0001850:	0269                	addi	tp,tp,26
e0001852:	533d                	li	t1,-17
e0001854:	0000                	unimp
e0001856:	5b20                	lw	s0,112(a4)
e0001858:	4060                	lw	s0,68(s0)
e000185a:	3752                	fld	fa4,304(sp)
e000185c:	00f4                	addi	a3,sp,76
e000185e:	6130                	flw	fa2,64(a0)
e0001860:	0000                	unimp
e0001862:	6370                	flw	fa2,68(a4)
e0001864:	d401                	beqz	s0,e000176c <hmac_smoketest+0x11e0>
e0001866:	5dc4                	lw	s1,60(a1)
e0001868:	7014                	flw	fa3,32(s0)
e000186a:	0ef4                	addi	a3,sp,860
e000186c:	0000                	unimp
e000186e:	6810                	flw	fa2,16(s0)
e0001870:	5c60                	lw	s0,124(s0)
e0001872:	d006                	sw	ra,32(sp)
e0001874:	61300003          	lb	zero,1555(zero) # 613 <_min_stack-0x19ed>
e0001878:	0000                	unimp
e000187a:	6170                	flw	fa2,68(a0)
e000187c:	5738                	lw	a4,104(a4)
e000187e:	7b22                	flw	fs6,40(sp)
e0001880:	c2a4                	sw	s1,64(a3)
e0001882:	cae8                	sw	a0,84(a3)
e0001884:	0000                	unimp
e0001886:	2100                	fld	fs0,0(a0)
e0001888:	62326f3b          	0x62326f3b
e000188c:	00025f3b          	0x25f3b
e0001890:	0000                	unimp
e0001892:	8000                	0x8000
e0001894:	ee43d93f ed51ae3b 	0xed51ae3bee43d93f
e000189c:	0000                	unimp
e000189e:	8000                	0x8000
e00018a0:	5b34                	lw	a3,112(a4)
e00018a2:	a3302913          	slti	s2,zero,-1485
e00018a6:	0b00                	addi	s0,sp,400
e00018a8:	0000                	unimp
e00018aa:	0160                	addi	s0,sp,140
e00018ac:	0a00                	addi	s0,sp,272
e00018ae:	6a94                	flw	fa3,16(a3)
e00018b0:	52e0                	lw	s0,100(a3)
e00018b2:	9339                	srli	a4,a4,0x2e
e00018b4:	0000                	unimp
e00018b6:	0b00                	addi	s0,sp,400
e00018b8:	5130                	lw	a2,96(a0)
e00018ba:	9b20                	0x9b20
e00018bc:	5174                	lw	a3,100(a0)
e00018be:	0002                	0x2
e00018c0:	0000                	unimp
e00018c2:	9b90                	0x9b90
e00018c4:	d136                	sw	a3,160(sp)
e00018c6:	8560                	0x8560
e00018c8:	531c82a7          	0x531c82a7
e00018cc:	0000                	unimp
e00018ce:	f250                	fsw	fa2,36(a2)
e00018d0:	5131                	li	sp,-20
e00018d2:	d000                	sw	s0,32(s0)
e00018d4:	517a                	lw	sp,188(sp)
e00018d6:	0000000f          	fence	unknown,unknown
e00018da:	ad50                	fsd	fa2,152(a0)
e00018dc:	d4d00003          	lb	zero,-691(zero) # fffffd4d <pulp__FC+0xfffffd4e>
e00018e0:	517cc2a3          	0x517cc2a3
e00018e4:	0000                	unimp
e00018e6:	b250                	fsd	fa2,160(a2)
e00018e8:	517c                	lw	a5,100(a0)
e00018ea:	7a9f 3c50 62a8      	0x62a83c507a9f
e00018f0:	0000                	unimp
e00018f2:	5130                	lw	a2,96(a0)
e00018f4:	a2a4                	fsd	fs1,64(a3)
e00018f6:	9dcc                	0x9dcc
e00018f8:	5131                	li	sp,-20
e00018fa:	0250                	addi	a2,sp,260
e00018fc:	0000                	unimp
e00018fe:	0000                	unimp
e0001900:	8632                	mv	a2,a2
e0001902:	f230                	fsw	fa2,96(a2)
e0001904:	5d68                	lw	a0,124(a0)
e0001906:	ef18                	fsw	fa4,24(a4)
e0001908:	0000                	unimp
e000190a:	55a0                	lw	s0,104(a1)
e000190c:	863c                	0x863c
e000190e:	ab29                	j	e0001e28 <hmac_smoketest+0x189c>
e0001910:	baa0                	fsd	fs0,112(a3)
e0001912:	1558                	addi	a4,sp,676
e0001914:	0000                	unimp
e0001916:	3350                	fld	fa2,160(a4)
e0001918:	65e4                	flw	fs1,76(a1)
e000191a:	3c78                	fld	fa4,248(s0)
e000191c:	5850                	lw	a2,52(s0)
e000191e:	5524                	lw	s1,104(a0)
e0001920:	0000                	unimp
e0001922:	00d0                	addi	a2,sp,68
e0001924:	028a                	slli	t0,t0,0x2
e0001926:	1911                	addi	s2,s2,-28
e0001928:	3300                	fld	fs0,32(a4)
e000192a:	8114                	0x8114
e000192c:	0000                	unimp
e000192e:	0ef0                	addi	a2,sp,860
e0001930:	fc01                	bnez	s0,e0001848 <hmac_smoketest+0x12bc>
e0001932:	aff4                	fsd	fa3,216(a5)
e0001934:	5b24                	lw	s1,112(a4)
e0001936:	0ef4                	addi	a3,sp,860
e0001938:	0000                	unimp
e000193a:	6510                	flw	fa2,8(a0)
e000193c:	7d00                	flw	fs0,56(a0)
e000193e:	5de1e4d3          	0x5de1e4d3
e0001942:	0ef8                	addi	a4,sp,860
e0001944:	0000                	unimp
e0001946:	0280                	addi	s0,sp,320
e0001948:	5f32                	lw	t5,44(sp)
e000194a:	0ff2                	slli	t6,t6,0x1c
e000194c:	0ef8                	addi	a4,sp,860
e000194e:	b100                	fsd	fs0,32(a0)
e0001950:	0000                	unimp
e0001952:	56a0                	lw	s0,104(a3)
e0001954:	4002673b          	0x4002673b
e0001958:	0002573b          	0x2573b
e000195c:	0000                	unimp
e000195e:	8000                	0x8000
e0001960:	5dc9552f          	0x5dc9552f
e0001964:	ec59ae3b          	0xec59ae3b
e0001968:	0000                	unimp
e000196a:	8000                	0x8000
e000196c:	5b29                	li	s6,-22
e000196e:	14d9                	addi	s1,s1,-10
e0001970:	64a01453          	0x64a01453
e0001974:	0000                	unimp
e0001976:	6330                	flw	fa2,64(a4)
e0001978:	18a00bcb          	fnmsub.s	fs7,ft0,fa0,ft3,rne
e000197c:	1958                	addi	a4,sp,180
e000197e:	5330                	lw	a2,96(a4)
e0001980:	0000                	unimp
e0001982:	5630                	lw	a2,104(a2)
e0001984:	5130                	lw	a2,96(a0)
e0001986:	74d4                	flw	fa3,44(s1)
e0001988:	533a                	lw	t1,172(sp)
e000198a:	00000ac3          	fmadd.s	fs5,ft0,ft0,ft0,rne
e000198e:	0190                	addi	a2,sp,192
e0001990:	5814                	lw	a3,48(s0)
e0001992:	4c74                	lw	a3,92(s0)
e0001994:	d590                	sw	a2,40(a1)
e0001996:	0000572f          	0x572f
e000199a:	0150                	addi	a2,sp,132
e000199c:	0ef4                	addi	a3,sp,860
e000199e:	a911                	j	e0001db2 <hmac_smoketest+0x1826>
e00019a0:	6925                	lui	s2,0x9
e00019a2:	7015                	0x7015
e00019a4:	0000                	unimp
e00019a6:	6020                	flw	fs0,64(s0)
e00019a8:	5330                	lw	a2,96(a4)
e00019aa:	4134f753          	0x4134f753
e00019ae:	0150                	addi	a2,sp,132
e00019b0:	0000                	unimp
e00019b2:	0200                	addi	s0,sp,256
e00019b4:	a630                	fsd	fa2,72(a2)
e00019b6:	9a99                	andi	a3,a3,-26
e00019b8:	4b30                	lw	a2,80(a4)
e00019ba:	0a58                	addi	a4,sp,276
e00019bc:	0000                	unimp
e00019be:	0a40                	addi	s0,sp,276
e00019c0:	6224                	flw	fs1,64(a2)
e00019c2:	8388                	0x8388
e00019c4:	5890                	lw	a2,48(s1)
e00019c6:	5624                	lw	s1,104(a2)
e00019c8:	0000                	unimp
e00019ca:	00d0                	addi	a2,sp,68
e00019cc:	bf00                	fsd	fs0,56(a4)
e00019ce:	76281dc3          	0x76281dc3
e00019d2:	0ef8                	addi	a4,sp,860
e00019d4:	0000                	unimp
e00019d6:	6a60                	flw	fs0,84(a2)
e00019d8:	5c24                	lw	s1,120(s0)
e00019da:	28a4                	fld	fs1,80(s1)
e00019dc:	028a                	slli	t0,t0,0x2
e00019de:	6511                	lui	a0,0x4
e00019e0:	0000                	unimp
e00019e2:	8210                	0x8210
e00019e4:	6221                	lui	tp,0x8
e00019e6:	3c78                	fld	fa4,248(s0)
e00019e8:	8801                	andi	s0,s0,0
e00019ea:	0284                	addi	s1,sp,320
e00019ec:	0000                	unimp
e00019ee:	0ef0                	addi	a2,sp,860
e00019f0:	0500                	addi	s0,sp,640
e00019f2:	7628a233          	0x7628a233
e00019f6:	0ef8                	addi	a4,sp,860
e00019f8:	0000                	unimp
e00019fa:	6a60                	flw	fs0,84(a2)
e00019fc:	f892                	fsw	ft4,112(sp)
e00019fe:	0ef8a8ab          	p.sw	a5,241(a7!)
e0001a02:	3900                	fld	fs0,48(a0)
e0001a04:	0000                	unimp
e0001a06:	56a0                	lw	s0,104(a3)
e0001a08:	c264                	sw	s1,68(a2)
e0001a0a:	21b4                	fld	fa3,64(a1)
e0001a0c:	d065                	beqz	s0,e00019ec <hmac_smoketest+0x1460>
e0001a0e:	c964                	sw	s1,84(a0)
e0001a10:	0000                	unimp
e0001a12:	df20                	sw	s0,120(a4)
e0001a14:	a664                	fsd	fs1,200(a2)
e0001a16:	c754                	sw	a3,12(a4)
e0001a18:	b464                	fsd	fs1,232(s0)
e0001a1a:	ad64                	fsd	fs1,216(a0)
e0001a1c:	0000                	unimp
e0001a1e:	bb60                	fsd	fs0,240(a4)
e0001a20:	4265                	li	tp,25
e0001a22:	3e45                	jal	e00015d2 <hmac_smoketest+0x1046>
e0001a24:	9064                	0x9064
e0001a26:	4965                	li	s2,25
e0001a28:	0000                	unimp
e0001a2a:	9f60                	0x9f60
e0001a2c:	1598                	addi	a4,sp,736
e0001a2e:	1655dff7          	0x1655dff7
e0001a32:	0826                	slli	a6,a6,0x9
e0001a34:	0000                	unimp
e0001a36:	0b60                	addi	s0,sp,412
e0001a38:	0cad                	addi	s9,s9,11
e0001a3a:	48ad                	li	a7,11
e0001a3c:	4a2d                	li	s4,11
e0001a3e:	2a6d                	jal	e0001bf8 <hmac_smoketest+0x166c>
e0001a40:	0000                	unimp
e0001a42:	6860                	flw	fs0,84(s0)
e0001a44:	8dac                	0x8dac
e0001a46:	06ec                	addi	a1,sp,844
e0001a48:	cd2c                	sw	a1,88(a0)
e0001a4a:	ad6c                	fsd	fa1,216(a0)
e0001a4c:	0000                	unimp
e0001a4e:	ece0                	fsw	fs0,92(s1)
e0001a50:	0eac                	addi	a1,sp,856
e0001a52:	ce4c                	sw	a1,28(a2)
e0001a54:	4e2c                	lw	a1,88(a2)
e0001a56:	2e6c                	fld	fa1,216(a2)
e0001a58:	0000                	unimp
e0001a5a:	6de0                	flw	fs0,92(a1)
e0001a5c:	5b11                	li	s6,-28
e0001a5e:	00c8e563          	bltu	a7,a2,e0001a68 <hmac_smoketest+0x14dc>
e0001a62:	0001                	nop
e0001a64:	0000                	unimp
e0001a66:	c2e0                	sw	s0,68(a3)
e0001a68:	0c50                	addi	a2,sp,532
e0001a6a:	bff5                	j	e0001a66 <hmac_smoketest+0x14da>
e0001a6c:	51300003          	lb	zero,1299(zero) # 513 <_min_stack-0x1aed>
e0001a70:	0000                	unimp
e0001a72:	5170                	lw	a2,100(a0)
e0001a74:	c934                	sw	a3,80(a0)
e0001a76:	4814d56b          	0x4814d56b
e0001a7a:	5014                	lw	a3,32(s0)
e0001a7c:	0000                	unimp
e0001a7e:	10c0                	addi	s0,sp,100
e0001a80:	0002                	0x2
e0001a82:	54d0                	lw	a2,44(s1)
e0001a84:	d210                	sw	a2,32(a2)
e0001a86:	9174                	0x9174
e0001a88:	0000                	unimp
e0001a8a:	0150                	addi	a2,sp,132
e0001a8c:	2b21000f          	0x2b21000f
e0001a90:	e890                	fsw	fa2,16(s1)
e0001a92:	9976                	add	s2,s2,t4
e0001a94:	0000                	unimp
e0001a96:	9130                	0x9130
e0001a98:	0002                	0x2
e0001a9a:	3a90                	fld	fa2,48(a3)
e0001a9c:	b098                	fsd	fa4,32(s1)
e0001a9e:	a172                	fsd	ft8,128(sp)
e0001aa0:	0000                	unimp
e0001aa2:	9930                	0x9930
e0001aa4:	2911000f          	0x2911000f
e0001aa8:	c4a0                	sw	s0,72(s1)
e0001aaa:	a976                	fsd	ft9,144(sp)
e0001aac:	0000                	unimp
e0001aae:	a130                	fsd	fa2,64(a0)
e0001ab0:	6034                	flw	fa3,64(s0)
e0001ab2:	7ff2                	flw	ft11,60(sp)
e0001ab4:	8ca8                	0x8ca8
e0001ab6:	00c2                	slli	ra,ra,0x10
e0001ab8:	0000                	unimp
e0001aba:	a930                	fsd	fa2,80(a0)
e0001abc:	9050                	0x9050
e0001abe:	fe48                	fsw	fa0,60(a2)
e0001ac0:	e630                	fsw	fa2,72(a2)
e0001ac2:	4c58                	lw	a4,28(s0)
e0001ac4:	0000                	unimp
e0001ac6:	00c0                	addi	s0,sp,68
e0001ac8:	8050                	0x8050
e0001aca:	d00a                	sw	sp,32(sp)
e0001acc:	963c                	0x963c
e0001ace:	00c8                	addi	a0,sp,68
e0001ad0:	0000                	unimp
e0001ad2:	5010                	lw	a2,32(s0)
e0001ad4:	5818                	lw	a4,48(s0)
e0001ad6:	4914                	lw	a3,16(a0)
e0001ad8:	00c9                	addi	ra,ra,18
e0001ada:	5560                	lw	s0,108(a0)
e0001adc:	0000                	unimp
e0001ade:	f630                	fsw	fa2,104(a2)
e0001ae0:	7034                	flw	fa3,96(s0)
e0001ae2:	d002                	sw	zero,32(sp)
e0001ae4:	0b00                	addi	s0,sp,400
e0001ae6:	00000143          	fmadd.s	ft2,ft0,ft0,ft0,rne
e0001aea:	0ef0                	addi	a2,sp,860
e0001aec:	6268                	flw	fa0,68(a2)
e0001aee:	c568                	sw	a0,76(a0)
e0001af0:	58d0                	lw	a2,52(s1)
e0001af2:	54e4                	lw	s1,108(s1)
e0001af4:	0000                	unimp
e0001af6:	00c0                	addi	s0,sp,68
e0001af8:	028a                	slli	t0,t0,0x2
e0001afa:	4380                	lw	s0,0(a5)
e0001afc:	fb00                	fsw	fs0,48(a4)
e0001afe:	8052                	0x8052
e0001b00:	0000                	unimp
e0001b02:	0ef0                	addi	a2,sp,860
e0001b04:	c401                	beqz	s0,e0001b0c <hmac_smoketest+0x1580>
e0001b06:	5d242dc3          	fmadd.h	s11,s0,s2,a1,rdn
e0001b0a:	0ef8                	addi	a4,sp,860
e0001b0c:	0000                	unimp
e0001b0e:	6510                	flw	fa2,8(a0)
e0001b10:	b032                	fsd	fa2,32(sp)
e0001b12:	cff2                	sw	t3,220(sp)
e0001b14:	0ef0                	addi	a2,sp,860
e0001b16:	4700                	lw	s0,8(a4)
e0001b18:	0000                	unimp
e0001b1a:	0280                	addi	s0,sp,320
e0001b1c:	0280                	addi	s0,sp,320
e0001b1e:	d380                	sw	s0,32(a5)
e0001b20:	b830                	fsd	fa2,112(s0)
e0001b22:	00c2                	slli	ra,ra,0x10
e0001b24:	0000                	unimp
e0001b26:	0040                	addi	s0,sp,4
e0001b28:	ac01                	j	e0001d38 <hmac_smoketest+0x17ac>
e0001b2a:	5ca4db23          	0x5ca4db23
e0001b2e:	0ef8                	addi	a4,sp,860
e0001b30:	0000                	unimp
e0001b32:	6510                	flw	fa2,8(a0)
e0001b34:	6de8                	flw	fa0,92(a1)
e0001b36:	ea98                	fsw	fa4,16(a3)
e0001b38:	5a60                	lw	s0,116(a2)
e0001b3a:	65a8                	flw	fa0,72(a1)
e0001b3c:	0000                	unimp
e0001b3e:	0280                	addi	s0,sp,320
e0001b40:	4854                	lw	a3,20(s0)
e0001b42:	2910                	fld	fa2,16(a0)
e0001b44:	2900                	fld	fs0,16(a0)
e0001b46:	5052                	0x5052
e0001b48:	0000                	unimp
e0001b4a:	0ef0                	addi	a2,sp,860
e0001b4c:	9a49                	andi	a2,a2,-14
e0001b4e:	c11021bf 0000ce30 	0xce30c11021bf
e0001b56:	4110                	lw	a2,0(a0)
e0001b58:	5136                	lw	sp,108(sp)
e0001b5a:	c8a0                	sw	s0,80(s1)
e0001b5c:	5118                	lw	a4,32(a0)
e0001b5e:	531c                	lw	a5,32(a4)
e0001b60:	0000                	unimp
e0001b62:	9050                	0x9050
e0001b64:	d061                	beqz	s0,e0001b24 <hmac_smoketest+0x1598>
e0001b66:	f564                	fsw	fs1,108(a0)
e0001b68:	0efa                	slli	t4,t4,0x1e
e0001b6a:	4900                	lw	s0,16(a0)
e0001b6c:	0000                	unimp
e0001b6e:	ad50                	fsd	fa2,152(a0)
e0001b70:	b464                	fsd	fs1,232(s0)
e0001b72:	4a94                	lw	a3,16(a3)
e0001b74:	c264                	sw	s1,68(a2)
e0001b76:	bb64                	fsd	fs1,240(a4)
e0001b78:	0000                	unimp
e0001b7a:	c960                	sw	s0,84(a0)
e0001b7c:	9064                	0x9064
e0001b7e:	0e45                	addi	t3,t3,17
e0001b80:	a664                	fsd	fs1,200(a2)
e0001b82:	9f64                	0x9f64
e0001b84:	0000                	unimp
e0001b86:	ad60                	fsd	fs0,216(a0)
e0001b88:	1655                	addi	a2,a2,-11
e0001b8a:	6916                	flw	fs2,68(sp)
e0001b8c:	4265                	li	tp,25
e0001b8e:	0b65                	addi	s6,s6,25
e0001b90:	0000                	unimp
e0001b92:	4960                	lw	s0,84(a0)
e0001b94:	c22d                	beqz	a2,e0001bf6 <hmac_smoketest+0x166a>
e0001b96:	edcd                	bnez	a1,e0001c50 <hmac_smoketest+0x16c4>
e0001b98:	1398                	addi	a4,sp,480
e0001b9a:	0000e067          	0xe067
e0001b9e:	0820                	addi	s0,sp,24
e0001ba0:	452d                	li	a0,11
e0001ba2:	d1bd                	beqz	a1,e0001b08 <hmac_smoketest+0x157c>
e0001ba4:	84ad                	srai	s1,s1,0xb
e0001ba6:	64ed                	lui	s1,0x1b
e0001ba8:	0000                	unimp
e0001baa:	a260                	fsd	fs0,192(a2)
e0001bac:	c62c                	sw	a1,72(a2)
e0001bae:	900c                	0x900c
e0001bb0:	05ad                	addi	a1,a1,11
e0001bb2:	e5ed                	bnez	a1,e0001c9c <hmac_smoketest+0x1710>
e0001bb4:	0000                	unimp
e0001bb6:	2560                	fld	fs0,200(a0)
e0001bb8:	b2a8                	fsd	fa0,96(a3)
e0001bba:	2388                	fld	fa0,0(a5)
e0001bbc:	bb2c                	fsd	fa1,112(a4)
e0001bbe:	92e8                	0x92e8
e0001bc0:	0000                	unimp
e0001bc2:	2510                	fld	fa2,8(a0)
e0001bc4:	2450                	fld	fa2,136(s0)
e0001bc6:	ce44                	sw	s1,28(a2)
e0001bc8:	51300003          	lb	zero,1299(zero) # 513 <_min_stack-0x1aed>
e0001bcc:	0000                	unimp
e0001bce:	5170                	lw	a2,100(a0)
e0001bd0:	fc70015b          	p.mulhhsn	sp,zero,t2,30
e0001bd4:	5014                	lw	a3,32(s0)
e0001bd6:	c134                	sw	a3,64(a0)
e0001bd8:	0000                	unimp
e0001bda:	10c0                	addi	s0,sp,100
e0001bdc:	1898                	addi	a4,sp,112
e0001bde:	ee46                	fsw	fa7,28(sp)
e0001be0:	0002                	0x2
e0001be2:	9930                	0x9930
e0001be4:	0000                	unimp
e0001be6:	9970                	0x9970
e0001be8:	a97a                	fsd	ft10,144(sp)
e0001bea:	a136d6ef          	jal	a3,dff6f5fc <tohost+0xdff4f5f4>
e0001bee:	ad58                	fsd	fa4,152(a0)
e0001bf0:	0000                	unimp
e0001bf2:	5b10                	lw	a2,48(a4)
e0001bf4:	4ca1                	li	s9,8
e0001bf6:	5e48                	lw	a0,60(a2)
e0001bf8:	a931                	j	e0002014 <hmac_smoketest+0x1a88>
e0001bfa:	daa8                	sw	a0,112(a3)
e0001bfc:	0000                	unimp
e0001bfe:	0000                	unimp
e0001c00:	55a0                	lw	s0,104(a1)
e0001c02:	0a98                	addi	a4,sp,336
e0001c04:	0ab8                	addi	a4,sp,344
e0001c06:	8544                	0x8544
e0001c08:	0000                	unimp
e0001c0a:	6330                	flw	fa2,64(a4)
e0001c0c:	95d8                	0x95d8
e0001c0e:	2919                	jal	e0002024 <hmac_smoketest+0x1a98>
e0001c10:	a058                	fsd	fa4,128(s0)
e0001c12:	42a2                	lw	t0,8(sp)
e0001c14:	0000                	unimp
e0001c16:	5a60                	lw	s0,116(a2)
e0001c18:	5850                	lw	a2,52(s0)
e0001c1a:	c6e4                	sw	s1,76(a3)
e0001c1c:	863c                	0x863c
e0001c1e:	00c1                	addi	ra,ra,16
e0001c20:	0000                	unimp
e0001c22:	50d0                	lw	a2,36(s1)
e0001c24:	2f00                	fld	fs0,24(a4)
e0001c26:	6912                	flw	fs2,4(sp)
e0001c28:	6228                	flw	fa0,64(a2)
e0001c2a:	0ef8                	addi	a4,sp,860
e0001c2c:	0000                	unimp
e0001c2e:	5560                	lw	s0,108(a0)
e0001c30:	5ce4                	lw	s1,124(s1)
e0001c32:	54d8                	lw	a4,44(s1)
e0001c34:	50aa                	lw	ra,168(sp)
e0001c36:	6518                	flw	fa4,8(a0)
e0001c38:	0000                	unimp
e0001c3a:	8110                	0x8110
e0001c3c:	5a28                	lw	a0,112(a2)
e0001c3e:	8a98                	0x8a98
e0001c40:	f801                	bnez	s0,e0001b50 <hmac_smoketest+0x15c4>
e0001c42:	50a2                	lw	ra,40(sp)
e0001c44:	0000                	unimp
e0001c46:	0ef0                	addi	a2,sp,860
e0001c48:	0ef8                	addi	a4,sp,860
e0001c4a:	f1b0                	fsw	fa2,96(a1)
e0001c4c:	7900                	flw	fs0,48(a0)
e0001c4e:	5521                	li	a0,-24
e0001c50:	0000                	unimp
e0001c52:	0ef0                	addi	a2,sp,860
e0001c54:	2b23513f f8405130 	0xf84051302b23513f
e0001c5c:	0000                	unimp
e0001c5e:	ad00                	fsd	fs0,24(a0)
e0001c60:	69d8                	flw	fa4,20(a1)
e0001c62:	1190d1b3          	0x1190d1b3
e0001c66:	55ac                	lw	a1,104(a1)
e0001c68:	0000                	unimp
e0001c6a:	0150                	addi	a2,sp,132
e0001c6c:	1248                	addi	a0,sp,292
e0001c6e:	2914                	fld	fa3,16(a0)
e0001c70:	4aa4                	lw	s1,80(a3)
e0001c72:	5339                	li	t1,-18
e0001c74:	0000                	unimp
e0001c76:	5520                	lw	s0,104(a0)
e0001c78:	bf24                	fsd	fs1,120(a4)
e0001c7a:	3914                	fld	fa3,48(a0)
e0001c7c:	b756                	fsd	fs5,424(sp)
e0001c7e:	0000c62f          	0xc62f
e0001c82:	8e30                	0x8e30
e0001c84:	9b25                	andi	a4,a4,-23
e0001c86:	c755                	beqz	a4,e0001d32 <hmac_smoketest+0x17a6>
e0001c88:	a925                	j	e00020c0 <hmac_smoketest+0x1b34>
e0001c8a:	a225                	j	e0001db2 <hmac_smoketest+0x1826>
e0001c8c:	0000                	unimp
e0001c8e:	b020                	fsd	fs0,96(s0)
e0001c90:	0f25                	addi	t5,t5,9
e0001c92:	9ff5                	0x9ff5
e0001c94:	4d25                	li	s10,9
e0001c96:	4625                	li	a2,9
e0001c98:	0000                	unimp
e0001c9a:	9420                	0x9420
e0001c9c:	601c                	flw	fa5,0(s0)
e0001c9e:	ca94                	sw	a3,16(a3)
e0001ca0:	0826                	slli	a6,a6,0x9
e0001ca2:	5818                	lw	a4,48(s0)
e0001ca4:	0000                	unimp
e0001ca6:	1210                	addi	a2,sp,288
e0001ca8:	5324                	lw	s1,96(a4)
e0001caa:	9dc8                	0x9dc8
e0001cac:	011c                	addi	a5,sp,128
e0001cae:	60da                	flw	ft1,148(sp)
e0001cb0:	0000                	unimp
e0001cb2:	1880                	addi	s0,sp,112
e0001cb4:	7930                	flw	fa2,112(a0)
e0001cb6:	7138775b          	p.mac.zh.sh	a4,a6,s3,s8
e0001cba:	00000153          	fadd.s	ft2,ft0,ft0,rne
e0001cbe:	0820                	addi	s0,sp,24
e0001cc0:	7a54                	flw	fa3,52(a2)
e0001cc2:	bc7e                	fsd	ft11,56(sp)
e0001cc4:	fd90                	fsw	fa2,56(a1)
e0001cc6:	70d8                	flw	fa4,36(s1)
e0001cc8:	0000                	unimp
e0001cca:	0150                	addi	a2,sp,132
e0001ccc:	108a                	slli	ra,ra,0x22
e0001cce:	bdc0                	fsd	fs0,184(a1)
e0001cd0:	0052                	0x52
e0001cd2:	8030                	0x8030
e0001cd4:	0000                	unimp
e0001cd6:	8830                	0x8830
e0001cd8:	c634                	sw	a3,72(a2)
e0001cda:	c751                	beqz	a4,e0001d66 <hmac_smoketest+0x17da>
e0001cdc:	a194                	fsd	fa3,0(a1)
e0001cde:	785c                	flw	fa5,52(s0)
e0001ce0:	0000                	unimp
e0001ce2:	7350                	flw	fa2,36(a4)
e0001ce4:	785c                	flw	fa5,52(s0)
e0001ce6:	31b4                	fld	fa3,96(a1)
e0001ce8:	2810                	fld	fa2,16(s0)
e0001cea:	a814                	fsd	fa3,16(s0)
e0001cec:	0000                	unimp
e0001cee:	4f60                	lw	s0,92(a4)
e0001cf0:	0214                	addi	a3,sp,256
e0001cf2:	a56a                	fsd	fs10,136(sp)
e0001cf4:	4f69                	li	t5,26
e0001cf6:	3010                	fld	fa2,32(s0)
e0001cf8:	0000                	unimp
e0001cfa:	7630                	flw	fa2,104(a2)
e0001cfc:	1984                	addi	s1,sp,240
e0001cfe:	cdc4                	sw	s1,28(a1)
e0001d00:	af54                	fsd	fa3,152(a4)
e0001d02:	321f 0000 2910      	0x29100000321f
e0001d08:	7130                	flw	fa2,96(a0)
e0001d0a:	9dc0                	0x9dc0
e0001d0c:	4e8a                	lw	t4,128(sp)
e0001d0e:	5910                	lw	a2,48(a0)
e0001d10:	0000                	unimp
e0001d12:	0230                	addi	a2,sp,264
e0001d14:	1100                	addi	s0,sp,160
e0001d16:	d004                	sw	s1,32(s0)
e0001d18:	7930                	flw	fa2,112(a0)
e0001d1a:	2000                	fld	fs0,0(s0)
e0001d1c:	0000                	unimp
e0001d1e:	3c00                	fld	fs0,56(s0)
e0001d20:	771c                	flw	fa5,40(a4)
e0001d22:	e8a1                	bnez	s1,e0001d72 <hmac_smoketest+0x17e6>
e0001d24:	63a4                	flw	fs1,64(a5)
e0001d26:	2149                	jal	e00021a8 <hmac_smoketest+0x1c1c>
e0001d28:	0000                	unimp
e0001d2a:	1940                	addi	s0,sp,180
e0001d2c:	6e47593f ef71ae30 	0xef71ae306e47593f
e0001d34:	0000                	unimp
e0001d36:	5910                	lw	a2,48(a0)
e0001d38:	055e                	slli	a0,a0,0x17
e0001d3a:	a750                	fsd	fa2,136(a4)
e0001d3c:	5b34118f          	0x5b34118f
e0001d40:	0000                	unimp
e0001d42:	f080                	fsw	fs0,32(s1)
e0001d44:	035e                	slli	t1,t1,0x17
e0001d46:	38a0                	fld	fs0,112(s1)
e0001d48:	065e                	slli	a2,a2,0x17
e0001d4a:	5930                	lw	a2,112(a0)
e0001d4c:	0000                	unimp
e0001d4e:	5b30                	lw	a2,112(a4)
e0001d50:	7014                	flw	fa3,32(s0)
e0001d52:	b1b4                	fsd	fa3,96(a1)
e0001d54:	108c                	addi	a1,sp,96
e0001d56:	94c4                	0x94c4
e0001d58:	0000                	unimp
e0001d5a:	b0c0                	fsd	fs0,160(s1)
e0001d5c:	53ac                	lw	a1,96(a5)
e0001d5e:	4388                	lw	a0,0(a5)
e0001d60:	015e                	slli	sp,sp,0x17
e0001d62:	94c0                	0x94c0
e0001d64:	0000                	unimp
e0001d66:	5930                	lw	a2,112(a0)
e0001d68:	8034                	0x8034
e0001d6a:	54d2                	lw	s1,52(sp)
e0001d6c:	1058                	addi	a4,sp,36
e0001d6e:	118c                	addi	a1,sp,224
e0001d70:	0000                	unimp
e0001d72:	0820                	addi	s0,sp,24
e0001d74:	785c                	flw	fa5,52(s0)
e0001d76:	8b24                	0x8b24
e0001d78:	6b50                	flw	fa2,20(a4)
e0001d7a:	d894                	sw	a3,48(s1)
e0001d7c:	0000                	unimp
e0001d7e:	1070                	addi	a2,sp,44
e0001d80:	a114                	fsd	fa3,0(a0)
e0001d82:	66ec                	flw	fa1,76(a3)
e0001d84:	2f59                	jal	e000251a <hmac_smoketest+0x1f8e>
e0001d86:	5810                	lw	a2,48(s0)
e0001d88:	0000                	unimp
e0001d8a:	b630                	fsd	fa2,104(a2)
e0001d8c:	6010                	flw	fa2,0(s0)
e0001d8e:	84d4                	0x84d4
e0001d90:	6634                	flw	fa3,72(a2)
e0001d92:	2f61                	jal	e000252a <hmac_smoketest+0x1f9e>
e0001d94:	0000                	unimp
e0001d96:	7850                	flw	fa2,52(s0)
e0001d98:	591a                	lw	s2,164(sp)
e0001d9a:	f384                	fsw	fs1,32(a5)
e0001d9c:	68da                	flw	fa7,148(sp)
e0001d9e:	00d4                	addi	a3,sp,68
e0001da0:	0000                	unimp
e0001da2:	0310                	addi	a2,sp,384
e0001da4:	391ff087          	0x391ff087
e0001da8:	621f 6934 0000      	0x6934621f
e0001dae:	a650                	fsd	fa2,136(a2)
e0001db0:	025e                	slli	tp,tp,0x17
e0001db2:	a8a0                	fsd	fs0,80(s1)
e0001db4:	dd18                	sw	a4,56(a0)
e0001db6:	5938                	lw	a4,112(a0)
e0001db8:	0000                	unimp
e0001dba:	dd50                	sw	a2,60(a0)
e0001dbc:	6814                	flw	fa3,16(s0)
e0001dbe:	f8a4                	fsw	fs1,112(s1)
e0001dc0:	108c                	addi	a1,sp,96
e0001dc2:	94c4                	0x94c4
e0001dc4:	0000                	unimp
e0001dc6:	b0c0                	fsd	fs0,160(s1)
e0001dc8:	536c                	lw	a1,100(a4)
e0001dca:	c1b8                	sw	a4,64(a1)
e0001dcc:	015e                	slli	sp,sp,0x17
e0001dce:	94c0                	0x94c0
e0001dd0:	0000                	unimp
e0001dd2:	5930                	lw	a2,112(a0)
e0001dd4:	7930                	flw	fa2,112(a0)
e0001dd6:	7138775b          	p.mac.zh.sh	a4,a6,s3,s8
e0001dda:	00000153          	fadd.s	ft2,ft0,ft0,rne
e0001dde:	0820                	addi	s0,sp,24
e0001de0:	3b94                	fld	fa3,48(a5)
e0001de2:	c4de                	sw	s7,72(sp)
e0001de4:	fd90                	fsw	fa2,56(a1)
e0001de6:	70d8                	flw	fa4,36(s1)
e0001de8:	0000                	unimp
e0001dea:	0150                	addi	a2,sp,132
e0001dec:	8838                	0x8838
e0001dee:	3ff2                	fld	ft11,312(sp)
e0001df0:	811c                	0x811c
e0001df2:	7b24                	flw	fs1,112(a4)
e0001df4:	0000                	unimp
e0001df6:	e1d0                	fsw	fa2,4(a1)
e0001df8:	5630                	lw	a2,104(a2)
e0001dfa:	38ae                	fld	fa7,232(sp)
e0001dfc:	7030                	flw	fa2,96(s0)
e0001dfe:	188a                	slli	a7,a7,0x22
e0001e00:	0000                	unimp
e0001e02:	0050                	addi	a2,sp,4
e0001e04:	f010                	fsw	fa2,32(s0)
e0001e06:	bb2c                	fsd	fa1,112(a4)
e0001e08:	7130                	flw	fa2,96(a0)
e0001e0a:	035f 0000 1070      	0x10700000035f
e0001e10:	0088                	addi	a0,sp,64
e0001e12:	5ff4                	lw	a3,124(a5)
e0001e14:	0058                	addi	a4,sp,4
e0001e16:	7130                	flw	fa2,96(a0)
e0001e18:	0000                	unimp
e0001e1a:	2830                	fld	fa2,80(s0)
e0001e1c:	f994                	fsw	fa3,48(a1)
e0001e1e:	1238                	addi	a4,sp,296
e0001e20:	0570                	addi	a2,sp,652
e0001e22:	7054                	flw	fa3,36(s0)
e0001e24:	0000                	unimp
e0001e26:	0230                	addi	a2,sp,264
e0001e28:	283a                	fld	fa6,392(sp)
e0001e2a:	9c7a                	add	s8,s8,t5
e0001e2c:	ff19                	bnez	a4,e0001d4a <hmac_smoketest+0x17be>
e0001e2e:	809f 0000 5ba0      	0x5ba00000809f
e0001e34:	0234                	addi	a3,sp,264
e0001e36:	3912                	fld	fs2,288(sp)
e0001e38:	7130                	flw	fa2,96(a0)
e0001e3a:	0088                	addi	a0,sp,64
e0001e3c:	0000                	unimp
e0001e3e:	0050                	addi	a2,sp,4
e0001e40:	4564701b          	0x4564701b
e0001e44:	7114                	flw	fa3,32(a0)
e0001e46:	7ed4                	flw	fa3,60(a3)
e0001e48:	0000                	unimp
e0001e4a:	0570                	addi	a2,sp,652
e0001e4c:	0828                	addi	a0,sp,24
e0001e4e:	36e8                	fld	fa0,232(a3)
e0001e50:	290c                	fld	fa1,16(a0)
e0001e52:	53ac                	lw	a1,96(a5)
e0001e54:	0000                	unimp
e0001e56:	2910                	fld	fa2,16(a0)
e0001e58:	5e40015b          	p.mulhhun	sp,zero,tp,15
e0001e5c:	69300153          	0x69300153
e0001e60:	0000                	unimp
e0001e62:	6130                	flw	fa2,64(a0)
e0001e64:	108e                	slli	ra,ra,0x23
e0001e66:	fa94                	fsw	fa3,48(a3)
e0001e68:	60d8                	flw	fa4,4(s1)
e0001e6a:	6994                	flw	fa3,16(a1)
e0001e6c:	0000                	unimp
e0001e6e:	ed10                	fsw	fa2,24(a0)
e0001e70:	97d8                	0x97d8
e0001e72:	64d8                	flw	fa4,12(s1)
e0001e74:	6014                	flw	fa3,0(s0)
e0001e76:	1114                	addi	a3,sp,160
e0001e78:	0000                	unimp
e0001e7a:	d080                	sw	s0,32(s1)
e0001e7c:	6138                	flw	fa4,64(a0)
e0001e7e:	532cc6e3          	blt	s9,s2,e0002baa <hmac_smoketest+0x261e>
e0001e82:	0828                	addi	a0,sp,24
e0001e84:	0000                	unimp
e0001e86:	1880                	addi	s0,sp,112
e0001e88:	ed10                	fsw	fa2,24(a0)
e0001e8a:	f388                	fsw	fa0,32(a5)
e0001e8c:	6930                	flw	fa2,80(a0)
e0001e8e:	0000015b          	p.mac	sp,zero,zero,zero
e0001e92:	0150                	addi	a2,sp,132
e0001e94:	1744                	addi	s1,sp,932
e0001e96:	c385                	beqz	a5,e0001eb6 <hmac_smoketest+0x192a>
e0001e98:	6994                	flw	fa3,16(a1)
e0001e9a:	108e                	slli	ra,ra,0x23
e0001e9c:	0000                	unimp
e0001e9e:	60d0                	flw	fa2,4(s1)
e0001ea0:	194c                	addi	a1,sp,180
e0001ea2:	823c                	0x823c
e0001ea4:	6015                	0x6015
e0001ea6:	1c84                	addi	s1,sp,624
e0001ea8:	0000                	unimp
e0001eaa:	5280                	lw	s0,32(a3)
e0001eac:	10cc                	addi	a1,sp,100
e0001eae:	b6e4                	fsd	fs1,232(a3)
e0001eb0:	0828                	addi	a0,sp,24
e0001eb2:	9018                	0x9018
e0001eb4:	0000                	unimp
e0001eb6:	5320                	lw	s0,96(a4)
e0001eb8:	0266                	slli	tp,tp,0x19
e0001eba:	1230                	addi	a2,sp,296
e0001ebc:	5014                	lw	a3,32(s0)
e0001ebe:	6134                	flw	fa3,64(a0)
e0001ec0:	0000                	unimp
e0001ec2:	9d00                	0x9d00
e0001ec4:	0824                	addi	s1,sp,24
e0001ec6:	3918                	fld	fa4,48(a0)
e0001ec8:	082c                	addi	a1,sp,24
e0001eca:	50d8                	lw	a4,36(s1)
e0001ecc:	0000                	unimp
e0001ece:	9d00                	0x9d00
e0001ed0:	5e40015b          	p.mulhhun	sp,zero,tp,15
e0001ed4:	69300153          	0x69300153
e0001ed8:	0000                	unimp
e0001eda:	6130                	flw	fa2,64(a0)
e0001edc:	110e                	slli	sp,sp,0x23
e0001ede:	e234                	fsw	fa3,64(a2)
e0001ee0:	60d8                	flw	fa4,4(s1)
e0001ee2:	e9d4                	fsw	fa3,20(a1)
e0001ee4:	0000                	unimp
e0001ee6:	ed10                	fsw	fa2,24(a0)
e0001ee8:	7098                	flw	fa4,32(s1)
e0001eea:	cffe                	sw	t6,220(sp)
e0001eec:	e144                	fsw	fs1,4(a0)
e0001eee:	b054                	fsd	fa3,160(s0)
e0001ef0:	0000                	unimp
e0001ef2:	2180                	fld	fs0,0(a1)
e0001ef4:	035e                	slli	t1,t1,0x17
e0001ef6:	8a9a                	mv	s5,t1
e0001ef8:	6398                	flw	fa4,0(a5)
e0001efa:	6914                	flw	fa3,16(a0)
e0001efc:	0000                	unimp
e0001efe:	a850                	fsd	fa2,144(s0)
e0001f00:	2140                	fld	fs0,128(a0)
e0001f02:	2b2c                	fld	fa1,80(a4)
e0001f04:	6934                	flw	fa3,80(a0)
e0001f06:	016e                	slli	sp,sp,0x1b
e0001f08:	0000                	unimp
e0001f0a:	2140                	fld	fs0,128(a0)
e0001f0c:	4000                	lw	s0,0(s0)
e0001f0e:	fa90                	fsw	fa2,48(a3)
e0001f10:	6000                	flw	fs0,0(s0)
e0001f12:	6930                	flw	fa2,80(a0)
e0001f14:	0000                	unimp
e0001f16:	6130                	flw	fa2,64(a0)
e0001f18:	1984                	addi	s1,sp,240
e0001f1a:	c6ec                	sw	a1,76(a3)
e0001f1c:	7324                	flw	fs1,96(a4)
e0001f1e:	3189                	jal	e0001b60 <hmac_smoketest+0x15d4>
e0001f20:	0000                	unimp
e0001f22:	1180                	addi	s0,sp,224
e0001f24:	ed61                	bnez	a0,e0001ffc <hmac_smoketest+0x1a70>
e0001f26:	591116ef          	jal	a3,e0013cb6 <fromhost+0x3ca6>
e0001f2a:	ae30                	fsd	fa2,88(a2)
e0001f2c:	0000                	unimp
e0001f2e:	6710                	flw	fa2,8(a4)
e0001f30:	9f14                	0x9f14
e0001f32:	da99                	beqz	a3,e0001e48 <hmac_smoketest+0x18bc>
e0001f34:	90c4                	0x90c4
e0001f36:	6014                	flw	fa3,0(s0)
e0001f38:	0000                	unimp
e0001f3a:	1080                	addi	s0,sp,96
e0001f3c:	1018                	addi	a4,sp,32
e0001f3e:	6ff1                	lui	t6,0x1c
e0001f40:	532c                	lw	a1,96(a4)
e0001f42:	0828                	addi	a0,sp,24
e0001f44:	0000                	unimp
e0001f46:	90c0                	0x90c0
e0001f48:	4000513f 0001517c 	0x1517c4000513f
e0001f50:	0000                	unimp
e0001f52:	e060                	fsw	fs0,68(s0)
e0001f54:	0f2c                	addi	a1,sp,920
e0001f56:	84d4                	0x84d4
e0001f58:	5094108f          	0x5094108f
e0001f5c:	0000                	unimp
e0001f5e:	6650                	flw	fa2,12(a2)
e0001f60:	5175                	li	sp,-3
e0001f62:	06f6f233          	0x6f6f233
e0001f66:	7601                	lui	a2,0xfffe0
e0001f68:	0000                	unimp
e0001f6a:	1050                	addi	a2,sp,36
e0001f6c:	1081                	addi	ra,ra,-32
e0001f6e:	f564                	fsw	fs1,108(a0)
e0001f70:	5130                	lw	a2,96(a0)
e0001f72:	b650                	fsd	fa2,168(a2)
e0001f74:	0000                	unimp
e0001f76:	0000                	unimp
e0001f78:	5131                	li	sp,-20
e0001f7a:	d750                	sw	a2,44(a4)
e0001f7c:	517c                	lw	a5,100(a0)
e0001f7e:	0000000f          	fence	unknown,unknown
e0001f82:	9110                	0x9110
e0001f84:	1054                	addi	a3,sp,36
e0001f86:	e1b6                	fsw	fa3,192(sp)
e0001f88:	581f 0f24 0000      	0xf24581f
e0001f8e:	ba50                	fsd	fa2,176(a2)
e0001f90:	0002                	0x2
e0001f92:	7c70                	flw	fa2,124(s0)
e0001f94:	ea00                	fsw	fs0,16(a2)
e0001f96:	00005977          	0x5977
e0001f9a:	06f0                	addi	a2,sp,844
e0001f9c:	6510                	flw	fa2,8(a0)
e0001f9e:	ea94                	fsw	fa3,16(a3)
e0001fa0:	3c58                	fld	fa4,184(s0)
e0001fa2:	0286                	slli	t0,t0,0x1
e0001fa4:	0000                	unimp
e0001fa6:	5930                	lw	a2,112(a0)
e0001fa8:	0ef0                	addi	a2,sp,860
e0001faa:	46e0                	lw	s0,76(a3)
e0001fac:	b001                	j	e00017ac <hmac_smoketest+0x1220>
e0001fae:	0280                	addi	s0,sp,320
e0001fb0:	0000                	unimp
e0001fb2:	0ef0                	addi	a2,sp,860
e0001fb4:	0826                	slli	a6,a6,0x9
e0001fb6:	cff8                	sw	a4,92(a5)
e0001fb8:	10540f27          	0x10540f27
e0001fbc:	0000                	unimp
e0001fbe:	3200                	fld	fs0,32(a2)
e0001fc0:	226d                	jal	e000216a <hmac_smoketest+0x1bde>
e0001fc2:	ba9d                	j	e0001938 <hmac_smoketest+0x13ac>
e0001fc4:	422d6067          	0x422d6067
e0001fc8:	0000                	unimp
e0001fca:	1790                	addi	a2,sp,992
e0001fcc:	5450                	lw	a2,44(s0)
e0001fce:	511d94d3          	0x511d94d3
e0001fd2:	5136                	lw	sp,108(sp)
e0001fd4:	0000                	unimp
e0001fd6:	04a0                	addi	s0,sp,584
e0001fd8:	f1b00003          	lb	zero,-229(zero) # ffffff1b <pulp__FC+0xffffff1c>
e0001fdc:	5200                	lw	s0,32(a2)
e0001fde:	5176                	lw	sp,124(sp)
e0001fe0:	0000                	unimp
e0001fe2:	0ef0                	addi	a2,sp,860
e0001fe4:	9174                	0x9174
e0001fe6:	48505dc3          	fmadd.s	fs11,ft0,ft5,fs1,unknown
e0001fea:	1081                	addi	ra,ra,-32
e0001fec:	0000                	unimp
e0001fee:	5130                	lw	a2,96(a0)
e0001ff0:	4971                	li	s2,28
e0001ff2:	1dc2                	slli	s11,s11,0x30
e0001ff4:	9130                	0x9130
e0001ff6:	5e90                	lw	a2,56(a3)
e0001ff8:	0000                	unimp
e0001ffa:	0000                	unimp
e0001ffc:	91df 3b2c 4930      	0x49303b2c91df
e0002002:	7a48                	flw	fa0,52(a2)
e0002004:	0000                	unimp
e0002006:	0000                	unimp
e0002008:	0c00                	addi	s0,sp,528
e000200a:	d564                	sw	s1,108(a0)
e000200c:	5032                	0x5032
e000200e:	0092                	slli	ra,ra,0x4
e0002010:	0000                	unimp
e0002012:	8fd0                	0x8fd0
e0002014:	5131                	li	sp,-20
e0002016:	d750                	sw	a2,44(a4)
e0002018:	517c                	lw	a5,100(a0)
e000201a:	0000000f          	fence	unknown,unknown
e000201e:	9110                	0x9110
e0002020:	0ef8                	addi	a4,sp,860
e0002022:	8dc0                	0x8dc0
e0002024:	585f 6224 0000      	0x6224585f
e000202a:	6650                	flw	fa2,12(a2)
e000202c:	0002                	0x2
e000202e:	7b20                	flw	fs0,112(a4)
e0002030:	597a8297          	auipc	t0,0x597a8
e0002034:	0000                	unimp
e0002036:	8400                	0x8400
e0002038:	6518                	flw	fa4,8(a0)
e000203a:	4234                	lw	a3,64(a2)
e000203c:	e858                	fsw	fa4,20(s0)
e000203e:	50a5                	li	ra,-23
e0002040:	0000                	unimp
e0002042:	5930                	lw	a2,112(a0)
e0002044:	5a28                	lw	a0,112(a2)
e0002046:	c6e8                	sw	a0,76(a3)
e0002048:	4801                	li	a6,0
e000204a:	50a0                	lw	s0,96(s1)
e000204c:	0000                	unimp
e000204e:	0ef0                	addi	a2,sp,860
e0002050:	11f0                	addi	a2,sp,236
e0002052:	a23c                	fsd	fa5,64(a2)
e0002054:	c800                	sw	s0,16(s0)
e0002056:	5376                	lw	t1,124(sp)
e0002058:	0000                	unimp
e000205a:	0ef0                	addi	a2,sp,860
e000205c:	d155                	beqz	a0,e0002000 <hmac_smoketest+0x1a74>
e000205e:	f4dc                	fsw	fa5,44(s1)
e0002060:	0ef0                	addi	a2,sp,860
e0002062:	ea00                	fsw	fs0,16(a2)
e0002064:	0000                	unimp
e0002066:	82c0                	0x82c0
e0002068:	9110                	0x9110
e000206a:	3e4c                	fld	fa1,184(a2)
e000206c:	5038                	lw	a4,96(s0)
e000206e:	0092                	slli	ra,ra,0x4
e0002070:	0000                	unimp
e0002072:	42a0                	lw	s0,64(a3)
e0002074:	3c50                	fld	fa2,184(s0)
e0002076:	291f 000f 5131      	0x5131000f291f
e000207c:	0000                	unimp
e000207e:	5170                	lw	a2,100(a0)
e0002080:	4600                	lw	s0,8(a2)
e0002082:	62242dc7          	fmsub.d	fs11,fs0,ft2,fa2,rdn
e0002086:	0ef8                	addi	a4,sp,860
e0002088:	0000                	unimp
e000208a:	5850                	lw	a2,52(s0)
e000208c:	5930                	lw	a2,112(a0)
e000208e:	adc8                	fsd	fa0,152(a1)
e0002090:	597a                	lw	s2,188(sp)
e0002092:	0002                	0x2
e0002094:	0000                	unimp
e0002096:	8290                	0x8290
e0002098:	0ef4                	addi	a3,sp,860
e000209a:	ea91                	bnez	a3,e00020ae <hmac_smoketest+0x1b22>
e000209c:	50a5                	li	ra,-23
e000209e:	6518                	flw	fa4,8(a0)
e00020a0:	0000                	unimp
e00020a2:	be50                	fsd	fa2,184(a2)
e00020a4:	0ef8                	addi	a4,sp,860
e00020a6:	a000                	fsd	fs0,0(s0)
e00020a8:	50a0                	lw	s0,96(s1)
e00020aa:	5a28                	lw	a0,112(a2)
e00020ac:	0000                	unimp
e00020ae:	0a00                	addi	s0,sp,272
e00020b0:	ad50                	fsd	fa2,152(a0)
e00020b2:	b75a                	fsd	fs6,424(sp)
e00020b4:	5316                	lw	t1,100(sp)
e00020b6:	5136                	lw	sp,108(sp)
e00020b8:	0000                	unimp
e00020ba:	8a00                	0x8a00
e00020bc:	b310                	fsd	fa2,32(a4)
e00020be:	4002                	0x4002
e00020c0:	50a2                	lw	ra,40(sp)
e00020c2:	82c8                	0x82c8
e00020c4:	0000                	unimp
e00020c6:	b6d0                	fsd	fa2,168(a3)
e00020c8:	ac50                	fsd	fa2,152(s0)
e00020ca:	6dce                	flw	fs11,208(sp)
e00020cc:	0001                	nop
e00020ce:	0000513f e5005170 	0xe50051700000513f
e00020d6:	6618f917          	auipc	s2,0x6618f
e00020da:	0ef4                	addi	a3,sp,860
e00020dc:	0000                	unimp
e00020de:	58a0                	lw	s0,112(s1)
e00020e0:	517c                	lw	a5,100(a0)
e00020e2:	86e0                	0x86e0
e00020e4:	004c                	addi	a1,sp,4
e00020e6:	11d0                	addi	a2,sp,228
e00020e8:	0000                	unimp
e00020ea:	5030                	lw	a2,96(s0)
e00020ec:	5971                	li	s2,-4
e00020ee:	0ff2                	slli	t6,t6,0x1c
e00020f0:	5130                	lw	a2,96(a0)
e00020f2:	3a50                	fld	fa2,176(a2)
e00020f4:	0000                	unimp
e00020f6:	0000                	unimp
e00020f8:	76e06133          	0x76e06133
e00020fc:	5930                	lw	a2,112(a0)
e00020fe:	fc58                	fsw	fa4,60(s0)
e0002100:	0000                	unimp
e0002102:	0000                	unimp
e0002104:	7814                	flw	fa3,48(s0)
e0002106:	1c74                	addi	a3,sp,572
e0002108:	7051                	0x7051
e000210a:	6814                	flw	fa3,16(s0)
e000210c:	0000                	unimp
e000210e:	0000                	unimp
e0002110:	4001                	0x4001
e0002112:	6ff5                	lui	t6,0x1d
e0002114:	1801                	addi	a6,a6,-32
e0002116:	0ef2                	slli	t4,t4,0x1c
e0002118:	0000                	unimp
e000211a:	0ef0                	addi	a2,sp,860
e000211c:	5032                	0x5032
e000211e:	08a2                	slli	a7,a7,0x8
e0002120:	501a                	0x501a
e0002122:	a114                	fsd	fa3,0(a0)
e0002124:	0000                	unimp
e0002126:	0190                	addi	a2,sp,192
e0002128:	ac71000f          	0xac71000f
e000212c:	9090                	0x9090
e000212e:	517c                	lw	a5,100(a0)
e0002130:	0000                	unimp
e0002132:	0090                	addi	a2,sp,64
e0002134:	0ef4                	addi	a3,sp,860
e0002136:	fe40                	fsw	fs0,60(a2)
e0002138:	d450                	sw	a2,44(s0)
e000213a:	581e                	lw	a6,228(sp)
e000213c:	0000                	unimp
e000213e:	5130                	lw	a2,96(a0)
e0002140:	0002                	0x2
e0002142:	38a0                	fld	fs0,112(s1)
e0002144:	8216                	mv	tp,t0
e0002146:	597a                	lw	s2,188(sp)
e0002148:	0000                	unimp
e000214a:	cc00                	sw	s0,24(s0)
e000214c:	6518                	flw	fa4,8(a0)
e000214e:	e004                	fsw	fs1,0(s0)
e0002150:	5858                	lw	a4,52(s0)
e0002152:	50a5                	li	ra,-23
e0002154:	0000                	unimp
e0002156:	5930                	lw	a2,112(a0)
e0002158:	0ef8                	addi	a4,sp,860
e000215a:	5c70                	lw	a2,124(s0)
e000215c:	9100                	0x9100
e000215e:	000050a7          	0x50a7
e0002162:	0ef0                	addi	a2,sp,860
e0002164:	ad50                	fsd	fa2,152(a0)
e0002166:	a75a                	fsd	fs6,392(sp)
e0002168:	5316                	lw	t1,100(sp)
e000216a:	5136                	lw	sp,108(sp)
e000216c:	0000                	unimp
e000216e:	1200                	addi	s0,sp,288
e0002170:	4225                	li	tp,9
e0002172:	a1b5                	j	e00025de <hmac_smoketest+0x2052>
e0002174:	9022                	0x9022
e0002176:	4925                	li	s2,9
e0002178:	0000                	unimp
e000217a:	3890                	fld	fa2,48(s1)
e000217c:	1018                	addi	a4,sp,32
e000217e:	34d1                	jal	e0001c42 <hmac_smoketest+0x16b6>
e0002180:	1455                	addi	s0,s0,-11
e0002182:	0826                	slli	a6,a6,0x9
e0002184:	0000                	unimp
e0002186:	0b20                	addi	s0,sp,408
e0002188:	597c                	lw	a5,116(a0)
e000218a:	7381                	lui	t2,0xfffe0
e000218c:	c22c                	sw	a1,64(a2)
e000218e:	a26c                	fsd	fa1,192(a2)
e0002190:	0000                	unimp
e0002192:	e060                	fsw	fs0,68(s0)
e0002194:	537d                	li	t1,-1
e0002196:	6dc0                	flw	fs0,28(a1)
e0002198:	ca58593f 00000000 	0xca58593f
e00021a0:	4975                	li	s2,29
e00021a2:	0efca383          	lw	t2,239(s9)
e00021a6:	c500                	sw	s0,8(a0)
e00021a8:	0000                	unimp
e00021aa:	0000                	unimp
e00021ac:	d050                	sw	a2,36(s0)
e00021ae:	4c7c                	lw	a5,92(s0)
e00021b0:	4930                	lw	a2,80(a0)
e00021b2:	3648                	fld	fa0,168(a2)
e00021b4:	0000                	unimp
e00021b6:	0000                	unimp
e00021b8:	517c                	lw	a5,100(a0)
e00021ba:	191f 0888 9114      	0x91140888191f
e00021c0:	0000                	unimp
e00021c2:	42a0                	lw	s0,64(a3)
e00021c4:	585e                	lw	a6,244(sp)
e00021c6:	7c74                	flw	fa3,124(s0)
e00021c8:	5131                	li	sp,-20
e00021ca:	8650                	0x8650
e00021cc:	0000                	unimp
e00021ce:	0000                	unimp
e00021d0:	8216                	mv	tp,t0
e00021d2:	e75a                	fsw	fs6,140(sp)
e00021d4:	0ef8                	addi	a4,sp,860
e00021d6:	6800                	flw	fs0,16(s0)
e00021d8:	0000                	unimp
e00021da:	6220                	flw	fs0,64(a2)
e00021dc:	0858                	addi	a4,sp,20
e00021de:	ce45                	beqz	a2,e0002296 <hmac_smoketest+0x1d0a>
e00021e0:	0002                	0x2
e00021e2:	5930                	lw	a2,112(a0)
e00021e4:	0000                	unimp
e00021e6:	5970                	lw	a2,116(a0)
e00021e8:	2d00                	fld	fs0,24(a0)
e00021ea:	65180237          	lui	tp,0x65180
e00021ee:	0ef4                	addi	a3,sp,860
e00021f0:	0000                	unimp
e00021f2:	50a0                	lw	s0,96(s1)
e00021f4:	5312                	lw	t1,36(sp)
e00021f6:	ddc6                	sw	a7,248(sp)
e00021f8:	5a28                	lw	a0,112(a2)
e00021fa:	3758                	fld	fa4,168(a4)
e00021fc:	0000                	unimp
e00021fe:	50a0                	lw	s0,96(s1)
e0002200:	5172                	lw	sp,60(sp)
e0002202:	ad507563          	bleu	s5,zero,e00014cc <hmac_smoketest+0xf40>
e0002206:	9f9a                	add	t6,t6,t1
e0002208:	0000                	unimp
e000220a:	5130                	lw	a2,96(a0)
e000220c:	5dc4108f          	0x5dc4108f
e0002210:	5130                	lw	a2,96(a0)
e0002212:	ea50                	fsw	fa2,20(a2)
e0002214:	0000                	unimp
e0002216:	0000                	unimp
e0002218:	d858                	sw	a4,52(s0)
e000221a:	000328af          	amoadd.w	a7,zero,(t1)
e000221e:	5930                	lw	a2,112(a0)
e0002220:	0000                	unimp
e0002222:	5970                	lw	a2,116(a0)
e0002224:	402c                	lw	a1,64(s0)
e0002226:	84dc                	0x84dc
e0002228:	02a4                	addi	s1,sp,328
e000222a:	22ec                	fld	fa1,192(a3)
e000222c:	0000                	unimp
e000222e:	18c0                	addi	s0,sp,116
e0002230:	0001                	nop
e0002232:	62a4d1bf 0000517c 	0x517c62a4d1bf
e000223a:	5050                	lw	a2,36(s0)
e000223c:	0ef8                	addi	a4,sp,860
e000223e:	a8a0                	fsd	fs0,80(s1)
e0002240:	5c50                	lw	a2,60(s0)
e0002242:	58ad                	li	a7,-21
e0002244:	0000                	unimp
e0002246:	5130                	lw	a2,96(a0)
e0002248:	0888                	addi	a0,sp,80
e000224a:	3e44                	fld	fs1,184(a2)
e000224c:	d055                	beqz	s0,e00021f0 <hmac_smoketest+0x1c64>
e000224e:	42ac                	lw	a1,64(a3)
e0002250:	0000                	unimp
e0002252:	6700                	flw	fs0,8(a4)
e0002254:	5131                	li	sp,-20
e0002256:	d750                	sw	a2,44(a4)
e0002258:	517c                	lw	a5,100(a0)
e000225a:	0000000f          	fence	unknown,unknown
e000225e:	9110                	0x9110
e0002260:	0ef8                	addi	a4,sp,860
e0002262:	9dc0                	0x9dc0
e0002264:	585e                	lw	a6,244(sp)
e0002266:	6224                	flw	fs1,64(a2)
e0002268:	0000                	unimp
e000226a:	3650                	fld	fa2,168(a2)
e000226c:	0002                	0x2
e000226e:	e380                	fsw	fs0,0(a5)
e0002270:	8216                	mv	tp,t0
e0002272:	597a                	lw	s2,188(sp)
e0002274:	0000                	unimp
e0002276:	0400                	addi	s0,sp,512
e0002278:	6518                	flw	fa4,8(a0)
e000227a:	dff4                	sw	a3,124(a5)
e000227c:	b858                	fsd	fa4,176(s0)
e000227e:	50a4                	lw	s1,96(s1)
e0002280:	0000                	unimp
e0002282:	5930                	lw	a2,112(a0)
e0002284:	5a28                	lw	a0,112(a2)
e0002286:	2758                	fld	fa4,136(a4)
e0002288:	c900                	sw	s0,16(a0)
e000228a:	50a6                	lw	ra,104(sp)
e000228c:	0000                	unimp
e000228e:	0ef0                	addi	a2,sp,860
e0002290:	ad50                	fsd	fa2,152(a0)
e0002292:	b00a                	fsd	ft2,32(sp)
e0002294:	5312                	lw	t1,36(sp)
e0002296:	5136                	lw	sp,108(sp)
e0002298:	0000                	unimp
e000229a:	3a10                	fld	fa2,48(a2)
e000229c:	5a90513f 00015172 	0x151725a90513f
e00022a4:	0000                	unimp
e00022a6:	9ad0                	0x9ad0
e00022a8:	4d26                	lw	s10,72(sp)
e00022aa:	28a4                	fld	fs1,80(s1)
e00022ac:	0efd                	addi	t4,t4,31
e00022ae:	1000                	addi	s0,sp,32
e00022b0:	0000                	unimp
e00022b2:	1650                	addi	a2,sp,804
e00022b4:	0826                	slli	a6,a6,0x9
e00022b6:	cdc8                	sw	a0,28(a1)
e00022b8:	0f24                	addi	s1,sp,920
e00022ba:	1054                	addi	a3,sp,36
e00022bc:	0000                	unimp
e00022be:	4620                	lw	s0,72(a2)
e00022c0:	a26c                	fsd	fa1,192(a2)
e00022c2:	b56c                	fsd	fa1,232(a0)
e00022c4:	e061                	bnez	s0,e0002384 <hmac_smoketest+0x1df8>
e00022c6:	c22c                	sw	a1,64(a2)
e00022c8:	0000                	unimp
e00022ca:	1010                	addi	a2,sp,32
e00022cc:	0efa                	slli	t4,t4,0x1e
e00022ce:	26e1                	jal	e0002696 <hmac_smoketest+0x210a>
e00022d0:	4136                	lw	sp,76(sp)
e00022d2:	ad50                	fsd	fa2,152(a0)
e00022d4:	0000                	unimp
e00022d6:	5310                	lw	a2,32(a4)
e00022d8:	84ff                	0x84ff
e00022da:	c00c                	sw	a1,0(s0)
e00022dc:	d110                	sw	a2,32(a0)
e00022de:	0efc                	addi	a5,sp,860
e00022e0:	0000                	unimp
e00022e2:	4100                	lw	s0,0(a0)
e00022e4:	5090                	lw	a2,32(s1)
e00022e6:	4c7e                	lw	s8,220(sp)
e00022e8:	0efc                	addi	a5,sp,860
e00022ea:	3901                	jal	e0001efa <hmac_smoketest+0x196e>
e00022ec:	0000                	unimp
e00022ee:	9190                	0x9190
e00022f0:	021a                	slli	tp,tp,0x6
e00022f2:	900a                	0x900a
e00022f4:	4136                	lw	sp,76(sp)
e00022f6:	ad50                	fsd	fa2,152(a0)
e00022f8:	0000                	unimp
e00022fa:	5310                	lw	a2,32(a4)
e00022fc:	5170                	lw	a2,100(a0)
e00022fe:	41362c73          	csrrs	s8,0x413,a2
e0002302:	0d50                	addi	a2,sp,660
e0002304:	0000                	unimp
e0002306:	5250                	lw	a2,36(a2)
e0002308:	3b24108f          	0x3b24108f
e000230c:	5130                	lw	a2,96(a0)
e000230e:	2e50                	fld	fa2,152(a2)
e0002310:	0000                	unimp
e0002312:	0000                	unimp
e0002314:	4930                	lw	a2,80(a0)
e0002316:	56e8                	lw	a0,108(a3)
e0002318:	497c                	lw	a5,84(a0)
e000231a:	0002                	0x2
e000231c:	0000                	unimp
e000231e:	5210                	lw	a2,32(a2)
e0002320:	1110                	addi	a2,sp,160
e0002322:	538c                	lw	a1,32(a5)
e0002324:	503d                	0x503d
e0002326:	014c                	addi	a1,sp,132
e0002328:	0000                	unimp
e000232a:	6640                	flw	fs0,12(a2)
e000232c:	5130                	lw	a2,96(a0)
e000232e:	b4d0                	fsd	fa2,168(s1)
e0002330:	00035173          	csrrwi	sp,0x0,6
e0002334:	0000                	unimp
e0002336:	5dd0                	lw	a2,60(a1)
e0002338:	9094                	0x9094
e000233a:	891c                	0x891c
e000233c:	0c44108f          	0xc44108f
e0002340:	0000                	unimp
e0002342:	3250                	fld	fa2,160(a2)
e0002344:	ac50                	fsd	fa2,152(s0)
e0002346:	938d                	srli	a5,a5,0x23
e0002348:	5131000f          	0x5131000f
e000234c:	0000                	unimp
e000234e:	5170                	lw	a2,100(a0)
e0002350:	8212                	mv	tp,tp
e0002352:	523a                	lw	tp,172(sp)
e0002354:	6264                	flw	fs1,68(a2)
e0002356:	39d8                	fld	fa4,176(a1)
e0002358:	0000                	unimp
e000235a:	5850                	lw	a2,52(s0)
e000235c:	3058                	fld	fa4,160(s0)
e000235e:	0004                	addi	s1,sp,0
e0002360:	0002                	0x2
e0002362:	5930                	lw	a2,112(a0)
e0002364:	0000                	unimp
e0002366:	5970                	lw	a2,116(a0)
e0002368:	2d00                	fld	fs0,24(a0)
e000236a:	8c76                	mv	s8,t4
e000236c:	6518                	flw	fa4,8(a0)
e000236e:	0ef4                	addi	a3,sp,860
e0002370:	0000                	unimp
e0002372:	50a0                	lw	s0,96(s1)
e0002374:	8012                	0x8012
e0002376:	c1b2                	sw	a2,192(sp)
e0002378:	5a68                	lw	a0,116(a2)
e000237a:	1758                	addi	a4,sp,932
e000237c:	0000                	unimp
e000237e:	50a0                	lw	s0,96(s1)
e0002380:	4624                	lw	s1,72(a2)
e0002382:	7e44                	flw	fs1,60(a2)
e0002384:	6c58                	flw	fa4,28(s0)
e0002386:	4d22                	lw	s10,8(sp)
e0002388:	0000                	unimp
e000238a:	5220                	lw	s0,96(a2)
e000238c:	0828                	addi	a0,sp,24
e000238e:	f758                	fsw	fa4,44(a4)
e0002390:	1054                	addi	a3,sp,36
e0002392:	0826                	slli	a6,a6,0x9
e0002394:	0000                	unimp
e0002396:	0f20                	addi	s0,sp,920
e0002398:	d3800003          	lb	zero,-712(zero) # fffffd38 <pulp__FC+0xfffffd39>
e000239c:	e061                	bnez	s0,e000245c <hmac_smoketest+0x1ed0>
e000239e:	517c                	lw	a5,100(a0)
e00023a0:	0000                	unimp
e00023a2:	1010                	addi	a2,sp,32
e00023a4:	d014                	sw	a3,32(s0)
e00023a6:	138e                	slli	t2,t2,0x23
e00023a8:	e850                	fsw	fa2,20(s0)
e00023aa:	108e                	slli	ra,ra,0x23
e00023ac:	0000                	unimp
e00023ae:	5130                	lw	a2,96(a0)
e00023b0:	bc58                	fsd	fa4,184(s0)
e00023b2:	4004                	lw	s1,0(s0)
e00023b4:	0002                	0x2
e00023b6:	5930                	lw	a2,112(a0)
e00023b8:	0000                	unimp
e00023ba:	5970                	lw	a2,116(a0)
e00023bc:	f500                	fsw	fs0,40(a0)
e00023be:	96e5                	srai	a3,a3,0x39
e00023c0:	6510                	flw	fa2,8(a0)
e00023c2:	0ef4                	addi	a3,sp,860
e00023c4:	0000                	unimp
e00023c6:	0280                	addi	s0,sp,320
e00023c8:	517a                	lw	sp,188(sp)
e00023ca:	34df 99d0 0392      	0x39299d034df
e00023d0:	0000                	unimp
e00023d2:	0280                	addi	s0,sp,320
e00023d4:	581d                	li	a6,-25
e00023d6:	5c74                	lw	a3,124(s0)
e00023d8:	5131                	li	sp,-20
e00023da:	6250                	flw	fa2,4(a2)
e00023dc:	0000                	unimp
e00023de:	0000                	unimp
e00023e0:	1a92                	slli	s5,s5,0x24
e00023e2:	8e42                	mv	t3,a6
e00023e4:	5012                	0x5012
e00023e6:	8a14                	0x8a14
e00023e8:	0000                	unimp
e00023ea:	3290                	fld	fa2,32(a3)
e00023ec:	d3800003          	lb	zero,-712(zero) # fffffd38 <pulp__FC+0xfffffd39>
e00023f0:	e061                	bnez	s0,e00024b0 <hmac_smoketest+0x1f24>
e00023f2:	517c                	lw	a5,100(a0)
e00023f4:	0000                	unimp
e00023f6:	1010                	addi	a2,sp,32
e00023f8:	d014                	sw	a3,32(s0)
e00023fa:	f8ae                	fsw	fa1,112(sp)
e00023fc:	b050                	fsd	fa2,160(s0)
e00023fe:	108e                	slli	ra,ra,0x23
e0002400:	0000                	unimp
e0002402:	5130                	lw	a2,96(a0)
e0002404:	9858                	0x9858
e0002406:	3dc4                	fld	fs1,184(a1)
e0002408:	0002                	0x2
e000240a:	5930                	lw	a2,112(a0)
e000240c:	0000                	unimp
e000240e:	5970                	lw	a2,116(a0)
e0002410:	bd00                	fsd	fs0,56(a0)
e0002412:	eb25                	bnez	a4,e0002482 <hmac_smoketest+0x1ef6>
e0002414:	6510                	flw	fa2,8(a0)
e0002416:	0ef4                	addi	a3,sp,860
e0002418:	0000                	unimp
e000241a:	0280                	addi	s0,sp,320
e000241c:	517a                	lw	sp,188(sp)
e000241e:	93d031bf 00000392 	0x39293d031bf
e0002426:	0280                	addi	s0,sp,320
e0002428:	581d                	li	a6,-25
e000242a:	08a4                	addi	s1,sp,88
e000242c:	5131                	li	sp,-20
e000242e:	3e50                	fld	fa2,184(a2)
e0002430:	0000                	unimp
e0002432:	0000                	unimp
e0002434:	9092                	add	ra,ra,tp
e0002436:	c6e2                	sw	s8,76(sp)
e0002438:	5012                	0x5012
e000243a:	0054                	addi	a3,sp,4
e000243c:	0000                	unimp
e000243e:	9c90                	0x9c90
e0002440:	0894                	addi	a3,sp,80
e0002442:	7562                	flw	fa0,56(sp)
e0002444:	6061                	0x6061
e0002446:	505c                	lw	a5,36(s0)
e0002448:	0000                	unimp
e000244a:	1410                	addi	a2,sp,544
e000244c:	8814                	0x8814
e000244e:	0a92                	slli	s5,s5,0x4
e0002450:	0154                	addi	a3,sp,132
e0002452:	5052                	0x5052
e0002454:	0000                	unimp
e0002456:	5050                	lw	a2,36(s0)
e0002458:	0b24                	addi	s1,sp,408
e000245a:	2e44                	fld	fs1,152(a2)
e000245c:	c0ff                	0xc0ff
e000245e:	5018                	lw	a4,32(s0)
e0002460:	0000                	unimp
e0002462:	0ef0                	addi	a2,sp,860
e0002464:	521c                	lw	a5,32(a2)
e0002466:	8a94                	0x8a94
e0002468:	0820                	addi	s0,sp,24
e000246a:	5098                	lw	a4,32(s1)
e000246c:	0000                	unimp
e000246e:	1410                	addi	a2,sp,544
e0002470:	5218                	lw	a4,32(a2)
e0002472:	5e44                	lw	s1,60(a2)
e0002474:	0052                	0x52
e0002476:	00000823          	sb	zero,16(zero) # 10 <_min_stack-0x1ff0>
e000247a:	0730                	addi	a2,sp,904
e000247c:	5198                	lw	a4,32(a1)
e000247e:	fdcc                	fsw	fa1,60(a1)
e0002480:	08230053          	fsub.s	ft0,ft6,ft2,rne
e0002484:	0000                	unimp
e0002486:	0730                	addi	a2,sp,904
e0002488:	0738                	addi	a4,sp,904
e000248a:	edc2                	fsw	fa6,216(sp)
e000248c:	5136                	lw	sp,108(sp)
e000248e:	0050                	addi	a2,sp,4
e0002490:	0000                	unimp
e0002492:	5050                	lw	a2,36(s0)
e0002494:	5136                	lw	sp,108(sp)
e0002496:	b1b0                	fsd	fa2,96(a1)
e0002498:	50580823          	sb	t0,1296(a6)
e000249c:	0000                	unimp
e000249e:	0450                	addi	a2,sp,516
e00024a0:	26e80823          	sb	a4,624(a6)
e00024a4:	0738                	addi	a4,sp,904
e00024a6:	00000453          	fadd.s	fs0,ft0,ft0,rne
e00024aa:	0050                	addi	a2,sp,4
e00024ac:	0730                	addi	a2,sp,904
e00024ae:	6ff2                	flw	ft11,28(sp)
e00024b0:	513c                	lw	a5,96(a0)
e00024b2:	8000                	0x8000
e00024b4:	0000                	unimp
e00024b6:	5110                	lw	a2,32(a0)
e00024b8:	8000                	0x8000
e00024ba:	d8a0                	sw	s0,112(s1)
e00024bc:	51380823          	sb	s3,1296(a6)
e00024c0:	0000                	unimp
e00024c2:	0450                	addi	a2,sp,516
e00024c4:	5098                	lw	a4,32(s1)
e00024c6:	11bc                	addi	a5,sp,232
e00024c8:	08230453          	fsub.s	fs0,ft6,ft2,rne
e00024cc:	0000                	unimp
e00024ce:	0730                	addi	a2,sp,904
e00024d0:	8b280823          	sb	s2,-1872(a6)
e00024d4:	0734                	addi	a3,sp,904
e00024d6:	0452                	slli	s0,s0,0x14
e00024d8:	0000                	unimp
e00024da:	5210                	lw	a2,32(a2)
e00024dc:	29180823          	sb	a7,656(a6)
e00024e0:	0734                	addi	a3,sp,904
e00024e2:	00000453          	fadd.s	fs0,ft0,ft0,rne
e00024e6:	5210                	lw	a2,32(a2)
e00024e8:	226d                	jal	e0002692 <hmac_smoketest+0x2106>
e00024ea:	ba9d                	j	e0001e60 <hmac_smoketest+0x18d4>
e00024ec:	422d6067          	0x422d6067
e00024f0:	0000                	unimp
e00024f2:	1790                	addi	a2,sp,992
e00024f4:	9aa8                	0x9aa8
e00024f6:	5388                	lw	a0,32(a5)
e00024f8:	e4ed                	bnez	s1,e00025e2 <hmac_smoketest+0x2056>
e00024fa:	92ec                	0x92ec
e00024fc:	0000                	unimp
e00024fe:	04a0                	addi	s0,sp,584
e0002500:	5972                	lw	s2,60(sp)
e0002502:	4aa2f8a3          	0x4aa2f8a3
e0002506:	e618                	fsw	fa4,8(a2)
e0002508:	0000                	unimp
e000250a:	64d0                	flw	fa2,12(s1)
e000250c:	18cd                	addi	a7,a7,-13
e000250e:	3384                	fld	fs1,32(a5)
e0002510:	5930                	lw	a2,112(a0)
e0002512:	f658                	fsw	fa4,44(a2)
e0002514:	0000                	unimp
e0002516:	0000                	unimp
e0002518:	d561000f          	0xd561000f
e000251c:	18d8                	addi	a4,sp,116
e000251e:	517c                	lw	a5,100(a0)
e0002520:	0000                	unimp
e0002522:	42a0                	lw	s0,64(a3)
e0002524:	64e4                	flw	fs1,76(s1)
e0002526:	bc78                	fsd	fa4,248(s0)
e0002528:	ac50                	fsd	fa2,152(s0)
e000252a:	591c                	lw	a5,48(a0)
e000252c:	0000                	unimp
e000252e:	5130                	lw	a2,96(a0)
e0002530:	9f28                	0x9f28
e0002532:	fc74                	fsw	fa3,124(s0)
e0002534:	7268                	flw	fa0,100(a2)
e0002536:	7a28                	flw	fa0,112(a2)
e0002538:	0000                	unimp
e000253a:	6ca0                	flw	fs0,88(s1)
e000253c:	0b25                	addi	s6,s6,9
e000253e:	d385                	beqz	a5,e000245e <hmac_smoketest+0x1ed2>
e0002540:	4925                	li	s2,9
e0002542:	4225                	li	tp,9
e0002544:	0000                	unimp
e0002546:	9020                	0x9020
e0002548:	0002                	0x2
e000254a:	76e0                	flw	fs0,108(a3)
e000254c:	9216                	add	tp,tp,t0
e000254e:	597a                	lw	s2,188(sp)
e0002550:	0000                	unimp
e0002552:	1450                	addi	a2,sp,548
e0002554:	6510                	flw	fa2,8(a0)
e0002556:	ea94                	fsw	fa3,16(a3)
e0002558:	3c58                	fld	fa4,184(s0)
e000255a:	0286                	slli	t0,t0,0x1
e000255c:	0000                	unimp
e000255e:	5930                	lw	a2,112(a0)
e0002560:	5ce0                	lw	s0,124(s1)
e0002562:	64d8                	flw	fa4,12(s1)
e0002564:	e100                	fsw	fs0,0(a0)
e0002566:	0284                	addi	s1,sp,320
e0002568:	0000                	unimp
e000256a:	0ef0                	addi	a2,sp,860
e000256c:	ea98                	fsw	fa4,16(a3)
e000256e:	98a2                	add	a7,a7,s0
e0002570:	6a68                	flw	fa0,84(a2)
e0002572:	7228                	flw	fa0,96(a2)
e0002574:	0000                	unimp
e0002576:	64a0                	flw	fs0,72(s1)
e0002578:	4225                	li	tp,9
e000257a:	78a5                	lui	a7,0xfffe9
e000257c:	9024                	0x9024
e000257e:	4925                	li	s2,9
e0002580:	0000                	unimp
e0002582:	9f20                	0x9f20
e0002584:	1418                	addi	a4,sp,544
e0002586:	4001                	0x4001
e0002588:	1455                	addi	s0,s0,-11
e000258a:	0826                	slli	a6,a6,0x9
e000258c:	0000                	unimp
e000258e:	0b20                	addi	s0,sp,408
e0002590:	5ad8                	lw	a4,52(a3)
e0002592:	4c74                	lw	a3,92(s0)
e0002594:	e15c                	fsw	fa5,4(a0)
e0002596:	97d2                	add	a5,a5,s4
e0002598:	0000                	unimp
e000259a:	6060                	flw	fs0,68(s0)
e000259c:	5970                	lw	a2,116(a0)
e000259e:	4382                	lw	t2,0(sp)
e00025a0:	2a5e                	fld	fs4,464(sp)
e00025a2:	50a0                	lw	s0,96(s1)
e00025a4:	0000                	unimp
e00025a6:	f630                	fsw	fa2,104(a2)
e00025a8:	f23952e3          	ble	gp,s2,e00024cc <hmac_smoketest+0x1f40>
e00025ac:	5930                	lw	a2,112(a0)
e00025ae:	9658                	0x9658
e00025b0:	0000                	unimp
e00025b2:	0000                	unimp
e00025b4:	1414                	addi	a3,sp,544
e00025b6:	5910                	lw	a2,48(a0)
e00025b8:	5024                	lw	s1,96(s0)
e00025ba:	0b28                	addi	a0,sp,408
e00025bc:	0000                	unimp
e00025be:	1080                	addi	s0,sp,96
e00025c0:	00d0                	addi	a2,sp,68
e00025c2:	fe4a                	fsw	fs2,60(sp)
e00025c4:	0b2a                	slli	s6,s6,0xa
e00025c6:	1414                	addi	a3,sp,544
e00025c8:	0000                	unimp
e00025ca:	0250                	addi	a2,sp,260
e00025cc:	0b2a                	slli	s6,s6,0xa
e00025ce:	14d4                	addi	a3,sp,612
e00025d0:	1414                	addi	a3,sp,544
e00025d2:	8310                	0x8310
e00025d4:	0000                	unimp
e00025d6:	0b20                	addi	s0,sp,408
e00025d8:	1414                	addi	a3,sp,544
e00025da:	f910                	fsw	fa2,48(a0)
e00025dc:	8190                	0x8190
e00025de:	0b2a                	slli	s6,s6,0xa
e00025e0:	0000                	unimp
e00025e2:	1410                	addi	a2,sp,544
e00025e4:	0290                	addi	a2,sp,320
e00025e6:	adca                	fsd	fs2,216(sp)
e00025e8:	0b2a                	slli	s6,s6,0xa
e00025ea:	1414                	addi	a3,sp,544
e00025ec:	0000                	unimp
e00025ee:	8010                	0x8010
e00025f0:	b6e2009b          	0xb6e2009b
e00025f4:	1414                	addi	a3,sp,544
e00025f6:	6690                	flw	fa2,8(a3)
e00025f8:	0000                	unimp
e00025fa:	0b20                	addi	s0,sp,408
e00025fc:	5aa2                	lw	s5,40(sp)
e00025fe:	5918                	lw	a4,48(a0)
e0002600:	6061                	0x6061
e0002602:	4edc                	lw	a5,28(a3)
e0002604:	0000                	unimp
e0002606:	1410                	addi	a2,sp,544
e0002608:	0002                	0x2
e000260a:	88a0                	0x88a0
e000260c:	50a8                	lw	a0,96(s1)
e000260e:	6170                	flw	fa2,68(a0)
e0002610:	0000                	unimp
e0002612:	97d0                	0x97d0
e0002614:	1089                	addi	ra,ra,-30
e0002616:	6ff4                	flw	fa3,92(a5)
e0002618:	f860                	fsw	fs0,116(s0)
e000261a:	5325                	li	t1,-23
e000261c:	0000                	unimp
e000261e:	6130                	flw	fa2,64(a0)
e0002620:	6061                	0x6061
e0002622:	056c                	addi	a1,sp,652
e0002624:	14124f93          	xori	t6,tp,321
e0002628:	0000                	unimp
e000262a:	f050                	fsw	fa2,36(s0)
e000262c:	0002                	0x2
e000262e:	28a0                	fld	fs0,80(s1)
e0002630:	5aa2                	lw	s5,40(sp)
e0002632:	5178                	lw	a4,100(a0)
e0002634:	0000                	unimp
e0002636:	4f90                	lw	a2,24(a5)
e0002638:	01b2c6d3          	fadd.s	fa3,ft5,fs11,rmm
e000263c:	c550                	sw	a2,12(a0)
e000263e:	0000f313          	andi	t1,ra,0
e0002642:	5130                	lw	a2,96(a0)
e0002644:	5aa2                	lw	s5,40(sp)
e0002646:	44d8                	lw	a4,12(s1)
e0002648:	6061                	0x6061
e000264a:	c6dc                	sw	a5,12(a3)
e000264c:	0000                	unimp
e000264e:	1410                	addi	a2,sp,544
e0002650:	be50                	fsd	fa2,184(a2)
e0002652:	0002aff3          	csrrs	t6,0x0,t0
e0002656:	5130                	lw	a2,96(a0)
e0002658:	0000                	unimp
e000265a:	5170                	lw	a2,100(a0)
e000265c:	0824                	addi	s1,sp,24
e000265e:	14d8                	addi	a4,sp,612
e0002660:	501245d3          	0x501245d3
e0002664:	0000                	unimp
e0002666:	7210                	flw	fa2,32(a2)
e0002668:	226d                	jal	e0002812 <hmac_smoketest+0x2286>
e000266a:	ba9d                	j	e0001fe0 <hmac_smoketest+0x1a54>
e000266c:	422d6067          	0x422d6067
e0002670:	0000                	unimp
e0002672:	1790                	addi	a2,sp,992
e0002674:	9050                	0x9050
e0002676:	1c7a                	slli	s8,s8,0x3e
e0002678:	0001                	nop
e000267a:	0000513f 49725170 	0x497251700000513f
e0002682:	5811ddc3          	fmadd.s	fs11,ft3,ft1,fa1,unknown
e0002686:	8fd4                	0x8fd4
e0002688:	0000                	unimp
e000268a:	0100                	addi	s0,sp,128
e000268c:	91dc                	0x91dc
e000268e:	8e4c                	0x8e4c
e0002690:	4930                	lw	a2,80(a0)
e0002692:	f648                	fsw	fa0,44(a2)
e0002694:	0000                	unimp
e0002696:	0000                	unimp
e0002698:	517c                	lw	a5,100(a0)
e000269a:	0888500f          	0x888500f
e000269e:	9094                	0x9094
e00026a0:	0000                	unimp
e00026a2:	42a0                	lw	s0,64(a3)
e00026a4:	8004585b          	p.mac.sl.zh	a6,s0,zero,zero
e00026a8:	5131                	li	sp,-20
e00026aa:	be50                	fsd	fa2,184(a2)
e00026ac:	0000                	unimp
e00026ae:	0000                	unimp
e00026b0:	597a                	lw	s2,188(sp)
e00026b2:	6e42                	flw	ft8,16(sp)
e00026b4:	6258                	flw	fa4,4(a2)
e00026b6:	8212                	mv	tp,tp
e00026b8:	0000                	unimp
e00026ba:	6220                	flw	fs0,64(a2)
e00026bc:	0285                	addi	t0,t0,1
e00026be:	a000                	fsd	fs0,0(s0)
e00026c0:	5930                	lw	a2,112(a0)
e00026c2:	5e58                	lw	a4,60(a2)
e00026c4:	0000                	unimp
e00026c6:	0000                	unimp
e00026c8:	73800283          	lb	t0,1848(zero) # 738 <_min_stack-0x18c8>
e00026cc:	0ef4                	addi	a3,sp,860
e00026ce:	ef00                	fsw	fs0,24(a4)
e00026d0:	0000                	unimp
e00026d2:	6510                	flw	fa2,8(a0)
e00026d4:	5136                	lw	sp,108(sp)
e00026d6:	edc0                	fsw	fs0,28(a1)
e00026d8:	4bd8                	lw	a4,20(a5)
e00026da:	5312                	lw	t1,36(sp)
e00026dc:	0000                	unimp
e00026de:	5a20                	lw	s0,112(a2)
e00026e0:	50a5                	li	ra,-23
e00026e2:	be40                	fsd	fs0,184(a2)
e00026e4:	245a                	fld	fs0,400(sp)
e00026e6:	5022                	0x5022
e00026e8:	0000                	unimp
e00026ea:	ad50                	fsd	fa2,152(a0)
e00026ec:	8458                	0x8458
e00026ee:	c756                	sw	s5,140(sp)
e00026f0:	0002                	0x2
e00026f2:	5930                	lw	a2,112(a0)
e00026f4:	0000                	unimp
e00026f6:	5970                	lw	a2,116(a0)
e00026f8:	b634                	fsd	fa3,104(a2)
e00026fa:	5751                	li	a4,-12
e00026fc:	1089                	addi	ra,ra,-30
e00026fe:	5854                	lw	a3,52(s0)
e0002700:	0000                	unimp
e0002702:	52e0                	lw	s0,100(a3)
e0002704:	602c                	flw	fa1,64(s0)
e0002706:	3ff5                	jal	e0002702 <hmac_smoketest+0x2176>
e0002708:	f490                	fsw	fa2,40(s1)
e000270a:	00009213          	slli	tp,ra,0x0
e000270e:	4b50                	lw	a2,20(a4)
e0002710:	2850                	fld	fa2,144(s0)
e0002712:	9e4a                	add	t3,t3,s2
e0002714:	0001                	nop
e0002716:	0000513f 42ac5170 	0x42ac51700000513f
e000271e:	0008                	addi	a0,sp,0
e0002720:	0c14                	addi	a3,sp,528
e0002722:	91d2                	add	gp,gp,s4
e0002724:	0000                	unimp
e0002726:	5810                	lw	a2,48(s0)
e0002728:	7dc1000f          	0x7dc1000f
e000272c:	9094                	0x9094
e000272e:	517c                	lw	a5,100(a0)
e0002730:	0000                	unimp
e0002732:	0880                	addi	s0,sp,80
e0002734:	6224                	flw	fs1,64(a2)
e0002736:	5758                	lw	a4,44(a4)
e0002738:	7450                	flw	fa2,44(s0)
e000273a:	0000585b          	p.mac.zl.zh	a6,zero,zero,zero
e000273e:	5130                	lw	a2,96(a0)
e0002740:	0002                	0x2
e0002742:	7910                	flw	fa2,48(a0)
e0002744:	8212                	mv	tp,tp
e0002746:	597a                	lw	s2,188(sp)
e0002748:	0000                	unimp
e000274a:	4e90                	lw	a2,24(a3)
e000274c:	6510                	flw	fa2,8(a0)
e000274e:	6dc4                	flw	fs1,28(a1)
e0002750:	1458                	addi	a4,sp,548
e0002752:	0285                	addi	t0,t0,1
e0002754:	0000                	unimp
e0002756:	5930                	lw	a2,112(a0)
e0002758:	5a20                	lw	s0,112(a2)
e000275a:	64d8                	flw	fa4,12(s1)
e000275c:	9100                	0x9100
e000275e:	00000283          	lb	t0,0(zero) # 0 <_min_stack-0x2000>
e0002762:	0ef0                	addi	a2,sp,860
e0002764:	ad50                	fsd	fa2,152(a0)
e0002766:	e1ba                	fsw	fa4,192(sp)
e0002768:	5312                	lw	t1,36(sp)
e000276a:	5136                	lw	sp,108(sp)
e000276c:	0000                	unimp
e000276e:	c010                	sw	a2,0(s0)
e0002770:	0b25                	addi	s6,s6,9
e0002772:	5b25                	li	s6,-23
e0002774:	4922                	lw	s2,8(sp)
e0002776:	4225                	li	tp,9
e0002778:	0000                	unimp
e000277a:	2890                	fld	fa2,16(s1)
e000277c:	5aa2                	lw	s5,40(sp)
e000277e:	54d8                	lw	a4,44(s1)
e0002780:	0826                	slli	a6,a6,0x9
e0002782:	2ed8                	fld	fa4,152(a3)
e0002784:	0000                	unimp
e0002786:	1450                	addi	a2,sp,548
e0002788:	9e50                	0x9e50
e000278a:	0002a6e3          	p.beqimm	t0,0,e0002f96 <hmac_smoketest+0x2a0a>
e000278e:	5130                	lw	a2,96(a0)
e0002790:	0000                	unimp
e0002792:	5170                	lw	a2,100(a0)
e0002794:	6061                	0x6061
e0002796:	875c                	0x875c
e0002798:	1412ad93          	slti	s11,t0,321
e000279c:	0000                	unimp
e000279e:	d250                	sw	a2,36(a2)
e00027a0:	0002                	0x2
e00027a2:	3000                	fld	fs0,32(s0)
e00027a4:	5aa2                	lw	s5,40(sp)
e00027a6:	5178                	lw	a4,100(a0)
e00027a8:	0000                	unimp
e00027aa:	ad90                	fsd	fa2,24(a1)
e00027ac:	35622c93          	slti	s9,tp,854
e00027b0:	9e50                	0x9e50
e00027b2:	5154                	lw	a3,36(a0)
e00027b4:	0000                	unimp
e00027b6:	5130                	lw	a2,96(a0)
e00027b8:	5b72                	lw	s6,60(sp)
e00027ba:	94d0                	0x94d0
e00027bc:	6061                	0x6061
e00027be:	2c9c                	fld	fa5,24(s1)
e00027c0:	0000                	unimp
e00027c2:	1410                	addi	a2,sp,544
e00027c4:	0b50                	addi	a2,sp,404
e00027c6:	3560                	fld	fs0,232(a0)
e00027c8:	5fd8                	lw	a4,60(a5)
e00027ca:	8630                	0x8630
e00027cc:	0000                	unimp
e00027ce:	0000                	unimp
e00027d0:	0b20                	addi	s0,sp,408
e00027d2:	edc4                	fsw	fs1,28(a1)
e00027d4:	8635                	srai	a2,a2,0xd
e00027d6:	0b51                	addi	s6,s6,20
e00027d8:	0000                	unimp
e00027da:	5810                	lw	a2,48(s0)
e00027dc:	1414                	addi	a3,sp,544
e00027de:	aa90                	fsd	fa2,16(a3)
e00027e0:	fc90                	fsw	fa2,56(s1)
e00027e2:	00000b2b          	p.sb	zero,22(zero!) # 16 <_min_stack-0x1fea>
e00027e6:	1410                	addi	a2,sp,544
e00027e8:	5178                	lw	a4,100(a0)
e00027ea:	f912                	fsw	ft4,176(sp)
e00027ec:	5aa2255b          	0x5aa2255b
e00027f0:	0000                	unimp
e00027f2:	7f10                	flw	fa2,56(a4)
e00027f4:	bcd4                	fsd	fa3,184(s1)
e00027f6:	51309563          	bne	ra,s3,e0002d00 <hmac_smoketest+0x2774>
e00027fa:	6c50                	flw	fa2,28(s0)
e00027fc:	0000                	unimp
e00027fe:	0000                	unimp
e0002800:	5b30                	lw	a2,112(a4)
e0002802:	69321e43          	fmadd.s	ft8,ft4,fs3,fa3,rtz
e0002806:	00000153          	fadd.s	ft2,ft0,ft0,rne
e000280a:	a410                	fsd	fa2,8(s0)
e000280c:	5c700163          	beq	zero,t2,e0002dce <hmac_smoketest+0x2842>
e0002810:	dd50                	sw	a2,60(a0)
e0002812:	6938                	flw	fa4,80(a0)
e0002814:	0000                	unimp
e0002816:	0b00                	addi	s0,sp,400
e0002818:	108e                	slli	ra,ra,0x23
e000281a:	c754                	sw	a3,12(a4)
e000281c:	58d8                	lw	a4,52(s1)
e000281e:	a894                	fsd	fa3,16(s1)
e0002820:	0000                	unimp
e0002822:	ecd0                	fsw	fa2,28(s1)
e0002824:	52e0                	lw	s0,100(a3)
e0002826:	d239                	beqz	a2,e000276c <hmac_smoketest+0x21e0>
e0002828:	0200                	addi	s0,sp,256
e000282a:	5910                	lw	a2,48(a0)
e000282c:	0000                	unimp
e000282e:	5b70                	lw	a2,116(a4)
e0002830:	52ec                	lw	a1,100(a3)
e0002832:	e1b8                	fsw	fa4,64(a1)
e0002834:	5814                	lw	a3,48(s0)
e0002836:	2084                	fld	fs1,0(s1)
e0002838:	0000                	unimp
e000283a:	1080                	addi	s0,sp,96
e000283c:	5b30                	lw	a2,112(a4)
e000283e:	6938cdc3          	fmadd.s	fs11,fa7,fs3,fa3,rmm
e0002842:	00000153          	fadd.s	ft2,ft0,ft0,rne
e0002846:	0820                	addi	s0,sp,24
e0002848:	a814                	fsd	fa3,16(s0)
e000284a:	04de                	slli	s1,s1,0x17
e000284c:	ecd0                	fsw	fa2,28(s1)
e000284e:	58d8                	lw	a4,52(s1)
e0002850:	0000                	unimp
e0002852:	0b00                	addi	s0,sp,400
e0002854:	0200                	addi	s0,sp,256
e0002856:	74d0                	flw	fa2,44(s1)
e0002858:	5814                	lw	a3,48(s0)
e000285a:	6b74                	flw	fa3,84(a4)
e000285c:	0000                	unimp
e000285e:	1080                	addi	s0,sp,96
e0002860:	52ec                	lw	a1,100(a3)
e0002862:	0a98                	addi	a4,sp,336
e0002864:	5360                	lw	s0,100(a4)
e0002866:	1109                	addi	sp,sp,-30
e0002868:	0000                	unimp
e000286a:	6910                	flw	fa2,16(a0)
e000286c:	c22c                	sw	a1,64(a2)
e000286e:	4b2c                	lw	a1,80(a4)
e0002870:	1018                	addi	a4,sp,32
e0002872:	e061                	bnez	s0,e0002932 <hmac_smoketest+0x23a6>
e0002874:	0000                	unimp
e0002876:	0820                	addi	s0,sp,24
e0002878:	d858                	sw	a4,52(s0)
e000287a:	e23e                	fsw	fa5,4(sp)
e000287c:	4aec                	lw	a1,84(a3)
e000287e:	42a8                	lw	a0,64(a3)
e0002880:	0000                	unimp
e0002882:	a260                	fsd	fs0,192(a2)
e0002884:	a450                	fsd	fa2,136(s0)
e0002886:	00030c7b          	0x30c7b
e000288a:	5130                	lw	a2,96(a0)
e000288c:	0000                	unimp
e000288e:	5170                	lw	a2,100(a0)
e0002890:	2e41000f          	0x2e41000f
e0002894:	9014                	0x9014
e0002896:	517c                	lw	a5,100(a0)
e0002898:	0000                	unimp
e000289a:	1080                	addi	s0,sp,96
e000289c:	af14                	fsd	fa3,24(a4)
e000289e:	7562                	flw	fa0,56(sp)
e00028a0:	9850                	0x9850
e00028a2:	581a                	lw	a6,164(sp)
e00028a4:	0000                	unimp
e00028a6:	5130                	lw	a2,96(a0)
e00028a8:	5930                	lw	a2,112(a0)
e00028aa:	2ff8                	fld	fa4,216(a5)
e00028ac:	597a                	lw	s2,188(sp)
e00028ae:	0002                	0x2
e00028b0:	0000                	unimp
e00028b2:	8190                	0x8190
e00028b4:	0ef4                	addi	a3,sp,860
e00028b6:	3dc0                	fld	fs0,184(a1)
e00028b8:	50a5                	li	ra,-23
e00028ba:	6518                	flw	fa4,8(a0)
e00028bc:	0000                	unimp
e00028be:	4650                	lw	a2,12(a2)
e00028c0:	5312                	lw	t1,36(sp)
e00028c2:	bc76                	fsd	ft9,56(sp)
e00028c4:	50a2                	lw	ra,40(sp)
e00028c6:	2158                	fld	fa4,128(a0)
e00028c8:	0000                	unimp
e00028ca:	a300                	fsd	fs0,0(a4)
e00028cc:	0042                	0x42
e00028ce:	591c                	lw	a5,48(a0)
e00028d0:	ad50                	fsd	fa2,152(a0)
e00028d2:	899a                	mv	s3,t1
e00028d4:	0000                	unimp
e00028d6:	5130                	lw	a2,96(a0)
e00028d8:	0486                	slli	s1,s1,0x1
e00028da:	e38c                	fsw	fa1,0(a5)
e00028dc:	5136                	lw	sp,108(sp)
e00028de:	a050                	fsd	fa2,128(s0)
e00028e0:	0000                	unimp
e00028e2:	5610                	lw	a2,40(a2)
e00028e4:	ef50                	fsw	fa2,28(a4)
e00028e6:	1a9e                	slli	s5,s5,0x27
e00028e8:	eadc                	fsw	fa5,20(a3)
e00028ea:	513d                	li	sp,-17
e00028ec:	0000                	unimp
e00028ee:	5370                	lw	a2,100(a4)
e00028f0:	5138                	lw	a4,96(a0)
e00028f2:	9910                	0x9910
e00028f4:	537c                	lw	a5,100(a4)
e00028f6:	0000                	unimp
e00028f8:	0000                	unimp
e00028fa:	4080                	lw	s0,0(s1)
e00028fc:	0000                	unimp
e00028fe:	5561                	li	a0,-8
e0002900:	4480                	lw	s0,8(s1)
e0002902:	513c                	lw	a5,96(a0)
e0002904:	0000                	unimp
e0002906:	5750                	lw	a2,44(a4)
e0002908:	2c58                	fld	fa4,152(s0)
e000290a:	0003e6eb          	0x3e6eb
e000290e:	5930                	lw	a2,112(a0)
e0002910:	0000                	unimp
e0002912:	5970                	lw	a2,116(a0)
e0002914:	6095                	lui	ra,0x5
e0002916:	3b24                	fld	fs1,112(a4)
e0002918:	8084                	0x8084
e000291a:	57dc                	lw	a5,44(a5)
e000291c:	0000                	unimp
e000291e:	18c0                	addi	s0,sp,116
e0002920:	8230                	0x8230
e0002922:	6e42                	flw	ft8,16(sp)
e0002924:	463c                	lw	a5,72(a2)
e0002926:	0c5e                	slli	s8,s8,0x17
e0002928:	0000                	unimp
e000292a:	8480                	0x8480
e000292c:	0f24                	addi	s1,sp,920
e000292e:	5a94                	lw	a3,48(a3)
e0002930:	4d20                	lw	s0,88(a0)
e0002932:	4624                	lw	s1,72(a2)
e0002934:	0000                	unimp
e0002936:	0040                	addi	s0,sp,4
e0002938:	601c                	flw	fa5,0(s0)
e000293a:	4754                	lw	a3,12(a4)
e000293c:	0826                	slli	a6,a6,0x9
e000293e:	5818                	lw	a4,48(s0)
e0002940:	0000                	unimp
e0002942:	1050                	addi	a2,sp,36
e0002944:	5324                	lw	s1,96(a4)
e0002946:	9dc8                	0x9dc8
e0002948:	011c                	addi	a5,sp,128
e000294a:	60da                	flw	ft1,148(sp)
e000294c:	0000                	unimp
e000294e:	1880                	addi	s0,sp,112
e0002950:	5b1c                	lw	a5,48(a4)
e0002952:	7566                	flw	fa0,120(sp)
e0002954:	1018                	addi	a4,sp,32
e0002956:	e061                	bnez	s0,e0002a16 <hmac_smoketest+0x248a>
e0002958:	0000                	unimp
e000295a:	0820                	addi	s0,sp,24
e000295c:	2b50                	fld	fa2,144(a4)
e000295e:	c560                	sw	s0,76(a0)
e0002960:	ad58                	fsd	fa4,152(a0)
e0002962:	063a                	slli	a2,a2,0xe
e0002964:	0000                	unimp
e0002966:	5930                	lw	a2,112(a0)
e0002968:	2b50                	fld	fa2,144(a4)
e000296a:	fff0                	fsw	fa2,124(a5)
e000296c:	5b56                	lw	s6,116(sp)
e000296e:	d630                	sw	a2,104(a2)
e0002970:	0000                	unimp
e0002972:	5a50                	lw	a2,52(a2)
e0002974:	0058                	addi	a4,sp,4
e0002976:	00036dcb          	fnmsub.s	fs11,ft6,ft0,ft0,unknown
e000297a:	5930                	lw	a2,112(a0)
e000297c:	0000                	unimp
e000297e:	5970                	lw	a2,116(a0)
e0002980:	0f2c                	addi	a1,sp,920
e0002982:	48a4                	lw	s1,80(s1)
e0002984:	1914                	addi	a3,sp,176
e0002986:	188c                	addi	a1,sp,112
e0002988:	0000                	unimp
e000298a:	18c0                	addi	s0,sp,116
e000298c:	7c700003          	lb	zero,1991(zero) # 7c7 <_min_stack-0x1839>
e0002990:	0826                	slli	a6,a6,0x9
e0002992:	5178                	lw	a4,100(a0)
e0002994:	0000                	unimp
e0002996:	1050                	addi	a2,sp,36
e0002998:	d0d4                	sw	a3,36(s1)
e000299a:	b4de                	fsd	fs7,104(sp)
e000299c:	f050                	fsw	fa2,36(s0)
e000299e:	108a                	slli	ra,ra,0x22
e00029a0:	0000                	unimp
e00029a2:	5130                	lw	a2,96(a0)
e00029a4:	ec58                	fsw	fa4,28(s0)
e00029a6:	00023dc7          	fmsub.s	fs11,ft4,ft0,ft0,rup
e00029aa:	5930                	lw	a2,112(a0)
e00029ac:	0000                	unimp
e00029ae:	5970                	lw	a2,116(a0)
e00029b0:	fd00                	fsw	fs0,56(a0)
e00029b2:	2561                	jal	e000303a <hmac_smoketest+0x2aae>
e00029b4:	6510                	flw	fa2,8(a0)
e00029b6:	0ef4                	addi	a3,sp,860
e00029b8:	0000                	unimp
e00029ba:	0280                	addi	s0,sp,320
e00029bc:	517a                	lw	sp,188(sp)
e00029be:	8bd04ff3          	0x8bd04ff3
e00029c2:	8052                	0x8052
e00029c4:	0000                	unimp
e00029c6:	0280                	addi	s0,sp,320
e00029c8:	108a                	slli	ra,ra,0x22
e00029ca:	0c74                	addi	a3,sp,540
e00029cc:	5130                	lw	a2,96(a0)
e00029ce:	ce50                	sw	a2,28(a2)
e00029d0:	0000                	unimp
e00029d2:	0000                	unimp
e00029d4:	5930                	lw	a2,112(a0)
e00029d6:	f918                	fsw	fa4,48(a0)
e00029d8:	597e                	lw	s2,252(sp)
e00029da:	0002                	0x2
e00029dc:	0000                	unimp
e00029de:	d050                	sw	a2,36(s0)
e00029e0:	0ef4                	addi	a3,sp,860
e00029e2:	6c70                	flw	fa2,92(s0)
e00029e4:	65100287          	0x65100287
e00029e8:	0000                	unimp
e00029ea:	b650                	fsd	fa2,168(a2)
e00029ec:	03d2                	slli	t2,t2,0x14
e00029ee:	b75a                	fsd	fs6,424(sp)
e00029f0:	0281                	addi	t0,t0,0
e00029f2:	8b10                	0x8b10
e00029f4:	0000                	unimp
e00029f6:	db00                	sw	s0,48(a4)
e00029f8:	fc50                	fsw	fa2,60(s0)
e00029fa:	e239                	bnez	a2,e0002a40 <hmac_smoketest+0x24b4>
e00029fc:	5131000f          	0x5131000f
e0002a00:	0000                	unimp
e0002a02:	5170                	lw	a2,100(a0)
e0002a04:	4e400003          	lb	zero,1252(zero) # 4e4 <_min_stack-0x1b1c>
e0002a08:	8c54                	0x8c54
e0002a0a:	5172                	lw	sp,60(sp)
e0002a0c:	0000                	unimp
e0002a0e:	5810                	lw	a2,48(s0)
e0002a10:	5054                	lw	a3,36(s0)
e0002a12:	b6ec                	fsd	fa1,232(a3)
e0002a14:	9c50                	0x9c50
e0002a16:	108a                	slli	ra,ra,0x22
e0002a18:	0000                	unimp
e0002a1a:	5130                	lw	a2,96(a0)
e0002a1c:	839a                	mv	t2,t1
e0002a1e:	b1ba                	fsd	fa4,224(sp)
e0002a20:	5936                	lw	s2,108(sp)
e0002a22:	ad58                	fsd	fa4,152(a0)
e0002a24:	0000                	unimp
e0002a26:	5b10                	lw	a2,48(a4)
e0002a28:	c850                	sw	a2,20(s0)
e0002a2a:	2009                	jal	e0002a2c <hmac_smoketest+0x24a0>
e0002a2c:	5131000f          	0x5131000f
e0002a30:	0000                	unimp
e0002a32:	5170                	lw	a2,100(a0)
e0002a34:	1dc00003          	lb	zero,476(zero) # 1dc <_min_stack-0x1e24>
e0002a38:	8c14                	0x8c14
e0002a3a:	5172                	lw	sp,60(sp)
e0002a3c:	0000                	unimp
e0002a3e:	5810                	lw	a2,48(s0)
e0002a40:	5014                	lw	a3,32(s0)
e0002a42:	91bc                	0x91bc
e0002a44:	7c50                	flw	fa2,60(s0)
e0002a46:	108a                	slli	ra,ra,0x22
e0002a48:	0000                	unimp
e0002a4a:	5130                	lw	a2,96(a0)
e0002a4c:	009c                	addi	a5,sp,64
e0002a4e:	cdc2                	sw	a6,216(sp)
e0002a50:	5b56                	lw	s6,116(sp)
e0002a52:	10c0                	addi	s0,sp,100
e0002a54:	0000                	unimp
e0002a56:	5a50                	lw	a2,52(a2)
e0002a58:	c912573b          	0xc912573b
e0002a5c:	0500                	addi	s0,sp,640
e0002a5e:	ff51                	bnez	a4,e00029fa <hmac_smoketest+0x246e>
e0002a60:	0000                	unimp
e0002a62:	0730                	addi	a2,sp,904
e0002a64:	4302                	lw	t1,0(sp)
e0002a66:	0823e233          	0x823e233
e0002a6a:	5738                	lw	a4,104(a4)
e0002a6c:	0000                	unimp
e0002a6e:	4200                	lw	s0,0(a2)
e0002a70:	8c780823          	sb	t2,-1840(a6)
e0002a74:	5738                	lw	a4,104(a4)
e0002a76:	4102                	lw	sp,0(sp)
e0002a78:	0000                	unimp
e0002a7a:	0820                	addi	s0,sp,24
e0002a7c:	226c                	fld	fa1,192(a2)
e0002a7e:	a4dc                	fsd	fa5,136(s1)
e0002a80:	422c6067          	0x422c6067
e0002a84:	0000                	unimp
e0002a86:	1790                	addi	a2,sp,992
e0002a88:	23ed                	jal	e0003072 <hmac_smoketest+0x2ae6>
e0002a8a:	223d                	jal	e0002bb8 <hmac_smoketest+0x262c>
e0002a8c:	6468                	flw	fa0,76(s0)
e0002a8e:	442d                	li	s0,11
e0002a90:	0000                	unimp
e0002a92:	42a0                	lw	s0,64(a3)
e0002a94:	a2ec                	fsd	fa1,192(a3)
e0002a96:	638c                	flw	fa1,0(a5)
e0002a98:	e36d                	bnez	a4,e0002b7a <hmac_smoketest+0x25ee>
e0002a9a:	c32c                	sw	a1,64(a4)
e0002a9c:	0000                	unimp
e0002a9e:	03a0                	addi	s0,sp,456
e0002aa0:	6138                	flw	fa4,64(a0)
e0002aa2:	ea98                	fsw	fa4,16(a3)
e0002aa4:	5b74                	lw	a3,116(a4)
e0002aa6:	0000                	unimp
e0002aa8:	0000                	unimp
e0002aaa:	1480                	addi	s0,sp,608
e0002aac:	3f00                	fld	fs0,56(a4)
e0002aae:	5912                	lw	s2,36(sp)
e0002ab0:	581f 0ef4 0000      	0xef4581f
e0002ab6:	ff50                	fsw	fa2,60(a4)
e0002ab8:	5934                	lw	a3,112(a0)
e0002aba:	48a0                	lw	s0,80(s1)
e0002abc:	6334                	flw	fa3,64(a4)
e0002abe:	0d50                	addi	a2,sp,660
e0002ac0:	0000                	unimp
e0002ac2:	0540                	addi	s0,sp,644
e0002ac4:	dd00                	sw	s0,56(a0)
e0002ac6:	34d2                	fld	fs1,304(sp)
e0002ac8:	5360                	lw	s0,100(a4)
e0002aca:	0ef8                	addi	a4,sp,860
e0002acc:	0000                	unimp
e0002ace:	2f00                	fld	fs0,24(a4)
e0002ad0:	0110                	addi	a2,sp,128
e0002ad2:	123a                	slli	tp,tp,0x2e
e0002ad4:	693c                	flw	fa5,80(a0)
e0002ad6:	0150                	addi	a2,sp,132
e0002ad8:	0000                	unimp
e0002ada:	5010                	lw	a2,32(s0)
e0002adc:	a634                	fsd	fa3,72(a2)
e0002ade:	475e                	lw	a4,212(sp)
e0002ae0:	0084                	addi	s1,sp,64
e0002ae2:	58d4                	lw	a3,52(s1)
e0002ae4:	0000                	unimp
e0002ae6:	0540                	addi	s0,sp,644
e0002ae8:	0002                	0x2
e0002aea:	f1b0                	fsw	fa2,96(a1)
e0002aec:	50a0                	lw	s0,96(s1)
e0002aee:	5970                	lw	a2,116(a0)
e0002af0:	0000                	unimp
e0002af2:	0a50                	addi	a2,sp,276
e0002af4:	10c9                	addi	ra,ra,-14
e0002af6:	7ff4                	flw	fa3,124(a5)
e0002af8:	4058                	lw	a4,4(s0)
e0002afa:	000052e7          	0x52e7
e0002afe:	5930                	lw	a2,112(a0)
e0002b00:	5930                	lw	a2,112(a0)
e0002b02:	f4d8                	fsw	fa4,44(s1)
e0002b04:	597a                	lw	s2,188(sp)
e0002b06:	0002                	0x2
e0002b08:	0000                	unimp
e0002b0a:	0290                	addi	a2,sp,320
e0002b0c:	6c78493f 00004977 	0x49776c78493f
e0002b14:	0000                	unimp
e0002b16:	2e50                	fld	fa2,152(a2)
e0002b18:	4180                	lw	s0,0(a1)
e0002b1a:	f1b4                	fsw	fa3,96(a1)
e0002b1c:	004d6037          	lui	zero,0x4d6
e0002b20:	0000                	unimp
e0002b22:	8240                	0x8240
e0002b24:	0050                	addi	a2,sp,4
e0002b26:	000221b7          	lui	gp,0x22
e0002b2a:	5130                	lw	a2,96(a0)
e0002b2c:	0000                	unimp
e0002b2e:	5170                	lw	a2,100(a0)
e0002b30:	5050                	lw	a2,36(s0)
e0002b32:	ac70                	fsd	fa2,216(s0)
e0002b34:	5032                	0x5032
e0002b36:	0049                	c.addi	zero,18
e0002b38:	0000                	unimp
e0002b3a:	8650                	0x8650
e0002b3c:	02a0                	addi	s0,sp,328
e0002b3e:	9ffc                	0x9ffc
e0002b40:	0a49                	addi	s4,s4,18
e0002b42:	8480                	0x8480
e0002b44:	0000                	unimp
e0002b46:	0230                	addi	a2,sp,264
e0002b48:	5172                	lw	sp,60(sp)
e0002b4a:	e1b2                	fsw	fa2,192(sp)
e0002b4c:	84c4                	0x84c4
e0002b4e:	8d90                	0x8d90
e0002b50:	0000                	unimp
e0002b52:	8080                	0x8080
e0002b54:	8696                	mv	a3,t0
e0002b56:	9562                	add	a0,a0,s8
e0002b58:	5130                	lw	a2,96(a0)
e0002b5a:	f150                	fsw	fa2,36(a0)
e0002b5c:	0000                	unimp
e0002b5e:	0000                	unimp
e0002b60:	1454                	addi	a3,sp,548
e0002b62:	e386                	fsw	ft1,196(sp)
e0002b64:	4224                	lw	s1,64(a2)
e0002b66:	0b24                	addi	s1,sp,408
e0002b68:	0000                	unimp
e0002b6a:	4920                	lw	s0,80(a0)
e0002b6c:	c42c                	sw	a1,72(s0)
e0002b6e:	e6ec                	fsw	fa1,76(a3)
e0002b70:	1018                	addi	a4,sp,32
e0002b72:	e461                	bnez	s0,e0002c3a <hmac_smoketest+0x26ae>
e0002b74:	0000                	unimp
e0002b76:	0820                	addi	s0,sp,24
e0002b78:	7930                	flw	fa2,112(a0)
e0002b7a:	9918                	0x9918
e0002b7c:	797c                	flw	fa5,116(a0)
e0002b7e:	00000003          	lb	zero,0(zero) # 0 <_min_stack-0x2000>
e0002b82:	a3e0                	fsd	fs0,192(a5)
e0002b84:	636c                	flw	fa1,68(a4)
e0002b86:	0dcc                	addi	a1,sp,724
e0002b88:	39c9                	jal	e000285a <hmac_smoketest+0x22ce>
e0002b8a:	83a4                	0x83a4
e0002b8c:	0000                	unimp
e0002b8e:	aa70                	fsd	fa2,208(a2)
e0002b90:	22a0                	fld	fs0,64(a3)
e0002b92:	f56c                	fsw	fa1,108(a0)
e0002b94:	388c                	fld	fa1,48(s1)
e0002b96:	028c                	addi	a1,sp,320
e0002b98:	0000                	unimp
e0002b9a:	4320                	lw	s0,64(a4)
e0002b9c:	0450                	addi	a2,sp,516
e0002b9e:	5e40                	lw	s0,60(a2)
e0002ba0:	512c                	lw	a1,96(a0)
e0002ba2:	6134                	flw	fa3,64(a0)
e0002ba4:	0000                	unimp
e0002ba6:	9890                	0x9890
e0002ba8:	3881                	jal	e00023f8 <hmac_smoketest+0x1e6c>
e0002baa:	14dc                	addi	a5,sp,612
e0002bac:	108c                	addi	a1,sp,96
e0002bae:	5fd4                	lw	a3,60(a5)
e0002bb0:	0000                	unimp
e0002bb2:	2320                	fld	fs0,64(a4)
e0002bb4:	5328                	lw	a0,96(a4)
e0002bb6:	7c78                	flw	fa4,124(s0)
e0002bb8:	105f 0826 0000      	0x826105f
e0002bbe:	9ed0                	0x9ed0
e0002bc0:	8a98593f 00005978 	0x59788a98593f
e0002bc8:	0000                	unimp
e0002bca:	0820                	addi	s0,sp,24
e0002bcc:	0000                	unimp
e0002bce:	5c70                	lw	a2,124(s0)
e0002bd0:	517c1887          	0x517c1887
e0002bd4:	0000                	unimp
e0002bd6:	0e50                	addi	a2,sp,788
e0002bd8:	082c                	addi	a1,sp,24
e0002bda:	c568                	sw	a0,76(a0)
e0002bdc:	0c50                	addi	a2,sp,532
e0002bde:	1c80                	addi	s0,sp,624
e0002be0:	0000                	unimp
e0002be2:	5130                	lw	a2,96(a0)
e0002be4:	a26c                	fsd	fa1,192(a2)
e0002be6:	b56c                	fsd	fa1,232(a0)
e0002be8:	e061                	bnez	s0,e0002ca8 <hmac_smoketest+0x271c>
e0002bea:	c22c                	sw	a1,64(a2)
e0002bec:	0000                	unimp
e0002bee:	1010                	addi	a2,sp,32
e0002bf0:	432c                	lw	a1,64(a4)
e0002bf2:	0238                	addi	a4,sp,264
e0002bf4:	64ec                	flw	fa1,76(s1)
e0002bf6:	20dc                	fld	fa5,128(s1)
e0002bf8:	0000                	unimp
e0002bfa:	84a0                	0x84a0
e0002bfc:	5334                	lw	a3,96(a4)
e0002bfe:	a4d0                	fsd	fa2,136(s1)
e0002c00:	9aa8                	0x9aa8
e0002c02:	4818                	lw	a4,16(s0)
e0002c04:	0000                	unimp
e0002c06:	92e0                	0x92e0
e0002c08:	54e0                	lw	s0,108(s1)
e0002c0a:	3758                	fld	fa4,168(a4)
e0002c0c:	5830                	lw	a2,112(s0)
e0002c0e:	0054                	addi	a3,sp,4
e0002c10:	0000                	unimp
e0002c12:	0990                	addi	a2,sp,208
e0002c14:	8e30                	0x8e30
e0002c16:	2231                	jal	e0002d22 <hmac_smoketest+0x2796>
e0002c18:	5192                	lw	gp,36(sp)
e0002c1a:	485e                	lw	a6,212(sp)
e0002c1c:	0000                	unimp
e0002c1e:	f590                	fsw	fa2,40(a1)
e0002c20:	481a                	lw	a6,132(sp)
e0002c22:	8564                	0x8564
e0002c24:	01184a2f          	0x1184a2f
e0002c28:	0000                	unimp
e0002c2a:	e940                	fsw	fs0,20(a0)
e0002c2c:	4d24                	lw	s1,88(a0)
e0002c2e:	2754                	fld	fa3,136(a4)
e0002c30:	9b28                	0x9b28
e0002c32:	9424                	0x9424
e0002c34:	0000                	unimp
e0002c36:	5260                	lw	s0,100(a2)
e0002c38:	0826                	slli	a6,a6,0x9
e0002c3a:	cdc8                	sw	a0,28(a1)
e0002c3c:	0f24                	addi	s1,sp,920
e0002c3e:	1054                	addi	a3,sp,36
e0002c40:	0000                	unimp
e0002c42:	4620                	lw	s0,72(a2)
e0002c44:	442d                	li	s0,11
e0002c46:	ba9d                	j	e00025bc <hmac_smoketest+0x2030>
e0002c48:	646c6067          	0x646c6067
e0002c4c:	0000                	unimp
e0002c4e:	1790                	addi	a2,sp,992
e0002c50:	c32c                	sw	a1,64(a4)
e0002c52:	bdcc                	fsd	fa1,184(a1)
e0002c54:	03ad                	addi	t2,t2,11
e0002c56:	e36d                	bnez	a4,e0002d38 <hmac_smoketest+0x27ac>
e0002c58:	0000                	unimp
e0002c5a:	23e0                	fld	fs0,192(a5)
e0002c5c:	8758593f 0000597c 	0x597c8758593f
e0002c64:	0000                	unimp
e0002c66:	a2e0                	fsd	fs0,192(a3)
e0002c68:	72a4                	flw	fs1,96(a3)
e0002c6a:	7ff8                	flw	fa4,124(a5)
e0002c6c:	1906                	slli	s2,s2,0x21
e0002c6e:	1cc4                	addi	s1,sp,628
e0002c70:	0000                	unimp
e0002c72:	a650                	fsd	fa2,136(a2)
e0002c74:	5320                	lw	s0,96(a4)
e0002c76:	7b28                	flw	fa0,112(a4)
e0002c78:	42a0                	lw	s0,64(a3)
e0002c7a:	854c                	0x854c
e0002c7c:	0000                	unimp
e0002c7e:	8480                	0x8480
e0002c80:	1454                	addi	a3,sp,548
e0002c82:	54d6                	lw	s1,116(sp)
e0002c84:	00d8                	addi	a4,sp,68
e0002c86:	0b22                	slli	s6,s6,0x8
e0002c88:	0000                	unimp
e0002c8a:	63a0                	flw	fs0,64(a5)
e0002c8c:	7568693f 00006978 	0x69787568693f
e0002c94:	0000                	unimp
e0002c96:	0820                	addi	s0,sp,24
e0002c98:	72e4                	flw	fs1,100(a3)
e0002c9a:	9918                	0x9918
e0002c9c:	2906                	fld	fs2,64(sp)
e0002c9e:	2d44                	fld	fs1,152(a0)
e0002ca0:	0000                	unimp
e0002ca2:	8660                	0x8660
e0002ca4:	63e8                	flw	fa0,68(a5)
e0002ca6:	e8a8                	fsw	fa0,80(s1)
e0002ca8:	5328                	lw	a0,96(a4)
e0002caa:	5b68                	lw	a0,116(a4)
e0002cac:	0000                	unimp
e0002cae:	7aa0                	flw	fs0,112(a3)
e0002cb0:	956c6867          	0x956c6867
e0002cb4:	0098                	addi	a4,sp,64
e0002cb6:	15da                	slli	a1,a1,0x36
e0002cb8:	0000                	unimp
e0002cba:	6ba0                	flw	fs0,80(a5)
e0002cbc:	e4ec                	fsw	fa1,76(s1)
e0002cbe:	1a9d                	addi	s5,s5,-25
e0002cc0:	2a6c                	fld	fa1,208(a2)
e0002cc2:	0cac                	addi	a1,sp,600
e0002cc4:	0000                	unimp
e0002cc6:	4a20                	lw	s0,80(a2)
e0002cc8:	65ed                	lui	a1,0x1b
e0002cca:	623d                	lui	tp,0xf
e0002ccc:	a56d                	j	e0003376 <hmac_smoketest+0x2dea>
e0002cce:	85ad                	srai	a1,a1,0xb
e0002cd0:	0000                	unimp
e0002cd2:	c520                	sw	s0,72(a0)
e0002cd4:	e6ed                	bnez	a3,e0002dbe <hmac_smoketest+0x2832>
e0002cd6:	2c7c                	fld	fa5,216(s0)
e0002cd8:	266d                	jal	e0003082 <hmac_smoketest+0x2af6>
e0002cda:	06ad                	addi	a3,a3,11
e0002cdc:	0000                	unimp
e0002cde:	4620                	lw	s0,72(a2)
e0002ce0:	199c                	addi	a5,sp,240
e0002ce2:	0dcc                	addi	a1,sp,724
e0002ce4:	92a8                	0x92a8
e0002ce6:	4368                	lw	a0,68(a4)
e0002ce8:	0000                	unimp
e0002cea:	cb20                	sw	s0,80(a4)
e0002cec:	0000                	unimp
e0002cee:	2230                	fld	fa2,64(a2)
e0002cf0:	0298                	addi	a4,sp,320
e0002cf2:	997a                	add	s2,s2,t5
e0002cf4:	0000                	unimp
e0002cf6:	9ae0                	0x9ae0
e0002cf8:	503c                	lw	a5,96(s0)
e0002cfa:	14dc                	addi	a5,sp,612
e0002cfc:	3298                	fld	fa4,32(a3)
e0002cfe:	0000236f          	jal	t1,e0004cfe <hmac_smoketest+0x4772>
e0002d02:	9930                	0x9930
e0002d04:	a814                	fsd	fa3,16(s0)
e0002d06:	36e4                	fld	fs1,232(a3)
e0002d08:	5630                	lw	a2,104(a2)
e0002d0a:	2050                	fld	fa2,128(s0)
e0002d0c:	0000                	unimp
e0002d0e:	00c0                	addi	s0,sp,68
e0002d10:	a294                	fsd	fa3,0(a3)
e0002d12:	4564                	lw	s1,76(a0)
e0002d14:	2500                	fld	fs0,8(a0)
e0002d16:	d250                	sw	a2,36(a2)
e0002d18:	0000                	unimp
e0002d1a:	c130                	sw	a2,64(a0)
e0002d1c:	02ec                	addi	a1,sp,332
e0002d1e:	023c                	addi	a5,sp,264
e0002d20:	5936                	lw	s2,108(sp)
e0002d22:	2258                	fld	fa4,128(a2)
e0002d24:	0000                	unimp
e0002d26:	58d0                	lw	a2,52(s1)
e0002d28:	9630                	0x9630
e0002d2a:	a380                	fsd	fs0,0(a5)
e0002d2c:	4134                	lw	a3,64(a0)
e0002d2e:	0000ff57          	pv.add.sci.b	t5,ra,0
e0002d32:	4810                	lw	a2,16(s0)
e0002d34:	09c8                	addi	a0,sp,212
e0002d36:	9560                	0x9560
e0002d38:	4190                	lw	a2,0(a1)
e0002d3a:	533c                	lw	a5,96(a4)
e0002d3c:	0000                	unimp
e0002d3e:	1840                	addi	s0,sp,52
e0002d40:	7f50                	flw	fa2,60(a4)
e0002d42:	0154e75b          	p.mac.zh.zl	a4,s1,s5,zero
e0002d46:	4850                	lw	a2,20(s0)
e0002d48:	0000                	unimp
e0002d4a:	5030                	lw	a2,96(s0)
e0002d4c:	6268                	flw	fa0,68(a2)
e0002d4e:	7dc8                	flw	fa0,60(a1)
e0002d50:	54ac                	lw	a1,104(s1)
e0002d52:	5e68                	lw	a0,124(a2)
e0002d54:	0000                	unimp
e0002d56:	4910                	lw	a2,16(a0)
e0002d58:	e040                	fsw	fs0,4(s0)
e0002d5a:	aaa9ca93          	xori	s5,s3,-1366
e0002d5e:	9639                	srai	a2,a2,0x2e
e0002d60:	0000                	unimp
e0002d62:	9820                	0x9820
e0002d64:	0154                	addi	a3,sp,132
e0002d66:	98a0                	0x98a0
e0002d68:	09c8                	addi	a0,sp,212
e0002d6a:	6030                	flw	fa2,64(s0)
e0002d6c:	0000                	unimp
e0002d6e:	5330                	lw	a2,96(a4)
e0002d70:	0e61                	addi	t3,t3,24
e0002d72:	fc70                	fsw	fa2,124(s0)
e0002d74:	2100                	fld	fs0,0(a0)
e0002d76:	8630                	0x8630
e0002d78:	0000                	unimp
e0002d7a:	7130                	flw	fa2,96(a0)
e0002d7c:	0250                	addi	a2,sp,260
e0002d7e:	3000                	fld	fs0,32(s0)
e0002d80:	0254                	addi	a3,sp,260
e0002d82:	6930                	flw	fa2,80(a0)
e0002d84:	0000                	unimp
e0002d86:	5830                	lw	a2,112(s0)
e0002d88:	6934                	flw	fa3,80(a0)
e0002d8a:	2230                	fld	fa2,64(a2)
e0002d8c:	0294                	addi	a3,sp,320
e0002d8e:	b01a                	fsd	ft6,32(sp)
e0002d90:	0000                	unimp
e0002d92:	b050                	fsd	fa2,160(s0)
e0002d94:	a058                	fsd	fa4,128(s0)
e0002d96:	5b200563          	beq	zero,s2,e0003340 <hmac_smoketest+0x2db4>
e0002d9a:	b638                	fsd	fa4,104(a2)
e0002d9c:	0000                	unimp
e0002d9e:	0150                	addi	a2,sp,132
e0002da0:	6134                	flw	fa3,64(a0)
e0002da2:	eb20                	fsw	fs0,80(a4)
e0002da4:	b814                	fsd	fa3,48(s0)
e0002da6:	5014                	lw	a3,32(s0)
e0002da8:	0000                	unimp
e0002daa:	4810                	lw	a2,16(s0)
e0002dac:	c930                	sw	a2,80(a0)
e0002dae:	26e8                	fld	fa0,200(a3)
e0002db0:	0163d93f df600000 	0xdf6000000163d93f
e0002db8:	5ff7613f d0586130 	0xd05861305ff7613f
e0002dc0:	0000                	unimp
e0002dc2:	0160                	addi	s0,sp,140
e0002dc4:	b630                	fsd	fa2,104(a2)
e0002dc6:	c916                	sw	t0,144(sp)
e0002dc8:	5930                	lw	a2,112(a0)
e0002dca:	ff5f 0000 ff60      	0xff600000ff5f
e0002dd0:	a190                	fsd	fa2,0(a1)
e0002dd2:	2ffc                	fld	fa5,216(a5)
e0002dd4:	6130                	flw	fa2,64(a0)
e0002dd6:	0000ff57          	pv.add.sci.b	t5,ra,0
e0002dda:	2cd0                	fld	fa2,152(s1)
e0002ddc:	4939                	li	s2,14
e0002dde:	c918                	sw	a4,16(a0)
e0002de0:	3448                	fld	fa0,168(s0)
e0002de2:	5b20                	lw	s0,112(a4)
e0002de4:	0000                	unimp
e0002de6:	6330                	flw	fa2,64(a4)
e0002de8:	c850                	sw	a2,20(s0)
e0002dea:	4e40                	lw	s0,28(a2)
e0002dec:	00cc583f d0500000 	0xd050000000cc583f
e0002df4:	2000                	fld	fs0,0(s0)
e0002df6:	68a0                	flw	fs0,80(s1)
e0002df8:	ea5f b93a 0000      	0xb93aea5f
e0002dfe:	de90                	sw	a2,56(a3)
e0002e00:	2000                	fld	fs0,0(s0)
e0002e02:	be40                	fsd	fs0,184(a2)
e0002e04:	3000                	fld	fs0,32(s0)
e0002e06:	5130                	lw	a2,96(a0)
e0002e08:	0000                	unimp
e0002e0a:	6130                	flw	fa2,64(a0)
e0002e0c:	3000                	fld	fs0,32(s0)
e0002e0e:	dff0                	sw	a2,124(a5)
e0002e10:	ec59                	bnez	s0,e0002eae <hmac_smoketest+0x2922>
e0002e12:	0000513f 763c0e30 	0x763c0e300000513f
e0002e1a:	06ee                	slli	a3,a3,0x1b
e0002e1c:	7c58                	flw	fa4,60(s0)
e0002e1e:	0000481b          	0x481b
e0002e22:	bb20                	fsd	fs0,112(a4)
e0002e24:	8910ff57          	pv.dotusp.sci.b	t5,ra,-30
e0002e28:	6710                	flw	fa2,8(a4)
e0002e2a:	513a                	lw	sp,172(sp)
e0002e2c:	0000                	unimp
e0002e2e:	0e40                	addi	s0,sp,788
e0002e30:	a858                	fsd	fa4,144(s0)
e0002e32:	8051023f 00005133 	0x51338051023f
e0002e3a:	3630                	fld	fa2,104(a2)
e0002e3c:	5970                	lw	a2,116(a0)
e0002e3e:	b752                	fsd	fs4,424(sp)
e0002e40:	4a76                	lw	s4,92(sp)
e0002e42:	50a0                	lw	s0,96(s1)
e0002e44:	0000                	unimp
e0002e46:	9630                	0x9630
e0002e48:	52e5                	li	t0,-7
e0002e4a:	c009                	beqz	s0,e0002e4c <hmac_smoketest+0x28c0>
e0002e4c:	5930                	lw	a2,112(a0)
e0002e4e:	1658                	addi	a4,sp,804
e0002e50:	0000                	unimp
e0002e52:	0000                	unimp
e0002e54:	a0d9                	j	e0002f1a <hmac_smoketest+0x298e>
e0002e56:	21b2                	fld	ft3,264(sp)
e0002e58:	5024                	lw	s1,96(s0)
e0002e5a:	c638                	sw	a4,72(a2)
e0002e5c:	0000                	unimp
e0002e5e:	1080                	addi	s0,sp,96
e0002e60:	22e0                	fld	fs0,192(a3)
e0002e62:	0c7c                	addi	a5,sp,540
e0002e64:	5934                	lw	a3,112(a0)
e0002e66:	0450                	addi	a2,sp,516
e0002e68:	0000                	unimp
e0002e6a:	5120                	lw	s0,96(a0)
e0002e6c:	00b5                	addi	ra,ra,13
e0002e6e:	fc70                	fsw	fa2,124(s0)
e0002e70:	0052                	0x52
e0002e72:	c630                	sw	a2,72(a2)
e0002e74:	0000                	unimp
e0002e76:	b030                	fsd	fa2,96(s0)
e0002e78:	8b58                	0x8b58
e0002e7a:	4005                	0x4005
e0002e7c:	0002                	0x2
e0002e7e:	5930                	lw	a2,112(a0)
e0002e80:	0000                	unimp
e0002e82:	5970                	lw	a2,116(a0)
e0002e84:	aaa9                	j	e0002fde <hmac_smoketest+0x2a52>
e0002e86:	4e49                	li	t3,18
e0002e88:	54a4                	lw	s1,104(s1)
e0002e8a:	9828                	0x9828
e0002e8c:	0000                	unimp
e0002e8e:	6050                	flw	fa2,4(s0)
e0002e90:	a1b0ffbf 71341600 	0x71341600a1b0ffbf
e0002e98:	0000                	unimp
e0002e9a:	b330                	fsd	fa2,96(a4)
e0002e9c:	8680                	0x8680
e0002e9e:	2c75                	jal	e000315a <hmac_smoketest+0x2bce>
e0002ea0:	0002                	0x2
e0002ea2:	8130                	0x8130
e0002ea4:	0000                	unimp
e0002ea6:	8170                	0x8170
e0002ea8:	65a8                	flw	fa0,72(a1)
e0002eaa:	9918                	0x9918
e0002eac:	54a4                	lw	s1,104(s1)
e0002eae:	5ce8                	lw	a0,124(s1)
e0002eb0:	0000                	unimp
e0002eb2:	7a90                	flw	fa2,48(a3)
e0002eb4:	d630                	sw	a2,104(a2)
e0002eb6:	4008                	lw	a0,0(s0)
e0002eb8:	513a                	lw	sp,172(sp)
e0002eba:	4800                	lw	s0,16(s0)
e0002ebc:	0000                	unimp
e0002ebe:	4a10                	lw	a2,16(a2)
e0002ec0:	7632                	flw	fa2,44(sp)
e0002ec2:	ba99                	j	e0002818 <hmac_smoketest+0x228c>
e0002ec4:	9630                	0x9630
e0002ec6:	7859                	lui	a6,0xffff6
e0002ec8:	0000                	unimp
e0002eca:	2a50                	fld	fa2,144(a2)
e0002ecc:	5930                	lw	a2,112(a0)
e0002ece:	a758                	fsd	fa4,136(a4)
e0002ed0:	5972                	lw	s2,60(sp)
e0002ed2:	0002                	0x2
e0002ed4:	0000                	unimp
e0002ed6:	60d0                	flw	fa2,4(s1)
e0002ed8:	20d8                	fld	fa4,128(s1)
e0002eda:	c750                	sw	a2,12(a4)
e0002edc:	8515                	srai	a0,a0,0x5
e0002ede:	263a                	fld	fa2,392(sp)
e0002ee0:	0000                	unimp
e0002ee2:	4f50                	lw	a2,28(a4)
e0002ee4:	22e0                	fld	fs0,192(a3)
e0002ee6:	0c7c                	addi	a5,sp,540
e0002ee8:	5934                	lw	a3,112(a0)
e0002eea:	0450                	addi	a2,sp,516
e0002eec:	0000                	unimp
e0002eee:	5120                	lw	s0,96(a0)
e0002ef0:	22e0                	fld	fs0,192(a3)
e0002ef2:	838c                	0x838c
e0002ef4:	5934                	lw	a3,112(a0)
e0002ef6:	0850                	addi	a2,sp,20
e0002ef8:	0000                	unimp
e0002efa:	1140                	addi	s0,sp,164
e0002efc:	8970                	0x8970
e0002efe:	f912                	fsw	ft4,176(sp)
e0002f00:	7934                	flw	fa3,112(a0)
e0002f02:	0000ffbf 2d551500 	0x2d5515000000ffbf
e0002f0a:	3b2a                	fld	fs6,168(sp)
e0002f0c:	8930                	0x8930
e0002f0e:	6d88                	flw	fa0,24(a1)
e0002f10:	0000                	unimp
e0002f12:	0000                	unimp
e0002f14:	22e0                	fld	fs0,192(a3)
e0002f16:	0c7c                	addi	a5,sp,540
e0002f18:	5934                	lw	a3,112(a0)
e0002f1a:	0450                	addi	a2,sp,516
e0002f1c:	0000                	unimp
e0002f1e:	5120                	lw	s0,96(a0)
e0002f20:	8170                	0x8170
e0002f22:	9a92                	add	s5,s5,tp
e0002f24:	7134                	flw	fa3,96(a0)
e0002f26:	0000ffbf 2f551100 	0x2f5511000000ffbf
e0002f2e:	0e4a                	slli	t3,t3,0x12
e0002f30:	8130                	0x8130
e0002f32:	5580                	lw	s0,40(a1)
e0002f34:	0000                	unimp
e0002f36:	0000                	unimp
e0002f38:	5934                	lw	a3,112(a0)
e0002f3a:	6ff0                	flw	fa2,92(a5)
e0002f3c:	20d8                	fld	fa4,128(s1)
e0002f3e:	5122                	lw	sp,40(sp)
e0002f40:	0000                	unimp
e0002f42:	2630                	fld	fa2,72(a2)
e0002f44:	5934                	lw	a3,112(a0)
e0002f46:	f000                	fsw	fs0,32(s0)
e0002f48:	22e0                	fld	fs0,192(a3)
e0002f4a:	114c                	addi	a1,sp,164
e0002f4c:	0000                	unimp
e0002f4e:	0450                	addi	a2,sp,516
e0002f50:	7934                	flw	fa3,112(a0)
e0002f52:	22e07b2f          	0x22e07b2f
e0002f56:	150c                	addi	a1,sp,672
e0002f58:	0000                	unimp
e0002f5a:	0850                	addi	a2,sp,20
e0002f5c:	8930                	0x8930
e0002f5e:	46e8                	lw	a0,76(a3)
e0002f60:	8970                	0x8970
e0002f62:	0002                	0x2
e0002f64:	0000                	unimp
e0002f66:	ffb0                	fsw	fa2,120(a5)
e0002f68:	5934                	lw	a3,112(a0)
e0002f6a:	ac70                	fsd	fa2,216(s0)
e0002f6c:	add5                	j	e0003660 <hmac_smoketest+0x30d4>
e0002f6e:	512a                	lw	sp,168(sp)
e0002f70:	0000                	unimp
e0002f72:	3180                	fld	fs0,32(a1)
e0002f74:	8634                	0x8634
e0002f76:	ee48                	fsw	fa0,28(a2)
e0002f78:	22e0                	fld	fs0,192(a3)
e0002f7a:	110c                	addi	a1,sp,160
e0002f7c:	0000                	unimp
e0002f7e:	0450                	addi	a2,sp,516
e0002f80:	5972                	lw	s2,60(sp)
e0002f82:	7c72                	flw	fs8,60(sp)
e0002f84:	2632                	fld	fa2,264(sp)
e0002f86:	6060                	flw	fs0,68(s0)
e0002f88:	0000                	unimp
e0002f8a:	00d0                	addi	a2,sp,68
e0002f8c:	6114                	flw	fa3,0(a0)
e0002f8e:	4234                	lw	a3,64(a2)
e0002f90:	5930                	lw	a2,112(a0)
e0002f92:	da58                	sw	a4,52(a2)
e0002f94:	0000                	unimp
e0002f96:	0000                	unimp
e0002f98:	5121                	li	sp,-24
e0002f9a:	8ff4                	0x8ff4
e0002f9c:	163a                	slli	a2,a2,0x2e
e0002f9e:	e0d9                	bnez	s1,e0003024 <hmac_smoketest+0x2a98>
e0002fa0:	0000                	unimp
e0002fa2:	2fd0                	fld	fa2,152(a5)
e0002fa4:	108c                	addi	a1,sp,96
e0002fa6:	2e44                	fld	fs1,152(a2)
e0002fa8:	0450                	addi	a2,sp,516
e0002faa:	22e0                	fld	fs0,192(a3)
e0002fac:	0000                	unimp
e0002fae:	5930                	lw	a2,112(a0)
e0002fb0:	6050                	flw	fa2,4(s0)
e0002fb2:	1e44                	addi	s1,sp,820
e0002fb4:	0a10                	addi	a2,sp,272
e0002fb6:	84c0                	0x84c0
e0002fb8:	0000                	unimp
e0002fba:	a230                	fsd	fa2,64(a2)
e0002fbc:	5121                	li	sp,-24
e0002fbe:	8234                	0x8234
e0002fc0:	563a                	lw	a2,172(sp)
e0002fc2:	c0d9                	beqz	s1,e0003048 <hmac_smoketest+0x2abc>
e0002fc4:	0000                	unimp
e0002fc6:	ad90                	fsd	fa2,24(a1)
e0002fc8:	110c                	addi	a1,sp,160
e0002fca:	6754                	flw	fa3,12(a4)
e0002fcc:	0450                	addi	a2,sp,516
e0002fce:	22e0                	fld	fs0,192(a3)
e0002fd0:	0000                	unimp
e0002fd2:	5930                	lw	a2,112(a0)
e0002fd4:	0002                	0x2
e0002fd6:	db20                	sw	s0,112(a4)
e0002fd8:	8170ffbf 71300000 	0x713000008170ffbf
e0002fe0:	a9d4                	fsd	fa3,144(a1)
e0002fe2:	175a                	slli	a4,a4,0x36
e0002fe4:	b280                	fsd	fs0,32(a3)
e0002fe6:	7a14                	flw	fa3,48(a2)
e0002fe8:	0000                	unimp
e0002fea:	8130                	0x8130
e0002fec:	0002                	0x2
e0002fee:	4910                	lw	a2,16(a0)
e0002ff0:	a0d9                	j	e00030b6 <hmac_smoketest+0x2b2a>
e0002ff2:	5971                	li	s2,-4
e0002ff4:	0000                	unimp
e0002ff6:	6630                	flw	fa2,72(a2)
e0002ff8:	54a4                	lw	s1,104(s1)
e0002ffa:	2758                	fld	fa4,136(a4)
e0002ffc:	9158                	0x9158
e0002ffe:	6094                	flw	fa3,0(s1)
e0003000:	0000                	unimp
e0003002:	5930                	lw	a2,112(a0)
e0003004:	0458                	addi	a4,sp,516
e0003006:	f380                	fsw	fs0,32(a5)
e0003008:	5929                	li	s2,-22
e000300a:	6134                	flw	fa3,64(a0)
e000300c:	0000                	unimp
e000300e:	9820                	0x9820
e0003010:	1550                	addi	a2,sp,676
e0003012:	f1b0                	fsw	fa2,96(a1)
e0003014:	190c                	addi	a1,sp,176
e0003016:	4334                	lw	a3,64(a4)
e0003018:	0000                	unimp
e000301a:	2320                	fld	fs0,64(a4)
e000301c:	8680                	0x8680
e000301e:	a234                	fsd	fa3,64(a2)
e0003020:	0002                	0x2
e0003022:	8130                	0x8130
e0003024:	0000                	unimp
e0003026:	8170                	0x8170
e0003028:	7c10                	flw	fa2,56(s0)
e000302a:	f8a4                	fsw	fs1,112(s1)
e000302c:	7134                	flw	fa3,96(a0)
e000302e:	3000                	fld	fs0,32(s0)
e0003030:	0000                	unimp
e0003032:	6a10                	flw	fa2,16(a2)
e0003034:	ab32                	fsd	fa2,400(sp)
e0003036:	cb20                	sw	s0,80(a4)
e0003038:	5ce8                	lw	a0,124(s1)
e000303a:	e298                	fsw	fa4,0(a3)
e000303c:	0000                	unimp
e000303e:	54a0                	lw	s0,104(s1)
e0003040:	5934                	lw	a3,112(a0)
e0003042:	1910                	addi	a2,sp,176
e0003044:	2490                	fld	fa2,8(s1)
e0003046:	512a                	lw	sp,168(sp)
e0003048:	0000                	unimp
e000304a:	0a40                	addi	s0,sp,276
e000304c:	5824                	lw	s1,112(s0)
e000304e:	5b24                	lw	s1,112(a4)
e0003050:	22e0                	fld	fs0,192(a3)
e0003052:	108c                	addi	a1,sp,96
e0003054:	0000                	unimp
e0003056:	0450                	addi	a2,sp,516
e0003058:	2200                	fld	fs0,0(a2)
e000305a:	e230                	fsw	fa2,64(a2)
e000305c:	0b11                	addi	s6,s6,4
e000305e:	5930                	lw	a2,112(a0)
e0003060:	0000                	unimp
e0003062:	c230                	sw	a2,64(a2)
e0003064:	6930                	flw	fa2,80(a0)
e0003066:	0560                	addi	s0,sp,652
e0003068:	06cc                	addi	a1,sp,836
e000306a:	8100                	0x8100
e000306c:	0000                	unimp
e000306e:	a2e0                	fsd	fs0,192(a3)
e0003070:	baa4                	fsd	fs1,112(a3)
e0003072:	a6e8                	fsd	fa0,200(a3)
e0003074:	e8d0                	fsw	fa2,20(s1)
e0003076:	5b22                	lw	s6,40(sp)
e0003078:	0000                	unimp
e000307a:	1510                	addi	a2,sp,672
e000307c:	005c                	addi	a5,sp,4
e000307e:	c910                	sw	a2,16(a0)
e0003080:	ff58                	fsw	fa4,60(a4)
e0003082:	0000503f 613f4130 	0x613f41300000503f
e000308a:	7c79                	lui	s8,0xffffe
e000308c:	4050                	lw	a2,4(s0)
e000308e:	d650                	sw	a2,44(a2)
e0003090:	0000                	unimp
e0003092:	5850                	lw	a2,52(s0)
e0003094:	5930                	lw	a2,112(a0)
e0003096:	f6e8                	fsw	fa0,108(a3)
e0003098:	5970                	lw	a2,116(a0)
e000309a:	0002                	0x2
e000309c:	0000                	unimp
e000309e:	01d0                	addi	a2,sp,196
e00030a0:	5b29                	li	s6,-22
e00030a2:	3ff4                	fld	fa3,248(a5)
e00030a4:	54a4                	lw	s1,104(s1)
e00030a6:	9828                	0x9828
e00030a8:	0000                	unimp
e00030aa:	2b50                	fld	fa2,144(a4)
e00030ac:	54a4                	lw	s1,104(s1)
e00030ae:	1008                	addi	a0,sp,32
e00030b0:	6338                	flw	fa4,64(a4)
e00030b2:	0b40                	addi	s0,sp,404
e00030b4:	0000                	unimp
e00030b6:	4aa0                	lw	s0,80(a3)
e00030b8:	5970                	lw	a2,116(a0)
e00030ba:	3232                	fld	ft4,296(sp)
e00030bc:	4339                	li	t1,14
e00030be:	0950                	addi	a2,sp,148
e00030c0:	0000                	unimp
e00030c2:	9820                	0x9820
e00030c4:	54a4                	lw	s1,104(s1)
e00030c6:	c6e8                	sw	a0,76(a3)
e00030c8:	5930                	lw	a2,112(a0)
e00030ca:	1058                	addi	a4,sp,36
e00030cc:	0000                	unimp
e00030ce:	0000                	unimp
e00030d0:	5979                	li	s2,-2
e00030d2:	b562                	fsd	fs8,168(sp)
e00030d4:	9828                	0x9828
e00030d6:	42a9                	li	t0,10
e00030d8:	0000                	unimp
e00030da:	65a0                	flw	fs0,72(a1)
e00030dc:	6dc46053          	0x6dc46053
e00030e0:	5930                	lw	a2,112(a0)
e00030e2:	ea58                	fsw	fa4,20(a2)
e00030e4:	0000                	unimp
e00030e6:	0000                	unimp
e00030e8:	0a40                	addi	s0,sp,276
e00030ea:	c910                	sw	a2,16(a0)
e00030ec:	9828                	0x9828
e00030ee:	4b39                	li	s6,14
e00030f0:	0000                	unimp
e00030f2:	54a0                	lw	s0,104(s1)
e00030f4:	0002                	0x2
e00030f6:	bdc0                	fsd	fs0,184(a1)
e00030f8:	20b8                	fld	fa4,64(s1)
e00030fa:	5971                	li	s2,-4
e00030fc:	0000                	unimp
e00030fe:	3630                	fld	fa2,104(a2)
e0003100:	54a4                	lw	s1,104(s1)
e0003102:	bff8                	fsd	fa4,248(a5)
e0003104:	ec58                	fsw	fa4,28(s0)
e0003106:	00006053          	fadd.s	ft0,ft0,ft0,unknown
e000310a:	5930                	lw	a2,112(a0)
e000310c:	84c0                	0x84c0
e000310e:	c750                	sw	a2,12(a4)
e0003110:	4339                	li	t1,14
e0003112:	0950                	addi	a2,sp,148
e0003114:	0000                	unimp
e0003116:	9820                	0x9820
e0003118:	6429                	lui	s0,0xa
e000311a:	84d4                	0x84d4
e000311c:	54a4                	lw	s1,104(s1)
e000311e:	9828                	0x9828
e0003120:	0000                	unimp
e0003122:	6190                	flw	fa2,0(a1)
e0003124:	8130                	0x8130
e0003126:	3b20                	fld	fs0,112(a4)
e0003128:	8179                	srli	a0,a0,0x1e
e000312a:	0002                	0x2
e000312c:	0000                	unimp
e000312e:	42a0                	lw	s0,64(a3)
e0003130:	5ce8                	lw	a0,124(s1)
e0003132:	5c78                	lw	a4,124(s0)
e0003134:	54a47a93          	andi	s5,s0,1354
e0003138:	0000                	unimp
e000313a:	d480                	sw	s0,40(s1)
e000313c:	42a2                	lw	t0,8(sp)
e000313e:	5759                	li	a4,-10
e0003140:	7014                	flw	fa3,32(s0)
e0003142:	4ad4                	lw	a3,20(a3)
e0003144:	0000                	unimp
e0003146:	6810                	flw	fa2,16(s0)
e0003148:	ba58                	fsd	fa4,176(a2)
e000314a:	00020563          	beqz	tp,e0003154 <hmac_smoketest+0x2bc8>
e000314e:	5930                	lw	a2,112(a0)
e0003150:	0000                	unimp
e0003152:	5970                	lw	a2,116(a0)
e0003154:	42a9                	li	t0,10
e0003156:	f8a9                	bnez	s1,e00030a8 <hmac_smoketest+0x2b1c>
e0003158:	54a4                	lw	s1,104(s1)
e000315a:	9828                	0x9828
e000315c:	0000                	unimp
e000315e:	6050                	flw	fa2,4(s0)
e0003160:	0450                	addi	a2,sp,516
e0003162:	aff0                	fsd	fa2,216(a5)
e0003164:	512a                	lw	sp,168(sp)
e0003166:	5934                	lw	a3,112(a0)
e0003168:	0000                	unimp
e000316a:	8e50                	0x8e50
e000316c:	1101                	addi	sp,sp,-32
e000316e:	f754                	fsw	fa3,44(a4)
e0003170:	363c                	fld	fa5,104(a2)
e0003172:	00d8                	addi	a4,sp,68
e0003174:	0000                	unimp
e0003176:	22e0                	fld	fs0,192(a3)
e0003178:	14cc                	addi	a1,sp,612
e000317a:	a914                	fsd	fa3,16(a0)
e000317c:	0850                	addi	a2,sp,20
e000317e:	22e0                	fld	fs0,192(a3)
e0003180:	0000                	unimp
e0003182:	5930                	lw	a2,112(a0)
e0003184:	5120                	lw	s0,96(a0)
e0003186:	b564                	fsd	fs1,232(a0)
e0003188:	d63a                	sw	a4,44(sp)
e000318a:	80d9                	srli	s1,s1,0x16
e000318c:	0000                	unimp
e000318e:	05d0                	addi	a2,sp,708
e0003190:	110c                	addi	a1,sp,160
e0003192:	6754                	flw	fa3,12(a4)
e0003194:	0450                	addi	a2,sp,516
e0003196:	22e0                	fld	fs0,192(a3)
e0003198:	0000                	unimp
e000319a:	5930                	lw	a2,112(a0)
e000319c:	0002                	0x2
e000319e:	db20                	sw	s0,112(a4)
e00031a0:	8170ffbf 71300000 	0x713000008170ffbf
e00031a8:	0994                	addi	a3,sp,208
e00031aa:	6c7a                	flw	fs8,156(sp)
e00031ac:	8280                	0x8280
e00031ae:	00007a93          	andi	s5,zero,0
e00031b2:	8130                	0x8130
e00031b4:	5934                	lw	a3,112(a0)
e00031b6:	0e40                	addi	s0,sp,788
e00031b8:	20d8                	fld	fa4,128(s1)
e00031ba:	5120                	lw	s0,96(a0)
e00031bc:	0000                	unimp
e00031be:	6630                	flw	fa2,72(a2)
e00031c0:	5934                	lw	a3,112(a0)
e00031c2:	f000                	fsw	fs0,32(s0)
e00031c4:	22e0                	fld	fs0,192(a3)
e00031c6:	114c                	addi	a1,sp,164
e00031c8:	0000                	unimp
e00031ca:	0450                	addi	a2,sp,516
e00031cc:	7934                	flw	fa3,112(a0)
e00031ce:	22e07b2f          	0x22e07b2f
e00031d2:	150c                	addi	a1,sp,672
e00031d4:	0000                	unimp
e00031d6:	0850                	addi	a2,sp,20
e00031d8:	8930                	0x8930
e00031da:	46e8                	lw	a0,76(a3)
e00031dc:	8970                	0x8970
e00031de:	0002                	0x2
e00031e0:	0000                	unimp
e00031e2:	ffb0                	fsw	fa2,120(a5)
e00031e4:	5ce8                	lw	a0,124(s1)
e00031e6:	8ff8                	0x8ff8
e00031e8:	54a48053          	0x54a48053
e00031ec:	0000                	unimp
e00031ee:	5c80                	lw	s0,56(s1)
e00031f0:	5934                	lw	a3,112(a0)
e00031f2:	96e0                	0x96e0
e00031f4:	0b98                	addi	a4,sp,464
e00031f6:	512a                	lw	sp,168(sp)
e00031f8:	0000                	unimp
e00031fa:	7260                	flw	fs0,100(a2)
e00031fc:	7134                	flw	fa3,96(a0)
e00031fe:	22e0256f          	jal	a0,e000542c <hmac_smoketest+0x4ea0>
e0003202:	110c                	addi	a1,sp,160
e0003204:	0000                	unimp
e0003206:	0450                	addi	a2,sp,516
e0003208:	8130                	0x8130
e000320a:	68a0                	flw	fs0,80(s1)
e000320c:	8170                	0x8170
e000320e:	0002                	0x2
e0003210:	0000                	unimp
e0003212:	ffb0                	fsw	fa2,120(a5)
e0003214:	5ce8                	lw	a0,124(s1)
e0003216:	1758                	addi	a4,sp,932
e0003218:	54a47c13          	andi	s8,s0,1354
e000321c:	0000                	unimp
e000321e:	3c80                	fld	fs0,56(s1)
e0003220:	763a                	flw	fa2,172(sp)
e0003222:	e238                	fsw	fa4,64(a2)
e0003224:	ad18                	fsd	fa4,24(a0)
e0003226:	83d2                	mv	t2,s4
e0003228:	0000                	unimp
e000322a:	6a60                	flw	fs0,84(a2)
e000322c:	0450                	addi	a2,sp,516
e000322e:	bdc0                	fsd	fs0,184(a1)
e0003230:	5120                	lw	s0,96(a0)
e0003232:	5934                	lw	a3,112(a0)
e0003234:	0000                	unimp
e0003236:	20d0                	fld	fa2,128(s1)
e0003238:	0850                	addi	a2,sp,20
e000323a:	1dc0                	addi	s0,sp,756
e000323c:	114c                	addi	a1,sp,164
e000323e:	5934                	lw	a3,112(a0)
e0003240:	0000                	unimp
e0003242:	22e0                	fld	fs0,192(a3)
e0003244:	1b20ffbf 7934150c 	0x7934150c1b20ffbf
e000324c:	0000                	unimp
e000324e:	22e0                	fld	fs0,192(a3)
e0003250:	0e88                	addi	a0,sp,848
e0003252:	000244d3          	fadd.s	fs1,ft4,ft0,rmm
e0003256:	8930                	0x8930
e0003258:	0000                	unimp
e000325a:	8970                	0x8970
e000325c:	8018                	0x8018
e000325e:	dc74                	sw	a3,124(s0)
e0003260:	5ce8                	lw	a0,124(s1)
e0003262:	7268                	flw	fa0,100(a2)
e0003264:	0000                	unimp
e0003266:	54a0                	lw	s0,104(s1)
e0003268:	0002                	0x2
e000326a:	2ff0                	fld	fa2,216(a5)
e000326c:	8012                	0x8012
e000326e:	597a                	lw	s2,188(sp)
e0003270:	0000                	unimp
e0003272:	0c90                	addi	a2,sp,592
e0003274:	54a4                	lw	s1,104(s1)
e0003276:	1238                	addi	a4,sp,296
e0003278:	3758                	fld	fa4,168(a4)
e000327a:	000063d3          	fadd.s	ft7,ft0,ft0,unknown
e000327e:	5930                	lw	a2,112(a0)
e0003280:	00cc                	addi	a1,sp,68
e0003282:	b230                	fsd	fa2,96(a2)
e0003284:	aaa9                	j	e00033de <hmac_smoketest+0x2e52>
e0003286:	5039                	0x5039
e0003288:	0000                	unimp
e000328a:	9820                	0x9820
e000328c:	713a                	flw	ft2,172(sp)
e000328e:	605171bf 00008adc 	0x8adc605171bf
e0003296:	4e30                	lw	a2,88(a2)
e0003298:	8130                	0x8130
e000329a:	68a0                	flw	fs0,80(s1)
e000329c:	8170                	0x8170
e000329e:	0002                	0x2
e00032a0:	0000                	unimp
e00032a2:	ffb0                	fsw	fa2,120(a5)
e00032a4:	a1b4642b          	0xa1b4642b
e00032a8:	7892                	flw	fa7,36(sp)
e00032aa:	7454                	flw	fa3,44(s0)
e00032ac:	0000                	unimp
e00032ae:	dc80                	sw	s0,56(s1)
e00032b0:	ce80                	sw	s0,24(a3)
e00032b2:	5dc2                	lw	s11,48(sp)
e00032b4:	0002                	0x2
e00032b6:	8130                	0x8130
e00032b8:	0000                	unimp
e00032ba:	8170                	0x8170
e00032bc:	6818                	flw	fa4,16(s0)
e00032be:	14d4                	addi	a3,sp,612
e00032c0:	54a4                	lw	s1,104(s1)
e00032c2:	5ce8                	lw	a0,124(s1)
e00032c4:	0000                	unimp
e00032c6:	7a90                	flw	fa2,48(a3)
e00032c8:	0950                	addi	a2,sp,148
e00032ca:	51b0                	lw	a2,96(a1)
e00032cc:	2954                	fld	fa3,144(a0)
e00032ce:	4332                	lw	t1,12(sp)
e00032d0:	0000                	unimp
e00032d2:	7010                	flw	fa2,32(s0)
e00032d4:	b458                	fsd	fa4,168(s0)
e00032d6:	34d2                	fld	fs1,304(sp)
e00032d8:	0002                	0x2
e00032da:	5930                	lw	a2,112(a0)
e00032dc:	0000                	unimp
e00032de:	5970                	lw	a2,116(a0)
e00032e0:	5b39                	li	s6,-18
e00032e2:	91b0                	0x91b0
e00032e4:	65a8                	flw	fa0,72(a1)
e00032e6:	9828                	0x9828
e00032e8:	0000                	unimp
e00032ea:	54a0                	lw	s0,104(s1)
e00032ec:	f5d0                	fsw	fa2,44(a1)
e00032ee:	ab30438b          	p.lbu	t2,-1357(zero!) # fffffab3 <pulp__FC+0xfffffab4>
e00032f2:	0a58                	addi	a4,sp,276
e00032f4:	0000                	unimp
e00032f6:	1540                	addi	s0,sp,676
e00032f8:	0a58                	addi	a4,sp,276
e00032fa:	6c70                	flw	fa2,92(s0)
e00032fc:	5014                	lw	a3,32(s0)
e00032fe:	6334                	flw	fa3,64(a4)
e0003300:	0000                	unimp
e0003302:	10c0                	addi	s0,sp,100
e0003304:	a7d0                	fsd	fa2,136(a5)
e0003306:	0064800f          	0x64800f
e000330a:	5050                	lw	a2,36(s0)
e000330c:	0000                	unimp
e000330e:	6030                	flw	fa2,64(s0)
e0003310:	64d1597b          	lp.setupi	x18,1613,e0003314 <hmac_smoketest+0x2d88>
e0003314:	ff50                	fsw	fa2,60(a4)
e0003316:	f69f 0000 6130      	0x61300000f69f
e000331c:	04d46157          	pv.cmpeq.sci.h	sp,s0,26
e0003320:	5930                	lw	a2,112(a0)
e0003322:	fa58                	fsw	fa4,52(a2)
e0003324:	0000                	unimp
e0003326:	0000                	unimp
e0003328:	5930                	lw	a2,112(a0)
e000332a:	e918                	fsw	fa4,16(a0)
e000332c:	0002597b          	lp.setupi	x18,0,e0003334 <hmac_smoketest+0x2da8>
e0003330:	0000                	unimp
e0003332:	7790                	flw	fa2,40(a5)
e0003334:	9828                	0x9828
e0003336:	bc79                	j	e0002dd4 <hmac_smoketest+0x2848>
e0003338:	6452                	flw	fs0,20(sp)
e000333a:	54a4                	lw	s1,104(s1)
e000333c:	0000                	unimp
e000333e:	8c50                	0x8c50
e0003340:	5564                	lw	s1,108(a0)
e0003342:	d918                	sw	a4,48(a0)
e0003344:	0119                	addi	sp,sp,6
e0003346:	a81a                	fsd	ft6,16(sp)
e0003348:	0000                	unimp
e000334a:	aaa0                	fsd	fs0,80(a3)
e000334c:	c225                	beqz	a2,e00033ac <hmac_smoketest+0x2e20>
e000334e:	2755                	jal	e0003af2 <hmac_smoketest+0x3566>
e0003350:	d024                	sw	s1,96(s0)
e0003352:	c925                	beqz	a0,e00033c2 <hmac_smoketest+0x2e36>
e0003354:	0000                	unimp
e0003356:	df20                	sw	s0,120(a4)
e0003358:	a625                	j	e0003680 <hmac_smoketest+0x30f4>
e000335a:	44d5                	li	s1,21
e000335c:	b425                	j	e0002d84 <hmac_smoketest+0x27f8>
e000335e:	ad25                	j	e0003996 <hmac_smoketest+0x340a>
e0003360:	0000                	unimp
e0003362:	bb20                	fsd	fs0,112(a4)
e0003364:	4264                	lw	s1,68(a2)
e0003366:	7e44                	flw	fs1,60(a2)
e0003368:	9065                	srli	s0,s0,0x39
e000336a:	4964                	lw	s1,84(a0)
e000336c:	0000                	unimp
e000336e:	9f20                	0x9f20
e0003370:	5978                	lw	a4,116(a0)
e0003372:	e4d2                	fsw	fs4,72(sp)
e0003374:	1614                	addi	a3,sp,800
e0003376:	0826                	slli	a6,a6,0x9
e0003378:	0000                	unimp
e000337a:	0b60                	addi	s0,sp,412
e000337c:	6312                	flw	ft6,4(sp)
e000337e:	9e44                	0x9e44
e0003380:	5930                	lw	a2,112(a0)
e0003382:	6958                	flw	fa4,20(a0)
e0003384:	0000                	unimp
e0003386:	0000                	unimp
e0003388:	4a2c                	lw	a1,80(a2)
e000338a:	e56c                	fsw	fa1,76(a0)
e000338c:	686715db          	p.machhun	a1,a4,t1,20
e0003390:	0000                	unimp
e0003392:	7f10                	flw	fa2,56(a4)
e0003394:	c52d                	beqz	a0,e00033fe <hmac_smoketest+0x2e72>
e0003396:	7a9d                	lui	s5,0xfffe7
e0003398:	0cac                	addi	a1,sp,600
e000339a:	e4ec                	fsw	fa1,76(s1)
e000339c:	0000                	unimp
e000339e:	2a60                	fld	fs0,208(a2)
e00033a0:	462d                	li	a2,11
e00033a2:	275d                	jal	e0003b48 <hmac_smoketest+0x35bc>
e00033a4:	85ad                	srai	a1,a1,0xb
e00033a6:	65ed                	lui	a1,0x1b
e00033a8:	0000                	unimp
e00033aa:	a560                	fsd	fs0,200(a0)
e00033ac:	a428                	fsd	fa0,72(s0)
e00033ae:	6ff8                	flw	fa4,92(a5)
e00033b0:	06ad                	addi	a3,a3,11
e00033b2:	bc6d                	j	e0002e6c <hmac_smoketest+0x28e0>
e00033b4:	0000                	unimp
e00033b6:	2660                	fld	fs0,200(a2)
e00033b8:	9aa8                	0x9aa8
e00033ba:	8008                	0x8008
e00033bc:	ab28                	fsd	fa0,80(a4)
e00033be:	92e8                	0x92e8
e00033c0:	0000                	unimp
e00033c2:	b360                	fsd	fs0,224(a4)
e00033c4:	1670                	addi	a2,sp,812
e00033c6:	c8a4                	sw	s1,80(s1)
e00033c8:	4b302e6f          	jal	t3,e000607a <hmac_smoketest+0x5aee>
e00033cc:	0000                	unimp
e00033ce:	c630                	sw	a2,72(a2)
e00033d0:	5be0                	lw	s0,116(a5)
e00033d2:	7388                	flw	fa0,32(a5)
e00033d4:	6138                	flw	fa4,64(a0)
e00033d6:	2000                	fld	fs0,0(s0)
e00033d8:	0000                	unimp
e00033da:	50a0                	lw	s0,96(s1)
e00033dc:	5134                	lw	a3,96(a0)
e00033de:	94d0                	0x94d0
e00033e0:	09d2                	slli	s3,s3,0x14
e00033e2:	c01c                	sw	a5,0(s0)
e00033e4:	0000                	unimp
e00033e6:	6c10                	flw	fa2,24(s0)
e00033e8:	0a4e                	slli	s4,s4,0x13
e00033ea:	66e0                	flw	fs0,76(a3)
e00033ec:	4260                	lw	s0,68(a2)
e00033ee:	4638                	lw	a4,72(a2)
e00033f0:	0000                	unimp
e00033f2:	2000                	fld	fs0,0(s0)
e00033f4:	54e8                	lw	a0,108(s1)
e00033f6:	ec78                	fsw	fa4,92(s0)
e00033f8:	2000                	fld	fs0,0(s0)
e00033fa:	58a0                	lw	s0,112(s1)
e00033fc:	0000                	unimp
e00033fe:	4130                	lw	a2,64(a0)
e0003400:	c2a8                	sw	a0,64(a3)
e0003402:	b759                	j	e0003388 <hmac_smoketest+0x2dfc>
e0003404:	9028                	0x9028
e0003406:	c819                	beqz	s0,e000341c <hmac_smoketest+0x2e90>
e0003408:	0000                	unimp
e000340a:	6220                	flw	fs0,64(a2)
e000340c:	0ad0                	addi	a2,sp,340
e000340e:	8dca                	mv	s11,s2
e0003410:	00b1663f 0fd00000 	0xfd0000000b1663f
e0003418:	4010                	lw	a2,0(s0)
e000341a:	9a94                	0x9a94
e000341c:	3634                	fld	fa3,104(a2)
e000341e:	60b0                	flw	fa2,64(s1)
e0003420:	0000                	unimp
e0003422:	c010                	sw	a2,0(s0)
e0003424:	f008b0af          	0xf008b0af
e0003428:	4934                	lw	a3,80(a0)
e000342a:	ffb0                	fsw	fa2,120(a5)
e000342c:	0000                	unimp
e000342e:	6010                	flw	fa2,0(s0)
e0003430:	5265                	li	tp,-7
e0003432:	e918                	fsw	fa4,16(a0)
e0003434:	2000                	fld	fs0,0(s0)
e0003436:	d7d0                	sw	a2,44(a5)
e0003438:	0000                	unimp
e000343a:	c930                	sw	a2,80(a0)
e000343c:	5568                	lw	a0,108(a0)
e000343e:	04d9                	addi	s1,s1,22
e0003440:	00a1                	addi	ra,ra,8
e0003442:	5220                	lw	s0,96(a2)
e0003444:	0000                	unimp
e0003446:	3630                	fld	fa2,104(a2)
e0003448:	0455                	addi	s0,s0,21
e000344a:	3ff0                	fld	fa2,248(a5)
e000344c:	0054                	addi	a3,sp,4
e000344e:	5930                	lw	a2,112(a0)
e0003450:	0000                	unimp
e0003452:	5030                	lw	a2,96(s0)
e0003454:	6b30                	flw	fa2,80(a4)
e0003456:	f910                	fsw	fa2,48(a0)
e0003458:	5839                	li	a6,-18
e000345a:	0058                	addi	a4,sp,4
e000345c:	0000                	unimp
e000345e:	5de0                	lw	s0,124(a1)
e0003460:	93d0                	0x93d0
e0003462:	18a8                	addi	a0,sp,120
e0003464:	0230                	addi	a2,sp,264
e0003466:	0b68                	addi	a0,sp,412
e0003468:	0000                	unimp
e000346a:	0cb0                	addi	a2,sp,600
e000346c:	6090                	flw	fa2,0(s1)
e000346e:	74d0                	flw	fa2,44(s1)
e0003470:	5039                	0x5039
e0003472:	0050                	addi	a2,sp,4
e0003474:	0000                	unimp
e0003476:	55e0                	lw	s0,108(a1)
e0003478:	1961                	addi	s2,s2,-8
e000347a:	cc70                	sw	a2,92(s0)
e000347c:	0a68                	addi	a0,sp,284
e000347e:	9630                	0x9630
e0003480:	0000                	unimp
e0003482:	0a30                	addi	a2,sp,280
e0003484:	54e0                	lw	s0,108(s1)
e0003486:	b008                	fsd	fa0,32(s0)
e0003488:	6138                	flw	fa4,64(a0)
e000348a:	2000                	fld	fs0,0(s0)
e000348c:	0000                	unimp
e000348e:	58a0                	lw	s0,112(s1)
e0003490:	4fd9                	li	t6,22
e0003492:	44d1                	li	s1,20
e0003494:	6019                	0x6019
e0003496:	c2a4                	sw	s1,64(a3)
e0003498:	0000                	unimp
e000349a:	9020                	0x9020
e000349c:	609f 075c ee30      	0xee30075c609f
e00034a2:	ba49                	j	e0002e34 <hmac_smoketest+0x28a8>
e00034a4:	0000                	unimp
e00034a6:	4050                	lw	a2,4(s0)
e00034a8:	c2a9                	beqz	a3,e00034ea <hmac_smoketest+0x2f5e>
e00034aa:	8569                	srai	a0,a0,0x1a
e00034ac:	54e8                	lw	a0,108(s1)
e00034ae:	9028                	0x9028
e00034b0:	0000                	unimp
e00034b2:	58a0                	lw	s0,112(s1)
e00034b4:	c225                	beqz	a2,e0003514 <hmac_smoketest+0x2f88>
e00034b6:	b005                	j	e0002cd6 <hmac_smoketest+0x274a>
e00034b8:	d028                	sw	a0,96(s0)
e00034ba:	c925                	beqz	a0,e000352a <hmac_smoketest+0x2f9e>
e00034bc:	0000                	unimp
e00034be:	5620                	lw	s0,104(a2)
e00034c0:	a625                	j	e00037e8 <hmac_smoketest+0x325c>
e00034c2:	44d5                	li	s1,21
e00034c4:	b425                	j	e0002eec <hmac_smoketest+0x2960>
e00034c6:	ad25                	j	e0003afe <hmac_smoketest+0x3572>
e00034c8:	0000                	unimp
e00034ca:	bb20                	fsd	fs0,112(a4)
e00034cc:	4264                	lw	s1,68(a2)
e00034ce:	7e44                	flw	fs1,60(a2)
e00034d0:	9065                	srli	s0,s0,0x39
e00034d2:	4964                	lw	s1,84(a0)
e00034d4:	0000                	unimp
e00034d6:	9f20                	0x9f20
e00034d8:	1798                	addi	a4,sp,992
e00034da:	16146a97          	auipc	s5,0x16146
e00034de:	0826                	slli	a6,a6,0x9
e00034e0:	0000                	unimp
e00034e2:	0b60                	addi	s0,sp,412
e00034e4:	381c                	fld	fa5,48(s0)
e00034e6:	71b4                	flw	fa3,96(a1)
e00034e8:	8aed                	andi	a3,a3,27
e00034ea:	a058                	fsd	fa4,128(s0)
e00034ec:	0000                	unimp
e00034ee:	6060                	flw	fs0,68(s0)
e00034f0:	6338                	flw	fa4,64(a4)
e00034f2:	dc75                	beqz	s0,e00034ee <hmac_smoketest+0x2f62>
e00034f4:	2b10                	fld	fa2,16(a4)
e00034f6:	3320                	fld	fs0,96(a4)
e00034f8:	0000                	unimp
e00034fa:	2930                	fld	fa2,80(a0)
e00034fc:	5b30                	lw	a2,112(a4)
e00034fe:	d750                	sw	a2,44(a4)
e0003500:	5b30                	lw	a2,112(a4)
e0003502:	2f60                	fld	fs0,216(a4)
e0003504:	0000                	unimp
e0003506:	2f60                	fld	fs0,216(a4)
e0003508:	0058                	addi	a4,sp,4
e000350a:	3750                	fld	fa2,168(a4)
e000350c:	5c24                	lw	s1,120(s0)
e000350e:	e039                	bnez	s0,e0003554 <hmac_smoketest+0x2fc8>
e0003510:	0000                	unimp
e0003512:	0b30                	addi	a2,sp,408
e0003514:	1c58                	addi	a4,sp,564
e0003516:	3230                	fld	fa2,96(a2)
e0003518:	0728                	addi	a0,sp,904
e000351a:	0230                	addi	a2,sp,264
e000351c:	0000                	unimp
e000351e:	5b30                	lw	a2,112(a4)
e0003520:	4c70633f ef371e31 	0xef371e314c70633f
e0003528:	0000                	unimp
e000352a:	3fd0                	fld	fa2,184(a5)
e000352c:	0080                	addi	s0,sp,64
e000352e:	0dc0                	addi	s0,sp,724
e0003530:	0314                	addi	a3,sp,384
e0003532:	583a                	lw	a6,172(sp)
e0003534:	0000                	unimp
e0003536:	0700                	addi	s0,sp,896
e0003538:	5854                	lw	a3,52(s0)
e000353a:	a564                	fsd	fs1,200(a0)
e000353c:	2b10                	fld	fa2,16(a4)
e000353e:	6050                	flw	fa2,4(s0)
e0003540:	0000                	unimp
e0003542:	5a30                	lw	a2,112(a2)
e0003544:	2000                	fld	fs0,0(s0)
e0003546:	4a90                	lw	a2,16(a3)
e0003548:	5b6c                	lw	a1,116(a4)
e000354a:	6938                	flw	fa4,80(a0)
e000354c:	0000                	unimp
e000354e:	2910                	fld	fa2,16(a0)
e0003550:	2000                	fld	fs0,0(s0)
e0003552:	d8a0                	sw	s0,112(s1)
e0003554:	0d5e                	slli	s10,s10,0x17
e0003556:	5930                	lw	a2,112(a0)
e0003558:	0000                	unimp
e000355a:	4630                	lw	a2,72(a2)
e000355c:	0c58                	addi	a4,sp,532
e000355e:	01b4                	addi	a3,sp,200
e0003560:	6b300b67          	jalr	s6,1715(zero) # 6b3 <_min_stack-0x194d>
e0003564:	0000                	unimp
e0003566:	e630                	fsw	fa2,72(a2)
e0003568:	67d4                	flw	fa3,12(a5)
e000356a:	8dc0                	0x8dc0
e000356c:	6330                	flw	fa2,64(a4)
e000356e:	0c78                	addi	a4,sp,540
e0003570:	0000                	unimp
e0003572:	07c0                	addi	s0,sp,964
e0003574:	67d1                	lui	a5,0x14
e0003576:	8b21                	andi	a4,a4,8
e0003578:	0e60                	addi	s0,sp,796
e000357a:	6fd0                	flw	fa2,28(a5)
e000357c:	0000                	unimp
e000357e:	0230                	addi	a2,sp,264
e0003580:	d910                	sw	a2,48(a0)
e0003582:	0e48                	addi	a0,sp,788
e0003584:	06c862ef          	jal	t0,e00895f0 <fromhost+0x795e0>
e0003588:	0000                	unimp
e000358a:	ee50                	fsw	fa2,28(a2)
e000358c:	0b29                	addi	s6,s6,10
e000358e:	fc75                	bnez	s0,e000358a <hmac_smoketest+0x2ffe>
e0003590:	2058                	fld	fa4,128(s0)
e0003592:	8820                	0x8820
e0003594:	0000                	unimp
e0003596:	5930                	lw	a2,112(a0)
e0003598:	0052                	0x52
e000359a:	ce40                	sw	s0,28(a2)
e000359c:	0826                	slli	a6,a6,0x9
e000359e:	8138                	0x8138
e00035a0:	0000                	unimp
e00035a2:	1450                	addi	a2,sp,548
e00035a4:	bfd8                	fsd	fa4,184(a5)
e00035a6:	b6e8                	fsd	fa0,232(a3)
e00035a8:	1f55                	addi	t5,t5,-11
e00035aa:	fe94                	fsw	fa3,56(a3)
e00035ac:	0000                	unimp
e00035ae:	7930                	flw	fa2,112(a0)
e00035b0:	1a900e87          	0x1a900e87
e00035b4:	8330017b          	lp.starti	x2,e000261a <hmac_smoketest+0x208e>
e00035b8:	0000                	unimp
e00035ba:	7130                	flw	fa2,96(a0)
e00035bc:	0081                	addi	ra,ra,0
e00035be:	4e40                	lw	s0,28(a2)
e00035c0:	2000                	fld	fs0,0(s0)
e00035c2:	3630                	fld	fa2,104(a2)
e00035c4:	0000                	unimp
e00035c6:	7130                	flw	fa2,96(a0)
e00035c8:	7970                	flw	fa2,116(a0)
e00035ca:	4910                	lw	a2,16(a0)
e00035cc:	8138                	0x8138
e00035ce:	0271                	addi	tp,tp,28
e00035d0:	0000                	unimp
e00035d2:	73e0                	flw	fs0,100(a5)
e00035d4:	88a97c2f          	0x88a97c2f
e00035d8:	b678793f 00000000 	0xb678793f
e00035e0:	95600173          	0x95600173
e00035e4:	19c4                	addi	s1,sp,244
e00035e6:	593c                	lw	a5,112(a0)
e00035e8:	0000                	unimp
e00035ea:	39c0                	fld	fs0,176(a1)
e00035ec:	7130                	flw	fa2,96(a0)
e00035ee:	713cab27          	fsw	fs3,1814(s9)
e00035f2:	0555                	addi	a0,a0,21
e00035f4:	0000                	unimp
e00035f6:	b1d0                	fsd	fa2,160(a1)
e00035f8:	1055                	c.addi	zero,-11
e00035fa:	c910                	sw	a2,16(a0)
e00035fc:	613c2187          	flw	ft3,1555(s8) # ffffe613 <pulp__FC+0xffffe614>
e0003600:	0000                	unimp
e0003602:	ff70                	fsw	fa2,124(a4)
e0003604:	0230                	addi	a2,sp,264
e0003606:	e008                	fsw	fa0,0(s0)
e0003608:	6138                	flw	fa4,64(a0)
e000360a:	4066                	0x4066
e000360c:	0000                	unimp
e000360e:	a7d0                	fsd	fa2,136(a5)
e0003610:	a7d0                	fsd	fa2,136(a5)
e0003612:	81b8                	0x81b8
e0003614:	6130                	flw	fa2,64(a0)
e0003616:	1555                	addi	a0,a0,-11
e0003618:	0000                	unimp
e000361a:	0c60                	addi	s0,sp,540
e000361c:	0c68                	addi	a0,sp,540
e000361e:	56e0                	lw	s0,108(a3)
e0003620:	4066                	0x4066
e0003622:	0a30                	addi	a2,sp,280
e0003624:	0000                	unimp
e0003626:	6130                	flw	fa2,64(a0)
e0003628:	4056                	0x4056
e000362a:	f8a0                	fsw	fs0,112(s1)
e000362c:	97d8                	0x97d8
e000362e:	5138                	lw	a4,96(a0)
e0003630:	0000                	unimp
e0003632:	1690                	addi	a2,sp,864
e0003634:	208a                	fld	ft1,128(sp)
e0003636:	ea9c                	fsw	fa5,16(a3)
e0003638:	0a68                	addi	a0,sp,284
e000363a:	0110                	addi	a2,sp,128
e000363c:	0000                	unimp
e000363e:	1230                	addi	a2,sp,296
e0003640:	5818                	lw	a4,48(s0)
e0003642:	14dc                	addi	a5,sp,612
e0003644:	015c                	addi	a5,sp,132
e0003646:	0820                	addi	s0,sp,24
e0003648:	0000                	unimp
e000364a:	5130                	lw	a2,96(a0)
e000364c:	60da                	flw	ft1,148(sp)
e000364e:	7004                	flw	fs1,32(s0)
e0003650:	1884                	addi	s1,sp,112
e0003652:	011c                	addi	a5,sp,128
e0003654:	0000                	unimp
e0003656:	6010                	flw	fa2,0(s0)
e0003658:	e061                	bnez	s0,e0003718 <hmac_smoketest+0x318c>
e000365a:	456c                	lw	a1,76(a0)
e000365c:	0828                	addi	a0,sp,24
e000365e:	1018                	addi	a4,sp,32
e0003660:	0000                	unimp
e0003662:	5320                	lw	s0,96(a4)
e0003664:	64ec                	flw	fa1,76(s1)
e0003666:	200c                	fld	fa1,0(s0)
e0003668:	a26c                	fsd	fa1,192(a2)
e000366a:	84ac                	0x84ac
e000366c:	0000                	unimp
e000366e:	c220                	sw	s0,64(a2)
e0003670:	1948                	addi	a0,sp,180
e0003672:	3b24                	fld	fs1,112(a4)
e0003674:	d514                	sw	a3,40(a0)
e0003676:	92ec                	0x92ec
e0003678:	0000                	unimp
e000367a:	48d0                	lw	a2,20(s1)
e000367c:	a410                	fsd	fa2,8(s0)
e000367e:	256c                	fld	fa1,200(a0)
e0003680:	603c                	flw	fa5,64(s0)
e0003682:	0492                	slli	s1,s1,0x4
e0003684:	0000                	unimp
e0003686:	ad90                	fsd	fa2,24(a1)
e0003688:	5130                	lw	a2,96(a0)
e000368a:	3910                	fld	fa2,48(a0)
e000368c:	5378                	lw	a4,100(a4)
e000368e:	016e                	slli	sp,sp,0x1b
e0003690:	0000                	unimp
e0003692:	42a0                	lw	s0,64(a3)
e0003694:	6b2016e3          	bne	zero,s2,e0004540 <hmac_smoketest+0x3fb4>
e0003698:	5b78d353          	0x5b78d353
e000369c:	0000                	unimp
e000369e:	6050                	flw	fa2,4(s0)
e00036a0:	7338                	flw	fa4,96(a4)
e00036a2:	7386                	flw	ft7,96(sp)
e00036a4:	0058                	addi	a4,sp,4
e00036a6:	db16                	sw	t0,180(sp)
e00036a8:	0000                	unimp
e00036aa:	5930                	lw	a2,112(a0)
e00036ac:	ff50                	fsw	fa2,60(a4)
e00036ae:	54105dcf          	fnmadd.ah	s11,zero,ra,a0
e00036b2:	9936                	add	s2,s2,a3
e00036b4:	0000                	unimp
e00036b6:	0b50                	addi	a2,sp,404
e00036b8:	513c                	lw	a5,96(a0)
e00036ba:	4a99                	li	s5,6
e00036bc:	54e4                	lw	s1,108(s1)
e00036be:	b018                	fsd	fa4,32(s0)
e00036c0:	0000                	unimp
e00036c2:	5810                	lw	a2,48(s0)
e00036c4:	6810                	flw	fa2,16(s0)
e00036c6:	9b24                	0x9b24
e00036c8:	5930                	lw	a2,112(a0)
e00036ca:	0c6d                	addi	s8,s8,27
e00036cc:	0000                	unimp
e00036ce:	1460                	addi	s0,sp,556
e00036d0:	20001357          	pv.min.b	t1,zero,zero
e00036d4:	0794                	addi	a3,sp,960
e00036d6:	6332                	flw	ft6,12(sp)
e00036d8:	0000                	unimp
e00036da:	7010                	flw	fa2,32(s0)
e00036dc:	008e                	slli	ra,ra,0x3
e00036de:	0914                	addi	a3,sp,144
e00036e0:	d4d8                	sw	a4,44(s1)
e00036e2:	9298                	0x9298
e00036e4:	0000                	unimp
e00036e6:	d310                	sw	a2,32(a4)
e00036e8:	58d4                	lw	a3,52(s1)
e00036ea:	e6e4                	fsw	fs1,76(a3)
e00036ec:	0052                	0x52
e00036ee:	0080                	addi	s0,sp,64
e00036f0:	0000                	unimp
e00036f2:	8230                	0x8230
e00036f4:	2052                	fld	ft0,272(sp)
e00036f6:	48a0                	lw	s0,80(s1)
e00036f8:	008d                	addi	ra,ra,3
e00036fa:	4234                	lw	a3,64(a2)
e00036fc:	0000                	unimp
e00036fe:	10c0                	addi	s0,sp,100
e0003700:	0080                	addi	s0,sp,64
e0003702:	04d4                	addi	a3,sp,580
e0003704:	8234                	0x8234
e0003706:	2052                	fld	ft0,272(sp)
e0003708:	0000                	unimp
e000370a:	0080                	addi	s0,sp,64
e000370c:	5fd4                	lw	a3,60(a5)
e000370e:	cff5                	beqz	a5,e000380a <hmac_smoketest+0x327e>
e0003710:	0052                	0x52
e0003712:	0080                	addi	s0,sp,64
e0003714:	0000                	unimp
e0003716:	2230                	fld	fa2,64(a2)
e0003718:	5130                	lw	a2,96(a0)
e000371a:	2751                	jal	e0003e9e <hmac_smoketest+0x3912>
e000371c:	683c                	flw	fa5,80(s0)
e000371e:	0892                	slli	a7,a7,0x4
e0003720:	0000                	unimp
e0003722:	10c0                	addi	s0,sp,100
e0003724:	4300                	lw	s0,0(a4)
e0003726:	c8a0                	sw	s0,80(s1)
e0003728:	6050                	flw	fa2,4(s0)
e000372a:	5934                	lw	a3,112(a0)
e000372c:	0000                	unimp
e000372e:	1060                	addi	s0,sp,44
e0003730:	6034                	flw	fa3,64(s0)
e0003732:	3c72                	fld	fs8,312(sp)
e0003734:	0c68                	addi	a0,sp,540
e0003736:	58d0                	lw	a2,52(s1)
e0003738:	0000                	unimp
e000373a:	3630                	fld	fa2,104(a2)
e000373c:	513e                	lw	sp,236(sp)
e000373e:	1386                	slli	t2,t2,0x21
e0003740:	d4d0                	sw	a2,44(s1)
e0003742:	2198                	fld	fa4,0(a1)
e0003744:	0000                	unimp
e0003746:	0c90                	addi	a2,sp,592
e0003748:	008c                	addi	a1,sp,64
e000374a:	5564                	lw	s1,108(a0)
e000374c:	00c0                	addi	s0,sp,68
e000374e:	9884                	0x9884
e0003750:	0000                	unimp
e0003752:	8050                	0x8050
e0003754:	5260                	lw	s0,100(a2)
e0003756:	3dc8                	fld	fa0,184(a1)
e0003758:	2234                	fld	fa3,64(a2)
e000375a:	0052                	0x52
e000375c:	0000                	unimp
e000375e:	4810                	lw	a2,16(s0)
e0003760:	4624                	lw	s1,72(a2)
e0003762:	2a94                	fld	fa3,16(a3)
e0003764:	9424                	0x9424
e0003766:	4d24                	lw	s1,88(a0)
e0003768:	0000                	unimp
e000376a:	9b20                	0x9b20
e000376c:	d198                	sw	a4,32(a1)
e000376e:	f4dc                	fsw	fa5,44(s1)
e0003770:	1054                	addi	a3,sp,36
e0003772:	0826                	slli	a6,a6,0x9
e0003774:	0000                	unimp
e0003776:	0f20                	addi	s0,sp,920
e0003778:	ef58                	fsw	fa4,28(a4)
e000377a:	a544838f          	0xa544838f
e000377e:	a854                	fsd	fa3,144(s0)
e0003780:	0000                	unimp
e0003782:	1100                	addi	s0,sp,160
e0003784:	e4ce                	fsw	fs3,72(sp)
e0003786:	bc7c                	fsd	fa5,248(s0)
e0003788:	a854                	fsd	fa3,144(s0)
e000378a:	2998                	fld	fa4,16(a1)
e000378c:	0000                	unimp
e000378e:	a540                	fsd	fs0,136(a0)
e0003790:	d758                	sw	a4,44(a4)
e0003792:	ab2d                	j	e0003ccc <hmac_smoketest+0x3740>
e0003794:	a484                	fsd	fs1,8(s1)
e0003796:	9214                	0x9214
e0003798:	0000                	unimp
e000379a:	1100                	addi	s0,sp,160
e000379c:	0824                	addi	s1,sp,24
e000379e:	bc78                	fsd	fa4,248(s0)
e00037a0:	0824                	addi	s1,sp,24
e00037a2:	50d8                	lw	a4,36(s1)
e00037a4:	0000                	unimp
e00037a6:	5010                	lw	a2,32(s0)
e00037a8:	24ac                	fld	fa1,72(s1)
e00037aa:	c56c                	sw	a1,76(a0)
e00037ac:	6221                	lui	tp,0x8
e00037ae:	426c                	lw	a1,68(a2)
e00037b0:	0000                	unimp
e00037b2:	1410                	addi	a2,sp,544
e00037b4:	e814                	fsw	fa3,16(s0)
e00037b6:	b754                	fsd	fa3,168(a4)
e00037b8:	8014                	0x8014
e00037ba:	e014                	fsw	fa3,0(s0)
e00037bc:	0000                	unimp
e00037be:	8810                	0x8810
e00037c0:	3134                	fld	fa3,96(a0)
e00037c2:	2b29                	jal	e0003cdc <hmac_smoketest+0x3750>
e00037c4:	3f00                	fld	fs0,56(a4)
e00037c6:	2fd0                	fld	fa2,152(a5)
e00037c8:	0000                	unimp
e00037ca:	7930                	flw	fa2,112(a0)
e00037cc:	e078                	fsw	fa4,68(s0)
e00037ce:	2c7f                	0x2c7f
e00037d0:	3fd0                	fld	fa2,184(a5)
e00037d2:	4935                	li	s2,13
e00037d4:	0000                	unimp
e00037d6:	0150                	addi	a2,sp,132
e00037d8:	095d                	addi	s2,s2,23
e00037da:	b230                	fsd	fa2,96(a2)
e00037dc:	004c                	addi	a1,sp,4
e00037de:	f330                	fsw	fa2,96(a4)
e00037e0:	0000                	unimp
e00037e2:	5630                	lw	a2,104(a2)
e00037e4:	4330                	lw	a2,64(a4)
e00037e6:	66e8                	flw	fa0,76(a3)
e00037e8:	4b3a                	lw	s6,140(sp)
e00037ea:	0f55                	addi	t5,t5,21
e00037ec:	0000                	unimp
e00037ee:	8090                	0x8090
e00037f0:	f330                	fsw	fa2,96(a4)
e00037f2:	875e                	mv	a4,s7
e00037f4:	4334                	lw	a3,64(a4)
e00037f6:	0831                	addi	a6,a6,12
e00037f8:	0000                	unimp
e00037fa:	0f20                	addi	s0,sp,920
e00037fc:	4130                	lw	a2,64(a0)
e00037fe:	96e9                	srai	a3,a3,0x3a
e0003800:	4930                	lw	a2,80(a0)
e0003802:	1fe5                	addi	t6,t6,-7
e0003804:	0000                	unimp
e0003806:	0840                	addi	s0,sp,20
e0003808:	4930                	lw	a2,80(a0)
e000380a:	e4d1                	bnez	s1,e0003896 <hmac_smoketest+0x330a>
e000380c:	eb30                	fsw	fa2,80(a4)
e000380e:	0946                	slli	s2,s2,0x11
e0003810:	0000                	unimp
e0003812:	01e0                	addi	s0,sp,204
e0003814:	f330                	fsw	fa2,96(a4)
e0003816:	c566                	sw	s9,136(sp)
e0003818:	4130                	lw	a2,64(a0)
e000381a:	000001f7          	0x1f7
e000381e:	01e0                	addi	s0,sp,204
e0003820:	e330                	fsw	fa2,64(a4)
e0003822:	5630d91b          	0x5630d91b
e0003826:	0de8                	addi	a0,sp,732
e0003828:	0000                	unimp
e000382a:	0940                	addi	s0,sp,148
e000382c:	e6e00cf3          	0xe6e00cf3
e0003830:	0190                	addi	a2,sp,192
e0003832:	e33a                	fsw	fa4,132(sp)
e0003834:	0000                	unimp
e0003836:	0de0                	addi	s0,sp,732
e0003838:	4814                	lw	a3,16(s0)
e000383a:	4e44                	lw	s1,28(a2)
e000383c:	01e4                	addi	s1,sp,204
e000383e:	9010                	0x9010
e0003840:	0000                	unimp
e0003842:	f930                	fsw	fa2,112(a0)
e0003844:	4b28                	lw	a0,80(a4)
e0003846:	2758                	fld	fa4,136(a4)
e0003848:	00e1                	addi	ra,ra,24
e000384a:	9360                	0x9360
e000384c:	0000                	unimp
e000384e:	4630                	lw	a2,72(a2)
e0003850:	0181                	addi	gp,gp,0
e0003852:	2dc0                	fld	fs0,152(a1)
e0003854:	1f8d                	addi	t6,t6,-29
e0003856:	4130                	lw	a2,64(a0)
e0003858:	0000                	unimp
e000385a:	e130                	fsw	fa2,64(a0)
e000385c:	e330                	fsw	fa2,64(a4)
e000385e:	8910                	0x8910
e0003860:	1c46                	slli	s8,s8,0x31
e0003862:	8860                	0x8860
e0003864:	0000                	unimp
e0003866:	8330                	0x8330
e0003868:	4330                	lw	a2,64(a4)
e000386a:	2a98                	fld	fa4,16(a3)
e000386c:	4b34                	lw	a3,80(a4)
e000386e:	000009f3          	0x9f3
e0003872:	09f0                	addi	a2,sp,220
e0003874:	7fd4                	flw	fa3,60(a5)
e0003876:	0c71                	addi	s8,s8,28
e0003878:	eb34                	fsw	fa3,80(a4)
e000387a:	0940                	addi	s0,sp,148
e000387c:	0000                	unimp
e000387e:	12e0                	addi	s0,sp,364
e0003880:	8779                	srai	a4,a4,0x1e
e0003882:	1f8e556f          	jal	a0,e00e8a7a <fromhost+0xd8a6a>
e0003886:	4e30                	lw	a2,88(a2)
e0003888:	0000                	unimp
e000388a:	8b30                	0x8b30
e000388c:	2230                	fld	fa2,64(a2)
e000388e:	88a2                	mv	a7,s0
e0003890:	023c                	addi	a5,sp,264
e0003892:	1c72                	slli	s8,s8,0x3c
e0003894:	0000                	unimp
e0003896:	7090                	flw	fa2,32(s1)
e0003898:	9128                	0x9128
e000389a:	b234                	fsd	fa3,96(a2)
e000389c:	5460                	lw	s0,108(s0)
e000389e:	5c28                	lw	a0,120(s0)
e00038a0:	0000                	unimp
e00038a2:	1d70                	addi	a2,sp,700
e00038a4:	0820                	addi	s0,sp,24
e00038a6:	26e8                	fld	fa0,200(a3)
e00038a8:	4324                	lw	s1,64(a4)
e00038aa:	1414                	addi	a3,sp,544
e00038ac:	0000                	unimp
e00038ae:	4a20                	lw	s0,80(a2)
e00038b0:	1a90015b          	p.mac	sp,zero,s1,a3
e00038b4:	71300153          	0x71300153
e00038b8:	0000                	unimp
e00038ba:	6930                	flw	fa2,80(a0)
e00038bc:	6b24                	flw	fs1,80(a4)
e00038be:	d758                	sw	a4,44(a4)
e00038c0:	ab58                	fsd	fa4,144(a4)
e00038c2:	711e                	flw	ft2,228(sp)
e00038c4:	0000                	unimp
e00038c6:	ed90                	fsw	fa2,24(a1)
e00038c8:	0a5c                	addi	a5,sp,276
e00038ca:	2230                	fld	fa2,64(a2)
e00038cc:	0e66                	slli	t3,t3,0x19
e00038ce:	6b30                	flw	fa2,80(a4)
e00038d0:	0000                	unimp
e00038d2:	c630                	sw	a2,72(a2)
e00038d4:	6b28                	flw	fa0,80(a4)
e00038d6:	eff8                	fsw	fa4,92(a5)
e00038d8:	8320036f          	jal	t1,dff0390a <tohost+0xdfee3902>
e00038dc:	0000                	unimp
e00038de:	7930                	flw	fa2,112(a0)
e00038e0:	a8d4                	fsd	fa3,144(s1)
e00038e2:	94d8                	0x94d8
e00038e4:	6b3e                	flw	fs6,204(sp)
e00038e6:	0a00                	addi	s0,sp,272
e00038e8:	0000                	unimp
e00038ea:	b910                	fsd	fa2,48(a0)
e00038ec:	8339                	srli	a4,a4,0xe
e00038ee:	d560                	sw	s0,108(a0)
e00038f0:	0d60                	addi	s0,sp,668
e00038f2:	b714                	fsd	fa3,40(a4)
e00038f4:	0000                	unimp
e00038f6:	7330                	flw	fa2,96(a4)
e00038f8:	7334                	flw	fa3,96(a4)
e00038fa:	0918                	addi	a4,sp,144
e00038fc:	6b90                	flw	fa2,16(a5)
e00038fe:	781c                	flw	fa5,48(s0)
e0003900:	0000                	unimp
e0003902:	0d70                	addi	a2,sp,668
e0003904:	7330                	flw	fa2,96(a4)
e0003906:	64d0                	flw	fa2,12(s1)
e0003908:	8830                	0x8830
e000390a:	0070                	addi	a2,sp,12
e000390c:	0000                	unimp
e000390e:	0f50                	addi	a2,sp,916
e0003910:	1170                	addi	a2,sp,172
e0003912:	2230                	fld	fa2,64(a2)
e0003914:	7850                	flw	fa2,52(s0)
e0003916:	0230                	addi	a2,sp,264
e0003918:	0000                	unimp
e000391a:	0f50                	addi	a2,sp,916
e000391c:	c6e0106f          	j	dff04d8a <tohost+0xdfee4d82>
e0003920:	ef69                	bnez	a4,e00039fa <hmac_smoketest+0x346e>
e0003922:	0000b63f 7b347e30 	0x7b347e300000b63f
e000392a:	e380                	fsw	fs0,0(a5)
e000392c:	0d58                	addi	a4,sp,660
e000392e:	3180                	fld	fs0,32(a1)
e0003930:	0000                	unimp
e0003932:	7330                	flw	fa2,96(a4)
e0003934:	9e3c                	0x9e3c
e0003936:	1ffe                	slli	t6,t6,0x3f
e0003938:	6910                	flw	fa2,16(a0)
e000393a:	3980                	fld	fs0,48(a1)
e000393c:	0000                	unimp
e000393e:	0d50                	addi	a2,sp,660
e0003940:	e150                	fsw	fa2,4(a0)
e0003942:	3008                	fld	fa0,32(s0)
e0003944:	0c6fe63f f0600000 	0xf06000000c6fe63f
e000394c:	6839                	lui	a6,0xe
e000394e:	58a8                	lw	a0,112(s1)
e0003950:	0d50                	addi	a2,sp,660
e0003952:	5b60                	lw	s0,116(a4)
e0003954:	0000                	unimp
e0003956:	7330                	flw	fa2,96(a4)
e0003958:	67d0                	flw	fa2,12(a5)
e000395a:	1381                	addi	t2,t2,-32
e000395c:	0230                	addi	a2,sp,264
e000395e:	0d70                	addi	a2,sp,668
e0003960:	0000                	unimp
e0003962:	0050                	addi	a2,sp,4
e0003964:	8c78082f          	0x8c78082f
e0003968:	5850                	lw	a2,52(s0)
e000396a:	a6d0                	fsd	fa2,136(a3)
e000396c:	0000                	unimp
e000396e:	7050                	flw	fa2,36(s0)
e0003970:	ff1f a75b 7e34      	0x7e34a75bff1f
e0003976:	d06e                	sw	s11,32(sp)
e0003978:	0000                	unimp
e000397a:	6810                	flw	fa2,16(s0)
e000397c:	0d66                	slli	s10,s10,0x19
e000397e:	fe40                	fsw	fs0,60(a2)
e0003980:	7324                	flw	fs1,96(a4)
e0003982:	6638                	flw	fa4,72(a2)
e0003984:	0000                	unimp
e0003986:	6910                	flw	fa2,16(a0)
e0003988:	2230036f          	jal	t1,e00043aa <hmac_smoketest+0x3e1e>
e000398c:	0a00                	addi	s0,sp,272
e000398e:	7134                	flw	fa3,96(a0)
e0003990:	0000                	unimp
e0003992:	6b30                	flw	fa2,80(a4)
e0003994:	9c7ffc6f          	jal	s8,e000335a <hmac_smoketest+0x2dce>
e0003998:	0e60                	addi	s0,sp,796
e000399a:	8134                	0x8134
e000399c:	0000                	unimp
e000399e:	6b30                	flw	fa2,80(a4)
e00039a0:	0238                	addi	a4,sp,264
e00039a2:	f568                	fsw	fa0,108(a0)
e00039a4:	7aac                	flw	fa1,112(a3)
e00039a6:	6ba8                	flw	fa0,80(a5)
e00039a8:	0000                	unimp
e00039aa:	b010                	fsd	fa2,32(s0)
e00039ac:	ee50                	fsw	fa2,28(a2)
e00039ae:	6fd078af          	0x6fd078af
e00039b2:	7851                	lui	a6,0xffff4
e00039b4:	0000                	unimp
e00039b6:	0b70                	addi	a2,sp,412
e00039b8:	0e80                	addi	s0,sp,848
e00039ba:	56e0                	lw	s0,108(a3)
e00039bc:	2080                	fld	fs0,0(s1)
e00039be:	8b30                	0x8b30
e00039c0:	0000                	unimp
e00039c2:	2630                	fld	fa2,72(a2)
e00039c4:	1010                	addi	a2,sp,32
e00039c6:	71b0                	flw	fa2,96(a1)
e00039c8:	ff5f 7b70 0000      	0x7b70ff5f
e00039ce:	8130                	0x8130
e00039d0:	2f80                	fld	fs0,24(a5)
e00039d2:	84d0                	0x84d0
e00039d4:	0178                	addi	a4,sp,140
e00039d6:	7b31                	lui	s6,0xfffec
e00039d8:	0000                	unimp
e00039da:	7930                	flw	fa2,112(a0)
e00039dc:	29c0                	fld	fs0,144(a1)
e00039de:	b38c                	fsd	fa1,32(a5)
e00039e0:	0e50                	addi	a2,sp,788
e00039e2:	7110                	flw	fa2,32(a0)
e00039e4:	0000                	unimp
e00039e6:	6b30                	flw	fa2,80(a4)
e00039e8:	9dc00c77          	0x9dc00c77
e00039ec:	f176                	fsw	ft9,160(sp)
e00039ee:	0000a63f 0230ce30 	0x230ce300000a63f
e00039f6:	36e8                	fld	fa0,232(a3)
e00039f8:	6b38                	flw	fa4,80(a4)
e00039fa:	0e50                	addi	a2,sp,788
e00039fc:	0000                	unimp
e00039fe:	e190                	fsw	fa2,0(a1)
e0003a00:	e650                	fsw	fa2,12(a2)
e0003a02:	775f 67d0 6851      	0x685167d0775f
e0003a08:	0000                	unimp
e0003a0a:	0b60                	addi	s0,sp,412
e0003a0c:	6638                	flw	fa4,72(a2)
e0003a0e:	9dc6                	add	s11,s11,a7
e0003a10:	6918                	flw	fa4,16(a0)
e0003a12:	eb24                	fsw	fs1,80(a4)
e0003a14:	0000                	unimp
e0003a16:	0820                	addi	s0,sp,24
e0003a18:	e934                	fsw	fa3,80(a0)
e0003a1a:	6b30d23f 00000a00 	0xa006b30d23f
e0003a22:	0d60                	addi	s0,sp,668
e0003a24:	b630                	fsd	fa2,104(a2)
e0003a26:	2918                	fld	fa4,16(a0)
e0003a28:	e130                	fsw	fa2,64(a0)
e0003a2a:	ff5f 0000 0360      	0x3600000ff5f
e0003a30:	6838                	flw	fa4,80(s0)
e0003a32:	71bc                	flw	fa5,96(a1)
e0003a34:	5aa0                	lw	s0,112(a3)
e0003a36:	7f68                	flw	fa0,124(a4)
e0003a38:	0000                	unimp
e0003a3a:	00e0                	addi	s0,sp,76
e0003a3c:	7fd0                	flw	fa2,60(a5)
e0003a3e:	04d1                	addi	s1,s1,20
e0003a40:	5630                	lw	a2,104(a2)
e0003a42:	9c68                	0x9c68
e0003a44:	0000                	unimp
e0003a46:	0050                	addi	a2,sp,4
e0003a48:	1d60                	addi	s0,sp,700
e0003a4a:	d8a4                	sw	s1,112(s1)
e0003a4c:	bf50                	fsd	fa2,184(a4)
e0003a4e:	00005b3f 1d585850 	0x1d58585000005b3f
e0003a56:	2ff0                	fld	fa2,216(a5)
e0003a58:	9a99                	andi	a3,a3,-26
e0003a5a:	833c                	0x833c
e0003a5c:	0000                	unimp
e0003a5e:	9f10                	0x9f10
e0003a60:	0158                	addi	a4,sp,132
e0003a62:	d561                	beqz	a0,e0003a2a <hmac_smoketest+0x349e>
e0003a64:	1010                	addi	a2,sp,32
e0003a66:	5930                	lw	a2,112(a0)
e0003a68:	0000                	unimp
e0003a6a:	5b70                	lw	a2,116(a4)
e0003a6c:	ff00                	fsw	fs0,56(a4)
e0003a6e:	1910                	addi	a2,sp,176
e0003a70:	2be0                	fld	fs0,208(a5)
e0003a72:	8930                	0x8930
e0003a74:	0000                	unimp
e0003a76:	2b30                	fld	fa2,80(a4)
e0003a78:	337f                	0x337f
e0003a7a:	6750                	flw	fa2,12(a4)
e0003a7c:	3936                	fld	fs2,360(sp)
e0003a7e:	0058                	addi	a4,sp,4
e0003a80:	0000                	unimp
e0003a82:	5c10                	lw	a2,56(s0)
e0003a84:	1940                	addi	s0,sp,180
e0003a86:	a4d4                	fsd	fa3,136(s1)
e0003a88:	5b30                	lw	a2,112(a4)
e0003a8a:	1d50                	addi	a2,sp,692
e0003a8c:	0000                	unimp
e0003a8e:	0ff0                	addi	a2,sp,988
e0003a90:	ff7c                	fsw	fa5,124(a4)
e0003a92:	056c038f          	0x56c038f
e0003a96:	6930                	flw	fa2,80(a0)
e0003a98:	0000                	unimp
e0003a9a:	7b30                	flw	fa2,112(a4)
e0003a9c:	5170                	lw	a2,100(a0)
e0003a9e:	0910                	addi	a2,sp,144
e0003aa0:	4630ff6f          	jal	t5,e0013702 <fromhost+0x36f2>
e0003aa4:	0000                	unimp
e0003aa6:	7130                	flw	fa2,96(a0)
e0003aa8:	2770                	fld	fa2,200(a4)
e0003aaa:	7750                	flw	fa2,44(a4)
e0003aac:	b630076f          	jal	a4,dff0460e <tohost+0xdfee4606>
e0003ab0:	0000                	unimp
e0003ab2:	7330                	flw	fa2,96(a4)
e0003ab4:	2668                	fld	fa0,200(a2)
e0003ab6:	2e40                	fld	fs0,152(a2)
e0003ab8:	9630066f          	jal	a2,dff0441a <tohost+0xdfee4412>
e0003abc:	0000                	unimp
e0003abe:	6b30                	flw	fa2,80(a4)
e0003ac0:	e91c                	fsw	fa5,16(a0)
e0003ac2:	58a0                	lw	s0,112(s1)
e0003ac4:	187d                	addi	a6,a6,-1
e0003ac6:	69d0                	flw	fa2,20(a1)
e0003ac8:	0000                	unimp
e0003aca:	6930                	flw	fa2,80(a0)
e0003acc:	5e400cef          	jal	s9,e00040b0 <hmac_smoketest+0x3b24>
e0003ad0:	d0ee                	sw	s11,96(sp)
e0003ad2:	0000d63f 1d509e30 	0x1d509e300000d63f
e0003ada:	18a0                	addi	s0,sp,120
e0003adc:	1d60                	addi	s0,sp,700
e0003ade:	5b34                	lw	a3,112(a4)
e0003ae0:	0000                	unimp
e0003ae2:	6330                	flw	fa2,64(a4)
e0003ae4:	1c50                	addi	a2,sp,564
e0003ae6:	7e40                	flw	fs0,60(a2)
e0003ae8:	005c                	addi	a5,sp,4
e0003aea:	c630                	sw	a2,72(a2)
e0003aec:	0000                	unimp
e0003aee:	5030                	lw	a2,96(s0)
e0003af0:	581f 2754 5851      	0x58512754581f
e0003af6:	a750                	fsd	fa2,136(a4)
e0003af8:	0000                	unimp
e0003afa:	67d0                	flw	fa2,12(a5)
e0003afc:	589a                	lw	a7,164(sp)
e0003afe:	24d0                	fld	fa2,136(s1)
e0003b00:	585a                	lw	a6,180(sp)
e0003b02:	0210                	addi	a2,sp,256
e0003b04:	0000                	unimp
e0003b06:	0310                	addi	a2,sp,384
e0003b08:	0828                	addi	a0,sp,24
e0003b0a:	1c78                	addi	a4,sp,572
e0003b0c:	58da                	lw	a7,180(sp)
e0003b0e:	52e0                	lw	s0,100(a3)
e0003b10:	0000                	unimp
e0003b12:	0110                	addi	a2,sp,128
e0003b14:	0d66                	slli	s10,s10,0x19
e0003b16:	9750                	0x9750
e0003b18:	3324                	fld	fs1,96(a4)
e0003b1a:	6638                	flw	fa4,72(a2)
e0003b1c:	0000                	unimp
e0003b1e:	6910                	flw	fa2,16(a0)
e0003b20:	db20036f          	jal	t1,dff040d2 <tohost+0xdfee40ca>
e0003b24:	0a00                	addi	s0,sp,272
e0003b26:	3134                	fld	fa3,96(a0)
e0003b28:	0000                	unimp
e0003b2a:	6b30                	flw	fa2,80(a4)
e0003b2c:	7b39                	lui	s6,0xfffee
e0003b2e:	4dc8                	lw	a0,28(a1)
e0003b30:	0660                	addi	s0,sp,780
e0003b32:	af14                	fsd	fa3,24(a4)
e0003b34:	0000                	unimp
e0003b36:	6b30                	flw	fa2,80(a4)
e0003b38:	0f66                	slli	t5,t5,0x19
e0003b3a:	4e40                	lw	s0,28(a2)
e0003b3c:	6b20                	flw	fs0,80(a4)
e0003b3e:	3638                	fld	fa4,104(a2)
e0003b40:	0000                	unimp
e0003b42:	0660                	addi	s0,sp,780
e0003b44:	d630                	sw	a2,104(a2)
e0003b46:	3938b8af          	0x3938b8af
e0003b4a:	ff5f 0000 6be0      	0x6be00000ff5f
e0003b50:	5830                	lw	a2,112(s0)
e0003b52:	a004                	fsd	fs1,0(s0)
e0003b54:	7330                	flw	fa2,96(a4)
e0003b56:	0c50                	addi	a2,sp,532
e0003b58:	0000                	unimp
e0003b5a:	0c70                	addi	a2,sp,540
e0003b5c:	b6e863af          	0xb6e863af
e0003b60:	ff60713f ff700000 	0xff700000ff60713f
e0003b68:	0829                	addi	a6,a6,10
e0003b6a:	1e48                	addi	a0,sp,820
e0003b6c:	e759                	bnez	a4,e0003bfa <hmac_smoketest+0x366e>
e0003b6e:	000053af          	0x53af
e0003b72:	7e30                	flw	fa2,120(a2)
e0003b74:	0158                	addi	a4,sp,132
e0003b76:	d561                	beqz	a0,e0003b3e <hmac_smoketest+0x35b2>
e0003b78:	1010                	addi	a2,sp,32
e0003b7a:	5930                	lw	a2,112(a0)
e0003b7c:	0000                	unimp
e0003b7e:	5b70                	lw	a2,116(a4)
e0003b80:	0ff0                	addi	a2,sp,988
e0003b82:	41b0                	lw	a2,64(a1)
e0003b84:	2b38                	fld	fa4,80(a4)
e0003b86:	8370                	0x8370
e0003b88:	0000                	unimp
e0003b8a:	2b30                	fld	fa2,80(a4)
e0003b8c:	0b20893f 00587936 	0x5879360b20893f
e0003b94:	0000                	unimp
e0003b96:	5c10                	lw	a2,56(s0)
e0003b98:	6330                	flw	fa2,64(a4)
e0003b9a:	1ff0                	addi	a2,sp,1020
e0003b9c:	5630                	lw	a2,104(a2)
e0003b9e:	00004d37          	lui	s10,0x4
e0003ba2:	ff00                	fsw	fs0,56(a4)
e0003ba4:	223c733f fc625830 	0xfc625830223c733f
e0003bac:	0000                	unimp
e0003bae:	0d50                	addi	a2,sp,660
e0003bb0:	d950                	sw	a2,52(a0)
e0003bb2:	61bc                	flw	fa5,64(a1)
e0003bb4:	5930                	lw	a2,112(a0)
e0003bb6:	1875                	addi	a6,a6,-3
e0003bb8:	0000                	unimp
e0003bba:	0550                	addi	a2,sp,644
e0003bbc:	c1b01077          	0xc1b01077
e0003bc0:	ff74                	fsw	fa3,124(a4)
e0003bc2:	00005b3f 0f777130 	0xf77713000005b3f
e0003bca:	f1b0                	fsw	fa2,96(a1)
e0003bcc:	3058                	fld	fa4,160(s0)
e0003bce:	5b30                	lw	a2,112(a4)
e0003bd0:	0000                	unimp
e0003bd2:	c630                	sw	a2,72(a2)
e0003bd4:	f8a0ff77          	0xf8a0ff77
e0003bd8:	2f58                	fld	fa4,152(a4)
e0003bda:	5930                	lw	a2,112(a0)
e0003bdc:	0000                	unimp
e0003bde:	b630                	fsd	fa2,104(a2)
e0003be0:	94d9536f          	jal	t1,dff9952c <tohost+0xdff79524>
e0003be4:	8e31                	xor	a2,a2,a2
e0003be6:	d159                	beqz	a0,e0003b6c <hmac_smoketest+0x35e0>
e0003be8:	0000                	unimp
e0003bea:	6f10                	flw	fa2,24(a4)
e0003bec:	5830                	lw	a2,112(s0)
e0003bee:	d75c                	sw	a5,44(a4)
e0003bf0:	5b38                	lw	a4,112(a4)
e0003bf2:	0d50                	addi	a2,sp,660
e0003bf4:	0000                	unimp
e0003bf6:	0820                	addi	s0,sp,24
e0003bf8:	0c786b2f          	0xc786b2f
e0003bfc:	ff68613f ff500000 	0xff500000ff68613f
e0003c04:	501f 7384 0758      	0x7587384501f
e0003c0a:	6fd0                	flw	fa2,28(a5)
e0003c0c:	0000                	unimp
e0003c0e:	e630                	fsw	fa2,72(a2)
e0003c10:	2e48082f          	0x2e48082f
e0003c14:	5138                	lw	a4,96(a0)
e0003c16:	ff60                	fsw	fs0,124(a4)
e0003c18:	0000                	unimp
e0003c1a:	0820                	addi	s0,sp,24
e0003c1c:	5138                	lw	a4,96(a0)
e0003c1e:	2c70                	fld	fa2,216(s0)
e0003c20:	fe60                	fsw	fs0,124(a2)
e0003c22:	0000082f          	0x82f
e0003c26:	5130                	lw	a2,96(a0)
e0003c28:	0829                	addi	a6,a6,10
e0003c2a:	ca98                	sw	a4,16(a3)
e0003c2c:	5328082f          	0x5328082f
e0003c30:	0000                	unimp
e0003c32:	fd60                	fsw	fs0,124(a0)
e0003c34:	226d                	jal	e0003dde <hmac_smoketest+0x3852>
e0003c36:	ba9d                	j	e00035ac <hmac_smoketest+0x3020>
e0003c38:	422d6067          	0x422d6067
e0003c3c:	0000                	unimp
e0003c3e:	1790                	addi	a2,sp,992
e0003c40:	a56c                	fsd	fa1,200(a0)
e0003c42:	275c                	fld	fa5,136(a4)
e0003c44:	e4ed                	bnez	s1,e0003d2e <hmac_smoketest+0x37a2>
e0003c46:	c52c                	sw	a1,72(a0)
e0003c48:	0000                	unimp
e0003c4a:	04a0                	addi	s0,sp,584
e0003c4c:	266c                	fld	fa1,200(a2)
e0003c4e:	e56c                	fsw	fa1,76(a0)
e0003c50:	65ec                	flw	fa1,76(a1)
e0003c52:	462c                	lw	a1,72(a2)
e0003c54:	0000                	unimp
e0003c56:	85a0                	0x85a0
e0003c58:	4ae8                	lw	a0,84(a3)
e0003c5a:	fe48                	fsw	fa0,60(a2)
e0003c5c:	b3a8                	fsd	fa0,96(a5)
e0003c5e:	9b68                	0x9b68
e0003c60:	0000                	unimp
e0003c62:	abe0                	fsd	fs0,208(a5)
e0003c64:	54a0                	lw	s0,104(s1)
e0003c66:	66e8                	flw	fa0,76(a3)
e0003c68:	9138                	0x9138
e0003c6a:	0261                	addi	tp,tp,24
e0003c6c:	0000                	unimp
e0003c6e:	a2a0                	fsd	fs0,64(a3)
e0003c70:	c050                	sw	a2,4(s0)
e0003c72:	9e41                	0x9e41
e0003c74:	bfd2                	fsd	fs4,504(sp)
e0003c76:	4635                	li	a2,13
e0003c78:	0000                	unimp
e0003c7a:	56d0                	lw	a2,44(a3)
e0003c7c:	d710                	sw	a2,40(a4)
e0003c7e:	bb22                	fsd	fs0,432(sp)
e0003c80:	5138                	lw	a4,96(a0)
e0003c82:	4c00                	lw	s0,24(s0)
e0003c84:	0000                	unimp
e0003c86:	42a0                	lw	s0,64(a3)
e0003c88:	533d                	li	t1,-17
e0003c8a:	a4d0                	fsd	fa2,136(s1)
e0003c8c:	c2ac                	sw	a1,64(a3)
e0003c8e:	9008                	0x9008
e0003c90:	0000                	unimp
e0003c92:	1210                	addi	a2,sp,288
e0003c94:	601c                	flw	fa5,0(s0)
e0003c96:	2c74                	fld	fa3,216(s0)
e0003c98:	5710                	lw	a2,40(a4)
e0003c9a:	c8d1                	beqz	s1,e0003d2e <hmac_smoketest+0x37a2>
e0003c9c:	0000                	unimp
e0003c9e:	0890                	addi	a2,sp,80
e0003ca0:	0c48                	addi	a0,sp,532
e0003ca2:	3560                	fld	fs0,232(a0)
e0003ca4:	34c0                	fld	fs0,168(s1)
e0003ca6:	6b30                	flw	fa2,80(a4)
e0003ca8:	0000                	unimp
e0003caa:	5930                	lw	a2,112(a0)
e0003cac:	0c58                	addi	a4,sp,532
e0003cae:	a230                	fsd	fa2,64(a2)
e0003cb0:	0068                	addi	a0,sp,12
e0003cb2:	7b30                	flw	fa2,112(a4)
e0003cb4:	0000                	unimp
e0003cb6:	7030                	flw	fa2,96(s0)
e0003cb8:	006c                	addi	a1,sp,12
e0003cba:	f380                	fsw	fs0,32(a5)
e0003cbc:	0e78                	addi	a4,sp,796
e0003cbe:	6830                	flw	fa2,80(s0)
e0003cc0:	0000                	unimp
e0003cc2:	0230                	addi	a2,sp,264
e0003cc4:	f160                	fsw	fs0,100(a0)
e0003cc6:	016bcdcf          	fnmadd.s	fs11,fs7,fs6,ft0,rmm
e0003cca:	7130                	flw	fa2,96(a0)
e0003ccc:	0000                	unimp
e0003cce:	6930                	flw	fa2,80(a0)
e0003cd0:	ed90                	fsw	fa2,24(a1)
e0003cd2:	cc78                	sw	a4,92(s0)
e0003cd4:	7130                	flw	fa2,96(a0)
e0003cd6:	00000173          	0x173
e0003cda:	6050                	flw	fa2,4(s0)
e0003cdc:	0310                	addi	a2,sp,384
e0003cde:	54da                	lw	s1,180(sp)
e0003ce0:	1a3d                	addi	s4,s4,-17
e0003ce2:	40c0                	lw	s0,4(s1)
e0003ce4:	0000                	unimp
e0003ce6:	ef10                	fsw	fa2,24(a4)
e0003ce8:	a23a                	fsd	fa4,256(sp)
e0003cea:	8a90                	0x8a90
e0003cec:	de98                	sw	a4,56(a3)
e0003cee:	aa52                	fsd	fs4,272(sp)
e0003cf0:	0000                	unimp
e0003cf2:	5220                	lw	s0,96(a2)
e0003cf4:	fdcff057          	0xfdcff057
e0003cf8:	5910                	lw	a2,48(a0)
e0003cfa:	4934                	lw	a3,80(a0)
e0003cfc:	0000                	unimp
e0003cfe:	20c0                	fld	fs0,128(s1)
e0003d00:	6234                	flw	fa3,64(a2)
e0003d02:	6562                	flw	fa0,24(sp)
e0003d04:	0bb6                	slli	s7,s7,0xd
e0003d06:	b110                	fsd	fa2,32(a0)
e0003d08:	0000                	unimp
e0003d0a:	3630                	fld	fa2,104(a2)
e0003d0c:	54a0                	lw	s0,104(s1)
e0003d0e:	0ff8                	addi	a4,sp,988
e0003d10:	9130                	0x9130
e0003d12:	04c0                	addi	s0,sp,580
e0003d14:	0000                	unimp
e0003d16:	36c0                	fld	fs0,168(a3)
e0003d18:	5310                	lw	a2,32(a4)
e0003d1a:	a8a2                	fsd	fs0,80(sp)
e0003d1c:	5132                	lw	sp,44(sp)
e0003d1e:	18c0                	addi	s0,sp,116
e0003d20:	0000                	unimp
e0003d22:	d090                	sw	a2,32(s1)
e0003d24:	5334                	lw	a3,96(a4)
e0003d26:	3c70                	fld	fa2,248(s0)
e0003d28:	18c2                	slli	a7,a7,0x30
e0003d2a:	5150                	lw	a2,36(a0)
e0003d2c:	0000                	unimp
e0003d2e:	8230                	0x8230
e0003d30:	2230                	fld	fa2,64(a2)
e0003d32:	1562                	slli	a0,a0,0x38
e0003d34:	c234                	sw	a3,64(a2)
e0003d36:	0ac2                	slli	s5,s5,0x10
e0003d38:	0000                	unimp
e0003d3a:	1650                	addi	a2,sp,804
e0003d3c:	4230                	lw	a2,64(a2)
e0003d3e:	6dc0                	flw	fs0,28(a1)
e0003d40:	2230                	fld	fa2,64(a2)
e0003d42:	40c2                	lw	ra,16(sp)
e0003d44:	0000                	unimp
e0003d46:	38c0                	fld	fs0,176(s1)
e0003d48:	64e8                	flw	fa0,76(s1)
e0003d4a:	ea98                	fsw	fa4,16(a3)
e0003d4c:	5260                	lw	s0,100(a2)
e0003d4e:	5d28                	lw	a0,120(a0)
e0003d50:	0000                	unimp
e0003d52:	40c0                	lw	s0,4(s1)
e0003d54:	0ac2                	slli	s5,s5,0x10
e0003d56:	5c70                	lw	a2,124(s0)
e0003d58:	6cfe                	flw	fs9,220(sp)
e0003d5a:	0238                	addi	a4,sp,264
e0003d5c:	0000                	unimp
e0003d5e:	0ef0                	addi	a2,sp,860
e0003d60:	18aa                	slli	a7,a7,0x2a
e0003d62:	f910                	fsw	fa2,48(a0)
e0003d64:	00a8                	addi	a0,sp,72
e0003d66:	0230                	addi	a2,sp,264
e0003d68:	0000                	unimp
e0003d6a:	4630                	lw	a2,72(a2)
e0003d6c:	0000                	unimp
e0003d6e:	275f 0047 a973      	0xa9730047275f
e0003d74:	0000                	unimp
e0003d76:	0730                	addi	a2,sp,904
e0003d78:	00aa                	slli	ra,ra,0xa
e0003d7a:	0a90                	addi	a2,sp,336
e0003d7c:	60a8                	flw	fa0,64(s1)
e0003d7e:	0000503b          	0x503b
e0003d82:	a930                	fsd	fa2,80(a0)
e0003d84:	40b0                	lw	a2,64(s1)
e0003d86:	0000ec7b          	0xec7b
e0003d8a:	0000b13f 16c0b170 	0x16c0b1700000b13f
e0003d92:	58a4                	lw	s1,112(s1)
e0003d94:	503c                	lw	a5,96(s0)
e0003d96:	00b2                	slli	ra,ra,0xc
e0003d98:	0000                	unimp
e0003d9a:	9010                	0x9010
e0003d9c:	00b2                	slli	ra,ra,0xc
e0003d9e:	0000                	unimp
e0003da0:	16c0                	addi	s0,sp,868
e0003da2:	503c                	lw	a5,96(s0)
e0003da4:	0000                	unimp
e0003da6:	5850                	lw	a2,52(s0)
e0003da8:	3850                	fld	fa2,176(s0)
e0003daa:	000074db          	p.mac.zh.zh	s1,zero,zero,zero
e0003dae:	0000513f 583c5170 	0x583c51700000513f
e0003db6:	5b22                	lw	s6,40(sp)
e0003db8:	5854                	lw	a3,52(s0)
e0003dba:	10c0                	addi	s0,sp,100
e0003dbc:	0000                	unimp
e0003dbe:	10c0                	addi	s0,sp,100
e0003dc0:	1e48c93f 0000c970 	0xc9701e48c93f
e0003dc8:	0000                	unimp
e0003dca:	00b0                	addi	a2,sp,72
e0003dcc:	00aa                	slli	ra,ra,0xa
e0003dce:	44d0                	lw	a2,12(s1)
e0003dd0:	503cd91b          	0x503cd91b
e0003dd4:	0000                	unimp
e0003dd6:	72c0                	flw	fs0,36(a3)
e0003dd8:	5480                	lw	s0,40(s1)
e0003dda:	9c75                	0x9c75
e0003ddc:	503e                	0x503e
e0003dde:	00b2                	slli	ra,ra,0xc
e0003de0:	0000                	unimp
e0003de2:	1490                	addi	a2,sp,608
e0003de4:	6a5e                	flw	fs4,212(sp)
e0003de6:	1ff0                	addi	a2,sp,1020
e0003de8:	2cc2                	fld	fs9,16(sp)
e0003dea:	b630                	fsd	fa2,104(a2)
e0003dec:	0000                	unimp
e0003dee:	5830                	lw	a2,112(s0)
e0003df0:	023a                	slli	tp,tp,0xe
e0003df2:	b4d2                	fsd	fs4,104(sp)
e0003df4:	18b2                	slli	a7,a7,0x2c
e0003df6:	0bd0                	addi	a2,sp,468
e0003df8:	0000                	unimp
e0003dfa:	0230                	addi	a2,sp,264
e0003dfc:	2634                	fld	fa3,72(a2)
e0003dfe:	6b21                	lui	s6,0x8
e0003e00:	1080                	addi	s0,sp,96
e0003e02:	5854                	lw	a3,52(s0)
e0003e04:	0000                	unimp
e0003e06:	18b0                	addi	a2,sp,120
e0003e08:	6400                	flw	fs0,8(s0)
e0003e0a:	1dc0                	addi	s0,sp,756
e0003e0c:	4010                	lw	a2,0(s0)
e0003e0e:	4934                	lw	a3,80(a0)
e0003e10:	0000                	unimp
e0003e12:	6b50                	flw	fa2,20(a4)
e0003e14:	4512                	lw	a0,4(sp)
e0003e16:	4ff0                	lw	a2,92(a5)
e0003e18:	1940                	addi	s0,sp,180
e0003e1a:	b890                	fsd	fa2,48(s1)
e0003e1c:	0000                	unimp
e0003e1e:	5330                	lw	a2,96(a4)
e0003e20:	0000                	unimp
e0003e22:	e941f6ef          	jal	a3,dff234b6 <tohost+0xdff034ae>
e0003e26:	997f                	0x997f
e0003e28:	0000                	unimp
e0003e2a:	ce30                	sw	a2,88(a2)
e0003e2c:	3818                	fld	fa4,48(s0)
e0003e2e:	a752                	fsd	fs4,392(sp)
e0003e30:	d098                	sw	a4,32(s1)
e0003e32:	000054eb          	0x54eb
e0003e36:	9930                	0x9930
e0003e38:	d8a0                	sw	s0,112(s1)
e0003e3a:	0000f00b          	p.lb	zero,zero(ra!)
e0003e3e:	0000a13f 0000a170 	0xa1700000a13f
e0003e46:	b158100f          	0xb158100f
e0003e4a:	5172                	lw	sp,60(sp)
e0003e4c:	0000                	unimp
e0003e4e:	5520                	lw	s0,104(a0)
e0003e50:	5172                	lw	sp,60(sp)
e0003e52:	5000                	lw	s0,32(s0)
e0003e54:	a450                	fsd	fa2,136(s0)
e0003e56:	000032db          	p.subn	t0,zero,zero,0
e0003e5a:	5130                	lw	a2,96(a0)
e0003e5c:	adc2305b          	p.subun	zero,tp,t3,22
e0003e60:	7250513f 00000000 	0x7250513f
e0003e68:	7c50                	flw	fa2,60(s0)
e0003e6a:	00008b2b          	p.sb	zero,22(ra!) # 5016 <_min_stack+0x3016>
e0003e6e:	0000513f 513f5170 	0x513f51700000513f
e0003e76:	34d0                	fld	fa2,168(s1)
e0003e78:	5172                	lw	sp,60(sp)
e0003e7a:	0000                	unimp
e0003e7c:	0000                	unimp
e0003e7e:	b190                	fsd	fa2,32(a1)
e0003e80:	5170                	lw	a2,100(a0)
e0003e82:	b380                	fsd	fs0,32(a5)
e0003e84:	023a                	slli	tp,tp,0xe
e0003e86:	1352                	slli	t1,t1,0x34
e0003e88:	0000                	unimp
e0003e8a:	b650                	fsd	fa2,168(a2)
e0003e8c:	023a                	slli	tp,tp,0xe
e0003e8e:	7232                	flw	ft4,44(sp)
e0003e90:	ae50513f 00000000 	0xae50513f
e0003e98:	bb20513f 00005170 	0x5170bb20513f
e0003ea0:	0000                	unimp
e0003ea2:	1450                	addi	a2,sp,548
e0003ea4:	10c0                	addi	s0,sp,100
e0003ea6:	a56c                	fsd	fa1,200(a0)
e0003ea8:	10ca                	slli	ra,ra,0x32
e0003eaa:	5854                	lw	a3,52(s0)
e0003eac:	0000                	unimp
e0003eae:	8e50                	0x8e50
e0003eb0:	0000                	unimp
e0003eb2:	375f 2cc2 5970      	0x59702cc2375f
e0003eb8:	0000                	unimp
e0003eba:	5030                	lw	a2,96(s0)
e0003ebc:	b854                	fsd	fa3,176(s0)
e0003ebe:	b914                	fsd	fa3,48(a0)
e0003ec0:	7858                	flw	fa4,52(s0)
e0003ec2:	190a                	slli	s2,s2,0x22
e0003ec4:	0000                	unimp
e0003ec6:	5930                	lw	a2,112(a0)
e0003ec8:	1908                	addi	a0,sp,176
e0003eca:	6c7c                	flw	fa5,92(s0)
e0003ecc:	0ab9                	addi	s5,s5,14
e0003ece:	e550                	fsw	fa2,12(a0)
e0003ed0:	0000                	unimp
e0003ed2:	6b30                	flw	fa2,80(a4)
e0003ed4:	5660                	lw	s0,108(a2)
e0003ed6:	84d9                	srai	s1,s1,0x16
e0003ed8:	5334                	lw	a3,96(a4)
e0003eda:	2b50                	fld	fa2,144(a4)
e0003edc:	0000                	unimp
e0003ede:	5d10                	lw	a2,56(a0)
e0003ee0:	5900                	lw	s0,48(a0)
e0003ee2:	d384                	sw	s1,32(a5)
e0003ee4:	4234                	lw	a3,64(a2)
e0003ee6:	0bc2                	slli	s7,s7,0x10
e0003ee8:	0000                	unimp
e0003eea:	14c0                	addi	s0,sp,612
e0003eec:	2234                	fld	fa3,64(a2)
e0003eee:	4c72                	lw	s8,28(sp)
e0003ef0:	0cc2                	slli	s9,s9,0x10
e0003ef2:	5900                	lw	s0,48(a0)
e0003ef4:	0000                	unimp
e0003ef6:	6230                	flw	fa2,64(a2)
e0003ef8:	a230                	fsd	fa2,64(a2)
e0003efa:	0e42                	slli	t3,t3,0x10
e0003efc:	4230                	lw	a2,64(a2)
e0003efe:	125a                	slli	tp,tp,0x36
e0003f00:	0000                	unimp
e0003f02:	1260                	addi	s0,sp,300
e0003f04:	10c0                	addi	s0,sp,100
e0003f06:	76ec                	flw	fa1,108(a3)
e0003f08:	10c0                	addi	s0,sp,100
e0003f0a:	5854                	lw	a3,52(s0)
e0003f0c:	0000                	unimp
e0003f0e:	0ac0                	addi	s0,sp,340
e0003f10:	1190                	addi	a2,sp,224
e0003f12:	28ac                	fld	fa1,80(s1)
e0003f14:	5032                	0x5032
e0003f16:	00aa                	slli	ra,ra,0xa
e0003f18:	0000                	unimp
e0003f1a:	0250                	addi	a2,sp,260
e0003f1c:	c928                	sw	a0,80(a0)
e0003f1e:	f004                	fsw	fs1,32(s0)
e0003f20:	00b2                	slli	ra,ra,0xc
e0003f22:	55e0                	lw	s0,108(a1)
e0003f24:	0000                	unimp
e0003f26:	5030                	lw	a2,96(s0)
e0003f28:	ad24                	fsd	fs1,88(a0)
e0003f2a:	1914                	addi	a3,sp,176
e0003f2c:	bb24                	fsd	fs1,112(a4)
e0003f2e:	b424                	fsd	fs1,104(s0)
e0003f30:	0000                	unimp
e0003f32:	c220                	sw	s0,64(a2)
e0003f34:	4925                	li	s2,9
e0003f36:	4ff5                	li	t6,29
e0003f38:	9f24                	0x9f24
e0003f3a:	9024                	0x9024
e0003f3c:	0000                	unimp
e0003f3e:	a620                	fsd	fs0,72(a2)
e0003f40:	0826                	slli	a6,a6,0x9
e0003f42:	8c78                	0x8c78
e0003f44:	0b25                	addi	s6,s6,9
e0003f46:	1455                	addi	s0,s0,-11
e0003f48:	0000                	unimp
e0003f4a:	4220                	lw	s0,64(a2)
e0003f4c:	2450                	fld	fa2,136(s0)
e0003f4e:	c75a                	sw	s6,140(sp)
e0003f50:	0000                	unimp
e0003f52:	0000513f 00005170 	0x51700000513f
e0003f5a:	d194856f          	jal	a0,dff4cc72 <tohost+0xdff2cc6a>
e0003f5e:	517c                	lw	a5,100(a0)
e0003f60:	0000                	unimp
e0003f62:	1080                	addi	s0,sp,96
e0003f64:	1ec4                	addi	s1,sp,884
e0003f66:	0914                	addi	a3,sp,144
e0003f68:	0450                	addi	a2,sp,516
e0003f6a:	10ca                	slli	ra,ra,0x32
e0003f6c:	0000                	unimp
e0003f6e:	5130                	lw	a2,96(a0)
e0003f70:	67d4                	flw	fa3,12(a5)
e0003f72:	7ff1                	lui	t6,0xffffc
e0003f74:	10cc                	addi	a1,sp,100
e0003f76:	1f04                	addi	s1,sp,944
e0003f78:	0000                	unimp
e0003f7a:	9810                	0x9810
e0003f7c:	1114                	addi	a3,sp,160
e0003f7e:	aa9c                	fsd	fa5,16(a3)
e0003f80:	108c                	addi	a1,sp,96
e0003f82:	1684                	addi	s1,sp,864
e0003f84:	0000                	unimp
e0003f86:	1f00                	addi	s0,sp,944
e0003f88:	26e80823          	sb	a4,624(a6) # ffff4270 <pulp__FC+0xffff4271>
e0003f8c:	0738                	addi	a4,sp,904
e0003f8e:	0046                	0x46
e0003f90:	0000                	unimp
e0003f92:	0820                	addi	s0,sp,24
e0003f94:	517c                	lw	a5,100(a0)
e0003f96:	6230                	flw	fa2,64(a2)
e0003f98:	6061                	0x6061
e0003f9a:	422c                	lw	a1,64(a2)
e0003f9c:	0000                	unimp
e0003f9e:	1410                	addi	a2,sp,544
e0003fa0:	1089                	addi	ra,ra,-30
e0003fa2:	3b24                	fld	fs1,112(a4)
e0003fa4:	fa50513f 00000000 	0xfa50513f
e0003fac:	6ff0513f 0000517c 	0x517c6ff0513f
e0003fb4:	0000                	unimp
e0003fb6:	9010                	0x9010
e0003fb8:	0d9c                	addi	a5,sp,720
e0003fba:	4e4a                	lw	t3,144(sp)
e0003fbc:	5859                	li	a6,-10
e0003fbe:	10c4                	addi	s1,sp,100
e0003fc0:	0000                	unimp
e0003fc2:	f250                	fsw	fa2,36(a2)
e0003fc4:	e450                	fsw	fa2,12(s0)
e0003fc6:	c759                	beqz	a4,e0004054 <hmac_smoketest+0x3ac8>
e0003fc8:	0000                	unimp
e0003fca:	0000513f 00005170 	0x51700000513f
e0003fd2:	e4df 0052 4170      	0x41700052e4df
e0003fd8:	0000                	unimp
e0003fda:	0230                	addi	a2,sp,264
e0003fdc:	1084                	addi	s1,sp,96
e0003fde:	b6e4                	fsd	fs1,232(a3)
e0003fe0:	b440                	fsd	fs0,168(s0)
e0003fe2:	0089                	addi	ra,ra,2
e0003fe4:	0000                	unimp
e0003fe6:	4130                	lw	a2,64(a0)
e0003fe8:	0a5e                	slli	s4,s4,0x17
e0003fea:	fe40                	fsw	fs0,60(a2)
e0003fec:	98c4                	0x98c4
e0003fee:	8635                	srai	a2,a2,0xd
e0003ff0:	0000                	unimp
e0003ff2:	00c0                	addi	s0,sp,68
e0003ff4:	3458                	fld	fa4,168(s0)
e0003ff6:	9380                	0x9380
e0003ff8:	00c4                	addi	s1,sp,68
e0003ffa:	5934                	lw	a3,112(a0)
e0003ffc:	0000                	unimp
e0003ffe:	0080                	addi	s0,sp,64
e0004000:	0000                	unimp
e0004002:	c4df 49fe 517d      	0x517d49fec4df
e0004008:	0000                	unimp
e000400a:	0ef0                	addi	a2,sp,860
e000400c:	5934                	lw	a3,112(a0)
e000400e:	2b25                	jal	e0004546 <hmac_smoketest+0x3fba>
e0004010:	9850                	0x9850
e0004012:	1089                	addi	ra,ra,-30
e0004014:	0000                	unimp
e0004016:	5130                	lw	a2,96(a0)
e0004018:	0255                	addi	tp,tp,21
e000401a:	1dc0                	addi	s0,sp,756
e000401c:	d4d0                	sw	a2,44(s1)
e000401e:	5938                	lw	a4,112(a0)
e0004020:	0000                	unimp
e0004022:	0150                	addi	a2,sp,132
e0004024:	d4d0                	sw	a2,44(s1)
e0004026:	6238                	flw	fa4,64(a2)
e0004028:	5938                	lw	a4,112(a0)
e000402a:	0455                	addi	s0,s0,21
e000402c:	0000                	unimp
e000402e:	d4d0                	sw	a2,44(s1)
e0004030:	5938                	lw	a4,112(a0)
e0004032:	bb25                	j	e0003d6a <hmac_smoketest+0x37de>
e0004034:	0855                	addi	a6,a6,21
e0004036:	d4d0                	sw	a2,44(s1)
e0004038:	0000                	unimp
e000403a:	5930                	lw	a2,112(a0)
e000403c:	ff54                	fsw	fa3,60(a4)
e000403e:	d4d08b2f          	0xd4d08b2f
e0004042:	5138                	lw	a4,96(a0)
e0004044:	0000                	unimp
e0004046:	1050                	addi	a2,sp,36
e0004048:	5555                	li	a0,-11
e000404a:	0b25                	addi	s6,s6,9
e000404c:	0155                	addi	sp,sp,21
e000404e:	6370                	flw	fa2,68(a4)
e0004050:	0000                	unimp
e0004052:	5930                	lw	a2,112(a0)
e0004054:	d0d8                	sw	a4,36(s1)
e0004056:	c8a8                	sw	a0,80(s1)
e0004058:	5560                	lw	s0,108(a0)
e000405a:	df15                	beqz	a4,e0003f96 <hmac_smoketest+0x3a0a>
e000405c:	0000                	unimp
e000405e:	6130                	flw	fa2,64(a0)
e0004060:	3358                	fld	fa4,160(a4)
e0004062:	333396e3          	bne	t2,s3,e0004b8e <hmac_smoketest+0x4602>
e0004066:	00005933          	srl	s2,zero,zero
e000406a:	5b70                	lw	a2,116(a4)
e000406c:	d6d8                	sw	a4,44(a3)
e000406e:	11b8                	addi	a4,sp,232
e0004070:	10900b57          	pv.avg.h	s6,zero,s1
e0004074:	0000                	unimp
e0004076:	6330                	flw	fa2,64(a4)
e0004078:	52e0                	lw	s0,100(a3)
e000407a:	6569                	lui	a0,0x1a
e000407c:	5939                	li	s2,-18
e000407e:	0455                	addi	s0,s0,21
e0004080:	0000                	unimp
e0004082:	5320                	lw	s0,96(a4)
e0004084:	0f58                	addi	a4,sp,916
e0004086:	b75f f0f1 5930      	0x5930f0f1b75f
e000408c:	0000                	unimp
e000408e:	5b70                	lw	a2,116(a4)
e0004090:	5930                	lw	a2,112(a0)
e0004092:	4c78                	lw	a4,92(s0)
e0004094:	5b78                	lw	a4,116(a4)
e0004096:	1010                	addi	a2,sp,32
e0004098:	0000                	unimp
e000409a:	d6d0                	sw	a2,44(a3)
e000409c:	1610                	addi	a2,sp,800
e000409e:	3388                	fld	fa0,32(a5)
e00040a0:	5331                	li	t1,-20
e00040a2:	2b50                	fld	fa2,144(a4)
e00040a4:	0000                	unimp
e00040a6:	0150                	addi	a2,sp,132
e00040a8:	5334                	lw	a3,96(a4)
e00040aa:	1380                	addi	s0,sp,480
e00040ac:	1f54                	addi	a3,sp,948
e00040ae:	5d10                	lw	a2,56(a0)
e00040b0:	0000                	unimp
e00040b2:	5130                	lw	a2,96(a0)
e00040b4:	d918593f 00005970 	0x5970d918593f
e00040bc:	0000                	unimp
e00040be:	2b50                	fld	fa2,144(a4)
e00040c0:	1484                	addi	s1,sp,608
e00040c2:	bc74                	fsd	fa3,248(s0)
e00040c4:	5aa9                	li	s5,-22
e00040c6:	1c89                	addi	s9,s9,-30
e00040c8:	0000                	unimp
e00040ca:	7a50                	flw	fa2,52(a2)
e00040cc:	563c                	lw	a5,104(a2)
e00040ce:	b8a1                	j	e0003926 <hmac_smoketest+0x339a>
e00040d0:	0858                	addi	a4,sp,20
e00040d2:	1c80                	addi	s0,sp,624
e00040d4:	0000                	unimp
e00040d6:	6130                	flw	fa2,64(a0)
e00040d8:	1880                	addi	s0,sp,112
e00040da:	b8ac                	fsd	fa1,112(s1)
e00040dc:	1480                	addi	s0,sp,608
e00040de:	5914                	lw	a3,48(a0)
e00040e0:	0000                	unimp
e00040e2:	0c50                	addi	a2,sp,532
e00040e4:	0b24                	addi	s1,sp,408
e00040e6:	0c74                	addi	a3,sp,540
e00040e8:	0084                	addi	s1,sp,64
e00040ea:	422c                	lw	a1,64(a2)
e00040ec:	0000                	unimp
e00040ee:	5480                	lw	s0,40(s1)
e00040f0:	6061                	0x6061
e00040f2:	bdcc                	fsd	fa1,184(a1)
e00040f4:	0820                	addi	s0,sp,24
e00040f6:	1418                	addi	a4,sp,544
e00040f8:	0000                	unimp
e00040fa:	1410                	addi	a2,sp,544
e00040fc:	6250                	flw	fa2,4(a2)
e00040fe:	0000                	unimp
e0004100:	0000                	unimp
e0004102:	5130                	lw	a2,96(a0)
e0004104:	0000                	unimp
e0004106:	5170                	lw	a2,100(a0)
e0004108:	2058                	fld	fa4,128(s0)
e000410a:	0002bffb          	0x2bffb
e000410e:	5930                	lw	a2,112(a0)
e0004110:	0000                	unimp
e0004112:	5970                	lw	a2,116(a0)
e0004114:	0878                	addi	a4,sp,28
e0004116:	5e49                	li	t3,-14
e0004118:	0000                	unimp
e000411a:	0000793f 70147970 	0x701479700000793f
e0004122:	94d4                	0x94d4
e0004124:	0000                	unimp
e0004126:	6811                	lui	a6,0x4
e0004128:	0000                	unimp
e000412a:	6130                	flw	fa2,64(a0)
e000412c:	2b51                	jal	e00046c0 <hmac_smoketest+0x4134>
e000412e:	7ff0                	flw	fa2,124(a5)
e0004130:	76345853          	0x76345853
e0004134:	0000                	unimp
e0004136:	9450                	0x9450
e0004138:	0000                	unimp
e000413a:	5c7f                	0x5c7f
e000413c:	51730047          	fmsub.s	ft0,ft6,fs7,fa0,rne
e0004140:	0000                	unimp
e0004142:	0730                	addi	a2,sp,904
e0004144:	1105                	addi	sp,sp,-31
e0004146:	61bc                	flw	fa5,64(a1)
e0004148:	f050                	fsw	fa2,36(s0)
e000414a:	67d8                	flw	fa4,12(a5)
e000414c:	0000                	unimp
e000414e:	5130                	lw	a2,96(a0)
e0004150:	cc50                	sw	a2,28(s0)
e0004152:	b6e8                	fsd	fa0,232(a3)
e0004154:	0000                	unimp
e0004156:	0000513f 513f5170 	0x513f51700000513f
e000415e:	7dc0                	flw	fs0,60(a1)
e0004160:	517c                	lw	a5,100(a0)
e0004162:	0000                	unimp
e0004164:	0000                	unimp
e0004166:	10c0                	addi	s0,sp,100
e0004168:	0ef0                	addi	a2,sp,860
e000416a:	4a9e                	lw	s5,196(sp)
e000416c:	0238                	addi	a4,sp,264
e000416e:	0052                	0x52
e0004170:	0000                	unimp
e0004172:	de50                	sw	a2,60(a2)
e0004174:	5130                	lw	a2,96(a0)
e0004176:	ca90                	sw	a2,16(a3)
e0004178:	517c                	lw	a5,100(a0)
e000417a:	0002                	0x2
e000417c:	0000                	unimp
e000417e:	8bf0                	0x8bf0
e0004180:	1414                	addi	a3,sp,544
e0004182:	ba90                	fsd	fa2,48(a3)
e0004184:	108a                	slli	ra,ra,0x22
e0004186:	0b24                	addi	s1,sp,408
e0004188:	0000                	unimp
e000418a:	d250                	sw	a2,36(a2)
e000418c:	c22c                	sw	a1,64(a2)
e000418e:	4b2c                	lw	a1,80(a4)
e0004190:	1018                	addi	a4,sp,32
e0004192:	e061                	bnez	s0,e0004252 <hmac_smoketest+0x3cc6>
e0004194:	0000                	unimp
e0004196:	0820                	addi	s0,sp,24
e0004198:	452c                	lw	a1,72(a0)
e000419a:	14dc                	addi	a5,sp,612
e000419c:	84ac                	0x84ac
e000419e:	64ec                	flw	fa1,76(s1)
e00041a0:	0000                	unimp
e00041a2:	a260                	fsd	fs0,192(a2)
e00041a4:	38a8493f 0000497c 	0x497c38a8493f
e00041ac:	0000                	unimp
e00041ae:	2560                	fld	fs0,200(a0)
e00041b0:	bc70913f 00009178 	0x9178bc70913f
e00041b8:	0000                	unimp
e00041ba:	8a40                	0x8a40
e00041bc:	d918993f 00009978 	0x9978d918993f
e00041c4:	0000                	unimp
e00041c6:	8a90                	0x8a90
e00041c8:	0dc0a13f 0000a179 	0xa1790dc0a13f
e00041d0:	0000                	unimp
e00041d2:	2e90                	fld	fa2,24(a3)
e00041d4:	3b28a93f 0000a978 	0xa9783b28a93f
e00041dc:	0000                	unimp
e00041de:	76a0                	flw	fs0,104(a3)
e00041e0:	073c                	addi	a5,sp,904
e00041e2:	08884567          	0x8884567
e00041e6:	1294                	addi	a3,sp,352
e00041e8:	0000                	unimp
e00041ea:	5ea0                	lw	s0,120(a3)
e00041ec:	9010                	0x9010
e00041ee:	58ac                	lw	a1,112(s1)
e00041f0:	00925033          	srl	zero,tp,s1
e00041f4:	0000                	unimp
e00041f6:	0040                	addi	s0,sp,4
e00041f8:	5854                	lw	a3,52(s0)
e00041fa:	da90                	sw	a2,48(a3)
e00041fc:	00aa                	slli	ra,ra,0xa
e00041fe:	16c0                	addi	s0,sp,868
e0004200:	0000                	unimp
e0004202:	5030                	lw	a2,96(s0)
e0004204:	5030                	lw	a2,96(s0)
e0004206:	8b2a                	mv	s6,a0
e0004208:	503c                	lw	a5,96(s0)
e000420a:	00aa                	slli	ra,ra,0xa
e000420c:	0000                	unimp
e000420e:	16c0                	addi	s0,sp,868
e0004210:	0440                	addi	s0,sp,516
e0004212:	71b0                	flw	fa2,96(a1)
e0004214:	5400                	lw	s0,40(s0)
e0004216:	5134                	lw	a3,96(a0)
e0004218:	0000                	unimp
e000421a:	0c90                	addi	a2,sp,592
e000421c:	57d0                	lw	a2,44(a5)
e000421e:	fc71                	bnez	s0,e00041fa <hmac_smoketest+0x3c6e>
e0004220:	5032                	0x5032
e0004222:	00a2                	slli	ra,ra,0x8
e0004224:	0000                	unimp
e0004226:	4c10                	lw	a2,24(s0)
e0004228:	57d4                	lw	a3,44(a5)
e000422a:	d911                	beqz	a0,e000413e <hmac_smoketest+0x3bb2>
e000422c:	0aa2                	slli	s5,s5,0x8
e000422e:	0880                	addi	s0,sp,80
e0004230:	0000                	unimp
e0004232:	0230                	addi	a2,sp,264
e0004234:	6b95                	lui	s7,0x5
e0004236:	5002                	0x5002
e0004238:	539c                	lw	a5,32(a5)
e000423a:	00008083          	lb	ra,0(ra)
e000423e:	0880                	addi	s0,sp,80
e0004240:	54d0073b          	0x54d0073b
e0004244:	6a98                	flw	fa4,16(a3)
e0004246:	f7d2                	fsw	fs4,236(sp)
e0004248:	0000                	unimp
e000424a:	5220                	lw	s0,96(a2)
e000424c:	0000                	unimp
e000424e:	ba9f f650 517b      	0x517bf650ba9f
e0004254:	0000                	unimp
e0004256:	0000                	unimp
e0004258:	5854                	lw	a3,52(s0)
e000425a:	6ff0                	flw	fa2,92(a5)
e000425c:	2c50                	fld	fa2,152(s0)
e000425e:	10c8                	addi	a0,sp,100
e0004260:	0000                	unimp
e0004262:	5130                	lw	a2,96(a0)
e0004264:	6061                	0x6061
e0004266:	fe4c                	fsw	fa1,60(a2)
e0004268:	082c                	addi	a1,sp,24
e000426a:	1418                	addi	a4,sp,544
e000426c:	0000                	unimp
e000426e:	10c0                	addi	s0,sp,100
e0004270:	073c                	addi	a5,sp,904
e0004272:	226c1c77          	0x226c1c77
e0004276:	04ac                	addi	a1,sp,584
e0004278:	0000                	unimp
e000427a:	4220                	lw	s0,64(a2)
e000427c:	f560513f 00005173 	0x5173f560513f
e0004284:	0000                	unimp
e0004286:	0040                	addi	s0,sp,4
e0004288:	517c                	lw	a5,100(a0)
e000428a:	108858af          	0x108858af
e000428e:	9114                	0x9114
e0004290:	0000                	unimp
e0004292:	0250                	addi	a2,sp,260
e0004294:	391410c7          	fmsub.s	ft1,fs0,fa7,ft7,rtz
e0004298:	513e                	lw	sp,236(sp)
e000429a:	e250                	fsw	fa2,4(a2)
e000429c:	0000                	unimp
e000429e:	fff0                	fsw	fa2,124(a5)
e00042a0:	108c                	addi	a1,sp,96
e00042a2:	c564                	sw	s1,76(a0)
e00042a4:	6054                	flw	fa3,4(s0)
e00042a6:	1f00                	addi	s0,sp,944
e00042a8:	0000                	unimp
e00042aa:	1f00                	addi	s0,sp,944
e00042ac:	f050                	fsw	fa2,36(s0)
e00042ae:	ffffeb27          	0xffffeb27
e00042b2:	513e                	lw	sp,236(sp)
e00042b4:	0000                	unimp
e00042b6:	5170                	lw	a2,100(a0)
e00042b8:	108c                	addi	a1,sp,96
e00042ba:	fff4                	fsw	fa3,124(a5)
e00042bc:	5fd4                	lw	a3,60(a5)
e00042be:	10c1                	addi	ra,ra,-16
e00042c0:	0000                	unimp
e00042c2:	10c0                	addi	s0,sp,100
e00042c4:	513e                	lw	sp,236(sp)
e00042c6:	1c70                	addi	a2,sp,572
e00042c8:	517e                	lw	sp,252(sp)
e00042ca:	ffff                	0xffff
e00042cc:	0000                	unimp
e00042ce:	d650                	sw	a2,44(a2)
e00042d0:	517c                	lw	a5,100(a0)
e00042d2:	2380                	fld	fs0,0(a5)
e00042d4:	57541087          	0x57541087
e00042d8:	0000                	unimp
e00042da:	ce50                	sw	a2,28(a2)
e00042dc:	10c8                	addi	a0,sp,100
e00042de:	fa94                	fsw	fa3,48(a3)
e00042e0:	9a50513f 00000000 	0x9a50513f
e00042e8:	cc90                	sw	a2,24(s1)
e00042ea:	ffff0917          	auipc	s2,0xffff0
e00042ee:	913e                	add	sp,sp,a5
e00042f0:	0000                	unimp
e00042f2:	9170                	0x9170
e00042f4:	ffff                	0xffff
e00042f6:	f91e                	fsw	ft7,176(sp)
e00042f8:	885c                	0x885c
e00042fa:	6174                	flw	fa3,68(a0)
e00042fc:	0000                	unimp
e00042fe:	ddd0                	sw	a2,60(a1)
e0004300:	2974                	fld	fa3,208(a0)
e0004302:	a060c8af          	0xa060c8af
e0004306:	00008517          	auipc	a0,0x8
e000430a:	6130                	flw	fa2,64(a0)
e000430c:	456f3177          	0x456f3177
e0004310:	293e                	fld	fs2,456(sp)
e0004312:	ee28                	fsw	fa0,88(a2)
e0004314:	0000                	unimp
e0004316:	fff0                	fsw	fa2,124(a5)
e0004318:	d6e454c7          	0xd6e454c7
e000431c:	313e                	fld	ft2,488(sp)
e000431e:	8a30                	0x8a30
e0004320:	0000                	unimp
e0004322:	fff0                	fsw	fa2,124(a5)
e0004324:	4044                	lw	s1,4(s0)
e0004326:	f755                	bnez	a4,e00042d2 <hmac_smoketest+0x3d46>
e0004328:	00c4                	addi	s1,sp,68
e000432a:	c585                	beqz	a1,e0004352 <hmac_smoketest+0x3dc6>
e000432c:	0000                	unimp
e000432e:	5c00                	lw	s0,56(s0)
e0004330:	0ccc                	addi	a1,sp,596
e0004332:	7ff4                	flw	fa3,124(a5)
e0004334:	014c                	addi	a1,sp,132
e0004336:	2d85                	jal	e00049a6 <hmac_smoketest+0x441a>
e0004338:	0000                	unimp
e000433a:	70c0                	flw	fs0,36(s1)
e000433c:	0e59                	addi	t3,t3,22
e000433e:	f4d0                	fsw	fa2,44(s1)
e0004340:	1840                	addi	s0,sp,52
e0004342:	3630                	fld	fa2,104(a2)
e0004344:	0000                	unimp
e0004346:	7130                	flw	fa2,96(a0)
e0004348:	08c0                	addi	s0,sp,84
e000434a:	be44                	fsd	fs1,184(a2)
e000434c:	423c                	lw	a5,64(a2)
e000434e:	2042                	fld	ft0,16(sp)
e0004350:	0000                	unimp
e0004352:	0d40                	addi	s0,sp,660
e0004354:	4184                	lw	s1,0(a1)
e0004356:	a564                	fsd	fs1,200(a0)
e0004358:	08c1                	addi	a7,a7,16
e000435a:	44cc                	lw	a1,12(s1)
e000435c:	0000                	unimp
e000435e:	5fd0                	lw	a2,60(a5)
e0004360:	1d84                	addi	s1,sp,752
e0004362:	b75c                	fsd	fa5,168(a4)
e0004364:	70c4                	flw	fs1,36(s1)
e0004366:	44cc                	lw	a1,12(s1)
e0004368:	0000                	unimp
e000436a:	8540                	0x8540
e000436c:	3630                	fld	fa2,104(a2)
e000436e:	ce41                	beqz	a2,e0004406 <hmac_smoketest+0x3e7a>
e0004370:	4934                	lw	a3,80(a0)
e0004372:	0440                	addi	s0,sp,516
e0004374:	0000                	unimp
e0004376:	2d80                	fld	fs0,24(a1)
e0004378:	5fd4                	lw	a3,60(a5)
e000437a:	f381                	bnez	a5,e000427a <hmac_smoketest+0x3cee>
e000437c:	2cc0                	fld	fs0,152(s1)
e000437e:	28cc                	fld	fa1,144(s1)
e0004380:	0000                	unimp
e0004382:	0970                	addi	a2,sp,156
e0004384:	7334                	flw	fa3,96(a4)
e0004386:	c389                	beqz	a5,e0004388 <hmac_smoketest+0x3dfc>
e0004388:	44cc                	lw	a1,12(s1)
e000438a:	2145                	jal	e000482a <hmac_smoketest+0x429e>
e000438c:	0000                	unimp
e000438e:	28c0                	fld	fs0,144(s1)
e0004390:	6b3c                	flw	fa5,80(a4)
e0004392:	e758                	fsw	fa4,12(a4)
e0004394:	ed90                	fsw	fa2,24(a1)
e0004396:	2148                	fld	fa0,128(a0)
e0004398:	0000                	unimp
e000439a:	0b80                	addi	s0,sp,464
e000439c:	4184                	lw	s1,0(a1)
e000439e:	700c                	flw	fa1,32(s0)
e00043a0:	6960                	flw	fs0,84(a0)
e00043a2:	2d89                	jal	e00049f4 <hmac_smoketest+0x4468>
e00043a4:	0000                	unimp
e00043a6:	3050                	fld	fa2,160(s0)
e00043a8:	3c44                	fld	fs1,184(s0)
e00043aa:	423c                	lw	a5,64(a2)
e00043ac:	45c4                	lw	s1,12(a1)
e00043ae:	71cc                	flw	fa1,36(a1)
e00043b0:	0000                	unimp
e00043b2:	71c0                	flw	fs0,36(a1)
e00043b4:	7054                	flw	fa3,36(s0)
e00043b6:	2dc0                	fld	fs0,152(a1)
e00043b8:	854c                	0x854c
e00043ba:	298c                	fld	fa1,16(a1)
e00043bc:	0000                	unimp
e00043be:	7040                	flw	fs0,36(s0)
e00043c0:	6d40                	flw	fs0,28(a0)
e00043c2:	ce45                	beqz	a2,e000447a <hmac_smoketest+0x3eee>
e00043c4:	683c                	flw	fa5,80(s0)
e00043c6:	0032                	0x32
e00043c8:	0000                	unimp
e00043ca:	2980                	fld	fs0,16(a1)
e00043cc:	1192                	slli	gp,gp,0x24
e00043ce:	5910                	lw	a2,48(a0)
e00043d0:	0d5e                	slli	s10,s10,0x17
e00043d2:	0230                	addi	a2,sp,264
e00043d4:	0000                	unimp
e00043d6:	4630                	lw	a2,72(a2)
e00043d8:	ffff                	0xffff
e00043da:	61be                	flw	ft3,204(sp)
e00043dc:	1d14                	addi	a3,sp,688
e00043de:	517f                	0x517f
e00043e0:	0000                	unimp
e00043e2:	10c0                	addi	s0,sp,100
e00043e4:	18c4                	addi	s1,sp,116
e00043e6:	e234                	fsw	fa3,64(a2)
e00043e8:	1c50                	addi	a2,sp,564
e00043ea:	000010c7          	fmsub.s	ft1,ft0,ft0,ft0,rtz
e00043ee:	5130                	lw	a2,96(a0)
e00043f0:	1084                	addi	s1,sp,96
e00043f2:	c564                	sw	s1,76(a0)
e00043f4:	108c                	addi	a1,sp,96
e00043f6:	5484                	lw	s1,40(s1)
e00043f8:	0000                	unimp
e00043fa:	5890                	lw	a2,48(s1)
e00043fc:	ffff                	0xffff
e00043fe:	b75e                	fsd	fs7,424(sp)
e0004400:	57da                	lw	a5,180(sp)
e0004402:	5975                	li	s2,-3
e0004404:	0000                	unimp
e0004406:	0110                	addi	a2,sp,128
e0004408:	417c                	lw	a5,68(a0)
e000440a:	1858ddcf          	fnmadd.s	fs11,fa7,ft5,ft3,unknown
e000440e:	00001887          	0x1887
e0004412:	5930                	lw	a2,112(a0)
e0004414:	7dc40047          	fmsub.h	zero,s0,t3,a5,rne
e0004418:	413e                	lw	sp,204(sp)
e000441a:	1640                	addi	s0,sp,804
e000441c:	0000                	unimp
e000441e:	fff0                	fsw	fa2,124(a5)
e0004420:	cf51                	beqz	a4,e00044bc <hmac_smoketest+0x3f30>
e0004422:	2a9f 839c 4fd2      	0x4fd2839c2a9f
e0004428:	0000                	unimp
e000442a:	4910                	lw	a2,16(a0)
e000442c:	0092                	slli	ra,ra,0x4
e000442e:	aff0                	fsd	fa2,216(a5)
e0004430:	0042                	0x42
e0004432:	5030                	lw	a2,96(s0)
e0004434:	0000                	unimp
e0004436:	0230                	addi	a2,sp,264
e0004438:	4924                	lw	s1,80(a0)
e000443a:	adc4                	fsd	fs1,152(a1)
e000443c:	90245013          	0x90245013
e0004440:	0000                	unimp
e0004442:	9650                	0x9650
e0004444:	0820                	addi	s0,sp,24
e0004446:	96e8                	0x96e8
e0004448:	0b24                	addi	s1,sp,408
e000444a:	1414                	addi	a3,sp,544
e000444c:	0000                	unimp
e000444e:	4220                	lw	s0,64(a2)
e0004450:	d850                	sw	a2,52(s0)
e0004452:	9a96                	add	s5,s5,t0
e0004454:	ffff                	0xffff
e0004456:	513e                	lw	sp,236(sp)
e0004458:	0000                	unimp
e000445a:	5170                	lw	a2,100(a0)
e000445c:	ffff                	0xffff
e000445e:	88ae                	mv	a7,a1
e0004460:	9094                	0x9094
e0004462:	517c                	lw	a5,100(a0)
e0004464:	0000                	unimp
e0004466:	1080                	addi	s0,sp,96
e0004468:	5854                	lw	a3,52(s0)
e000446a:	c8a0                	sw	s0,80(s1)
e000446c:	e050                	fsw	fa2,4(s0)
e000446e:	10c6                	slli	ra,ra,0x31
e0004470:	0000                	unimp
e0004472:	5130                	lw	a2,96(a0)
e0004474:	ffff                	0xffff
e0004476:	800e                	0x800e
e0004478:	a01c                	fsd	fa5,0(s0)
e000447a:	517a                	lw	sp,188(sp)
e000447c:	0000                	unimp
e000447e:	10c0                	addi	s0,sp,100
e0004480:	3934                	fld	fa3,112(a0)
e0004482:	28a8                	fld	fa0,80(s1)
e0004484:	cc50                	sw	a2,28(s0)
e0004486:	10c6                	slli	ra,ra,0x31
e0004488:	0000                	unimp
e000448a:	5130                	lw	a2,96(a0)
e000448c:	e170                	fsw	fa2,68(a0)
e000448e:	023011bf 00000752 	0x752023011bf
e0004496:	0150                	addi	a2,sp,132
e0004498:	8176                	mv	sp,t4
e000449a:	891f e13e a2e0      	0xa2e0e13e891f
e00044a0:	0000                	unimp
e00044a2:	fff0                	fsw	fa2,124(a5)
e00044a4:	f636                	fsw	fa3,44(sp)
e00044a6:	813e8b2f          	0x813e8b2f
e00044aa:	ae80                	fsd	fs0,24(a3)
e00044ac:	0000                	unimp
e00044ae:	fff0                	fsw	fa2,124(a5)
e00044b0:	5970                	lw	a2,116(a0)
e00044b2:	5030338f          	0x5030338f
e00044b6:	00e2                	slli	ra,ra,0x18
e00044b8:	0000                	unimp
e00044ba:	2b30                	fld	fa2,80(a4)
e00044bc:	1946                	slli	s2,s2,0x31
e00044be:	8e44                	0x8e44
e00044c0:	593e                	lw	s2,236(sp)
e00044c2:	8e58                	0x8e58
e00044c4:	0000                	unimp
e00044c6:	fff0                	fsw	fa2,124(a5)
e00044c8:	517c                	lw	a5,100(a0)
e00044ca:	0de2c8af          	0xde2c8af
e00044ce:	1880                	addi	s0,sp,112
e00044d0:	0000                	unimp
e00044d2:	0230                	addi	a2,sp,264
e00044d4:	10c6                	slli	ra,ra,0x31
e00044d6:	0b24                	addi	s1,sp,408
e00044d8:	513e                	lw	sp,236(sp)
e00044da:	9a50                	0x9a50
e00044dc:	0000                	unimp
e00044de:	fff0                	fsw	fa2,124(a5)
e00044e0:	00e2                	slli	ra,ra,0x18
e00044e2:	0a90                	addi	a2,sp,336
e00044e4:	10c0                	addi	s0,sp,100
e00044e6:	503c                	lw	a5,96(s0)
e00044e8:	0000                	unimp
e00044ea:	5850                	lw	a2,52(s0)
e00044ec:	00e2                	slli	ra,ra,0x18
e00044ee:	b000                	fsd	fs0,32(s0)
e00044f0:	5114                	lw	a3,32(a0)
e00044f2:	503c                	lw	a5,96(s0)
e00044f4:	0000                	unimp
e00044f6:	1080                	addi	s0,sp,96
e00044f8:	57da                	lw	a5,180(sp)
e00044fa:	8c75                	and	s0,s0,a3
e00044fc:	1084                	addi	s1,sp,96
e00044fe:	0114                	addi	a3,sp,128
e0004500:	0000                	unimp
e0004502:	5480                	lw	s0,40(s1)
e0004504:	0082                	slli	ra,ra,0x0
e0004506:	1ff0                	addi	a2,sp,1020
e0004508:	0a82                	slli	s5,s5,0x0
e000450a:	5030                	lw	a2,96(s0)
e000450c:	0000                	unimp
e000450e:	0230                	addi	a2,sp,264
e0004510:	00e2                	slli	ra,ra,0x18
e0004512:	3230                	fld	fa2,96(a2)
e0004514:	aa3e                	fsd	fa5,272(sp)
e0004516:	5030                	lw	a2,96(s0)
e0004518:	0000                	unimp
e000451a:	5630                	lw	a2,104(a2)
e000451c:	e974                	fsw	fa3,84(a0)
e000451e:	8c7f                	0x8c7f
e0004520:	d494                	sw	a3,40(s1)
e0004522:	885c                	0x885c
e0004524:	0000                	unimp
e0004526:	1080                	addi	s0,sp,96
e0004528:	2d16                	fld	fs10,320(sp)
e000452a:	c4d4                	sw	a3,12(s1)
e000452c:	e93e                	fsw	fa5,144(sp)
e000452e:	2ee8                	fld	fa0,216(a3)
e0004530:	0000                	unimp
e0004532:	fff0                	fsw	fa2,124(a5)
e0004534:	7c30                	flw	fa2,120(s0)
e0004536:	6c76                	flw	fs8,92(sp)
e0004538:	ffff                	0xffff
e000453a:	313e                	fld	ft2,488(sp)
e000453c:	0000                	unimp
e000453e:	3170                	fld	fa2,224(a0)
e0004540:	5544                	lw	s1,44(a0)
e0004542:	2a94                	fld	fa3,16(a3)
e0004544:	00e2                	slli	ra,ra,0x18
e0004546:	5480                	lw	s0,40(s1)
e0004548:	0000                	unimp
e000454a:	5030                	lw	a2,96(s0)
e000454c:	6cc0                	flw	fs0,28(s1)
e000454e:	26e4                	fld	fs1,200(a3)
e0004550:	e634                	fsw	fa3,72(a2)
e0004552:	6a3e                	flw	fs4,204(sp)
e0004554:	0000                	unimp
e0004556:	2c80                	fld	fs0,24(s1)
e0004558:	6ccc                	flw	fa1,28(s1)
e000455a:	9e44                	0x9e44
e000455c:	ac84                	fsd	fs1,24(s1)
e000455e:	78c4                	flw	fs1,52(s1)
e0004560:	0000                	unimp
e0004562:	69c0                	flw	fs0,20(a1)
e0004564:	0468                	addi	a0,sp,524
e0004566:	1000                	addi	s0,sp,32
e0004568:	150c                	addi	a1,sp,672
e000456a:	7934                	flw	fa3,112(a0)
e000456c:	0000                	unimp
e000456e:	1dc0                	addi	s0,sp,756
e0004570:	10cc                	addi	a1,sp,100
e0004572:	a914                	fsd	fa3,16(a0)
e0004574:	0f61                	addi	t5,t5,24
e0004576:	14c0                	addi	s0,sp,612
e0004578:	0000                	unimp
e000457a:	3630                	fld	fa2,104(a2)
e000457c:	10d5                	addi	ra,ra,-11
e000457e:	023c                	addi	a5,sp,264
e0004580:	10c1                	addi	ra,ra,-16
e0004582:	688c                	flw	fa1,16(s1)
e0004584:	0000                	unimp
e0004586:	5fd0                	lw	a2,60(a5)
e0004588:	28cc                	fld	fa1,144(s1)
e000458a:	9385                	srli	a5,a5,0x21
e000458c:	ed05                	bnez	a0,e00045c4 <hmac_smoketest+0x4038>
e000458e:	60c4                	flw	fs1,4(s1)
e0004590:	0000                	unimp
e0004592:	28c0                	fld	fs0,144(s1)
e0004594:	1868                	addi	a0,sp,60
e0004596:	0230                	addi	a2,sp,264
e0004598:	150c                	addi	a1,sp,672
e000459a:	7134                	flw	fa3,96(a0)
e000459c:	0000                	unimp
e000459e:	1d00                	addi	s0,sp,688
e00045a0:	423c                	lw	a5,64(a2)
e00045a2:	3b2a                	fld	fs6,168(sp)
e00045a4:	0e61                	addi	t3,t3,24
e00045a6:	14c0                	addi	s0,sp,612
e00045a8:	0000                	unimp
e00045aa:	3630                	fld	fa2,104(a2)
e00045ac:	10c1                	addi	ra,ra,-16
e00045ae:	4c7c                	lw	a5,92(s0)
e00045b0:	10c0                	addi	s0,sp,100
e00045b2:	5fd4                	lw	a3,60(a5)
e00045b4:	0000                	unimp
e00045b6:	2060                	fld	fs0,192(s0)
e00045b8:	6330                	flw	fa2,64(a4)
e00045ba:	0759                	addi	a4,a4,22
e00045bc:	5835                	li	a6,-19
e00045be:	00ea                	slli	ra,ra,0x1a
e00045c0:	0000                	unimp
e00045c2:	6c80                	flw	fs0,24(s1)
e00045c4:	0bea                	slli	s7,s7,0x1a
e00045c6:	5e40                	lw	s0,60(a2)
e00045c8:	dd10                	sw	a2,56(a0)
e00045ca:	0238                	addi	a4,sp,264
e00045cc:	0000                	unimp
e00045ce:	0a80                	addi	s0,sp,336
e00045d0:	14c9                	addi	s1,s1,-14
e00045d2:	6754                	flw	fa3,12(a4)
e00045d4:	2550                	fld	fa2,136(a0)
e00045d6:	51a0                	lw	s0,96(a1)
e00045d8:	0000                	unimp
e00045da:	5330                	lw	a2,96(a4)
e00045dc:	590c                	lw	a1,48(a0)
e00045de:	ce44                	sw	s1,28(a2)
e00045e0:	590c                	lw	a1,48(a0)
e00045e2:	6d04                	flw	fs1,24(a0)
e00045e4:	0000                	unimp
e00045e6:	68c0                	flw	fs0,20(s1)
e00045e8:	10cc                	addi	a1,sp,100
e00045ea:	ae44                	fsd	fs1,152(a2)
e00045ec:	59cc                	lw	a1,52(a1)
e00045ee:	ac8c                	fsd	fa1,24(s1)
e00045f0:	0000                	unimp
e00045f2:	25c0                	fld	fs0,136(a1)
e00045f4:	00e2                	slli	ra,ra,0x18
e00045f6:	0a90                	addi	a2,sp,336
e00045f8:	10c0                	addi	s0,sp,100
e00045fa:	503c                	lw	a5,96(s0)
e00045fc:	0000                	unimp
e00045fe:	5850                	lw	a2,52(s0)
e0004600:	0235                	addi	tp,tp,13
e0004602:	3912                	fld	fs2,288(sp)
e0004604:	d3d4                	sw	a3,36(a5)
e0004606:	57df 0000 1080      	0x1080000057df
e000460c:	5938                	lw	a4,112(a0)
e000460e:	48a0                	lw	s0,80(s1)
e0004610:	5010                	lw	a2,32(s0)
e0004612:	0824                	addi	s1,sp,24
e0004614:	0000                	unimp
e0004616:	0a80                	addi	s0,sp,336
e0004618:	5105                	li	sp,-31
e000461a:	8c7c                	0x8c7c
e000461c:	14c0                	addi	s0,sp,612
e000461e:	67dc                	flw	fa5,12(a5)
e0004620:	0000                	unimp
e0004622:	0850                	addi	a2,sp,20
e0004624:	0052                	0x52
e0004626:	66e0                	flw	fs0,76(a3)
e0004628:	90cc                	0x90cc
e000462a:	023c                	addi	a5,sp,264
e000462c:	0000                	unimp
e000462e:	54c0                	lw	s0,44(s1)
e0004630:	0820                	addi	s0,sp,24
e0004632:	4ff8                	lw	a4,92(a5)
e0004634:	8238                	0x8238
e0004636:	0052                	0x52
e0004638:	0000                	unimp
e000463a:	0820                	addi	s0,sp,24
e000463c:	6904                	flw	fs1,16(a0)
e000463e:	956c                	0x956c
e0004640:	1544                	addi	s1,sp,676
e0004642:	90c4                	0x90c4
e0004644:	0000                	unimp
e0004646:	5100                	lw	s0,32(a0)
e0004648:	3634                	fld	fa3,104(a2)
e000464a:	7759                	lui	a4,0xffff6
e000464c:	2544                	fld	fs1,136(a0)
e000464e:	1d4c                	addi	a1,sp,692
e0004650:	0000                	unimp
e0004652:	5100                	lw	s0,32(a0)
e0004654:	0052                	0x52
e0004656:	6380                	flw	fs0,0(a5)
e0004658:	1d00                	addi	s0,sp,688
e000465a:	823c                	0x823c
e000465c:	0000                	unimp
e000465e:	0a60                	addi	s0,sp,284
e0004660:	188c                	addi	a1,sp,112
e0004662:	1914                	addi	a3,sp,176
e0004664:	57d4                	lw	a3,44(a5)
e0004666:	1881                	addi	a7,a7,-32
e0004668:	0000                	unimp
e000466a:	1880                	addi	s0,sp,112
e000466c:	422c                	lw	a1,64(a2)
e000466e:	6ffc                	flw	fa5,92(a5)
e0004670:	1418                	addi	a4,sp,544
e0004672:	6061                	0x6061
e0004674:	0000                	unimp
e0004676:	0820                	addi	s0,sp,24
e0004678:	9418                	0x9418
e000467a:	01b9                	addi	gp,gp,14
e000467c:	04ac                	addi	a1,sp,584
e000467e:	42ac                	lw	a1,64(a3)
e0004680:	0000                	unimp
e0004682:	2260                	fld	fs0,192(a2)
e0004684:	3630                	fld	fa2,104(a2)
e0004686:	cff6                	sw	t4,220(sp)
e0004688:	5930                	lw	a2,112(a0)
e000468a:	00000f47          	fmsub.s	ft10,ft0,ft0,ft0,rne
e000468e:	5410                	lw	a2,40(s0)
e0004690:	42ac                	lw	a1,64(a3)
e0004692:	3a98                	fld	fa4,48(a3)
e0004694:	5010                	lw	a2,32(s0)
e0004696:	1914                	addi	a3,sp,176
e0004698:	0000                	unimp
e000469a:	0a40                	addi	s0,sp,276
e000469c:	513e                	lw	sp,236(sp)
e000469e:	5dc0                	lw	s0,60(a1)
e00046a0:	ffff5173          	csrrwi	sp,0xfff,30
e00046a4:	0000                	unimp
e00046a6:	3150                	fld	fa2,160(a0)
e00046a8:	819c                	0x819c
e00046aa:	54de                	lw	s1,244(sp)
e00046ac:	1045                	c.addi	zero,-15
e00046ae:	0994                	addi	a3,sp,208
e00046b0:	0000                	unimp
e00046b2:	6a50                	flw	fa2,20(a2)
e00046b4:	593e                	lw	s2,236(sp)
e00046b6:	bff8                	fsd	fa4,248(a5)
e00046b8:	597a                	lw	s2,188(sp)
e00046ba:	ffff                	0xffff
e00046bc:	0000                	unimp
e00046be:	0810                	addi	a2,sp,16
e00046c0:	f05f 291f 5c16      	0x5c16291ff05f
e00046c6:	4930                	lw	a2,80(a0)
e00046c8:	0000                	unimp
e00046ca:	4250                	lw	a2,4(a2)
e00046cc:	ffff                	0xffff
e00046ce:	491e                	lw	s2,196(sp)
e00046d0:	41dc                	lw	a5,4(a1)
e00046d2:	517c                	lw	a5,100(a0)
e00046d4:	0000                	unimp
e00046d6:	1040                	addi	s0,sp,36
e00046d8:	0052                	0x52
e00046da:	44d0                	lw	a2,12(s1)
e00046dc:	4c50                	lw	a2,28(s0)
e00046de:	9035                	srli	s0,s0,0x2d
e00046e0:	0000                	unimp
e00046e2:	5130                	lw	a2,96(a0)
e00046e4:	045d                	addi	s0,s0,23
e00046e6:	bff0                	fsd	fa2,248(a5)
e00046e8:	0890                	addi	a2,sp,80
e00046ea:	6130                	flw	fa2,64(a0)
e00046ec:	0000                	unimp
e00046ee:	5b30                	lw	a2,112(a4)
e00046f0:	fe400b93          	li	s7,-28
e00046f4:	6b37ff63          	bleu	s3,a5,e0004db2 <hmac_smoketest+0x4826>
e00046f8:	0000                	unimp
e00046fa:	6130                	flw	fa2,64(a0)
e00046fc:	1fdc                	addi	a5,sp,1012
e00046fe:	6198c913          	xori	s2,a7,1561
e0004702:	10cc                	addi	a1,sp,100
e0004704:	0000                	unimp
e0004706:	e750                	fsw	fa2,12(a4)
e0004708:	0290                	addi	a2,sp,320
e000470a:	856a                	mv	a0,s10
e000470c:	533c                	lw	a5,96(a4)
e000470e:	1248                	addi	a0,sp,292
e0004710:	0000                	unimp
e0004712:	4890                	lw	a2,16(s1)
e0004714:	5018                	lw	a4,32(s0)
e0004716:	7384                	flw	fs1,32(a5)
e0004718:	57fe0ef3          	0x57fe0ef3
e000471c:	0000                	unimp
e000471e:	1d50                	addi	a2,sp,692
e0004720:	0b24                	addi	s1,sp,408
e0004722:	16e4                	addi	s1,sp,876
e0004724:	4924                	lw	s1,80(a0)
e0004726:	4224                	lw	s1,64(a2)
e0004728:	0000                	unimp
e000472a:	9020                	0x9020
e000472c:	5058                	lw	a4,36(s0)
e000472e:	2dc4                	fld	fs1,152(a1)
e0004730:	0820                	addi	s0,sp,24
e0004732:	0828                	addi	a0,sp,24
e0004734:	0000                	unimp
e0004736:	1410                	addi	a2,sp,544
e0004738:	11d8                	addi	a4,sp,228
e000473a:	50584ff7          	0x50584ff7
e000473e:	0824                	addi	s1,sp,24
e0004740:	0000                	unimp
e0004742:	0820                	addi	s0,sp,24
e0004744:	84ad                	srai	s1,s1,0xb
e0004746:	0a9d                	addi	s5,s5,7
e0004748:	c22d                	beqz	a2,e00047aa <hmac_smoketest+0x421e>
e000474a:	a26d                	j	e00048f4 <hmac_smoketest+0x4368>
e000474c:	0000                	unimp
e000474e:	e060                	fsw	fs0,68(s0)
e0004750:	05ad                	addi	a1,a1,11
e0004752:	81bd                	srli	a1,a1,0xf
e0004754:	452d                	li	a0,11
e0004756:	256d                	jal	e0004e00 <hmac_smoketest+0x4874>
e0004758:	0000                	unimp
e000475a:	64e0                	flw	fs0,76(s1)
e000475c:	86ac                	0x86ac
e000475e:	8c7c                	0x8c7c
e0004760:	c62c                	sw	a1,72(a2)
e0004762:	a66c                	fsd	fa1,200(a2)
e0004764:	0000                	unimp
e0004766:	e5e0                	fsw	fs0,76(a1)
e0004768:	ec64                	fsw	fs1,92(s0)
e000476a:	5a9c                	lw	a5,48(a3)
e000476c:	4aac                	lw	a1,80(a3)
e000476e:	a018                	fsd	fa4,0(s0)
e0004770:	0000                	unimp
e0004772:	66e0                	flw	fs0,76(a3)
e0004774:	6b6c                	flw	fa1,84(a4)
e0004776:	0a9c                	addi	a5,sp,336
e0004778:	abec                	fsd	fa1,208(a5)
e000477a:	8bac                	0x8bac
e000477c:	0000                	unimp
e000477e:	cc20                	sw	s0,88(s0)
e0004780:	4410                	lw	a2,8(s0)
e0004782:	ca90                	sw	a2,16(a3)
e0004784:	2aec                	fld	fa1,208(a3)
e0004786:	c93c                	sw	a5,80(a0)
e0004788:	0000                	unimp
e000478a:	4b20                	lw	s0,80(a4)
e000478c:	9930                	0x9930
e000478e:	68a0                	flw	fs0,80(s1)
e0004790:	913c                	0x913c
e0004792:	2500                	fld	fs0,8(a0)
e0004794:	0000                	unimp
e0004796:	2660                	fld	fs0,200(a2)
e0004798:	aa50                	fsd	fa2,144(a2)
e000479a:	eff4                	fsw	fa3,92(a5)
e000479c:	b130                	fsd	fa2,96(a0)
e000479e:	3000                	fld	fs0,32(s0)
e00047a0:	0000                	unimp
e00047a2:	2d00                	fld	fs0,24(a0)
e00047a4:	c130                	sw	a2,64(a0)
e00047a6:	cc70                	sw	a2,92(s0)
e00047a8:	b934                	fsd	fa3,112(a0)
e00047aa:	7200                	flw	fs0,32(a2)
e00047ac:	0000                	unimp
e00047ae:	4290                	lw	a2,0(a3)
e00047b0:	d130                	sw	a2,96(a0)
e00047b2:	9ff0                	0x9ff0
e00047b4:	d930                	sw	a2,112(a0)
e00047b6:	7800                	flw	fs0,48(s0)
e00047b8:	0000                	unimp
e00047ba:	5800                	lw	s0,48(s0)
e00047bc:	4630                	lw	a2,72(a2)
e00047be:	d560                	sw	s0,108(a0)
e00047c0:	5030                	lw	a2,96(s0)
e00047c2:	004c                	addi	a1,sp,4
e00047c4:	0000                	unimp
e00047c6:	7500                	flw	fs0,40(a0)
e00047c8:	603a                	flw	ft0,140(sp)
e00047ca:	d6ec                	sw	a1,108(a3)
e00047cc:	d190                	sw	a2,32(a1)
e00047ce:	211e                	fld	ft2,448(sp)
e00047d0:	0000                	unimp
e00047d2:	1250                	addi	a2,sp,292
e00047d4:	8630                	0x8630
e00047d6:	5ff0                	lw	a2,124(a5)
e00047d8:	5930                	lw	a2,112(a0)
e00047da:	0148                	addi	a0,sp,132
e00047dc:	0000                	unimp
e00047de:	0140                	addi	s0,sp,132
e00047e0:	9630                	0x9630
e00047e2:	2e40                	fld	fs0,152(a2)
e00047e4:	a630                	fsd	fa2,72(a2)
e00047e6:	1360                	addi	s0,sp,428
e00047e8:	0000                	unimp
e00047ea:	1260                	addi	s0,sp,300
e00047ec:	4aea                	lw	s5,152(sp)
e00047ee:	b758                	fsd	fa4,168(a4)
e00047f0:	6010                	flw	fa2,0(s0)
e00047f2:	8014                	0x8014
e00047f4:	0000                	unimp
e00047f6:	e060                	fsw	fs0,68(s0)
e00047f8:	593a                	lw	s2,172(sp)
e00047fa:	dc78                	sw	a4,124(s0)
e00047fc:	a052                	fsd	fs4,0(sp)
e00047fe:	0c50                	addi	a2,sp,532
e0004800:	0000                	unimp
e0004802:	6210                	flw	fa2,0(a2)
e0004804:	0266                	slli	tp,tp,0x19
e0004806:	e6e0                	fsw	fs0,76(a3)
e0004808:	6050                	flw	fa2,4(s0)
e000480a:	6934                	flw	fa3,80(a0)
e000480c:	0000                	unimp
e000480e:	0240                	addi	s0,sp,260
e0004810:	014c                	addi	a1,sp,132
e0004812:	4910                	lw	a2,16(a0)
e0004814:	ff58                	fsw	fa4,60(a4)
e0004816:	0000503f be384930 	0xbe3849300000503f
e000481e:	d910                	sw	a2,48(a0)
e0004820:	4858                	lw	a4,20(s0)
e0004822:	6360                	flw	fs0,68(a4)
e0004824:	0000                	unimp
e0004826:	7320                	flw	fs0,96(a4)
e0004828:	681f 48a4 593f      	0x593f48a4681f
e000482e:	d050                	sw	a2,36(s0)
e0004830:	0000                	unimp
e0004832:	f650                	fsw	fa2,44(a2)
e0004834:	2bae                	fld	fs7,200(sp)
e0004836:	d000                	sw	s0,32(s0)
e0004838:	ff5f 5630 0000      	0x5630ff5f
e000483e:	5930                	lw	a2,112(a0)
e0004840:	5030                	lw	a2,96(s0)
e0004842:	700c                	flw	fa1,32(s0)
e0004844:	6138                	flw	fa4,64(a0)
e0004846:	0000ff57          	pv.add.sci.b	t5,ra,0
e000484a:	5a60                	lw	s0,116(a2)
e000484c:	6360                	flw	fs0,68(a4)
e000484e:	1009                	c.addi	zero,-30
e0004850:	6b30                	flw	fa2,80(a4)
e0004852:	2868                	fld	fa0,208(s0)
e0004854:	0000                	unimp
e0004856:	0150                	addi	a2,sp,132
e0004858:	d050                	sw	a2,36(s0)
e000485a:	aa9f 0158 5930      	0x59300158aa9f
e0004860:	0000                	unimp
e0004862:	4930                	lw	a2,80(a0)
e0004864:	d060                	sw	s0,100(s0)
e0004866:	7c7f                	0x7c7f
e0004868:	ff5f 6930 0000      	0x6930ff5f
e000486e:	7930                	flw	fa2,112(a0)
e0004870:	5dcc463f e87e0e38 	0xe87e0e385dcc463f
e0004878:	0000                	unimp
e000487a:	5a60                	lw	s0,116(a2)
e000487c:	5930                	lw	a2,112(a0)
e000487e:	0c70                	addi	a2,sp,540
e0004880:	3630                	fld	fa2,104(a2)
e0004882:	5850                	lw	a2,52(s0)
e0004884:	0000                	unimp
e0004886:	2ab0                	fld	fa2,80(a3)
e0004888:	5930                	lw	a2,112(a0)
e000488a:	91b0                	0x91b0
e000488c:	6630                	flw	fa2,72(a2)
e000488e:	4b50                	lw	a2,20(a4)
e0004890:	0000                	unimp
e0004892:	6300                	flw	fs0,0(a4)
e0004894:	5030                	lw	a2,96(s0)
e0004896:	ae4a                	fsd	fs2,280(sp)
e0004898:	d630                	sw	a2,104(a2)
e000489a:	6b51                	lui	s6,0x14
e000489c:	0000                	unimp
e000489e:	6400                	flw	fs0,8(s0)
e00048a0:	6054                	flw	fa3,4(s0)
e00048a2:	fdc4                	fsw	fs1,60(a1)
e00048a4:	c910                	sw	a2,16(a0)
e00048a6:	5a90                	lw	a2,48(a3)
e00048a8:	0000                	unimp
e00048aa:	00c0                	addi	s0,sp,68
e00048ac:	563a                	lw	a2,172(sp)
e00048ae:	1910                	addi	a2,sp,176
e00048b0:	6100                	flw	fs0,0(a0)
e00048b2:	0950                	addi	a2,sp,148
e00048b4:	0000                	unimp
e00048b6:	7930                	flw	fa2,112(a0)
e00048b8:	5930                	lw	a2,112(a0)
e00048ba:	ca90                	sw	a2,16(a3)
e00048bc:	8630                	0x8630
e00048be:	5a50                	lw	a2,52(a2)
e00048c0:	0000                	unimp
e00048c2:	5b50                	lw	a2,52(a4)
e00048c4:	5030                	lw	a2,96(s0)
e00048c6:	991a                	add	s2,s2,t1
e00048c8:	d630                	sw	a2,104(a2)
e00048ca:	4b51                	li	s6,20
e00048cc:	0000                	unimp
e00048ce:	7300                	flw	fs0,32(a4)
e00048d0:	0001                	nop
e00048d2:	3560                	fld	fs0,232(a0)
e00048d4:	5090                	lw	a2,32(s1)
e00048d6:	517e                	lw	sp,252(sp)
e00048d8:	0000                	unimp
e00048da:	00c0                	addi	s0,sp,68
e00048dc:	00d0                	addi	a2,sp,68
e00048de:	88aa                	mv	a7,a0
e00048e0:	f150                	fsw	fa2,36(a0)
e00048e2:	c915                	beqz	a0,e0004916 <hmac_smoketest+0x438a>
e00048e4:	0000                	unimp
e00048e6:	5130                	lw	a2,96(a0)
e00048e8:	5c10                	lw	a2,56(s0)
e00048ea:	e4d4                	fsw	fa3,12(s1)
e00048ec:	00ca                	slli	ra,ra,0x12
e00048ee:	c910                	sw	a2,16(a0)
e00048f0:	0000                	unimp
e00048f2:	5030                	lw	a2,96(s0)
e00048f4:	503a                	0x503a
e00048f6:	d00a                	sw	sp,32(sp)
e00048f8:	4100                	lw	s0,0(a0)
e00048fa:	80d0                	0x80d0
e00048fc:	0000                	unimp
e00048fe:	7930                	flw	fa2,112(a0)
e0004900:	0a10                	addi	a2,sp,272
e0004902:	d1b0                	sw	a2,96(a1)
e0004904:	c910                	sw	a2,16(a0)
e0004906:	5230                	lw	a2,96(a2)
e0004908:	0000                	unimp
e000490a:	00c0                	addi	s0,sp,68
e000490c:	0a10                	addi	a2,sp,272
e000490e:	d1b0                	sw	a2,96(a1)
e0004910:	0010                	addi	a2,sp,0
e0004912:	5130                	lw	a2,96(a0)
e0004914:	0000                	unimp
e0004916:	5a30                	lw	a2,112(a2)
e0004918:	8312                	mv	t1,tp
e000491a:	21ba                	fld	ft3,392(sp)
e000491c:	63a8                	flw	fa0,64(a5)
e000491e:	0918                	addi	a4,sp,144
e0004920:	0000                	unimp
e0004922:	5b60                	lw	s0,116(a4)
e0004924:	5c10                	lw	a2,56(s0)
e0004926:	e4d4                	fsw	fa3,12(s1)
e0004928:	00ca                	slli	ra,ra,0x12
e000492a:	c910                	sw	a2,16(a0)
e000492c:	0000                	unimp
e000492e:	5030                	lw	a2,96(s0)
e0004930:	c910                	sw	a2,16(a0)
e0004932:	ce40                	sw	s0,28(a2)
e0004934:	503a                	0x503a
e0004936:	00ca                	slli	ra,ra,0x12
e0004938:	0000                	unimp
e000493a:	0290                	addi	a2,sp,320
e000493c:	6010                	flw	fa2,0(s0)
e000493e:	68a4                	flw	fs1,80(s1)
e0004940:	7934                	flw	fa3,112(a0)
e0004942:	6100                	flw	fs0,0(a0)
e0004944:	0000                	unimp
e0004946:	5a90                	lw	a2,48(a3)
e0004948:	dd50                	sw	a2,60(a0)
e000494a:	a2a2b1bb          	0xa2a2b1bb
e000494e:	4859                	li	a6,22
e0004950:	0000                	unimp
e0004952:	8d50                	0x8d50
e0004954:	cd24                	sw	s1,88(a0)
e0004956:	3384                	fld	fs1,32(a5)
e0004958:	db28                	sw	a0,112(a4)
e000495a:	d424                	sw	s1,104(s0)
e000495c:	0000                	unimp
e000495e:	5520                	lw	s0,104(a0)
e0004960:	a925                	j	e0004d98 <hmac_smoketest+0x480c>
e0004962:	e915                	bnez	a0,e0004996 <hmac_smoketest+0x440a>
e0004964:	bf24                	fsd	fs1,120(a4)
e0004966:	b024                	fsd	fs1,96(s0)
e0004968:	0000                	unimp
e000496a:	c620                	sw	s0,72(a2)
e000496c:	4d25                	li	s10,9
e000496e:	7a95                	lui	s5,0xfffe5
e0004970:	9b25                	andi	a4,a4,-23
e0004972:	9425                	srai	s0,s0,0x29
e0004974:	0000                	unimp
e0004976:	a220                	fsd	fs0,64(a2)
e0004978:	0826                	slli	a6,a6,0x9
e000497a:	1918                	addi	a4,sp,176
e000497c:	0f25                	addi	t5,t5,9
e000497e:	1255                	addi	tp,tp,-11
e0004980:	0000                	unimp
e0004982:	4620                	lw	s0,72(a2)
e0004984:	a26c                	fsd	fa1,192(a2)
e0004986:	b56c                	fsd	fa1,232(a0)
e0004988:	e061                	bnez	s0,e0004a48 <hmac_smoketest+0x44bc>
e000498a:	c22c                	sw	a1,64(a2)
e000498c:	0000                	unimp
e000498e:	1010                	addi	a2,sp,32
e0004990:	256c                	fld	fa1,200(a0)
e0004992:	f75c                	fsw	fa5,44(a4)
e0004994:	64ec                	flw	fa1,76(s1)
e0004996:	452c                	lw	a1,72(a0)
e0004998:	0000                	unimp
e000499a:	84a0                	0x84a0
e000499c:	2b05                	jal	e0004ecc <hmac_smoketest+0x4940>
e000499e:	48a0                	lw	s0,80(s1)
e00049a0:	92a8                	0x92a8
e00049a2:	4638                	lw	a4,72(a2)
e00049a4:	0000                	unimp
e00049a6:	a2e0                	fsd	fs0,192(a3)
e00049a8:	681c                	flw	fa5,16(s0)
e00049aa:	c004                	sw	s1,0(s0)
e00049ac:	0094                	addi	a3,sp,64
e00049ae:	5050                	lw	a2,36(s0)
e00049b0:	0000                	unimp
e00049b2:	5030                	lw	a2,96(s0)
e00049b4:	0d58                	addi	a4,sp,660
e00049b6:	4b20                	lw	s0,80(a4)
e00049b8:	0190                	addi	a2,sp,192
e00049ba:	5330                	lw	a2,96(a4)
e00049bc:	0000                	unimp
e00049be:	5930                	lw	a2,112(a0)
e00049c0:	0168                	addi	a0,sp,140
e00049c2:	2560                	fld	fs0,200(a0)
e00049c4:	0054                	addi	a3,sp,4
e00049c6:	5130                	lw	a2,96(a0)
e00049c8:	0000                	unimp
e00049ca:	7030                	flw	fa2,96(s0)
e00049cc:	1454                	addi	a3,sp,548
e00049ce:	74d0                	flw	fa2,44(s1)
e00049d0:	b6d8                	fsd	fa4,168(a3)
e00049d2:	0000b63f 99346aa0 	0x99346aa00000b63f
e00049da:	86e0                	0x86e0
e00049dc:	8114                	0x8114
e00049de:	481a                	lw	a6,132(sp)
e00049e0:	0000                	unimp
e00049e2:	5810                	lw	a2,48(s0)
e00049e4:	9e34                	0x9e34
e00049e6:	0e45                	addi	t3,t3,17
e00049e8:	0b10                	addi	a2,sp,400
e00049ea:	501a                	0x501a
e00049ec:	0000                	unimp
e00049ee:	2000                	fld	fs0,0(s0)
e00049f0:	6934                	flw	fa3,80(a0)
e00049f2:	5b3f48a7          	0x5b3f48a7
e00049f6:	0aa0                	addi	s0,sp,344
e00049f8:	0000                	unimp
e00049fa:	f450                	fsw	fa2,44(s0)
e00049fc:	2990                	fld	fa2,16(a1)
e00049fe:	81bc                	0x81bc
e0004a00:	9930                	0x9930
e0004a02:	2000                	fld	fs0,0(s0)
e0004a04:	0000                	unimp
e0004a06:	0260                	addi	s0,sp,268
e0004a08:	6138                	flw	fa4,64(a0)
e0004a0a:	30005b23          	0x30005b23
e0004a0e:	a050                	fsd	fa2,128(s0)
e0004a10:	0000                	unimp
e0004a12:	9930                	0x9930
e0004a14:	e750                	fsw	fa2,12(a4)
e0004a16:	5c78                	lw	a4,124(s0)
e0004a18:	6b30                	flw	fa2,80(a4)
e0004a1a:	0b02                	slli	s6,s6,0x0
e0004a1c:	0000                	unimp
e0004a1e:	0160                	addi	s0,sp,140
e0004a20:	0aa0                	addi	s0,sp,344
e0004a22:	86e4                	0x86e4
e0004a24:	401c                	lw	a5,0(s0)
e0004a26:	4b34                	lw	a3,80(a4)
e0004a28:	0000                	unimp
e0004a2a:	20d0                	fld	fa2,128(s1)
e0004a2c:	47d2                	lw	a5,20(sp)
e0004a2e:	1001                	c.addi	zero,-32
e0004a30:	54e4                	lw	s1,108(s1)
e0004a32:	2718                	fld	fa4,8(a4)
e0004a34:	0000                	unimp
e0004a36:	a850                	fsd	fa2,144(s0)
e0004a38:	01a0                	addi	s0,sp,200
e0004a3a:	8a90                	0x8a90
e0004a3c:	0848                	addi	a0,sp,20
e0004a3e:	5130                	lw	a2,96(a0)
e0004a40:	0000                	unimp
e0004a42:	a330                	fsd	fa2,64(a4)
e0004a44:	0800                	addi	s0,sp,16
e0004a46:	6a94                	flw	fa3,16(a3)
e0004a48:	eaac                	fsw	fa1,80(a3)
e0004a4a:	00004b3f 50389e30 	0x50389e3000004b3f
e0004a52:	0234                	addi	a3,sp,264
e0004a54:	481a                	lw	a6,132(sp)
e0004a56:	a2e4                	fsd	fs1,192(a3)
e0004a58:	0000                	unimp
e0004a5a:	0190                	addi	a2,sp,192
e0004a5c:	0190                	addi	a2,sp,192
e0004a5e:	c4d0                	sw	a2,12(s1)
e0004a60:	9190                	0x9190
e0004a62:	413c                	lw	a5,64(a0)
e0004a64:	0000                	unimp
e0004a66:	0090                	addi	a2,sp,64
e0004a68:	5032                	0x5032
e0004a6a:	2ff4                	fld	fa3,216(a5)
e0004a6c:	2950ff57          	pv.minu.sci.b	t5,ra,10
e0004a70:	0000                	unimp
e0004a72:	5130                	lw	a2,96(a0)
e0004a74:	96d0                	0x96d0
e0004a76:	48508b2f          	0x48508b2f
e0004a7a:	4050                	lw	a2,4(s0)
e0004a7c:	0000                	unimp
e0004a7e:	0040                	addi	s0,sp,4
e0004a80:	54e9                	li	s1,-6
e0004a82:	98a8                	0x98a8
e0004a84:	1405                	addi	s0,s0,-31
e0004a86:	4d20                	lw	s0,88(a0)
e0004a88:	0000                	unimp
e0004a8a:	8630                	0x8630
e0004a8c:	e0a1                	bnez	s1,e0004acc <hmac_smoketest+0x4540>
e0004a8e:	a7d2e8af          	0xa7d2e8af
e0004a92:	de31                	beqz	a2,e00049ee <hmac_smoketest+0x4462>
e0004a94:	0000                	unimp
e0004a96:	a810                	fsd	fa2,16(s0)
e0004a98:	9b24                	0x9b24
e0004a9a:	d6e4                	sw	s1,108(a3)
e0004a9c:	a928                	fsd	fa0,80(a0)
e0004a9e:	a224                	fsd	fs1,64(a2)
e0004aa0:	0000                	unimp
e0004aa2:	5260                	lw	s0,100(a2)
e0004aa4:	0f24                	addi	s1,sp,920
e0004aa6:	5a94                	lw	a3,48(a3)
e0004aa8:	4d24                	lw	s1,88(a0)
e0004aaa:	4624                	lw	s1,72(a2)
e0004aac:	0000                	unimp
e0004aae:	9420                	0x9420
e0004ab0:	300de067          	0x300de067
e0004ab4:	0826                	slli	a6,a6,0x9
e0004ab6:	1398                	addi	a4,sp,480
e0004ab8:	0000                	unimp
e0004aba:	1050                	addi	a2,sp,36
e0004abc:	64ed                	lui	s1,0x1b
e0004abe:	e56d                	bnez	a0,e0004ba8 <hmac_smoketest+0x461c>
e0004ac0:	a26d                	j	e0004c6a <hmac_smoketest+0x46de>
e0004ac2:	84ad                	srai	s1,s1,0xb
e0004ac4:	0000                	unimp
e0004ac6:	c220                	sw	s0,64(a2)
e0004ac8:	633c                	flw	fa5,64(a4)
e0004aca:	9b68e6e3          	bltu	a7,s6,e0004476 <hmac_smoketest+0x3eea>
e0004ace:	d398                	sw	a4,32(a5)
e0004ad0:	0000                	unimp
e0004ad2:	93a0                	0x93a0
e0004ad4:	891b693f f6586930 	0xf6586930891b693f
e0004adc:	0000                	unimp
e0004ade:	0c00                	addi	s0,sp,528
e0004ae0:	0052                	0x52
e0004ae2:	db20                	sw	s0,112(a4)
e0004ae4:	e750                	fsw	fa2,12(a4)
e0004ae6:	6938                	flw	fa4,80(a0)
e0004ae8:	0000                	unimp
e0004aea:	0160                	addi	s0,sp,140
e0004aec:	0080                	addi	s0,sp,64
e0004aee:	1000                	addi	s0,sp,32
e0004af0:	46300d67          	jalr	s10,1123(zero) # 463 <_min_stack-0x1b9d>
e0004af4:	0000                	unimp
e0004af6:	8330                	0x8330
e0004af8:	2b10                	fld	fa2,16(a4)
e0004afa:	6000                	flw	fs0,0(s0)
e0004afc:	0a00                	addi	s0,sp,272
e0004afe:	6934                	flw	fa3,80(a0)
e0004b00:	0000                	unimp
e0004b02:	5330                	lw	a2,96(a4)
e0004b04:	5630                	lw	a2,104(a2)
e0004b06:	8b29                	andi	a4,a4,10
e0004b08:	5a34                	lw	a3,112(a2)
e0004b0a:	2010                	fld	fa2,0(s0)
e0004b0c:	0000                	unimp
e0004b0e:	6410                	flw	fa2,8(s0)
e0004b10:	c678                	sw	a4,76(a2)
e0004b12:	1dc0                	addi	s0,sp,756
e0004b14:	5690                	lw	a2,40(a3)
e0004b16:	613c                	flw	fa5,64(a0)
e0004b18:	0000                	unimp
e0004b1a:	4c50                	lw	a2,28(s0)
e0004b1c:	93d8                	0x93d8
e0004b1e:	88a8                	0x88a8
e0004b20:	7c14                	flw	fa3,56(s0)
e0004b22:	4aa4                	lw	s1,80(a3)
e0004b24:	0000                	unimp
e0004b26:	7250                	flw	fa2,36(a2)
e0004b28:	5810                	lw	a2,48(s0)
e0004b2a:	44d4                	lw	a3,12(s1)
e0004b2c:	3638                	fld	fa4,104(a2)
e0004b2e:	0a76                	slli	s4,s4,0x1d
e0004b30:	0000                	unimp
e0004b32:	5b20                	lw	s0,112(a4)
e0004b34:	4130                	lw	a2,64(a0)
e0004b36:	0ff8                	addi	a4,sp,988
e0004b38:	5139                	li	sp,-18
e0004b3a:	3050                	fld	fa2,160(s0)
e0004b3c:	0000                	unimp
e0004b3e:	52e0                	lw	s0,100(a3)
e0004b40:	491d513f ea68fa3f 	0xea68fa3f491d513f
e0004b48:	0000                	unimp
e0004b4a:	ff60                	fsw	fs0,124(a4)
e0004b4c:	14dfef4f          	fnmadd.h	t5,t6,a3,sp,unknown
e0004b50:	6a20                	flw	fs0,80(a2)
e0004b52:	0e38                	addi	a4,sp,792
e0004b54:	0000                	unimp
e0004b56:	0440                	addi	s0,sp,516
e0004b58:	6230                	flw	fa2,64(a2)
e0004b5a:	51b0                	lw	a2,96(a1)
e0004b5c:	513a                	lw	sp,172(sp)
e0004b5e:	3000                	fld	fs0,32(s0)
e0004b60:	0000                	unimp
e0004b62:	89d0                	0x89d0
e0004b64:	0680                	addi	s0,sp,832
e0004b66:	2000                	fld	fs0,0(s0)
e0004b68:	6a30                	flw	fa2,80(a2)
e0004b6a:	0010                	addi	a2,sp,0
e0004b6c:	0000                	unimp
e0004b6e:	0a10                	addi	a2,sp,272
e0004b70:	fc7a0553          	0xfc7a0553
e0004b74:	64a8                	flw	fa0,72(s1)
e0004b76:	d558                	sw	a4,44(a0)
e0004b78:	0000                	unimp
e0004b7a:	5ce0                	lw	s0,124(s1)
e0004b7c:	5931                	li	s2,-20
e0004b7e:	2238                	fld	fa4,64(a2)
e0004b80:	5b7c                	lw	a5,116(a4)
e0004b82:	999a                	add	s3,s3,t1
e0004b84:	0000                	unimp
e0004b86:	1510                	addi	a2,sp,672
e0004b88:	7d98                	flw	fa4,56(a1)
e0004b8a:	b235                	j	e00044b6 <hmac_smoketest+0x3f2a>
e0004b8c:	7139                	addi	sp,sp,-64
e0004b8e:	a418                	fsd	fa4,8(s0)
e0004b90:	0000                	unimp
e0004b92:	9950                	0x9950
e0004b94:	0155                	addi	sp,sp,21
e0004b96:	4910                	lw	a2,16(a0)
e0004b98:	2b50                	fld	fa2,144(a4)
e0004b9a:	4930                	lw	a2,80(a0)
e0004b9c:	0000                	unimp
e0004b9e:	6330                	flw	fa2,64(a4)
e0004ba0:	6220                	flw	fs0,64(a2)
e0004ba2:	f6e9                	bnez	a3,e0004b6c <hmac_smoketest+0x45e0>
e0004ba4:	4139                	li	sp,14
e0004ba6:	0355                	addi	t1,t1,21
e0004ba8:	0000                	unimp
e0004baa:	6260                	flw	fs0,68(a2)
e0004bac:	0060                	addi	s0,sp,12
e0004bae:	61b0                	flw	fa2,64(a1)
e0004bb0:	63a8                	flw	fa0,64(a5)
e0004bb2:	6039                	0x6039
e0004bb4:	0000                	unimp
e0004bb6:	2710                	fld	fa2,8(a4)
e0004bb8:	0255                	addi	tp,tp,21
e0004bba:	e910                	fsw	fa2,16(a0)
e0004bbc:	3060                	fld	fs0,224(s0)
e0004bbe:	4130                	lw	a2,64(a0)
e0004bc0:	0000                	unimp
e0004bc2:	6130                	flw	fa2,64(a0)
e0004bc4:	4a20                	lw	s0,80(a2)
e0004bc6:	a6e9                	j	e0004f90 <hmac_smoketest+0x4a04>
e0004bc8:	4139                	li	sp,14
e0004bca:	044d                	addi	s0,s0,19
e0004bcc:	0000                	unimp
e0004bce:	4a20                	lw	s0,80(a2)
e0004bd0:	4139                	li	sp,14
e0004bd2:	f1bd                	bnez	a1,e0004b38 <hmac_smoketest+0x45ac>
e0004bd4:	084d                	addi	a6,a6,19
e0004bd6:	4a20                	lw	s0,80(a2)
e0004bd8:	0000                	unimp
e0004bda:	4130                	lw	a2,64(a0)
e0004bdc:	4338                	lw	a4,64(a4)
e0004bde:	8ff8                	0x8ff8
e0004be0:	4a20                	lw	s0,80(a2)
e0004be2:	08d9                	addi	a7,a7,22
e0004be4:	0000                	unimp
e0004be6:	1040                	addi	s0,sp,36
e0004be8:	ff68                	fsw	fa0,124(a4)
e0004bea:	5220623f 00004139 	0x41395220623f
e0004bf2:	2f40                	fld	fs0,152(a4)
e0004bf4:	fa39                	bnez	a2,e0004b4a <hmac_smoketest+0x45be>
e0004bf6:	f388                	fsw	fa0,32(a5)
e0004bf8:	1110                	addi	a2,sp,160
e0004bfa:	5268                	lw	a0,100(a2)
e0004bfc:	0000                	unimp
e0004bfe:	5190                	lw	a2,32(a1)
e0004c00:	c910663f 95586a2f 	0x95586a2fc910663f
e0004c08:	0000                	unimp
e0004c0a:	ec60                	fsw	fs0,92(s0)
e0004c0c:	5930                	lw	a2,112(a0)
e0004c0e:	513018a7          	0x513018a7
e0004c12:	0000019b          	0x19b
e0004c16:	2080                	fld	fs0,0(s1)
e0004c18:	d4d0                	sw	a2,44(s1)
e0004c1a:	c238                	sw	a4,64(a2)
e0004c1c:	5930                	lw	a2,112(a0)
e0004c1e:	0000015b          	p.mac	sp,zero,zero,zero
e0004c22:	0290                	addi	a2,sp,320
e0004c24:	ff40                	fsw	fs0,60(a4)
e0004c26:	481c238f          	0x481c238f
e0004c2a:	5134                	lw	a3,96(a0)
e0004c2c:	0000                	unimp
e0004c2e:	d190                	sw	a2,32(a1)
e0004c30:	eb40                	fsw	fs0,20(a4)
e0004c32:	2d001e4f          	fnmadd.h	t3,zero,a6,t0,rtz
e0004c36:	fa30                	fsw	fa2,112(a2)
e0004c38:	0000                	unimp
e0004c3a:	5930                	lw	a2,112(a0)
e0004c3c:	ee38                	fsw	fa4,88(a2)
e0004c3e:	5b21                	li	s6,-24
e0004c40:	8198                	0x8198
e0004c42:	436a                	lw	t1,152(sp)
e0004c44:	0000                	unimp
e0004c46:	42a0                	lw	s0,64(a3)
e0004c48:	513a                	lw	sp,172(sp)
e0004c4a:	b4d0                	fsd	fa2,168(s1)
e0004c4c:	481f 0314 0000      	0x314481f
e0004c52:	c080                	sw	s0,0(s1)
e0004c54:	4851                	li	a6,20
e0004c56:	7b24                	flw	fs1,112(a4)
e0004c58:	8390                	0x8390
e0004c5a:	9fd2                	add	t6,t6,s4
e0004c5c:	0000                	unimp
e0004c5e:	2d00                	fld	fs0,24(a0)
e0004c60:	d098                	sw	a4,32(s1)
e0004c62:	5ce8bdc3          	fmadd.h	s11,a7,a4,a1,rup
e0004c66:	64a8                	flw	fa0,72(s1)
e0004c68:	0000                	unimp
e0004c6a:	5220                	lw	s0,96(a2)
e0004c6c:	4d25                	li	s10,9
e0004c6e:	e235                	bnez	a2,e0004cd2 <hmac_smoketest+0x4746>
e0004c70:	9b29                	andi	a4,a4,-22
e0004c72:	9425                	srai	s0,s0,0x29
e0004c74:	0000                	unimp
e0004c76:	5260                	lw	s0,100(a2)
e0004c78:	0826                	slli	a6,a6,0x9
e0004c7a:	3388                	fld	fa0,32(a5)
e0004c7c:	0f25                	addi	t5,t5,9
e0004c7e:	1215                	addi	tp,tp,-27
e0004c80:	0000                	unimp
e0004c82:	4620                	lw	s0,72(a2)
e0004c84:	6134                	flw	fa3,64(a0)
e0004c86:	00009387          	0x9387
e0004c8a:	9d04                	0x9d04
e0004c8c:	0000                	unimp
e0004c8e:	5b70                	lw	a2,116(a4)
e0004c90:	0000                	unimp
e0004c92:	7564                	flw	fs1,108(a0)
e0004c94:	e6d0                	fsw	fa2,12(a3)
e0004c96:	5b7d                	li	s6,-1
e0004c98:	0000                	unimp
e0004c9a:	2060                	fld	fs0,192(s0)
e0004c9c:	0000                	unimp
e0004c9e:	61b0                	flw	fa2,64(a1)
e0004ca0:	082c                	addi	a1,sp,24
e0004ca2:	0008                	addi	a0,sp,0
e0004ca4:	0000                	unimp
e0004ca6:	1880                	addi	s0,sp,112
e0004ca8:	29163697          	auipc	a3,0x29163
e0004cac:	665642f7          	0x665642f7
e0004cb0:	0000                	unimp
e0004cb2:	7730                	flw	fa2,104(a4)
e0004cb4:	d382f737          	lui	a4,0xd382f
e0004cb8:	5742                	lw	a4,48(sp)
e0004cba:	4736                	lw	a4,76(sp)
e0004cbc:	0000                	unimp
e0004cbe:	f650                	fsw	fa2,44(a2)
e0004cc0:	24d6f6d7          	pv.cmplt.sci.b	a3,a3,26
e0004cc4:	3616                	fld	fa2,352(sp)
e0004cc6:	35f6                	fld	fa1,376(sp)
e0004cc8:	0000                	unimp
e0004cca:	d680                	sw	s0,40(a3)
e0004ccc:	ab2632e7          	0xab2632e7
e0004cd0:	5746                	lw	a4,112(sp)
e0004cd2:	4736                	lw	a4,76(sp)
e0004cd4:	0000                	unimp
e0004cd6:	56b0                	lw	a2,104(a3)
e0004cd8:	76e6                	flw	fa3,120(sp)
e0004cda:	b756                	fsd	fs5,424(sp)
e0004cdc:	e755                	bnez	a4,e0004d88 <hmac_smoketest+0x47fc>
e0004cde:	96e6                	add	a3,a3,s9
e0004ce0:	0000                	unimp
e0004ce2:	2000                	fld	fs0,0(s0)
e0004ce4:	9442                	add	s0,s0,a6
e0004ce6:	dc74                	sw	a3,124(s0)
e0004ce8:	14d4                	addi	a3,sp,612
e0004cea:	0434                	addi	a3,sp,520
e0004cec:	0000                	unimp
e0004cee:	8200                	0x8200
e0004cf0:	4e42e2e7          	0x4e42e2e7
e0004cf4:	5742                	lw	a4,48(sp)
e0004cf6:	4736                	lw	a4,76(sp)
e0004cf8:	0000                	unimp
e0004cfa:	0460                	addi	s0,sp,524
e0004cfc:	e696                	fsw	ft5,76(sp)
e0004cfe:	5756                	lw	a4,116(sp)
e0004d00:	5520                	lw	s0,104(a0)
e0004d02:	0000e6e7          	0xe6e7
e0004d06:	02e0                	addi	s0,sp,332
e0004d08:	cff53207          	fld	ft4,-769(a0) # e000c005 <_stack+0x2005>
e0004d0c:	5742                	lw	a4,48(sp)
e0004d0e:	4736                	lw	a4,76(sp)
e0004d10:	0000                	unimp
e0004d12:	0670                	addi	a2,sp,780
e0004d14:	1702                	slli	a4,a4,0x20
e0004d16:	0ff6                	slli	t6,t6,0x1d
e0004d18:	5324                	lw	s1,96(a4)
e0004d1a:	00000363          	beqz	zero,e0004d20 <hmac_smoketest+0x4794>
e0004d1e:	1480                	addi	s0,sp,608
e0004d20:	02e2                	slli	t0,t0,0x18
e0004d22:	54d0                	lw	a2,44(s1)
e0004d24:	e2e31207          	0xe2e31207
e0004d28:	0000                	unimp
e0004d2a:	3730                	fld	fa2,104(a4)
e0004d2c:	0676                	slli	a2,a2,0x1d
e0004d2e:	d002                	sw	zero,32(sp)
e0004d30:	e696e6e7          	0xe696e6e7
e0004d34:	0000                	unimp
e0004d36:	5520                	lw	s0,104(a0)
e0004d38:	1485                	addi	s1,s1,-31
e0004d3a:	5ff4                	lw	a3,124(a5)
e0004d3c:	4736                	lw	a4,76(sp)
e0004d3e:	00003207          	fld	ft4,0(zero) # 0 <_min_stack-0x2000>
e0004d42:	5740                	lw	s0,44(a4)
e0004d44:	3736                	fld	fa4,360(sp)
e0004d46:	0363ec77          	0x363ec77
e0004d4a:	1702                	slli	a4,a4,0x20
e0004d4c:	0000                	unimp
e0004d4e:	5320                	lw	s0,96(a4)
e0004d50:	5520                	lw	s0,104(a0)
e0004d52:	e2e3b237          	lui	tp,0xe2e3b
e0004d56:	02e2                	slli	t0,t0,0x18
e0004d58:	0000                	unimp
e0004d5a:	2200                	fld	fs0,0(a2)
e0004d5c:	5742                	lw	a4,48(sp)
e0004d5e:	ea96                	fsw	ft5,84(sp)
e0004d60:	e696                	fsw	ft5,76(sp)
e0004d62:	0676                	slli	a2,a2,0x1d
e0004d64:	0000                	unimp
e0004d66:	e6e0                	fsw	fs0,76(a3)
e0004d68:	0434                	addi	a3,sp,520
e0004d6a:	edc2                	fsw	fa6,216(sp)
e0004d6c:	14d48207          	0x14d48207
e0004d70:	0000                	unimp
e0004d72:	4730                	lw	a2,72(a4)
e0004d74:	f1b2e2e3          	bltu	t0,s11,e0004c78 <hmac_smoketest+0x46ec>
e0004d78:	3736                	fld	fa4,360(sp)
e0004d7a:	00001207          	0x1207
e0004d7e:	1700                	addi	s0,sp,928
e0004d80:	e696                	fsw	ft5,76(sp)
e0004d82:	5756                	lw	a4,116(sp)
e0004d84:	5520                	lw	s0,104(a0)
e0004d86:	0000e6e7          	0xe6e7
e0004d8a:	02e0                	addi	s0,sp,332
e0004d8c:	35648207          	0x35648207
e0004d90:	5742                	lw	a4,48(sp)
e0004d92:	4736                	lw	a4,76(sp)
e0004d94:	0000                	unimp
e0004d96:	0670                	addi	a2,sp,780
e0004d98:	3736                	fld	fa4,360(sp)
e0004d9a:	0434e917          	auipc	s2,0x434e
e0004d9e:	1702                	slli	a4,a4,0x20
e0004da0:	0000                	unimp
e0004da2:	14d0                	addi	a2,sp,612
e0004da4:	9440                	0x9440
e0004da6:	8a94                	0x8a94
e0004da8:	02e2e2e3          	bltu	t0,a4,e00055cc <hmac_smoketest+0x5040>
e0004dac:	0000                	unimp
e0004dae:	2200                	fld	fs0,0(a2)
e0004db0:	03a6                	slli	t2,t2,0x9
e0004db2:	9912                	add	s2,s2,tp
e0004db4:	1662                	slli	a2,a2,0x38
e0004db6:	c696                	sw	t0,76(sp)
e0004db8:	0000                	unimp
e0004dba:	d460                	sw	s0,108(s0)
e0004dbc:	3616                	fld	fa2,352(sp)
e0004dbe:	94d6                	add	s1,s1,s5
e0004dc0:	f666                	fsw	fs9,44(sp)
e0004dc2:	d685                	beqz	a3,e0004cea <hmac_smoketest+0x475e>
e0004dc4:	0000                	unimp
e0004dc6:	9640                	0x9640
e0004dc8:	1622                	slli	a2,a2,0x28
e0004dca:	7b26                	flw	fs6,104(sp)
e0004dcc:	96e6                	add	a3,a3,s9
e0004dce:	8746                	mv	a4,a7
e0004dd0:	0000                	unimp
e0004dd2:	95f0                	0x95f0
e0004dd4:	c726                	sw	s1,140(sp)
e0004dd6:	cdc2                	sw	a6,216(sp)
e0004dd8:	15f6                	slli	a1,a1,0x3d
e0004dda:	4646                	lw	a2,80(sp)
e0004ddc:	0000                	unimp
e0004dde:	5730                	lw	a2,104(a4)
e0004de0:	2202                	fld	ft4,0(sp)
e0004de2:	16d646e7          	0x16d646e7
e0004de6:	9636                	add	a2,a2,a3
e0004de8:	0000                	unimp
e0004dea:	8200                	0x8200
e0004dec:	32325207          	0x32325207
e0004df0:	36e72757          	0x36e72757
e0004df4:	0000                	unimp
e0004df6:	4650                	lw	a2,12(a2)
e0004df8:	1662                	slli	a2,a2,0x38
e0004dfa:	5b26                	lw	s6,104(sp)
e0004dfc:	9440                	0x9440
e0004dfe:	d464                	sw	s1,108(s0)
e0004e00:	0000                	unimp
e0004e02:	0640                	addi	s0,sp,772
e0004e04:	f666                	fsw	fs9,44(sp)
e0004e06:	b6e5                	j	e00049ee <hmac_smoketest+0x4462>
e0004e08:	03a6                	slli	t2,t2,0x9
e0004e0a:	9642                	add	a2,a2,a6
e0004e0c:	0000                	unimp
e0004e0e:	c690                	sw	a2,8(a3)
e0004e10:	46f6                	lw	a3,92(sp)
e0004e12:	a386                	fsd	ft1,448(sp)
e0004e14:	3616                	fld	fa2,352(sp)
e0004e16:	d5f6                	sw	t4,232(sp)
e0004e18:	0000                	unimp
e0004e1a:	d680                	sw	s0,40(a3)
e0004e1c:	b8a36353          	0xb8a36353
e0004e20:	8735                	srai	a4,a4,0xd
e0004e22:	2616                	fld	fa2,320(sp)
e0004e24:	0000                	unimp
e0004e26:	f650                	fsw	fa2,44(a2)
e0004e28:	06e68287          	0x6e68287
e0004e2c:	47261747          	0x47261747
e0004e30:	0000                	unimp
e0004e32:	35f0                	fld	fa2,232(a1)
e0004e34:	d486                	sw	ra,104(sp)
e0004e36:	5b26                	lw	s6,104(sp)
e0004e38:	c636                	sw	a3,12(sp)
e0004e3a:	b202                	fsd	ft0,288(sp)
e0004e3c:	0000                	unimp
e0004e3e:	16d0                	addi	a2,sp,868
e0004e40:	1736                	slli	a4,a4,0x2d
e0004e42:	7386                	flw	ft7,96(sp)
e0004e44:	2546                	fld	fa0,80(sp)
e0004e46:	0000e617          	auipc	a2,0xe
e0004e4a:	3610                	fld	fa2,40(a2)
e0004e4c:	e6f4                	fsw	fa3,76(a3)
e0004e4e:	9386                	add	t2,t2,ra
e0004e50:	36e6f697          	auipc	a3,0x36e6f
e0004e54:	0000                	unimp
e0004e56:	4630                	lw	a2,72(a2)
e0004e58:	71b74657          	0x71b74657
e0004e5c:	9676                	add	a2,a2,t4
e0004e5e:	2202                	fld	ft4,0(sp)
e0004e60:	0000                	unimp
e0004e62:	9660                	0x9660
e0004e64:	0642                	slli	a2,a2,0x10
e0004e66:	18a0                	addi	s0,sp,120
e0004e68:	520736e7          	0x520736e7
e0004e6c:	0000                	unimp
e0004e6e:	2750                	fld	fa2,136(a4)
e0004e70:	c696                	sw	t0,76(sp)
e0004e72:	8ff6                	mv	t6,t4
e0004e74:	d464                	sw	s1,108(s0)
e0004e76:	1662                	slli	a2,a2,0x38
e0004e78:	0000                	unimp
e0004e7a:	9440                	0x9440
e0004e7c:	d685                	beqz	a3,e0004da4 <hmac_smoketest+0x4818>
e0004e7e:	2dc6                	fld	fs11,80(sp)
e0004e80:	9642                	add	a2,a2,a6
e0004e82:	f666                	fsw	fs9,44(sp)
e0004e84:	0000                	unimp
e0004e86:	03a0                	addi	s0,sp,456
e0004e88:	f656                	fsw	fs5,44(sp)
e0004e8a:	5235                	li	tp,-19
e0004e8c:	d5f6                	sw	t4,232(sp)
e0004e8e:	46f6                	lw	a3,92(sp)
e0004e90:	0000                	unimp
e0004e92:	3610                	fld	fa2,40(a2)
e0004e94:	d1b61747          	fmsub.s	fa4,fa2,fs11,fs10,rtz
e0004e98:	3616                	fld	fa2,352(sp)
e0004e9a:	35f6                	fld	fa1,376(sp)
e0004e9c:	0000                	unimp
e0004e9e:	d680                	sw	s0,40(a3)
e0004ea0:	c636                	sw	a3,12(sp)
e0004ea2:	bc72                	fsd	ft8,56(sp)
e0004ea4:	16d68287          	0x16d68287
e0004ea8:	0000                	unimp
e0004eaa:	4720                	lw	s0,72(a4)
e0004eac:	86b2                	mv	a3,a2
e0004eae:	6b24                	flw	fs1,80(a4)
e0004eb0:	9656                	add	a2,a2,s5
e0004eb2:	000002c7          	fmsub.s	ft5,ft0,ft0,ft0,rne
e0004eb6:	b200                	fsd	fs0,32(a2)
e0004eb8:	36e6                	fld	fa3,120(sp)
e0004eba:	46364c77          	0x46364c77
e0004ebe:	1725                	addi	a4,a4,-23
e0004ec0:	0000                	unimp
e0004ec2:	16d0                	addi	a2,sp,868
e0004ec4:	f436                	fsw	fa3,40(sp)
e0004ec6:	4ff6                	lw	t6,92(sp)
e0004ec8:	9746                	add	a4,a4,a7
e0004eca:	e6f6                	fsw	ft9,76(sp)
e0004ecc:	0000                	unimp
e0004ece:	3610                	fld	fa2,40(a2)
e0004ed0:	5722                	lw	a4,40(sp)
e0004ed2:	4236                	lw	tp,76(sp)
e0004ed4:	7696                	flw	fa3,100(sp)
e0004ed6:	0296                	slli	t0,t0,0x5
e0004ed8:	0000                	unimp
e0004eda:	66e0                	flw	fs0,76(a3)
e0004edc:	4252                	lw	tp,20(sp)
e0004ede:	edc6                	fsw	fa7,216(sp)
e0004ee0:	0736e727          	0x736e727
e0004ee4:	0000                	unimp
e0004ee6:	5740                	lw	s0,44(a4)
e0004ee8:	9616                	add	a2,a2,t0
e0004eea:	1b26                	slli	s6,s6,0x29
e0004eec:	6494                	flw	fa3,8(s1)
e0004eee:	62d4                	flw	fa3,4(a3)
e0004ef0:	0000                	unimp
e0004ef2:	4000                	lw	s0,0(s0)
e0004ef4:	85f6                	mv	a1,t4
e0004ef6:	6236                	flw	ft4,76(sp)
e0004ef8:	66964203          	lbu	tp,1641(a2) # e00134af <fromhost+0x349f>
e0004efc:	0000                	unimp
e0004efe:	a6c0                	fsd	fs0,136(a3)
e0004f00:	523636f7          	0x523636f7
e0004f04:	f636                	fsw	fa3,44(sp)
e0004f06:	2705                	jal	e0005626 <hmac_smoketest+0x509a>
e0004f08:	0000                	unimp
e0004f0a:	16d0                	addi	a2,sp,868
e0004f0c:	3616                	fld	fa2,352(sp)
e0004f0e:	c756                	sw	s5,140(sp)
e0004f10:	d6828737          	lui	a4,0xd6828
e0004f14:	0000                	unimp
e0004f16:	3650                	fld	fa2,168(a2)
e0004f18:	8c76e727          	0x8c76e727
e0004f1c:	5722                	lw	a4,40(sp)
e0004f1e:	5746                	lw	a4,112(sp)
e0004f20:	0000                	unimp
e0004f22:	0290                	addi	a2,sp,320
e0004f24:	0000                	unimp
e0004f26:	e380                	fsw	fs0,0(a5)
e0004f28:	4252                	lw	tp,20(sp)
e0004f2a:	0006                	0x6
e0004f2c:	0000                	unimp
e0004f2e:	0730                	addi	a2,sp,904
e0004f30:	0002                	0x2
e0004f32:	0000823f 0000f680 	0xf6800000823f
e0004f3a:	0000                	unimp
e0004f3c:	e6f2                	fsw	ft8,76(sp)
e0004f3e:	f236                	fsw	fa3,36(sp)
e0004f40:	07972657          	0x7972657
e0004f44:	0000                	unimp
e0004f46:	6450                	flw	fa2,12(s0)
e0004f48:	f2363657          	0xf2363657
e0004f4c:	5732                	lw	a4,44(sp)
e0004f4e:	00000737          	lui	a4,0x0
e0004f52:	0650                	addi	a2,sp,772
e0004f54:	5736                	lw	a4,108(sp)
e0004f56:	c8a6                	sw	s1,80(sp)
e0004f58:	d6968207          	0xd6968207
e0004f5c:	0000                	unimp
e0004f5e:	3740                	fld	fs0,168(a4)
e0004f60:	4612                	lw	a2,4(sp)
e0004f62:	f2061a97          	auipc	s5,0xf2061
e0004f66:	0666                	slli	a2,a2,0x19
e0004f68:	0000                	unimp
e0004f6a:	66c0                	flw	fs0,12(a3)
e0004f6c:	e236f207          	0xe236f207
e0004f70:	1656                	slli	a2,a2,0x35
e0004f72:	4736                	lw	a4,76(sp)
e0004f74:	0000                	unimp
e0004f76:	c200                	sw	s0,0(a2)
e0004f78:	8742                	mv	a4,a6
e0004f7a:	6ff6                	flw	ft11,92(sp)
e0004f7c:	f206                	fsw	ft1,36(sp)
e0004f7e:	0666                	slli	a2,a2,0x19
e0004f80:	0000                	unimp
e0004f82:	56e0                	lw	s0,108(a3)
e0004f84:	e696                	fsw	ft5,76(sp)
e0004f86:	7236                	flw	ft4,108(sp)
e0004f88:	1632                	slli	a2,a2,0x2c
e0004f8a:	4726                	lw	a4,72(sp)
e0004f8c:	0000                	unimp
e0004f8e:	0650                	addi	a2,sp,772
e0004f90:	61b75747          	fmsub.s	fa4,fa4,fs11,fa2,unknown
e0004f94:	6206                	flw	ft4,64(sp)
e0004f96:	00002697          	auipc	a3,0x2
e0004f9a:	c610                	sw	a2,8(a2)
e0004f9c:	0646                	slli	a2,a2,0x11
e0004f9e:	c752                	sw	s4,140(sp)
e0004fa0:	e61202c7          	0xe61202c7
e0004fa4:	0000                	unimp
e0004fa6:	3650                	fld	fa2,168(a2)
e0004fa8:	0736                	slli	a4,a4,0xd
e0004faa:	f232                	fsw	fa2,36(sp)
e0004fac:	3696                	fld	fa3,352(sp)
e0004fae:	00009207          	0x9207
e0004fb2:	8740                	0x8740
e0004fb4:	0492                	slli	s1,s1,0x4
e0004fb6:	f232                	fsw	fa2,36(sp)
e0004fb8:	56e6                	lw	a3,120(sp)
e0004fba:	03a6                	slli	t2,t2,0x9
e0004fbc:	0000                	unimp
e0004fbe:	96d0                	0x96d0
e0004fc0:	f206                	fsw	ft1,36(sp)
e0004fc2:	b1b6                	fsd	fa3,224(sp)
e0004fc4:	f206                	fsw	ft1,36(sp)
e0004fc6:	56e6                	lw	a3,120(sp)
e0004fc8:	0000                	unimp
e0004fca:	d610                	sw	a2,40(a2)
e0004fcc:	5662                	lw	a2,56(sp)
e0004fce:	bb26                	fsd	fs1,432(sp)
e0004fd0:	8742                	mv	a4,a6
e0004fd2:	0656                	slli	a2,a2,0x15
e0004fd4:	0000                	unimp
e0004fd6:	0660                	addi	s0,sp,780
e0004fd8:	4736                	lw	a4,76(sp)
e0004fda:	f6828237          	lui	tp,0xf6828
e0004fde:	56e6                	lw	a3,120(sp)
e0004fe0:	0000                	unimp
e0004fe2:	0770                	addi	a2,sp,908
e0004fe4:	0656                	slli	a2,a2,0x15
e0004fe6:	bc72                	fsd	ft8,56(sp)
e0004fe8:	c706f657          	0xc706f657
e0004fec:	0000                	unimp
e0004fee:	0200                	addi	s0,sp,256
e0004ff0:	8204                	0x8204
e0004ff2:	3b26                	fld	fs6,104(sp)
e0004ff4:	4616                	lw	a2,68(sp)
e0004ff6:	00009207          	0x9207
e0004ffa:	8740                	0x8740
e0004ffc:	46e72657          	0x46e72657
e0005000:	66520657          	0x66520657
e0005004:	0000                	unimp
e0005006:	6610                	flw	fa2,8(a2)
e0005008:	0006                	0x6
e000500a:	b230                	fsd	fa2,96(a2)
e000500c:	f6e6                	fsw	fs9,108(sp)
e000500e:	e776                	fsw	ft9,140(sp)
e0005010:	0000                	unimp
e0005012:	b200                	fsd	fs0,32(a2)
e0005014:	7cff                	0x7cff
e0005016:	44df 6c6c 519d      	0x519d6c6c44df
e000501c:	0000                	unimp
e000501e:	94e0                	0x94e0
e0005020:	d37a                	sw	t5,164(sp)
e0005022:	ec79                	bnez	s0,e0005100 <hmac_smoketest+0x4b74>
e0005024:	5c76                	lw	s8,124(sp)
e0005026:	8b84                	0x8b84
e0005028:	0000                	unimp
e000502a:	d420                	sw	s0,104(s0)
e000502c:	1ff6                	slli	t6,t6,0x3d
e000502e:	27620387          	0x27620387
e0005032:	8cbe                	mv	s9,a5
e0005034:	0000                	unimp
e0005036:	fe90                	fsw	fa2,56(a3)
e0005038:	dc29                	beqz	s0,e0004f92 <hmac_smoketest+0x4a06>
e000503a:	8e23ce43          	0x8e23ce43
e000503e:	6dc6                	flw	fs11,80(sp)
e0005040:	0000                	unimp
e0005042:	6af0                	flw	fa2,84(a3)
e0005044:	bdc284d3          	0xbdc284d3
e0005048:	bce4                	fsd	fs1,248(s1)
e000504a:	9f1e                	add	t5,t5,t2
e000504c:	0000                	unimp
e000504e:	0190                	addi	a2,sp,192
e0005050:	9750c48f          	0x9750c48f
e0005054:	eae1                	bnez	a3,e0005124 <hmac_smoketest+0x4b98>
e0005056:	b235                	j	e0004982 <hmac_smoketest+0x43f6>
e0005058:	0000                	unimp
e000505a:	2b00                	fld	fs0,16(a4)
e000505c:	b6eafbbf 3c2fadb9 	0x3c2fadb9b6eafbbf
e0005064:	0000                	unimp
e0005066:	5310                	lw	a2,32(a4)
e0005068:	97b9                	srai	a5,a5,0x2e
e000506a:	0d3806e3          	beq	a6,s3,e0005936 <hmac_smoketest+0x53aa>
e000506e:	8e49                	or	a2,a2,a0
e0005070:	0000                	unimp
e0005072:	33f0                	fld	fa2,224(a5)
e0005074:	0002                	0x2
e0005076:	0000856f          	jal	a0,e000d076 <_stack+0x3076>
e000507a:	f680                	fsw	fs0,40(a3)
e000507c:	0000                	unimp
e000507e:	0020                	addi	s0,sp,8
e0005080:	0000                	unimp
e0005082:	2a90                	fld	fa2,16(a3)
e0005084:	0000                	unimp
e0005086:	0010                	addi	a2,sp,0
e0005088:	0000                	unimp
e000508a:	0420                	addi	s0,sp,520
e000508c:	0000                	unimp
e000508e:	ec70                	fsw	fa2,92(s0)
e0005090:	002f0003          	lb	zero,2(t5)
e0005094:	0000                	unimp
e0005096:	0160                	addi	s0,sp,140
e0005098:	0000                	unimp
e000509a:	eb20                	fsw	fs0,80(a4)
e000509c:	0002                	0x2
e000509e:	000004cf          	fnmadd.s	fs1,ft0,ft0,ft0,rne
e00050a2:	f680                	fsw	fs0,40(a3)
e00050a4:	61bf0003          	lb	zero,1563(t5)
e00050a8:	0000                	unimp
e00050aa:	04a0                	addi	s0,sp,584
e00050ac:	0000                	unimp
e00050ae:	0010                	addi	a2,sp,0
e00050b0:	0002                	0x2
e00050b2:	0000856f          	jal	a0,e000d0b2 <_stack+0x30b2>
e00050b6:	f680                	fsw	fs0,40(a3)
e00050b8:	0000                	unimp
e00050ba:	0020                	addi	s0,sp,8
e00050bc:	0000                	unimp
e00050be:	6380                	flw	fs0,0(a5)
e00050c0:	0000                	unimp
e00050c2:	0010                	addi	a2,sp,0
e00050c4:	0000                	unimp
e00050c6:	04e0                	addi	s0,sp,588
e00050c8:	0000                	unimp
e00050ca:	aff0                	fsd	fa2,216(a5)
e00050cc:	002f0003          	lb	zero,2(t5)
e00050d0:	0000                	unimp
e00050d2:	0980                	addi	s0,sp,208
e00050d4:	0000                	unimp
e00050d6:	c1b0                	sw	a2,64(a1)
e00050d8:	0002                	0x2
e00050da:	0000056f          	jal	a0,e00050da <hmac_smoketest+0x4b4e>
e00050de:	f680                	fsw	fs0,40(a3)
e00050e0:	a56f0003          	lb	zero,-1450(t5)
e00050e4:	0000                	unimp
e00050e6:	0e90                	addi	a2,sp,848
e00050e8:	0000                	unimp
e00050ea:	0010                	addi	a2,sp,0
e00050ec:	29163697          	auipc	a3,0x29163
e00050f0:	665642f7          	0x665642f7
e00050f4:	0000                	unimp
e00050f6:	7730                	flw	fa2,104(a4)
e00050f8:	5742                	lw	a4,48(sp)
e00050fa:	84d6                	mv	s1,s5
e00050fc:	96c2                	add	a3,a3,a6
e00050fe:	f626                	fsw	fs1,44(sp)
e0005100:	0000                	unimp
e0005102:	f650                	fsw	fa2,44(a2)
e0005104:	d682                	sw	zero,108(sp)
e0005106:	4386                	lw	t2,64(sp)
e0005108:	f676e697          	auipc	a3,0xf676e
e000510c:	0000                	unimp
e000510e:	4730                	lw	a2,72(a4)
e0005110:	53875747          	fmsub.d	fa4,fa4,fs8,fa0,unknown
e0005114:	45f6                	lw	a1,92(sp)
e0005116:	00003657          	pv.add.b.div2	a2,zero,zero
e000511a:	3610                	fld	fa2,40(a2)
e000511c:	4006                	0x4006
e000511e:	e4d4                	fsw	fa3,12(s1)
e0005120:	36c6                	fld	fa3,112(sp)
e0005122:	000032e7          	0x32e7
e0005126:	9740                	0x9740
e0005128:	a6c6                	fsd	fa7,328(sp)
e000512a:	62d4db23          	0x62d4db23
e000512e:	9616                	add	a2,a2,t0
e0005130:	0000                	unimp
e0005132:	6490                	flw	fa2,8(s1)
e0005134:	16d6                	slli	a3,a3,0x35
e0005136:	0756                	slli	a4,a4,0x15
e0005138:	6696                	flw	fa3,68(sp)
e000513a:	85f6                	mv	a1,t4
e000513c:	0000                	unimp
e000513e:	4200                	lw	s0,0(a2)
e0005140:	56d5                	li	a3,-11
e0005142:	26e6                	fld	fa3,88(sp)
e0005144:	5675                	li	a2,-3
e0005146:	f746                	fsw	fa7,172(sp)
e0005148:	0000                	unimp
e000514a:	f630                	fsw	fa2,104(a2)
e000514c:	56c5                	li	a3,-15
e000514e:	8916                	mv	s2,t0
e0005150:	f6567617          	auipc	a2,0xf6567
e0005154:	0000                	unimp
e0005156:	3730                	fld	fa2,104(a4)
e0005158:	16d6                	slli	a3,a3,0x35
e000515a:	5e46                	lw	t3,112(sp)
e000515c:	8746                	mv	a4,a7
e000515e:	8286                	mv	t0,ra
e0005160:	0000                	unimp
e0005162:	76e0                	flw	fs0,108(a3)
e0005164:	46e6                	lw	a3,88(sp)
e0005166:	6202c6e7          	0x6202c6e7
e000516a:	5732                	lw	a4,44(sp)
e000516c:	0000                	unimp
e000516e:	c630                	sw	a2,72(a2)
e0005170:	2202                	fld	ft4,0(sp)
e0005172:	46967917          	auipc	s2,0x46967
e0005176:	00009737          	lui	a4,0x9
e000517a:	25f0                	fld	fa2,200(a1)
e000517c:	32325207          	0x32325207
e0005180:	36e72757          	0x36e72757
e0005184:	0000                	unimp
e0005186:	4650                	lw	a2,12(a2)
e0005188:	d4b4                	sw	a3,104(s1)
e000518a:	2c72                	fld	fs8,280(sp)
e000518c:	8430                	0x8430
e000518e:	3454                	fld	fa3,168(s0)
e0005190:	0000                	unimp
e0005192:	0640                	addi	s0,sp,772
e0005194:	54d2                	lw	s1,52(sp)
e0005196:	0e46                	slli	t3,t3,0x11
e0005198:	c696                	sw	t0,76(sp)
e000519a:	03a6                	slli	t2,t2,0x9
e000519c:	0000                	unimp
e000519e:	1660                	addi	s0,sp,812
e00051a0:	56c2                	lw	a3,48(sp)
e00051a2:	eff6                	fsw	ft9,220(sp)
e00051a4:	06567617          	auipc	a2,0x6567
e00051a8:	0000                	unimp
e00051aa:	3730                	fld	fa2,104(a4)
e00051ac:	3696                	fld	fa3,352(sp)
e00051ae:	87461dc7          	0x87461dc7
e00051b2:	d206                	sw	ra,36(sp)
e00051b4:	0000                	unimp
e00051b6:	76e0                	flw	fs0,108(a3)
e00051b8:	5202                	lw	tp,32(sp)
e00051ba:	6c74                	flw	fa3,92(s0)
e00051bc:	3746                	fld	fa4,112(sp)
e00051be:	e686                	fsw	ft1,76(sp)
e00051c0:	0000                	unimp
e00051c2:	16d0                	addi	a2,sp,868
e00051c4:	0646                	slli	a2,a2,0x11
e00051c6:	bb22                	fsd	fs0,432(sp)
e00051c8:	57463657          	0x57463657
e00051cc:	0000                	unimp
e00051ce:	0780                	addi	s0,sp,960
e00051d0:	41b30257          	pv.srl.h	tp,t1,s11
e00051d4:	83830257          	0x83830257
e00051d8:	0000                	unimp
e00051da:	8300                	0x8300
e00051dc:	f8a20737          	lui	a4,0xf8a20
e00051e0:	46962207          	flw	ft4,1129(a2) # e656c60d <fromhost+0x655c5fd>
e00051e4:	0000                	unimp
e00051e6:	8380                	0x8380
e00051e8:	0746                	slli	a4,a4,0x11
e00051ea:	06e2                	slli	a3,a3,0x18
e00051ec:	f6720747          	0xf6720747
e00051f0:	0000                	unimp
e00051f2:	5620                	lw	s0,104(a2)
e00051f4:	41b30257          	pv.srl.h	tp,t1,s11
e00051f8:	83830257          	0x83830257
e00051fc:	0000                	unimp
e00051fe:	8300                	0x8300
e0005200:	b8a2e737          	lui	a4,0xb8a2e
e0005204:	46962207          	flw	ft4,1129(a2)
e0005208:	0000                	unimp
e000520a:	8380                	0x8380
e000520c:	62d4                	flw	fa3,4(a3)
e000520e:	38a6                	fld	fa7,104(sp)
e0005210:	5484                	lw	s1,40(s1)
e0005212:	b434                	fsd	fa3,104(s0)
e0005214:	0000                	unimp
e0005216:	3000                	fld	fs0,32(s0)
e0005218:	d695                	beqz	a3,e0005144 <hmac_smoketest+0x4bb8>
e000521a:	0ff6                	slli	t6,t6,0x1d
e000521c:	a6c6                	fsd	fa7,328(sp)
e000521e:	00004203          	lbu	tp,0(zero) # 0 <_min_stack-0x2000>
e0005222:	9610                	0x9610
e0005224:	32361207          	0x32361207
e0005228:	f206                	fsw	ft1,36(sp)
e000522a:	4756                	lw	a4,84(sp)
e000522c:	0000                	unimp
e000522e:	4650                	lw	a2,12(a2)
e0005230:	0642                	slli	a2,a2,0x10
e0005232:	1c72                	slli	s8,s8,0x3c
e0005234:	52072657          	0x52072657
e0005238:	0000                	unimp
e000523a:	4660                	lw	s0,76(a2)
e000523c:	4252                	lw	tp,20(sp)
e000523e:	81b6                	mv	gp,a3
e0005240:	82063657          	0x82063657
e0005244:	0000                	unimp
e0005246:	3750                	fld	fa2,168(a4)
e0005248:	3796                	fld	fa5,352(sp)
e000524a:	d8a6                	sw	s1,112(sp)
e000524c:	5504                	lw	s1,40(a0)
e000524e:	3205                	jal	e0004b6e <hmac_smoketest+0x45e2>
e0005250:	0000                	unimp
e0005252:	3200                	fld	fs0,32(a2)
e0005254:	b3869617          	auipc	a2,0xb3869
e0005258:	9736                	add	a4,a4,a3
e000525a:	7202                	flw	ft4,32(sp)
e000525c:	0000                	unimp
e000525e:	56c0                	lw	s0,44(a3)
e0005260:	26f6                	fld	fa3,344(sp)
e0005262:	76e64b27          	0x76e64b27
e0005266:	6206                	flw	ft4,64(sp)
e0005268:	0000                	unimp
e000526a:	9740                	0x9740
e000526c:	65f6                	flw	fa1,92(sp)
e000526e:	8566                	mv	a0,s9
e0005270:	5686                	lw	a3,96(sp)
e0005272:	b636                	fsd	fa3,296(sp)
e0005274:	0000                	unimp
e0005276:	3200                	fld	fs0,32(a2)
e0005278:	4706                	lw	a4,64(sp)
e000527a:	f6f654d7          	0xf6f654d7
e000527e:	d655                	beqz	a2,e000522a <hmac_smoketest+0x4c9e>
e0005280:	0000                	unimp
e0005282:	6690                	flw	fa2,8(a3)
e0005284:	0296                	slli	t0,t0,0x5
e0005286:	0750                	addi	a2,sp,900
e0005288:	d682                	sw	zero,108(sp)
e000528a:	3616                	fld	fa2,352(sp)
e000528c:	0000                	unimp
e000528e:	8790                	0x8790
e0005290:	1662                	slli	a2,a2,0x38
e0005292:	5b26                	lw	s6,104(sp)
e0005294:	3454                	fld	fa3,168(s0)
e0005296:	d4b4                	sw	a3,104(s1)
e0005298:	0000                	unimp
e000529a:	8430                	0x8430
e000529c:	56d6                	lw	a3,116(sp)
e000529e:	4ff6                	lw	t6,92(sp)
e00052a0:	03a6                	slli	t2,t2,0x9
e00052a2:	9542                	add	a0,a0,a6
e00052a4:	0000                	unimp
e00052a6:	c690                	sw	a2,8(a3)
e00052a8:	6612                	flw	fa2,4(sp)
e00052aa:	8ff6                	mv	t6,t4
e00052ac:	56f2                	lw	a3,60(sp)
e00052ae:	00000747          	fmsub.s	fa4,ft0,ft0,ft0,rne
e00052b2:	0640                	addi	s0,sp,772
e00052b4:	5206                	lw	tp,96(sp)
e00052b6:	0726f917          	auipc	s2,0x726f
e00052ba:	4252                	lw	tp,20(sp)
e00052bc:	0000                	unimp
e00052be:	5740                	lw	s0,44(a4)
e00052c0:	0642                	slli	a2,a2,0x10
e00052c2:	3382                	fld	ft7,32(sp)
e00052c4:	0636                	slli	a2,a2,0xd
e00052c6:	5282                	lw	t0,32(sp)
e00052c8:	0000                	unimp
e00052ca:	5730                	lw	a2,104(a4)
e00052cc:	08a6c637          	lui	a2,0x8a6c
e00052d0:	0555                	addi	a0,a0,21
e00052d2:	9632                	add	a2,a2,a2
e00052d4:	0000                	unimp
e00052d6:	0430                	addi	a2,sp,520
e00052d8:	4696                	lw	a3,68(sp)
e00052da:	02970a97          	auipc	s5,0x2970
e00052de:	1772                	slli	a4,a4,0x3c
e00052e0:	0000                	unimp
e00052e2:	3650                	fld	fa2,168(a2)
e00052e4:	0726                	slli	a4,a4,0x9
e00052e6:	3b22                	fld	fs6,40(sp)
e00052e8:	0676                	slli	a2,a2,0x1d
e00052ea:	f662                	fsw	fs8,44(sp)
e00052ec:	0000                	unimp
e00052ee:	e690                	fsw	fa2,8(a3)
e00052f0:	9665                	srai	a2,a2,0x39
e00052f2:	5a96                	lw	s5,100(sp)
e00052f4:	3656                	fld	fa2,368(sp)
e00052f6:	f6b6                	fsw	fa3,108(sp)
e00052f8:	0000                	unimp
e00052fa:	8630                	0x8630
e00052fc:	8286                	mv	t0,ra
e00052fe:	9386                	add	t2,t2,ra
e0005300:	8736                	mv	a4,a3
e0005302:	4656                	lw	a2,84(sp)
e0005304:	0000                	unimp
e0005306:	96e0                	0x96e0
e0005308:	7696                	flw	fa3,100(sp)
e000530a:	4c76                	lw	s8,92(sp)
e000530c:	c636                	sw	a3,12(sp)
e000530e:	4202                	lw	tp,0(sp)
e0005310:	0000                	unimp
e0005312:	16d0                	addi	a2,sp,868
e0005314:	c3829747          	fmsub.d	fa4,ft5,fs8,fs8,rtz
e0005318:	56f5f747          	0x56f5f747
e000531c:	0000                	unimp
e000531e:	3650                	fld	fa2,168(a2)
e0005320:	62d4                	flw	fa3,4(a3)
e0005322:	38a6                	fld	fa7,104(sp)
e0005324:	5484                	lw	s1,40(s1)
e0005326:	b434                	fsd	fa3,104(s0)
e0005328:	0000                	unimp
e000532a:	3000                	fld	fs0,32(s0)
e000532c:	7696                	flw	fa3,100(sp)
e000532e:	88a6                	mv	a7,s1
e0005330:	a6c6                	fsd	fa7,328(sp)
e0005332:	00004203          	lbu	tp,0(zero) # 0 <_min_stack-0x2000>
e0005336:	9610                	0x9610
e0005338:	5676                	lw	a2,124(sp)
e000533a:	1b26                	slli	s6,s6,0x29
e000533c:	9642e747          	0x9642e747
e0005340:	0000                	unimp
e0005342:	3650                	fld	fa2,168(a2)
e0005344:	0736                	slli	a4,a4,0xd
e0005346:	84d2                	mv	s1,s4
e0005348:	56f64207          	0x56f64207
e000534c:	0000                	unimp
e000534e:	4730                	lw	a2,72(a4)
e0005350:	3746                	fld	fa4,112(sp)
e0005352:	01b6                	slli	gp,gp,0xd
e0005354:	0746                	slli	a4,a4,0x11
e0005356:	16d2                	slli	a3,a3,0x34
e0005358:	0000                	unimp
e000535a:	f6e0                	fsw	fs0,108(a3)
e000535c:	4636                	lw	a2,76(sp)
e000535e:	8652eb27          	0x8652eb27
e0005362:	00005707          	0x5707
e0005366:	0680                	addi	s0,sp,832
e0005368:	5676                	lw	a2,124(sp)
e000536a:	6566                	flw	fa0,88(sp)
e000536c:	e2d6                	fsw	fs5,68(sp)
e000536e:	00009643          	fmadd.s	fa2,ft1,ft0,ft0,rtz
e0005372:	4650                	lw	a2,12(a2)
e0005374:	b434                	fsd	fa3,104(s0)
e0005376:	d754                	sw	a3,44(a4)
e0005378:	54843007          	fld	ft0,1352(s0) # a548 <_stack_len+0x2548>
e000537c:	0000                	unimp
e000537e:	4730                	lw	a2,72(a4)
e0005380:	2565b203          	0x2565b203
e0005384:	9616                	add	a2,a2,t0
e0005386:	a6c6                	fsd	fa7,328(sp)
e0005388:	0000                	unimp
e000538a:	62d0                	flw	fa2,4(a3)
e000538c:	a746                	fsd	fa7,392(sp)
e000538e:	05d6c383          	lbu	t2,93(a3) # d6773165 <tohost+0xd675315d>
e0005392:	f672                	fsw	ft8,44(sp)
e0005394:	0000                	unimp
e0005396:	4250                	lw	a2,4(a2)
e0005398:	18a3b783          	0x18a3b783
e000539c:	83025783          	lhu	a5,-2000(tp) # f6827830 <pulp__FC+0xf6827831>
e00053a0:	0000                	unimp
e00053a2:	0200                	addi	s0,sp,256
e00053a4:	6e430203          	lb	tp,1764(t1) # 31366a84 <pulp__FC+0x31366a85>
e00053a8:	a746e617          	auipc	a2,0xa746e
e00053ac:	0000                	unimp
e00053ae:	7200                	flw	fs0,32(a2)
e00053b0:	8430                	0x8430
e00053b2:	44d4                	lw	a3,12(s1)
e00053b4:	8302                	jr	t1
e00053b6:	00000783          	lb	a5,0(zero) # 0 <_min_stack-0x2000>
e00053ba:	5780                	lw	s0,40(a5)
e00053bc:	c696                	sw	t0,76(sp)
e00053be:	4e46                	lw	t3,80(sp)
e00053c0:	d4b4                	sw	a3,104(s1)
e00053c2:	1662                	slli	a2,a2,0x38
e00053c4:	0000                	unimp
e00053c6:	3450                	fld	fa2,168(s0)
e00053c8:	5204                	lw	s1,32(a2)
e00053ca:	84d6                	mv	s1,s5
e00053cc:	d482                	sw	zero,104(sp)
e00053ce:	3414                	fld	fa3,40(s0)
e00053d0:	0000                	unimp
e00053d2:	03a0                	addi	s0,sp,456
e00053d4:	aff25203          	lhu	tp,-1281(tp) # fffffaff <pulp__FC+0xfffffb00>
e00053d8:	d20726f7          	0xd20726f7
e00053dc:	0000                	unimp
e00053de:	2720                	fld	fs0,72(a4)
e00053e0:	1662                	slli	a2,a2,0x38
e00053e2:	5b26                	lw	s6,104(sp)
e00053e4:	9440                	0x9440
e00053e6:	d464                	sw	s1,108(s0)
e00053e8:	0000                	unimp
e00053ea:	0640                	addi	s0,sp,772
e00053ec:	f666                	fsw	fs9,44(sp)
e00053ee:	b6e5                	j	e0004fd6 <hmac_smoketest+0x4a4a>
e00053f0:	03a6                	slli	t2,t2,0x9
e00053f2:	9642                	add	a2,a2,a6
e00053f4:	0000                	unimp
e00053f6:	c690                	sw	a2,8(a3)
e00053f8:	6696                	flw	fa3,68(sp)
e00053fa:	0756                	slli	a4,a4,0x15
e00053fc:	3616                	fld	fa2,352(sp)
e00053fe:	65f6                	flw	fa1,92(sp)
e0005400:	0000                	unimp
e0005402:	d680                	sw	s0,40(a3)
e0005404:	f746                	fsw	fa7,172(sp)
e0005406:	f005                	bnez	s0,e0005326 <hmac_smoketest+0x4d9a>
e0005408:	f635                	bnez	a2,e0005374 <hmac_smoketest+0x4de8>
e000540a:	e756                	fsw	fs5,140(sp)
e000540c:	0000                	unimp
e000540e:	f6f0                	fsw	fa2,108(a3)
e0005410:	8736                	mv	a4,a3
e0005412:	c1b2                	sw	a2,192(sp)
e0005414:	2746                	fld	fa4,80(sp)
e0005416:	00005697          	auipc	a3,0x5
e000541a:	e650                	fsw	fa2,12(a2)
e000541c:	6262                	flw	ft4,24(sp)
e000541e:	2756                	fld	fa4,336(sp)
e0005420:	3616                	fld	fa2,352(sp)
e0005422:	02c6                	slli	t0,t0,0x11
e0005424:	0000                	unimp
e0005426:	d680                	sw	s0,40(a3)
e0005428:	4706                	lw	a4,64(sp)
e000542a:	f6f64387          	0xf6f64387
e000542e:	5645                	li	a2,-15
e0005430:	0000                	unimp
e0005432:	6690                	flw	fa2,8(a3)
e0005434:	d9172757          	0xd9172757
e0005438:	2202                	fld	ft4,0(sp)
e000543a:	00004657          	pv.add.sc.h	a2,zero,zero
e000543e:	9680                	0x9680
e0005440:	0000                	unimp
e0005442:	71b0                	flw	fa2,96(a1)
e0005444:	06425207          	0x6425207
e0005448:	0000                	unimp
e000544a:	36e0                	fld	fs0,232(a3)
e000544c:	1fff0003          	lb	zero,511(t5)
e0005450:	0000                	unimp
e0005452:	2400                	fld	fs0,8(s0)
e0005454:	0000                	unimp
e0005456:	0020                	addi	s0,sp,8
e0005458:	0000                	unimp
e000545a:	a000                	fsd	fs0,0(s0)
e000545c:	0000                	unimp
e000545e:	0010                	addi	a2,sp,0
e0005460:	0000                	unimp
e0005462:	03e0                	addi	s0,sp,460
e0005464:	0000                	unimp
e0005466:	eb20                	fsw	fs0,80(a4)
e0005468:	002f0003          	lb	zero,2(t5)
e000546c:	0000                	unimp
e000546e:	2670                	fld	fa2,200(a2)
e0005470:	0000                	unimp
e0005472:	adc0                	fsd	fs0,152(a1)
e0005474:	046f0003          	lb	zero,70(t5)
e0005478:	0000                	unimp
e000547a:	2400                	fld	fs0,8(s0)
e000547c:	791f0003          	lb	zero,1937(t5)
e0005480:	0000                	unimp
e0005482:	2aa0                	fld	fs0,80(a3)
e0005484:	0000                	unimp
e0005486:	0040                	addi	s0,sp,4
e0005488:	1fff0003          	lb	zero,511(t5)
e000548c:	0000                	unimp
e000548e:	2400                	fld	fs0,8(s0)
e0005490:	0000                	unimp
e0005492:	0020                	addi	s0,sp,8
e0005494:	0000                	unimp
e0005496:	adc0                	fsd	fs0,152(a1)
e0005498:	0000                	unimp
e000549a:	0020                	addi	s0,sp,8
e000549c:	0000                	unimp
e000549e:	0530                	addi	a2,sp,648
e00054a0:	0000                	unimp
e00054a2:	64d0                	flw	fa2,12(s1)
e00054a4:	002f0003          	lb	zero,2(t5)
e00054a8:	0000                	unimp
e00054aa:	3010                	fld	fa2,32(s0)
e00054ac:	0000                	unimp
e00054ae:	2560                	fld	fs0,200(a0)
e00054b0:	061f0003          	lb	zero,97(t5)
e00054b4:	0000                	unimp
e00054b6:	2400                	fld	fs0,8(s0)
e00054b8:	791f0003          	lb	zero,1937(t5)
e00054bc:	0000                	unimp
e00054be:	3580                	fld	fs0,40(a1)
e00054c0:	0000                	unimp
e00054c2:	0020                	addi	s0,sp,8
e00054c4:	1fff0003          	lb	zero,511(t5)
e00054c8:	0000                	unimp
e00054ca:	2400                	fld	fs0,8(s0)
e00054cc:	0000                	unimp
e00054ce:	0020                	addi	s0,sp,8
e00054d0:	0000                	unimp
e00054d2:	8560                	0x8560
e00054d4:	0000                	unimp
e00054d6:	0000                	unimp
e00054d8:	0000                	unimp
e00054da:	0680                	addi	s0,sp,832
e00054dc:	0000                	unimp
e00054de:	2750                	fld	fa2,136(a4)
e00054e0:	002f0003          	lb	zero,2(t5)
e00054e4:	0000                	unimp
e00054e6:	3b90                	fld	fa2,48(a5)
e00054e8:	0000                	unimp
e00054ea:	e1b0                	fsw	fa2,64(a1)
e00054ec:	068f0003          	lb	zero,104(t5)
e00054f0:	0000                	unimp
e00054f2:	2400                	fld	fs0,8(s0)
e00054f4:	175f0003          	lb	zero,373(t5)
e00054f8:	0000                	unimp
e00054fa:	3f30                	fld	fa2,120(a4)
e00054fc:	0000                	unimp
e00054fe:	0030                	addi	a2,sp,8
e0005500:	1fff0003          	lb	zero,511(t5)
e0005504:	0000                	unimp
e0005506:	2400                	fld	fs0,8(s0)
e0005508:	0000                	unimp
e000550a:	0020                	addi	s0,sp,8
e000550c:	0000                	unimp
e000550e:	aa90                	fsd	fa2,16(a3)
e0005510:	0000                	unimp
e0005512:	0010                	addi	a2,sp,0
e0005514:	0000                	unimp
e0005516:	0730                	addi	a2,sp,904
e0005518:	0000                	unimp
e000551a:	aff0                	fsd	fa2,216(a5)
e000551c:	002f0003          	lb	zero,2(t5)
e0005520:	0000                	unimp
e0005522:	41e0                	lw	s0,68(a1)
e0005524:	0000                	unimp
e0005526:	0560                	addi	s0,sp,652
e0005528:	04ef0003          	lb	zero,78(t5)
e000552c:	0000                	unimp
e000552e:	2400                	fld	fs0,8(s0)
e0005530:	300f0003          	lb	zero,768(t5)
e0005534:	0000                	unimp
e0005536:	43a0                	lw	s0,64(a5)
e0005538:	0000                	unimp
e000553a:	0010                	addi	a2,sp,0
e000553c:	1fff0003          	lb	zero,511(t5)
e0005540:	0000                	unimp
e0005542:	2400                	fld	fs0,8(s0)
e0005544:	0000                	unimp
e0005546:	0020                	addi	s0,sp,8
e0005548:	0000                	unimp
e000554a:	6910                	flw	fa2,16(a0)
e000554c:	0000                	unimp
e000554e:	0010                	addi	a2,sp,0
e0005550:	0000                	unimp
e0005552:	0590                	addi	a2,sp,704
e0005554:	cff642f7          	0xcff642f7
e0005558:	773f0003          	lb	zero,1907(t5)
e000555c:	0000                	unimp
e000555e:	41e0                	lw	s0,68(a1)
e0005560:	96c2                	add	a3,a3,a6
e0005562:	0b26                	slli	s6,s6,0x9
e0005564:	f6563697          	auipc	a3,0xf6563
e0005568:	0000                	unimp
e000556a:	6650                	flw	fa2,12(a2)
e000556c:	1386e697          	auipc	a3,0x1386e
e0005570:	5742                	lw	a4,48(sp)
e0005572:	4736                	lw	a4,76(sp)
e0005574:	0000                	unimp
e0005576:	f620                	fsw	fs0,104(a2)
e0005578:	538665f7          	0x538665f7
e000557c:	5742                	lw	a4,48(sp)
e000557e:	4736                	lw	a4,76(sp)
e0005580:	0000                	unimp
e0005582:	f670                	fsw	fa2,108(a2)
e0005584:	b726                	fsd	fs1,424(sp)
e0005586:	4e46                	lw	t3,80(sp)
e0005588:	56d6                	lw	a3,116(sp)
e000558a:	f776                	fsw	ft9,172(sp)
e000558c:	0000                	unimp
e000558e:	1720                	addi	s0,sp,936
e0005590:	16d5                	addi	a3,a3,-11
e0005592:	4b26                	lw	s6,72(sp)
e0005594:	4746                	lw	a4,80(sp)
e0005596:	0000f667          	0xf667
e000559a:	f2f0                	fsw	fa2,100(a3)
e000559c:	4544                	lw	s1,12(a0)
e000559e:	ca95                	beqz	a3,e00055d2 <hmac_smoketest+0x5046>
e00055a0:	32e6                	fld	ft5,120(sp)
e00055a2:	f006                	fsw	ft1,32(sp)
e00055a4:	0000                	unimp
e00055a6:	e690                	fsw	fa2,8(a3)
e00055a8:	4dc6e657          	pv.cmpleu.sci.h	a2,a3,24
e00055ac:	5632                	lw	a2,44(sp)
e00055ae:	00002727          	fsw	ft0,14(zero) # e <_min_stack-0x1ff2>
e00055b2:	0460                	addi	s0,sp,524
e00055b4:	96c6                	add	a3,a3,a7
e00055b6:	0796ec77          	0x796ec77
e00055ba:	e6f2                	fsw	ft8,76(sp)
e00055bc:	0000                	unimp
e00055be:	c740                	sw	s0,12(a4)
e00055c0:	4726                	lw	a4,72(sp)
e00055c2:	0757d4d7          	0x757d4d7
e00055c6:	0000f707          	0xf707
e00055ca:	3200                	fld	fs0,32(a2)
e00055cc:	66f2                	flw	fa3,28(sp)
e00055ce:	d1b6                	sw	a3,224(sp)
e00055d0:	3752                	fld	fa4,304(sp)
e00055d2:	00000657          	pv.add.h	a2,zero,zero
e00055d6:	0730                	addi	a2,sp,904
e00055d8:	56e6                	lw	a3,120(sp)
e00055da:	fdc6                	fsw	fa7,248(sp)
e00055dc:	3616                	fld	fa2,352(sp)
e00055de:	9686                	add	a3,a3,ra
e00055e0:	0000                	unimp
e00055e2:	d200                	sw	s0,32(a2)
e00055e4:	3652                	fld	fa2,304(sp)
e00055e6:	bb26                	fsd	fs1,432(sp)
e00055e8:	46f6                	lw	a3,92(sp)
e00055ea:	0656                	slli	a2,a2,0x15
e00055ec:	0000                	unimp
e00055ee:	d2d0                	sw	a2,36(a3)
e00055f0:	0726                	slli	a4,a4,0x9
e00055f2:	6232                	flw	ft4,12(sp)
e00055f4:	06c6                	slli	a3,a3,0x11
e00055f6:	f662                	fsw	fs8,44(sp)
e00055f8:	0000                	unimp
e00055fa:	c610                	sw	a2,8(a2)
e00055fc:	34f5                	jal	e00050e8 <hmac_smoketest+0x4b5c>
e00055fe:	f005                	bnez	s0,e000551e <hmac_smoketest+0x4f92>
e0005600:	45265657          	pv.cmpltu.sc.b	a2,a2,s2
e0005604:	0000                	unimp
e0005606:	2460                	fld	fs0,200(s0)
e0005608:	4786                	lw	a5,64(sp)
e000560a:	e6f6c4d7          	0xe6f6c4d7
e000560e:	5746                	lw	a4,112(sp)
e0005610:	0000                	unimp
e0005612:	3200                	fld	fs0,32(a2)
e0005614:	9686                	add	a3,a3,ra
e0005616:	fdc6                	fsw	fa7,248(sp)
e0005618:	37469777          	0x37469777
e000561c:	0000                	unimp
e000561e:	3200                	fld	fs0,32(a2)
e0005620:	b386e6e7          	0xb386e6e7
e0005624:	02e6                	slli	t0,t0,0x19
e0005626:	5520                	lw	s0,104(a0)
e0005628:	0000                	unimp
e000562a:	76e0                	flw	fs0,108(a3)
e000562c:	a2344007          	0xa2344007
e0005630:	0676                	slli	a2,a2,0x1d
e0005632:	3252                	fld	ft4,304(sp)
e0005634:	0000                	unimp
e0005636:	e690                	fsw	fa2,8(a3)
e0005638:	a6c6                	fsd	fa7,328(sp)
e000563a:	62d4db23          	0x62d4db23
e000563e:	9616                	add	a2,a2,t0
e0005640:	0000                	unimp
e0005642:	6490                	flw	fa2,8(s1)
e0005644:	b1b5f767          	0xb1b5f767
e0005648:	6696                	flw	fa3,68(sp)
e000564a:	25f6                	fld	fa1,344(sp)
e000564c:	0000                	unimp
e000564e:	4200                	lw	s0,0(a2)
e0005650:	5626                	lw	a2,104(sp)
e0005652:	3386                	fld	ft7,96(sp)
e0005654:	5726                	lw	a4,104(sp)
e0005656:	95f6                	add	a1,a1,t4
e0005658:	0000                	unimp
e000565a:	f630                	fsw	fa2,104(a2)
e000565c:	04d20287          	0x4d20287
e0005660:	e695                	bnez	a3,e000568c <hmac_smoketest+0x5100>
e0005662:	4696                	lw	a3,68(sp)
e0005664:	0000                	unimp
e0005666:	f780                	fsw	fs0,40(a5)
e0005668:	ee467657          	0xee467657
e000566c:	f696                	fsw	ft5,108(sp)
e000566e:	25f6                	fld	fa1,344(sp)
e0005670:	0000                	unimp
e0005672:	d6d0                	sw	a2,44(a3)
e0005674:	7386d6f7          	0x7386d6f7
e0005678:	f6e6                	fsw	fs9,108(sp)
e000567a:	2665                	jal	e0005a22 <hmac_smoketest+0x5496>
e000567c:	0000                	unimp
e000567e:	f690                	fsw	fa2,40(a3)
e0005680:	f542                	fsw	fa6,168(sp)
e0005682:	7b24                	flw	fs1,112(a4)
e0005684:	4646                	lw	a2,80(sp)
e0005686:	8726                	mv	a4,s1
e0005688:	0000                	unimp
e000568a:	15f0                	addi	a2,sp,748
e000568c:	2474                	fld	fa3,200(s0)
e000568e:	6005                	0x6005
e0005690:	1455                	addi	s0,s0,-11
e0005692:	c524                	sw	s1,72(a0)
e0005694:	0000                	unimp
e0005696:	f500                	fsw	fs0,40(a0)
e0005698:	f435                	bnez	s0,e0005604 <hmac_smoketest+0x5078>
e000569a:	54d4                	lw	a3,44(s1)
e000569c:	25f5                	jal	e0005d88 <hmac_smoketest+0x57fc>
e000569e:	f565                	bnez	a0,e0005686 <hmac_smoketest+0x50fa>
e00056a0:	0000                	unimp
e00056a2:	9450                	0x9450
e00056a4:	f584                	fsw	fs1,40(a1)
e00056a6:	a915                	j	e0005ada <hmac_smoketest+0x554e>
e00056a8:	95f4                	0x95f4
e00056aa:	5424                	lw	s1,104(s0)
e00056ac:	0000                	unimp
e00056ae:	5520                	lw	s0,104(a0)
e00056b0:	5534                	lw	a3,104(a0)
e00056b2:	7e44                	flw	fs1,60(a2)
e00056b4:	f474                	fsw	fa3,108(s0)
e00056b6:	1425                	addi	s0,s0,-23
e00056b8:	0000                	unimp
e00056ba:	6430                	flw	fa2,72(s0)
e00056bc:	02c2                	slli	t0,t0,0x10
e00056be:	2912                	fld	fs2,256(sp)
e00056c0:	4444                	lw	s1,12(s0)
e00056c2:	9524                	0x9524
e00056c4:	0000                	unimp
e00056c6:	15f0                	addi	a2,sp,748
e00056c8:	5726                	lw	a4,104(sp)
e00056ca:	a1b6                	fsd	fa3,192(sp)
e00056cc:	f635f767          	0xf635f767
e00056d0:	0000                	unimp
e00056d2:	2260                	fld	fs0,192(a2)
e00056d4:	2202                	fld	ft4,0(sp)
e00056d6:	5626a237          	lui	tp,0x5626a
e00056da:	9786                	add	a5,a5,ra
e00056dc:	0000                	unimp
e00056de:	95f0                	0x95f0
e00056e0:	32325207          	0x32325207
e00056e4:	36e72757          	0x36e72757
e00056e8:	0000                	unimp
e00056ea:	4650                	lw	a2,12(a2)
e00056ec:	e4d6d5f7          	0xe4d6d5f7
e00056f0:	5740                	lw	s0,44(a4)
e00056f2:	4736                	lw	a4,76(sp)
e00056f4:	0000                	unimp
e00056f6:	0640                	addi	s0,sp,772
e00056f8:	3454                	fld	fa3,168(s0)
e00056fa:	2564                	fld	fs1,200(a0)
e00056fc:	06e6                	slli	a3,a3,0x19
e00056fe:	8430                	0x8430
e0005700:	0000                	unimp
e0005702:	9610                	0x9610
e0005704:	03a6                	slli	t2,t2,0x9
e0005706:	d232                	sw	a2,36(sp)
e0005708:	1662                	slli	a2,a2,0x38
e000570a:	c696                	sw	t0,76(sp)
e000570c:	0000                	unimp
e000570e:	d4b0                	sw	a2,104(s1)
e0005710:	9440                	0x9440
e0005712:	9dc4                	0x9dc4
e0005714:	36c6                	fld	fa3,112(sp)
e0005716:	00000657          	pv.add.h	a2,zero,zero
e000571a:	1660                	addi	s0,sp,812
e000571c:	03a6                	slli	t2,t2,0x9
e000571e:	9912                	add	s2,s2,tp
e0005720:	1662                	slli	a2,a2,0x38
e0005722:	c696                	sw	t0,76(sp)
e0005724:	0000                	unimp
e0005726:	d460                	sw	s0,108(s0)
e0005728:	4726                	lw	a4,72(sp)
e000572a:	f666d4d7          	0xf666d4d7
e000572e:	1755                	addi	a4,a4,-11
e0005730:	0000                	unimp
e0005732:	9640                	0x9640
e0005734:	d202                	sw	zero,36(sp)
e0005736:	b566                	fsd	fs9,168(sp)
e0005738:	96e6                	add	a3,a3,s9
e000573a:	8746                	mv	a4,a7
e000573c:	0000                	unimp
e000573e:	95f0                	0x95f0
e0005740:	9676                	add	a2,a2,t4
e0005742:	86e6                	mv	a3,s9
e0005744:	f6f6                	fsw	ft9,108(sp)
e0005746:	5725                	li	a4,-23
e0005748:	0000                	unimp
e000574a:	96d0                	0x96d0
e000574c:	f6d6                	fsw	fs5,108(sp)
e000574e:	fff5                	bnez	a5,e000574a <hmac_smoketest+0x51be>
e0005750:	65f6                	flw	fa1,92(sp)
e0005752:	f726                	fsw	fs1,172(sp)
e0005754:	0000                	unimp
e0005756:	e6f0                	fsw	fa2,76(a3)
e0005758:	04f5                	addi	s1,s1,29
e000575a:	a8a5                	j	e00057d2 <hmac_smoketest+0x5246>
e000575c:	2646                	fld	fa2,80(sp)
e000575e:	00004287          	0x4287
e0005762:	4610                	lw	a2,8(a2)
e0005764:	5524                	lw	s1,104(a0)
e0005766:	b004                	fsd	fs1,32(s0)
e0005768:	2414                	fld	fa3,8(s0)
e000576a:	74c5                	lui	s1,0xffff1
e000576c:	0000                	unimp
e000576e:	55f0                	lw	a2,108(a1)
e0005770:	f305                	bnez	a4,e0005690 <hmac_smoketest+0x5104>
e0005772:	04d5                	addi	s1,s1,21
e0005774:	1555                	addi	a0,a0,-11
e0005776:	4524                	lw	s1,72(a0)
e0005778:	0000                	unimp
e000577a:	f590                	fsw	fa2,40(a1)
e000577c:	4444                	lw	s1,12(s0)
e000577e:	98a4                	0x98a4
e0005780:	5534                	lw	a3,104(a0)
e0005782:	15f4                	addi	a3,sp,748
e0005784:	0000                	unimp
e0005786:	1420                	addi	s0,sp,552
e0005788:	cc772617          	auipc	a2,0xcc772
e000578c:	02c2                	slli	t0,t0,0x10
e000578e:	5262                	lw	tp,56(sp)
e0005790:	0000                	unimp
e0005792:	9520                	0x9520
e0005794:	5746                	lw	a4,112(sp)
e0005796:	0293d1b7          	lui	gp,0x293d
e000579a:	5722                	lw	a4,40(sp)
e000579c:	0000                	unimp
e000579e:	0740                	addi	s0,sp,900
e00057a0:	4006                	0x4006
e00057a2:	7e44                	flw	fs1,60(a2)
e00057a4:	0736                	slli	a4,a4,0xd
e00057a6:	4252                	lw	tp,20(sp)
e00057a8:	0000                	unimp
e00057aa:	e720                	fsw	fs0,72(a4)
e00057ac:	a6c6                	fsd	fa7,328(sp)
e00057ae:	62d4db23          	0x62d4db23
e00057b2:	9616                	add	a2,a2,t0
e00057b4:	0000                	unimp
e00057b6:	6490                	flw	fa2,8(s1)
e00057b8:	22372617          	auipc	a2,0x22372
e00057bc:	6696                	flw	fa3,68(sp)
e00057be:	55f6                	lw	a1,124(sp)
e00057c0:	0000                	unimp
e00057c2:	4200                	lw	s0,0(a2)
e00057c4:	7696                	flw	fa3,100(sp)
e00057c6:	0a96                	slli	s5,s5,0x5
e00057c8:	f635                	bnez	a2,e0005734 <hmac_smoketest+0x51a8>
e00057ca:	66e6                	flw	fa3,88(sp)
e00057cc:	0000                	unimp
e00057ce:	f740                	fsw	fs0,44(a4)
e00057d0:	e3872617          	auipc	a2,0xe3872
e00057d4:	52628657          	0x52628657
e00057d8:	0000                	unimp
e00057da:	2750                	fld	fa2,136(a4)
e00057dc:	6696                	flw	fa3,68(sp)
e00057de:	41b6                	lw	gp,76(sp)
e00057e0:	428202c3          	fmadd.d	ft5,ft4,fs0,fs0,rne
e00057e4:	0000                	unimp
e00057e6:	0740                	addi	s0,sp,900
e00057e8:	f635                	bnez	a2,e0005754 <hmac_smoketest+0x51c8>
e00057ea:	d756                	sw	s5,172(sp)
e00057ec:	f7472617          	auipc	a2,0xf7472
e00057f0:	0000                	unimp
e00057f2:	55f0                	lw	a2,108(a1)
e00057f4:	a387b297          	auipc	t0,0xa387b
e00057f8:	7696                	flw	fa3,100(sp)
e00057fa:	45f6                	lw	a1,92(sp)
e00057fc:	0000                	unimp
e00057fe:	66e0                	flw	fs0,76(a3)
e0005800:	1726                	slli	a4,a4,0x29
e0005802:	2dc6                	fld	fs11,80(sp)
e0005804:	1622                	slli	a2,a2,0x28
e0005806:	4756                	lw	a4,84(sp)
e0005808:	0000                	unimp
e000580a:	e200                	fsw	fs0,0(a2)
e000580c:	1556                	slli	a0,a0,0x35
e000580e:	f6e6                	fsw	fs9,108(sp)
e0005810:	d206                	sw	ra,36(sp)
e0005812:	0000b203          	0xb203
e0005816:	5740                	lw	s0,44(a4)
e0005818:	1726                	slli	a4,a4,0x29
e000581a:	aa96                	fsd	ft5,336(sp)
e000581c:	47561427          	0x47561427
e0005820:	0000                	unimp
e0005822:	4720                	lw	s0,72(a4)
e0005824:	b6c6                	fsd	fa7,360(sp)
e0005826:	1006                	0x1006
e0005828:	02c6                	slli	t0,t0,0x11
e000582a:	32e2                	fld	ft5,56(sp)
e000582c:	0000                	unimp
e000582e:	5740                	lw	s0,44(a4)
e0005830:	a685                	j	e0005b90 <hmac_smoketest+0x5604>
e0005832:	572616e7          	0x572616e7
e0005836:	f716                	fsw	ft5,172(sp)
e0005838:	0000                	unimp
e000583a:	65f0                	flw	fa2,76(a1)
e000583c:	36f6                	fld	fa3,376(sp)
e000583e:	3916                	fld	fs2,352(sp)
e0005840:	c436b203          	0xc436b203
e0005844:	0000                	unimp
e0005846:	d200                	sw	s0,32(a2)
e0005848:	2655                	jal	e0005bec <hmac_smoketest+0x5660>
e000584a:	57242237          	lui	tp,0x57242
e000584e:	0716                	slli	a4,a4,0x5
e0005850:	0000                	unimp
e0005852:	66b0                	flw	fa2,72(a3)
e0005854:	86c6                	mv	a3,a7
e0005856:	d1b4                	sw	a3,96(a1)
e0005858:	17265687          	0x17265687
e000585c:	0000                	unimp
e000585e:	0690                	addi	a2,sp,832
e0005860:	9726                	add	a4,a4,s1
e0005862:	14d6                	slli	s1,s1,0x35
e0005864:	e202                	fsw	ft0,4(sp)
e0005866:	1702                	slli	a4,a4,0x20
e0005868:	0000                	unimp
e000586a:	c7a0                	sw	s0,72(a5)
e000586c:	c626                	sw	s1,12(sp)
e000586e:	0006                	0x6
e0005870:	16e655f7          	0x16e655f7
e0005874:	0000                	unimp
e0005876:	9740                	0x9740
e0005878:	6694                	flw	fa3,8(a3)
e000587a:	0a96                	slli	s5,s5,0x5
e000587c:	03d2                	slli	t2,t2,0x14
e000587e:	46b2                	lw	a3,12(sp)
e0005880:	0000                	unimp
e0005882:	0650                	addi	a2,sp,772
e0005884:	9446                	add	s0,s0,a7
e0005886:	0c76                	slli	s8,s8,0x1d
e0005888:	7676                	flw	fa2,124(sp)
e000588a:	56c6                	lw	a3,112(sp)
e000588c:	0000                	unimp
e000588e:	f540                	fsw	fs0,44(a0)
e0005890:	02c6                	slli	t0,t0,0x11
e0005892:	d232                	sw	a2,36(sp)
e0005894:	c626                	sw	s1,12(sp)
e0005896:	4656                	lw	a2,84(sp)
e0005898:	0000                	unimp
e000589a:	1730                	addi	a2,sp,936
e000589c:	48a20797          	auipc	a5,0x48a20
e00058a0:	46972617          	auipc	a2,0x46972
e00058a4:	0000                	unimp
e00058a6:	02e0                	addi	s0,sp,332
e00058a8:	1556                	slli	a0,a0,0x35
e00058aa:	7916                	flw	fs2,100(sp)
e00058ac:	46b2                	lw	a3,12(sp)
e00058ae:	6694                	flw	fa3,8(a3)
e00058b0:	0000                	unimp
e00058b2:	03d0                	addi	a2,sp,452
e00058b4:	9746                	add	a4,a4,a7
e00058b6:	1507e387          	0x1507e387
e00058ba:	9726                	add	a4,a4,s1
e00058bc:	0000                	unimp
e00058be:	4720                	lw	s0,72(a4)
e00058c0:	97d2                	add	a5,a5,s4
e00058c2:	6b22                	flw	fs6,8(sp)
e00058c4:	02c6e657          	pv.add.sci.h	a2,a3,25
e00058c8:	0000                	unimp
e00058ca:	6450                	flw	fa2,12(s0)
e00058cc:	76e736e7          	0x76e736e7
e00058d0:	27574657          	0x27574657
e00058d4:	0000                	unimp
e00058d6:	2200                	fld	fs0,0(a2)
e00058d8:	96e6                	add	a3,a3,s9
e00058da:	3916                	fld	fs2,352(sp)
e00058dc:	0642                	slli	a2,a2,0x10
e00058de:	9460                	0x9460
e00058e0:	0000                	unimp
e00058e2:	5200                	lw	s0,32(a2)
e00058e4:	0732                	slli	a4,a4,0xc
e00058e6:	cb20                	sw	s0,80(a4)
e00058e8:	4656                	lw	a2,84(sp)
e00058ea:	5206                	lw	tp,96(sp)
e00058ec:	0000                	unimp
e00058ee:	8730                	0x8730
e00058f0:	fb2f0003          	lb	zero,-78(t5)
e00058f4:	0000                	unimp
e00058f6:	5340                	lw	s0,36(a4)
e00058f8:	0000                	unimp
e00058fa:	0020                	addi	s0,sp,8
e00058fc:	0000                	unimp
e00058fe:	4b20                	lw	s0,80(a4)
e0005900:	0000                	unimp
e0005902:	0000                	unimp
e0005904:	0000                	unimp
e0005906:	03b0                	addi	a2,sp,456
e0005908:	0000                	unimp
e000590a:	8230                	0x8230
e000590c:	000f0003          	lb	zero,0(t5)
e0005910:	0000                	unimp
e0005912:	5650                	lw	a2,44(a2)
e0005914:	0000                	unimp
e0005916:	0230                	addi	a2,sp,264
e0005918:	07ef0003          	lb	zero,126(t5)
e000591c:	0000                	unimp
e000591e:	5340                	lw	s0,36(a4)
e0005920:	300f0003          	lb	zero,768(t5)
e0005924:	0000                	unimp
e0005926:	5bc0                	lw	s0,52(a5)
e0005928:	0000                	unimp
e000592a:	0010                	addi	a2,sp,0
e000592c:	fb2f0003          	lb	zero,-78(t5)
e0005930:	0000                	unimp
e0005932:	5340                	lw	s0,36(a4)
e0005934:	0000                	unimp
e0005936:	0020                	addi	s0,sp,8
e0005938:	0000                	unimp
e000593a:	e380                	fsw	fs0,0(a5)
e000593c:	0000                	unimp
e000593e:	0010                	addi	a2,sp,0
e0005940:	0000                	unimp
e0005942:	0860                	addi	s0,sp,28
e0005944:	0000                	unimp
e0005946:	e380                	fsw	fs0,0(a5)
e0005948:	002f0003          	lb	zero,2(t5)
e000594c:	0000                	unimp
e000594e:	5c70                	lw	a2,124(s0)
e0005950:	0000                	unimp
e0005952:	8560                	0x8560
e0005954:	096f0003          	lb	zero,150(t5)
e0005958:	0000                	unimp
e000595a:	5340                	lw	s0,36(a4)
e000595c:	638f0003          	lb	zero,1592(t5)
e0005960:	0000                	unimp
e0005962:	64c0                	flw	fs0,12(s1)
e0005964:	0000                	unimp
e0005966:	0000                	unimp
e0005968:	fb2f0003          	lb	zero,-78(t5)
e000596c:	0000                	unimp
e000596e:	5340                	lw	s0,36(a4)
e0005970:	0000                	unimp
e0005972:	0020                	addi	s0,sp,8
e0005974:	0000                	unimp
e0005976:	a230                	fsd	fa2,64(a2)
e0005978:	0000                	unimp
e000597a:	0010                	addi	a2,sp,0
e000597c:	0000                	unimp
e000597e:	0530                	addi	a2,sp,648
e0005980:	0000                	unimp
e0005982:	28a0                	fld	fs0,80(s1)
e0005984:	002f0003          	lb	zero,2(t5)
e0005988:	0000                	unimp
e000598a:	65e0                	flw	fs0,76(a1)
e000598c:	0000                	unimp
e000598e:	8560                	0x8560
e0005990:	05af0003          	lb	zero,90(t5)
e0005994:	0000                	unimp
e0005996:	5340                	lw	s0,36(a4)
e0005998:	a00f0003          	lb	zero,-1536(t5)
e000599c:	0000                	unimp
e000599e:	6bf0                	flw	fa2,84(a5)
e00059a0:	0000                	unimp
e00059a2:	0010                	addi	a2,sp,0
e00059a4:	fc7f0003          	lb	zero,-57(t5)
e00059a8:	0000                	unimp
e00059aa:	5340                	lw	s0,36(a4)
e00059ac:	0000                	unimp
e00059ae:	0000                	unimp
e00059b0:	0000                	unimp
e00059b2:	a000                	fsd	fs0,0(s0)
e00059b4:	0000                	unimp
e00059b6:	0010                	addi	a2,sp,0
e00059b8:	0000                	unimp
e00059ba:	0640                	addi	s0,sp,772
e00059bc:	cdc642f7          	0xcdc642f7
e00059c0:	773f0003          	lb	zero,1907(t5)
e00059c4:	0000                	unimp
e00059c6:	78c0                	flw	fs0,52(s1)
e00059c8:	96c2                	add	a3,a3,a6
e00059ca:	0b26                	slli	s6,s6,0x9
e00059cc:	f6563697          	auipc	a3,0xf6563
e00059d0:	0000                	unimp
e00059d2:	6650                	flw	fa2,12(a2)
e00059d4:	1386e697          	auipc	a3,0x1386e
e00059d8:	5742                	lw	a4,48(sp)
e00059da:	4736                	lw	a4,76(sp)
e00059dc:	0000                	unimp
e00059de:	f620                	fsw	fs0,104(a2)
e00059e0:	538665f7          	0x538665f7
e00059e4:	5742                	lw	a4,48(sp)
e00059e6:	4736                	lw	a4,76(sp)
e00059e8:	0000                	unimp
e00059ea:	f670                	fsw	fa2,108(a2)
e00059ec:	b726                	fsd	fs1,424(sp)
e00059ee:	4e46                	lw	t3,80(sp)
e00059f0:	56d6                	lw	a3,116(sp)
e00059f2:	f776                	fsw	ft9,172(sp)
e00059f4:	0000                	unimp
e00059f6:	1720                	addi	s0,sp,936
e00059f8:	84d6f747          	fmsub.h	a4,a3,a3,a6
e00059fc:	5726                	lw	a4,104(sp)
e00059fe:	2656                	fld	fa2,336(sp)
e0005a00:	0000                	unimp
e0005a02:	62f0                	flw	fa2,68(a3)
e0005a04:	e736                	fsw	fa3,140(sp)
e0005a06:	9a92                	add	s5,s5,tp
e0005a08:	f685                	bnez	a3,e0005930 <hmac_smoketest+0x53a4>
e0005a0a:	b6f6                	fsd	ft9,360(sp)
e0005a0c:	0000                	unimp
e0005a0e:	f730                	fsw	fa2,104(a4)
e0005a10:	4526                	lw	a0,72(sp)
e0005a12:	0c75                	addi	s8,s8,29
e0005a14:	2460                	fld	fs0,200(s0)
e0005a16:	00005657          	pv.add.sc.b	a2,zero,zero
e0005a1a:	0630                	addi	a2,sp,776
e0005a1c:	f6c6                	fsw	fa7,108(sp)
e0005a1e:	9e46                	add	t3,t3,a7
e0005a20:	d205                	beqz	a2,e0005940 <hmac_smoketest+0x53b4>
e0005a22:	c616                	sw	t0,12(sp)
e0005a24:	0000                	unimp
e0005a26:	34f0                	fld	fa2,232(s1)
e0005a28:	4656                	lw	a2,84(sp)
e0005a2a:	c236                	sw	a3,4(sp)
e0005a2c:	1662                	slli	a2,a2,0x38
e0005a2e:	c696                	sw	t0,76(sp)
e0005a30:	0000                	unimp
e0005a32:	0630                	addi	a2,sp,776
e0005a34:	2dc61657          	pv.cmple.b	a2,a2,t3
e0005a38:	e492                	fsw	ft4,72(sp)
e0005a3a:	2636                	fld	fa2,328(sp)
e0005a3c:	0000                	unimp
e0005a3e:	02e0                	addi	s0,sp,332
e0005a40:	0706                	slli	a4,a4,0x1
e0005a42:	a4d2                	fsd	fs4,72(sp)
e0005a44:	8206                	mv	tp,ra
e0005a46:	1656                	slli	a2,a2,0x35
e0005a48:	0000                	unimp
e0005a4a:	5730                	lw	a2,104(a4)
e0005a4c:	06e6                	slli	a3,a3,0x19
e0005a4e:	3c72                	fld	fs8,312(sp)
e0005a50:	57a6                	lw	a5,104(sp)
e0005a52:	9206                	add	tp,tp,ra
e0005a54:	0000                	unimp
e0005a56:	9730                	0x9730
e0005a58:	34f5                	jal	e0005544 <hmac_smoketest+0x4fb8>
e0005a5a:	f005                	bnez	s0,e000597a <hmac_smoketest+0x53ee>
e0005a5c:	45265657          	pv.cmpltu.sc.b	a2,a2,s2
e0005a60:	0000                	unimp
e0005a62:	2460                	fld	fs0,200(s0)
e0005a64:	82e6                	mv	t0,s9
e0005a66:	94d6                	add	s1,s1,s5
e0005a68:	66e6                	flw	fa3,88(sp)
e0005a6a:	7696                	flw	fa3,100(sp)
e0005a6c:	0000                	unimp
e0005a6e:	f430                	fsw	fa2,104(s0)
e0005a70:	f545                	bnez	a0,e0005a18 <hmac_smoketest+0x548c>
e0005a72:	d6e4                	sw	s1,108(a3)
e0005a74:	5724                	lw	s1,104(a4)
e0005a76:	2656                	fld	fa2,336(sp)
e0005a78:	0000                	unimp
e0005a7a:	6000                	flw	fs0,0(s0)
e0005a7c:	06b6                	slli	a3,a3,0xd
e0005a7e:	0912                	slli	s2,s2,0x4
e0005a80:	4732                	lw	a4,12(sp)
e0005a82:	00003617          	auipc	a2,0x3
e0005a86:	0530                	addi	a2,sp,648
e0005a88:	76f6                	flw	fa3,124(sp)
e0005a8a:	26571b27          	0x26571b27
e0005a8e:	0000c667          	0xc667
e0005a92:	66f0                	flw	fa2,76(a3)
e0005a94:	2dc61657          	pv.cmple.b	a2,a2,t3
e0005a98:	e492                	fsw	ft4,72(sp)
e0005a9a:	2636                	fld	fa2,328(sp)
e0005a9c:	0000                	unimp
e0005a9e:	02e0                	addi	s0,sp,332
e0005aa0:	b636                	fsd	fa3,296(sp)
e0005aa2:	66e6                	flw	fa3,88(sp)
e0005aa4:	3206                	fld	ft4,96(sp)
e0005aa6:	00001747          	fmsub.s	fa4,ft0,ft0,ft0,rtz
e0005aaa:	5730                	lw	a2,104(a4)
e0005aac:	66f2                	flw	fa3,28(sp)
e0005aae:	f4d6                	fsw	fs5,104(sp)
e0005ab0:	0657a697          	auipc	a3,0x657a
e0005ab4:	0000                	unimp
e0005ab6:	3200                	fld	fs0,32(a2)
e0005ab8:	4c725203          	lhu	tp,1223(tp) # 572424c7 <tohost+0x572224bf>
e0005abc:	a6b73617          	auipc	a2,0xa6b73
e0005ac0:	0000                	unimp
e0005ac2:	4200                	lw	s0,0(a2)
e0005ac4:	0000                	unimp
e0005ac6:	c6e0                	sw	s0,76(a3)
e0005ac8:	0000                	unimp
e0005aca:	0000                	unimp
e0005acc:	0000                	unimp
e0005ace:	0730                	addi	a2,sp,904
e0005ad0:	0000                	unimp
e0005ad2:	bdc0                	fsd	fs0,184(a1)
e0005ad4:	013f0003          	lb	zero,19(t5)
e0005ad8:	0000                	unimp
e0005ada:	8240                	0x8240
e0005adc:	f91f0003          	lb	zero,-111(t5)
e0005ae0:	0000                	unimp
e0005ae2:	85a0                	0x85a0
e0005ae4:	0000                	unimp
e0005ae6:	0000                	unimp
e0005ae8:	b00f0003          	lb	zero,-1280(t5)
e0005aec:	0000                	unimp
e0005aee:	8240                	0x8240
e0005af0:	0000                	unimp
e0005af2:	0000                	unimp
e0005af4:	0000                	unimp
e0005af6:	c1b0                	sw	a2,64(a1)
e0005af8:	0000                	unimp
e0005afa:	0000                	unimp
e0005afc:	0000                	unimp
e0005afe:	01d0                	addi	a2,sp,196
e0005b00:	0001                	nop
e0005b02:	0003100f          	0x3100f
e0005b06:	000057af          	0x57af
e0005b0a:	8990                	0x8990
e0005b0c:	0001                	nop
e0005b0e:	000118af          	0x118af
e0005b12:	0000586f          	jal	a6,e000ab12 <_stack+0xb12>
e0005b16:	5800                	lw	s0,48(s0)
e0005b18:	0001                	nop
e0005b1a:	000118af          	0x118af
e0005b1e:	000059ef          	jal	s3,e000ab1e <_stack+0xb1e>
e0005b22:	58c0                	lw	s0,52(s1)
e0005b24:	0001                	nop
e0005b26:	1a9f 0001 59ef      	0x59ef00011a9f
e0005b2c:	0000                	unimp
e0005b2e:	5740                	lw	s0,44(a4)
e0005b30:	0001                	nop
e0005b32:	000198af          	0x198af
e0005b36:	0000592f          	0x592f
e0005b3a:	5740                	lw	s0,44(a4)
e0005b3c:	0001                	nop
e0005b3e:	0001956f          	jal	a0,e001eb3e <fromhost+0xeb2e>
e0005b42:	000059ef          	jal	s3,e000ab42 <_stack+0xb42>
e0005b46:	59e0                	lw	s0,116(a1)
e0005b48:	96e642f7          	0x96e642f7
e0005b4c:	0001                	nop
e0005b4e:	0000773f 96c25980 	0x96c259800000773f
e0005b56:	0b26                	slli	s6,s6,0x9
e0005b58:	f6563697          	auipc	a3,0xf6563
e0005b5c:	0000                	unimp
e0005b5e:	6650                	flw	fa2,12(a2)
e0005b60:	1386e697          	auipc	a3,0x1386e
e0005b64:	5742                	lw	a4,48(sp)
e0005b66:	4736                	lw	a4,76(sp)
e0005b68:	0000                	unimp
e0005b6a:	f620                	fsw	fs0,104(a2)
e0005b6c:	538665f7          	0x538665f7
e0005b70:	5742                	lw	a4,48(sp)
e0005b72:	4736                	lw	a4,76(sp)
e0005b74:	0000                	unimp
e0005b76:	f670                	fsw	fa2,108(a2)
e0005b78:	b726                	fsd	fs1,424(sp)
e0005b7a:	4e46                	lw	t3,80(sp)
e0005b7c:	56d6                	lw	a3,116(sp)
e0005b7e:	f776                	fsw	ft9,172(sp)
e0005b80:	0000                	unimp
e0005b82:	1720                	addi	s0,sp,936
e0005b84:	3695                	jal	e00056e8 <hmac_smoketest+0x515c>
e0005b86:	474676e7          	0x474676e7
e0005b8a:	0000f667          	0xf667
e0005b8e:	f2f0                	fsw	fa2,100(a3)
e0005b90:	5414                	lw	a3,40(s0)
e0005b92:	1c75                	addi	s8,s8,-3
e0005b94:	600632e7          	0x600632e7
e0005b98:	0000                	unimp
e0005b9a:	3720                	fld	fs0,104(a4)
e0005b9c:	e75202e7          	jalr	t0,-395(tp) # fffffe75 <pulp__FC+0xfffffe76>
e0005ba0:	03a5                	addi	t2,t2,9
e0005ba2:	3252                	fld	ft4,304(sp)
e0005ba4:	0000                	unimp
e0005ba6:	44c0                	lw	s0,12(s1)
e0005ba8:	53d4                	lw	a3,36(a5)
e0005baa:	ce42                	sw	a6,28(sp)
e0005bac:	5414                	lw	a3,40(s0)
e0005bae:	5535                	li	a0,-19
e0005bb0:	0000                	unimp
e0005bb2:	34d0                	fld	fa2,168(s1)
e0005bb4:	3504                	fld	fs1,40(a0)
e0005bb6:	aff4                	fsd	fa3,216(a5)
e0005bb8:	54d20783          	lb	a5,1357(tp) # 54d <_min_stack-0x1ab3>
e0005bbc:	0000                	unimp
e0005bbe:	8300                	0x8300
e0005bc0:	44d2                	lw	s1,20(sp)
e0005bc2:	4a95                	li	s5,5
e0005bc4:	8302                	jr	t1
e0005bc6:	00000783          	lb	a5,0(zero) # 0 <_min_stack-0x2000>
e0005bca:	53d0                	lw	a2,36(a5)
e0005bcc:	82378383          	lb	t2,-2013(a5) # 28a250bf <pulp__FC+0x28a250c0>
e0005bd0:	d4c4                	sw	s1,44(s1)
e0005bd2:	00000253          	fadd.s	ft4,ft0,ft0,rne
e0005bd6:	1560                	addi	s0,sp,684
e0005bd8:	db272617          	auipc	a2,0xdb272
e0005bdc:	66f5                	lui	a3,0x1d
e0005bde:	7746                	flw	fa4,112(sp)
e0005be0:	0000                	unimp
e0005be2:	3000                	fld	fs0,32(s0)
e0005be4:	9540                	0x9540
e0005be6:	fdc6                	fsw	fa7,248(sp)
e0005be8:	2492                	fld	fs1,256(sp)
e0005bea:	0515                	addi	a0,a0,5
e0005bec:	0000                	unimp
e0005bee:	0650                	addi	a2,sp,772
e0005bf0:	0515                	addi	a0,a0,5
e0005bf2:	8ff0                	0x8ff0
e0005bf4:	0726                	slli	a4,a4,0x9
e0005bf6:	2492                	fld	fs1,256(sp)
e0005bf8:	0000                	unimp
e0005bfa:	56d0                	lw	a2,44(a3)
e0005bfc:	c696                	sw	t0,76(sp)
e0005bfe:	8ff6                	mv	t6,t4
e0005c00:	d464                	sw	s1,108(s0)
e0005c02:	1662                	slli	a2,a2,0x38
e0005c04:	0000                	unimp
e0005c06:	9440                	0x9440
e0005c08:	6725                	lui	a4,0x9
e0005c0a:	96426dc7          	0x96426dc7
e0005c0e:	f666                	fsw	fs9,44(sp)
e0005c10:	0000                	unimp
e0005c12:	03a0                	addi	s0,sp,456
e0005c14:	2695                	jal	e0005f78 <hmac_smoketest+0x59ec>
e0005c16:	96c73757          	0x96c73757
e0005c1a:	f636                	fsw	fa3,44(sp)
e0005c1c:	0000                	unimp
e0005c1e:	05f0                	addi	a2,sp,716
e0005c20:	86d6                	mv	a3,s5
e0005c22:	54d2                	lw	s1,52(sp)
e0005c24:	c635                	beqz	a2,e0005c90 <hmac_smoketest+0x5704>
e0005c26:	9616                	add	a2,a2,t0
e0005c28:	0000                	unimp
e0005c2a:	f710                	fsw	fa2,40(a4)
e0005c2c:	c705                	beqz	a4,e0005c54 <hmac_smoketest+0x56c8>
e0005c2e:	7c76                	flw	fs8,124(sp)
e0005c30:	4746                	lw	a4,80(sp)
e0005c32:	0000f667          	0xf667
e0005c36:	f260                	fsw	fs0,100(a2)
e0005c38:	96c5                	srai	a3,a3,0x31
e0005c3a:	e006                	fsw	ft1,0(sp)
e0005c3c:	02c6                	slli	t0,t0,0x11
e0005c3e:	06b2                	slli	a3,a3,0xc
e0005c40:	0000                	unimp
e0005c42:	3690                	fld	fa2,40(a3)
e0005c44:	c746                	sw	a7,140(sp)
e0005c46:	94d2                	add	s1,s1,s4
e0005c48:	2615                	jal	e0005f6c <hmac_smoketest+0x59e0>
e0005c4a:	00005677          	0x5677
e0005c4e:	4630                	lw	a2,72(a2)
e0005c50:	95f6                	add	a1,a1,t4
e0005c52:	e006                	fsw	ft1,0(sp)
e0005c54:	c702                	sw	zero,140(sp)
e0005c56:	3696                	fld	fa3,352(sp)
e0005c58:	0000                	unimp
e0005c5a:	6200                	flw	fs0,0(a2)
e0005c5c:	2202                	fld	ft4,0(sp)
e0005c5e:	95f79757          	0x95f79757
e0005c62:	9646                	add	a2,a2,a7
e0005c64:	0000                	unimp
e0005c66:	1720                	addi	s0,sp,936
e0005c68:	32325207          	0x32325207
e0005c6c:	36e72757          	0x36e72757
e0005c70:	0000                	unimp
e0005c72:	4650                	lw	a2,12(a2)
e0005c74:	1662                	slli	a2,a2,0x38
e0005c76:	5b26                	lw	s6,104(sp)
e0005c78:	9440                	0x9440
e0005c7a:	d464                	sw	s1,108(s0)
e0005c7c:	0000                	unimp
e0005c7e:	0640                	addi	s0,sp,772
e0005c80:	f666                	fsw	fs9,44(sp)
e0005c82:	b6e5                	j	e000586a <hmac_smoketest+0x52de>
e0005c84:	03a6                	slli	t2,t2,0x9
e0005c86:	9642                	add	a2,a2,a6
e0005c88:	0000                	unimp
e0005c8a:	c690                	sw	a2,8(a3)
e0005c8c:	f636                	fsw	fa3,44(sp)
e0005c8e:	5005                	0x5005
e0005c90:	96c705f7          	0x96c705f7
e0005c94:	0000                	unimp
e0005c96:	6720                	flw	fs0,72(a4)
e0005c98:	06d6                	slli	a3,a3,0x15
e0005c9a:	f717f007          	0xf717f007
e0005c9e:	f635                	bnez	a2,e0005c0a <hmac_smoketest+0x567e>
e0005ca0:	0000                	unimp
e0005ca2:	2690                	fld	fa2,8(a3)
e0005ca4:	46f2                	lw	a3,28(sp)
e0005ca6:	57460757          	pv.cplxmul.h.i	a4,a2,s4
e0005caa:	6286                	flw	ft5,64(sp)
e0005cac:	0000                	unimp
e0005cae:	56c0                	lw	s0,44(a3)
e0005cb0:	c636                	sw	a3,12(sp)
e0005cb2:	b382                	fsd	ft0,480(sp)
e0005cb4:	05f6                	slli	a1,a1,0x1d
e0005cb6:	000096c7          	fmsub.s	fa3,ft1,ft0,ft0,rtz
e0005cba:	6740                	flw	fs0,12(a4)
e0005cbc:	1546                	slli	a0,a0,0x31
e0005cbe:	88a6                	mv	a7,s1
e0005cc0:	c506                	sw	ra,136(sp)
e0005cc2:	3696                	fld	fa3,352(sp)
e0005cc4:	0000                	unimp
e0005cc6:	b200                	fsd	fs0,32(a2)
e0005cc8:	c702                	sw	zero,140(sp)
e0005cca:	aff6                	fsd	ft9,472(sp)
e0005ccc:	4656                	lw	a2,84(sp)
e0005cce:	000002c7          	fmsub.s	ft5,ft0,ft0,ft0,rne
e0005cd2:	7720                	flw	fs0,104(a4)
e0005cd4:	500695f7          	0x500695f7
e0005cd8:	95f6                	add	a1,a1,t4
e0005cda:	1726                	slli	a4,a4,0x29
e0005cdc:	0000                	unimp
e0005cde:	3690                	fld	fa2,40(a3)
e0005ce0:	90072757          	0x90072757
e0005ce4:	2202                	fld	ft4,0(sp)
e0005ce6:	00004657          	pv.add.sc.h	a2,zero,zero
e0005cea:	9640                	0x9640
e0005cec:	8450                	0x8450
e0005cee:	52078dc7          	fmsub.d	fs11,fa5,ft0,fa0,rne
e0005cf2:	0642                	slli	a2,a2,0x10
e0005cf4:	0000                	unimp
e0005cf6:	36e0                	fld	fs0,232(a3)
e0005cf8:	9206                	add	tp,tp,ra
e0005cfa:	76e4                	flw	fs1,108(a3)
e0005cfc:	e726                	fsw	fs1,140(sp)
e0005cfe:	c616                	sw	t0,12(sp)
e0005d00:	0000                	unimp
e0005d02:	5740                	lw	s0,44(a4)
e0005d04:	5c772747          	fmsub.h	a4,a4,t2,a1,rdn
e0005d08:	9005                	srli	s0,s0,0x21
e0005d0a:	36e4                	fld	fs1,232(a3)
e0005d0c:	0000                	unimp
e0005d0e:	1520                	addi	s0,sp,680
e0005d10:	d206                	sw	ra,36(sp)
e0005d12:	c8a4                	sw	s1,80(s1)
e0005d14:	9746                	add	a4,a4,a7
e0005d16:	e6f6                	fsw	ft9,76(sp)
e0005d18:	0000                	unimp
e0005d1a:	3750                	fld	fa2,168(a4)
e0005d1c:	56e6                	lw	a3,120(sp)
e0005d1e:	2c76                	fld	fs8,344(sp)
e0005d20:	7696c617          	auipc	a2,0x7696c
e0005d24:	0000                	unimp
e0005d26:	3690                	fld	fa2,40(a3)
e0005d28:	5c775727          	0x5c775727
e0005d2c:	e490                	fsw	fa2,8(s1)
e0005d2e:	4736                	lw	a4,76(sp)
e0005d30:	0000                	unimp
e0005d32:	0640                	addi	s0,sp,772
e0005d34:	3412                	fld	fs0,288(sp)
e0005d36:	fff6                	fsw	ft9,252(sp)
e0005d38:	06e6f697          	auipc	a3,0x6e6f
e0005d3c:	0000                	unimp
e0005d3e:	4630                	lw	a2,72(a2)
e0005d40:	c6c4                	sw	s1,12(a3)
e0005d42:	9756                	add	a4,a4,s5
e0005d44:	3736                	fld	fa4,360(sp)
e0005d46:	00009007          	0x9007
e0005d4a:	5630                	lw	a2,104(a2)
e0005d4c:	36e4                	fld	fs1,232(a3)
e0005d4e:	c61651b7          	lui	gp,0xc6165
e0005d52:	9206                	add	tp,tp,ra
e0005d54:	0000                	unimp
e0005d56:	7650                	flw	fa2,44(a2)
e0005d58:	e6f6                	fsw	ft9,76(sp)
e0005d5a:	1c76                	slli	s8,s8,0x3d
e0005d5c:	97463757          	0x97463757
e0005d60:	0000                	unimp
e0005d62:	2740                	fld	fs0,136(a4)
e0005d64:	f706                	fsw	ft1,172(sp)
e0005d66:	2b26                	fld	fs6,72(sp)
e0005d68:	5724                	lw	s1,104(a4)
e0005d6a:	b616                	fsd	ft5,296(sp)
e0005d6c:	0000                	unimp
e0005d6e:	2000                	fld	fs0,0(s0)
e0005d70:	4616                	lw	a2,68(sp)
e0005d72:	d236                	sw	a3,36(sp)
e0005d74:	0746                	slli	a4,a4,0x11
e0005d76:	f4c0                	fsw	fs0,44(s1)
e0005d78:	0000                	unimp
e0005d7a:	e690                	fsw	fa2,8(a3)
e0005d7c:	3736                	fld	fa4,360(sp)
e0005d7e:	464474d7          	pv.cmpltu.sci.b	s1,s0,9
e0005d82:	5726                	lw	a4,104(sp)
e0005d84:	0000                	unimp
e0005d86:	1200                	addi	s0,sp,288
e0005d88:	7696                	flw	fa3,100(sp)
e0005d8a:	7916                	flw	fs2,100(sp)
e0005d8c:	3694                	fld	fa3,40(a3)
e0005d8e:	0000c617          	auipc	a2,0xc
e0005d92:	d200                	sw	s0,32(a2)
e0005d94:	4616                	lw	a2,68(sp)
e0005d96:	11b6                	slli	gp,gp,0x2d
e0005d98:	0646                	slli	a2,a2,0x11
e0005d9a:	f4c0                	fsw	fs0,44(s1)
e0005d9c:	0000                	unimp
e0005d9e:	56e0                	lw	s0,108(a3)
e0005da0:	8c720737          	lui	a4,0x8c720
e0005da4:	3634                	fld	fa3,104(a2)
e0005da6:	3656                	fld	fa2,368(sp)
e0005da8:	0000                	unimp
e0005daa:	1200                	addi	s0,sp,288
e0005dac:	4530                	lw	a2,72(a0)
e0005dae:	c7569dc7          	0xc7569dc7
e0005db2:	0746                	slli	a4,a4,0x11
e0005db4:	0000                	unimp
e0005db6:	1460                	addi	s0,sp,556
e0005db8:	2646                	fld	fa2,80(sp)
e0005dba:	06577e47          	0x6577e47
e0005dbe:	4412                	lw	s0,4(sp)
e0005dc0:	0000                	unimp
e0005dc2:	26f0                	fld	fa2,200(a3)
e0005dc4:	1736                	slli	a4,a4,0x2d
e0005dc6:	b566                	fsd	fs9,168(sp)
e0005dc8:	94d20737          	lui	a4,0x94d20
e0005dcc:	0000                	unimp
e0005dce:	3650                	fld	fa2,168(a2)
e0005dd0:	3006                	fld	ft0,96(sp)
e0005dd2:	11b5                	addi	gp,gp,-19
e0005dd4:	e676                	fsw	ft9,12(sp)
e0005dd6:	4656                	lw	a2,84(sp)
e0005dd8:	0000                	unimp
e0005dda:	96c0                	0x96c0
e0005ddc:	3634                	fld	fa3,104(a2)
e0005dde:	6756                	flw	fa4,84(sp)
e0005de0:	5726                	lw	a4,104(sp)
e0005de2:	1206                	slli	tp,tp,0x21
e0005de4:	0000                	unimp
e0005de6:	f740                	fsw	fs0,44(a4)
e0005de8:	c756                	sw	s5,140(sp)
e0005dea:	d6e6                	sw	s9,108(sp)
e0005dec:	14620737          	lui	a4,0x14620
e0005df0:	0000                	unimp
e0005df2:	3650                	fld	fa2,168(a2)
e0005df4:	5646                	lw	a2,112(sp)
e0005df6:	8916                	mv	s2,t0
e0005df8:	d550                	sw	a2,44(a0)
e0005dfa:	f6d2                	fsw	fs4,108(sp)
e0005dfc:	0000                	unimp
e0005dfe:	0740                	addi	s0,sp,900
e0005e00:	3006                	fld	ft0,96(sp)
e0005e02:	7a95                	lui	s5,0xfffe5
e0005e04:	1634                	addi	a3,sp,808
e0005e06:	c6c6                	sw	a7,76(sp)
e0005e08:	0000                	unimp
e0005e0a:	5200                	lw	s0,32(a2)
e0005e0c:	3452                	fld	fs0,304(sp)
e0005e0e:	86e6                	mv	a3,s9
e0005e10:	46f6                	lw	a3,92(sp)
e0005e12:	0656                	slli	a2,a2,0x15
e0005e14:	0000                	unimp
e0005e16:	d2d0                	sw	a2,36(a3)
e0005e18:	5736                	lw	a4,108(sp)
e0005e1a:	ac76                	fsd	ft9,24(sp)
e0005e1c:	06c6                	slli	a3,a3,0x11
e0005e1e:	5520                	lw	s0,104(a0)
e0005e20:	0000                	unimp
e0005e22:	c610                	sw	a2,8(a2)
e0005e24:	d2d4                	sw	a3,36(a3)
e0005e26:	9dc6                	add	s11,s11,a7
e0005e28:	d0064657          	pv.pack.l.h	a2,a2,zero
e0005e2c:	0000                	unimp
e0005e2e:	6720                	flw	fs0,72(a4)
e0005e30:	c616                	sw	t0,12(sp)
e0005e32:	28a6                	fld	fa7,72(sp)
e0005e34:	0656                	slli	a2,a2,0x15
e0005e36:	3452                	fld	fs0,304(sp)
e0005e38:	0000                	unimp
e0005e3a:	46f0                	lw	a2,76(a3)
e0005e3c:	90075727          	0x90075727
e0005e40:	e490                	fsw	fa2,8(s1)
e0005e42:	4736                	lw	a4,76(sp)
e0005e44:	0000                	unimp
e0005e46:	06c0                	addi	s0,sp,836
e0005e48:	1502                	slli	a0,a0,0x20
e0005e4a:	7b26                	flw	fs6,104(sp)
e0005e4c:	06e6f697          	auipc	a3,0x6e6f
e0005e50:	0000                	unimp
e0005e52:	4630                	lw	a2,72(a2)
e0005e54:	8a9746c7          	fmsub.d	fa3,fa4,fs1,fa7,rmm
e0005e58:	6206                	flw	ft4,64(sp)
e0005e5a:	5614                	lw	a3,40(a2)
e0005e5c:	0000                	unimp
e0005e5e:	5670                	lw	a2,108(a2)
e0005e60:	1502                	slli	a0,a0,0x20
e0005e62:	7e46                	flw	ft8,112(sp)
e0005e64:	16f4                	addi	a3,sp,876
e0005e66:	0646                	slli	a2,a2,0x11
e0005e68:	0000                	unimp
e0005e6a:	c000                	sw	s0,0(s0)
e0005e6c:	8a9746c7          	fmsub.d	fa3,fa4,fs1,fa7,rmm
e0005e70:	6206                	flw	ft4,64(sp)
e0005e72:	5614                	lw	a3,40(a2)
e0005e74:	0000                	unimp
e0005e76:	5670                	lw	a2,108(a2)
e0005e78:	0206                	slli	tp,tp,0x1
e0005e7a:	2005                	jal	e0005e9a <hmac_smoketest+0x590e>
e0005e7c:	f745                	bnez	a4,e0005e24 <hmac_smoketest+0x5898>
e0005e7e:	5726                	lw	a4,104(sp)
e0005e80:	0000                	unimp
e0005e82:	3000                	fld	fs0,32(s0)
e0005e84:	c756                	sw	s5,140(sp)
e0005e86:	9006                	0x9006
e0005e88:	0656                	slli	a2,a2,0x15
e0005e8a:	1462                	slli	s0,s0,0x38
e0005e8c:	0000                	unimp
e0005e8e:	7610                	flw	fa2,40(a2)
e0005e90:	e726                	fsw	fs1,140(sp)
e0005e92:	14d6                	slli	s1,s1,0x35
e0005e94:	e490                	fsw	fa2,8(s1)
e0005e96:	5746                	lw	a4,112(sp)
e0005e98:	0000                	unimp
e0005e9a:	0740                	addi	s0,sp,900
e0005e9c:	0005                	c.addi	zero,1
e0005e9e:	56e0                	lw	s0,108(a3)
e0005ea0:	9206                	add	tp,tp,ra
e0005ea2:	1524                	addi	s1,sp,680
e0005ea4:	0000                	unimp
e0005ea6:	c610                	sw	a2,8(a2)
e0005ea8:	300f0003          	lb	zero,768(t5)
e0005eac:	0000                	unimp
e0005eae:	92c0                	0x92c0
e0005eb0:	0000                	unimp
e0005eb2:	0020                	addi	s0,sp,8
e0005eb4:	0000                	unimp
e0005eb6:	e1b0                	fsw	fa2,64(a1)
e0005eb8:	0000                	unimp
e0005eba:	0040                	addi	s0,sp,4
e0005ebc:	0000                	unimp
e0005ebe:	03c0                	addi	s0,sp,452
e0005ec0:	0000                	unimp
e0005ec2:	7910                	flw	fa2,48(a0)
e0005ec4:	002f0003          	lb	zero,2(t5)
e0005ec8:	0000                	unimp
e0005eca:	95d0                	0x95d0
e0005ecc:	0000                	unimp
e0005ece:	d1b0                	sw	a2,96(a1)
e0005ed0:	09ff0003          	lb	zero,159(t5)
e0005ed4:	0000                	unimp
e0005ed6:	92c0                	0x92c0
e0005ed8:	d1bf0003          	lb	zero,-741(t5)
e0005edc:	0000                	unimp
e0005ede:	9a00                	0x9a00
e0005ee0:	0000                	unimp
e0005ee2:	0010                	addi	a2,sp,0
e0005ee4:	300f0003          	lb	zero,768(t5)
e0005ee8:	0000                	unimp
e0005eea:	92c0                	0x92c0
e0005eec:	0000                	unimp
e0005eee:	0020                	addi	s0,sp,8
e0005ef0:	0000                	unimp
e0005ef2:	a560                	fsd	fs0,200(a0)
e0005ef4:	0000                	unimp
e0005ef6:	0010                	addi	a2,sp,0
e0005ef8:	0000                	unimp
e0005efa:	0a80                	addi	s0,sp,336
e0005efc:	de4f0003          	lb	zero,-540(t5)
e0005f00:	a53f0003          	lb	zero,-1453(t5)
e0005f04:	0000                	unimp
e0005f06:	9f20                	0x9f20
e0005f08:	5b2f0003          	lb	zero,1458(t5)
e0005f0c:	a7df0003          	lb	zero,-1411(t5)
e0005f10:	0000                	unimp
e0005f12:	a6a0                	fsd	fs0,72(a3)
e0005f14:	1fff0003          	lb	zero,511(t5)
e0005f18:	a9cf0003          	lb	zero,-1380(t5)
e0005f1c:	0000                	unimp
e0005f1e:	a910                	fsd	fa2,16(a0)
e0005f20:	5e4f0003          	lb	zero,1508(t5)
e0005f24:	ac6f0003          	lb	zero,-1338(t5)
e0005f28:	0000                	unimp
e0005f2a:	ab40                	fsd	fs0,144(a4)
e0005f2c:	b8af0003          	lb	zero,-1142(t5)
e0005f30:	af2f0003          	lb	zero,-1294(t5)
e0005f34:	0000                	unimp
e0005f36:	adf0                	fsd	fa2,216(a1)
e0005f38:	b00f0003          	lb	zero,-1280(t5)
e0005f3c:	b0cf0003          	lb	zero,-1268(t5)
e0005f40:	0000                	unimp
e0005f42:	aff0                	fsd	fa2,216(a5)
e0005f44:	375f0003          	lb	zero,885(t5)
e0005f48:	b22f0003          	lb	zero,-1246(t5)
e0005f4c:	0000                	unimp
e0005f4e:	b150                	fsd	fa2,160(a0)
e0005f50:	3a9f0003          	lb	zero,937(t5)
e0005f54:	b0cf0003          	lb	zero,-1268(t5)
e0005f58:	0000                	unimp
e0005f5a:	b390                	fsd	fa2,32(a5)
e0005f5c:	f91f0003          	lb	zero,-111(t5)
e0005f60:	b0cf0003          	lb	zero,-1268(t5)
e0005f64:	0000                	unimp
e0005f66:	b490                	fsd	fa2,40(s1)
e0005f68:	3fff0003          	lb	zero,1023(t5)
e0005f6c:	b0cf0003          	lb	zero,-1268(t5)
e0005f70:	0000                	unimp
e0005f72:	b0c0                	fsd	fs0,160(s1)
e0005f74:	3fff0003          	lb	zero,1023(t5)
e0005f78:	b0cf0003          	lb	zero,-1268(t5)
e0005f7c:	0000                	unimp
e0005f7e:	b0c0                	fsd	fs0,160(s1)
e0005f80:	3fff0003          	lb	zero,1023(t5)
e0005f84:	b0cf0003          	lb	zero,-1268(t5)
e0005f88:	0000                	unimp
e0005f8a:	b0c0                	fsd	fs0,160(s1)
e0005f8c:	3fff0003          	lb	zero,1023(t5)
e0005f90:	b0cf0003          	lb	zero,-1268(t5)
e0005f94:	0000                	unimp
e0005f96:	b0c0                	fsd	fs0,160(s1)
e0005f98:	3fff0003          	lb	zero,1023(t5)
e0005f9c:	b0cf0003          	lb	zero,-1268(t5)
e0005fa0:	0000                	unimp
e0005fa2:	b0c0                	fsd	fs0,160(s1)
e0005fa4:	3fff0003          	lb	zero,1023(t5)
e0005fa8:	b0cf0003          	lb	zero,-1268(t5)
e0005fac:	0000                	unimp
e0005fae:	b0c0                	fsd	fs0,160(s1)
e0005fb0:	3fff0003          	lb	zero,1023(t5)
e0005fb4:	b0cf0003          	lb	zero,-1268(t5)
e0005fb8:	0000                	unimp
e0005fba:	b0c0                	fsd	fs0,160(s1)
e0005fbc:	16e642f7          	0x16e642f7
e0005fc0:	773f0003          	lb	zero,1907(t5)
e0005fc4:	0000                	unimp
e0005fc6:	b0c0                	fsd	fs0,160(s1)
e0005fc8:	96c2                	add	a3,a3,a6
e0005fca:	0b26                	slli	s6,s6,0x9
e0005fcc:	f6563697          	auipc	a3,0xf6563
e0005fd0:	0000                	unimp
e0005fd2:	6650                	flw	fa2,12(a2)
e0005fd4:	1386e697          	auipc	a3,0x1386e
e0005fd8:	5742                	lw	a4,48(sp)
e0005fda:	4736                	lw	a4,76(sp)
e0005fdc:	0000                	unimp
e0005fde:	f620                	fsw	fs0,104(a2)
e0005fe0:	45f6                	lw	a1,92(sp)
e0005fe2:	17228ff7          	0x17228ff7
e0005fe6:	46e6                	lw	a3,88(sp)
e0005fe8:	0000                	unimp
e0005fea:	f670                	fsw	fa2,108(a2)
e0005fec:	36c6                	fld	fa3,112(sp)
e0005fee:	574766e7          	0x574766e7
e0005ff2:	00009747          	fmsub.s	fa4,ft1,ft0,ft0,rtz
e0005ff6:	3650                	fld	fa2,168(a2)
e0005ff8:	b434                	fsd	fa3,104(s0)
e0005ffa:	81b4                	0x81b4
e0005ffc:	3006                	fld	ft0,96(sp)
e0005ffe:	5484                	lw	s1,40(s1)
e0006000:	0000                	unimp
e0006002:	32e0                	fld	fs0,224(a3)
e0006004:	9ff72203          	lw	tp,-1537(a4) # 1461f9ff <tohost+0x145ff9f7>
e0006008:	9616                	add	a2,a2,t0
e000600a:	a6c6                	fsd	fa7,328(sp)
e000600c:	0000                	unimp
e000600e:	62d0                	flw	fa2,4(a3)
e0006010:	95f6                	add	a1,a1,t4
e0006012:	b4d6                	fsd	fs5,104(sp)
e0006014:	f635                	bnez	a2,e0005f80 <hmac_smoketest+0x59f4>
e0006016:	5726                	lw	a4,104(sp)
e0006018:	0000                	unimp
e000601a:	f760                	fsw	fs0,108(a4)
e000601c:	f1b4e203          	p.elw	tp,-229(s1) # ffff0f1b <pulp__FC+0xffff0f1c>
e0006020:	0786                	slli	a5,a5,0x1
e0006022:	d212                	sw	tp,36(sp)
e0006024:	0000                	unimp
e0006026:	5620                	lw	s0,104(a2)
e0006028:	3454                	fld	fa3,168(s0)
e000602a:	f6e4                	fsw	fs1,108(a3)
e000602c:	04c4                	addi	s1,sp,580
e000602e:	8430                	0x8430
e0006030:	0000                	unimp
e0006032:	c550                	sw	a2,12(a0)
e0006034:	03a6                	slli	t2,t2,0x9
e0006036:	d232                	sw	a2,36(sp)
e0006038:	1662                	slli	a2,a2,0x38
e000603a:	c696                	sw	t0,76(sp)
e000603c:	0000                	unimp
e000603e:	d4b0                	sw	a2,104(s1)
e0006040:	2ff6d203          	lhu	tp,767(a3) # f38742d3 <fromhost+0x138642c3>
e0006044:	0786                	slli	a5,a5,0x1
e0006046:	d3e2                	sw	s8,228(sp)
e0006048:	0000                	unimp
e000604a:	16d0                	addi	a2,sp,868
e000604c:	b434                	fsd	fa3,104(s0)
e000604e:	d234                	sw	a3,96(a2)
e0006050:	3006                	fld	ft0,96(sp)
e0006052:	5484                	lw	s1,40(s1)
e0006054:	0000                	unimp
e0006056:	e690                	fsw	fa2,8(a3)
e0006058:	9ff72203          	lw	tp,-1537(a4)
e000605c:	9616                	add	a2,a2,t0
e000605e:	a6c6                	fsd	fa7,328(sp)
e0006060:	0000                	unimp
e0006062:	62d0                	flw	fa2,4(a3)
e0006064:	d3e2                	sw	s8,228(sp)
e0006066:	c757fc73          	csrrci	s8,0xc75,15
e000606a:	0746                	slli	a4,a4,0x11
e000606c:	0000                	unimp
e000606e:	3650                	fld	fa2,168(a2)
e0006070:	0262                	slli	tp,tp,0x18
e0006072:	68a2                	flw	fa7,8(sp)
e0006074:	e696                	fsw	ft5,76(sp)
e0006076:	6206                	flw	ft4,64(sp)
e0006078:	0000                	unimp
e000607a:	d200                	sw	s0,32(a2)
e000607c:	7e43c207          	0x7e43c207
e0006080:	5736                	lw	a4,108(sp)
e0006082:	000046c7          	fmsub.s	fa3,ft0,ft0,ft0,rmm
e0006086:	5720                	lw	s0,104(a4)
e0006088:	0000                	unimp
e000608a:	54d0                	lw	a2,44(s1)
e000608c:	16d2                	slli	a3,a3,0x34
e000608e:	0786                	slli	a5,a5,0x1
e0006090:	0000                	unimp
e0006092:	03d0                	addi	a2,sp,452
e0006094:	4e4f0003          	lb	zero,1252(t5)
e0006098:	0000                	unimp
e000609a:	c240                	sw	s0,4(a2)
e000609c:	0000                	unimp
e000609e:	0020                	addi	s0,sp,8
e00060a0:	0000                	unimp
e00060a2:	08a0                	addi	s0,sp,88
e00060a4:	0000                	unimp
e00060a6:	0000                	unimp
e00060a8:	0000                	unimp
e00060aa:	0200                	addi	s0,sp,256
e00060ac:	0000                	unimp
e00060ae:	d910                	sw	a2,48(a0)
e00060b0:	000f0003          	lb	zero,0(t5)
e00060b4:	0000                	unimp
e00060b6:	c4b0                	sw	a2,72(s1)
e00060b8:	0000                	unimp
e00060ba:	6e40                	flw	fs0,28(a2)
e00060bc:	0000                	unimp
e00060be:	0010                	addi	a2,sp,0
e00060c0:	0000                	unimp
e00060c2:	0010                	addi	a2,sp,0
e00060c4:	0000                	unimp
e00060c6:	6e40                	flw	fs0,28(a2)
e00060c8:	0000                	unimp
e00060ca:	0010                	addi	a2,sp,0
e00060cc:	0000                	unimp
e00060ce:	0010                	addi	a2,sp,0
e00060d0:	0000                	unimp
e00060d2:	6e40                	flw	fs0,28(a2)
e00060d4:	0000                	unimp
e00060d6:	0010                	addi	a2,sp,0
e00060d8:	0000                	unimp
e00060da:	0010                	addi	a2,sp,0
e00060dc:	0000                	unimp
e00060de:	6e40                	flw	fs0,28(a2)
e00060e0:	0000                	unimp
e00060e2:	0010                	addi	a2,sp,0
e00060e4:	0000                	unimp
e00060e6:	0010                	addi	a2,sp,0
e00060e8:	0000                	unimp
e00060ea:	64d0                	flw	fa2,12(s1)
e00060ec:	0000                	unimp
e00060ee:	0020                	addi	s0,sp,8
e00060f0:	0000                	unimp
e00060f2:	0020                	addi	s0,sp,8
e00060f4:	0000                	unimp
e00060f6:	64d0                	flw	fa2,12(s1)
e00060f8:	0000                	unimp
e00060fa:	0020                	addi	s0,sp,8
e00060fc:	0000                	unimp
e00060fe:	0020                	addi	s0,sp,8
e0006100:	0000                	unimp
e0006102:	64d0                	flw	fa2,12(s1)
e0006104:	0000                	unimp
e0006106:	0020                	addi	s0,sp,8
e0006108:	0000                	unimp
e000610a:	0020                	addi	s0,sp,8
e000610c:	0000                	unimp
e000610e:	64d0                	flw	fa2,12(s1)
e0006110:	0000                	unimp
e0006112:	0020                	addi	s0,sp,8
e0006114:	0000                	unimp
e0006116:	0020                	addi	s0,sp,8
e0006118:	0000                	unimp
e000611a:	0a90                	addi	a2,sp,336
e000611c:	0000                	unimp
e000611e:	0030                	addi	a2,sp,8
e0006120:	0000                	unimp
e0006122:	0030                	addi	a2,sp,8
e0006124:	0000                	unimp
e0006126:	0a90                	addi	a2,sp,336
e0006128:	0000                	unimp
e000612a:	0030                	addi	a2,sp,8
e000612c:	0000                	unimp
e000612e:	0030                	addi	a2,sp,8
e0006130:	0000                	unimp
e0006132:	0a90                	addi	a2,sp,336
e0006134:	0000                	unimp
e0006136:	0030                	addi	a2,sp,8
e0006138:	0000                	unimp
e000613a:	0030                	addi	a2,sp,8
e000613c:	0000                	unimp
e000613e:	0a90                	addi	a2,sp,336
e0006140:	0000                	unimp
e0006142:	0030                	addi	a2,sp,8
e0006144:	0000                	unimp
e0006146:	0030                	addi	a2,sp,8
e0006148:	0000                	unimp
e000614a:	aff0                	fsd	fa2,216(a5)
e000614c:	0000                	unimp
e000614e:	0040                	addi	s0,sp,4
e0006150:	0000                	unimp
e0006152:	0040                	addi	s0,sp,4
e0006154:	0000                	unimp
e0006156:	aff0                	fsd	fa2,216(a5)
e0006158:	0000                	unimp
e000615a:	0040                	addi	s0,sp,4
e000615c:	0000                	unimp
e000615e:	0040                	addi	s0,sp,4
e0006160:	0000                	unimp
e0006162:	aff0                	fsd	fa2,216(a5)
e0006164:	0000                	unimp
e0006166:	0040                	addi	s0,sp,4
e0006168:	0000                	unimp
e000616a:	0040                	addi	s0,sp,4
e000616c:	0000                	unimp
e000616e:	aff0                	fsd	fa2,216(a5)
e0006170:	0000                	unimp
e0006172:	0040                	addi	s0,sp,4
e0006174:	0000                	unimp
e0006176:	0040                	addi	s0,sp,4
e0006178:	0000                	unimp
e000617a:	c1b0                	sw	a2,64(a1)
e000617c:	0000                	unimp
e000617e:	0050                	addi	a2,sp,4
e0006180:	0000                	unimp
e0006182:	0050                	addi	a2,sp,4
e0006184:	0000                	unimp
e0006186:	c1b0                	sw	a2,64(a1)
e0006188:	0000                	unimp
e000618a:	0050                	addi	a2,sp,4
e000618c:	0000                	unimp
e000618e:	0050                	addi	a2,sp,4
e0006190:	0000                	unimp
e0006192:	c1b0                	sw	a2,64(a1)
e0006194:	0000                	unimp
e0006196:	0050                	addi	a2,sp,4
e0006198:	0000                	unimp
e000619a:	0050                	addi	a2,sp,4
e000619c:	0000                	unimp
e000619e:	c1b0                	sw	a2,64(a1)
e00061a0:	0000                	unimp
e00061a2:	0050                	addi	a2,sp,4
e00061a4:	0000                	unimp
e00061a6:	0050                	addi	a2,sp,4
e00061a8:	0000                	unimp
e00061aa:	c1b0                	sw	a2,64(a1)
e00061ac:	0000                	unimp
e00061ae:	0050                	addi	a2,sp,4
e00061b0:	0000                	unimp
e00061b2:	0050                	addi	a2,sp,4
e00061b4:	0000                	unimp
e00061b6:	c1b0                	sw	a2,64(a1)
e00061b8:	0000                	unimp
e00061ba:	0050                	addi	a2,sp,4
e00061bc:	0000                	unimp
e00061be:	0050                	addi	a2,sp,4
e00061c0:	0000                	unimp
e00061c2:	c1b0                	sw	a2,64(a1)
e00061c4:	0000                	unimp
e00061c6:	0050                	addi	a2,sp,4
e00061c8:	0000                	unimp
e00061ca:	0050                	addi	a2,sp,4
e00061cc:	0000                	unimp
e00061ce:	c1b0                	sw	a2,64(a1)
e00061d0:	0000                	unimp
e00061d2:	0050                	addi	a2,sp,4
e00061d4:	0000                	unimp
e00061d6:	0050                	addi	a2,sp,4
e00061d8:	0000                	unimp
e00061da:	c1b0                	sw	a2,64(a1)
e00061dc:	0000                	unimp
e00061de:	0050                	addi	a2,sp,4
e00061e0:	0000                	unimp
e00061e2:	0050                	addi	a2,sp,4
e00061e4:	0000                	unimp
e00061e6:	c1b0                	sw	a2,64(a1)
e00061e8:	0000                	unimp
e00061ea:	0050                	addi	a2,sp,4
e00061ec:	0000                	unimp
e00061ee:	0050                	addi	a2,sp,4
e00061f0:	0000                	unimp
e00061f2:	c1b0                	sw	a2,64(a1)
e00061f4:	0000                	unimp
e00061f6:	0050                	addi	a2,sp,4
e00061f8:	0000                	unimp
e00061fa:	0050                	addi	a2,sp,4
e00061fc:	0000                	unimp
e00061fe:	c1b0                	sw	a2,64(a1)
e0006200:	0000                	unimp
e0006202:	0050                	addi	a2,sp,4
e0006204:	0000                	unimp
e0006206:	0050                	addi	a2,sp,4
e0006208:	0000                	unimp
e000620a:	c1b0                	sw	a2,64(a1)
e000620c:	0000                	unimp
e000620e:	0050                	addi	a2,sp,4
e0006210:	0000                	unimp
e0006212:	0050                	addi	a2,sp,4
e0006214:	0000                	unimp
e0006216:	c1b0                	sw	a2,64(a1)
e0006218:	0000                	unimp
e000621a:	0050                	addi	a2,sp,4
e000621c:	0000                	unimp
e000621e:	0050                	addi	a2,sp,4
e0006220:	0000                	unimp
e0006222:	c1b0                	sw	a2,64(a1)
e0006224:	0000                	unimp
e0006226:	0050                	addi	a2,sp,4
e0006228:	0000                	unimp
e000622a:	0050                	addi	a2,sp,4
e000622c:	0000                	unimp
e000622e:	c1b0                	sw	a2,64(a1)
e0006230:	0000                	unimp
e0006232:	0050                	addi	a2,sp,4
e0006234:	0000                	unimp
e0006236:	0050                	addi	a2,sp,4
e0006238:	0000                	unimp
e000623a:	cb20                	sw	s0,80(a4)
e000623c:	0000                	unimp
e000623e:	0060                	addi	s0,sp,12
e0006240:	0000                	unimp
e0006242:	0060                	addi	s0,sp,12
e0006244:	0000                	unimp
e0006246:	cb20                	sw	s0,80(a4)
e0006248:	0000                	unimp
e000624a:	0060                	addi	s0,sp,12
e000624c:	0000                	unimp
e000624e:	0060                	addi	s0,sp,12
e0006250:	0000                	unimp
e0006252:	cb20                	sw	s0,80(a4)
e0006254:	0000                	unimp
e0006256:	0060                	addi	s0,sp,12
e0006258:	0000                	unimp
e000625a:	0060                	addi	s0,sp,12
e000625c:	0000                	unimp
e000625e:	cb20                	sw	s0,80(a4)
e0006260:	0000                	unimp
e0006262:	0060                	addi	s0,sp,12
e0006264:	0000                	unimp
e0006266:	0060                	addi	s0,sp,12
e0006268:	0000                	unimp
e000626a:	cb20                	sw	s0,80(a4)
e000626c:	0000                	unimp
e000626e:	0060                	addi	s0,sp,12
e0006270:	0000                	unimp
e0006272:	0060                	addi	s0,sp,12
e0006274:	0000                	unimp
e0006276:	cb20                	sw	s0,80(a4)
e0006278:	0000                	unimp
e000627a:	0060                	addi	s0,sp,12
e000627c:	0000                	unimp
e000627e:	0060                	addi	s0,sp,12
e0006280:	0000                	unimp
e0006282:	a560                	fsd	fs0,200(a0)
e0006284:	0000                	unimp
e0006286:	0070                	addi	a2,sp,12
e0006288:	0000                	unimp
e000628a:	0070                	addi	a2,sp,12
e000628c:	0000                	unimp
e000628e:	a560                	fsd	fs0,200(a0)
e0006290:	0000                	unimp
e0006292:	0070                	addi	a2,sp,12
e0006294:	0000                	unimp
e0006296:	0070                	addi	a2,sp,12
e0006298:	0000                	unimp
e000629a:	a560                	fsd	fs0,200(a0)
e000629c:	0000                	unimp
e000629e:	0070                	addi	a2,sp,12
e00062a0:	0000                	unimp
e00062a2:	0070                	addi	a2,sp,12
e00062a4:	0000                	unimp
e00062a6:	a560                	fsd	fs0,200(a0)
e00062a8:	0000                	unimp
e00062aa:	0070                	addi	a2,sp,12
e00062ac:	0000                	unimp
e00062ae:	0070                	addi	a2,sp,12
e00062b0:	0000                	unimp
e00062b2:	a560                	fsd	fs0,200(a0)
e00062b4:	0000                	unimp
e00062b6:	0070                	addi	a2,sp,12
e00062b8:	0000                	unimp
e00062ba:	0070                	addi	a2,sp,12
e00062bc:	0000                	unimp
e00062be:	a560                	fsd	fs0,200(a0)
e00062c0:	0000                	unimp
e00062c2:	0070                	addi	a2,sp,12
e00062c4:	0000                	unimp
e00062c6:	0070                	addi	a2,sp,12
e00062c8:	0000                	unimp
e00062ca:	a560                	fsd	fs0,200(a0)
e00062cc:	0000                	unimp
e00062ce:	0070                	addi	a2,sp,12
e00062d0:	0000                	unimp
e00062d2:	0070                	addi	a2,sp,12
e00062d4:	0000                	unimp
e00062d6:	28a0                	fld	fs0,80(s1)
e00062d8:	0000                	unimp
e00062da:	0080                	addi	s0,sp,64
e00062dc:	0000                	unimp
e00062de:	0070                	addi	a2,sp,12
e00062e0:	0000                	unimp
e00062e2:	64d0                	flw	fa2,12(s1)
e00062e4:	0000                	unimp
e00062e6:	0080                	addi	s0,sp,64
e00062e8:	0000                	unimp
e00062ea:	0080                	addi	s0,sp,64
e00062ec:	0000                	unimp
e00062ee:	64d0                	flw	fa2,12(s1)
e00062f0:	0000                	unimp
e00062f2:	0080                	addi	s0,sp,64
e00062f4:	0000                	unimp
e00062f6:	0080                	addi	s0,sp,64
e00062f8:	0000                	unimp
e00062fa:	64d0                	flw	fa2,12(s1)
e00062fc:	0000                	unimp
e00062fe:	0080                	addi	s0,sp,64
e0006300:	0000                	unimp
e0006302:	0080                	addi	s0,sp,64
e0006304:	0000                	unimp
e0006306:	64d0                	flw	fa2,12(s1)
e0006308:	0000                	unimp
e000630a:	0080                	addi	s0,sp,64
e000630c:	0000                	unimp
e000630e:	0080                	addi	s0,sp,64
e0006310:	0000                	unimp
e0006312:	64d0                	flw	fa2,12(s1)
e0006314:	0000                	unimp
e0006316:	0080                	addi	s0,sp,64
e0006318:	0000                	unimp
e000631a:	0080                	addi	s0,sp,64
e000631c:	0000                	unimp
e000631e:	64d0                	flw	fa2,12(s1)
e0006320:	0000                	unimp
e0006322:	0080                	addi	s0,sp,64
e0006324:	0000                	unimp
e0006326:	0080                	addi	s0,sp,64
e0006328:	0000                	unimp
e000632a:	64d0                	flw	fa2,12(s1)
e000632c:	0000                	unimp
e000632e:	0080                	addi	s0,sp,64
e0006330:	0000                	unimp
e0006332:	0080                	addi	s0,sp,64
e0006334:	0000                	unimp
e0006336:	0a90                	addi	a2,sp,336
e0006338:	0000                	unimp
e000633a:	0090                	addi	a2,sp,64
e000633c:	0000                	unimp
e000633e:	0090                	addi	a2,sp,64
e0006340:	0000                	unimp
e0006342:	0a90                	addi	a2,sp,336
e0006344:	0000                	unimp
e0006346:	0090                	addi	a2,sp,64
e0006348:	0000                	unimp
e000634a:	0090                	addi	a2,sp,64
e000634c:	0000                	unimp
e000634e:	0a90                	addi	a2,sp,336
e0006350:	0000                	unimp
e0006352:	0090                	addi	a2,sp,64
e0006354:	0000                	unimp
e0006356:	0090                	addi	a2,sp,64
e0006358:	0000                	unimp
e000635a:	0a90                	addi	a2,sp,336
e000635c:	0000                	unimp
e000635e:	0090                	addi	a2,sp,64
e0006360:	0000                	unimp
e0006362:	0090                	addi	a2,sp,64
e0006364:	0000                	unimp
e0006366:	0a90                	addi	a2,sp,336
e0006368:	0000                	unimp
e000636a:	0090                	addi	a2,sp,64
e000636c:	0000                	unimp
e000636e:	0090                	addi	a2,sp,64
e0006370:	0000                	unimp
e0006372:	0a90                	addi	a2,sp,336
e0006374:	0000                	unimp
e0006376:	0090                	addi	a2,sp,64
e0006378:	0000                	unimp
e000637a:	0090                	addi	a2,sp,64
e000637c:	0000                	unimp
e000637e:	0a90                	addi	a2,sp,336
e0006380:	0000                	unimp
e0006382:	0090                	addi	a2,sp,64
e0006384:	0000                	unimp
e0006386:	0090                	addi	a2,sp,64
e0006388:	0000                	unimp
e000638a:	0560                	addi	s0,sp,652
e000638c:	0000                	unimp
e000638e:	00a0                	addi	s0,sp,72
e0006390:	0000                	unimp
e0006392:	0090                	addi	a2,sp,64
e0006394:	0000                	unimp
e0006396:	6c70                	flw	fa2,92(s0)
e0006398:	0000                	unimp
e000639a:	00b0                	addi	a2,sp,72
e000639c:	0000                	unimp
e000639e:	00a0                	addi	s0,sp,72
e00063a0:	0000                	unimp
e00063a2:	cb20                	sw	s0,80(a4)
e00063a4:	0000                	unimp
e00063a6:	00c0                	addi	s0,sp,68
e00063a8:	0000                	unimp
e00063aa:	00c0                	addi	s0,sp,68
e00063ac:	0000                	unimp
e00063ae:	a560                	fsd	fs0,200(a0)
e00063b0:	0000                	unimp
e00063b2:	00d0                	addi	a2,sp,68
e00063b4:	0000                	unimp
e00063b6:	00d0                	addi	a2,sp,68
e00063b8:	0000                	unimp
e00063ba:	a560                	fsd	fs0,200(a0)
e00063bc:	0000                	unimp
e00063be:	00d0                	addi	a2,sp,68
e00063c0:	0000                	unimp
e00063c2:	00d0                	addi	a2,sp,68
e00063c4:	0000                	unimp
e00063c6:	aff0                	fsd	fa2,216(a5)
e00063c8:	0000                	unimp
e00063ca:	00e0                	addi	s0,sp,76
e00063cc:	0000                	unimp
e00063ce:	00e0                	addi	s0,sp,76
e00063d0:	0000                	unimp
e00063d2:	c1b0                	sw	a2,64(a1)
e00063d4:	0000                	unimp
e00063d6:	00f0                	addi	a2,sp,76
e00063d8:	0000                	unimp
e00063da:	00f0                	addi	a2,sp,76
e00063dc:	0000                	unimp
e00063de:	6b20                	flw	fs0,80(a4)
e00063e0:	0000                	unimp
e00063e2:	0100                	addi	s0,sp,128
e00063e4:	0000                	unimp
e00063e6:	0100                	addi	s0,sp,128
e00063e8:	0000                	unimp
e00063ea:	6b20                	flw	fs0,80(a4)
e00063ec:	0000                	unimp
e00063ee:	0100                	addi	s0,sp,128
e00063f0:	0000                	unimp
e00063f2:	0100                	addi	s0,sp,128
e00063f4:	0000                	unimp
e00063f6:	6b20                	flw	fs0,80(a4)
e00063f8:	0000                	unimp
e00063fa:	0100                	addi	s0,sp,128
e00063fc:	0000                	unimp
e00063fe:	0100                	addi	s0,sp,128
e0006400:	0000                	unimp
e0006402:	6b20                	flw	fs0,80(a4)
e0006404:	0000                	unimp
e0006406:	0100                	addi	s0,sp,128
e0006408:	0000                	unimp
e000640a:	0100                	addi	s0,sp,128
e000640c:	0000                	unimp
e000640e:	6b20                	flw	fs0,80(a4)
e0006410:	0000                	unimp
e0006412:	0100                	addi	s0,sp,128
e0006414:	0000                	unimp
e0006416:	0100                	addi	s0,sp,128
e0006418:	0000                	unimp
e000641a:	6b20                	flw	fs0,80(a4)
e000641c:	0000                	unimp
e000641e:	0100                	addi	s0,sp,128
e0006420:	0000                	unimp
e0006422:	0100                	addi	s0,sp,128
e0006424:	0000                	unimp
e0006426:	6b20                	flw	fs0,80(a4)
e0006428:	0000                	unimp
e000642a:	0100                	addi	s0,sp,128
e000642c:	0000                	unimp
e000642e:	0100                	addi	s0,sp,128
e0006430:	0000                	unimp
e0006432:	6b20                	flw	fs0,80(a4)
e0006434:	0000                	unimp
e0006436:	0100                	addi	s0,sp,128
e0006438:	0000                	unimp
e000643a:	0100                	addi	s0,sp,128
e000643c:	0000                	unimp
e000643e:	0750                	addi	a2,sp,900
e0006440:	0000                	unimp
e0006442:	0110                	addi	a2,sp,128
e0006444:	0000                	unimp
e0006446:	0100                	addi	s0,sp,128
e0006448:	0000                	unimp
e000644a:	6380                	flw	fs0,0(a5)
e000644c:	0000                	unimp
e000644e:	0130                	addi	a2,sp,136
e0006450:	0000                	unimp
e0006452:	0120                	addi	s0,sp,136
e0006454:	0000                	unimp
e0006456:	c4d0                	sw	a2,12(s1)
e0006458:	0000                	unimp
e000645a:	0140                	addi	s0,sp,132
e000645c:	0000                	unimp
e000645e:	0140                	addi	s0,sp,132
e0006460:	0000                	unimp
e0006462:	aa90                	fsd	fa2,16(a3)
e0006464:	0000                	unimp
e0006466:	0150                	addi	a2,sp,132
e0006468:	0000                	unimp
e000646a:	0150                	addi	a2,sp,132
e000646c:	0000                	unimp
e000646e:	cc70                	sw	a2,92(s0)
e0006470:	0000                	unimp
e0006472:	0170                	addi	a2,sp,140
e0006474:	0000                	unimp
e0006476:	0160                	addi	s0,sp,140
e0006478:	0000                	unimp
e000647a:	ce40                	sw	s0,28(a2)
e000647c:	0000                	unimp
e000647e:	0170                	addi	a2,sp,140
e0006480:	0000                	unimp
e0006482:	0170                	addi	a2,sp,140
e0006484:	0000                	unimp
e0006486:	ce40                	sw	s0,28(a2)
e0006488:	0000                	unimp
e000648a:	0170                	addi	a2,sp,140
e000648c:	0000                	unimp
e000648e:	0170                	addi	a2,sp,140
e0006490:	0000                	unimp
e0006492:	4380                	lw	s0,0(a5)
e0006494:	0000                	unimp
e0006496:	0180                	addi	s0,sp,192
e0006498:	0000                	unimp
e000649a:	0170                	addi	a2,sp,140
e000649c:	0000                	unimp
e000649e:	0ff0                	addi	a2,sp,988
e00064a0:	0000                	unimp
e00064a2:	0180                	addi	s0,sp,192
e00064a4:	0000                	unimp
e00064a6:	0180                	addi	s0,sp,192
e00064a8:	0000                	unimp
e00064aa:	61b0                	flw	fa2,64(a1)
e00064ac:	0000                	unimp
e00064ae:	0190                	addi	a2,sp,192
e00064b0:	0000                	unimp
e00064b2:	0190                	addi	a2,sp,192
e00064b4:	0000                	unimp
e00064b6:	6e40                	flw	fs0,28(a2)
e00064b8:	0000                	unimp
e00064ba:	01a0                	addi	s0,sp,200
e00064bc:	0000                	unimp
e00064be:	0190                	addi	a2,sp,192
e00064c0:	0000                	unimp
e00064c2:	2000                	fld	fs0,0(s0)
e00064c4:	0000                	unimp
e00064c6:	01c0                	addi	s0,sp,196
e00064c8:	0000                	unimp
e00064ca:	01b0                	addi	a2,sp,200
e00064cc:	0000                	unimp
e00064ce:	a000                	fsd	fs0,0(s0)
e00064d0:	0000                	unimp
e00064d2:	01c0                	addi	s0,sp,196
e00064d4:	0000                	unimp
e00064d6:	01c0                	addi	s0,sp,196
e00064d8:	0000                	unimp
e00064da:	cc70                	sw	a2,92(s0)
e00064dc:	0000                	unimp
e00064de:	01d0                	addi	a2,sp,196
e00064e0:	0000                	unimp
e00064e2:	01c0                	addi	s0,sp,196
e00064e4:	0000                	unimp
e00064e6:	ce40                	sw	s0,28(a2)
e00064e8:	0000                	unimp
e00064ea:	01d0                	addi	a2,sp,196
e00064ec:	0000                	unimp
e00064ee:	01d0                	addi	a2,sp,196
e00064f0:	0000                	unimp
e00064f2:	c1b0                	sw	a2,64(a1)
e00064f4:	0000                	unimp
e00064f6:	01e0                	addi	s0,sp,204
e00064f8:	0000                	unimp
e00064fa:	01d0                	addi	a2,sp,196
e00064fc:	0000                	unimp
e00064fe:	a8a0                	fsd	fs0,80(s1)
e0006500:	0000                	unimp
e0006502:	01f0                	addi	a2,sp,204
e0006504:	0000                	unimp
e0006506:	01e0                	addi	s0,sp,204
e0006508:	c56642f7          	0xc56642f7
e000650c:	0000                	unimp
e000650e:	7730                	flw	fa2,104(a4)
e0006510:	0000                	unimp
e0006512:	01f0                	addi	a2,sp,204
e0006514:	96c2                	add	a3,a3,a6
e0006516:	0b26                	slli	s6,s6,0x9
e0006518:	f6563697          	auipc	a3,0xf6563
e000651c:	0000                	unimp
e000651e:	6650                	flw	fa2,12(a2)
e0006520:	1386e697          	auipc	a3,0x1386e
e0006524:	5742                	lw	a4,48(sp)
e0006526:	4736                	lw	a4,76(sp)
e0006528:	0000                	unimp
e000652a:	f620                	fsw	fs0,104(a2)
e000652c:	538665f7          	0x538665f7
e0006530:	5742                	lw	a4,48(sp)
e0006532:	4736                	lw	a4,76(sp)
e0006534:	0000                	unimp
e0006536:	f670                	fsw	fa2,108(a2)
e0006538:	b726                	fsd	fs1,424(sp)
e000653a:	4e46                	lw	t3,80(sp)
e000653c:	56d6                	lw	a3,116(sp)
e000653e:	f776                	fsw	ft9,172(sp)
e0006540:	0000                	unimp
e0006542:	1720                	addi	s0,sp,936
e0006544:	56e2e737          	lui	a4,0x56e2e
e0006548:	57461747          	0x57461747
e000654c:	0000                	unimp
e000654e:	32f0                	fld	fa2,224(a3)
e0006550:	0215                	addi	tp,tp,5
e0006552:	e910                	fsw	fa2,16(a0)
e0006554:	1500                	addi	s0,sp,672
e0006556:	3534                	fld	fa3,104(a0)
e0006558:	0000                	unimp
e000655a:	0630                	addi	a2,sp,776
e000655c:	0000                	unimp
e000655e:	2ff0                	fld	fa2,216(a5)
e0006560:	c494                	sw	a3,8(s1)
e0006562:	0214                	addi	a3,sp,256
e0006564:	0000                	unimp
e0006566:	1460                	addi	s0,sp,556
e0006568:	18af0003          	lb	zero,394(t5)
e000656c:	0000                	unimp
e000656e:	fac0                	fsw	fs0,52(a3)
e0006570:	0000                	unimp
e0006572:	0000                	unimp
e0006574:	0000                	unimp
e0006576:	c380                	sw	s0,0(a5)
e0006578:	0000                	unimp
e000657a:	0000                	unimp
e000657c:	0000                	unimp
e000657e:	01c0                	addi	s0,sp,196
e0006580:	0000                	unimp
e0006582:	de40                	sw	s0,60(a2)
e0006584:	000f0003          	lb	zero,0(t5)
e0006588:	0000                	unimp
e000658a:	fda0                	fsw	fs0,120(a1)
e000658c:	0000                	unimp
e000658e:	51b0                	lw	a2,96(a1)
e0006590:	022f0003          	lb	zero,34(t5)
e0006594:	0000                	unimp
e0006596:	fac0                	fsw	fs0,52(a3)
e0006598:	7e4f0003          	lb	zero,2020(t5)
e000659c:	0000                	unimp
e000659e:	fe00                	fsw	fs0,56(a2)
e00065a0:	0000                	unimp
e00065a2:	0000                	unimp
e00065a4:	5206                	lw	tp,96(sp)
e00065a6:	3562                	fld	fa0,56(sp)
e00065a8:	43530257          	0x43530257
e00065ac:	0000                	unimp
e00065ae:	3250                	fld	fa2,160(a2)
e00065b0:	d002                	sw	zero,32(sp)
e00065b2:	c4d0                	sw	a2,12(s1)
e00065b4:	05d64253          	fadd.h	tp,a2,t4,rmm
e00065b8:	0000                	unimp
e00065ba:	a730                	fsd	fa2,72(a4)
e00065bc:	0460                	addi	s0,sp,524
e00065be:	44d0                	lw	a2,12(s1)
e00065c0:	0490                	addi	a2,sp,576
e00065c2:	0570                	addi	a2,sp,652
e00065c4:	0000                	unimp
e00065c6:	00a0                	addi	s0,sp,72
e00065c8:	0004                	addi	s1,sp,0
e00065ca:	375f 0000 0220      	0x2200000375f
e00065d0:	0000                	unimp
e00065d2:	03f0                	addi	a2,sp,460
e00065d4:	0004                	addi	s1,sp,0
e00065d6:	3fff                	0x3fff
e00065d8:	0004                	addi	s1,sp,0
e00065da:	00002cbf 00010240 	0x1024000002cbf
e00065e2:	0004a8af          	amoadd.w	a7,zero,(s1)
e00065e6:	0000b8cf          	fnmadd.s	fa7,ft1,ft0,ft0,rup
e00065ea:	0260                	addi	s0,sp,268
e00065ec:	0001                	nop
e00065ee:	7c7f                	0x7c7f
e00065f0:	0001                	nop
e00065f2:	0000decf          	fnmadd.s	ft9,ft1,ft0,ft0,unknown
e00065f6:	bc80                	fsd	fs0,56(s1)
e00065f8:	0001                	nop
e00065fa:	0001b8af          	0x1b8af
e00065fe:	0000decf          	fnmadd.s	ft9,ft1,ft0,ft0,unknown
e0006602:	dec0                	sw	s0,60(a3)
e0006604:	0001                	nop
e0006606:	0001b8af          	0x1b8af
e000660a:	0000decf          	fnmadd.s	ft9,ft1,ft0,ft0,unknown
e000660e:	dec0                	sw	s0,60(a3)
e0006610:	0001                	nop
e0006612:	0001b8af          	0x1b8af
e0006616:	0000decf          	fnmadd.s	ft9,ft1,ft0,ft0,unknown
e000661a:	dec0                	sw	s0,60(a3)
e000661c:	0001                	nop
e000661e:	0001f1bf 0000becf 	0xbecf0001f1bf
e0006626:	dec0                	sw	s0,60(a3)
e0006628:	0001                	nop
e000662a:	0001b8af          	0x1b8af
e000662e:	0000b34f          	fnmadd.s	ft6,ft1,ft0,ft0,rup
e0006632:	c0a0                	sw	s0,64(s1)
e0006634:	0001                	nop
e0006636:	0001b8af          	0x1b8af
e000663a:	0000decf          	fnmadd.s	ft9,ft1,ft0,ft0,unknown
e000663e:	dec0                	sw	s0,60(a3)
e0006640:	0001                	nop
e0006642:	0001100f          	0x1100f
e0006646:	0000d9cf          	fnmadd.s	fs3,ft1,ft0,ft0,unknown
e000664a:	dec0                	sw	s0,60(a3)
e000664c:	0001                	nop
e000664e:	0001fb2f          	0x1fb2f
e0006652:	0000decf          	fnmadd.s	ft9,ft1,ft0,ft0,unknown
e0006656:	b340                	fsd	fs0,160(a4)
e0006658:	0001                	nop
e000665a:	0001b8af          	0x1b8af
e000665e:	0000decf          	fnmadd.s	ft9,ft1,ft0,ft0,unknown
e0006662:	dec0                	sw	s0,60(a3)
e0006664:	0001                	nop
e0006666:	0001b8af          	0x1b8af
e000666a:	0000decf          	fnmadd.s	ft9,ft1,ft0,ft0,unknown
e000666e:	dec0                	sw	s0,60(a3)
e0006670:	0001                	nop
e0006672:	000198af          	0x198af
e0006676:	0000c40f          	0xc40f
e000667a:	c220                	sw	s0,64(a2)
e000667c:	0001                	nop
e000667e:	0001100f          	0x1100f
e0006682:	0000c7cf          	fnmadd.s	fa5,ft1,ft0,ft0,rmm
e0006686:	dec0                	sw	s0,60(a3)
e0006688:	0001                	nop
e000668a:	fc7f                	0xfc7f
e000668c:	0001                	nop
e000668e:	0000decf          	fnmadd.s	ft9,ft1,ft0,ft0,unknown
e0006692:	d3a0                	sw	s0,96(a5)
e0006694:	0001                	nop
e0006696:	791f 0001 decf      	0xdecf0001791f
e000669c:	0000                	unimp
e000669e:	d520                	sw	s0,104(a0)
e00066a0:	0001                	nop
e00066a2:	0001bdcf          	fnmadd.s	fs11,ft3,ft0,ft0,rup
e00066a6:	0000d70f          	0xd70f
e00066aa:	dec0                	sw	s0,60(a3)
e00066ac:	5b278383          	lb	t2,1458(a5)
e00066b0:	0001                	nop
e00066b2:	025f 0000 dbe0      	0xdbe00000025f
e00066b8:	0200                	addi	s0,sp,256
e00066ba:	3b22                	fld	fs6,40(sp)
e00066bc:	1250                	addi	a2,sp,292
e00066be:	0732                	slli	a4,a4,0xc
e00066c0:	0000                	unimp
e00066c2:	03a0                	addi	s0,sp,456
e00066c4:	2ff00783          	lb	a5,767(zero) # 2ff <_min_stack-0x1d01>
e00066c8:	d002                	sw	zero,32(sp)
e00066ca:	0002                	0x2
e00066cc:	0000                	unimp
e00066ce:	5000                	lw	s0,32(s0)
e00066d0:	a2300227          	0xa2300227
e00066d4:	b0065757          	0xb0065757
e00066d8:	0000                	unimp
e00066da:	2740                	fld	fs0,136(a4)
e00066dc:	1300                	addi	s0,sp,416
e00066de:	05d0a753          	fadd.h	a4,ra,t4,rdn
e00066e2:	07d0                	addi	a2,sp,964
e00066e4:	0000                	unimp
e00066e6:	05b0                	addi	a2,sp,712
e00066e8:	48a39383          	lh	t2,1162(t2) # fffe048a <pulp__FC+0xfffe048b>
e00066ec:	73635343          	fmadd.d	ft6,ft6,fs6,fa4,unknown
e00066f0:	0000                	unimp
e00066f2:	3320                	fld	fs0,96(a4)
e00066f4:	c256                	sw	s5,4(sp)
e00066f6:	46369003          	lh	zero,1123(a3) # f3874983 <fromhost+0x13864973>
e00066fa:	6656                	flw	fa2,84(sp)
e00066fc:	0000                	unimp
e00066fe:	2610                	fld	fa2,8(a2)
e0006700:	4636                	lw	a2,76(sp)
e0006702:	8656e4d7          	0x8656e4d7
e0006706:	00005707          	0x5707
e000670a:	e750                	fsw	fa2,12(a4)
e000670c:	53e6                	lw	t2,120(sp)
e000670e:	e382                	fsw	ft0,196(sp)
e0006710:	e206                	fsw	ft1,4(sp)
e0006712:	c756                	sw	s5,140(sp)
e0006714:	0000                	unimp
e0006716:	4650                	lw	a2,12(a2)
e0006718:	0c764697          	auipc	a3,0xc764
e000671c:	4616                	lw	a2,68(sp)
e000671e:	7206                	flw	ft4,96(sp)
e0006720:	0000                	unimp
e0006722:	23c0                	fld	fs0,128(a5)
e0006724:	1e434333          	0x1e434333
e0006728:	03e6                	slli	t2,t2,0x19
e000672a:	00002313          	slti	t1,zero,0
e000672e:	8740                	0x8740
e0006730:	3424                	fld	fs1,104(s0)
e0006732:	1564                	addi	s1,sp,684
e0006734:	13938373          	0x13938373
e0006738:	0000                	unimp
e000673a:	6350                	flw	fa2,4(a4)
e000673c:	3ff6b6e7          	0x3ff6b6e7
e0006740:	5464                	lw	s1,108(s0)
e0006742:	53c2                	lw	t2,48(sp)
e0006744:	0000                	unimp
e0006746:	5440                	lw	s0,44(s0)
e0006748:	c2365707          	0xc2365707
e000674c:	e776                	fsw	ft9,140(sp)
e000674e:	3206                	fld	ft4,96(sp)
e0006750:	0000                	unimp
e0006752:	f6e0                	fsw	fs0,108(a3)
e0006754:	e614                	fsw	fa3,8(a2)
e0006756:	bc76                	fsd	ft9,56(sp)
e0006758:	3006b4f3          	csrrc	s1,mstatus,a3
e000675c:	0000                	unimp
e000675e:	e630                	fsw	fa2,72(a2)
e0006760:	5006                	0x5006
e0006762:	4565                	li	a0,25
e0006764:	c6c6                	sw	a7,76(sp)
e0006766:	4656                	lw	a2,84(sp)
e0006768:	0000                	unimp
e000676a:	5630                	lw	a2,104(a2)
e000676c:	9006                	0x9006
e000676e:	8564                	0x8564
e0006770:	f6e6                	fsw	fs9,108(sp)
e0006772:	e776                	fsw	ft9,140(sp)
e0006774:	0000                	unimp
e0006776:	b6e0                	fsd	fs0,232(a3)
e0006778:	2416                	fld	fs0,320(sp)
e000677a:	c617fb27          	0xc617fb27
e000677e:	4696                	lw	a3,68(sp)
e0006780:	0000                	unimp
e0006782:	66e0                	flw	fs0,76(a3)
e0006784:	17544007          	0x17544007
e0006788:	46e656d7          	0x46e656d7
e000678c:	0000                	unimp
e000678e:	5670                	lw	a2,108(a2)
e0006790:	5656                	lw	a2,116(sp)
e0006792:	9a94                	0x9a94
e0006794:	c646                	sw	a7,12(sp)
e0006796:	e696                	fsw	ft5,76(sp)
e0006798:	0000                	unimp
e000679a:	1650                	addi	a2,sp,804
e000679c:	0646                	slli	a2,a2,0x11
e000679e:	b230                	fsd	fa2,96(a2)
e00067a0:	5656                	lw	a2,116(sp)
e00067a2:	5646                	lw	a2,112(sp)
e00067a4:	0000                	unimp
e00067a6:	3780                	fld	fs0,40(a5)
e00067a8:	191646e7          	0x191646e7
e00067ac:	6746                	flw	fa4,80(sp)
e00067ae:	56f4                	lw	a3,108(a3)
e00067b0:	0000                	unimp
e00067b2:	f4e0                	fsw	fs0,108(s1)
e00067b4:	9646                	add	a2,a2,a7
e00067b6:	26c48007          	0x26c48007
e00067ba:	00001657          	pv.add.b	a2,zero,zero
e00067be:	1000                	addi	s0,sp,32
e00067c0:	44d50007          	0x44d50007
e00067c4:	37473697          	auipc	a3,0x37473
e00067c8:	0000                	unimp
e00067ca:	8450                	0x8450
e00067cc:	c8a6f697          	auipc	a3,0xc8a6f
e00067d0:	373696d7          	0x373696d7
e00067d4:	0000                	unimp
e00067d6:	2650                	fld	fa2,136(a2)
e00067d8:	0646                	slli	a2,a2,0x11
e00067da:	6910                	flw	fa2,16(a0)
e00067dc:	e654                	fsw	fa3,12(a2)
e00067de:	5696                	lw	a3,100(sp)
e00067e0:	0000                	unimp
e00067e2:	46e0                	lw	s0,76(a3)
e00067e4:	81b65637          	lui	a2,0x81b65
e00067e8:	f736                	fsw	fa3,172(sp)
e00067ea:	2756                	fld	fa4,336(sp)
e00067ec:	0000                	unimp
e00067ee:	5520                	lw	s0,104(a0)
e00067f0:	7ff65747          	0x7ff65747
e00067f4:	37561687          	0x37561687
e00067f8:	0000                	unimp
e00067fa:	8450                	0x8450
e00067fc:	4656                	lw	a2,84(sp)
e00067fe:	01b6                	slli	gp,gp,0xd
e0006800:	1460                	addi	s0,sp,556
e0006802:	c696                	sw	t0,76(sp)
e0006804:	0000                	unimp
e0006806:	0640                	addi	s0,sp,772
e0006808:	9646                	add	a2,a2,a7
e000680a:	2386                	fld	ft7,64(sp)
e000680c:	e6f63657          	0xe6f63657
e0006810:	0000                	unimp
e0006812:	2500                	fld	fs0,8(a0)
e0006814:	f624                	fsw	fs1,104(a2)
e0006816:	5006                	0x5006
e0006818:	e6f6                	fsw	ft9,76(sp)
e000681a:	1006                	0x1006
e000681c:	0000                	unimp
e000681e:	9740                	0x9740
e0006820:	4754                	lw	a3,12(a4)
e0006822:	46572567          	0x46572567
e0006826:	f006                	fsw	ft1,32(sp)
e0006828:	0000                	unimp
e000682a:	4720                	lw	s0,72(a4)
e000682c:	0656                	slli	a2,a2,0x15
e000682e:	c6e0                	sw	s0,76(a3)
e0006830:	1526                	slli	a0,a0,0x29
e0006832:	76e6                	flw	fa3,120(sp)
e0006834:	0000                	unimp
e0006836:	64f0                	flw	fa2,76(s1)
e0006838:	d656                	sw	s5,44(sp)
e000683a:	d6e6                	sw	s9,108(sp)
e000683c:	d696                	sw	t0,108(sp)
e000683e:	c706                	sw	ra,140(sp)
e0006840:	0000                	unimp
e0006842:	e550                	fsw	fa2,12(a0)
e0006844:	e490                	fsw	fa2,8(s1)
e0006846:	7236                	flw	ft4,108(sp)
e0006848:	5746                	lw	a4,112(sp)
e000684a:	0646                	slli	a2,a2,0x11
e000684c:	0000                	unimp
e000684e:	e650                	fsw	fa2,12(a2)
e0006850:	5006                	0x5006
e0006852:	8c75                	and	s0,s0,a3
e0006854:	e726                	fsw	fs1,140(sp)
e0006856:	c616                	sw	t0,12(sp)
e0006858:	0000                	unimp
e000685a:	5740                	lw	s0,44(a4)
e000685c:	2616                	fld	fa2,320(sp)
e000685e:	b386                	fsd	ft1,480(sp)
e0006860:	1766                	slli	a4,a4,0x39
e0006862:	c696                	sw	t0,76(sp)
e0006864:	0000                	unimp
e0006866:	16e0                	addi	s0,sp,876
e0006868:	5754c617          	auipc	a2,0x5754c
e000686c:	4006                	0x4006
e000686e:	4614                	lw	a3,8(a2)
e0006870:	0000                	unimp
e0006872:	56c0                	lw	s0,44(a3)
e0006874:	5616                	lw	a2,100(sp)
e0006876:	073738a7          	fsd	fs3,113(a4) # 56e2e071 <tohost+0x56e0e069>
e000687a:	e550                	fsw	fa2,12(a0)
e000687c:	0000                	unimp
e000687e:	36f0                	fld	fa2,232(a3)
e0006880:	1636                	slli	a2,a2,0x2d
e0006882:	6916                	flw	fs2,68(sp)
e0006884:	e656                	fsw	fs5,12(sp)
e0006886:	9746                	add	a4,a4,a7
e0006888:	0000                	unimp
e000688a:	8740                	0x8740
e000688c:	5646                	lw	a2,112(sp)
e000688e:	a386                	fsd	ft1,448(sp)
e0006890:	0646                	slli	a2,a2,0x11
e0006892:	e550                	fsw	fa2,12(a0)
e0006894:	0000                	unimp
e0006896:	5740                	lw	s0,44(a4)
e0006898:	4c700373          	0x4c700373
e000689c:	56e6                	lw	a3,120(sp)
e000689e:	1646                	slli	a2,a2,0x31
e00068a0:	0000                	unimp
e00068a2:	9660                	0x9660
e00068a4:	56e6                	lw	a3,120(sp)
e00068a6:	ea96                	fsw	ft5,84(sp)
e00068a8:	5646                	lw	a2,112(sp)
e00068aa:	9666                	add	a2,a2,s9
e00068ac:	0000                	unimp
e00068ae:	e550                	fsw	fa2,12(a0)
e00068b0:	5646                	lw	a2,112(sp)
e00068b2:	eff6                	fsw	ft9,220(sp)
e00068b4:	e5500383          	lb	t2,-427(zero) # fffffe55 <pulp__FC+0xfffffe56>
e00068b8:	0000                	unimp
e00068ba:	1640                	addi	s0,sp,804
e00068bc:	3dc00393          	li	t2,988
e00068c0:	56e6                	lw	a3,120(sp)
e00068c2:	1646                	slli	a2,a2,0x31
e00068c4:	0000                	unimp
e00068c6:	9660                	0x9660
e00068c8:	56e6                	lw	a3,120(sp)
e00068ca:	ea96                	fsw	ft5,84(sp)
e00068cc:	5646                	lw	a2,112(sp)
e00068ce:	9666                	add	a2,a2,s9
e00068d0:	0000                	unimp
e00068d2:	e550                	fsw	fa2,12(a0)
e00068d4:	5646                	lw	a2,112(sp)
e00068d6:	7756                	flw	fa4,116(sp)
e00068d8:	e5500303          	lb	t1,-427(zero) # fffffe55 <pulp__FC+0xfffffe56>
e00068dc:	0000                	unimp
e00068de:	2640                	fld	fs0,136(a2)
e00068e0:	9a900313          	li	t1,-1623
e00068e4:	56e6                	lw	a3,120(sp)
e00068e6:	2646                	fld	fa2,80(sp)
e00068e8:	0000                	unimp
e00068ea:	9660                	0x9660
e00068ec:	56e6                	lw	a3,120(sp)
e00068ee:	ea96                	fsw	ft5,84(sp)
e00068f0:	5646                	lw	a2,112(sp)
e00068f2:	9666                	add	a2,a2,s9
e00068f4:	0000                	unimp
e00068f6:	e550                	fsw	fa2,12(a0)
e00068f8:	5646                	lw	a2,112(sp)
e00068fa:	2b26                	fld	fs6,72(sp)
e00068fc:	e5500323          	sb	s5,-442(zero) # fffffe46 <pulp__FC+0xfffffe47>
e0006900:	0000                	unimp
e0006902:	2640                	fld	fs0,136(a2)
e0006904:	69100333          	0x69100333
e0006908:	56e6                	lw	a3,120(sp)
e000690a:	2646                	fld	fa2,80(sp)
e000690c:	0000                	unimp
e000690e:	9660                	0x9660
e0006910:	56e6                	lw	a3,120(sp)
e0006912:	ea96                	fsw	ft5,84(sp)
e0006914:	5646                	lw	a2,112(sp)
e0006916:	9666                	add	a2,a2,s9
e0006918:	0000                	unimp
e000691a:	e550                	fsw	fa2,12(a0)
e000691c:	5646                	lw	a2,112(sp)
e000691e:	24d6                	fld	fs1,336(sp)
e0006920:	e5500343          	fmadd.h	t1,zero,s5,t3,rne
e0006924:	0000                	unimp
e0006926:	2640                	fld	fs0,136(a2)
e0006928:	20000353          	fmv.s	ft6,ft0
e000692c:	56e6                	lw	a3,120(sp)
e000692e:	2646                	fld	fa2,80(sp)
e0006930:	0000                	unimp
e0006932:	9660                	0x9660
e0006934:	56e6                	lw	a3,120(sp)
e0006936:	ea96                	fsw	ft5,84(sp)
e0006938:	5646                	lw	a2,112(sp)
e000693a:	9666                	add	a2,a2,s9
e000693c:	0000                	unimp
e000693e:	e550                	fsw	fa2,12(a0)
e0006940:	5646                	lw	a2,112(sp)
e0006942:	78a6                	flw	fa7,104(sp)
e0006944:	e5500363          	beq	zero,s5,e0005f8a <hmac_smoketest+0x59fe>
e0006948:	0000                	unimp
e000694a:	2640                	fld	fs0,136(a2)
e000694c:	d3800373          	0xd3800373
e0006950:	56e6                	lw	a3,120(sp)
e0006952:	2646                	fld	fa2,80(sp)
e0006954:	0000                	unimp
e0006956:	9660                	0x9660
e0006958:	56e6                	lw	a3,120(sp)
e000695a:	ea96                	fsw	ft5,84(sp)
e000695c:	5646                	lw	a2,112(sp)
e000695e:	9666                	add	a2,a2,s9
e0006960:	0000                	unimp
e0006962:	e550                	fsw	fa2,12(a0)
e0006964:	5646                	lw	a2,112(sp)
e0006966:	6dc6                	flw	fs11,80(sp)
e0006968:	e5500383          	lb	t2,-427(zero) # fffffe55 <pulp__FC+0xfffffe56>
e000696c:	0000                	unimp
e000696e:	2640                	fld	fs0,136(a2)
e0006970:	a2300393          	li	t2,-1501
e0006974:	56e6                	lw	a3,120(sp)
e0006976:	2646                	fld	fa2,80(sp)
e0006978:	0000                	unimp
e000697a:	9660                	0x9660
e000697c:	56e6                	lw	a3,120(sp)
e000697e:	ea96                	fsw	ft5,84(sp)
e0006980:	5646                	lw	a2,112(sp)
e0006982:	9666                	add	a2,a2,s9
e0006984:	0000                	unimp
e0006986:	e550                	fsw	fa2,12(a0)
e0006988:	5646                	lw	a2,112(sp)
e000698a:	3386                	fld	ft7,96(sp)
e000698c:	e5500303          	lb	t1,-427(zero) # fffffe55 <pulp__FC+0xfffffe56>
e0006990:	0000                	unimp
e0006992:	3640                	fld	fs0,168(a2)
e0006994:	b5600313          	li	t1,-1194
e0006998:	56e6                	lw	a3,120(sp)
e000699a:	3646                	fld	fa2,112(sp)
e000699c:	0000                	unimp
e000699e:	9660                	0x9660
e00069a0:	2724                	fld	fs1,72(a4)
e00069a2:	f7277917          	auipc	s2,0xf7277
e00069a6:	5726                	lw	a4,104(sp)
e00069a8:	0000                	unimp
e00069aa:	2450                	fld	fa2,136(s0)
e00069ac:	0000                	unimp
e00069ae:	7e40                	flw	fs0,60(a2)
e00069b0:	00400007          	0x400007
e00069b4:	0000                	unimp
e00069b6:	26f0                	fld	fa2,200(a3)
e00069b8:	56e2                	lw	a3,56(sp)
e00069ba:	54c49757          	0x54c49757
e00069be:	8004                	0x8004
e00069c0:	0000                	unimp
e00069c2:	4490                	lw	a2,8(s1)
e00069c4:	0000                	unimp
e00069c6:	28a0                	fld	fs0,80(s1)
e00069c8:	0296                	slli	t0,t0,0x5
e00069ca:	0010                	addi	a2,sp,0
e00069cc:	0000                	unimp
e00069ce:	c6c0                	sw	s0,12(a3)
e00069d0:	0000                	unimp
e00069d2:	5380                	lw	s0,32(a5)
e00069d4:	007a                	0x7a
e00069d6:	0000                	unimp
e00069d8:	0000                	unimp
e00069da:	1200                	addi	s0,sp,288
e00069dc:	0000                	unimp
e00069de:	1a90                	addi	a2,sp,368
e00069e0:	001e                	0x1e
e00069e2:	0000                	unimp
e00069e4:	0000                	unimp
e00069e6:	8480                	0x8480
e00069e8:	0000                	unimp
e00069ea:	0560                	addi	s0,sp,652
e00069ec:	0001                	nop
e00069ee:	0000                	unimp
e00069f0:	0000                	unimp
e00069f2:	c200                	sw	s0,0(a2)
e00069f4:	0000                	unimp
e00069f6:	41b0                	lw	a2,64(a1)
e00069f8:	11f0                	addi	a2,sp,236
e00069fa:	000c                	addi	a1,sp,0
e00069fc:	0000                	unimp
e00069fe:	0800                	addi	s0,sp,16
e0006a00:	9b2082ef          	jal	t0,dff0ebb2 <tohost+0xdfeeebaa>
e0006a04:	c4e6                	sw	s9,72(sp)
e0006a06:	a98e                	fsd	ft3,208(sp)
e0006a08:	0000                	unimp
e0006a0a:	c890                	sw	a2,16(s1)
e0006a0c:	a91a4093          	xori	ra,s4,-1391
e0006a10:	822299f3          	csrrw	s3,0x822,t0
e0006a14:	0000                	unimp
e0006a16:	1d00                	addi	s0,sp,688
e0006a18:	3198                	fld	fa4,32(a1)
e0006a1a:	f381                	bnez	a5,e000691a <hmac_smoketest+0x638e>
e0006a1c:	a2e03707          	fld	fa4,-1490(zero) # fffffa2e <pulp__FC+0xfffffa2f>
e0006a20:	0000                	unimp
e0006a22:	3440                	fld	fs0,168(s0)
e0006a24:	43f6                	lw	t2,92(sp)
e0006a26:	0dc2                	slli	s11,s11,0x10
e0006a28:	5a30                	lw	a2,112(a2)
e0006a2a:	a888                	fsd	fa0,16(s1)
e0006a2c:	0000                	unimp
e0006a2e:	8d30                	0x8d30
e0006a30:	0004                	addi	s1,sp,0
e0006a32:	0004c38f          	0x4c38f
e0006a36:	135f 0000 1320      	0x13200000135f
e0006a3c:	0004                	addi	s1,sp,0
e0006a3e:	0004438f          	0x4438f
e0006a42:	147f                	0x147f
e0006a44:	0000                	unimp
e0006a46:	13f0                	addi	a2,sp,492
e0006a48:	0004                	addi	s1,sp,0
e0006a4a:	0004e6ef          	jal	a3,e0054a4a <fromhost+0x44a3a>
e0006a4e:	0000168f          	0x168f
e0006a52:	1570                	addi	a2,sp,684
e0006a54:	0004                	addi	s1,sp,0
e0006a56:	0004a8af          	amoadd.w	a7,zero,(s1)
e0006a5a:	17ff                	0x17ff
e0006a5c:	0000                	unimp
e0006a5e:	1710                	addi	a2,sp,928
e0006a60:	0004                	addi	s1,sp,0
e0006a62:	0004638f          	0x4638f
e0006a66:	00001a2f          	0x1a2f
e0006a6a:	1900                	addi	s0,sp,176
e0006a6c:	0004                	addi	s1,sp,0
e0006a6e:	0004800f          	0x4800f
e0006a72:	1bdf 0000 1b50      	0x1b5000001bdf
e0006a78:	0004                	addi	s1,sp,0
e0006a7a:	0004e6ef          	jal	a3,e0054a7a <fromhost+0x44a6a>
e0006a7e:	00001d6f          	jal	s10,e0007a7e <_bss_end+0xf42>
e0006a82:	1c80                	addi	s0,sp,624
e0006a84:	0004                	addi	s1,sp,0
e0006a86:	00044e4f          	fnmadd.s	ft8,fs0,ft0,ft0,rmm
e0006a8a:	00001ebf 00041df0 	0x41df000001ebf
e0006a92:	0004b23f 0000204f 	0x204f0004b23f
e0006a9a:	1f40                	addi	s0,sp,948
e0006a9c:	0004                	addi	s1,sp,0
e0006a9e:	0004b8af          	0x4b8af
e0006aa2:	000021cf          	fnmadd.s	ft3,ft0,ft0,ft0,rdn
e0006aa6:	2100                	fld	fs0,0(a0)
e0006aa8:	0004                	addi	s1,sp,0
e0006aaa:	0004f38f          	0x4f38f
e0006aae:	0000234f          	fnmadd.s	ft6,ft0,ft0,ft0,rdn
e0006ab2:	2280                	fld	fs0,0(a3)
e0006ab4:	0004                	addi	s1,sp,0
e0006ab6:	000476ef          	jal	a3,e004dab6 <fromhost+0x3daa6>
e0006aba:	000024cf          	fnmadd.s	fs1,ft0,ft0,ft0,rdn
e0006abe:	2400                	fld	fs0,8(s0)
e0006ac0:	0004                	addi	s1,sp,0
e0006ac2:	0004356f          	jal	a0,e0049ac2 <fromhost+0x39ab2>
e0006ac6:	0000264f          	fnmadd.s	fa2,ft0,ft0,ft0,rdn
e0006aca:	2580                	fld	fs0,8(a1)
e0006acc:	0004                	addi	s1,sp,0
e0006ace:	0004b8af          	0x4b8af
e0006ad2:	000027cf          	fnmadd.s	fa5,ft0,ft0,ft0,rdn
e0006ad6:	2700                	fld	fs0,8(a4)
e0006ad8:	0004                	addi	s1,sp,0
e0006ada:	00043dcf          	fnmadd.s	fs11,fs0,ft0,ft0,rup
e0006ade:	0000294f          	fnmadd.s	fs2,ft0,ft0,ft0,rdn
e0006ae2:	2880                	fld	fs0,16(s1)
e0006ae4:	0004                	addi	s1,sp,0
e0006ae6:	00041dcf          	fnmadd.s	fs11,fs0,ft0,ft0,rtz
e0006aea:	00002acf          	fnmadd.s	fs5,ft0,ft0,ft0,rdn
e0006aee:	2a00                	fld	fs0,16(a2)
e0006af0:	2020                	fld	fs0,64(s0)
e0006af2:	4000                	lw	s0,0(s0)
e0006af4:	0004                	addi	s1,sp,0
e0006af6:	0000100f          	fence.i
e0006afa:	2b80                	fld	fs0,16(a5)
e0006afc:	7070                	flw	fa2,100(s0)
e0006afe:	6c70                	flw	fa2,92(s0)
e0006b00:	5040                	lw	s0,36(s0)
e0006b02:	6050                	flw	fa2,4(s0)
e0006b04:	0000                	unimp
e0006b06:	3030                	fld	fa2,96(s0)
e0006b08:	ffff                	0xffff
e0006b0a:	0090b6ef          	jal	a3,e0012312 <fromhost+0x2302>
e0006b0e:	fff0                	fsw	fa2,124(a5)
e0006b10:	0000                	unimp
e0006b12:	8080                	0x8080
e0006b14:	6e28                	flw	fa0,88(a2)
e0006b16:	6c75                	lui	s8,0x1d
e0006b18:	296c                	fld	fa1,208(a0)
e0006b1a:	0000                	unimp
e0006b1c:	5845                	li	a6,-15
e0006b1e:	54504543          	fmadd.h	a0,zero,t0,a0,rmm
e0006b22:	4f49                	li	t5,18
e0006b24:	214e                	fld	ft2,208(sp)
e0006b26:	2121                	jal	e0006f2e <_bss_end+0x3f2>
e0006b28:	0a0d                	addi	s4,s4,3
	...

Disassembly of section .data:

e0006b2c <remu10_table>:
e0006b2c:	0100                	addi	s0,sp,128
e0006b2e:	0202                	slli	tp,tp,0x0
e0006b30:	05040303          	lb	t1,80(s0)
e0006b34:	0605                	addi	a2,a2,1
e0006b36:	08080707          	0x8080707
e0006b3a:	0009                	c.addi	zero,2

Disassembly of section .stack:

e0008000 <_stack-0x2000>:
	...

Disassembly of section .debug_frame:

00000000 <.debug_frame>:
   0:	000c                	addi	a1,sp,0
   2:	0000                	unimp
   4:	ffff                	0xffff
   6:	ffff                	0xffff
   8:	7c010003          	lb	zero,1984(sp) # 67c0 <_min_stack+0x47c0>
   c:	0c01                	addi	s8,s8,0
   e:	0002                	0x2
  10:	000c                	addi	a1,sp,0
  12:	0000                	unimp
  14:	0000                	unimp
  16:	0000                	unimp
  18:	0084                	addi	s1,sp,64
  1a:	e000                	fsw	fs0,0(s0)
  1c:	002e                	0x2e
  1e:	0000                	unimp
  20:	000c                	addi	a1,sp,0
  22:	0000                	unimp
  24:	0000                	unimp
  26:	0000                	unimp
  28:	00b2                	slli	ra,ra,0xc
  2a:	e000                	fsw	fs0,0(s0)
  2c:	0026                	0x26
  2e:	0000                	unimp
  30:	000c                	addi	a1,sp,0
  32:	0000                	unimp
  34:	0000                	unimp
  36:	0000                	unimp
  38:	00d8                	addi	a4,sp,68
  3a:	e000                	fsw	fs0,0(s0)
  3c:	0012                	0x12
  3e:	0000                	unimp
  40:	000c                	addi	a1,sp,0
  42:	0000                	unimp
  44:	0000                	unimp
  46:	0000                	unimp
  48:	00ea                	slli	ra,ra,0x1a
  4a:	e000                	fsw	fs0,0(s0)
  4c:	0010                	addi	a2,sp,0
  4e:	0000                	unimp
  50:	0058                	addi	a4,sp,4
  52:	0000                	unimp
  54:	0000                	unimp
  56:	0000                	unimp
  58:	00fa                	slli	ra,ra,0x1e
  5a:	e000                	fsw	fs0,0(s0)
  5c:	00a6                	slli	ra,ra,0x9
  5e:	0000                	unimp
  60:	0204                	addi	s1,sp,256
  62:	0000                	unimp
  64:	0e00                	addi	s0,sp,784
  66:	0420                	addi	s0,sp,520
  68:	000c                	addi	a1,sp,0
  6a:	0000                	unimp
  6c:	0288                	addi	a0,sp,320
  6e:	0389                	addi	t2,t2,2
  70:	0492                	slli	s1,s1,0x4
  72:	0181                	addi	gp,gp,0
  74:	06940593          	addi	a1,s0,105
  78:	5a04                	lw	s1,48(a2)
  7a:	0000                	unimp
  7c:	0a00                	addi	s0,sp,272
  7e:	04c1                	addi	s1,s1,16
  80:	0002                	0x2
  82:	0000                	unimp
  84:	04c8                	addi	a0,sp,580
  86:	0002                	0x2
  88:	0000                	unimp
  8a:	04c9                	addi	s1,s1,18
  8c:	0002                	0x2
  8e:	0000                	unimp
  90:	04d2                	slli	s1,s1,0x14
  92:	0002                	0x2
  94:	0000                	unimp
  96:	000204d3          	fadd.s	fs1,ft4,ft0,rne
  9a:	0000                	unimp
  9c:	04d4                	addi	a3,sp,580
  9e:	0002                	0x2
  a0:	0000                	unimp
  a2:	000e                	0xe
  a4:	0204                	addi	s1,sp,256
  a6:	0000                	unimp
  a8:	0b00                	addi	s0,sp,400
  aa:	0000                	unimp
  ac:	0040                	addi	s0,sp,4
  ae:	0000                	unimp
  b0:	0000                	unimp
  b2:	0000                	unimp
  b4:	01a0                	addi	s0,sp,200
  b6:	e000                	fsw	fs0,0(s0)
  b8:	00fa                	slli	ra,ra,0x1e
  ba:	0000                	unimp
  bc:	0204                	addi	s1,sp,256
  be:	0000                	unimp
  c0:	0e00                	addi	s0,sp,784
  c2:	0440                	addi	s0,sp,516
  c4:	0006                	0x6
  c6:	0000                	unimp
  c8:	0389                	addi	t2,t2,2
  ca:	0181                	addi	gp,gp,0
  cc:	0288                	addi	a0,sp,320
  ce:	1604                	addi	s1,sp,800
  d0:	0000                	unimp
  d2:	0a00                	addi	s0,sp,272
  d4:	04c1                	addi	s1,s1,16
  d6:	0002                	0x2
  d8:	0000                	unimp
  da:	04c8                	addi	a0,sp,580
  dc:	0002                	0x2
  de:	0000                	unimp
  e0:	04c9                	addi	s1,s1,18
  e2:	0002                	0x2
  e4:	0000                	unimp
  e6:	000e                	0xe
  e8:	0204                	addi	s1,sp,256
  ea:	0000                	unimp
  ec:	0b00                	addi	s0,sp,400
  ee:	0000                	unimp
  f0:	000c                	addi	a1,sp,0
  f2:	0000                	unimp
  f4:	0000                	unimp
  f6:	0000                	unimp
  f8:	029a                	slli	t0,t0,0x6
  fa:	e000                	fsw	fs0,0(s0)
  fc:	000e                	0xe
  fe:	0000                	unimp
 100:	0034                	addi	a3,sp,8
 102:	0000                	unimp
 104:	0000                	unimp
 106:	0000                	unimp
 108:	02a8                	addi	a0,sp,328
 10a:	e000                	fsw	fs0,0(s0)
 10c:	0018                	addi	a4,sp,0
 10e:	0000                	unimp
 110:	0204                	addi	s1,sp,256
 112:	0000                	unimp
 114:	0e00                	addi	s0,sp,784
 116:	0410                	addi	a2,sp,512
 118:	0002                	0x2
 11a:	0000                	unimp
 11c:	0288                	addi	a0,sp,320
 11e:	0804                	addi	s1,sp,16
 120:	0000                	unimp
 122:	8100                	0x8100
 124:	0401                	addi	s0,s0,0
 126:	0006                	0x6
 128:	0000                	unimp
 12a:	04c1                	addi	s1,s1,16
 12c:	0002                	0x2
 12e:	0000                	unimp
 130:	04c8                	addi	a0,sp,580
 132:	0002                	0x2
 134:	0000                	unimp
 136:	000e                	0xe
 138:	007c                	addi	a5,sp,12
 13a:	0000                	unimp
 13c:	0000                	unimp
 13e:	0000                	unimp
 140:	02c0                	addi	s0,sp,324
 142:	e000                	fsw	fs0,0(s0)
 144:	0158                	addi	a4,sp,132
 146:	0000                	unimp
 148:	0204                	addi	s1,sp,256
 14a:	0000                	unimp
 14c:	0e00                	addi	s0,sp,784
 14e:	0460                	addi	s0,sp,524
 150:	0002                	0x2
 152:	0000                	unimp
 154:	0a88                	addi	a0,sp,336
 156:	1404                	addi	s1,sp,544
 158:	0000                	unimp
 15a:	8900                	0x8900
 15c:	930c920b          	p.lh	tp,-1744(s9!)
 160:	940d                	srai	s0,s0,0x23
 162:	950e                	add	a0,a0,gp
 164:	9710960f          	0x9710960f
 168:	8111                	srli	a0,a0,0x4
 16a:	9809                	andi	s0,s0,-30
 16c:	0412                	slli	s0,s0,0x4
 16e:	0032                	0x32
 170:	0000                	unimp
 172:	c10a                	sw	sp,128(sp)
 174:	0204                	addi	s1,sp,256
 176:	0000                	unimp
 178:	c800                	sw	s0,16(s0)
 17a:	0404                	addi	s1,sp,512
 17c:	0000                	unimp
 17e:	c900                	sw	s0,16(a0)
 180:	0204                	addi	s1,sp,256
 182:	0000                	unimp
 184:	d200                	sw	s0,32(a2)
 186:	0204                	addi	s1,sp,256
 188:	0000                	unimp
 18a:	d300                	sw	s0,32(a4)
 18c:	0204                	addi	s1,sp,256
 18e:	0000                	unimp
 190:	d400                	sw	s0,40(s0)
 192:	0204                	addi	s1,sp,256
 194:	0000                	unimp
 196:	d500                	sw	s0,40(a0)
 198:	0204                	addi	s1,sp,256
 19a:	0000                	unimp
 19c:	d600                	sw	s0,40(a2)
 19e:	0204                	addi	s1,sp,256
 1a0:	0000                	unimp
 1a2:	d700                	sw	s0,40(a4)
 1a4:	0204                	addi	s1,sp,256
 1a6:	0000                	unimp
 1a8:	d800                	sw	s0,48(s0)
 1aa:	0204                	addi	s1,sp,256
 1ac:	0000                	unimp
 1ae:	0e00                	addi	s0,sp,784
 1b0:	0400                	addi	s0,sp,512
 1b2:	0002                	0x2
 1b4:	0000                	unimp
 1b6:	000c000b          	p.lb	zero,0(s8!) # 1d000 <_stack_len+0x15000>
 1ba:	0000                	unimp
 1bc:	0000                	unimp
 1be:	0000                	unimp
 1c0:	0418                	addi	a4,sp,512
 1c2:	e000                	fsw	fs0,0(s0)
 1c4:	000a                	0xa
 1c6:	0000                	unimp
 1c8:	0048                	addi	a0,sp,4
 1ca:	0000                	unimp
 1cc:	0000                	unimp
 1ce:	0000                	unimp
 1d0:	0422                	slli	s0,s0,0x8
 1d2:	e000                	fsw	fs0,0(s0)
 1d4:	0030                	addi	a2,sp,8
 1d6:	0000                	unimp
 1d8:	0204                	addi	s1,sp,256
 1da:	0000                	unimp
 1dc:	0e00                	addi	s0,sp,784
 1de:	0410                	addi	a2,sp,512
 1e0:	0008                	addi	a0,sp,0
 1e2:	0000                	unimp
 1e4:	0288                	addi	a0,sp,320
 1e6:	0389                	addi	t2,t2,2
 1e8:	0181                	addi	gp,gp,0
 1ea:	0492                	slli	s1,s1,0x4
 1ec:	1604                	addi	s1,sp,800
 1ee:	0000                	unimp
 1f0:	0a00                	addi	s0,sp,272
 1f2:	04c1                	addi	s1,s1,16
 1f4:	0002                	0x2
 1f6:	0000                	unimp
 1f8:	04c8                	addi	a0,sp,580
 1fa:	0004                	addi	s1,sp,0
 1fc:	0000                	unimp
 1fe:	04c9                	addi	s1,s1,18
 200:	0002                	0x2
 202:	0000                	unimp
 204:	04d2                	slli	s1,s1,0x14
 206:	0002                	0x2
 208:	0000                	unimp
 20a:	000e                	0xe
 20c:	0204                	addi	s1,sp,256
 20e:	0000                	unimp
 210:	0b00                	addi	s0,sp,400
 212:	0000                	unimp
 214:	0058                	addi	a4,sp,4
 216:	0000                	unimp
 218:	0000                	unimp
 21a:	0000                	unimp
 21c:	0452                	slli	s0,s0,0x14
 21e:	e000                	fsw	fs0,0(s0)
 220:	006c                	addi	a1,sp,12
 222:	0000                	unimp
 224:	0204                	addi	s1,sp,256
 226:	0000                	unimp
 228:	0e00                	addi	s0,sp,784
 22a:	0420                	addi	s0,sp,520
 22c:	000e                	0xe
 22e:	0000                	unimp
 230:	058e                	slli	a1,a1,0x3
 232:	018a068f          	0x18a068f
 236:	038c028b          	p.lb	t0,56(s8!)
 23a:	048d                	addi	s1,s1,3
 23c:	0790                	addi	a2,sp,960
 23e:	4a04                	lw	s1,16(a2)
 240:	0000                	unimp
 242:	ca00                	sw	s0,16(a2)
 244:	0204                	addi	s1,sp,256
 246:	0000                	unimp
 248:	cb00                	sw	s0,16(a4)
 24a:	0204                	addi	s1,sp,256
 24c:	0000                	unimp
 24e:	cc00                	sw	s0,24(s0)
 250:	0204                	addi	s1,sp,256
 252:	0000                	unimp
 254:	cd00                	sw	s0,24(a0)
 256:	0204                	addi	s1,sp,256
 258:	0000                	unimp
 25a:	ce00                	sw	s0,24(a2)
 25c:	0204                	addi	s1,sp,256
 25e:	0000                	unimp
 260:	cf00                	sw	s0,24(a4)
 262:	0204                	addi	s1,sp,256
 264:	0000                	unimp
 266:	d000                	sw	s0,32(s0)
 268:	0204                	addi	s1,sp,256
 26a:	0000                	unimp
 26c:	0e00                	addi	s0,sp,784
 26e:	0000                	unimp
 270:	000c                	addi	a1,sp,0
 272:	0000                	unimp
 274:	ffff                	0xffff
 276:	ffff                	0xffff
 278:	7c010003          	lb	zero,1984(sp)
 27c:	0c01                	addi	s8,s8,0
 27e:	0002                	0x2
 280:	000c                	addi	a1,sp,0
 282:	0000                	unimp
 284:	0270                	addi	a2,sp,268
 286:	0000                	unimp
 288:	053a                	slli	a0,a0,0xe
 28a:	e000                	fsw	fs0,0(s0)
 28c:	0052                	0x52
	...

Disassembly of section .debug_info:

00000000 <.debug_info>:
   0:	0924                	addi	s1,sp,152
   2:	0000                	unimp
   4:	0004                	addi	s1,sp,0
   6:	0000                	unimp
   8:	0000                	unimp
   a:	0104                	addi	s1,sp,128
   c:	01a9                	addi	gp,gp,10
   e:	0000                	unimp
  10:	9c0c                	0x9c0c
  12:	0000                	unimp
  14:	0000                	unimp
  16:	0000                	unimp
  18:	8400                	0x8400
  1a:	0000                	unimp
  1c:	3ae0                	fld	fs0,240(a3)
  1e:	0004                	addi	s1,sp,0
  20:	0000                	unimp
  22:	0000                	unimp
  24:	0200                	addi	s0,sp,256
  26:	02a2                	slli	t0,t0,0x8
  28:	0000                	unimp
  2a:	2802                	fld	fa6,0(sp)
  2c:	0030                	addi	a2,sp,8
  2e:	0000                	unimp
  30:	026f0403          	lb	s0,38(t5)
  34:	0000                	unimp
  36:	a902                	fsd	ft0,144(sp)
  38:	0002                	0x2
  3a:	0200                	addi	s0,sp,256
  3c:	00002563          	p.beqimm	zero,0,46 <_min_stack-0x1fba>
  40:	0400                	addi	s0,sp,512
  42:	0504                	addi	s1,sp,640
  44:	6e69                	lui	t3,0x1a
  46:	0074                	addi	a3,sp,12
  48:	4105                	li	sp,1
  4a:	0000                	unimp
  4c:	0600                	addi	s0,sp,768
  4e:	0704                	addi	s1,sp,896
  50:	021f 0000 0806      	0x8060000021f
  56:	0d05                	addi	s10,s10,1
  58:	0001                	nop
  5a:	0600                	addi	s0,sp,768
  5c:	0410                	addi	a2,sp,512
  5e:	017d                	addi	sp,sp,31
  60:	0000                	unimp
  62:	0106                	slli	sp,sp,0x1
  64:	8b06                	mv	s6,ra
  66:	0001                	nop
  68:	0600                	addi	s0,sp,768
  6a:	0502                	slli	a0,a0,0x0
  6c:	0064                	addi	s1,sp,12
  6e:	0000                	unimp
  70:	0406                	slli	s0,s0,0x1
  72:	1205                	addi	tp,tp,-31
  74:	0001                	nop
  76:	0600                	addi	s0,sp,768
  78:	0801                	addi	a6,a6,0
  7a:	0189                	addi	gp,gp,2
  7c:	0000                	unimp
  7e:	3302                	fld	ft6,32(sp)
  80:	0002                	0x2
  82:	0300                	addi	s0,sp,384
  84:	8931                	andi	a0,a0,12
  86:	0000                	unimp
  88:	0600                	addi	s0,sp,768
  8a:	0702                	slli	a4,a4,0x0
  8c:	00000247          	fmsub.s	ft4,ft0,ft0,ft0,rne
  90:	0406                	slli	s0,s0,0x1
  92:	00021a07          	0x21a07
  96:	0600                	addi	s0,sp,768
  98:	0708                	addi	a0,sp,896
  9a:	0215                	addi	tp,tp,5
  9c:	0000                	unimp
  9e:	0000ae07          	flw	ft8,0(ra)
  a2:	ae00                	fsd	fs0,24(a2)
  a4:	0000                	unimp
  a6:	0800                	addi	s0,sp,16
  a8:	004d                	c.addi	zero,19
  aa:	0000                	unimp
  ac:	0106000f          	0x106000f
  b0:	9208                	0x9208
  b2:	0001                	nop
  b4:	0900                	addi	s0,sp,144
  b6:	00ae                	slli	ra,ra,0xb
  b8:	0000                	unimp
  ba:	1b0a                	slli	s6,s6,0x22
  bc:	0001                	nop
  be:	0100                	addi	s0,sp,128
  c0:	9e80                	0x9e80
  c2:	0000                	unimp
  c4:	0500                	addi	s0,sp,640
  c6:	006b2c03          	lw	s8,6(s6) # 14006 <_stack_len+0xc006>
  ca:	0be0                	addi	s0,sp,476
  cc:	02b1                	addi	t0,t0,12
  ce:	0000                	unimp
  d0:	5201                	li	tp,-32
  d2:	5201                	li	tp,-32
  d4:	0004                	addi	s1,sp,0
  d6:	6ce0                	flw	fs0,92(s1)
  d8:	0000                	unimp
  da:	0100                	addi	s0,sp,128
  dc:	a69c                	fsd	fa5,8(a3)
  de:	0001                	nop
  e0:	0c00                	addi	s0,sp,528
  e2:	02d0                	addi	a2,sp,324
  e4:	0000                	unimp
  e6:	5401                	li	s0,-32
  e8:	4101                	li	sp,0
  ea:	0000                	unimp
  ec:	9f00                	0x9f00
  ee:	610d                	addi	sp,sp,160
  f0:	0100                	addi	s0,sp,128
  f2:	0155                	addi	sp,sp,21
  f4:	0041                	c.addi	zero,16
  f6:	0000                	unimp
  f8:	0000                	unimp
  fa:	0000                	unimp
  fc:	620d                	lui	tp,0x3
  fe:	0100                	addi	s0,sp,128
 100:	0155                	addi	sp,sp,21
 102:	0041                	c.addi	zero,16
 104:	0000                	unimp
 106:	00000013          	nop
 10a:	630d                	lui	t1,0x3
 10c:	0100                	addi	s0,sp,128
 10e:	0155                	addi	sp,sp,21
 110:	0041                	c.addi	zero,16
 112:	0000                	unimp
 114:	0026                	0x26
 116:	0000                	unimp
 118:	650d                	lui	a0,0x3
 11a:	0100                	addi	s0,sp,128
 11c:	0155                	addi	sp,sp,21
 11e:	0041                	c.addi	zero,16
 120:	0000                	unimp
 122:	0039                	c.addi	zero,14
 124:	0000                	unimp
 126:	640d                	lui	s0,0x3
 128:	0100                	addi	s0,sp,128
 12a:	0155                	addi	sp,sp,21
 12c:	0041                	c.addi	zero,16
 12e:	0000                	unimp
 130:	004c                	addi	a1,sp,4
 132:	0000                	unimp
 134:	6e0e                	flw	ft8,192(sp)
 136:	0000                	unimp
 138:	0100                	addi	s0,sp,128
 13a:	0156                	slli	sp,sp,0x15
 13c:	01a6                	slli	gp,gp,0x9
 13e:	0000                	unimp
 140:	005f 0000 610f      	0x610f0000005f
 146:	0001                	nop
 148:	0100                	addi	s0,sp,128
 14a:	0156                	slli	sp,sp,0x15
 14c:	01a6                	slli	gp,gp,0x9
 14e:	0000                	unimp
 150:	4008                	lw	a0,0(s0)
 152:	1040                	addi	s0,sp,36
 154:	3c10                	fld	fa2,56(s0)
 156:	0002                	0x2
 158:	0100                	addi	s0,sp,128
 15a:	0156                	slli	sp,sp,0x15
 15c:	01a6                	slli	gp,gp,0x9
 15e:	0000                	unimp
 160:	8084                	0x8084
 162:	c180                	sw	s0,0(a1)
 164:	0f7c                	addi	a5,sp,924
 166:	0168                	addi	a0,sp,140
 168:	0000                	unimp
 16a:	5601                	li	a2,-32
 16c:	a601                	j	46c <_min_stack-0x1b94>
 16e:	0001                	nop
 170:	1000                	addi	s0,sp,32
 172:	4040                	lw	s0,4(s0)
 174:	0f10                	addi	a2,sp,912
 176:	0000016f          	jal	sp,176 <_min_stack-0x1e8a>
 17a:	5601                	li	a2,-32
 17c:	a601                	j	47c <_min_stack-0x1b84>
 17e:	0001                	nop
 180:	1400                	addi	s0,sp,544
 182:	4040                	lw	s0,4(s0)
 184:	0f10                	addi	a2,sp,912
 186:	0176                	slli	sp,sp,0x1d
 188:	0000                	unimp
 18a:	5601                	li	a2,-32
 18c:	a601                	j	48c <_min_stack-0x1b74>
 18e:	0001                	nop
 190:	1800                	addi	s0,sp,48
 192:	4040                	lw	s0,4(s0)
 194:	0f10                	addi	a2,sp,912
 196:	02df 0000 5601      	0x5601000002df
 19c:	a601                	j	49c <_min_stack-0x1b64>
 19e:	0001                	nop
 1a0:	1c00                	addi	s0,sp,560
 1a2:	4040                	lw	s0,4(s0)
 1a4:	0010                	addi	a2,sp,0
 1a6:	0411                	addi	s0,s0,4
 1a8:	0048                	addi	a0,sp,4
 1aa:	0000                	unimp
 1ac:	9112                	add	sp,sp,tp
 1ae:	0000                	unimp
 1b0:	0100                	addi	s0,sp,128
 1b2:	0146                	slli	sp,sp,0x11
 1b4:	0041                	c.addi	zero,16
 1b6:	0000                	unimp
 1b8:	0422                	slli	s0,s0,0x8
 1ba:	e000                	fsw	fs0,0(s0)
 1bc:	0030                	addi	a2,sp,8
 1be:	0000                	unimp
 1c0:	9c01                	0x9c01
 1c2:	00000233          	add	tp,zero,zero
 1c6:	01007313          	andi	t1,zero,16
 1ca:	0146                	slli	sp,sp,0x11
 1cc:	00000233          	add	tp,zero,zero
 1d0:	00000087          	0x87
 1d4:	690d                	lui	s2,0x3
 1d6:	0100                	addi	s0,sp,128
 1d8:	0148                	addi	a0,sp,132
 1da:	0041                	c.addi	zero,16
 1dc:	0000                	unimp
 1de:	00be                	slli	ra,ra,0xf
 1e0:	0000                	unimp
 1e2:	1114                	addi	a3,sp,160
 1e4:	0005                	c.addi	zero,1
 1e6:	3c00                	fld	fs0,56(s0)
 1e8:	0004                	addi	s1,sp,0
 1ea:	04e0                	addi	s0,sp,588
 1ec:	0000                	unimp
 1ee:	0100                	addi	s0,sp,128
 1f0:	014d                	addi	sp,sp,19
 1f2:	0000020f          	0x20f
 1f6:	2115                	jal	61a <_min_stack-0x19e6>
 1f8:	0005                	c.addi	zero,1
 1fa:	f800                	fsw	fs0,48(s0)
 1fc:	0000                	unimp
 1fe:	1600                	addi	s0,sp,800
 200:	0440                	addi	s0,sp,516
 202:	e000                	fsw	fs0,0(s0)
 204:	0582                	slli	a1,a1,0x0
 206:	0000                	unimp
 208:	015a0117          	auipc	sp,0x15a0
 20c:	003a                	0x3a
 20e:	1800                	addi	s0,sp,48
 210:	0511                	addi	a0,a0,4
 212:	0000                	unimp
 214:	044e                	slli	s0,s0,0x13
 216:	e000                	fsw	fs0,0(s0)
 218:	0004                	addi	s1,sp,0
 21a:	0000                	unimp
 21c:	4b01                	li	s6,0
 21e:	1501                	addi	a0,a0,-32
 220:	0521                	addi	a0,a0,8
 222:	0000                	unimp
 224:	010c                	addi	a1,sp,128
 226:	0000                	unimp
 228:	5019                	0x5019
 22a:	0004                	addi	s1,sp,0
 22c:	82e0                	0x82e0
 22e:	0005                	c.addi	zero,1
 230:	0000                	unimp
 232:	1100                	addi	s0,sp,160
 234:	b504                	fsd	fs1,40(a0)
 236:	0000                	unimp
 238:	1200                	addi	s0,sp,288
 23a:	0000014b          	fnmsub.s	ft2,ft0,ft0,ft0,rne
 23e:	3701                	jal	13e <_min_stack-0x1ec2>
 240:	4101                	li	sp,0
 242:	0000                	unimp
 244:	c000                	sw	s0,0(s0)
 246:	0002                	0x2
 248:	58e0                	lw	s0,116(s1)
 24a:	0001                	nop
 24c:	0100                	addi	s0,sp,128
 24e:	4b9c                	lw	a5,16(a5)
 250:	1a000003          	lb	zero,416(zero) # 1a0 <_min_stack-0x1e60>
 254:	02d8                	addi	a4,sp,324
 256:	0000                	unimp
 258:	3701                	jal	158 <_min_stack-0x1ea8>
 25a:	3301                	jal	ffffff5a <pulp__FC+0xffffff5b>
 25c:	0002                	0x2
 25e:	2400                	fld	fs0,8(s0)
 260:	0001                	nop
 262:	1b00                	addi	s0,sp,432
 264:	701c                	flw	fa5,32(s0)
 266:	39010063          	beq	sp,a6,5e6 <_min_stack-0x1a1a>
 26a:	4101                	li	sp,0
 26c:	0000                	unimp
 26e:	1d00                	addi	s0,sp,688
 270:	6176                	flw	ft2,92(sp)
 272:	0100                	addi	s0,sp,128
 274:	013a                	slli	sp,sp,0xe
 276:	0036                	0x36
 278:	0000                	unimp
 27a:	7fac9103          	lh	sp,2042(s9)
 27e:	4b1e                	lw	s6,196(sp)
 280:	ea000003          	lb	zero,-352(zero) # fffffea0 <pulp__FC+0xfffffea1>
 284:	0002                	0x2
 286:	d8e0                	sw	s0,116(s1)
 288:	0000                	unimp
 28a:	0100                	addi	s0,sp,128
 28c:	013e                	slli	sp,sp,0xf
 28e:	5b1f 0003 0000      	0x35b1f
 294:	7115                	addi	sp,sp,-224
 296:	45000003          	lb	zero,1104(zero) # 450 <_min_stack-0x1bb0>
 29a:	0001                	nop
 29c:	1500                	addi	s0,sp,672
 29e:	0366                	slli	t1,t1,0x19
 2a0:	0000                	unimp
 2a2:	000001e7          	jalr	gp,zero
 2a6:	d820                	sw	s0,112(s0)
 2a8:	0000                	unimp
 2aa:	2100                	fld	fs0,0(a0)
 2ac:	0000037b          	lp.starti	x6,2ac <_min_stack-0x1d54>
 2b0:	02ad                	addi	t0,t0,11
 2b2:	0000                	unimp
 2b4:	8621                	srai	a2,a2,0x8
 2b6:	05000003          	lb	zero,80(zero) # 50 <_min_stack-0x1fb0>
 2ba:	21000003          	lb	zero,528(zero) # 210 <_min_stack-0x1df0>
 2be:	0391                	addi	t2,t2,4
 2c0:	0000                	unimp
 2c2:	035d                	addi	t1,t1,23
 2c4:	0000                	unimp
 2c6:	9b22                	add	s6,s6,s0
 2c8:	03000003          	lb	zero,48(zero) # 30 <_min_stack-0x1fd0>
 2cc:	a891                	j	320 <_min_stack-0x1ce0>
 2ce:	237f                	0x237f
 2d0:	03a6                	slli	t2,t2,0x9
 2d2:	0000                	unimp
 2d4:	040e                	slli	s0,s0,0x3
 2d6:	e000                	fsw	fs0,0(s0)
 2d8:	ae24                	fsd	fs1,88(a2)
 2da:	f0000003          	lb	zero,-256(zero) # ffffff00 <pulp__FC+0xffffff01>
 2de:	0000                	unimp
 2e0:	ed00                	fsw	fs0,24(a0)
 2e2:	0002                	0x2
 2e4:	2200                	fld	fs0,0(a2)
 2e6:	000003af          	0x3af
 2ea:	5a01                	li	s4,-32
 2ec:	2500                	fld	fs0,8(a0)
 2ee:	04f0                	addi	a2,sp,588
 2f0:	0000                	unimp
 2f2:	040e                	slli	s0,s0,0x3
 2f4:	e000                	fsw	fs0,0(s0)
 2f6:	0108                	addi	a0,sp,128
 2f8:	0000                	unimp
 2fa:	2e01                	jal	60a <_min_stack-0x19f6>
 2fc:	3601                	jal	fffffdfc <pulp__FC+0xfffffdfd>
 2fe:	15000003          	lb	zero,336(zero) # 150 <_min_stack-0x1eb0>
 302:	04fc                	addi	a5,sp,588
 304:	0000                	unimp
 306:	039e                	slli	t2,t2,0x7
 308:	0000                	unimp
 30a:	0715                	addi	a4,a4,5
 30c:	0005                	c.addi	zero,1
 30e:	b200                	fsd	fs0,32(a2)
 310:	26000003          	lb	zero,608(zero) # 260 <_min_stack-0x1da0>
 314:	0511                	addi	a0,a0,4
 316:	0000                	unimp
 318:	040e                	slli	s0,s0,0x3
 31a:	e000                	fsw	fs0,0(s0)
 31c:	0108                	addi	a0,sp,128
 31e:	0000                	unimp
 320:	9801                	andi	s0,s0,-32
 322:	2115                	jal	746 <_min_stack-0x18ba>
 324:	0005                	c.addi	zero,1
 326:	b200                	fsd	fs0,32(a2)
 328:	19000003          	lb	zero,400(zero) # 190 <_min_stack-0x1e70>
 32c:	0416                	slli	s0,s0,0x5
 32e:	e000                	fsw	fs0,0(s0)
 330:	0582                	slli	a1,a1,0x0
 332:	0000                	unimp
 334:	0000                	unimp
 336:	7e19                	lui	t3,0xfffe6
 338:	5ae00003          	lb	zero,1454(zero) # 5ae <_min_stack-0x1a52>
 33c:	0006                	0x6
 33e:	1900                	addi	s0,sp,176
 340:	03aa                	slli	t2,t2,0xa
 342:	e000                	fsw	fs0,0(s0)
 344:	00000793          	li	a5,0
 348:	0000                	unimp
 34a:	2700                	fld	fs0,8(a4)
 34c:	022c                	addi	a1,sp,264
 34e:	0000                	unimp
 350:	f301                	bnez	a4,250 <_min_stack-0x1db0>
 352:	0041                	c.addi	zero,16
 354:	0000                	unimp
 356:	bb01                	j	66 <_min_stack-0x1f9a>
 358:	28000003          	lb	zero,640(zero) # 280 <_min_stack-0x1d80>
 35c:	0074756f          	jal	a0,47b62 <tohost+0x27b5a>
 360:	f301                	bnez	a4,260 <_min_stack-0x1da0>
 362:	000003bb          	0x3bb
 366:	d829                	beqz	s0,2b8 <_min_stack-0x1d48>
 368:	0002                	0x2
 36a:	0100                	addi	s0,sp,128
 36c:	000233f3          	csrrc	t2,0x0,tp
 370:	2800                	fld	fs0,16(s0)
 372:	6176                	flw	ft2,92(sp)
 374:	0100                	addi	s0,sp,128
 376:	000036f3          	csrrc	a3,0x0,zero
 37a:	2a00                	fld	fs0,16(a2)
 37c:	0096                	slli	ra,ra,0x5
 37e:	0000                	unimp
 380:	f501                	bnez	a0,288 <_min_stack-0x1d78>
 382:	0041                	c.addi	zero,16
 384:	0000                	unimp
 386:	6461702b          	0x6461702b
 38a:	0100                	addi	s0,sp,128
 38c:	41f5                	li	gp,29
 38e:	0000                	unimp
 390:	2b00                	fld	fs0,16(a4)
 392:	6370                	flw	fa2,68(a4)
 394:	0100                	addi	s0,sp,128
 396:	41f6                	lw	gp,92(sp)
 398:	0000                	unimp
 39a:	2b00                	fld	fs0,16(a4)
 39c:	00726373          	csrrsi	t1,0x7,4
 3a0:	f701                	bnez	a4,2a8 <_min_stack-0x1d58>
 3a2:	000003c7          	fmsub.s	ft7,ft0,ft0,ft0,rne
 3a6:	6f2c                	flw	fa1,88(a4)
 3a8:	7475                	lui	s0,0xffffd
 3aa:	0100                	addi	s0,sp,128
 3ac:	012d                	addi	sp,sp,11
 3ae:	1c2d                	addi	s8,s8,-21
 3b0:	10010073          	0x10010073
 3b4:	c101                	beqz	a0,3b4 <_min_stack-0x1c4c>
 3b6:	00000003          	lb	zero,0(zero) # 0 <_min_stack-0x2000>
 3ba:	1100                	addi	s0,sp,160
 3bc:	c104                	sw	s1,0(a0)
 3be:	11000003          	lb	zero,272(zero) # 110 <_min_stack-0x1ef0>
 3c2:	ae04                	fsd	fs1,24(a2)
 3c4:	0000                	unimp
 3c6:	0700                	addi	s0,sp,896
 3c8:	00ae                	slli	ra,ra,0xb
 3ca:	0000                	unimp
 3cc:	000003d7          	pv.add.h	t2,zero,zero
 3d0:	4d08                	lw	a0,24(a0)
 3d2:	0000                	unimp
 3d4:	0100                	addi	s0,sp,128
 3d6:	2700                	fld	fs0,8(a4)
 3d8:	0152                	slli	sp,sp,0x14
 3da:	0000                	unimp
 3dc:	b901                	j	ffffffec <pulp__FC+0xffffffed>
 3de:	0041                	c.addi	zero,16
 3e0:	0000                	unimp
 3e2:	7601                	lui	a2,0xfffe0
 3e4:	0004                	addi	s1,sp,0
 3e6:	2800                	fld	fs0,16(s0)
 3e8:	0074756f          	jal	a0,47bee <tohost+0x27be6>
 3ec:	b901                	j	fffffffc <pulp__FC+0xfffffffd>
 3ee:	000003bb          	0x3bb
 3f2:	6928                	flw	fa0,80(a0)
 3f4:	0100                	addi	s0,sp,128
 3f6:	41b9                	li	gp,14
 3f8:	0000                	unimp
 3fa:	2800                	fld	fs0,16(s0)
 3fc:	0062                	0x62
 3fe:	b901                	j	e <_min_stack-0x1ff2>
 400:	0041                	c.addi	zero,16
 402:	0000                	unimp
 404:	7328                	flw	fa0,96(a4)
 406:	b9010067          	jr	-1136(sp) # 159fd98 <tohost+0x157fd90>
 40a:	0041                	c.addi	zero,16
 40c:	0000                	unimp
 40e:	9629                	srai	a2,a2,0x2a
 410:	0000                	unimp
 412:	0100                	addi	s0,sp,128
 414:	41b9                	li	gp,14
 416:	0000                	unimp
 418:	2800                	fld	fs0,16(s0)
 41a:	6170                	flw	fa2,68(a0)
 41c:	0064                	addi	s1,sp,12
 41e:	b901                	j	2e <_min_stack-0x1fd2>
 420:	0041                	c.addi	zero,16
 422:	0000                	unimp
 424:	3c29                	jal	fffffe3e <pulp__FC+0xfffffe3f>
 426:	0001                	nop
 428:	0100                	addi	s0,sp,128
 42a:	aeb9                	j	788 <_min_stack-0x1878>
 42c:	0000                	unimp
 42e:	2a00                	fld	fs0,16(a2)
 430:	025a                	slli	tp,tp,0x16
 432:	0000                	unimp
 434:	bb01                	j	144 <_min_stack-0x1ebc>
 436:	0476                	slli	s0,s0,0x1d
 438:	0000                	unimp
 43a:	0100732b          	0x100732b
 43e:	c1bc                	sw	a5,64(a1)
 440:	2b000003          	lb	zero,688(zero) # 2b0 <_min_stack-0x1d50>
 444:	656e                	flw	fa0,216(sp)
 446:	bd010067          	jr	-1072(sp)
 44a:	0041                	c.addi	zero,16
 44c:	0000                	unimp
 44e:	0063702b          	0x63702b
 452:	bd01                	j	262 <_min_stack-0x1d9e>
 454:	0041                	c.addi	zero,16
 456:	0000                	unimp
 458:	0100742b          	0x100742b
 45c:	4dbe                	lw	s11,204(sp)
 45e:	0000                	unimp
 460:	2b00                	fld	fs0,16(a4)
 462:	0075                	c.addi	zero,29
 464:	be01                	j	ffffff74 <pulp__FC+0xffffff75>
 466:	004d                	c.addi	zero,19
 468:	0000                	unimp
 46a:	2b2d                	jal	9a4 <_min_stack-0x165c>
 46c:	0074                	addi	a3,sp,12
 46e:	d401                	beqz	s0,376 <_min_stack-0x1c8a>
 470:	0041                	c.addi	zero,16
 472:	0000                	unimp
 474:	0000                	unimp
 476:	0000ae07          	flw	ft8,0(ra)
 47a:	8600                	0x8600
 47c:	0004                	addi	s1,sp,0
 47e:	0800                	addi	s0,sp,16
 480:	004d                	c.addi	zero,19
 482:	0000                	unimp
 484:	001f 5c27 0000      	0x5c27001f
 48a:	0100                	addi	s0,sp,128
 48c:	0000419b          	0x419b
 490:	0100                	addi	s0,sp,128
 492:	04f0                	addi	a2,sp,588
 494:	0000                	unimp
 496:	6f28                	flw	fa0,88(a4)
 498:	7475                	lui	s0,0xffffd
 49a:	0100                	addi	s0,sp,128
 49c:	0003bb9b          	0x3bb9b
 4a0:	2900                	fld	fs0,16(a0)
 4a2:	0144                	addi	s1,sp,132
 4a4:	0000                	unimp
 4a6:	9b01                	andi	a4,a4,-32
 4a8:	00000233          	add	tp,zero,zero
 4ac:	9629                	srai	a2,a2,0x2a
 4ae:	0000                	unimp
 4b0:	0100                	addi	s0,sp,128
 4b2:	0000419b          	0x419b
 4b6:	2800                	fld	fs0,16(s0)
 4b8:	6170                	flw	fa2,68(a0)
 4ba:	0064                	addi	s1,sp,12
 4bc:	9b01                	andi	a4,a4,-32
 4be:	0041                	c.addi	zero,16
 4c0:	0000                	unimp
 4c2:	0063702b          	0x63702b
 4c6:	9d01                	0x9d01
 4c8:	0041                	c.addi	zero,16
 4ca:	0000                	unimp
 4cc:	7c2a                	flw	fs8,168(sp)
 4ce:	0000                	unimp
 4d0:	0100                	addi	s0,sp,128
 4d2:	419d                	li	gp,7
 4d4:	0000                	unimp
 4d6:	2d00                	fld	fs0,24(a0)
 4d8:	6e656c2b          	0x6e656c2b
 4dc:	0100                	addi	s0,sp,128
 4de:	41a0                	lw	s0,64(a1)
 4e0:	0000                	unimp
 4e2:	2b00                	fld	fs0,16(a4)
 4e4:	7470                	flw	fa2,108(s0)
 4e6:	0072                	0x72
 4e8:	a101                	j	8e8 <_min_stack-0x1718>
 4ea:	00000233          	add	tp,zero,zero
 4ee:	0000                	unimp
 4f0:	642e                	flw	fs0,200(sp)
 4f2:	0002                	0x2
 4f4:	0100                	addi	s0,sp,128
 4f6:	0190                	addi	a2,sp,192
 4f8:	0511                	addi	a0,a0,4
 4fa:	0000                	unimp
 4fc:	7328                	flw	fa0,96(a4)
 4fe:	7274                	flw	fa3,100(a2)
 500:	0100                	addi	s0,sp,128
 502:	bb90                	fsd	fa2,48(a5)
 504:	28000003          	lb	zero,640(zero) # 280 <_min_stack-0x1d80>
 508:	90010063          	beqz	sp,fffff608 <pulp__FC+0xfffff609>
 50c:	0041                	c.addi	zero,16
 50e:	0000                	unimp
 510:	2f00                	fld	fs0,24(a4)
 512:	0074                	addi	a3,sp,12
 514:	0000                	unimp
 516:	8a01                	andi	a2,a2,0
 518:	0041                	c.addi	zero,16
 51a:	0000                	unimp
 51c:	2b01                	jal	a2c <_min_stack-0x15d4>
 51e:	0005                	c.addi	zero,1
 520:	2800                	fld	fs0,16(s0)
 522:	8a010073          	0x8a010073
 526:	0041                	c.addi	zero,16
 528:	0000                	unimp
 52a:	2700                	fld	fs0,8(a4)
 52c:	0135                	addi	sp,sp,13
 52e:	0000                	unimp
 530:	8501                	srai	a0,a0,0x0
 532:	004d                	c.addi	zero,19
 534:	0000                	unimp
 536:	4501                	li	a0,0
 538:	0005                	c.addi	zero,1
 53a:	2800                	fld	fs0,16(s0)
 53c:	006e                	0x6e
 53e:	8501                	srai	a0,a0,0x0
 540:	004d                	c.addi	zero,19
 542:	0000                	unimp
 544:	2700                	fld	fs0,8(a4)
 546:	0281                	addi	t0,t0,0
 548:	0000                	unimp
 54a:	7301                	lui	t1,0xfffe0
 54c:	004d                	c.addi	zero,19
 54e:	0000                	unimp
 550:	7101                	addi	sp,sp,-512
 552:	0005                	c.addi	zero,1
 554:	2800                	fld	fs0,16(s0)
 556:	006e                	0x6e
 558:	7301                	lui	t1,0xfffe0
 55a:	004d                	c.addi	zero,19
 55c:	0000                	unimp
 55e:	0100712b          	0x100712b
 562:	4d74                	lw	a3,92(a0)
 564:	0000                	unimp
 566:	2b00                	fld	fs0,16(a4)
 568:	0072                	0x72
 56a:	7401                	lui	s0,0xfffe0
 56c:	004d                	c.addi	zero,19
 56e:	0000                	unimp
 570:	3000                	fld	fs0,32(s0)
 572:	00000197          	auipc	gp,0x0
 576:	5501                	li	a0,-32
 578:	029a                	slli	t0,t0,0x6
 57a:	e000                	fsw	fs0,0(s0)
 57c:	000e                	0xe
 57e:	0000                	unimp
 580:	9c01                	0x9c01
 582:	8831                	andi	s0,s0,12
 584:	0002                	0x2
 586:	0100                	addi	s0,sp,128
 588:	ea4d                	bnez	a2,63a <_min_stack-0x19c6>
 58a:	0000                	unimp
 58c:	10e0                	addi	s0,sp,108
 58e:	0000                	unimp
 590:	0100                	addi	s0,sp,128
 592:	a39c                	fsd	fa5,0(a5)
 594:	0005                	c.addi	zero,1
 596:	3200                	fld	fs0,32(a2)
 598:	4d010063          	beq	sp,a6,a58 <_min_stack-0x15a8>
 59c:	00b5                	addi	ra,ra,13
 59e:	0000                	unimp
 5a0:	5a01                	li	s4,-32
 5a2:	3300                	fld	fs0,32(a4)
 5a4:	0128                	addi	a0,sp,136
 5a6:	0000                	unimp
 5a8:	4701                	li	a4,0
 5aa:	00ae                	slli	ra,ra,0xb
 5ac:	0000                	unimp
 5ae:	00d8                	addi	a4,sp,68
 5b0:	e000                	fsw	fs0,0(s0)
 5b2:	0012                	0x12
 5b4:	0000                	unimp
 5b6:	9c01                	0x9c01
 5b8:	c631                	beqz	a2,604 <_min_stack-0x19fc>
 5ba:	0002                	0x2
 5bc:	0100                	addi	s0,sp,128
 5be:	b235                	j	fffffeea <pulp__FC+0xfffffeeb>
 5c0:	0000                	unimp
 5c2:	26e0                	fld	fs0,200(a3)
 5c4:	0000                	unimp
 5c6:	0100                	addi	s0,sp,128
 5c8:	f69c                	fsw	fa5,40(a3)
 5ca:	0005                	c.addi	zero,1
 5cc:	3400                	fld	fs0,40(s0)
 5ce:	00727473          	csrrci	s0,0x7,4
 5d2:	3501                	jal	3d2 <_min_stack-0x1c2e>
 5d4:	00000233          	add	tp,zero,zero
 5d8:	03cc                	addi	a1,sp,452
 5da:	0000                	unimp
 5dc:	6c34                	flw	fa3,88(s0)
 5de:	6e65                	lui	t3,0x19
 5e0:	0100                	addi	s0,sp,128
 5e2:	4d35                	li	s10,13
 5e4:	0000                	unimp
 5e6:	ea00                	fsw	fs0,16(a2)
 5e8:	35000003          	lb	zero,848(zero) # 350 <_min_stack-0x1cb0>
 5ec:	0069                	c.addi	zero,26
 5ee:	3601                	jal	ee <_min_stack-0x1f12>
 5f0:	004d                	c.addi	zero,19
 5f2:	0000                	unimp
 5f4:	0000                	unimp
 5f6:	8431                	srai	s0,s0,0xc
 5f8:	0000                	unimp
 5fa:	0100                	addi	s0,sp,128
 5fc:	842a                	mv	s0,a0
 5fe:	0000                	unimp
 600:	2ee0                	fld	fs0,216(a3)
 602:	0000                	unimp
 604:	0100                	addi	s0,sp,128
 606:	319c                	fld	fa5,32(a1)
 608:	0006                	0x6
 60a:	3600                	fld	fs0,40(a2)
 60c:	015a                	slli	sp,sp,0x16
 60e:	0000                	unimp
 610:	2a01                	jal	720 <_min_stack-0x18e0>
 612:	0041                	c.addi	zero,16
 614:	0000                	unimp
 616:	5a01                	li	s4,-32
 618:	00029637          	lui	a2,0x29
 61c:	0100                	addi	s0,sp,128
 61e:	7e2a                	flw	ft8,168(sp)
 620:	0000                	unimp
 622:	0800                	addi	s0,sp,16
 624:	0004                	addi	s1,sp,0
 626:	2b00                	fld	fs0,16(a4)
 628:	0069                	c.addi	zero,26
 62a:	2b01                	jal	b3a <_min_stack-0x14c6>
 62c:	004d                	c.addi	zero,19
 62e:	0000                	unimp
 630:	3100                	fld	fs0,32(a0)
 632:	00fa                	slli	ra,ra,0x1e
 634:	0000                	unimp
 636:	1b01                	addi	s6,s6,-32
 638:	0418                	addi	a4,sp,512
 63a:	e000                	fsw	fs0,0(s0)
 63c:	000a                	0xa
 63e:	0000                	unimp
 640:	9c01                	0x9c01
 642:	065a                	slli	a2,a2,0x16
 644:	0000                	unimp
 646:	2238                	fld	fa4,64(a2)
 648:	0004                	addi	s1,sp,0
 64a:	39e0                	fld	fs0,240(a1)
 64c:	0002                	0x2
 64e:	1700                	addi	s0,sp,928
 650:	5a01                	li	s4,-32
 652:	0305                	addi	t1,t1,1
 654:	6b1c                	flw	fa5,16(a4)
 656:	e000                	fsw	fs0,0(s0)
 658:	0000                	unimp
 65a:	8639                	srai	a2,a2,0xe
 65c:	0004                	addi	s1,sp,0
 65e:	fa00                	fsw	fs0,48(a2)
 660:	0000                	unimp
 662:	a6e0                	fsd	fs0,200(a3)
 664:	0000                	unimp
 666:	0100                	addi	s0,sp,128
 668:	939c                	0x939c
 66a:	15000007          	0x15000007
 66e:	04a1                	addi	s1,s1,8
 670:	0000                	unimp
 672:	0429                	addi	s0,s0,10
 674:	0000                	unimp
 676:	ac15                	j	8aa <_min_stack-0x1756>
 678:	0004                	addi	s1,sp,0
 67a:	5200                	lw	s0,32(a2)
 67c:	0004                	addi	s1,sp,0
 67e:	1500                	addi	s0,sp,672
 680:	000004b7          	lui	s1,0x0
 684:	04ca                	slli	s1,s1,0x12
 686:	0000                	unimp
 688:	c221                	beqz	a2,6c8 <_min_stack-0x1938>
 68a:	0004                	addi	s1,sp,0
 68c:	0400                	addi	s0,sp,512
 68e:	0005                	c.addi	zero,1
 690:	2100                	fld	fs0,0(a0)
 692:	04cc                	addi	a1,sp,580
 694:	0000                	unimp
 696:	0546                	slli	a0,a0,0x11
 698:	0000                	unimp
 69a:	961f 0004 0000      	0x4961f
 6a0:	d724                	sw	s1,104(a4)
 6a2:	0004                	addi	s1,sp,0
 6a4:	0000                	unimp
 6a6:	0000                	unimp
 6a8:	c000                	sw	s0,0(s0)
 6aa:	0006                	0x6
 6ac:	2100                	fld	fs0,0(a0)
 6ae:	04d8                	addi	a4,sp,580
 6b0:	0000                	unimp
 6b2:	057e                	slli	a0,a0,0x1f
 6b4:	0000                	unimp
 6b6:	e321                	bnez	a4,6f6 <_min_stack-0x190a>
 6b8:	0004                	addi	s1,sp,0
 6ba:	9c00                	0x9c00
 6bc:	0005                	c.addi	zero,1
 6be:	0000                	unimp
 6c0:	f03a                	fsw	fa4,32(sp)
 6c2:	0004                	addi	s1,sp,0
 6c4:	4e00                	lw	s0,24(a2)
 6c6:	0001                	nop
 6c8:	20e0                	fld	fs0,192(s1)
 6ca:	0000                	unimp
 6cc:	0100                	addi	s0,sp,128
 6ce:	07b2                	slli	a5,a5,0xc
 6d0:	15000007          	0x15000007
 6d4:	04fc                	addi	a5,sp,588
 6d6:	0000                	unimp
 6d8:	05c5                	addi	a1,a1,17
 6da:	0000                	unimp
 6dc:	0005073b          	0x5073b
 6e0:	2600                	fld	fs0,8(a2)
 6e2:	0511                	addi	a0,a0,4
 6e4:	0000                	unimp
 6e6:	014e                	slli	sp,sp,0x13
 6e8:	e000                	fsw	fs0,0(s0)
 6ea:	0038                	addi	a4,sp,8
 6ec:	0000                	unimp
 6ee:	9801                	andi	s0,s0,-32
 6f0:	0005213b          	0x5213b
 6f4:	1600                	addi	s0,sp,800
 6f6:	019c                	addi	a5,sp,192
 6f8:	e000                	fsw	fs0,0(s0)
 6fa:	0582                	slli	a1,a1,0x0
 6fc:	0000                	unimp
 6fe:	025a0117          	auipc	sp,0x25a0
 702:	0082                	slli	ra,ra,0x0
 704:	0000                	unimp
 706:	3a00                	fld	fs0,48(a2)
 708:	04f0                	addi	a2,sp,588
 70a:	0000                	unimp
 70c:	0174                	addi	a3,sp,140
 70e:	e000                	fsw	fs0,0(s0)
 710:	0050                	addi	a2,sp,4
 712:	0000                	unimp
 714:	a901                	j	b24 <_min_stack-0x14dc>
 716:	074e                	slli	a4,a4,0x13
 718:	0000                	unimp
 71a:	fc15                	bnez	s0,656 <_min_stack-0x19aa>
 71c:	0004                	addi	s1,sp,0
 71e:	d900                	sw	s0,48(a0)
 720:	0005                	c.addi	zero,1
 722:	3b00                	fld	fs0,48(a4)
 724:	00000507          	0x507
 728:	1126                	slli	sp,sp,0x29
 72a:	0005                	c.addi	zero,1
 72c:	7400                	flw	fs0,40(s0)
 72e:	0001                	nop
 730:	68e0                	flw	fs0,84(s1)
 732:	0000                	unimp
 734:	0100                	addi	s0,sp,128
 736:	3b98                	fld	fa4,48(a5)
 738:	0521                	addi	a0,a0,8
 73a:	0000                	unimp
 73c:	7816                	flw	fa6,100(sp)
 73e:	0001                	nop
 740:	82e0                	0x82e0
 742:	0005                	c.addi	zero,1
 744:	1700                	addi	s0,sp,928
 746:	5a01                	li	s4,-32
 748:	8402                	jr	s0
 74a:	0000                	unimp
 74c:	0000                	unimp
 74e:	f03c                	fsw	fa5,96(s0)
 750:	0004                	addi	s1,sp,0
 752:	9200                	0x9200
 754:	0001                	nop
 756:	02e0                	addi	s0,sp,332
 758:	0000                	unimp
 75a:	0100                	addi	s0,sp,128
 75c:	15ae                	slli	a1,a1,0x2b
 75e:	04fc                	addi	a5,sp,588
 760:	0000                	unimp
 762:	05ed                	addi	a1,a1,27
 764:	0000                	unimp
 766:	0715                	addi	a4,a4,5
 768:	0005                	c.addi	zero,1
 76a:	0100                	addi	s0,sp,128
 76c:	0006                	0x6
 76e:	3c00                	fld	fs0,56(s0)
 770:	0511                	addi	a0,a0,4
 772:	0000                	unimp
 774:	0192                	slli	gp,gp,0x4
 776:	e000                	fsw	fs0,0(s0)
 778:	0002                	0x2
 77a:	0000                	unimp
 77c:	9801                	andi	s0,s0,-32
 77e:	2115                	jal	ba2 <_min_stack-0x145e>
 780:	0005                	c.addi	zero,1
 782:	0100                	addi	s0,sp,128
 784:	0006                	0x6
 786:	1900                	addi	s0,sp,176
 788:	0194                	addi	a3,sp,192
 78a:	e000                	fsw	fs0,0(s0)
 78c:	0582                	slli	a1,a1,0x0
 78e:	0000                	unimp
 790:	0000                	unimp
 792:	3900                	fld	fs0,48(a0)
 794:	000003d7          	pv.add.h	t2,zero,zero
 798:	01a0                	addi	s0,sp,200
 79a:	e000                	fsw	fs0,0(s0)
 79c:	00fa                	slli	ra,ra,0x1e
 79e:	0000                	unimp
 7a0:	9c01                	0x9c01
 7a2:	08fe                	slli	a7,a7,0x1f
 7a4:	0000                	unimp
 7a6:	f215                	bnez	a2,6ca <_min_stack-0x1936>
 7a8:	19000003          	lb	zero,400(zero) # 190 <_min_stack-0x1e70>
 7ac:	0006                	0x6
 7ae:	1500                	addi	s0,sp,672
 7b0:	000003fb          	lp.starti	x7,7b0 <_min_stack-0x1850>
 7b4:	066c                	addi	a1,sp,780
 7b6:	0000                	unimp
 7b8:	0415                	addi	s0,s0,5
 7ba:	0004                	addi	s1,sp,0
 7bc:	d800                	sw	s0,48(s0)
 7be:	0006                	0x6
 7c0:	1500                	addi	s0,sp,672
 7c2:	040e                	slli	s0,s0,0x3
 7c4:	0000                	unimp
 7c6:	0736                	slli	a4,a4,0xd
 7c8:	0000                	unimp
 7ca:	1915                	addi	s2,s2,-27
 7cc:	0004                	addi	s1,sp,0
 7ce:	8600                	0x8600
 7d0:	15000007          	0x15000007
 7d4:	0424                	addi	s1,sp,520
 7d6:	0000                	unimp
 7d8:	000007cb          	fnmsub.s	fa5,ft0,ft0,ft0,rne
 7dc:	2f22                	fld	ft10,8(sp)
 7de:	0004                	addi	s1,sp,0
 7e0:	0200                	addi	s0,sp,256
 7e2:	5091                	li	ra,-28
 7e4:	3a21                	jal	fc <_min_stack-0x1f04>
 7e6:	0004                	addi	s1,sp,0
 7e8:	3700                	fld	fs0,40(a4)
 7ea:	0008                	addi	a0,sp,0
 7ec:	2100                	fld	fs0,0(a0)
 7ee:	00000443          	fmadd.s	fs0,ft0,ft0,ft0,rne
 7f2:	087a                	slli	a6,a6,0x1e
 7f4:	0000                	unimp
 7f6:	4e21                	li	t3,8
 7f8:	0004                	addi	s1,sp,0
 7fa:	d300                	sw	s0,32(a4)
 7fc:	0008                	addi	a0,sp,0
 7fe:	3d00                	fld	fs0,56(a0)
 800:	0458                	addi	a4,sp,516
 802:	0000                	unimp
 804:	6121                	addi	sp,sp,64
 806:	0004                	addi	s1,sp,0
 808:	1600                	addi	s0,sp,800
 80a:	0009                	c.addi	zero,2
 80c:	1f00                	addi	s0,sp,944
 80e:	000003e7          	jalr	t2,zero
 812:	3a00                	fld	fs0,48(a2)
 814:	0000052b          	p.sb	zero,10(zero!) # a <_min_stack-0x1ff6>
 818:	01e4                	addi	s1,sp,204
 81a:	e000                	fsw	fs0,0(s0)
 81c:	0080                	addi	s0,sp,64
 81e:	0000                	unimp
 820:	df01                	beqz	a4,738 <_min_stack-0x18c8>
 822:	0830                	addi	a2,sp,24
 824:	0000                	unimp
 826:	3b15                	jal	55a <_min_stack-0x1aa6>
 828:	0005                	c.addi	zero,1
 82a:	6500                	flw	fs0,8(a0)
 82c:	0009                	c.addi	zero,2
 82e:	0000                	unimp
 830:	453a                	lw	a0,140(sp)
 832:	0005                	c.addi	zero,1
 834:	f400                	fsw	fs0,40(s0)
 836:	0001                	nop
 838:	a0e0                	fsd	fs0,192(s1)
 83a:	0000                	unimp
 83c:	0100                	addi	s0,sp,128
 83e:	65e0                	flw	fs0,76(a1)
 840:	0008                	addi	a0,sp,0
 842:	1500                	addi	s0,sp,672
 844:	0555                	addi	a0,a0,21
 846:	0000                	unimp
 848:	0978                	addi	a4,sp,156
 84a:	0000                	unimp
 84c:	a020                	fsd	fs0,64(s0)
 84e:	0000                	unimp
 850:	2100                	fld	fs0,0(a0)
 852:	055e                	slli	a0,a0,0x17
 854:	0000                	unimp
 856:	0998                	addi	a4,sp,208
 858:	0000                	unimp
 85a:	6721                	lui	a4,0x8
 85c:	0005                	c.addi	zero,1
 85e:	ab00                	fsd	fs0,16(a4)
 860:	0009                	c.addi	zero,2
 862:	0000                	unimp
 864:	2400                	fld	fs0,8(s0)
 866:	046a                	slli	s0,s0,0x1a
 868:	0000                	unimp
 86a:	00c0                	addi	s0,sp,68
 86c:	0000                	unimp
 86e:	087c                	addi	a5,sp,28
 870:	0000                	unimp
 872:	6b21                	lui	s6,0x8
 874:	0004                	addi	s1,sp,0
 876:	db00                	sw	s0,48(a4)
 878:	0009                	c.addi	zero,2
 87a:	0000                	unimp
 87c:	f03e                	fsw	fa5,32(sp)
 87e:	0004                	addi	s1,sp,0
 880:	6a00                	flw	fs0,16(a2)
 882:	0002                	0x2
 884:	0ae0                	addi	s0,sp,348
 886:	0000                	unimp
 888:	0100                	addi	s0,sp,128
 88a:	0008cbe7          	0x8cbe7
 88e:	1500                	addi	s0,sp,672
 890:	04fc                	addi	a5,sp,588
 892:	0000                	unimp
 894:	000009fb          	lp.starti	x19,894 <_min_stack-0x176c>
 898:	0715                	addi	a4,a4,5
 89a:	0005                	c.addi	zero,1
 89c:	0f00                	addi	s0,sp,912
 89e:	000a                	0xa
 8a0:	3c00                	fld	fs0,56(s0)
 8a2:	0511                	addi	a0,a0,4
 8a4:	0000                	unimp
 8a6:	026a                	slli	tp,tp,0x1a
 8a8:	e000                	fsw	fs0,0(s0)
 8aa:	000a                	0xa
 8ac:	0000                	unimp
 8ae:	9801                	andi	s0,s0,-32
 8b0:	2115                	jal	cd4 <_min_stack-0x132c>
 8b2:	0005                	c.addi	zero,1
 8b4:	2400                	fld	fs0,8(s0)
 8b6:	000a                	0xa
 8b8:	1600                	addi	s0,sp,800
 8ba:	0274                	addi	a3,sp,268
 8bc:	e000                	fsw	fs0,0(s0)
 8be:	0582                	slli	a1,a1,0x0
 8c0:	0000                	unimp
 8c2:	025a0117          	auipc	sp,0x25a0
 8c6:	2d08                	fld	fa0,24(a0)
 8c8:	0000                	unimp
 8ca:	3f00                	fld	fs0,56(a4)
 8cc:	01bc                	addi	a5,sp,200
 8ce:	e000                	fsw	fs0,0(s0)
 8d0:	065a                	slli	a2,a2,0x16
 8d2:	0000                	unimp
 8d4:	08ed                	addi	a7,a7,27
 8d6:	0000                	unimp
 8d8:	025a0117          	auipc	sp,0x25a0
 8dc:	5091                	li	ra,-28
 8de:	035b0117          	auipc	sp,0x35b0
 8e2:	175d01f3          	0x175d01f3
 8e6:	5c01                	li	s8,-32
 8e8:	5e01f303          	0x5e01f303
 8ec:	1600                	addi	s0,sp,800
 8ee:	0280                	addi	s0,sp,320
 8f0:	e000                	fsw	fs0,0(s0)
 8f2:	065a                	slli	a2,a2,0x16
 8f4:	0000                	unimp
 8f6:	025a0117          	auipc	sp,0x25a0
 8fa:	0078                	addi	a4,sp,12
 8fc:	0000                	unimp
 8fe:	1140                	addi	s0,sp,164
 900:	0005                	c.addi	zero,1
 902:	a800                	fsd	fs0,16(s0)
 904:	0002                	0x2
 906:	18e0                	addi	s0,sp,124
 908:	0000                	unimp
 90a:	0100                	addi	s0,sp,128
 90c:	159c                	addi	a5,sp,736
 90e:	0521                	addi	a0,a0,8
 910:	0000                	unimp
 912:	0a39                	addi	s4,s4,14
 914:	0000                	unimp
 916:	b616                	fsd	ft5,296(sp)
 918:	0002                	0x2
 91a:	82e0                	0x82e0
 91c:	0005                	c.addi	zero,1
 91e:	1700                	addi	s0,sp,928
 920:	5a01                	li	s4,-32
 922:	7802                	flw	fa6,32(sp)
 924:	0000                	unimp
 926:	0000                	unimp
 928:	0176                	slli	sp,sp,0x1d
 92a:	0000                	unimp
 92c:	0004                	addi	s1,sp,0
 92e:	0378                	addi	a4,sp,396
 930:	0000                	unimp
 932:	0104                	addi	s1,sp,128
 934:	01a9                	addi	gp,gp,10
 936:	0000                	unimp
 938:	170c                	addi	a1,sp,928
 93a:	00000003          	lb	zero,0(zero) # 0 <_min_stack-0x2000>
 93e:	0000                	unimp
 940:	3800                	fld	fs0,48(s0)
 942:	0001                	nop
 944:	0000                	unimp
 946:	0000                	unimp
 948:	e600                	fsw	fs0,8(a2)
 94a:	0005                	c.addi	zero,1
 94c:	0200                	addi	s0,sp,256
 94e:	0601                	addi	a2,a2,0
 950:	0000018b          	p.lb	gp,0(zero!) # 0 <_min_stack-0x2000>
 954:	0202                	slli	tp,tp,0x0
 956:	6405                	lui	s0,0x1
 958:	0000                	unimp
 95a:	0200                	addi	s0,sp,256
 95c:	0504                	addi	s1,sp,640
 95e:	0112                	slli	sp,sp,0x4
 960:	0000                	unimp
 962:	0802                	slli	a6,a6,0x0
 964:	0d05                	addi	s10,s10,1
 966:	0001                	nop
 968:	0200                	addi	s0,sp,256
 96a:	0801                	addi	a6,a6,0
 96c:	0189                	addi	gp,gp,2
 96e:	0000                	unimp
 970:	0202                	slli	tp,tp,0x0
 972:	00024707          	0x24707
 976:	0300                	addi	s0,sp,384
 978:	0356                	slli	t1,t1,0x15
 97a:	0000                	unimp
 97c:	005f3403          	0x5f3403
 980:	0000                	unimp
 982:	4f04                	lw	s1,24(a4)
 984:	0000                	unimp
 986:	0200                	addi	s0,sp,256
 988:	0704                	addi	s1,sp,896
 98a:	021a                	slli	tp,tp,0x6
 98c:	0000                	unimp
 98e:	0802                	slli	a6,a6,0x0
 990:	00021507          	0x21507
 994:	0500                	addi	s0,sp,640
 996:	0504                	addi	s1,sp,640
 998:	6e69                	lui	t3,0x1a
 99a:	0074                	addi	a3,sp,12
 99c:	6d06                	flw	fs10,64(sp)
 99e:	0000                	unimp
 9a0:	0200                	addi	s0,sp,256
 9a2:	0704                	addi	s1,sp,896
 9a4:	021f 0000 e607      	0xe6070000021f
 9aa:	0002                	0x2
 9ac:	0200                	addi	s0,sp,256
 9ae:	5a06                	lw	s4,96(sp)
 9b0:	0000                	unimp
 9b2:	6200                	flw	fs0,0(a2)
 9b4:	0819                	addi	a6,a6,6
 9b6:	005a                	0x5a
 9b8:	0000                	unimp
 9ba:	009e                	slli	ra,ra,0x7
 9bc:	0000                	unimp
 9be:	7909                	lui	s2,0xfffe2
 9c0:	0000                	unimp
 9c2:	6100                	flw	fs0,0(a0)
 9c4:	0019                	c.addi	zero,6
 9c6:	8d04                	0x8d04
 9c8:	0000                	unimp
 9ca:	0a00                	addi	s0,sp,272
 9cc:	02f8                	addi	a4,sp,332
 9ce:	0000                	unimp
 9d0:	0702                	slli	a4,a4,0x0
 9d2:	009e                	slli	ra,ra,0x7
 9d4:	0000                	unimp
 9d6:	0305                	addi	t1,t1,1
 9d8:	058c                	addi	a1,sp,704
 9da:	e000                	fsw	fs0,0(s0)
 9dc:	1002                	0x1002
 9de:	7d04                	flw	fs1,56(a0)
 9e0:	0001                	nop
 9e2:	0b00                	addi	s0,sp,400
 9e4:	0312                	slli	t1,t1,0x4
 9e6:	0000                	unimp
 9e8:	1201                	addi	tp,tp,-32
 9ea:	006d                	c.addi	zero,27
 9ec:	0000                	unimp
 9ee:	053a                	slli	a0,a0,0xe
 9f0:	e000                	fsw	fs0,0(s0)
 9f2:	0052                	0x52
 9f4:	0000                	unimp
 9f6:	9c01                	0x9c01
 9f8:	0160                	addi	s0,sp,140
 9fa:	0000                	unimp
 9fc:	4c0c                	lw	a1,24(s0)
 9fe:	01000003          	lb	zero,16(zero) # 10 <_min_stack-0x1ff0>
 a02:	6d12                	flw	fs10,4(sp)
 a04:	0000                	unimp
 a06:	6200                	flw	fs0,0(a2)
 a08:	000a                	0xa
 a0a:	0c00                	addi	s0,sp,528
 a0c:	0351                	addi	t1,t1,20
 a0e:	0000                	unimp
 a10:	1201                	addi	tp,tp,-32
 a12:	0160                	addi	s0,sp,140
 a14:	0000                	unimp
 a16:	00000a83          	lb	s5,0(zero) # 0 <_min_stack-0x2000>
 a1a:	070d                	addi	a4,a4,3
 a1c:	01000003          	lb	zero,16(zero) # 10 <_min_stack-0x1ff0>
 a20:	7314                	flw	fa3,32(a4)
 a22:	0001                	nop
 a24:	9400                	0x9400
 a26:	8080                	0x8080
 a28:	0d78                	addi	a4,sp,668
 a2a:	032e                	slli	t1,t1,0xb
 a2c:	0000                	unimp
 a2e:	1501                	addi	a0,a0,-32
 a30:	00000173          	0x173
 a34:	8080                	0x8080
 a36:	7880                	flw	fs0,48(s1)
 a38:	380d                	jal	26a <_min_stack-0x1d96>
 a3a:	01000003          	lb	zero,16(zero) # 10 <_min_stack-0x1ff0>
 a3e:	7315                	lui	t1,0xfffe5
 a40:	0001                	nop
 a42:	8400                	0x8400
 a44:	8080                	0x8080
 a46:	0d78                	addi	a4,sp,668
 a48:	0342                	slli	t1,t1,0x10
 a4a:	0000                	unimp
 a4c:	1501                	addi	a0,a0,-32
 a4e:	00000173          	0x173
 a52:	8088                	0x8088
 a54:	7880                	flw	fs0,48(s1)
 a56:	260d                	jal	d78 <_min_stack-0x1288>
 a58:	01000003          	lb	zero,16(zero) # 10 <_min_stack-0x1ff0>
 a5c:	7315                	lui	t1,0xfffe5
 a5e:	0001                	nop
 a60:	8c00                	0x8c00
 a62:	8080                	0x8080
 a64:	0d78                	addi	a4,sp,668
 a66:	02f2                	slli	t0,t0,0x1c
 a68:	0000                	unimp
 a6a:	1501                	addi	a0,a0,-32
 a6c:	00000173          	0x173
 a70:	8090                	0x8090
 a72:	7880                	flw	fs0,48(s1)
 a74:	200e                	fld	ft0,192(sp)
 a76:	0001                	nop
 a78:	0f00                	addi	s0,sp,912
 a7a:	0069                	c.addi	zero,26
 a7c:	2001                	jal	a7c <_min_stack-0x1584>
 a7e:	006d                	c.addi	zero,27
 a80:	0000                	unimp
 a82:	0aa4                	addi	s1,sp,344
 a84:	0000                	unimp
 a86:	0000                	unimp
 a88:	0410                	addi	a2,sp,512
 a8a:	0166                	slli	sp,sp,0x19
 a8c:	0000                	unimp
 a8e:	0410                	addi	a2,sp,512
 a90:	016c                	addi	a1,sp,140
 a92:	0000                	unimp
 a94:	0102                	slli	sp,sp,0x0
 a96:	9208                	0x9208
 a98:	0001                	nop
 a9a:	1000                	addi	s0,sp,32
 a9c:	7404                	flw	fs1,40(s0)
 a9e:	0000                	unimp
 aa0:	0000                	unimp
 aa2:	00d9                	addi	ra,ra,22
 aa4:	0000                	unimp
 aa6:	0002                	0x2
 aa8:	0446                	slli	s0,s0,0x11
 aaa:	0000                	unimp
 aac:	0104                	addi	s1,sp,128
 aae:	0000072f          	0x72f
 ab2:	0148                	addi	a0,sp,132
 ab4:	0000                	unimp
 ab6:	7263732f          	0x7263732f
 aba:	7461                	lui	s0,0xffff8
 abc:	6d2f6863          	bltu	t5,s2,118c <_min_stack-0xe74>
 ac0:	6e616963          	bltu	sp,t1,11b2 <_min_stack-0xe4e>
 ac4:	2f69                	jal	125e <_min_stack-0xda2>
 ac6:	6568                	flw	fa0,76(a0)
 ac8:	732d                	lui	t1,0xfffeb
 aca:	682f636f          	jal	t1,f714c <tohost+0xd7144>
 ace:	7261                	lui	tp,0xffff8
 ad0:	7764                	flw	fs1,108(a4)
 ad2:	7261                	lui	tp,0xffff8
 ad4:	2f65                	jal	128c <_min_stack-0xd74>
 ad6:	6b726f77          	0x6b726f77
 ada:	6e69                	lui	t3,0x1a
 adc:	69645f67          	0x69645f67
 ae0:	2f72                	fld	ft10,280(sp)
 ae2:	6e65706f          	j	581c8 <tohost+0x381c0>
 ae6:	6974                	flw	fa3,84(a0)
 ae8:	6174                	flw	fa3,68(a0)
 aea:	2f6e                	fld	ft10,216(sp)
 aec:	7768                	flw	fa0,108(a4)
 aee:	706f742f          	0x706f742f
 af2:	655f 7261 676c      	0x676c7261655f
 af8:	6572                	flw	fa0,28(sp)
 afa:	2f79                	jal	1298 <_min_stack-0xd68>
 afc:	742f7773          	csrrci	a4,0x742,30
 b00:	7365                	lui	t1,0xffff9
 b02:	7374                	flw	fa3,100(a4)
 b04:	6d6f632f          	0x6d6f632f
 b08:	6f6d                	lui	t5,0x1b
 b0a:	2f6e                	fld	ft10,216(sp)
 b0c:	30747263          	bleu	t2,s0,e10 <_min_stack-0x11f0>
 b10:	532e                	lw	t1,232(sp)
 b12:	2f00                	fld	fs0,24(a4)
 b14:	61726373          	csrrsi	t1,0x617,4
 b18:	6374                	flw	fa3,68(a4)
 b1a:	2f68                	fld	fa0,216(a4)
 b1c:	636d                	lui	t1,0x1b
 b1e:	6169                	addi	sp,sp,208
 b20:	696e                	flw	fs2,216(sp)
 b22:	2d65682f          	0x2d65682f
 b26:	2f636f73          	csrrsi	t5,0x2f6,6
 b2a:	6168                	flw	fa0,68(a0)
 b2c:	6472                	flw	fs0,28(sp)
 b2e:	65726177          	0x65726177
 b32:	726f772f          	0x726f772f
 b36:	676e696b          	0x676e696b
 b3a:	645f 7269 6f2f      	0x6f2f7269645f
 b40:	6570                	flw	fa2,76(a0)
 b42:	746e                	flw	fs0,248(sp)
 b44:	7469                	lui	s0,0xffffa
 b46:	6e61                	lui	t3,0x18
 b48:	2f77682f          	0x2f77682f
 b4c:	6f74                	flw	fa3,92(a4)
 b4e:	5f70                	lw	a2,124(a4)
 b50:	6165                	addi	sp,sp,112
 b52:	6c72                	flw	fs8,28(sp)
 b54:	79657267          	0x79657267
 b58:	2f77732f          	0x2f77732f
 b5c:	6574                	flw	fa3,76(a0)
 b5e:	2f737473          	csrrci	s0,0x2f7,6
 b62:	7270                	flw	fa2,100(a2)
 b64:	6265                	lui	tp,0x19
 b66:	5f746f6f          	jal	t5,4795c <tohost+0x27954>
 b6a:	65646f63          	bltu	s0,s6,11c8 <_min_stack-0xe38>
 b6e:	4700                	lw	s0,8(a4)
 b70:	554e                	lw	a0,240(sp)
 b72:	4120                	lw	s0,64(a0)
 b74:	2e322053          	0x2e322053
 b78:	3832                	fld	fa6,296(sp)
 b7a:	302e                	fld	ft0,232(sp)
 b7c:	0100                	addi	s0,sp,128
 b7e:	80 00 00 00 00          	Address 0x0000000000000b7e is out of bounds.


Disassembly of section .debug_abbrev:

00000000 <.debug_abbrev>:
   0:	1101                	addi	sp,sp,-32
   2:	2501                	jal	602 <_min_stack-0x19fe>
   4:	130e                	slli	t1,t1,0x23
   6:	1b0e030b          	p.lb	t1,432(t3!) # 181b0 <_stack_len+0x101b0>
   a:	110e                	slli	sp,sp,0x23
   c:	1201                	addi	tp,tp,-32
   e:	1006                	0x1006
  10:	02000017          	auipc	zero,0x2000
  14:	0016                	0x16
  16:	0b3a0e03          	lb	t3,179(s4) # 90b3 <_stack_len+0x10b3>
  1a:	13490b3b          	0x13490b3b
  1e:	0000                	unimp
  20:	0b000f03          	lb	t5,176(zero) # b0 <_min_stack-0x1f50>
  24:	000e030b          	p.lb	t1,0(t3!)
  28:	0400                	addi	s0,sp,512
  2a:	0024                	addi	s1,sp,8
  2c:	0b3e0b0b          	p.lb	s6,179(t3!)
  30:	00000803          	lb	a6,0(zero) # 0 <_min_stack-0x2000>
  34:	3505                	jal	fffffe54 <pulp__FC+0xfffffe55>
  36:	4900                	lw	s0,16(a0)
  38:	06000013          	li	zero,96
  3c:	0024                	addi	s1,sp,8
  3e:	0b3e0b0b          	p.lb	s6,179(t3!)
  42:	00000e03          	lb	t3,0(zero) # 0 <_min_stack-0x2000>
  46:	49010107          	0x49010107
  4a:	00130113          	addi	sp,t1,1 # 1b001 <_stack_len+0x13001>
  4e:	0800                	addi	s0,sp,16
  50:	0021                	c.addi	zero,8
  52:	1349                	addi	t1,t1,-14
  54:	00000b2f          	0xb2f
  58:	2609                	jal	35a <_min_stack-0x1ca6>
  5a:	4900                	lw	s0,16(a0)
  5c:	0a000013          	li	zero,160
  60:	0034                	addi	a3,sp,8
  62:	0b3a0e03          	lb	t3,179(s4)
  66:	13490b3b          	0x13490b3b
  6a:	1802193f 2e0b0000 	0x2e0b00001802193f
  72:	3f01                	jal	ffffff82 <pulp__FC+0xffffff83>
  74:	0319                	addi	t1,t1,6
  76:	3a0e                	fld	fs4,224(sp)
  78:	27053b0b          	0x27053b0b
  7c:	1119                	addi	sp,sp,-26
  7e:	1201                	addi	tp,tp,-32
  80:	4006                	0x4006
  82:	9718                	0x9718
  84:	1942                	slli	s2,s2,0x30
  86:	1301                	addi	t1,t1,-32
  88:	0000                	unimp
  8a:	340c                	fld	fa1,40(s0)
  8c:	0300                	addi	s0,sp,384
  8e:	3a0e                	fld	fs4,224(sp)
  90:	49053b0b          	0x49053b0b
  94:	000b1c13          	slli	s8,s6,0x0
  98:	0d00                	addi	s0,sp,656
  9a:	0034                	addi	a3,sp,8
  9c:	0b3a0803          	lb	a6,179(s4)
  a0:	1349053b          	0x1349053b
  a4:	1702                	slli	a4,a4,0x20
  a6:	0000                	unimp
  a8:	340e                	fld	fs0,224(sp)
  aa:	0300                	addi	s0,sp,384
  ac:	3a0e                	fld	fs4,224(sp)
  ae:	49053b0b          	0x49053b0b
  b2:	00170213          	addi	tp,a4,1 # 8001 <_stack_len+0x1>
  b6:	0f00                	addi	s0,sp,912
  b8:	0034                	addi	a3,sp,8
  ba:	0b3a0e03          	lb	t3,179(s4)
  be:	1349053b          	0x1349053b
  c2:	061c                	addi	a5,sp,768
  c4:	0000                	unimp
  c6:	3410                	fld	fa2,40(s0)
  c8:	0300                	addi	s0,sp,384
  ca:	3a0e                	fld	fs4,224(sp)
  cc:	49053b0b          	0x49053b0b
  d0:	000d1c13          	slli	s8,s10,0x0
  d4:	1100                	addi	s0,sp,160
  d6:	0b0b000f          	0xb0b000f
  da:	1349                	addi	t1,t1,-14
  dc:	0000                	unimp
  de:	2e12                	fld	ft8,256(sp)
  e0:	3f01                	jal	fffffff0 <pulp__FC+0xfffffff1>
  e2:	0319                	addi	t1,t1,6
  e4:	3a0e                	fld	fs4,224(sp)
  e6:	27053b0b          	0x27053b0b
  ea:	4919                	li	s2,6
  ec:	12011113          	0x12011113
  f0:	4006                	0x4006
  f2:	9718                	0x9718
  f4:	1942                	slli	s2,s2,0x30
  f6:	1301                	addi	t1,t1,-32
  f8:	0000                	unimp
  fa:	03000513          	li	a0,48
  fe:	3a08                	fld	fa0,48(a2)
 100:	49053b0b          	0x49053b0b
 104:	00170213          	addi	tp,a4,1
 108:	1400                	addi	s0,sp,544
 10a:	011d                	addi	sp,sp,7
 10c:	1331                	addi	t1,t1,-20
 10e:	0111                	addi	sp,sp,4
 110:	0612                	slli	a2,a2,0x4
 112:	0b58                	addi	a4,sp,404
 114:	0559                	addi	a0,a0,22
 116:	1301                	addi	t1,t1,-32
 118:	0000                	unimp
 11a:	0515                	addi	a0,a0,5
 11c:	3100                	fld	fs0,32(a0)
 11e:	00170213          	addi	tp,a4,1
 122:	1600                	addi	s0,sp,800
 124:	8289                	srli	a3,a3,0x2
 126:	0101                	addi	sp,sp,0
 128:	0111                	addi	sp,sp,4
 12a:	1331                	addi	t1,t1,-20
 12c:	0000                	unimp
 12e:	01828a17          	auipc	s4,0x1828
 132:	0200                	addi	s0,sp,256
 134:	9118                	0x9118
 136:	1842                	slli	a6,a6,0x30
 138:	0000                	unimp
 13a:	1d18                	addi	a4,sp,688
 13c:	3101                	jal	fffffd3c <pulp__FC+0xfffffd3d>
 13e:	12011113          	0x12011113
 142:	5806                	lw	a6,96(sp)
 144:	0005590b          	p.lhu	s2,0(a0!) # 3000 <_min_stack+0x1000>
 148:	1900                	addi	s0,sp,176
 14a:	8289                	srli	a3,a3,0x2
 14c:	0001                	nop
 14e:	0111                	addi	sp,sp,4
 150:	1331                	addi	t1,t1,-20
 152:	0000                	unimp
 154:	051a                	slli	a0,a0,0x6
 156:	0300                	addi	s0,sp,384
 158:	3a0e                	fld	fs4,224(sp)
 15a:	49053b0b          	0x49053b0b
 15e:	00170213          	addi	tp,a4,1
 162:	1b00                	addi	s0,sp,432
 164:	0018                	addi	a4,sp,0
 166:	0000                	unimp
 168:	341c                	fld	fa5,40(s0)
 16a:	0300                	addi	s0,sp,384
 16c:	3a08                	fld	fa0,48(a2)
 16e:	49053b0b          	0x49053b0b
 172:	1d000013          	li	zero,464
 176:	0034                	addi	a3,sp,8
 178:	0b3a0803          	lb	a6,179(s4) # 18281e1 <tohost+0x18081d9>
 17c:	1349053b          	0x1349053b
 180:	1802                	slli	a6,a6,0x20
 182:	0000                	unimp
 184:	1d1e                	slli	s10,s10,0x27
 186:	3101                	jal	fffffd86 <pulp__FC+0xfffffd87>
 188:	55015213          	0x55015213
 18c:	590b5817          	auipc	a6,0x590b5
 190:	0005                	c.addi	zero,1
 192:	1f00                	addi	s0,sp,944
 194:	0005                	c.addi	zero,1
 196:	1331                	addi	t1,t1,-20
 198:	0b1c                	addi	a5,sp,400
 19a:	0000                	unimp
 19c:	0b20                	addi	s0,sp,408
 19e:	5501                	li	a0,-32
 1a0:	21000017          	auipc	zero,0x21000
 1a4:	0034                	addi	a3,sp,8
 1a6:	1331                	addi	t1,t1,-20
 1a8:	1702                	slli	a4,a4,0x20
 1aa:	0000                	unimp
 1ac:	3422                	fld	fs0,40(sp)
 1ae:	3100                	fld	fs0,32(a0)
 1b0:	00180213          	addi	tp,a6,1 # 590b518d <tohost+0x59095185>
 1b4:	2300                	fld	fs0,0(a4)
 1b6:	000a                	0xa
 1b8:	1331                	addi	t1,t1,-20
 1ba:	0111                	addi	sp,sp,4
 1bc:	0000                	unimp
 1be:	0b24                	addi	s1,sp,408
 1c0:	3101                	jal	fffffdc0 <pulp__FC+0xfffffdc1>
 1c2:	01175513          	srli	a0,a4,0x11
 1c6:	25000013          	li	zero,592
 1ca:	011d                	addi	sp,sp,7
 1cc:	1331                	addi	t1,t1,-20
 1ce:	0152                	slli	sp,sp,0x14
 1d0:	1755                	addi	a4,a4,-11
 1d2:	0b58                	addi	a4,sp,404
 1d4:	0559                	addi	a0,a0,22
 1d6:	1301                	addi	t1,t1,-32
 1d8:	0000                	unimp
 1da:	1d26                	slli	s10,s10,0x29
 1dc:	3101                	jal	fffffddc <pulp__FC+0xfffffddd>
 1de:	55015213          	0x55015213
 1e2:	590b5817          	auipc	a6,0x590b5
 1e6:	2700000b          	p.lb	zero,624(zero!) # 270 <_min_stack-0x1d90>
 1ea:	012e                	slli	sp,sp,0xb
 1ec:	0b3a0e03          	lb	t3,179(s4)
 1f0:	19270b3b          	0x19270b3b
 1f4:	1349                	addi	t1,t1,-14
 1f6:	0b20                	addi	s0,sp,408
 1f8:	1301                	addi	t1,t1,-32
 1fa:	0000                	unimp
 1fc:	0528                	addi	a0,sp,648
 1fe:	0300                	addi	s0,sp,384
 200:	3a08                	fld	fa0,48(a2)
 202:	490b3b0b          	0x490b3b0b
 206:	29000013          	li	zero,656
 20a:	0005                	c.addi	zero,1
 20c:	0b3a0e03          	lb	t3,179(s4)
 210:	13490b3b          	0x13490b3b
 214:	0000                	unimp
 216:	342a                	fld	fs0,168(sp)
 218:	0300                	addi	s0,sp,384
 21a:	3a0e                	fld	fs4,224(sp)
 21c:	490b3b0b          	0x490b3b0b
 220:	2b000013          	li	zero,688
 224:	0034                	addi	a3,sp,8
 226:	0b3a0803          	lb	a6,179(s4)
 22a:	13490b3b          	0x13490b3b
 22e:	0000                	unimp
 230:	0a2c                	addi	a1,sp,280
 232:	0300                	addi	s0,sp,384
 234:	3a08                	fld	fa0,48(a2)
 236:	00053b0b          	0x53b0b
 23a:	2d00                	fld	fs0,24(a0)
 23c:	0000010b          	p.lb	sp,0(zero!) # 0 <_min_stack-0x2000>
 240:	2e2e                	fld	ft8,200(sp)
 242:	0301                	addi	t1,t1,0
 244:	3a0e                	fld	fs4,224(sp)
 246:	270b3b0b          	0x270b3b0b
 24a:	2019                	jal	250 <_min_stack-0x1db0>
 24c:	0013010b          	p.lb	sp,1(t1!)
 250:	2f00                	fld	fs0,24(a4)
 252:	012e                	slli	sp,sp,0xb
 254:	0e03193f 0b3b0b3a 	0xb3b0b3a0e03193f
 25c:	13491927          	0x13491927
 260:	0b20                	addi	s0,sp,408
 262:	1301                	addi	t1,t1,-32
 264:	0000                	unimp
 266:	2e30                	fld	fa2,88(a2)
 268:	3f00                	fld	fs0,56(a4)
 26a:	0319                	addi	t1,t1,6
 26c:	3a0e                	fld	fs4,224(sp)
 26e:	270b3b0b          	0x270b3b0b
 272:	1119                	addi	sp,sp,-26
 274:	1201                	addi	tp,tp,-32
 276:	4006                	0x4006
 278:	9718                	0x9718
 27a:	1942                	slli	s2,s2,0x30
 27c:	0000                	unimp
 27e:	2e31                	jal	59a <_min_stack-0x1a66>
 280:	3f01                	jal	190 <_min_stack-0x1e70>
 282:	0319                	addi	t1,t1,6
 284:	3a0e                	fld	fs4,224(sp)
 286:	270b3b0b          	0x270b3b0b
 28a:	1119                	addi	sp,sp,-26
 28c:	1201                	addi	tp,tp,-32
 28e:	4006                	0x4006
 290:	9718                	0x9718
 292:	1942                	slli	s2,s2,0x30
 294:	1301                	addi	t1,t1,-32
 296:	0000                	unimp
 298:	0532                	slli	a0,a0,0xc
 29a:	0300                	addi	s0,sp,384
 29c:	3a08                	fld	fa0,48(a2)
 29e:	490b3b0b          	0x490b3b0b
 2a2:	00180213          	addi	tp,a6,1 # 590b51e3 <tohost+0x590951db>
 2a6:	3300                	fld	fs0,32(a4)
 2a8:	002e                	0x2e
 2aa:	0e03193f 0b3b0b3a 	0xb3b0b3a0e03193f
 2b2:	1349                	addi	t1,t1,-14
 2b4:	0111                	addi	sp,sp,4
 2b6:	0612                	slli	a2,a2,0x4
 2b8:	1840                	addi	s0,sp,52
 2ba:	00194297          	auipc	t0,0x194
 2be:	3400                	fld	fs0,40(s0)
 2c0:	0005                	c.addi	zero,1
 2c2:	0b3a0803          	lb	a6,179(s4)
 2c6:	13490b3b          	0x13490b3b
 2ca:	1702                	slli	a4,a4,0x20
 2cc:	0000                	unimp
 2ce:	3435                	jal	fffffcfa <pulp__FC+0xfffffcfb>
 2d0:	0300                	addi	s0,sp,384
 2d2:	3a08                	fld	fa0,48(a2)
 2d4:	490b3b0b          	0x490b3b0b
 2d8:	000b1c13          	slli	s8,s6,0x0
 2dc:	3600                	fld	fs0,40(a2)
 2de:	0005                	c.addi	zero,1
 2e0:	0b3a0e03          	lb	t3,179(s4)
 2e4:	13490b3b          	0x13490b3b
 2e8:	1802                	slli	a6,a6,0x20
 2ea:	0000                	unimp
 2ec:	03000537          	lui	a0,0x3000
 2f0:	3a0e                	fld	fs4,224(sp)
 2f2:	490b3b0b          	0x490b3b0b
 2f6:	00170213          	addi	tp,a4,1
 2fa:	3800                	fld	fs0,48(s0)
 2fc:	8289                	srli	a3,a3,0x2
 2fe:	0101                	addi	sp,sp,0
 300:	0111                	addi	sp,sp,4
 302:	4295                	li	t0,5
 304:	3119                	jal	ffffff0a <pulp__FC+0xffffff0b>
 306:	39000013          	li	zero,912
 30a:	012e                	slli	sp,sp,0xb
 30c:	1331                	addi	t1,t1,-20
 30e:	0111                	addi	sp,sp,4
 310:	0612                	slli	a2,a2,0x4
 312:	1840                	addi	s0,sp,52
 314:	01194297          	auipc	t0,0x1194
 318:	3a000013          	li	zero,928
 31c:	011d                	addi	sp,sp,7
 31e:	1331                	addi	t1,t1,-20
 320:	0152                	slli	sp,sp,0x14
 322:	1755                	addi	a4,a4,-11
 324:	0b58                	addi	a4,sp,404
 326:	0b59                	addi	s6,s6,22
 328:	1301                	addi	t1,t1,-32
 32a:	0000                	unimp
 32c:	3100053b          	0x3100053b
 330:	3c000013          	li	zero,960
 334:	011d                	addi	sp,sp,7
 336:	1331                	addi	t1,t1,-20
 338:	0111                	addi	sp,sp,4
 33a:	0612                	slli	a2,a2,0x4
 33c:	0b58                	addi	a4,sp,404
 33e:	0b59                	addi	s6,s6,22
 340:	0000                	unimp
 342:	343d                	jal	fffffd70 <pulp__FC+0xfffffd71>
 344:	3100                	fld	fs0,32(a0)
 346:	3e000013          	li	zero,992
 34a:	011d                	addi	sp,sp,7
 34c:	1331                	addi	t1,t1,-20
 34e:	0111                	addi	sp,sp,4
 350:	0612                	slli	a2,a2,0x4
 352:	0b58                	addi	a4,sp,404
 354:	0b59                	addi	s6,s6,22
 356:	1301                	addi	t1,t1,-32
 358:	0000                	unimp
 35a:	0182893f 31011101 	0x310111010182893f
 362:	00130113          	addi	sp,t1,1
 366:	4000                	lw	s0,0(s0)
 368:	012e                	slli	sp,sp,0xb
 36a:	1331                	addi	t1,t1,-20
 36c:	0111                	addi	sp,sp,4
 36e:	0612                	slli	a2,a2,0x4
 370:	1840                	addi	s0,sp,52
 372:	00194297          	auipc	t0,0x194
 376:	0000                	unimp
 378:	1101                	addi	sp,sp,-32
 37a:	2501                	jal	97a <_min_stack-0x1686>
 37c:	130e                	slli	t1,t1,0x23
 37e:	1b0e030b          	p.lb	t1,432(t3!)
 382:	550e                	lw	a0,224(sp)
 384:	10011117          	auipc	sp,0x10011
 388:	02000017          	auipc	zero,0x2000
 38c:	0024                	addi	s1,sp,8
 38e:	0b3e0b0b          	p.lb	s6,179(t3!)
 392:	00000e03          	lb	t3,0(zero) # 0 <_min_stack-0x2000>
 396:	03001603          	lh	a2,48(zero) # 30 <_min_stack-0x1fd0>
 39a:	3a0e                	fld	fs4,224(sp)
 39c:	490b3b0b          	0x490b3b0b
 3a0:	04000013          	li	zero,64
 3a4:	0026                	0x26
 3a6:	1349                	addi	t1,t1,-14
 3a8:	0000                	unimp
 3aa:	2405                	jal	5ca <_min_stack-0x1a36>
 3ac:	0b00                	addi	s0,sp,400
 3ae:	030b3e0b          	0x30b3e0b
 3b2:	0008                	addi	a0,sp,0
 3b4:	0600                	addi	s0,sp,768
 3b6:	0035                	c.addi	zero,13
 3b8:	1349                	addi	t1,t1,-14
 3ba:	0000                	unimp
 3bc:	03003407          	fld	fs0,48(zero) # 30 <_min_stack-0x1fd0>
 3c0:	3a0e                	fld	fs4,224(sp)
 3c2:	490b3b0b          	0x490b3b0b
 3c6:	00051c13          	slli	s8,a0,0x0
 3ca:	0800                	addi	s0,sp,16
 3cc:	0101                	addi	sp,sp,0
 3ce:	1349                	addi	t1,t1,-14
 3d0:	1301                	addi	t1,t1,-32
 3d2:	0000                	unimp
 3d4:	2109                	jal	7d6 <_min_stack-0x182a>
 3d6:	4900                	lw	s0,16(a0)
 3d8:	00052f13          	slti	t5,a0,0
 3dc:	0a00                	addi	s0,sp,272
 3de:	0034                	addi	a3,sp,8
 3e0:	0b3a0e03          	lb	t3,179(s4)
 3e4:	13490b3b          	0x13490b3b
 3e8:	1802                	slli	a6,a6,0x20
 3ea:	0000                	unimp
 3ec:	3f012e0b          	p.lw	t3,1008(sp!) # 10011774 <tohost+0xfff176c>
 3f0:	0319                	addi	t1,t1,6
 3f2:	3a0e                	fld	fs4,224(sp)
 3f4:	270b3b0b          	0x270b3b0b
 3f8:	4919                	li	s2,6
 3fa:	12011113          	0x12011113
 3fe:	4006                	0x4006
 400:	9718                	0x9718
 402:	1942                	slli	s2,s2,0x30
 404:	1301                	addi	t1,t1,-32
 406:	0000                	unimp
 408:	050c                	addi	a1,sp,640
 40a:	0300                	addi	s0,sp,384
 40c:	3a0e                	fld	fs4,224(sp)
 40e:	490b3b0b          	0x490b3b0b
 412:	00170213          	addi	tp,a4,1
 416:	0d00                	addi	s0,sp,656
 418:	0034                	addi	a3,sp,8
 41a:	0b3a0e03          	lb	t3,179(s4)
 41e:	13490b3b          	0x13490b3b
 422:	0d1c                	addi	a5,sp,656
 424:	0000                	unimp
 426:	0b0e                	slli	s6,s6,0x3
 428:	5501                	li	a0,-32
 42a:	0f000017          	auipc	zero,0xf000
 42e:	0034                	addi	a3,sp,8
 430:	0b3a0803          	lb	a6,179(s4)
 434:	13490b3b          	0x13490b3b
 438:	1702                	slli	a4,a4,0x20
 43a:	0000                	unimp
 43c:	0f10                	addi	a2,sp,912
 43e:	0b00                	addi	s0,sp,400
 440:	0013490b          	p.lbu	s2,1(t1!)
 444:	0000                	unimp
 446:	1101                	addi	sp,sp,-32
 448:	1000                	addi	s0,sp,32
 44a:	5506                	lw	a0,96(sp)
 44c:	0306                	slli	t1,t1,0x1
 44e:	1b08                	addi	a0,sp,432
 450:	2508                	fld	fa0,8(a0)
 452:	1308                	addi	a0,sp,416
 454:	0005                	c.addi	zero,1
	...

Disassembly of section .debug_loc:

00000000 <.debug_loc>:
   0:	03fc                	addi	a5,sp,460
   2:	0000                	unimp
   4:	0428                	addi	a0,sp,520
   6:	0000                	unimp
   8:	0001                	nop
   a:	005a                	0x5a
   c:	0000                	unimp
   e:	0000                	unimp
  10:	0000                	unimp
  12:	0200                	addi	s0,sp,256
  14:	0004                	addi	s1,sp,0
  16:	2a00                	fld	fs0,16(a2)
  18:	0004                	addi	s1,sp,0
  1a:	0100                	addi	s0,sp,128
  1c:	5b00                	lw	s0,48(a4)
	...
  26:	0404                	addi	s1,sp,512
  28:	0000                	unimp
  2a:	042c                	addi	a1,sp,520
  2c:	0000                	unimp
  2e:	0001                	nop
  30:	005c                	addi	a5,sp,4
  32:	0000                	unimp
  34:	0000                	unimp
  36:	0000                	unimp
  38:	0a00                	addi	s0,sp,272
  3a:	0004                	addi	s1,sp,0
  3c:	3400                	fld	fs0,40(s0)
  3e:	0004                	addi	s1,sp,0
  40:	0100                	addi	s0,sp,128
  42:	6000                	flw	fs0,0(s0)
	...
  4c:	0406                	slli	s0,s0,0x1
  4e:	0000                	unimp
  50:	042e                	slli	s0,s0,0xb
  52:	0000                	unimp
  54:	0001                	nop
  56:	005d                	c.addi	zero,23
  58:	0000                	unimp
  5a:	0000                	unimp
  5c:	0000                	unimp
  5e:	f000                	fsw	fs0,32(s0)
  60:	22000003          	lb	zero,544(zero) # 220 <_min_stack-0x1de0>
  64:	0004                	addi	s1,sp,0
  66:	0600                	addi	s0,sp,768
  68:	0c00                	addi	s0,sp,528
  6a:	4020                	lw	s0,64(s0)
  6c:	1040                	addi	s0,sp,36
  6e:	229f 0004 2600      	0x26000004229f
  74:	0004                	addi	s1,sp,0
  76:	0600                	addi	s0,sp,768
  78:	0c00                	addi	s0,sp,528
  7a:	4024                	lw	s1,64(s0)
  7c:	1040                	addi	s0,sp,36
  7e:	009f 0000 0000      	0x9f
  84:	0000                	unimp
  86:	9e00                	0x9e00
  88:	ac000003          	lb	zero,-1344(zero) # fffffac0 <pulp__FC+0xfffffac1>
  8c:	01000003          	lb	zero,16(zero) # 10 <_min_stack-0x1ff0>
  90:	5a00                	lw	s0,48(a2)
  92:	03ac                	addi	a1,sp,456
  94:	0000                	unimp
  96:	03c4                	addi	s1,sp,452
  98:	0000                	unimp
  9a:	0001                	nop
  9c:	c459                	beqz	s0,12a <_min_stack-0x1ed6>
  9e:	ca000003          	lb	zero,-864(zero) # fffffca0 <pulp__FC+0xfffffca1>
  a2:	04000003          	lb	zero,64(zero) # 40 <_min_stack-0x1fc0>
  a6:	f300                	fsw	fs0,32(a4)
  a8:	5a01                	li	s4,-32
  aa:	ca9f 0003 ce00      	0xce000003ca9f
  b0:	01000003          	lb	zero,16(zero) # 10 <_min_stack-0x1ff0>
  b4:	5900                	lw	s0,48(a0)
	...
  be:	039e                	slli	t2,t2,0x7
  c0:	0000                	unimp
  c2:	03ac                	addi	a1,sp,456
  c4:	0000                	unimp
  c6:	0002                	0x2
  c8:	9f30                	0x9f30
  ca:	03b0                	addi	a2,sp,456
  cc:	0000                	unimp
  ce:	03c6                	slli	t2,t2,0x11
  d0:	0000                	unimp
  d2:	0001                	nop
  d4:	c662                	sw	s8,12(sp)
  d6:	ca000003          	lb	zero,-864(zero) # fffffca0 <pulp__FC+0xfffffca1>
  da:	01000003          	lb	zero,16(zero) # 10 <_min_stack-0x1ff0>
  de:	5a00                	lw	s0,48(a2)
  e0:	03ca                	slli	t2,t2,0x12
  e2:	0000                	unimp
  e4:	03ce                	slli	t2,t2,0x13
  e6:	0000                	unimp
  e8:	0006                	0x6
  ea:	0078                	addi	a4,sp,12
  ec:	0079                	c.addi	zero,30
  ee:	9f1c                	0x9f1c
	...
  f8:	03b8                	addi	a4,sp,456
  fa:	0000                	unimp
  fc:	03bc                	addi	a5,sp,456
  fe:	0000                	unimp
 100:	0002                	0x2
 102:	9f3a                	add	t5,t5,a4
	...
 10c:	03ca                	slli	t2,t2,0x12
 10e:	0000                	unimp
 110:	000003cb          	fnmsub.s	ft7,ft0,ft0,ft0,rne
 114:	0006                	0x6
 116:	007a                	0x7a
 118:	ff08                	fsw	fa0,56(a4)
 11a:	9f1a                	add	t5,t5,t1
	...
 124:	023c                	addi	a5,sp,264
 126:	0000                	unimp
 128:	027e                	slli	tp,tp,0x1f
 12a:	0000                	unimp
 12c:	0001                	nop
 12e:	7e5a                	flw	ft8,180(sp)
 130:	0002                	0x2
 132:	9400                	0x9400
 134:	04000003          	lb	zero,64(zero) # 40 <_min_stack-0x1fc0>
 138:	f300                	fsw	fs0,32(a4)
 13a:	5a01                	li	s4,-32
 13c:	009f 0000 0000      	0x9f
 142:	0000                	unimp
 144:	6600                	flw	fs0,8(a2)
 146:	0002                	0x2
 148:	8800                	0x8800
 14a:	0002                	0x2
 14c:	0100                	addi	s0,sp,128
 14e:	5800                	lw	s0,48(s0)
 150:	029e                	slli	t0,t0,0x7
 152:	0000                	unimp
 154:	02f0                	addi	a2,sp,332
 156:	0000                	unimp
 158:	0001                	nop
 15a:	f058                	fsw	fa4,36(s0)
 15c:	0002                	0x2
 15e:	fc00                	fsw	fs0,56(s0)
 160:	0002                	0x2
 162:	0100                	addi	s0,sp,128
 164:	6800                	flw	fs0,16(s0)
 166:	02fc                	addi	a5,sp,332
 168:	0000                	unimp
 16a:	031a                	slli	t1,t1,0x6
 16c:	0000                	unimp
 16e:	0001                	nop
 170:	1a58                	addi	a4,sp,308
 172:	2a000003          	lb	zero,672(zero) # 2a0 <_min_stack-0x1d60>
 176:	01000003          	lb	zero,16(zero) # 10 <_min_stack-0x1ff0>
 17a:	6800                	flw	fs0,16(s0)
 17c:	032a                	slli	t1,t1,0xa
 17e:	0000                	unimp
 180:	033a                	slli	t1,t1,0xe
 182:	0000                	unimp
 184:	0001                	nop
 186:	3a58                	fld	fa4,176(a2)
 188:	42000003          	lb	zero,1056(zero) # 420 <_min_stack-0x1be0>
 18c:	01000003          	lb	zero,16(zero) # 10 <_min_stack-0x1ff0>
 190:	6800                	flw	fs0,16(s0)
 192:	0342                	slli	t1,t1,0x10
 194:	0000                	unimp
 196:	034e                	slli	t1,t1,0x13
 198:	0000                	unimp
 19a:	0001                	nop
 19c:	4e58                	lw	a4,28(a2)
 19e:	58000003          	lb	zero,1408(zero) # 580 <_min_stack-0x1a80>
 1a2:	01000003          	lb	zero,16(zero) # 10 <_min_stack-0x1ff0>
 1a6:	6800                	flw	fs0,16(s0)
 1a8:	0358                	addi	a4,sp,388
 1aa:	0000                	unimp
 1ac:	0364                	addi	s1,sp,396
 1ae:	0000                	unimp
 1b0:	0001                	nop
 1b2:	6458                	flw	fa4,12(s0)
 1b4:	6a000003          	lb	zero,1696(zero) # 6a0 <_min_stack-0x1960>
 1b8:	01000003          	lb	zero,16(zero) # 10 <_min_stack-0x1ff0>
 1bc:	6800                	flw	fs0,16(s0)
 1be:	036a                	slli	t1,t1,0x1a
 1c0:	0000                	unimp
 1c2:	0378                	addi	a4,sp,396
 1c4:	0000                	unimp
 1c6:	0001                	nop
 1c8:	7858                	flw	fa4,52(s0)
 1ca:	88000003          	lb	zero,-1920(zero) # fffff880 <pulp__FC+0xfffff881>
 1ce:	01000003          	lb	zero,16(zero) # 10 <_min_stack-0x1ff0>
 1d2:	6800                	flw	fs0,16(s0)
 1d4:	0388                	addi	a0,sp,448
 1d6:	0000                	unimp
 1d8:	0394                	addi	a3,sp,448
 1da:	0000                	unimp
 1dc:	0001                	nop
 1de:	0058                	addi	a4,sp,4
 1e0:	0000                	unimp
 1e2:	0000                	unimp
 1e4:	0000                	unimp
 1e6:	6600                	flw	fs0,8(a2)
 1e8:	0002                	0x2
 1ea:	7e00                	flw	fs0,56(a2)
 1ec:	0002                	0x2
 1ee:	0100                	addi	s0,sp,128
 1f0:	5a00                	lw	s0,48(a2)
 1f2:	027e                	slli	tp,tp,0x1f
 1f4:	0000                	unimp
 1f6:	0284                	addi	s1,sp,320
 1f8:	0000                	unimp
 1fa:	0001                	nop
 1fc:	00029e67          	0x29e67
 200:	a200                	fsd	fs0,0(a2)
 202:	0002                	0x2
 204:	0100                	addi	s0,sp,128
 206:	6700                	flw	fs0,8(a4)
 208:	02a2                	slli	t0,t0,0x8
 20a:	0000                	unimp
 20c:	02ba                	slli	t0,t0,0xe
 20e:	0000                	unimp
 210:	01870003          	lb	zero,24(a4)
 214:	ba9f 0002 bc00      	0xbc000002ba9f
 21a:	0002                	0x2
 21c:	0100                	addi	s0,sp,128
 21e:	5f00                	lw	s0,56(a4)
 220:	02be                	slli	t0,t0,0xf
 222:	0000                	unimp
 224:	02fc                	addi	a5,sp,332
 226:	0000                	unimp
 228:	0001                	nop
 22a:	0002fc67          	0x2fc67
 22e:	0000                	unimp
 230:	03000003          	lb	zero,48(zero) # 30 <_min_stack-0x1fd0>
 234:	8700                	0x8700
 236:	9f01                	0x9f01
 238:	0300                	addi	s0,sp,384
 23a:	0000                	unimp
 23c:	0304                	addi	s1,sp,384
 23e:	0000                	unimp
 240:	017d0003          	lb	zero,23(s10) # 4017 <_min_stack+0x2017>
 244:	049f 0003 0a00      	0xa000003049f
 24a:	01000003          	lb	zero,16(zero) # 10 <_min_stack-0x1ff0>
 24e:	6700                	flw	fs0,8(a4)
 250:	030a                	slli	t1,t1,0x2
 252:	0000                	unimp
 254:	030c                	addi	a1,sp,384
 256:	0000                	unimp
 258:	7f800003          	lb	zero,2040(zero) # 7f8 <_min_stack-0x1808>
 25c:	0c9f 0003 0e00      	0xe0000030c9f
 262:	03000003          	lb	zero,48(zero) # 30 <_min_stack-0x1fd0>
 266:	8700                	0x8700
 268:	9f01                	0x9f01
 26a:	030e                	slli	t1,t1,0x3
 26c:	0000                	unimp
 26e:	032a                	slli	t1,t1,0xa
 270:	0000                	unimp
 272:	0001                	nop
 274:	00032a67          	0x32a67
 278:	2c00                	fld	fs0,24(s0)
 27a:	03000003          	lb	zero,48(zero) # 30 <_min_stack-0x1fd0>
 27e:	8700                	0x8700
 280:	9f01                	0x9f01
 282:	032c                	addi	a1,sp,392
 284:	0000                	unimp
 286:	0388                	addi	a0,sp,448
 288:	0000                	unimp
 28a:	0001                	nop
 28c:	00038867          	jalr	a6,t2
 290:	8a00                	0x8a00
 292:	03000003          	lb	zero,48(zero) # 30 <_min_stack-0x1fd0>
 296:	7f00                	flw	fs0,56(a4)
 298:	9f01                	0x9f01
 29a:	038a                	slli	t2,t2,0x2
 29c:	0000                	unimp
 29e:	0394                	addi	a3,sp,448
 2a0:	0000                	unimp
 2a2:	0001                	nop
 2a4:	00000067          	jr	zero
 2a8:	0000                	unimp
 2aa:	0000                	unimp
 2ac:	a200                	fsd	fs0,0(a2)
 2ae:	0002                	0x2
 2b0:	ce00                	sw	s0,24(a2)
 2b2:	0002                	0x2
 2b4:	0200                	addi	s0,sp,256
 2b6:	3000                	fld	fs0,32(s0)
 2b8:	ce9f 0002 f800      	0xf8000002ce9f
 2be:	0002                	0x2
 2c0:	0100                	addi	s0,sp,128
 2c2:	5d00                	lw	s0,56(a0)
 2c4:	02f8                	addi	a4,sp,332
 2c6:	0000                	unimp
 2c8:	02f9                	addi	t0,t0,30
 2ca:	0000                	unimp
 2cc:	0001                	nop
 2ce:	0002fc5b          	p.mac.zh.zh	s8,t0,zero,zero
 2d2:	0400                	addi	s0,sp,512
 2d4:	02000003          	lb	zero,32(zero) # 20 <_min_stack-0x1fe0>
 2d8:	3000                	fld	fs0,32(s0)
 2da:	049f 0003 2500      	0x25000003049f
 2e0:	01000003          	lb	zero,16(zero) # 10 <_min_stack-0x1ff0>
 2e4:	5d00                	lw	s0,56(a0)
 2e6:	032e                	slli	t1,t1,0xb
 2e8:	0000                	unimp
 2ea:	0388                	addi	a0,sp,448
 2ec:	0000                	unimp
 2ee:	0001                	nop
 2f0:	885d                	andi	s0,s0,23
 2f2:	8a000003          	lb	zero,-1888(zero) # fffff8a0 <pulp__FC+0xfffff8a1>
 2f6:	02000003          	lb	zero,32(zero) # 20 <_min_stack-0x1fe0>
 2fa:	3000                	fld	fs0,32(s0)
 2fc:	009f 0000 0000      	0x9f
 302:	0000                	unimp
 304:	a200                	fsd	fs0,0(a2)
 306:	0002                	0x2
 308:	ba00                	fsd	fs0,48(a2)
 30a:	0002                	0x2
 30c:	0200                	addi	s0,sp,256
 30e:	3000                	fld	fs0,32(s0)
 310:	ba9f 0002 bc00      	0xbc000002ba9f
 316:	0002                	0x2
 318:	0200                	addi	s0,sp,256
 31a:	3100                	fld	fs0,32(a0)
 31c:	be9f 0002 f800      	0xf8000002be9f
 322:	0002                	0x2
 324:	0100                	addi	s0,sp,128
 326:	5e00                	lw	s0,56(a2)
 328:	02f8                	addi	a4,sp,332
 32a:	0000                	unimp
 32c:	02f9                	addi	t0,t0,30
 32e:	0000                	unimp
 330:	0001                	nop
 332:	fc5c                	fsw	fa5,60(s0)
 334:	0002                	0x2
 336:	2500                	fld	fs0,8(a0)
 338:	01000003          	lb	zero,16(zero) # 10 <_min_stack-0x1ff0>
 33c:	5e00                	lw	s0,56(a2)
 33e:	032e                	slli	t1,t1,0xb
 340:	0000                	unimp
 342:	0388                	addi	a0,sp,448
 344:	0000                	unimp
 346:	0001                	nop
 348:	885e                	mv	a6,s7
 34a:	8a000003          	lb	zero,-1888(zero) # fffff8a0 <pulp__FC+0xfffff8a1>
 34e:	02000003          	lb	zero,32(zero) # 20 <_min_stack-0x1fe0>
 352:	3000                	fld	fs0,32(s0)
 354:	009f 0000 0000      	0x9f
 35a:	0000                	unimp
 35c:	7e00                	flw	fs0,56(a2)
 35e:	0002                	0x2
 360:	9600                	0x9600
 362:	0002                	0x2
 364:	0100                	addi	s0,sp,128
 366:	6600                	flw	fs0,8(a2)
 368:	0296                	slli	t0,t0,0x5
 36a:	0000                	unimp
 36c:	029e                	slli	t0,t0,0x7
 36e:	0000                	unimp
 370:	0001                	nop
 372:	9e5a                	add	t3,t3,s6
 374:	0002                	0x2
 376:	9000                	0x9000
 378:	01000003          	lb	zero,16(zero) # 10 <_min_stack-0x1ff0>
 37c:	6600                	flw	fs0,8(a2)
 37e:	0390                	addi	a2,sp,448
 380:	0000                	unimp
 382:	0392                	slli	t2,t2,0x4
 384:	0000                	unimp
 386:	7f860003          	lb	zero,2040(a2) # 297f8 <tohost+0x97f0>
 38a:	929f 0003 9400      	0x94000003929f
 390:	01000003          	lb	zero,16(zero) # 10 <_min_stack-0x1ff0>
 394:	6600                	flw	fs0,8(a2)
	...
 39e:	038a                	slli	t2,t2,0x2
 3a0:	0000                	unimp
 3a2:	0392                	slli	t2,t2,0x4
 3a4:	0000                	unimp
 3a6:	0002                	0x2
 3a8:	9f30                	0x9f30
	...
 3b2:	038a                	slli	t2,t2,0x2
 3b4:	0000                	unimp
 3b6:	0391                	addi	t2,t2,4
 3b8:	0000                	unimp
 3ba:	0008                	addi	a0,sp,0
 3bc:	01940087          	0x1940087
 3c0:	ff08                	fsw	fa0,56(a4)
 3c2:	9f1a                	add	t5,t5,t1
	...
 3cc:	002e                	0x2e
 3ce:	0000                	unimp
 3d0:	0044                	addi	s1,sp,4
 3d2:	0000                	unimp
 3d4:	0001                	nop
 3d6:	445a                	lw	s0,148(sp)
 3d8:	0000                	unimp
 3da:	5400                	lw	s0,40(s0)
 3dc:	0000                	unimp
 3de:	0100                	addi	s0,sp,128
 3e0:	5a00                	lw	s0,48(a2)
	...
 3ea:	002e                	0x2e
 3ec:	0000                	unimp
 3ee:	004a                	0x4a
 3f0:	0000                	unimp
 3f2:	0001                	nop
 3f4:	00004a5b          	p.mac.zl.zl	s4,zero,zero,zero
 3f8:	5400                	lw	s0,40(s0)
 3fa:	0000                	unimp
 3fc:	0100                	addi	s0,sp,128
 3fe:	5b00                	lw	s0,48(a4)
	...
 40c:	0014                	addi	a3,sp,0
 40e:	0000                	unimp
 410:	0001                	nop
 412:	0000145b          	p.macu	s0,zero,zero
 416:	2e00                	fld	fs0,24(a2)
 418:	0000                	unimp
 41a:	0400                	addi	s0,sp,512
 41c:	f300                	fsw	fs0,32(a4)
 41e:	5b01                	li	s6,-32
 420:	009f 0000 0000      	0x9f
 426:	0000                	unimp
 428:	7600                	flw	fs0,40(a2)
 42a:	0000                	unimp
 42c:	9400                	0x9400
 42e:	0000                	unimp
 430:	0100                	addi	s0,sp,128
 432:	5a00                	lw	s0,48(a2)
 434:	0094                	addi	a3,sp,64
 436:	0000                	unimp
 438:	00ca                	slli	ra,ra,0x12
 43a:	0000                	unimp
 43c:	0001                	nop
 43e:	ec59                	bnez	s0,4dc <_min_stack-0x1b24>
 440:	0000                	unimp
 442:	1400                	addi	s0,sp,544
 444:	0001                	nop
 446:	0100                	addi	s0,sp,128
 448:	5900                	lw	s0,48(a0)
	...
 452:	0076                	0x76
 454:	0000                	unimp
 456:	00a6                	slli	ra,ra,0x9
 458:	0000                	unimp
 45a:	0001                	nop
 45c:	0000a65b          	p.addn	a2,ra,zero,0
 460:	ba00                	fsd	fs0,48(a2)
 462:	0000                	unimp
 464:	0100                	addi	s0,sp,128
 466:	5800                	lw	s0,48(s0)
 468:	00ce                	slli	ra,ra,0x13
 46a:	0000                	unimp
 46c:	00e2                	slli	ra,ra,0x18
 46e:	0000                	unimp
 470:	0001                	nop
 472:	ec59                	bnez	s0,510 <_min_stack-0x1af0>
 474:	0000                	unimp
 476:	ee00                	fsw	fs0,24(a2)
 478:	0000                	unimp
 47a:	0100                	addi	s0,sp,128
 47c:	5800                	lw	s0,48(s0)
 47e:	00ee                	slli	ra,ra,0x1b
 480:	0000                	unimp
 482:	00f0                	addi	a2,sp,76
 484:	0000                	unimp
 486:	0001                	nop
 488:	0000f05b          	p.mac.zh.zh	zero,ra,zero,zero
 48c:	f400                	fsw	fs0,40(s0)
 48e:	0000                	unimp
 490:	0100                	addi	s0,sp,128
 492:	6300                	flw	fs0,0(a4)
 494:	00f4                	addi	a3,sp,76
 496:	0000                	unimp
 498:	00f6                	slli	ra,ra,0x1d
 49a:	0000                	unimp
 49c:	7f830003          	lb	zero,2040(t1)
 4a0:	f69f 0000 0600      	0x6000000f69f
 4a6:	0001                	nop
 4a8:	0100                	addi	s0,sp,128
 4aa:	6300                	flw	fs0,0(a4)
 4ac:	0106                	slli	sp,sp,0x1
 4ae:	0000                	unimp
 4b0:	010e                	slli	sp,sp,0x3
 4b2:	0000                	unimp
 4b4:	0001                	nop
 4b6:	1458                	addi	a4,sp,548
 4b8:	0001                	nop
 4ba:	1c00                	addi	s0,sp,560
 4bc:	0001                	nop
 4be:	0100                	addi	s0,sp,128
 4c0:	5900                	lw	s0,48(a0)
	...
 4ca:	0076                	0x76
 4cc:	0000                	unimp
 4ce:	00b6                	slli	ra,ra,0xd
 4d0:	0000                	unimp
 4d2:	0001                	nop
 4d4:	b65c                	fsd	fa5,168(a2)
 4d6:	0000                	unimp
 4d8:	ec00                	fsw	fs0,24(s0)
 4da:	0000                	unimp
 4dc:	0400                	addi	s0,sp,512
 4de:	f300                	fsw	fs0,32(a4)
 4e0:	5c01                	li	s8,-32
 4e2:	ec9f 0000 f000      	0xf0000000ec9f
 4e8:	0000                	unimp
 4ea:	0100                	addi	s0,sp,128
 4ec:	5c00                	lw	s0,56(s0)
 4ee:	00f0                	addi	a2,sp,76
 4f0:	0000                	unimp
 4f2:	011c                	addi	a5,sp,128
 4f4:	0000                	unimp
 4f6:	0004                	addi	s1,sp,0
 4f8:	9f5c01f3          	0x9f5c01f3
	...
 504:	0076                	0x76
 506:	0000                	unimp
 508:	00ba                	slli	ra,ra,0xe
 50a:	0000                	unimp
 50c:	0002                	0x2
 50e:	9f30                	0x9f30
 510:	00c6                	slli	ra,ra,0x11
 512:	0000                	unimp
 514:	00ce                	slli	ra,ra,0x13
 516:	0000                	unimp
 518:	0001                	nop
 51a:	ec64                	fsw	fs1,92(s0)
 51c:	0000                	unimp
 51e:	f000                	fsw	fs0,32(s0)
 520:	0000                	unimp
 522:	0200                	addi	s0,sp,256
 524:	3000                	fld	fs0,32(s0)
 526:	069f 0001 0e00      	0xe000001069f
 52c:	0001                	nop
 52e:	0200                	addi	s0,sp,256
 530:	3000                	fld	fs0,32(s0)
 532:	0e9f 0001 1000      	0x100000010e9f
 538:	0001                	nop
 53a:	0100                	addi	s0,sp,128
 53c:	6400                	flw	fs0,8(s0)
	...
 546:	0076                	0x76
 548:	0000                	unimp
 54a:	00b4                	addi	a3,sp,72
 54c:	0000                	unimp
 54e:	20080003          	lb	zero,512(a6)
 552:	b49f 0000 ce00      	0xce000000b49f
 558:	0000                	unimp
 55a:	0100                	addi	s0,sp,128
 55c:	6200                	flw	fs0,0(a2)
 55e:	00ec                	addi	a1,sp,76
 560:	0000                	unimp
 562:	00f0                	addi	a2,sp,76
 564:	0000                	unimp
 566:	20080003          	lb	zero,512(a6)
 56a:	f09f 0000 1400      	0x14000000f09f
 570:	0001                	nop
 572:	0100                	addi	s0,sp,128
 574:	6200                	flw	fs0,0(a2)
	...
 57e:	009e                	slli	ra,ra,0x7
 580:	0000                	unimp
 582:	00b4                	addi	a3,sp,72
 584:	0000                	unimp
 586:	0001                	nop
 588:	ec5e                	fsw	fs7,24(sp)
 58a:	0000                	unimp
 58c:	f000                	fsw	fs0,32(s0)
 58e:	0000                	unimp
 590:	0100                	addi	s0,sp,128
 592:	5e00                	lw	s0,56(a2)
	...
 59c:	0094                	addi	a3,sp,64
 59e:	0000                	unimp
 5a0:	0096                	slli	ra,ra,0x5
 5a2:	0000                	unimp
 5a4:	0001                	nop
 5a6:	9e5f 0000 aa00      	0xaa0000009e5f
 5ac:	0000                	unimp
 5ae:	0100                	addi	s0,sp,128
 5b0:	5f00                	lw	s0,56(a4)
 5b2:	00ec                	addi	a1,sp,76
 5b4:	0000                	unimp
 5b6:	00f0                	addi	a2,sp,76
 5b8:	0000                	unimp
 5ba:	0001                	nop
 5bc:	005f 0000 0000      	0x5f
 5c2:	0000                	unimp
 5c4:	1400                	addi	s0,sp,544
 5c6:	0001                	nop
 5c8:	1800                	addi	s0,sp,48
 5ca:	0001                	nop
 5cc:	0200                	addi	s0,sp,256
 5ce:	3000                	fld	fs0,32(s0)
 5d0:	009f 0000 0000      	0x9f
 5d6:	0000                	unimp
 5d8:	f000                	fsw	fs0,32(s0)
 5da:	0000                	unimp
 5dc:	f400                	fsw	fs0,40(s0)
 5de:	0000                	unimp
 5e0:	0200                	addi	s0,sp,256
 5e2:	3000                	fld	fs0,32(s0)
 5e4:	009f 0000 0000      	0x9f
 5ea:	0000                	unimp
 5ec:	0e00                	addi	s0,sp,784
 5ee:	0001                	nop
 5f0:	1000                	addi	s0,sp,32
 5f2:	0001                	nop
 5f4:	0200                	addi	s0,sp,256
 5f6:	3000                	fld	fs0,32(s0)
 5f8:	009f 0000 0000      	0x9f
 5fe:	0000                	unimp
 600:	0e00                	addi	s0,sp,784
 602:	0001                	nop
 604:	0f00                	addi	s0,sp,912
 606:	0001                	nop
 608:	0600                	addi	s0,sp,768
 60a:	7a00                	flw	fs0,48(a2)
 60c:	0800                	addi	s0,sp,16
 60e:	1aff                	0x1aff
 610:	009f 0000 0000      	0x9f
 616:	0000                	unimp
 618:	1c00                	addi	s0,sp,560
 61a:	0001                	nop
 61c:	3200                	fld	fs0,32(a2)
 61e:	0001                	nop
 620:	0100                	addi	s0,sp,128
 622:	5a00                	lw	s0,48(a2)
 624:	0132                	slli	sp,sp,0xc
 626:	0000                	unimp
 628:	0142                	slli	sp,sp,0x10
 62a:	0000                	unimp
 62c:	0004                	addi	s1,sp,0
 62e:	9f5a01f3          	0x9f5a01f3
 632:	0142                	slli	sp,sp,0x10
 634:	0000                	unimp
 636:	0152                	slli	sp,sp,0x14
 638:	0000                	unimp
 63a:	0001                	nop
 63c:	525a                	lw	tp,180(sp)
 63e:	0001                	nop
 640:	c000                	sw	s0,0(s0)
 642:	0001                	nop
 644:	0400                	addi	s0,sp,512
 646:	f300                	fsw	fs0,32(a4)
 648:	5a01                	li	s4,-32
 64a:	c09f 0001 c400      	0xc4000001c09f
 650:	0001                	nop
 652:	0100                	addi	s0,sp,128
 654:	5a00                	lw	s0,48(a2)
 656:	01c4                	addi	s1,sp,196
 658:	0000                	unimp
 65a:	0216                	slli	tp,tp,0x5
 65c:	0000                	unimp
 65e:	0004                	addi	s1,sp,0
 660:	9f5a01f3          	0x9f5a01f3
	...
 66c:	011c                	addi	a5,sp,128
 66e:	0000                	unimp
 670:	0130                	addi	a2,sp,136
 672:	0000                	unimp
 674:	0001                	nop
 676:	0001305b          	p.subn	zero,sp,zero,0
 67a:	4200                	lw	s0,0(a2)
 67c:	0001                	nop
 67e:	0400                	addi	s0,sp,512
 680:	f300                	fsw	fs0,32(a4)
 682:	5b01                	li	s6,-32
 684:	429f 0001 7200      	0x72000001429f
 68a:	0001                	nop
 68c:	0100                	addi	s0,sp,128
 68e:	5b00                	lw	s0,48(a4)
 690:	0172                	slli	sp,sp,0x1c
 692:	0000                	unimp
 694:	01c0                	addi	s0,sp,196
 696:	0000                	unimp
 698:	0004                	addi	s1,sp,0
 69a:	9f5b01f3          	0x9f5b01f3
 69e:	01c0                	addi	s0,sp,196
 6a0:	0000                	unimp
 6a2:	01dc                	addi	a5,sp,196
 6a4:	0000                	unimp
 6a6:	0001                	nop
 6a8:	0001dc5b          	p.mac.zl.zh	s8,gp,zero,zero
 6ac:	0000                	unimp
 6ae:	0002                	0x2
 6b0:	0400                	addi	s0,sp,512
 6b2:	f300                	fsw	fs0,32(a4)
 6b4:	5b01                	li	s6,-32
 6b6:	009f 0002 0800      	0x8000002009f
 6bc:	0002                	0x2
 6be:	0100                	addi	s0,sp,128
 6c0:	5b00                	lw	s0,48(a4)
 6c2:	0208                	addi	a0,sp,256
 6c4:	0000                	unimp
 6c6:	0216                	slli	tp,tp,0x5
 6c8:	0000                	unimp
 6ca:	0004                	addi	s1,sp,0
 6cc:	9f5b01f3          	0x9f5b01f3
	...
 6d8:	011c                	addi	a5,sp,128
 6da:	0000                	unimp
 6dc:	0128                	addi	a0,sp,136
 6de:	0000                	unimp
 6e0:	0001                	nop
 6e2:	285c                	fld	fa5,144(s0)
 6e4:	0001                	nop
 6e6:	3800                	fld	fs0,48(s0)
 6e8:	0001                	nop
 6ea:	0100                	addi	s0,sp,128
 6ec:	5900                	lw	s0,48(a0)
 6ee:	0138                	addi	a4,sp,136
 6f0:	0000                	unimp
 6f2:	0142                	slli	sp,sp,0x10
 6f4:	0000                	unimp
 6f6:	0004                	addi	s1,sp,0
 6f8:	9f5c01f3          	0x9f5c01f3
 6fc:	0142                	slli	sp,sp,0x10
 6fe:	0000                	unimp
 700:	0152                	slli	sp,sp,0x14
 702:	0000                	unimp
 704:	0001                	nop
 706:	5259                	li	tp,-10
 708:	0001                	nop
 70a:	c000                	sw	s0,0(s0)
 70c:	0001                	nop
 70e:	0400                	addi	s0,sp,512
 710:	f300                	fsw	fs0,32(a4)
 712:	5c01                	li	s8,-32
 714:	c09f 0001 c200      	0xc2000001c09f
 71a:	0001                	nop
 71c:	0100                	addi	s0,sp,128
 71e:	5900                	lw	s0,48(a0)
 720:	01c2                	slli	gp,gp,0x10
 722:	0000                	unimp
 724:	0216                	slli	tp,tp,0x5
 726:	0000                	unimp
 728:	0004                	addi	s1,sp,0
 72a:	9f5c01f3          	0x9f5c01f3
	...
 736:	011c                	addi	a5,sp,128
 738:	0000                	unimp
 73a:	00000137          	lui	sp,0x0
 73e:	0001                	nop
 740:	375d                	jal	6e6 <_min_stack-0x191a>
 742:	0001                	nop
 744:	3800                	fld	fs0,48(s0)
 746:	0001                	nop
 748:	0400                	addi	s0,sp,512
 74a:	f300                	fsw	fs0,32(a4)
 74c:	5d01                	li	s10,-32
 74e:	429f 0001 ef00      	0xef000001429f
 754:	0001                	nop
 756:	0100                	addi	s0,sp,128
 758:	5d00                	lw	s0,56(a0)
 75a:	000001ef          	jal	gp,75a <_min_stack-0x18a6>
 75e:	01f6                	slli	gp,gp,0x1d
 760:	0000                	unimp
 762:	0004                	addi	s1,sp,0
 764:	9f5d01f3          	0x9f5d01f3
 768:	01f6                	slli	gp,gp,0x1d
 76a:	0000                	unimp
 76c:	000001fb          	lp.starti	x3,76c <_min_stack-0x1894>
 770:	0001                	nop
 772:	005d                	c.addi	zero,23
 774:	0002                	0x2
 776:	1600                	addi	s0,sp,800
 778:	0002                	0x2
 77a:	0100                	addi	s0,sp,128
 77c:	5d00                	lw	s0,56(a0)
	...
 786:	011c                	addi	a5,sp,128
 788:	0000                	unimp
 78a:	00000137          	lui	sp,0x0
 78e:	0001                	nop
 790:	375e                	fld	fa4,496(sp)
 792:	0001                	nop
 794:	4200                	lw	s0,0(a2)
 796:	0001                	nop
 798:	0400                	addi	s0,sp,512
 79a:	f300                	fsw	fs0,32(a4)
 79c:	5e01                	li	t3,-32
 79e:	429f 0001 ef00      	0xef000001429f
 7a4:	0001                	nop
 7a6:	0100                	addi	s0,sp,128
 7a8:	5c00                	lw	s0,56(s0)
 7aa:	000001ef          	jal	gp,7aa <_min_stack-0x1856>
 7ae:	0200                	addi	s0,sp,256
 7b0:	0000                	unimp
 7b2:	0004                	addi	s1,sp,0
 7b4:	9f5e01f3          	0x9f5e01f3
 7b8:	0200                	addi	s0,sp,256
 7ba:	0000                	unimp
 7bc:	0216                	slli	tp,tp,0x5
 7be:	0000                	unimp
 7c0:	0001                	nop
 7c2:	005c                	addi	a5,sp,4
 7c4:	0000                	unimp
 7c6:	0000                	unimp
 7c8:	0000                	unimp
 7ca:	1c00                	addi	s0,sp,560
 7cc:	0001                	nop
 7ce:	2e00                	fld	fs0,24(a2)
 7d0:	0001                	nop
 7d2:	0100                	addi	s0,sp,128
 7d4:	5f00                	lw	s0,56(a4)
 7d6:	012e                	slli	sp,sp,0xb
 7d8:	0000                	unimp
 7da:	0142                	slli	sp,sp,0x10
 7dc:	0000                	unimp
 7de:	0004                	addi	s1,sp,0
 7e0:	9f5f01f3          	0x9f5f01f3
 7e4:	0142                	slli	sp,sp,0x10
 7e6:	0000                	unimp
 7e8:	0172                	slli	sp,sp,0x1c
 7ea:	0000                	unimp
 7ec:	0001                	nop
 7ee:	725f 0001 c000      	0xc0000001725f
 7f4:	0001                	nop
 7f6:	0400                	addi	s0,sp,512
 7f8:	f300                	fsw	fs0,32(a4)
 7fa:	5f01                	li	t5,-32
 7fc:	c09f 0001 c400      	0xc4000001c09f
 802:	0001                	nop
 804:	0100                	addi	s0,sp,128
 806:	5f00                	lw	s0,56(a4)
 808:	01c4                	addi	s1,sp,196
 80a:	0000                	unimp
 80c:	0200                	addi	s0,sp,256
 80e:	0000                	unimp
 810:	0004                	addi	s1,sp,0
 812:	9f5f01f3          	0x9f5f01f3
 816:	0200                	addi	s0,sp,256
 818:	0000                	unimp
 81a:	0206                	slli	tp,tp,0x1
 81c:	0000                	unimp
 81e:	0001                	nop
 820:	065f 0002 1600      	0x16000002065f
 826:	0002                	0x2
 828:	0400                	addi	s0,sp,512
 82a:	f300                	fsw	fs0,32(a4)
 82c:	5f01                	li	t5,-32
 82e:	009f 0000 0000      	0x9f
 834:	0000                	unimp
 836:	5200                	lw	s0,32(a2)
 838:	0001                	nop
 83a:	5c00                	lw	s0,56(s0)
 83c:	0001                	nop
 83e:	0300                	addi	s0,sp,384
 840:	9100                	0x9100
 842:	015c9f6f          	jal	t5,ca056 <tohost+0xaa04e>
 846:	0000                	unimp
 848:	01c0                	addi	s0,sp,196
 84a:	0000                	unimp
 84c:	0001                	nop
 84e:	c458                	sw	a4,12(s0)
 850:	0001                	nop
 852:	0800                	addi	s0,sp,16
 854:	0002                	0x2
 856:	0100                	addi	s0,sp,128
 858:	5800                	lw	s0,48(s0)
 85a:	0208                	addi	a0,sp,256
 85c:	0000                	unimp
 85e:	0214                	addi	a3,sp,256
 860:	0000                	unimp
 862:	7f780003          	lb	zero,2039(a6)
 866:	149f 0002 1600      	0x16000002149f
 86c:	0002                	0x2
 86e:	0100                	addi	s0,sp,128
 870:	5800                	lw	s0,48(s0)
	...
 87a:	011c                	addi	a5,sp,128
 87c:	0000                	unimp
 87e:	0138                	addi	a4,sp,136
 880:	0000                	unimp
 882:	0002                	0x2
 884:	9f30                	0x9f30
 886:	0142                	slli	sp,sp,0x10
 888:	0000                	unimp
 88a:	014e                	slli	sp,sp,0x13
 88c:	0000                	unimp
 88e:	0002                	0x2
 890:	9f30                	0x9f30
 892:	014e                	slli	sp,sp,0x13
 894:	0000                	unimp
 896:	0152                	slli	sp,sp,0x14
 898:	0000                	unimp
 89a:	0002                	0x2
 89c:	9f31                	0x9f31
 89e:	0152                	slli	sp,sp,0x14
 8a0:	0000                	unimp
 8a2:	01c0                	addi	s0,sp,196
 8a4:	0000                	unimp
 8a6:	0001                	nop
 8a8:	c059                	beqz	s0,92e <_min_stack-0x16d2>
 8aa:	0001                	nop
 8ac:	c400                	sw	s0,8(s0)
 8ae:	0001                	nop
 8b0:	0200                	addi	s0,sp,256
 8b2:	3000                	fld	fs0,32(s0)
 8b4:	c49f 0001 f600      	0xf6000001c49f
 8ba:	0001                	nop
 8bc:	0100                	addi	s0,sp,128
 8be:	5900                	lw	s0,48(a0)
 8c0:	0200                	addi	s0,sp,256
 8c2:	0000                	unimp
 8c4:	0212                	slli	tp,tp,0x4
 8c6:	0000                	unimp
 8c8:	0001                	nop
 8ca:	0059                	c.addi	zero,22
 8cc:	0000                	unimp
 8ce:	0000                	unimp
 8d0:	0000                	unimp
 8d2:	1c00                	addi	s0,sp,560
 8d4:	0001                	nop
 8d6:	3800                	fld	fs0,48(s0)
 8d8:	0001                	nop
 8da:	0200                	addi	s0,sp,256
 8dc:	3000                	fld	fs0,32(s0)
 8de:	429f 0001 f000      	0xf0000001429f
 8e4:	0001                	nop
 8e6:	0200                	addi	s0,sp,256
 8e8:	3000                	fld	fs0,32(s0)
 8ea:	f09f 0001 f600      	0xf6000001f09f
 8f0:	0001                	nop
 8f2:	0200                	addi	s0,sp,256
 8f4:	3100                	fld	fs0,32(a0)
 8f6:	f69f 0001 0000      	0x1f69f
 8fc:	0002                	0x2
 8fe:	0100                	addi	s0,sp,128
 900:	5900                	lw	s0,48(a0)
 902:	0200                	addi	s0,sp,256
 904:	0000                	unimp
 906:	0216                	slli	tp,tp,0x5
 908:	0000                	unimp
 90a:	0002                	0x2
 90c:	9f30                	0x9f30
	...
 916:	011c                	addi	a5,sp,128
 918:	0000                	unimp
 91a:	0132                	slli	sp,sp,0xc
 91c:	0000                	unimp
 91e:	0001                	nop
 920:	325a                	fld	ft4,432(sp)
 922:	0001                	nop
 924:	3800                	fld	fs0,48(s0)
 926:	0001                	nop
 928:	0400                	addi	s0,sp,512
 92a:	f300                	fsw	fs0,32(a4)
 92c:	5a01                	li	s4,-32
 92e:	429f 0001 b800      	0xb8000001429f
 934:	0001                	nop
 936:	0100                	addi	s0,sp,128
 938:	5a00                	lw	s0,48(a2)
 93a:	01b8                	addi	a4,sp,200
 93c:	0000                	unimp
 93e:	01ba                	slli	gp,gp,0xe
 940:	0000                	unimp
 942:	7a7a0003          	lb	zero,1959(s4)
 946:	c09f 0001 ea00      	0xea000001c09f
 94c:	0001                	nop
 94e:	0100                	addi	s0,sp,128
 950:	5a00                	lw	s0,48(a2)
 952:	0200                	addi	s0,sp,256
 954:	0000                	unimp
 956:	0216                	slli	tp,tp,0x5
 958:	0000                	unimp
 95a:	0001                	nop
 95c:	005a                	0x5a
 95e:	0000                	unimp
 960:	0000                	unimp
 962:	0000                	unimp
 964:	7400                	flw	fs0,40(s0)
 966:	0001                	nop
 968:	7c00                	flw	fs0,56(s0)
 96a:	0001                	nop
 96c:	0100                	addi	s0,sp,128
 96e:	5a00                	lw	s0,48(a2)
	...
 978:	019e                	slli	gp,gp,0x7
 97a:	0000                	unimp
 97c:	01b8                	addi	a4,sp,200
 97e:	0000                	unimp
 980:	0001                	nop
 982:	b85a                	fsd	fs6,48(sp)
 984:	0001                	nop
 986:	ba00                	fsd	fs0,48(a2)
 988:	0001                	nop
 98a:	0300                	addi	s0,sp,384
 98c:	7a00                	flw	fs0,48(a2)
 98e:	9f7a                	add	t5,t5,t5
	...
 998:	019e                	slli	gp,gp,0x7
 99a:	0000                	unimp
 99c:	01be                	slli	gp,gp,0xf
 99e:	0000                	unimp
 9a0:	0001                	nop
 9a2:	005f 0000 0000      	0x5f
 9a8:	0000                	unimp
 9aa:	b200                	fsd	fs0,32(a2)
 9ac:	0001                	nop
 9ae:	b800                	fsd	fs0,48(s0)
 9b0:	0001                	nop
 9b2:	0900                	addi	s0,sp,144
 9b4:	7f00                	flw	fs0,56(a4)
 9b6:	0900                	addi	s0,sp,144
 9b8:	1ef6                	slli	t4,t4,0x3d
 9ba:	007a                	0x7a
 9bc:	9f22                	add	t5,t5,s0
 9be:	01b8                	addi	a4,sp,200
 9c0:	0000                	unimp
 9c2:	01ba                	slli	gp,gp,0xe
 9c4:	0000                	unimp
 9c6:	007f000b          	p.lb	zero,7(t5!) # 1b007 <_stack_len+0x13007>
 9ca:	f609                	bnez	a2,8d4 <_min_stack-0x172c>
 9cc:	7a1e                	flw	fs4,228(sp)
 9ce:	2200                	fld	fs0,0(a2)
 9d0:	1c36                	slli	s8,s8,0x2d
 9d2:	009f 0000 0000      	0x9f
 9d8:	0000                	unimp
 9da:	c800                	sw	s0,16(s0)
 9dc:	0001                	nop
 9de:	d400                	sw	s0,40(s0)
 9e0:	0001                	nop
 9e2:	0100                	addi	s0,sp,128
 9e4:	6000                	flw	fs0,0(s0)
 9e6:	01d4                	addi	a3,sp,196
 9e8:	0000                	unimp
 9ea:	01da                	slli	gp,gp,0x16
 9ec:	0000                	unimp
 9ee:	50800003          	lb	zero,1288(zero) # 508 <_min_stack-0x1af8>
 9f2:	009f 0000 0000      	0x9f
 9f8:	0000                	unimp
 9fa:	e600                	fsw	fs0,8(a2)
 9fc:	0001                	nop
 9fe:	f000                	fsw	fs0,32(s0)
 a00:	0001                	nop
 a02:	0200                	addi	s0,sp,256
 a04:	3000                	fld	fs0,32(s0)
 a06:	009f 0000 0000      	0x9f
 a0c:	0000                	unimp
 a0e:	e600                	fsw	fs0,8(a2)
 a10:	0001                	nop
 a12:	f000                	fsw	fs0,32(s0)
 a14:	0001                	nop
 a16:	0300                	addi	s0,sp,384
 a18:	0800                	addi	s0,sp,16
 a1a:	9f2d                	0x9f2d
	...
 a24:	01e6                	slli	gp,gp,0x19
 a26:	0000                	unimp
 a28:	01f6                	slli	gp,gp,0x1d
 a2a:	0000                	unimp
 a2c:	2d080003          	lb	zero,720(a6)
 a30:	009f 0000 0000      	0x9f
 a36:	0000                	unimp
 a38:	2400                	fld	fs0,8(s0)
 a3a:	0002                	0x2
 a3c:	2e00                	fld	fs0,24(a2)
 a3e:	0002                	0x2
 a40:	0100                	addi	s0,sp,128
 a42:	5a00                	lw	s0,48(a2)
 a44:	022e                	slli	tp,tp,0xb
 a46:	0000                	unimp
 a48:	0238                	addi	a4,sp,264
 a4a:	0000                	unimp
 a4c:	0001                	nop
 a4e:	3858                	fld	fa4,176(s0)
 a50:	0002                	0x2
 a52:	3c00                	fld	fs0,56(s0)
 a54:	0002                	0x2
 a56:	0100                	addi	s0,sp,128
 a58:	5a00                	lw	s0,48(a2)
	...
 a62:	053a                	slli	a0,a0,0xe
 a64:	e000                	fsw	fs0,0(s0)
 a66:	0556                	slli	a0,a0,0x15
 a68:	e000                	fsw	fs0,0(s0)
 a6a:	0001                	nop
 a6c:	565a                	lw	a2,180(sp)
 a6e:	0005                	c.addi	zero,1
 a70:	8ce0                	0x8ce0
 a72:	0005                	c.addi	zero,1
 a74:	04e0                	addi	s0,sp,588
 a76:	f300                	fsw	fs0,32(a4)
 a78:	5a01                	li	s4,-32
 a7a:	009f 0000 0000      	0x9f
 a80:	0000                	unimp
 a82:	3a00                	fld	fs0,48(a2)
 a84:	0005                	c.addi	zero,1
 a86:	54e0                	lw	s0,108(s1)
 a88:	0005                	c.addi	zero,1
 a8a:	01e0                	addi	s0,sp,204
 a8c:	5b00                	lw	s0,48(a4)
 a8e:	0554                	addi	a3,sp,644
 a90:	e000                	fsw	fs0,0(s0)
 a92:	058c                	addi	a1,sp,704
 a94:	e000                	fsw	fs0,0(s0)
 a96:	0004                	addi	s1,sp,0
 a98:	9f5b01f3          	0x9f5b01f3
	...
 aa4:	0544                	addi	s1,sp,644
 aa6:	e000                	fsw	fs0,0(s0)
 aa8:	055a                	slli	a0,a0,0x16
 aaa:	e000                	fsw	fs0,0(s0)
 aac:	0002                	0x2
 aae:	9f30                	0x9f30
 ab0:	055a                	slli	a0,a0,0x16
 ab2:	e000                	fsw	fs0,0(s0)
 ab4:	058c                	addi	a1,sp,704
 ab6:	e000                	fsw	fs0,0(s0)
 ab8:	0001                	nop
 aba:	005d                	c.addi	zero,23
 abc:	0000                	unimp
 abe:	0000                	unimp
 ac0:	0000                	unimp
	...

Disassembly of section .debug_aranges:

00000000 <.debug_aranges>:
   0:	001c                	addi	a5,sp,0
   2:	0000                	unimp
   4:	0002                	0x2
   6:	0000                	unimp
   8:	0000                	unimp
   a:	0004                	addi	s1,sp,0
   c:	0000                	unimp
   e:	0000                	unimp
  10:	0084                	addi	s1,sp,64
  12:	e000                	fsw	fs0,0(s0)
  14:	043a                	slli	s0,s0,0xe
	...
  1e:	0000                	unimp
  20:	001c                	addi	a5,sp,0
  22:	0000                	unimp
  24:	0002                	0x2
  26:	0928                	addi	a0,sp,152
  28:	0000                	unimp
  2a:	0004                	addi	s1,sp,0
  2c:	0000                	unimp
  2e:	0000                	unimp
  30:	053a                	slli	a0,a0,0xe
  32:	e000                	fsw	fs0,0(s0)
  34:	0052                	0x52
	...
  3e:	0000                	unimp
  40:	0024                	addi	s1,sp,8
  42:	0000                	unimp
  44:	0002                	0x2
  46:	0aa2                	slli	s5,s5,0x8
  48:	0000                	unimp
  4a:	0004                	addi	s1,sp,0
  4c:	0000                	unimp
  4e:	0000                	unimp
  50:	04be                	slli	s1,s1,0xf
  52:	e000                	fsw	fs0,0(s0)
  54:	007c                	addi	a5,sp,12
  56:	0000                	unimp
  58:	0000                	unimp
  5a:	e000                	fsw	fs0,0(s0)
  5c:	0084                	addi	s1,sp,64
	...

Disassembly of section .debug_ranges:

00000000 <.debug_ranges>:
   0:	0094                	addi	a3,sp,64
   2:	0000                	unimp
   4:	00aa                	slli	ra,ra,0xa
   6:	0000                	unimp
   8:	00ae                	slli	ra,ra,0xb
   a:	0000                	unimp
   c:	00b4                	addi	a3,sp,72
   e:	0000                	unimp
  10:	00ec                	addi	a1,sp,76
  12:	0000                	unimp
  14:	00f0                	addi	a2,sp,76
	...
  1e:	0000                	unimp
  20:	00ca                	slli	ra,ra,0x12
  22:	0000                	unimp
  24:	00ce                	slli	ra,ra,0x13
  26:	0000                	unimp
  28:	0114                	addi	a3,sp,128
  2a:	0000                	unimp
  2c:	0118                	addi	a4,sp,128
	...
  36:	0000                	unimp
  38:	00ca                	slli	ra,ra,0x12
  3a:	0000                	unimp
  3c:	00ce                	slli	ra,ra,0x13
  3e:	0000                	unimp
  40:	0114                	addi	a3,sp,128
  42:	0000                	unimp
  44:	0118                	addi	a4,sp,128
	...
  4e:	0000                	unimp
  50:	00f0                	addi	a2,sp,76
  52:	0000                	unimp
  54:	00f4                	addi	a3,sp,76
  56:	0000                	unimp
  58:	0108                	addi	a0,sp,128
  5a:	0000                	unimp
  5c:	010e                	slli	sp,sp,0x3
	...
  66:	0000                	unimp
  68:	00f0                	addi	a2,sp,76
  6a:	0000                	unimp
  6c:	00f4                	addi	a3,sp,76
  6e:	0000                	unimp
  70:	0108                	addi	a0,sp,128
  72:	0000                	unimp
  74:	010e                	slli	sp,sp,0x3
	...
  7e:	0000                	unimp
  80:	0160                	addi	s0,sp,140
  82:	0000                	unimp
  84:	0170                	addi	a2,sp,140
  86:	0000                	unimp
  88:	0174                	addi	a3,sp,140
  8a:	0000                	unimp
  8c:	0180                	addi	s0,sp,192
  8e:	0000                	unimp
  90:	0182                	slli	gp,gp,0x0
  92:	0000                	unimp
  94:	018c                	addi	a1,sp,192
	...
  9e:	0000                	unimp
  a0:	0170                	addi	a2,sp,140
  a2:	0000                	unimp
  a4:	0172                	slli	sp,sp,0x1c
  a6:	0000                	unimp
  a8:	0190                	addi	a2,sp,192
  aa:	0000                	unimp
  ac:	0196                	slli	gp,gp,0x5
  ae:	0000                	unimp
  b0:	019e                	slli	gp,gp,0x7
  b2:	0000                	unimp
  b4:	01c0                	addi	s0,sp,196
	...
  be:	0000                	unimp
  c0:	01c4                	addi	s1,sp,196
  c2:	0000                	unimp
  c4:	01da                	slli	gp,gp,0x16
  c6:	0000                	unimp
  c8:	0200                	addi	s0,sp,256
  ca:	0000                	unimp
  cc:	0208                	addi	a0,sp,256
	...
  d6:	0000                	unimp
  d8:	0266                	slli	tp,tp,0x19
  da:	0000                	unimp
  dc:	0284                	addi	s1,sp,320
  de:	0000                	unimp
  e0:	029e                	slli	t0,t0,0x7
  e2:	0000                	unimp
  e4:	0394                	addi	a3,sp,448
	...
  ee:	0000                	unimp
  f0:	0276                	slli	tp,tp,0x1d
  f2:	0000                	unimp
  f4:	027e                	slli	tp,tp,0x1f
  f6:	0000                	unimp
  f8:	02ea                	slli	t0,t0,0x1a
  fa:	0000                	unimp
  fc:	02f8                	addi	a4,sp,332
	...
 106:	0000                	unimp
 108:	038a                	slli	t2,t2,0x2
 10a:	0000                	unimp
 10c:	038e                	slli	t2,t2,0x3
 10e:	0000                	unimp
 110:	0390                	addi	a2,sp,448
 112:	0000                	unimp
 114:	0394                	addi	a3,sp,448
	...
 11e:	0000                	unimp
 120:	0540                	addi	s0,sp,644
 122:	e000                	fsw	fs0,0(s0)
 124:	0542                	slli	a0,a0,0x10
 126:	e000                	fsw	fs0,0(s0)
 128:	0544                	addi	s1,sp,644
 12a:	e000                	fsw	fs0,0(s0)
 12c:	0584                	addi	s1,sp,704
 12e:	e000                	fsw	fs0,0(s0)
	...
 138:	053a                	slli	a0,a0,0xe
 13a:	e000                	fsw	fs0,0(s0)
 13c:	058c                	addi	a1,sp,704
 13e:	e000                	fsw	fs0,0(s0)
	...
 148:	ffff                	0xffff
 14a:	ffff                	0xffff
 14c:	0000                	unimp
 14e:	0000                	unimp
 150:	04be                	slli	s1,s1,0xf
 152:	e000                	fsw	fs0,0(s0)
 154:	053a                	slli	a0,a0,0xe
 156:	e000                	fsw	fs0,0(s0)
 158:	0000                	unimp
 15a:	e000                	fsw	fs0,0(s0)
 15c:	0084                	addi	s1,sp,64
 15e:	e000                	fsw	fs0,0(s0)
	...

Disassembly of section .debug_line:

00000000 <.debug_line>:
   0:	05e2                	slli	a1,a1,0x18
   2:	0000                	unimp
   4:	0002                	0x2
   6:	0000010b          	p.lb	sp,0(zero!) # 0 <_min_stack-0x2000>
   a:	0101                	addi	sp,sp,0
   c:	000d0efb          	0xd0efb
  10:	0101                	addi	sp,sp,0
  12:	0101                	addi	sp,sp,0
  14:	0000                	unimp
  16:	0100                	addi	s0,sp,128
  18:	0000                	unimp
  1a:	2f01                	jal	72a <_min_stack-0x18d6>
  1c:	61726373          	csrrsi	t1,0x617,4
  20:	6374                	flw	fa3,68(a4)
  22:	2f68                	fld	fa0,216(a4)
  24:	636d                	lui	t1,0x1b
  26:	6169                	addi	sp,sp,208
  28:	696e                	flw	fs2,216(sp)
  2a:	2d65682f          	0x2d65682f
  2e:	2f636f73          	csrrsi	t5,0x2f6,6
  32:	6168                	flw	fa0,68(a0)
  34:	6472                	flw	fs0,28(sp)
  36:	65726177          	0x65726177
  3a:	726f772f          	0x726f772f
  3e:	676e696b          	0x676e696b
  42:	645f 7269 6f2f      	0x6f2f7269645f
  48:	6570                	flw	fa2,76(a0)
  4a:	746e                	flw	fs0,248(sp)
  4c:	7469                	lui	s0,0xffffa
  4e:	6e61                	lui	t3,0x18
  50:	2f77682f          	0x2f77682f
  54:	6f74                	flw	fa3,92(a4)
  56:	5f70                	lw	a2,124(a4)
  58:	6165                	addi	sp,sp,112
  5a:	6c72                	flw	fs8,28(sp)
  5c:	79657267          	0x79657267
  60:	2f77732f          	0x2f77732f
  64:	6574                	flw	fa3,76(a0)
  66:	2f737473          	csrrci	s0,0x2f7,6
  6a:	6d6d6f63          	bltu	s10,s6,748 <_min_stack-0x18b8>
  6e:	2f006e6f          	jal	t3,635e <_min_stack+0x435e>
  72:	7375                	lui	t1,0xffffd
  74:	2f72                	fld	ft10,280(sp)
  76:	6170                	flw	fa2,68(a0)
  78:	702f6b63          	bltu	t5,sp,78e <_min_stack-0x1872>
  7c:	6c75                	lui	s8,0x1d
  7e:	7370                	flw	fa2,100(a4)
  80:	6b64                	flw	fs1,84(a4)
  82:	312d                	jal	fffffcac <pulp__FC+0xfffffcad>
  84:	302e                	fld	ft0,232(sp)
  86:	6b2d                	lui	s6,0xb
  88:	612f6667          	0x612f6667
  8c:	7472                	flw	fs0,60(sp)
  8e:	6669                	lui	a2,0x1a
  90:	6361                	lui	t1,0x18
  92:	6f74                	flw	fa3,92(a4)
  94:	7972                	flw	fs2,60(sp)
  96:	6c75702f          	0x6c75702f
  9a:	2d70                	fld	fa2,216(a0)
  9c:	2d6b6473          	csrrsi	s0,0x2d6,22
  a0:	6572                	flw	fa0,28(sp)
  a2:	656c                	flw	fa1,76(a0)
  a4:	7361                	lui	t1,0xffff8
  a6:	2f65                	jal	85e <_min_stack-0x17a2>
  a8:	6b70                	flw	fa2,84(a4)
  aa:	75702f67          	0x75702f67
  ae:	706c                	flw	fa1,100(s0)
  b0:	725f 7369 7663      	0x76637369725f
  b6:	675f 6363 312f      	0x312f6363675f
  bc:	302e                	fld	ft0,232(sp)
  be:	312e                	fld	ft2,232(sp)
  c0:	2f36                	fld	ft10,328(sp)
  c2:	696c                	flw	fa1,84(a0)
  c4:	2f62                	fld	ft10,24(sp)
  c6:	2f636367          	0x2f636367
  ca:	6972                	flw	fs2,28(sp)
  cc:	33766373          	csrrsi	t1,0x337,12
  d0:	2d32                	fld	fs10,264(sp)
  d2:	6e75                	lui	t3,0x1d
  d4:	776f6e6b          	0x776f6e6b
  d8:	2d6e                	fld	fs10,216(sp)
  da:	6c65                	lui	s8,0x19
  dc:	2f66                	fld	ft10,88(sp)
  de:	2e312e37          	lui	t3,0x2e312
  e2:	2f31                	jal	7fe <_min_stack-0x1802>
  e4:	6e69                	lui	t3,0x1a
  e6:	64756c63          	bltu	a0,t2,73e <_min_stack-0x18c2>
  ea:	0065                	c.addi	zero,25
  ec:	7500                	flw	fs0,40(a0)
  ee:	6974                	flw	fa3,84(a0)
  f0:	736c                	flw	fa1,100(a4)
  f2:	632e                	flw	ft6,200(sp)
  f4:	0100                	addi	s0,sp,128
  f6:	0000                	unimp
  f8:	61647473          	csrrci	s0,0x616,8
  fc:	6772                	flw	fa4,28(sp)
  fe:	682e                	flw	fa6,200(sp)
 100:	0200                	addi	s0,sp,256
 102:	0000                	unimp
 104:	69647473          	csrrci	s0,0x696,8
 108:	746e                	flw	fs0,248(sp)
 10a:	672d                	lui	a4,0xb
 10c:	682e6363          	bltu	t3,sp,792 <_min_stack-0x186e>
 110:	0200                	addi	s0,sp,256
 112:	0000                	unimp
 114:	0000                	unimp
 116:	0205                	addi	tp,tp,1
 118:	0084                	addi	s1,sp,64
 11a:	e000                	fsw	fs0,0(s0)
 11c:	03012903          	lw	s2,48(sp) # 30 <_min_stack-0x1fd0>
 120:	0902                	slli	s2,s2,0x0
 122:	0000                	unimp
 124:	0301                	addi	t1,t1,0
 126:	0901                	addi	s2,s2,0
 128:	000a                	0xa
 12a:	0301                	addi	t1,t1,0
 12c:	0901                	addi	s2,s2,0
 12e:	0006                	0x6
 130:	0301                	addi	t1,t1,0
 132:	0901                	addi	s2,s2,0
 134:	0006                	0x6
 136:	0301                	addi	t1,t1,0
 138:	0901                	addi	s2,s2,0
 13a:	0006                	0x6
 13c:	0301                	addi	t1,t1,0
 13e:	0902                	slli	s2,s2,0x0
 140:	0004                	addi	s1,sp,0
 142:	0301                	addi	t1,t1,0
 144:	0901                	addi	s2,s2,0
 146:	000c                	addi	a1,sp,0
 148:	0301                	addi	t1,t1,0
 14a:	0902                	slli	s2,s2,0x0
 14c:	0002                	0x2
 14e:	0301                	addi	t1,t1,0
 150:	00000907          	0x907
 154:	0301                	addi	t1,t1,0
 156:	097c                	addi	a5,sp,156
 158:	0004                	addi	s1,sp,0
 15a:	0301                	addi	t1,t1,0
 15c:	090d                	addi	s2,s2,3
 15e:	0002                	0x2
 160:	0001                	nop
 162:	0402                	slli	s0,s0,0x0
 164:	0301                	addi	t1,t1,0
 166:	00020977          	0x20977
 16a:	0001                	nop
 16c:	0402                	slli	s0,s0,0x0
 16e:	0304                	addi	s1,sp,384
 170:	0904                	addi	s1,sp,144
 172:	000c                	addi	a1,sp,0
 174:	0001                	nop
 176:	0402                	slli	s0,s0,0x0
 178:	0304                	addi	s1,sp,384
 17a:	0902                	slli	s2,s2,0x0
 17c:	0006                	0x6
 17e:	0001                	nop
 180:	0402                	slli	s0,s0,0x0
 182:	0304                	addi	s1,sp,384
 184:	097e                	slli	s2,s2,0x1f
 186:	0002                	0x2
 188:	0001                	nop
 18a:	0402                	slli	s0,s0,0x0
 18c:	0304                	addi	s1,sp,384
 18e:	097e                	slli	s2,s2,0x1f
 190:	0002                	0x2
 192:	0001                	nop
 194:	0402                	slli	s0,s0,0x0
 196:	00030603          	lb	a2,0(t1) # ffff8000 <pulp__FC+0xffff8001>
 19a:	0409                	addi	s0,s0,2
 19c:	0100                	addi	s0,sp,128
 19e:	0306                	slli	t1,t1,0x1
 1a0:	0909                	addi	s2,s2,2
 1a2:	0004                	addi	s1,sp,0
 1a4:	0301                	addi	t1,t1,0
 1a6:	0901                	addi	s2,s2,0
 1a8:	0000                	unimp
 1aa:	0001                	nop
 1ac:	0402                	slli	s0,s0,0x0
 1ae:	0601                	addi	a2,a2,0
 1b0:	04090003          	lb	zero,64(s2) # fffe2040 <pulp__FC+0xfffe2041>
 1b4:	0100                	addi	s0,sp,128
 1b6:	0306                	slli	t1,t1,0x1
 1b8:	0902                	slli	s2,s2,0x0
 1ba:	0006                	0x6
 1bc:	0301                	addi	t1,t1,0
 1be:	0901                	addi	s2,s2,0
 1c0:	0002                	0x2
 1c2:	0301                	addi	t1,t1,0
 1c4:	0902                	slli	s2,s2,0x0
 1c6:	0006                	0x6
 1c8:	0301                	addi	t1,t1,0
 1ca:	0902                	slli	s2,s2,0x0
 1cc:	0000                	unimp
 1ce:	0001                	nop
 1d0:	0402                	slli	s0,s0,0x0
 1d2:	0601                	addi	a2,a2,0
 1d4:	04090003          	lb	zero,64(s2)
 1d8:	0100                	addi	s0,sp,128
 1da:	0306                	slli	t1,t1,0x1
 1dc:	00080903          	lb	s2,0(a6)
 1e0:	0301                	addi	t1,t1,0
 1e2:	0901                	addi	s2,s2,0
 1e4:	0002                	0x2
 1e6:	0301                	addi	t1,t1,0
 1e8:	00c8                	addi	a0,sp,68
 1ea:	0209                	addi	tp,tp,2
 1ec:	0100                	addi	s0,sp,128
 1ee:	0e090003          	lb	zero,224(s2)
 1f2:	0100                	addi	s0,sp,128
 1f4:	04090203          	lb	tp,64(s2)
 1f8:	0100                	addi	s0,sp,128
 1fa:	04090203          	lb	tp,64(s2)
 1fe:	0100                	addi	s0,sp,128
 200:	08090303          	lb	t1,128(s2)
 204:	0100                	addi	s0,sp,128
 206:	0c090103          	lb	sp,192(s2)
 20a:	0100                	addi	s0,sp,128
 20c:	04090103          	lb	sp,64(s2)
 210:	0100                	addi	s0,sp,128
 212:	02090103          	lb	sp,32(s2)
 216:	0100                	addi	s0,sp,128
 218:	04097803          	0x4097803
 21c:	0100                	addi	s0,sp,128
 21e:	04090803          	lb	a6,64(s2)
 222:	0100                	addi	s0,sp,128
 224:	06090203          	lb	tp,96(s2)
 228:	0100                	addi	s0,sp,128
 22a:	04097603          	0x4097603
 22e:	0100                	addi	s0,sp,128
 230:	06091003          	lh	zero,96(s2)
 234:	0100                	addi	s0,sp,128
 236:	0c095f03          	lhu	t5,192(s2)
 23a:	0100                	addi	s0,sp,128
 23c:	04092503          	lw	a0,64(s2)
 240:	0100                	addi	s0,sp,128
 242:	04090503          	lb	a0,64(s2)
 246:	0100                	addi	s0,sp,128
 248:	06090103          	lb	sp,96(s2)
 24c:	0100                	addi	s0,sp,128
 24e:	14096c03          	p.elw	s8,320(s2)
 252:	0100                	addi	s0,sp,128
 254:	04096903          	p.elw	s2,64(s2)
 258:	0100                	addi	s0,sp,128
 25a:	04091c03          	lh	s8,64(s2)
 25e:	0100                	addi	s0,sp,128
 260:	12097f03          	0x12097f03
 264:	0100                	addi	s0,sp,128
 266:	02096503          	p.elw	a0,32(s2)
 26a:	0100                	addi	s0,sp,128
 26c:	08092103          	lw	sp,128(s2)
 270:	0100                	addi	s0,sp,128
 272:	04095f03          	lhu	t5,64(s2)
 276:	0100                	addi	s0,sp,128
 278:	04092503          	lw	a0,64(s2)
 27c:	0100                	addi	s0,sp,128
 27e:	04090803          	lb	a6,64(s2)
 282:	0100                	addi	s0,sp,128
 284:	08090003          	lb	zero,128(s2)
 288:	0100                	addi	s0,sp,128
 28a:	04090703          	lb	a4,64(s2)
 28e:	0100                	addi	s0,sp,128
 290:	02090203          	lb	tp,32(s2)
 294:	0100                	addi	s0,sp,128
 296:	04090203          	lb	tp,64(s2)
 29a:	0100                	addi	s0,sp,128
 29c:	04097e03          	0x4097e03
 2a0:	0100                	addi	s0,sp,128
 2a2:	04090203          	lb	tp,64(s2)
 2a6:	0100                	addi	s0,sp,128
 2a8:	02092d03          	lw	s10,32(s2)
 2ac:	0100                	addi	s0,sp,128
 2ae:	0a095603          	lhu	a2,160(s2)
 2b2:	0100                	addi	s0,sp,128
 2b4:	0c090303          	lb	t1,192(s2)
 2b8:	0100                	addi	s0,sp,128
 2ba:	04090403          	lb	s0,64(s2)
 2be:	0100                	addi	s0,sp,128
 2c0:	04090303          	lb	t1,64(s2)
 2c4:	0100                	addi	s0,sp,128
 2c6:	02097c03          	0x2097c03
 2ca:	0100                	addi	s0,sp,128
 2cc:	04090403          	lb	s0,64(s2)
 2d0:	0100                	addi	s0,sp,128
 2d2:	097fb503          	0x97fb503
 2d6:	0004                	addi	s1,sp,0
 2d8:	0301                	addi	t1,t1,0
 2da:	0901                	addi	s2,s2,0
 2dc:	0004                	addi	s1,sp,0
 2de:	0301                	addi	t1,t1,0
 2e0:	097f                	0x97f
 2e2:	0008                	addi	a0,sp,0
 2e4:	0301                	addi	t1,t1,0
 2e6:	0975                	addi	s2,s2,29
 2e8:	0004                	addi	s1,sp,0
 2ea:	0301                	addi	t1,t1,0
 2ec:	020900e3          	beqz	s2,b0c <_min_stack-0x14f4>
 2f0:	0100                	addi	s0,sp,128
 2f2:	097fa803          	lw	a6,151(t6) # ffffc097 <pulp__FC+0xffffc098>
 2f6:	0002                	0x2
 2f8:	0301                	addi	t1,t1,0
 2fa:	00d9                	addi	ra,ra,22
 2fc:	0c09                	addi	s8,s8,2
 2fe:	0100                	addi	s0,sp,128
 300:	097fa703          	lw	a4,151(t6)
 304:	0002                	0x2
 306:	0301                	addi	t1,t1,0
 308:	0901                	addi	s2,s2,0
 30a:	0008                	addi	a0,sp,0
 30c:	0301                	addi	t1,t1,0
 30e:	00d8                	addi	a4,sp,68
 310:	0209                	addi	tp,tp,2
 312:	0100                	addi	s0,sp,128
 314:	097f9703          	lh	a4,151(t6)
 318:	0004                	addi	s1,sp,0
 31a:	0301                	addi	t1,t1,0
 31c:	00e9                	addi	ra,ra,26
 31e:	0609                	addi	a2,a2,2
 320:	0100                	addi	s0,sp,128
 322:	097f9803          	lh	a6,151(t6)
 326:	0008                	addi	a0,sp,0
 328:	0301                	addi	t1,t1,0
 32a:	0901                	addi	s2,s2,0
 32c:	0006                	0x6
 32e:	0301                	addi	t1,t1,0
 330:	0901                	addi	s2,s2,0
 332:	0006                	0x6
 334:	0301                	addi	t1,t1,0
 336:	0901                	addi	s2,s2,0
 338:	0006                	0x6
 33a:	0301                	addi	t1,t1,0
 33c:	0901                	addi	s2,s2,0
 33e:	0002                	0x2
 340:	0301                	addi	t1,t1,0
 342:	0902                	slli	s2,s2,0x0
 344:	0004                	addi	s1,sp,0
 346:	0301                	addi	t1,t1,0
 348:	00c0                	addi	s0,sp,68
 34a:	0a09                	addi	s4,s4,2
 34c:	0100                	addi	s0,sp,128
 34e:	04091703          	lh	a4,64(s2)
 352:	0100                	addi	s0,sp,128
 354:	04090203          	lb	tp,64(s2)
 358:	0100                	addi	s0,sp,128
 35a:	04090103          	lb	sp,64(s2)
 35e:	0100                	addi	s0,sp,128
 360:	02090203          	lb	tp,32(s2)
 364:	0100                	addi	s0,sp,128
 366:	0a090103          	lb	sp,160(s2)
 36a:	0100                	addi	s0,sp,128
 36c:	02097903          	0x2097903
 370:	0100                	addi	s0,sp,128
 372:	02091103          	lh	sp,32(s2)
 376:	0100                	addi	s0,sp,128
 378:	02090103          	lb	sp,32(s2)
 37c:	0100                	addi	s0,sp,128
 37e:	097fa703          	lw	a4,151(t6)
 382:	0008                	addi	a0,sp,0
 384:	0301                	addi	t1,t1,0
 386:	00dd                	addi	ra,ra,23
 388:	0a09                	addi	s4,s4,2
 38a:	0100                	addi	s0,sp,128
 38c:	06090703          	lb	a4,96(s2)
 390:	0100                	addi	s0,sp,128
 392:	0a096603          	p.elw	a2,160(s2)
 396:	0100                	addi	s0,sp,128
 398:	02090103          	lb	sp,32(s2)
 39c:	0100                	addi	s0,sp,128
 39e:	06091603          	lh	a2,96(s2)
 3a2:	0100                	addi	s0,sp,128
 3a4:	08095003          	lhu	zero,128(s2)
 3a8:	0100                	addi	s0,sp,128
 3aa:	02093003          	0x2093003
 3ae:	0100                	addi	s0,sp,128
 3b0:	097ee803          	p.elw	a6,151(t4)
 3b4:	0004                	addi	s1,sp,0
 3b6:	0301                	addi	t1,t1,0
 3b8:	0902                	slli	s2,s2,0x0
 3ba:	0000                	unimp
 3bc:	0001                	nop
 3be:	0402                	slli	s0,s0,0x0
 3c0:	0601                	addi	a2,a2,0
 3c2:	04090003          	lb	zero,64(s2)
 3c6:	0100                	addi	s0,sp,128
 3c8:	0306                	slli	t1,t1,0x1
 3ca:	0901                	addi	s2,s2,0
 3cc:	0008                	addi	a0,sp,0
 3ce:	0301                	addi	t1,t1,0
 3d0:	00020933          	add	s2,tp,zero
 3d4:	0301                	addi	t1,t1,0
 3d6:	0901                	addi	s2,s2,0
 3d8:	0006                	0x6
 3da:	0301                	addi	t1,t1,0
 3dc:	097f                	0x97f
 3de:	0004                	addi	s1,sp,0
 3e0:	0301                	addi	t1,t1,0
 3e2:	0901                	addi	s2,s2,0
 3e4:	0002                	0x2
 3e6:	0301                	addi	t1,t1,0
 3e8:	0902                	slli	s2,s2,0x0
 3ea:	0002                	0x2
 3ec:	0301                	addi	t1,t1,0
 3ee:	01aa                	slli	gp,gp,0xa
 3f0:	0a09                	addi	s4,s4,2
 3f2:	0100                	addi	s0,sp,128
 3f4:	04090403          	lb	s0,64(s2)
 3f8:	0100                	addi	s0,sp,128
 3fa:	02097c03          	0x2097c03
 3fe:	0100                	addi	s0,sp,128
 400:	12090003          	lb	zero,288(s2)
 404:	0100                	addi	s0,sp,128
 406:	10090403          	lb	s0,256(s2)
 40a:	0100                	addi	s0,sp,128
 40c:	097fba03          	0x97fba03
 410:	0002                	0x2
 412:	0301                	addi	t1,t1,0
 414:	0905                	addi	s2,s2,1
 416:	0002                	0x2
 418:	0301                	addi	t1,t1,0
 41a:	0906                	slli	s2,s2,0x1
 41c:	0004                	addi	s1,sp,0
 41e:	0301                	addi	t1,t1,0
 420:	0905                	addi	s2,s2,1
 422:	0004                	addi	s1,sp,0
 424:	0301                	addi	t1,t1,0
 426:	0906                	slli	s2,s2,0x1
 428:	0004                	addi	s1,sp,0
 42a:	0301                	addi	t1,t1,0
 42c:	0905                	addi	s2,s2,1
 42e:	0002                	0x2
 430:	0301                	addi	t1,t1,0
 432:	0968                	addi	a0,sp,156
 434:	0008                	addi	a0,sp,0
 436:	0301                	addi	t1,t1,0
 438:	060900cb          	0x60900cb
 43c:	0100                	addi	s0,sp,128
 43e:	097fb703          	0x97fb703
 442:	001a                	0x1a
 444:	0301                	addi	t1,t1,0
 446:	0904                	addi	s1,sp,144
 448:	0004                	addi	s1,sp,0
 44a:	0301                	addi	t1,t1,0
 44c:	0901                	addi	s2,s2,0
 44e:	000a                	0xa
 450:	0301                	addi	t1,t1,0
 452:	097e                	slli	s2,s2,0x1f
 454:	0004                	addi	s1,sp,0
 456:	0301                	addi	t1,t1,0
 458:	00020903          	lb	s2,0(tp) # 19000 <_stack_len+0x11000>
 45c:	0301                	addi	t1,t1,0
 45e:	0902                	slli	s2,s2,0x0
 460:	0004                	addi	s1,sp,0
 462:	0301                	addi	t1,t1,0
 464:	0901                	addi	s2,s2,0
 466:	0004                	addi	s1,sp,0
 468:	0301                	addi	t1,t1,0
 46a:	0902                	slli	s2,s2,0x0
 46c:	0004                	addi	s1,sp,0
 46e:	0301                	addi	t1,t1,0
 470:	0978                	addi	a4,sp,156
 472:	000c                	addi	a1,sp,0
 474:	0301                	addi	t1,t1,0
 476:	090d                	addi	s2,s2,3
 478:	0002                	0x2
 47a:	0301                	addi	t1,t1,0
 47c:	0904                	addi	s1,sp,144
 47e:	0016                	0x16
 480:	0301                	addi	t1,t1,0
 482:	0901                	addi	s2,s2,0
 484:	0008                	addi	a0,sp,0
 486:	0301                	addi	t1,t1,0
 488:	0901                	addi	s2,s2,0
 48a:	0006                	0x6
 48c:	0301                	addi	t1,t1,0
 48e:	0916                	slli	s2,s2,0x5
 490:	0008                	addi	a0,sp,0
 492:	0301                	addi	t1,t1,0
 494:	0962                	slli	s2,s2,0x18
 496:	0004                	addi	s1,sp,0
 498:	0301                	addi	t1,t1,0
 49a:	097f                	0x97f
 49c:	0004                	addi	s1,sp,0
 49e:	0301                	addi	t1,t1,0
 4a0:	0904                	addi	s1,sp,144
 4a2:	0004                	addi	s1,sp,0
 4a4:	0301                	addi	t1,t1,0
 4a6:	097f                	0x97f
 4a8:	0004                	addi	s1,sp,0
 4aa:	0301                	addi	t1,t1,0
 4ac:	0902                	slli	s2,s2,0x0
 4ae:	0002                	0x2
 4b0:	0301                	addi	t1,t1,0
 4b2:	00040907          	0x40907
 4b6:	0301                	addi	t1,t1,0
 4b8:	0901                	addi	s2,s2,0
 4ba:	0008                	addi	a0,sp,0
 4bc:	0301                	addi	t1,t1,0
 4be:	0964                	addi	s1,sp,156
 4c0:	0014                	addi	a3,sp,0
 4c2:	0301                	addi	t1,t1,0
 4c4:	091f 0004 0301      	0x3010004091f
 4ca:	0901                	addi	s2,s2,0
 4cc:	0008                	addi	a0,sp,0
 4ce:	0301                	addi	t1,t1,0
 4d0:	000c0903          	lb	s2,0(s8) # 19000 <_stack_len+0x11000>
 4d4:	0301                	addi	t1,t1,0
 4d6:	0901                	addi	s2,s2,0
 4d8:	0008                	addi	a0,sp,0
 4da:	0301                	addi	t1,t1,0
 4dc:	0904                	addi	s1,sp,144
 4de:	0008                	addi	a0,sp,0
 4e0:	0301                	addi	t1,t1,0
 4e2:	097f                	0x97f
 4e4:	0006                	0x6
 4e6:	0301                	addi	t1,t1,0
 4e8:	0901                	addi	s2,s2,0
 4ea:	0008                	addi	a0,sp,0
 4ec:	0301                	addi	t1,t1,0
 4ee:	000a0903          	lb	s2,0(s4)
 4f2:	0301                	addi	t1,t1,0
 4f4:	0901                	addi	s2,s2,0
 4f6:	0008                	addi	a0,sp,0
 4f8:	0301                	addi	t1,t1,0
 4fa:	0901                	addi	s2,s2,0
 4fc:	0006                	0x6
 4fe:	0301                	addi	t1,t1,0
 500:	097f                	0x97f
 502:	0004                	addi	s1,sp,0
 504:	0301                	addi	t1,t1,0
 506:	0902                	slli	s2,s2,0x0
 508:	0004                	addi	s1,sp,0
 50a:	0301                	addi	t1,t1,0
 50c:	0956                	slli	s2,s2,0x15
 50e:	0008                	addi	a0,sp,0
 510:	0301                	addi	t1,t1,0
 512:	02097f8f          	0x2097f8f
 516:	0100                	addi	s0,sp,128
 518:	0901a303          	lw	t1,144(gp) # 602 <_min_stack-0x19fe>
 51c:	0004                	addi	s1,sp,0
 51e:	0301                	addi	t1,t1,0
 520:	7edd                	lui	t4,0xffff7
 522:	0209                	addi	tp,tp,2
 524:	0100                	addi	s0,sp,128
 526:	097f8f03          	lb	t5,151(t6)
 52a:	0004                	addi	s1,sp,0
 52c:	0301                	addi	t1,t1,0
 52e:	0901                	addi	s2,s2,0
 530:	0000                	unimp
 532:	0301                	addi	t1,t1,0
 534:	0a0902ab          	p.sb	zero,165(s2!)
 538:	0100                	addi	s0,sp,128
 53a:	0a090003          	lb	zero,160(s2)
 53e:	0100                	addi	s0,sp,128
 540:	02090303          	lb	t1,32(s2)
 544:	0100                	addi	s0,sp,128
 546:	097ec203          	lbu	tp,151(t4) # ffff7097 <pulp__FC+0xffff7098>
 54a:	000e                	0xe
 54c:	0301                	addi	t1,t1,0
 54e:	01c4                	addi	s1,sp,196
 550:	0409                	addi	s0,s0,2
 552:	0100                	addi	s0,sp,128
 554:	097ebc03          	0x97ebc03
 558:	000e                	0xe
 55a:	0301                	addi	t1,t1,0
 55c:	01c6                	slli	gp,gp,0x11
 55e:	0409                	addi	s0,s0,2
 560:	0100                	addi	s0,sp,128
 562:	10091103          	lh	sp,256(s2)
 566:	0100                	addi	s0,sp,128
 568:	0200                	addi	s0,sp,256
 56a:	0104                	addi	s1,sp,128
 56c:	0306                	slli	t1,t1,0x1
 56e:	0900                	addi	s0,sp,144
 570:	0008                	addi	a0,sp,0
 572:	0601                	addi	a2,a2,0
 574:	0a090303          	lb	t1,160(s2)
 578:	0100                	addi	s0,sp,128
 57a:	08090203          	lb	tp,128(s2)
 57e:	0100                	addi	s0,sp,128
 580:	02090203          	lb	tp,32(s2)
 584:	0100                	addi	s0,sp,128
 586:	02090703          	lb	a4,32(s2)
 58a:	0100                	addi	s0,sp,128
 58c:	04097a03          	0x4097a03
 590:	0100                	addi	s0,sp,128
 592:	02090103          	lb	sp,32(s2)
 596:	0100                	addi	s0,sp,128
 598:	02090103          	lb	sp,32(s2)
 59c:	0100                	addi	s0,sp,128
 59e:	02090103          	lb	sp,32(s2)
 5a2:	0100                	addi	s0,sp,128
 5a4:	04090303          	lb	t1,64(s2)
 5a8:	0100                	addi	s0,sp,128
 5aa:	0200                	addi	s0,sp,256
 5ac:	0104                	addi	s1,sp,128
 5ae:	0306                	slli	t1,t1,0x1
 5b0:	0900                	addi	s0,sp,144
 5b2:	0008                	addi	a0,sp,0
 5b4:	0001                	nop
 5b6:	0402                	slli	s0,s0,0x0
 5b8:	0302                	slli	t1,t1,0x0
 5ba:	0900                	addi	s0,sp,144
 5bc:	0004                	addi	s1,sp,0
 5be:	0001                	nop
 5c0:	0402                	slli	s0,s0,0x0
 5c2:	09000303          	lb	t1,144(zero) # 90 <_min_stack-0x1f70>
 5c6:	0004                	addi	s1,sp,0
 5c8:	0001                	nop
 5ca:	0402                	slli	s0,s0,0x0
 5cc:	0304                	addi	s1,sp,384
 5ce:	0900                	addi	s0,sp,144
 5d0:	0004                	addi	s1,sp,0
 5d2:	0601                	addi	a2,a2,0
 5d4:	04090203          	lb	tp,64(s2)
 5d8:	0100                	addi	s0,sp,128
 5da:	04090403          	lb	s0,64(s2)
 5de:	0100                	addi	s0,sp,128
 5e0:	1409                	addi	s0,s0,-30
 5e2:	0000                	unimp
 5e4:	0101                	addi	sp,sp,0
 5e6:	0145                	addi	sp,sp,17
 5e8:	0000                	unimp
 5ea:	0002                	0x2
 5ec:	00c9                	addi	ra,ra,18
 5ee:	0000                	unimp
 5f0:	0101                	addi	sp,sp,0
 5f2:	000d0efb          	0xd0efb
 5f6:	0101                	addi	sp,sp,0
 5f8:	0101                	addi	sp,sp,0
 5fa:	0000                	unimp
 5fc:	0100                	addi	s0,sp,128
 5fe:	0000                	unimp
 600:	2f01                	jal	d10 <_min_stack-0x12f0>
 602:	7375                	lui	t1,0xffffd
 604:	2f72                	fld	ft10,280(sp)
 606:	6170                	flw	fa2,68(a0)
 608:	702f6b63          	bltu	t5,sp,d1e <_min_stack-0x12e2>
 60c:	6c75                	lui	s8,0x1d
 60e:	7370                	flw	fa2,100(a4)
 610:	6b64                	flw	fs1,84(a4)
 612:	312d                	jal	23c <_min_stack-0x1dc4>
 614:	302e                	fld	ft0,232(sp)
 616:	6b2d                	lui	s6,0xb
 618:	612f6667          	0x612f6667
 61c:	7472                	flw	fs0,60(sp)
 61e:	6669                	lui	a2,0x1a
 620:	6361                	lui	t1,0x18
 622:	6f74                	flw	fa3,92(a4)
 624:	7972                	flw	fs2,60(sp)
 626:	6c75702f          	0x6c75702f
 62a:	2d70                	fld	fa2,216(a0)
 62c:	2d6b6473          	csrrsi	s0,0x2d6,22
 630:	6572                	flw	fa0,28(sp)
 632:	656c                	flw	fa1,76(a0)
 634:	7361                	lui	t1,0xffff8
 636:	2f65                	jal	dee <_min_stack-0x1212>
 638:	6b70                	flw	fa2,84(a4)
 63a:	75702f67          	0x75702f67
 63e:	706c                	flw	fa1,100(s0)
 640:	725f 7369 7663      	0x76637369725f
 646:	675f 6363 312f      	0x312f6363675f
 64c:	302e                	fld	ft0,232(sp)
 64e:	312e                	fld	ft2,232(sp)
 650:	2f36                	fld	ft10,328(sp)
 652:	696c                	flw	fa1,84(a0)
 654:	2f62                	fld	ft10,24(sp)
 656:	2f636367          	0x2f636367
 65a:	6972                	flw	fs2,28(sp)
 65c:	33766373          	csrrsi	t1,0x337,12
 660:	2d32                	fld	fs10,264(sp)
 662:	6e75                	lui	t3,0x1d
 664:	776f6e6b          	0x776f6e6b
 668:	2d6e                	fld	fs10,216(sp)
 66a:	6c65                	lui	s8,0x19
 66c:	2f66                	fld	ft10,88(sp)
 66e:	2e312e37          	lui	t3,0x2e312
 672:	2f31                	jal	d8e <_min_stack-0x1272>
 674:	6e69                	lui	t3,0x1a
 676:	64756c63          	bltu	a0,t2,cce <_min_stack-0x1332>
 67a:	0065                	c.addi	zero,25
 67c:	7000                	flw	fs0,32(s0)
 67e:	6572                	flw	fa0,28(sp)
 680:	6f62                	flw	ft10,24(sp)
 682:	635f746f          	jal	s0,f84b6 <tohost+0xd84ae>
 686:	2e65646f          	jal	s0,5696c <tohost+0x36964>
 68a:	00000063          	beqz	zero,68a <_min_stack-0x1976>
 68e:	6800                	flw	fs0,16(s0)
 690:	616d                	addi	sp,sp,240
 692:	6d735f63          	ble	s7,t1,d70 <_min_stack-0x1290>
 696:	74656b6f          	jal	s6,56ddc <tohost+0x36dd4>
 69a:	7365                	lui	t1,0xffff9
 69c:	5f74                	lw	a3,124(a4)
 69e:	65646f63          	bltu	s0,s6,cfc <_min_stack-0x1304>
 6a2:	682e                	flw	fa6,200(sp)
 6a4:	0000                	unimp
 6a6:	0000                	unimp
 6a8:	69647473          	csrrci	s0,0x696,8
 6ac:	746e                	flw	fs0,248(sp)
 6ae:	672d                	lui	a4,0xb
 6b0:	682e6363          	bltu	t3,sp,d36 <_min_stack-0x12ca>
 6b4:	0100                	addi	s0,sp,128
 6b6:	0000                	unimp
 6b8:	0000                	unimp
 6ba:	0205                	addi	tp,tp,1
 6bc:	053a                	slli	a0,a0,0xe
 6be:	e000                	fsw	fs0,0(s0)
 6c0:	03011103          	lh	sp,48(sp)
 6c4:	090c                	addi	a1,sp,144
 6c6:	0000                	unimp
 6c8:	0301                	addi	t1,t1,0
 6ca:	0902                	slli	s2,s2,0x0
 6cc:	0006                	0x6
 6ce:	0301                	addi	t1,t1,0
 6d0:	097e                	slli	s2,s2,0x1f
 6d2:	0002                	0x2
 6d4:	0301                	addi	t1,t1,0
 6d6:	0902                	slli	s2,s2,0x0
 6d8:	0002                	0x2
 6da:	0301                	addi	t1,t1,0
 6dc:	0905                	addi	s2,s2,1
 6de:	000a                	0xa
 6e0:	0301                	addi	t1,t1,0
 6e2:	0901                	addi	s2,s2,0
 6e4:	0002                	0x2
 6e6:	0301                	addi	t1,t1,0
 6e8:	097a                	slli	s2,s2,0x1e
 6ea:	0006                	0x6
 6ec:	0301                	addi	t1,t1,0
 6ee:	0902                	slli	s2,s2,0x0
 6f0:	0004                	addi	s1,sp,0
 6f2:	0301                	addi	t1,t1,0
 6f4:	0901                	addi	s2,s2,0
 6f6:	000a                	0xa
 6f8:	0301                	addi	t1,t1,0
 6fa:	0901                	addi	s2,s2,0
 6fc:	0008                	addi	a0,sp,0
 6fe:	0301                	addi	t1,t1,0
 700:	0901                	addi	s2,s2,0
 702:	0008                	addi	a0,sp,0
 704:	0301                	addi	t1,t1,0
 706:	0004097b          	0x4097b
 70a:	0301                	addi	t1,t1,0
 70c:	0905                	addi	s2,s2,1
 70e:	0002                	0x2
 710:	0301                	addi	t1,t1,0
 712:	0901                	addi	s2,s2,0
 714:	0004                	addi	s1,sp,0
 716:	0301                	addi	t1,t1,0
 718:	097a                	slli	s2,s2,0x1e
 71a:	0002                	0x2
 71c:	0301                	addi	t1,t1,0
 71e:	090a                	slli	s2,s2,0x2
 720:	0004                	addi	s1,sp,0
 722:	0301                	addi	t1,t1,0
 724:	0904                	addi	s1,sp,144
 726:	0004                	addi	s1,sp,0
 728:	0901                	addi	s2,s2,0
 72a:	0004                	addi	s1,sp,0
 72c:	0100                	addi	s0,sp,128
 72e:	be01                	j	23e <_min_stack-0x1dc2>
 730:	0001                	nop
 732:	0200                	addi	s0,sp,256
 734:	7300                	flw	fs0,32(a4)
 736:	0000                	unimp
 738:	0100                	addi	s0,sp,128
 73a:	fb01                	bnez	a4,64a <_min_stack-0x19b6>
 73c:	0d0e                	slli	s10,s10,0x3
 73e:	0100                	addi	s0,sp,128
 740:	0101                	addi	sp,sp,0
 742:	0001                	nop
 744:	0000                	unimp
 746:	0001                	nop
 748:	0100                	addi	s0,sp,128
 74a:	7263732f          	0x7263732f
 74e:	7461                	lui	s0,0xffff8
 750:	6d2f6863          	bltu	t5,s2,e20 <_min_stack-0x11e0>
 754:	6e616963          	bltu	sp,t1,e46 <_min_stack-0x11ba>
 758:	2f69                	jal	ef2 <_min_stack-0x110e>
 75a:	6568                	flw	fa0,76(a0)
 75c:	732d                	lui	t1,0xfffeb
 75e:	682f636f          	jal	t1,f6de0 <tohost+0xd6dd8>
 762:	7261                	lui	tp,0xffff8
 764:	7764                	flw	fs1,108(a4)
 766:	7261                	lui	tp,0xffff8
 768:	2f65                	jal	f20 <_min_stack-0x10e0>
 76a:	6b726f77          	0x6b726f77
 76e:	6e69                	lui	t3,0x1a
 770:	69645f67          	0x69645f67
 774:	2f72                	fld	ft10,280(sp)
 776:	6e65706f          	j	57e5c <tohost+0x37e54>
 77a:	6974                	flw	fa3,84(a0)
 77c:	6174                	flw	fa3,68(a0)
 77e:	2f6e                	fld	ft10,216(sp)
 780:	7768                	flw	fa0,108(a4)
 782:	706f742f          	0x706f742f
 786:	655f 7261 676c      	0x676c7261655f
 78c:	6572                	flw	fa0,28(sp)
 78e:	2f79                	jal	f2c <_min_stack-0x10d4>
 790:	742f7773          	csrrci	a4,0x742,30
 794:	7365                	lui	t1,0xffff9
 796:	7374                	flw	fa3,100(a4)
 798:	6d6f632f          	0x6d6f632f
 79c:	6f6d                	lui	t5,0x1b
 79e:	006e                	0x6e
 7a0:	6300                	flw	fs0,0(a4)
 7a2:	7472                	flw	fs0,60(sp)
 7a4:	2e30                	fld	fa2,88(a2)
 7a6:	00010053          	fadd.s	ft0,ft2,ft0,rne
 7aa:	0000                	unimp
 7ac:	0500                	addi	s0,sp,640
 7ae:	be02                	fsd	ft0,312(sp)
 7b0:	0004                	addi	s1,sp,0
 7b2:	1ae0                	addi	s0,sp,380
 7b4:	04090403          	lb	s0,64(s2)
 7b8:	0100                	addi	s0,sp,128
 7ba:	04090103          	lb	sp,64(s2)
 7be:	0100                	addi	s0,sp,128
 7c0:	02090103          	lb	sp,32(s2)
 7c4:	0100                	addi	s0,sp,128
 7c6:	02090103          	lb	sp,32(s2)
 7ca:	0100                	addi	s0,sp,128
 7cc:	02090103          	lb	sp,32(s2)
 7d0:	0100                	addi	s0,sp,128
 7d2:	02090103          	lb	sp,32(s2)
 7d6:	0100                	addi	s0,sp,128
 7d8:	02090103          	lb	sp,32(s2)
 7dc:	0100                	addi	s0,sp,128
 7de:	02090103          	lb	sp,32(s2)
 7e2:	0100                	addi	s0,sp,128
 7e4:	02090103          	lb	sp,32(s2)
 7e8:	0100                	addi	s0,sp,128
 7ea:	02090103          	lb	sp,32(s2)
 7ee:	0100                	addi	s0,sp,128
 7f0:	02090103          	lb	sp,32(s2)
 7f4:	0100                	addi	s0,sp,128
 7f6:	02090103          	lb	sp,32(s2)
 7fa:	0100                	addi	s0,sp,128
 7fc:	02090103          	lb	sp,32(s2)
 800:	0100                	addi	s0,sp,128
 802:	02090103          	lb	sp,32(s2)
 806:	0100                	addi	s0,sp,128
 808:	02090103          	lb	sp,32(s2)
 80c:	0100                	addi	s0,sp,128
 80e:	02090103          	lb	sp,32(s2)
 812:	0100                	addi	s0,sp,128
 814:	02090103          	lb	sp,32(s2)
 818:	0100                	addi	s0,sp,128
 81a:	02090103          	lb	sp,32(s2)
 81e:	0100                	addi	s0,sp,128
 820:	02090103          	lb	sp,32(s2)
 824:	0100                	addi	s0,sp,128
 826:	02090103          	lb	sp,32(s2)
 82a:	0100                	addi	s0,sp,128
 82c:	02090103          	lb	sp,32(s2)
 830:	0100                	addi	s0,sp,128
 832:	02090103          	lb	sp,32(s2)
 836:	0100                	addi	s0,sp,128
 838:	02090103          	lb	sp,32(s2)
 83c:	0100                	addi	s0,sp,128
 83e:	02090103          	lb	sp,32(s2)
 842:	0100                	addi	s0,sp,128
 844:	02090103          	lb	sp,32(s2)
 848:	0100                	addi	s0,sp,128
 84a:	02090103          	lb	sp,32(s2)
 84e:	0100                	addi	s0,sp,128
 850:	02090103          	lb	sp,32(s2)
 854:	0100                	addi	s0,sp,128
 856:	02090103          	lb	sp,32(s2)
 85a:	0100                	addi	s0,sp,128
 85c:	02090103          	lb	sp,32(s2)
 860:	0100                	addi	s0,sp,128
 862:	02090103          	lb	sp,32(s2)
 866:	0100                	addi	s0,sp,128
 868:	02090103          	lb	sp,32(s2)
 86c:	0100                	addi	s0,sp,128
 86e:	02090303          	lb	t1,32(s2)
 872:	0100                	addi	s0,sp,128
 874:	08090703          	lb	a4,128(s2)
 878:	0100                	addi	s0,sp,128
 87a:	08090103          	lb	sp,128(s2)
 87e:	0100                	addi	s0,sp,128
 880:	08090103          	lb	sp,128(s2)
 884:	0100                	addi	s0,sp,128
 886:	04090403          	lb	s0,64(s2)
 88a:	0100                	addi	s0,sp,128
 88c:	04090103          	lb	sp,64(s2)
 890:	0100                	addi	s0,sp,128
 892:	02090103          	lb	sp,32(s2)
 896:	0100                	addi	s0,sp,128
 898:	04090603          	lb	a2,64(s2)
 89c:	0100                	addi	s0,sp,128
 89e:	04090103          	lb	sp,64(s2)
 8a2:	0100                	addi	s0,sp,128
 8a4:	04090103          	lb	sp,64(s2)
 8a8:	0100                	addi	s0,sp,128
 8aa:	04090303          	lb	t1,64(s2)
 8ae:	0100                	addi	s0,sp,128
 8b0:	04090103          	lb	sp,64(s2)
 8b4:	0100                	addi	s0,sp,128
 8b6:	0209                	addi	tp,tp,2
 8b8:	0000                	unimp
 8ba:	0101                	addi	sp,sp,0
 8bc:	0500                	addi	s0,sp,640
 8be:	0002                	0x2
 8c0:	0000                	unimp
 8c2:	03e0                	addi	s0,sp,460
 8c4:	00d4                	addi	a3,sp,68
 8c6:	0301                	addi	t1,t1,0
 8c8:	0902                	slli	s2,s2,0x0
 8ca:	0028                	addi	a0,sp,8
 8cc:	0301                	addi	t1,t1,0
 8ce:	0902                	slli	s2,s2,0x0
 8d0:	0004                	addi	s1,sp,0
 8d2:	0301                	addi	t1,t1,0
 8d4:	0905                	addi	s2,s2,1
 8d6:	0004                	addi	s1,sp,0
 8d8:	0301                	addi	t1,t1,0
 8da:	0901                	addi	s2,s2,0
 8dc:	0048                	addi	a0,sp,4
 8de:	0301                	addi	t1,t1,0
 8e0:	0901                	addi	s2,s2,0
 8e2:	0004                	addi	s1,sp,0
 8e4:	0301                	addi	t1,t1,0
 8e6:	0905                	addi	s2,s2,1
 8e8:	0004                	addi	s1,sp,0
 8ea:	0901                	addi	s2,s2,0
 8ec:	0004                	addi	s1,sp,0
 8ee:	0100                	addi	s0,sp,128
 8f0:	01 00 00 02 00          	Address 0x00000000000008f0 is out of bounds.


Disassembly of section .debug_str:

00000000 <.debug_str>:
   0:	7263732f          	0x7263732f
   4:	7461                	lui	s0,0xffff8
   6:	6d2f6863          	bltu	t5,s2,6d6 <_min_stack-0x192a>
   a:	6e616963          	bltu	sp,t1,6fc <_min_stack-0x1904>
   e:	2f69                	jal	7a8 <_min_stack-0x1858>
  10:	6568                	flw	fa0,76(a0)
  12:	732d                	lui	t1,0xfffeb
  14:	682f636f          	jal	t1,f6696 <tohost+0xd668e>
  18:	7261                	lui	tp,0xffff8
  1a:	7764                	flw	fs1,108(a4)
  1c:	7261                	lui	tp,0xffff8
  1e:	2f65                	jal	7d6 <_min_stack-0x182a>
  20:	6b726f77          	0x6b726f77
  24:	6e69                	lui	t3,0x1a
  26:	69645f67          	0x69645f67
  2a:	2f72                	fld	ft10,280(sp)
  2c:	6e65706f          	j	57712 <tohost+0x3770a>
  30:	6974                	flw	fa3,84(a0)
  32:	6174                	flw	fa3,68(a0)
  34:	2f6e                	fld	ft10,216(sp)
  36:	7768                	flw	fa0,108(a4)
  38:	706f742f          	0x706f742f
  3c:	655f 7261 676c      	0x676c7261655f
  42:	6572                	flw	fa0,28(sp)
  44:	2f79                	jal	7e2 <_min_stack-0x181e>
  46:	742f7773          	csrrci	a4,0x742,30
  4a:	7365                	lui	t1,0xffff9
  4c:	7374                	flw	fa3,100(a4)
  4e:	6572702f          	0x6572702f
  52:	6f62                	flw	ft10,24(sp)
  54:	635f746f          	jal	s0,f7e88 <tohost+0xd7e80>
  58:	0065646f          	jal	s0,5605e <tohost+0x36056>
  5c:	7071                	0x7071
  5e:	6972                	flw	fs2,28(sp)
  60:	746e                	flw	fs0,248(sp)
  62:	68730073          	0x68730073
  66:	2074726f          	jal	tp,47a6c <tohost+0x27a64>
  6a:	6e69                	lui	t3,0x1a
  6c:	0074                	addi	a3,sp,12
  6e:	5f70                	lw	a2,124(a4)
  70:	6572                	flw	fa0,28(sp)
  72:	75700067          	jr	1879(zero) # 757 <_min_stack-0x18a9>
  76:	6374                	flw	fa3,68(a4)
  78:	6168                	flw	fa0,68(a0)
  7a:	0072                	0x72
  7c:	6170                	flw	fa2,68(a0)
  7e:	6364                	flw	fs1,68(a4)
  80:	6168                	flw	fa0,68(a0)
  82:	0072                	0x72
  84:	6175                	addi	sp,sp,368
  86:	7472                	flw	fs0,60(sp)
  88:	735f 7465 635f      	0x635f7465735f
  8e:	6766                	flw	fa4,88(sp)
  90:	7000                	flw	fs0,32(s0)
  92:	7475                	lui	s0,0xffffd
  94:	69770073          	0x69770073
  98:	7464                	flw	fs1,108(s0)
  9a:	0068                	addi	a0,sp,12
  9c:	7263732f          	0x7263732f
  a0:	7461                	lui	s0,0xffff8
  a2:	6d2f6863          	bltu	t5,s2,772 <_min_stack-0x188e>
  a6:	6e616963          	bltu	sp,t1,798 <_min_stack-0x1868>
  aa:	2f69                	jal	844 <_min_stack-0x17bc>
  ac:	6568                	flw	fa0,76(a0)
  ae:	732d                	lui	t1,0xfffeb
  b0:	682f636f          	jal	t1,f6732 <tohost+0xd672a>
  b4:	7261                	lui	tp,0xffff8
  b6:	7764                	flw	fs1,108(a4)
  b8:	7261                	lui	tp,0xffff8
  ba:	2f65                	jal	872 <_min_stack-0x178e>
  bc:	6b726f77          	0x6b726f77
  c0:	6e69                	lui	t3,0x1a
  c2:	69645f67          	0x69645f67
  c6:	2f72                	fld	ft10,280(sp)
  c8:	6e65706f          	j	577ae <tohost+0x377a6>
  cc:	6974                	flw	fa3,84(a0)
  ce:	6174                	flw	fa3,68(a0)
  d0:	2f6e                	fld	ft10,216(sp)
  d2:	7768                	flw	fa0,108(a4)
  d4:	706f742f          	0x706f742f
  d8:	655f 7261 676c      	0x676c7261655f
  de:	6572                	flw	fa0,28(sp)
  e0:	2f79                	jal	87e <_min_stack-0x1782>
  e2:	742f7773          	csrrci	a4,0x742,30
  e6:	7365                	lui	t1,0xffff9
  e8:	7374                	flw	fa3,100(a4)
  ea:	6d6f632f          	0x6d6f632f
  ee:	6f6d                	lui	t5,0x1b
  f0:	2f6e                	fld	ft10,216(sp)
  f2:	7475                	lui	s0,0xffffd
  f4:	6c69                	lui	s8,0x1a
  f6:	00632e73          	csrrs	t3,0x6,t1
  fa:	706d6973          	csrrsi	s2,0x706,26
  fe:	656c                	flw	fa1,76(a0)
 100:	655f 6378 685f      	0x685f6378655f
 106:	6e61                	lui	t3,0x18
 108:	6c64                	flw	fs1,92(s0)
 10a:	7265                	lui	tp,0xffff9
 10c:	6c00                	flw	fs0,24(s0)
 10e:	20676e6f          	jal	t3,76314 <tohost+0x5630c>
 112:	6f6c                	flw	fa1,92(a4)
 114:	676e                	flw	fa4,216(sp)
 116:	6920                	flw	fs0,80(a0)
 118:	746e                	flw	fs0,248(sp)
 11a:	7200                	flw	fs0,32(a2)
 11c:	6d65                	lui	s10,0x19
 11e:	3175                	jal	fffffdca <pulp__FC+0xfffffdcb>
 120:	5f30                	lw	a2,120(a4)
 122:	6174                	flw	fa3,68(a0)
 124:	6c62                	flw	fs8,24(sp)
 126:	0065                	c.addi	zero,25
 128:	6175                	addi	sp,sp,368
 12a:	7472                	flw	fs0,60(sp)
 12c:	675f 7465 6863      	0x68637465675f
 132:	7261                	lui	tp,0xffff8
 134:	7200                	flw	fs0,32(a2)
 136:	6d65                	lui	s10,0x19
 138:	3175                	jal	fffffde4 <pulp__FC+0xfffffde5>
 13a:	0030                	addi	a2,sp,8
 13c:	656c                	flw	fa1,76(a0)
 13e:	6274                	flw	fa3,68(a2)
 140:	7361                	lui	t1,0xffff8
 142:	0065                	c.addi	zero,25
 144:	69727473          	csrrci	s0,0x697,4
 148:	676e                	flw	fa4,216(sp)
 14a:	7000                	flw	fs0,32(s0)
 14c:	6972                	flw	fs2,28(sp)
 14e:	746e                	flw	fs0,248(sp)
 150:	0066                	0x66
 152:	7071                	0x7071
 154:	6972                	flw	fs2,28(sp)
 156:	746e                	flw	fs0,248(sp)
 158:	0069                	c.addi	zero,26
 15a:	6170                	flw	fa2,68(a0)
 15c:	6972                	flw	fs2,28(sp)
 15e:	7974                	flw	fa3,116(a0)
 160:	7000                	flw	fs0,32(s0)
 162:	725f 6765 0031      	0x316765725f
 168:	5f70                	lw	a2,124(a4)
 16a:	6572                	flw	fa0,28(sp)
 16c:	70003267          	0x70003267
 170:	725f 6765 0033      	0x336765725f
 176:	5f70                	lw	a2,124(a4)
 178:	6572                	flw	fa0,28(sp)
 17a:	6c003467          	0x6c003467
 17e:	20676e6f          	jal	t3,76384 <tohost+0x5637c>
 182:	6f64                	flw	fs1,92(a4)
 184:	6275                	lui	tp,0x1d
 186:	656c                	flw	fa1,76(a0)
 188:	7500                	flw	fs0,40(a0)
 18a:	736e                	flw	ft6,248(sp)
 18c:	6769                	lui	a4,0x1a
 18e:	656e                	flw	fa0,216(sp)
 190:	2064                	fld	fs1,192(s0)
 192:	72616863          	bltu	sp,t1,8c2 <_min_stack-0x173e>
 196:	7500                	flw	fs0,40(a0)
 198:	7261                	lui	tp,0xffff8
 19a:	5f74                	lw	a3,124(a4)
 19c:	74696177          	0x74696177
 1a0:	745f 5f78 6f64      	0x6f645f78745f
 1a6:	656e                	flw	fa0,216(sp)
 1a8:	4700                	lw	s0,8(a4)
 1aa:	554e                	lw	a0,240(sp)
 1ac:	4320                	lw	s0,64(a4)
 1ae:	3131                	jal	fffffdba <pulp__FC+0xfffffdbb>
 1b0:	3720                	fld	fs0,104(a4)
 1b2:	312e                	fld	ft2,232(sp)
 1b4:	312e                	fld	ft2,232(sp)
 1b6:	3220                	fld	fs0,96(a2)
 1b8:	3130                	fld	fa2,96(a0)
 1ba:	30353037          	lui	zero,0x30353
 1be:	2039                	jal	1cc <_min_stack-0x1e34>
 1c0:	6d2d                	lui	s10,0xb
 1c2:	7261                	lui	tp,0xffff8
 1c4:	723d6863          	bltu	s10,gp,8f4 <_min_stack-0x170c>
 1c8:	3376                	fld	ft6,376(sp)
 1ca:	6932                	flw	fs2,12(sp)
 1cc:	636d                	lui	t1,0x1b
 1ce:	2d20                	fld	fs0,88(a0)
 1d0:	616d                	addi	sp,sp,240
 1d2:	6962                	flw	fs2,24(sp)
 1d4:	693d                	lui	s2,0xf
 1d6:	706c                	flw	fa1,100(s0)
 1d8:	2d203233          	0x2d203233
 1dc:	636d                	lui	t1,0x1b
 1de:	6f6d                	lui	t5,0x1b
 1e0:	6564                	flw	fs1,76(a0)
 1e2:	3d6c                	fld	fa1,248(a0)
 1e4:	656d                	lui	a0,0x1b
 1e6:	6164                	flw	fs1,68(a0)
 1e8:	796e                	flw	fs2,248(sp)
 1ea:	2d20                	fld	fs0,88(a0)
 1ec:	4f2d2067          	0x4f2d2067
 1f0:	662d2073          	csrs	0x662,s10
 1f4:	6976                	flw	fs2,92(sp)
 1f6:	69626973          	csrrsi	s2,0x696,4
 1fa:	696c                	flw	fa1,84(a0)
 1fc:	7974                	flw	fa3,116(a0)
 1fe:	683d                	lui	a6,0xf
 200:	6469                	lui	s0,0x1a
 202:	6564                	flw	fs1,76(a0)
 204:	206e                	fld	ft0,216(sp)
 206:	662d                	lui	a2,0xb
 208:	7266                	flw	ft4,120(sp)
 20a:	6565                	lui	a0,0x19
 20c:	6e617473          	csrrci	s0,0x6e6,2
 210:	6964                	flw	fs1,84(a0)
 212:	676e                	flw	fa4,216(sp)
 214:	6c00                	flw	fs0,24(s0)
 216:	20676e6f          	jal	t3,7641c <tohost+0x56414>
 21a:	6f6c                	flw	fa1,92(a4)
 21c:	676e                	flw	fa4,216(sp)
 21e:	7520                	flw	fs0,104(a0)
 220:	736e                	flw	ft6,248(sp)
 222:	6769                	lui	a4,0x1a
 224:	656e                	flw	fa0,216(sp)
 226:	2064                	fld	fs1,192(s0)
 228:	6e69                	lui	t3,0x1a
 22a:	0074                	addi	a3,sp,12
 22c:	7071                	0x7071
 22e:	6972                	flw	fs2,28(sp)
 230:	746e                	flw	fs0,248(sp)
 232:	7500                	flw	fs0,40(a0)
 234:	6e69                	lui	t3,0x1a
 236:	3174                	fld	fa3,224(a0)
 238:	5f36                	lw	t5,108(sp)
 23a:	0074                	addi	a3,sp,12
 23c:	6c70                	flw	fa2,92(s0)
 23e:	6369                	lui	t1,0x1a
 240:	635f 6568 6b63      	0x6b636568635f
 246:	7300                	flw	fs0,32(a4)
 248:	6f68                	flw	fa0,92(a4)
 24a:	7472                	flw	fs0,60(sp)
 24c:	7520                	flw	fs0,104(a0)
 24e:	736e                	flw	ft6,248(sp)
 250:	6769                	lui	a4,0x1a
 252:	656e                	flw	fa0,216(sp)
 254:	2064                	fld	fs1,192(s0)
 256:	6e69                	lui	t3,0x1a
 258:	0074                	addi	a3,sp,12
 25a:	7270                	flw	fa2,100(a2)
 25c:	6e69                	lui	t3,0x1a
 25e:	5f74                	lw	a3,124(a4)
 260:	7562                	flw	fa0,56(sp)
 262:	0066                	0x66
 264:	7071                	0x7071
 266:	6972                	flw	fs2,28(sp)
 268:	746e                	flw	fs0,248(sp)
 26a:	72616863          	bltu	sp,t1,99a <_min_stack-0x1666>
 26e:	5f00                	lw	s0,56(a4)
 270:	625f 6975 746c      	0x746c6975625f
 276:	6e69                	lui	t3,0x1a
 278:	765f 5f61 696c      	0x696c5f61765f
 27e:	64007473          	csrrci	s0,0x640,0
 282:	7669                	lui	a2,0xffffa
 284:	3175                	jal	ffffff30 <pulp__FC+0xffffff31>
 286:	0030                	addi	a2,sp,8
 288:	6175                	addi	sp,sp,368
 28a:	7472                	flw	fs0,60(sp)
 28c:	735f 6e65 6364      	0x63646e65735f
 292:	6168                	flw	fa0,68(a0)
 294:	0072                	0x72
 296:	5f6b6c63          	bltu	s6,s6,88e <_min_stack-0x1772>
 29a:	6e756f63          	bltu	a0,t2,998 <_min_stack-0x1668>
 29e:	6574                	flw	fa3,76(a0)
 2a0:	0072                	0x72
 2a2:	5f5f 6e67 6375      	0x63756e675f5f
 2a8:	765f 5f61 696c      	0x696c5f61765f
 2ae:	65007473          	csrrci	s0,0x650,0
 2b2:	7478                	flw	fa4,108(s0)
 2b4:	7265                	lui	tp,0xffff9
 2b6:	616e                	flw	ft2,216(sp)
 2b8:	5f6c                	lw	a1,124(a4)
 2ba:	7269                	lui	tp,0xffffa
 2bc:	5f71                	li	t5,-4
 2be:	6168                	flw	fa0,68(a0)
 2c0:	646e                	flw	fs0,216(sp)
 2c2:	656c                	flw	fa1,76(a0)
 2c4:	0072                	0x72
 2c6:	6175                	addi	sp,sp,368
 2c8:	7472                	flw	fs0,60(sp)
 2ca:	735f 6e65 0064      	0x646e65735f
 2d0:	626d                	lui	tp,0x1b
 2d2:	695f786f          	jal	a6,f8166 <tohost+0xd815e>
 2d6:	0064                	addi	s1,sp,12
 2d8:	6f66                	flw	ft10,88(sp)
 2da:	6d72                	flw	fs10,28(sp)
 2dc:	7461                	lui	s0,0xffff8
 2de:	7000                	flw	fs0,32(s0)
 2e0:	725f 6765 0035      	0x356765725f
 2e6:	7562                	flw	fa0,56(sp)
 2e8:	6666                	flw	fa2,88(sp)
 2ea:	7265                	lui	tp,0xffff9
 2ec:	735f 7a69 0065      	0x657a69735f
 2f2:	72617473          	csrrci	s0,0x726,2
 2f6:	0074                	addi	a3,sp,12
 2f8:	6d68                	flw	fa0,92(a0)
 2fa:	6361                	lui	t1,0x18
 2fc:	735f 6f6d 656b      	0x656b6f6d735f
 302:	6574                	flw	fa3,76(a0)
 304:	64007473          	csrrci	s0,0x640,0
 308:	6265                	lui	tp,0x19
 30a:	6775                	lui	a4,0x1d
 30c:	6d5f 646f 0065      	0x65646f6d5f
 312:	616d                	addi	sp,sp,240
 314:	6e69                	lui	t3,0x1a
 316:	7000                	flw	fs0,32(s0)
 318:	6572                	flw	fa0,28(sp)
 31a:	6f62                	flw	ft10,24(sp)
 31c:	635f746f          	jal	s0,f8150 <tohost+0xd8148>
 320:	2e65646f          	jal	s0,56606 <tohost+0x365fe>
 324:	64610063          	beq	sp,t1,964 <_min_stack-0x169c>
 328:	7264                	flw	fs1,100(a2)
 32a:	7365                	lui	t1,0xffff9
 32c:	61700073          	0x61700073
 330:	6c79                	lui	s8,0x1e
 332:	5f64616f          	jal	sp,46928 <tohost+0x26920>
 336:	0031                	c.addi	zero,12
 338:	6170                	flw	fa2,68(a0)
 33a:	6c79                	lui	s8,0x1e
 33c:	5f64616f          	jal	sp,46932 <tohost+0x2692a>
 340:	0032                	0x32
 342:	6170                	flw	fa2,68(a0)
 344:	6c79                	lui	s8,0x1e
 346:	5f64616f          	jal	sp,4693c <tohost+0x26934>
 34a:	72610033          	0x72610033
 34e:	61006367          	0x61006367
 352:	6772                	flw	fa4,28(sp)
 354:	0076                	0x76
 356:	6975                	lui	s2,0x1d
 358:	746e                	flw	fs0,248(sp)
 35a:	745f3233          	0x745f3233
	...

Disassembly of section .comment:

00000000 <.comment>:
   0:	3a434347          	fmsub.d	ft6,ft6,ft4,ft7,rmm
   4:	2820                	fld	fs0,80(s0)
   6:	29554e47          	fmsub.s	ft8,fa0,fs5,ft5,rmm
   a:	3720                	fld	fs0,104(a4)
   c:	312e                	fld	ft2,232(sp)
   e:	312e                	fld	ft2,232(sp)
  10:	3220                	fld	fs0,96(a2)
  12:	3130                	fld	fa2,96(a0)
  14:	30353037          	lui	zero,0x30353
  18:	0039                	c.addi	zero,14

Disassembly of section .Pulp_Chip.Info:

00000000 <.Pulp_Chip.Info>:
   0:	000a                	0xa
   2:	0000                	unimp
   4:	0038                	addi	a4,sp,8
   6:	0000                	unimp
   8:	0001                	nop
   a:	0000                	unimp
   c:	7550                	flw	fa2,44(a0)
   e:	706c                	flw	fa1,100(s0)
  10:	495f 666e 006f      	0x6f666e495f
  16:	70696863          	bltu	s2,t1,726 <_min_stack-0x18da>
  1a:	6e3d                	lui	t3,0xf
  1c:	20656e6f          	jal	t3,56222 <tohost+0x3621a>
  20:	3d757063          	bleu	s7,a0,3e0 <_min_stack-0x1c20>
  24:	6f6e                	flw	ft10,216(sp)
  26:	656e                	flw	fa0,216(sp)
  28:	7020                	flw	fs0,96(s0)
  2a:	3d65                	jal	fffffee2 <pulp__FC+0xfffffee3>
  2c:	312d                	jal	fffffc56 <pulp__FC+0xfffffc57>
  2e:	6620                	flw	fs0,72(a2)
  30:	312d3d63          	p.bneimm	s10,-14,34a <_min_stack-0x1cb6>
  34:	6c20                	flw	fs0,88(s0)
  36:	3d32                	fld	fs10,296(sp)
  38:	312d                	jal	fffffc62 <pulp__FC+0xfffffc63>
  3a:	6c20                	flw	fs0,88(s0)
  3c:	6331                	lui	t1,0xc
  3e:	3d6c                	fld	fa1,248(a0)
  40:	312d                	jal	fffffc6a <pulp__FC+0xfffffc6b>
  42:	6c20                	flw	fs0,88(s0)
  44:	6631                	lui	a2,0xc
  46:	312d3d63          	p.bneimm	s10,-14,360 <_min_stack-0x1ca0>
  4a:	0000                	unimp
	...
