
idma_test.elf:     file format elf32-littleriscv
architecture: riscv:rv32, flags 0x00000112:
EXEC_P, HAS_SYMS, D_PAGED
start address 0xe0000080

Sections:
Idx Name          Size      VMA       LMA       File off  Algn
  0 .vectors      00000084  e0000000  e0000000  00001000  2**0
                  CONTENTS, ALLOC, LOAD, READONLY, CODE
  1 .text         000004b6  e0000084  e0000084  00001084  2**1
                  CONTENTS, ALLOC, LOAD, READONLY, CODE
  2 .rodata       00000017  e000053c  e000053c  0000153c  2**2
                  CONTENTS, ALLOC, LOAD, READONLY, DATA
  3 .data         00000010  e0000554  e0000554  00001554  2**2
                  CONTENTS, ALLOC, LOAD, DATA
  4 .bss          00000000  e0000564  e0000564  00001564  2**0
                  ALLOC
  5 .logs.fields  00000000  e0000564  e0000564  00001564  2**0
                  CONTENTS
  6 .stack        00002000  e0008000  e0008000  00002000  2**0
                  ALLOC
  7 .debug_info   000009a2  00000000  00000000  00001564  2**0
                  CONTENTS, READONLY, DEBUGGING, OCTETS
  8 .debug_abbrev 00000421  00000000  00000000  00001f06  2**0
                  CONTENTS, READONLY, DEBUGGING, OCTETS
  9 .debug_loclists 0000099e  00000000  00000000  00002327  2**0
                  CONTENTS, READONLY, DEBUGGING, OCTETS
 10 .debug_aranges 00000068  00000000  00000000  00002cc8  2**3
                  CONTENTS, READONLY, DEBUGGING, OCTETS
 11 .debug_rnglists 00000133  00000000  00000000  00002d30  2**0
                  CONTENTS, READONLY, DEBUGGING, OCTETS
 12 .debug_line   00000ff0  00000000  00000000  00002e63  2**0
                  CONTENTS, READONLY, DEBUGGING, OCTETS
 13 .debug_str    000002da  00000000  00000000  00003e53  2**0
                  CONTENTS, READONLY, DEBUGGING, OCTETS
 14 .debug_line_str 000001c5  00000000  00000000  0000412d  2**0
                  CONTENTS, READONLY, DEBUGGING, OCTETS
 15 .comment      00000026  00000000  00000000  000042f2  2**0
                  CONTENTS, READONLY
 16 .riscv.attributes 0000003f  00000000  00000000  00004318  2**0
                  CONTENTS, READONLY
 17 .debug_frame  00000188  00000000  00000000  00004358  2**2
                  CONTENTS, READONLY, DEBUGGING, OCTETS

Disassembly of section .vectors:

e0000000 <_vectors_start>:
  .option norvc;
  
  .org 0x00
  .rept 10
  jal x0, default_exc_handler
  .endr
e0000000:	45a0006f          	j	e000045a <default_exc_handler>
e0000004:	4560006f          	j	e000045a <default_exc_handler>
e0000008:	4520006f          	j	e000045a <default_exc_handler>
e000000c:	44e0006f          	j	e000045a <default_exc_handler>
e0000010:	44a0006f          	j	e000045a <default_exc_handler>
e0000014:	4460006f          	j	e000045a <default_exc_handler>
e0000018:	4420006f          	j	e000045a <default_exc_handler>
e000001c:	43e0006f          	j	e000045a <default_exc_handler>
e0000020:	43a0006f          	j	e000045a <default_exc_handler>
e0000024:	4360006f          	j	e000045a <default_exc_handler>
  
  jal x0, default_exc_handler
e0000028:	4320006f          	j	e000045a <default_exc_handler>
  
  jal x0, external_irq_handler
e000002c:	0580006f          	j	e0000084 <_vectors_end>

  .org 0x30
  .rept 18
  jal x0, default_exc_handler
  .endr
e0000030:	42a0006f          	j	e000045a <default_exc_handler>
e0000034:	4260006f          	j	e000045a <default_exc_handler>
e0000038:	4220006f          	j	e000045a <default_exc_handler>
e000003c:	41e0006f          	j	e000045a <default_exc_handler>
e0000040:	41a0006f          	j	e000045a <default_exc_handler>
e0000044:	4160006f          	j	e000045a <default_exc_handler>
e0000048:	4120006f          	j	e000045a <default_exc_handler>
e000004c:	40e0006f          	j	e000045a <default_exc_handler>
e0000050:	40a0006f          	j	e000045a <default_exc_handler>
e0000054:	4060006f          	j	e000045a <default_exc_handler>
e0000058:	4020006f          	j	e000045a <default_exc_handler>
e000005c:	3fe0006f          	j	e000045a <default_exc_handler>
e0000060:	3fa0006f          	j	e000045a <default_exc_handler>
e0000064:	3f60006f          	j	e000045a <default_exc_handler>
e0000068:	3f20006f          	j	e000045a <default_exc_handler>
e000006c:	3ee0006f          	j	e000045a <default_exc_handler>
e0000070:	3ea0006f          	j	e000045a <default_exc_handler>
e0000074:	3e60006f          	j	e000045a <default_exc_handler>
  jal x0, default_exc_handler
e0000078:	3e20006f          	j	e000045a <default_exc_handler>
  jal x0, default_exc_handler
e000007c:	3de0006f          	j	e000045a <default_exc_handler>


  // reset vector
  .org 0x80
  jal x0, reset_handler
e0000080:	3de0006f          	j	e000045e <reset_handler>

Disassembly of section .text:

e0000084 <external_irq_handler>:
  __asm__ volatile("csrr %0, mtval;" : "=r"(result));
  return result;
  }*/

void __attribute__((weak)) external_irq_handler(void)  {
}
e0000084:	30200073          	mret

e0000088 <uart_set_cfg>:
}


void uart_set_cfg(int parity, uint16_t clk_counter) {
  unsigned int i;
  *(volatile unsigned int*)(UART_REG_LCR) = 0x83; //sets 8N1 and set DLAB to 1
e0000088:	400007b7          	lui	a5,0x40000
e000008c:	08300713          	li	a4,131
e0000090:	c7d8                	sw	a4,12(a5)
  *(volatile unsigned int*)(UART_REG_DLM) = (clk_counter >> 8) & 0xFF;
e0000092:	0085d713          	srli	a4,a1,0x8
e0000096:	c3d8                	sw	a4,4(a5)
  *(volatile unsigned int*)(UART_REG_DLL) =  clk_counter       & 0xFF;
e0000098:	0ff5f593          	zext.b	a1,a1
e000009c:	c38c                	sw	a1,0(a5)
  *(volatile unsigned int*)(UART_REG_FCR) = 0xA7; //enables 16byte FIFO and clear FIFOs
e000009e:	0a700713          	li	a4,167
e00000a2:	c798                	sw	a4,8(a5)
  *(volatile unsigned int*)(UART_REG_LCR) = 0x03; //sets 8N1 and set DLAB to 0
e00000a4:	470d                	li	a4,3
e00000a6:	c7d8                	sw	a4,12(a5)

  *(volatile unsigned int*)(UART_REG_IER) = ((*(volatile unsigned int*)(UART_REG_IER)) & 0xF0) | 0x02; // set IER (interrupt enable register) on UART
e00000a8:	43d8                	lw	a4,4(a5)
e00000aa:	0f077713          	andi	a4,a4,240
e00000ae:	00276713          	ori	a4,a4,2
e00000b2:	c3d8                	sw	a4,4(a5)
}
e00000b4:	8082                	ret

e00000b6 <uart_send>:

  while(len > 0) {
    // process this in batches of 16 bytes to actually use the FIFO in the UART

    // wait until there is space in the fifo
    while( (*(volatile unsigned int*)(UART_REG_LSR) & 0x20) == 0);
e00000b6:	40000737          	lui	a4,0x40000
  while(len > 0) {
e00000ba:	e191                	bnez	a1,e00000be <uart_send+0x8>
      *(volatile unsigned int*)(UART_REG_THR) = *str++;

      len--;
    }
  }
}
e00000bc:	8082                	ret
    while( (*(volatile unsigned int*)(UART_REG_LSR) & 0x20) == 0);
e00000be:	4b5c                	lw	a5,20(a4)
e00000c0:	0207f793          	andi	a5,a5,32
e00000c4:	dfed                	beqz	a5,e00000be <uart_send+0x8>
e00000c6:	04050793          	addi	a5,a0,64
      *(volatile unsigned int*)(UART_REG_THR) = *str++;
e00000ca:	00054683          	lbu	a3,0(a0)
e00000ce:	0505                	addi	a0,a0,1
      len--;
e00000d0:	15fd                	addi	a1,a1,-1
      *(volatile unsigned int*)(UART_REG_THR) = *str++;
e00000d2:	c314                	sw	a3,0(a4)
    for(i = 0; (i < UART_FIFO_DEPTH) && (len > 0); i++) {
e00000d4:	fea783e3          	beq	a5,a0,e00000ba <uart_send+0x4>
e00000d8:	f9ed                	bnez	a1,e00000ca <uart_send+0x14>
e00000da:	8082                	ret

e00000dc <uart_getchar>:

char uart_getchar() {
  while((*((volatile int*)UART_REG_LSR) & 0x1) != 0x1);
e00000dc:	40000737          	lui	a4,0x40000
e00000e0:	4b5c                	lw	a5,20(a4)
e00000e2:	8b85                	andi	a5,a5,1
e00000e4:	dff5                	beqz	a5,e00000e0 <uart_getchar+0x4>

  return *(volatile int*)UART_REG_RBR;
e00000e6:	4308                	lw	a0,0(a4)
}
e00000e8:	0ff57513          	zext.b	a0,a0
e00000ec:	8082                	ret

e00000ee <uart_sendchar>:

void uart_sendchar(const char c) {
  // wait until there is space in the fifo
  while( (*(volatile unsigned int*)(UART_REG_LSR) & 0x20) == 0);
e00000ee:	40000737          	lui	a4,0x40000
e00000f2:	4b5c                	lw	a5,20(a4)
e00000f4:	0207f793          	andi	a5,a5,32
e00000f8:	dfed                	beqz	a5,e00000f2 <uart_sendchar+0x4>

  // load FIFO
  *(volatile unsigned int*)(UART_REG_THR) = c;
e00000fa:	c308                	sw	a0,0(a4)
}
e00000fc:	8082                	ret

e00000fe <qprints.constprop.0>:
  }
  else
    putchar((char)c);
}

static int qprints(char **out, const char *string, int width, int pad)
e00000fe:	1101                	addi	sp,sp,-32
e0000100:	cc22                	sw	s0,24(sp)
e0000102:	ca26                	sw	s1,20(sp)
e0000104:	c452                	sw	s4,8(sp)
e0000106:	ce06                	sw	ra,28(sp)
e0000108:	c84a                	sw	s2,16(sp)
e000010a:	c64e                	sw	s3,12(sp)
e000010c:	8a2a                	mv	s4,a0
e000010e:	842e                	mv	s0,a1
{
  register int pc = 0, padchar = ' ';
e0000110:	02000493          	li	s1,32

  if (width > 0) {
e0000114:	02b05463          	blez	a1,e000013c <qprints.constprop.0+0x3e>
e0000118:	4781                	li	a5,0
e000011a:	a011                	j	e000011e <qprints.constprop.0+0x20>
    register int len = 0;
    register const char *ptr;
    for (ptr = string; *ptr; ++ptr) ++len;
e000011c:	0785                	addi	a5,a5,1 # 40000001 <tohost+0x3ffdfff9>
e000011e:	00fa0733          	add	a4,s4,a5
e0000122:	00074703          	lbu	a4,0(a4) # 40000000 <tohost+0x3ffdfff8>
e0000126:	fb7d                	bnez	a4,e000011c <qprints.constprop.0+0x1e>
    if (len >= width) width = 0;
e0000128:	0287d163          	bge	a5,s0,e000014a <qprints.constprop.0+0x4c>
    else width -= len;
e000012c:	8c1d                	sub	s0,s0,a5
    if (pad & PAD_ZERO) padchar = '0';
e000012e:	00267793          	andi	a5,a2,2
  register int pc = 0, padchar = ' ';
e0000132:	02000493          	li	s1,32
    if (pad & PAD_ZERO) padchar = '0';
e0000136:	c399                	beqz	a5,e000013c <qprints.constprop.0+0x3e>
e0000138:	03000493          	li	s1,48
  }
  if (!(pad & PAD_RIGHT)) {
e000013c:	8a05                	andi	a2,a2,1
  register int pc = 0, padchar = ' ';
e000013e:	4901                	li	s2,0
  if (!(pad & PAD_RIGHT)) {
e0000140:	e215                	bnez	a2,e0000164 <qprints.constprop.0+0x66>
e0000142:	8922                	mv	s2,s0
  uart_sendchar(s);
e0000144:	0ff4f993          	zext.b	s3,s1
e0000148:	a031                	j	e0000154 <qprints.constprop.0+0x56>
    if (len >= width) width = 0;
e000014a:	4401                	li	s0,0
e000014c:	b7cd                	j	e000012e <qprints.constprop.0+0x30>
  uart_sendchar(s);
e000014e:	854e                	mv	a0,s3
e0000150:	3f79                	jal	e00000ee <uart_sendchar>
    for ( ; width > 0; --width) {
e0000152:	197d                	addi	s2,s2,-1
e0000154:	ff204de3          	bgtz	s2,e000014e <qprints.constprop.0+0x50>
e0000158:	8922                	mv	s2,s0
e000015a:	00045363          	bgez	s0,e0000160 <qprints.constprop.0+0x62>
e000015e:	4901                	li	s2,0
e0000160:	41240433          	sub	s0,s0,s2
  register int pc = 0, padchar = ' ';
e0000164:	89ca                	mv	s3,s2
e0000166:	a019                	j	e000016c <qprints.constprop.0+0x6e>
  uart_sendchar(s);
e0000168:	3759                	jal	e00000ee <uart_sendchar>
      ++pc;
    }
  }
  for ( ; *string ; ++string) {
    qprintchar (out, *string);
    ++pc;
e000016a:	0985                	addi	s3,s3,1
  for ( ; *string ; ++string) {
e000016c:	412987b3          	sub	a5,s3,s2
e0000170:	97d2                	add	a5,a5,s4
e0000172:	0007c503          	lbu	a0,0(a5)
e0000176:	f96d                	bnez	a0,e0000168 <qprints.constprop.0+0x6a>
e0000178:	8922                	mv	s2,s0
  uart_sendchar(s);
e000017a:	0ff4f493          	zext.b	s1,s1
  }
  for ( ; width > 0; --width) {
e000017e:	01204f63          	bgtz	s2,e000019c <qprints.constprop.0+0x9e>
    qprintchar (out, padchar);
    ++pc;
  }

  return pc;
e0000182:	00045363          	bgez	s0,e0000188 <qprints.constprop.0+0x8a>
e0000186:	4401                	li	s0,0
}
e0000188:	01340533          	add	a0,s0,s3
e000018c:	40f2                	lw	ra,28(sp)
e000018e:	4462                	lw	s0,24(sp)
e0000190:	44d2                	lw	s1,20(sp)
e0000192:	4942                	lw	s2,16(sp)
e0000194:	49b2                	lw	s3,12(sp)
e0000196:	4a22                	lw	s4,8(sp)
e0000198:	6105                	addi	sp,sp,32
e000019a:	8082                	ret
  uart_sendchar(s);
e000019c:	8526                	mv	a0,s1
e000019e:	3f81                	jal	e00000ee <uart_sendchar>
  for ( ; width > 0; --width) {
e00001a0:	197d                	addi	s2,s2,-1
e00001a2:	bff1                	j	e000017e <qprints.constprop.0+0x80>

e00001a4 <qprinti.constprop.0>:

static int qprinti(char **out, int i, int b, int sg, int width, int pad, char letbase)
e00001a4:	7139                	addi	sp,sp,-64
e00001a6:	da26                	sw	s1,52(sp)
e00001a8:	de06                	sw	ra,60(sp)
e00001aa:	dc22                	sw	s0,56(sp)
e00001ac:	88ae                	mv	a7,a1
e00001ae:	84b2                	mv	s1,a2
e00001b0:	85b6                	mv	a1,a3
e00001b2:	863a                	mv	a2,a4
  char print_buf[PRINT_BUF_LEN];
  register char *s;
  register int neg = 0, pc = 0;
  unsigned int t,u = i;

  if (i == 0)
e00001b4:	ed01                	bnez	a0,e00001cc <qprinti.constprop.0+0x28>
  {
    print_buf[0] = '0';
e00001b6:	03000793          	li	a5,48
    print_buf[1] = '\0';
    return qprints (out, print_buf, width, pad);
e00001ba:	0808                	addi	a0,sp,16
    print_buf[0] = '0';
e00001bc:	00f11823          	sh	a5,16(sp)
    return qprints (out, print_buf, width, pad);
e00001c0:	3f3d                	jal	e00000fe <qprints.constprop.0>
    {
      *--s = '-';
    }
  }
  return pc + qprints (out, s, width, pad);
}
e00001c2:	50f2                	lw	ra,60(sp)
e00001c4:	5462                	lw	s0,56(sp)
e00001c6:	54d2                	lw	s1,52(sp)
e00001c8:	6121                	addi	sp,sp,64
e00001ca:	8082                	ret
e00001cc:	882a                	mv	a6,a0
  if (sg && b == 10 && i < 0)
e00001ce:	c881                	beqz	s1,e00001de <qprinti.constprop.0+0x3a>
e00001d0:	4729                	li	a4,10
e00001d2:	06e89f63          	bne	a7,a4,e0000250 <qprinti.constprop.0+0xac>
e00001d6:	06055d63          	bgez	a0,e0000250 <qprinti.constprop.0+0xac>
    u = -i;
e00001da:	40a00833          	neg	a6,a0
  *s = '\0';
e00001de:	020107a3          	sb	zero,47(sp)
  if(b == 16) {
e00001e2:	4741                	li	a4,16
e00001e4:	02f10413          	addi	s0,sp,47
e00001e8:	06e88663          	beq	a7,a4,e0000254 <qprinti.constprop.0+0xb0>
  n = (0x19999999 * n + (n >> 1) + (n >> 3)) >> 28;
e00001ec:	1999a737          	lui	a4,0x1999a
  return remu10_table[n];
e00001f0:	00000897          	auipc	a7,0x0
e00001f4:	36488893          	addi	a7,a7,868 # e0000554 <remu10_table>
  n = (0x19999999 * n + (n >> 1) + (n >> 3)) >> 28;
e00001f8:	99970713          	addi	a4,a4,-1639 # 19999999 <tohost+0x19979991>
  r = n - q * 10;
e00001fc:	4529                	li	a0,10
  n = (0x19999999 * n + (n >> 1) + (n >> 3)) >> 28;
e00001fe:	02e807b3          	mul	a5,a6,a4
e0000202:	00185693          	srli	a3,a6,0x1
e0000206:	00385313          	srli	t1,a6,0x3
      *--s = remu10(u) + '0';
e000020a:	147d                	addi	s0,s0,-1
  n = (0x19999999 * n + (n >> 1) + (n >> 3)) >> 28;
e000020c:	97b6                	add	a5,a5,a3
e000020e:	979a                	add	a5,a5,t1
e0000210:	83f1                	srli	a5,a5,0x1c
  return remu10_table[n];
e0000212:	97c6                	add	a5,a5,a7
      *--s = remu10(u) + '0';
e0000214:	0007c783          	lbu	a5,0(a5)
e0000218:	03078793          	addi	a5,a5,48
e000021c:	00f40023          	sb	a5,0(s0)
  q = (n >> 1) + (n >> 2);
e0000220:	00285793          	srli	a5,a6,0x2
e0000224:	97b6                	add	a5,a5,a3
  q = q + (q >> 4);
e0000226:	0047d693          	srli	a3,a5,0x4
e000022a:	97b6                	add	a5,a5,a3
  q = q + (q >> 8);
e000022c:	0087d693          	srli	a3,a5,0x8
e0000230:	97b6                	add	a5,a5,a3
  q = q + (q >> 16);
e0000232:	0107d693          	srli	a3,a5,0x10
e0000236:	97b6                	add	a5,a5,a3
  q = q >> 3;
e0000238:	838d                	srli	a5,a5,0x3
  r = n - q * 10;
e000023a:	02a786b3          	mul	a3,a5,a0
  return q + ((r + 6) >> 4);
e000023e:	0819                	addi	a6,a6,6
e0000240:	40d80833          	sub	a6,a6,a3
e0000244:	00485813          	srli	a6,a6,0x4
e0000248:	983e                	add	a6,a6,a5
    while (u) {
e000024a:	fa081ae3          	bnez	a6,e00001fe <qprinti.constprop.0+0x5a>
e000024e:	a025                	j	e0000276 <qprinti.constprop.0+0xd2>
  register int neg = 0, pc = 0;
e0000250:	4481                	li	s1,0
e0000252:	b771                	j	e00001de <qprinti.constprop.0+0x3a>
      if (t >= 10)
e0000254:	4725                	li	a4,9
        t += letbase - '0' - 10;
e0000256:	fc678793          	addi	a5,a5,-58
      int t = u & 0xF;
e000025a:	00f87513          	andi	a0,a6,15
      if (t >= 10)
e000025e:	00a75363          	bge	a4,a0,e0000264 <qprinti.constprop.0+0xc0>
        t += letbase - '0' - 10;
e0000262:	953e                	add	a0,a0,a5
      *--s = t + '0';
e0000264:	147d                	addi	s0,s0,-1
e0000266:	03050513          	addi	a0,a0,48
e000026a:	00a40023          	sb	a0,0(s0)
      u >>= 4;
e000026e:	00485813          	srli	a6,a6,0x4
    while (u) {
e0000272:	fe0814e3          	bnez	a6,e000025a <qprinti.constprop.0+0xb6>
  if (neg) {
e0000276:	cc89                	beqz	s1,e0000290 <qprinti.constprop.0+0xec>
    if( width && (pad & PAD_ZERO) )
e0000278:	c185                	beqz	a1,e0000298 <qprinti.constprop.0+0xf4>
e000027a:	00267793          	andi	a5,a2,2
e000027e:	cf89                	beqz	a5,e0000298 <qprinti.constprop.0+0xf4>
  uart_sendchar(s);
e0000280:	02d00513          	li	a0,45
e0000284:	c632                	sw	a2,12(sp)
e0000286:	c42e                	sw	a1,8(sp)
e0000288:	359d                	jal	e00000ee <uart_sendchar>
      --width;
e000028a:	45a2                	lw	a1,8(sp)
e000028c:	4632                	lw	a2,12(sp)
e000028e:	15fd                	addi	a1,a1,-1
  return pc + qprints (out, s, width, pad);
e0000290:	8522                	mv	a0,s0
e0000292:	35b5                	jal	e00000fe <qprints.constprop.0>
e0000294:	9526                	add	a0,a0,s1
e0000296:	b735                	j	e00001c2 <qprinti.constprop.0+0x1e>
      *--s = '-';
e0000298:	02d00793          	li	a5,45
e000029c:	fef40fa3          	sb	a5,-1(s0)
  register int neg = 0, pc = 0;
e00002a0:	4481                	li	s1,0
      *--s = '-';
e00002a2:	147d                	addi	s0,s0,-1
e00002a4:	b7f5                	j	e0000290 <qprinti.constprop.0+0xec>

e00002a6 <uart_wait_tx_done>:
  while( (*(volatile unsigned int*)(UART_REG_LSR) & 0x40) == 0);
e00002a6:	40000737          	lui	a4,0x40000
e00002aa:	4b5c                	lw	a5,20(a4)
e00002ac:	0407f793          	andi	a5,a5,64
e00002b0:	dfed                	beqz	a5,e00002aa <uart_wait_tx_done+0x4>
}
e00002b2:	8082                	ret

e00002b4 <putchar>:
{
e00002b4:	1141                	addi	sp,sp,-16
e00002b6:	c422                	sw	s0,8(sp)
e00002b8:	842a                	mv	s0,a0
  uart_sendchar(s);
e00002ba:	0ff57513          	zext.b	a0,a0
{
e00002be:	c606                	sw	ra,12(sp)
  uart_sendchar(s);
e00002c0:	353d                	jal	e00000ee <uart_sendchar>
}
e00002c2:	40b2                	lw	ra,12(sp)
e00002c4:	8522                	mv	a0,s0
e00002c6:	4422                	lw	s0,8(sp)
e00002c8:	0141                	addi	sp,sp,16
e00002ca:	8082                	ret

e00002cc <printf>:

  return pc;
}

int printf(const char *format, ...)
{
e00002cc:	711d                	addi	sp,sp,-96
e00002ce:	dc22                	sw	s0,56(sp)
  int pc;
  va_list va;

  va_start(va, format);
e00002d0:	00c0                	addi	s0,sp,68
{
e00002d2:	da26                	sw	s1,52(sp)
e00002d4:	d84a                	sw	s2,48(sp)
e00002d6:	d64e                	sw	s3,44(sp)
e00002d8:	d452                	sw	s4,40(sp)
e00002da:	d256                	sw	s5,36(sp)
e00002dc:	d05a                	sw	s6,32(sp)
e00002de:	ce5e                	sw	s7,28(sp)
e00002e0:	de06                	sw	ra,60(sp)
e00002e2:	cc62                	sw	s8,24(sp)
e00002e4:	8b2a                	mv	s6,a0
e00002e6:	c2ae                	sw	a1,68(sp)
e00002e8:	c4b2                	sw	a2,72(sp)
e00002ea:	c6b6                	sw	a3,76(sp)
e00002ec:	c8ba                	sw	a4,80(sp)
e00002ee:	cabe                	sw	a5,84(sp)
e00002f0:	ccc2                	sw	a6,88(sp)
e00002f2:	cec6                	sw	a7,92(sp)
  va_start(va, format);
e00002f4:	c622                	sw	s0,12(sp)
  register int pc = 0;
e00002f6:	4b81                	li	s7,0
    if (*format == '%')
e00002f8:	02500493          	li	s1,37
      if (*format == '-')
e00002fc:	02d00913          	li	s2,45
      while (*format == '0')
e0000300:	03000993          	li	s3,48
        width *= 10;
e0000304:	4a29                	li	s4,10
        pc += qprints (out, s?s:"(null)", width, pad);
e0000306:	00000a97          	auipc	s5,0x0
e000030a:	236a8a93          	addi	s5,s5,566 # e000053c <main+0x5e>
  for (; *format != 0; ++format)
e000030e:	000b4783          	lbu	a5,0(s6)
e0000312:	ef91                	bnez	a5,e000032e <printf+0x62>

  va_end(va);

  return pc;

}
e0000314:	50f2                	lw	ra,60(sp)
e0000316:	5462                	lw	s0,56(sp)
e0000318:	54d2                	lw	s1,52(sp)
e000031a:	5942                	lw	s2,48(sp)
e000031c:	59b2                	lw	s3,44(sp)
e000031e:	5a22                	lw	s4,40(sp)
e0000320:	5a92                	lw	s5,36(sp)
e0000322:	5b02                	lw	s6,32(sp)
e0000324:	4c62                	lw	s8,24(sp)
e0000326:	855e                	mv	a0,s7
e0000328:	4bf2                	lw	s7,28(sp)
e000032a:	6125                	addi	sp,sp,96
e000032c:	8082                	ret
    if (*format == '%')
e000032e:	0e979663          	bne	a5,s1,e000041a <printf+0x14e>
      if (*format == '\0') break;
e0000332:	001b4683          	lbu	a3,1(s6)
e0000336:	def9                	beqz	a3,e0000314 <printf+0x48>
      ++format;
e0000338:	001b0793          	addi	a5,s6,1
      if (*format == '%') goto out;
e000033c:	0c968e63          	beq	a3,s1,e0000418 <printf+0x14c>
      width = pad = 0;
e0000340:	4701                	li	a4,0
      if (*format == '-')
e0000342:	01269563          	bne	a3,s2,e000034c <printf+0x80>
        ++format;
e0000346:	002b0793          	addi	a5,s6,2
        pad = PAD_RIGHT;
e000034a:	4705                	li	a4,1
e000034c:	8b3e                	mv	s6,a5
      while (*format == '0')
e000034e:	000b4783          	lbu	a5,0(s6)
        ++format;
e0000352:	001b0693          	addi	a3,s6,1
      while (*format == '0')
e0000356:	03378b63          	beq	a5,s3,e000038c <printf+0xc0>
      width = pad = 0;
e000035a:	4681                	li	a3,0
      for ( ; *format >= '0' && *format <= '9'; ++format) {
e000035c:	45a5                	li	a1,9
e000035e:	000b4783          	lbu	a5,0(s6)
e0000362:	001b0813          	addi	a6,s6,1
e0000366:	fd078613          	addi	a2,a5,-48
e000036a:	0ff67513          	zext.b	a0,a2
e000036e:	02a5f363          	bgeu	a1,a0,e0000394 <printf+0xc8>
      if( *format == 's' ) {
e0000372:	07300613          	li	a2,115
e0000376:	02c79463          	bne	a5,a2,e000039e <printf+0xd2>
        register char *s = va_arg(va, char*);
e000037a:	4008                	lw	a0,0(s0)
e000037c:	00440c13          	addi	s8,s0,4
        pc += qprints (out, s?s:"(null)", width, pad);
e0000380:	e111                	bnez	a0,e0000384 <printf+0xb8>
e0000382:	8556                	mv	a0,s5
e0000384:	863a                	mv	a2,a4
e0000386:	85b6                	mv	a1,a3
        pc += qprints (out, scr, width, pad);
e0000388:	3b9d                	jal	e00000fe <qprints.constprop.0>
e000038a:	a035                	j	e00003b6 <printf+0xea>
        pad |= PAD_ZERO;
e000038c:	00276713          	ori	a4,a4,2
        ++format;
e0000390:	8b36                	mv	s6,a3
e0000392:	bf75                	j	e000034e <printf+0x82>
        width *= 10;
e0000394:	034686b3          	mul	a3,a3,s4
      for ( ; *format >= '0' && *format <= '9'; ++format) {
e0000398:	8b42                	mv	s6,a6
        width += *format - '0';
e000039a:	96b2                	add	a3,a3,a2
      for ( ; *format >= '0' && *format <= '9'; ++format) {
e000039c:	b7c9                	j	e000035e <printf+0x92>
      if( *format == 'd' ) {
e000039e:	06400613          	li	a2,100
e00003a2:	00c79e63          	bne	a5,a2,e00003be <printf+0xf2>
        pc += qprinti (out, va_arg(va, int), 10, 1, width, pad, 'a');
e00003a6:	00440c13          	addi	s8,s0,4
e00003aa:	06100793          	li	a5,97
e00003ae:	4605                	li	a2,1
e00003b0:	45a9                	li	a1,10
e00003b2:	4008                	lw	a0,0(s0)
e00003b4:	3bc5                	jal	e00001a4 <qprinti.constprop.0>
e00003b6:	9baa                	add	s7,s7,a0
e00003b8:	8462                	mv	s0,s8
  for (; *format != 0; ++format)
e00003ba:	0b05                	addi	s6,s6,1
e00003bc:	bf89                	j	e000030e <printf+0x42>
      if( *format == 'u' ) {
e00003be:	07500613          	li	a2,117
e00003c2:	00c79863          	bne	a5,a2,e00003d2 <printf+0x106>
        pc += qprinti (out, va_arg(va, unsigned int), 10, 0, width, pad, 'a');
e00003c6:	00440c13          	addi	s8,s0,4
e00003ca:	06100793          	li	a5,97
e00003ce:	4601                	li	a2,0
e00003d0:	b7c5                	j	e00003b0 <printf+0xe4>
      if( *format == 'x' ) {
e00003d2:	07800613          	li	a2,120
e00003d6:	00c79963          	bne	a5,a2,e00003e8 <printf+0x11c>
        pc += qprinti (out, va_arg(va, uint32_t), 16, 0, width, pad, 'a');
e00003da:	00440c13          	addi	s8,s0,4
e00003de:	06100793          	li	a5,97
        pc += qprinti (out, va_arg(va, uint32_t), 16, 0, width, pad, 'A');
e00003e2:	4601                	li	a2,0
e00003e4:	45c1                	li	a1,16
e00003e6:	b7f1                	j	e00003b2 <printf+0xe6>
      if( *format == 'X' ) {
e00003e8:	05800613          	li	a2,88
e00003ec:	00c79763          	bne	a5,a2,e00003fa <printf+0x12e>
        pc += qprinti (out, va_arg(va, uint32_t), 16, 0, width, pad, 'A');
e00003f0:	00440c13          	addi	s8,s0,4
e00003f4:	04100793          	li	a5,65
e00003f8:	b7ed                	j	e00003e2 <printf+0x116>
      if( *format == 'c' ) {
e00003fa:	06300613          	li	a2,99
e00003fe:	fac79ee3          	bne	a5,a2,e00003ba <printf+0xee>
        scr[0] = va_arg(va, int);
e0000402:	401c                	lw	a5,0(s0)
e0000404:	00440c13          	addi	s8,s0,4
        scr[1] = '\0';
e0000408:	000104a3          	sb	zero,9(sp)
        scr[0] = va_arg(va, int);
e000040c:	00f10423          	sb	a5,8(sp)
        pc += qprints (out, scr, width, pad);
e0000410:	863a                	mv	a2,a4
e0000412:	85b6                	mv	a1,a3
e0000414:	0028                	addi	a0,sp,8
e0000416:	bf8d                	j	e0000388 <printf+0xbc>
      ++format;
e0000418:	8b3e                	mv	s6,a5
  uart_sendchar(s);
e000041a:	000b4503          	lbu	a0,0(s6)
      ++pc;
e000041e:	0b85                	addi	s7,s7,1
  uart_sendchar(s);
e0000420:	31f9                	jal	e00000ee <uart_sendchar>
      ++pc;
e0000422:	bf61                	j	e00003ba <printf+0xee>

e0000424 <simple_exc_handler>:
  printf("EXCEPTION!!!\r\n");
e0000424:	00000517          	auipc	a0,0x0
e0000428:	12050513          	addi	a0,a0,288 # e0000544 <main+0x66>
e000042c:	b545                	j	e00002cc <printf>

e000042e <puts>:

int puts(const char *s)
{
e000042e:	1141                	addi	sp,sp,-16
e0000430:	c422                	sw	s0,8(sp)
e0000432:	c226                	sw	s1,4(sp)
e0000434:	c606                	sw	ra,12(sp)
e0000436:	84aa                	mv	s1,a0
  int i=0;
e0000438:	4401                	li	s0,0

  while(s[i] != '\0')
e000043a:	008487b3          	add	a5,s1,s0
e000043e:	0007c503          	lbu	a0,0(a5)
e0000442:	e909                	bnez	a0,e0000454 <puts+0x26>
  uart_sendchar(s);
e0000444:	4529                	li	a0,10
e0000446:	3165                	jal	e00000ee <uart_sendchar>
    putchar(s[i++]);

  putchar('\n');

  return i;
}
e0000448:	40b2                	lw	ra,12(sp)
e000044a:	8522                	mv	a0,s0
e000044c:	4422                	lw	s0,8(sp)
e000044e:	4492                	lw	s1,4(sp)
e0000450:	0141                	addi	sp,sp,16
e0000452:	8082                	ret
    putchar(s[i++]);
e0000454:	0405                	addi	s0,s0,1
  uart_sendchar(s);
e0000456:	3961                	jal	e00000ee <uart_sendchar>
  return s;
e0000458:	b7cd                	j	e000043a <puts+0xc>

e000045a <default_exc_handler>:
  jal x0, sleep_loop //exc handler
e000045a:	07e0006f          	j	e00004d8 <sleep_loop>

e000045e <reset_handler>:
  mv  x1, x0
e000045e:	00000093          	li	ra,0
  mv  x2, x1
e0000462:	8106                	mv	sp,ra
  mv  x3, x1
e0000464:	8186                	mv	gp,ra
  mv  x4, x1
e0000466:	8206                	mv	tp,ra
  mv  x5, x1
e0000468:	8286                	mv	t0,ra
  mv  x6, x1
e000046a:	8306                	mv	t1,ra
  mv  x7, x1
e000046c:	8386                	mv	t2,ra
  mv  x8, x1
e000046e:	8406                	mv	s0,ra
  mv  x9, x1
e0000470:	8486                	mv	s1,ra
  mv x10, x1
e0000472:	8506                	mv	a0,ra
  mv x11, x1
e0000474:	8586                	mv	a1,ra
  mv x12, x1
e0000476:	8606                	mv	a2,ra
  mv x13, x1
e0000478:	8686                	mv	a3,ra
  mv x14, x1
e000047a:	8706                	mv	a4,ra
  mv x15, x1
e000047c:	8786                	mv	a5,ra
  mv x16, x1
e000047e:	8806                	mv	a6,ra
  mv x17, x1
e0000480:	8886                	mv	a7,ra
  mv x18, x1
e0000482:	8906                	mv	s2,ra
  mv x19, x1
e0000484:	8986                	mv	s3,ra
  mv x20, x1
e0000486:	8a06                	mv	s4,ra
  mv x21, x1
e0000488:	8a86                	mv	s5,ra
  mv x22, x1
e000048a:	8b06                	mv	s6,ra
  mv x23, x1
e000048c:	8b86                	mv	s7,ra
  mv x24, x1
e000048e:	8c06                	mv	s8,ra
  mv x25, x1
e0000490:	8c86                	mv	s9,ra
  mv x26, x1
e0000492:	8d06                	mv	s10,ra
  mv x27, x1
e0000494:	8d86                	mv	s11,ra
  mv x28, x1
e0000496:	8e06                	mv	t3,ra
  mv x29, x1
e0000498:	8e86                	mv	t4,ra
  mv x30, x1
e000049a:	8f06                	mv	t5,ra
  mv x31, x1
e000049c:	8f86                	mv	t6,ra
  la   x2, _stack_start
e000049e:	00010117          	auipc	sp,0x10
e00004a2:	b6210113          	addi	sp,sp,-1182 # e0010000 <_stack_start>

e00004a6 <_start>:
  la x26, _bss_start
e00004a6:	00000d17          	auipc	s10,0x0
e00004aa:	0bed0d13          	addi	s10,s10,190 # e0000564 <_bss_end>
  la x27, _bss_end
e00004ae:	00000d97          	auipc	s11,0x0
e00004b2:	0b6d8d93          	addi	s11,s11,182 # e0000564 <_bss_end>
  bge x26, x27, zero_loop_end
e00004b6:	01bd5763          	bge	s10,s11,e00004c4 <main_entry>

e00004ba <zero_loop>:
  sw x0, 0(x26)
e00004ba:	000d2023          	sw	zero,0(s10)
  addi x26, x26, 4
e00004be:	0d11                	addi	s10,s10,4
  ble x26, x27, zero_loop
e00004c0:	ffaddde3          	bge	s11,s10,e00004ba <zero_loop>

e00004c4 <main_entry>:
  addi x10, x0, 0
e00004c4:	4501                	li	a0,0
  addi x11, x0, 0
e00004c6:	4581                	li	a1,0
  jal x1, main
e00004c8:	016000ef          	jal	ra,e00004de <main>
  li a0, 0xc11c0018
e00004cc:	c11c0537          	lui	a0,0xc11c0
e00004d0:	0561                	addi	a0,a0,24 # c11c0018 <fromhost+0xe11b0008>
  li t0, 0x1
e00004d2:	4285                	li	t0,1
  sw t0, 0(a0)
e00004d4:	00552023          	sw	t0,0(a0)

e00004d8 <sleep_loop>:
  wfi
e00004d8:	10500073          	wfi
  j sleep_loop
e00004dc:	bff5                	j	e00004d8 <sleep_loop>

e00004de <main>:
int main() {

  int volatile  * ptr;
  int buff,b;
  int err = 0;
  for(int i = 0; i<100; i++){
e00004de:	4781                	li	a5,0
e00004e0:	fff006b7          	lui	a3,0xfff00
e00004e4:	06400613          	li	a2,100
    ptr = (int *) TCDM_BASE + i*4;
e00004e8:	00479713          	slli	a4,a5,0x4
e00004ec:	9736                	add	a4,a4,a3
    *ptr = i;
e00004ee:	c31c                	sw	a5,0(a4)
  for(int i = 0; i<100; i++){
e00004f0:	0785                	addi	a5,a5,1
e00004f2:	fec79be3          	bne	a5,a2,e00004e8 <main+0xa>
  }
  ptr = (int *) (IDMA_BASE + IDMA_SRC_ADDR_OFFSET);
  *ptr = TCDM_BASE;
e00004f6:	fef007b7          	lui	a5,0xfef00
e00004fa:	c394                	sw	a3,0(a5)
  ptr = (int *) (IDMA_BASE + IDMA_DST_ADDR_OFFSET);
  *ptr = L2_BASE;
e00004fc:	78000737          	lui	a4,0x78000
e0000500:	c3d8                	sw	a4,4(a5)
  ptr = (int *) (IDMA_BASE + IDMA_LENGTH_OFFSET);
  *ptr = 0x00000190;
e0000502:	19000713          	li	a4,400
e0000506:	c798                	sw	a4,8(a5)
  ptr = (int *) (IDMA_BASE + IDMA_NEXT_ID_OFFSET);
  buff = *ptr;
e0000508:	539c                	lw	a5,32(a5)
  int err = 0;
e000050a:	4701                	li	a4,0
  for(int i = 0; i<100; i++){
e000050c:	4781                	li	a5,0
e000050e:	780005b7          	lui	a1,0x78000
e0000512:	06400613          	li	a2,100
    ptr = (int *) L2_BASE + i;
e0000516:	00279693          	slli	a3,a5,0x2
e000051a:	96ae                	add	a3,a3,a1
    b = *ptr;
e000051c:	4294                	lw	a3,0(a3)
    if(b!=i)
e000051e:	00f68363          	beq	a3,a5,e0000524 <main+0x46>
      err++;
e0000522:	0705                	addi	a4,a4,1 # 78000001 <tohost+0x77fdfff9>
  for(int i = 0; i<100; i++){
e0000524:	0785                	addi	a5,a5,1 # fef00001 <fromhost+0x1eeefff1>
e0000526:	fec798e3          	bne	a5,a2,e0000516 <main+0x38>
  }
  if(err!=0){
e000052a:	c711                	beqz	a4,e0000536 <main+0x58>
    ptr = (int *) 0xc11c0018;
    *ptr = 0xFFFFFFFF;
e000052c:	c11c07b7          	lui	a5,0xc11c0
e0000530:	577d                	li	a4,-1
e0000532:	cf98                	sw	a4,24(a5)
    while(1);
e0000534:	a001                	j	e0000534 <main+0x56>
  }
  else
    return 0;
}
e0000536:	4501                	li	a0,0
e0000538:	8082                	ret

Disassembly of section .rodata:

e000053c <.rodata>:
e000053c:	6e28                	.2byte	0x6e28
e000053e:	6c75                	lui	s8,0x1d
e0000540:	296c                	.2byte	0x296c
e0000542:	0000                	unimp
e0000544:	5845                	li	a6,-15
e0000546:	54504543          	.4byte	0x54504543
e000054a:	4f49                	li	t5,18
e000054c:	214e                	.2byte	0x214e
e000054e:	2121                	jal	e0000956 <_bss_end+0x3f2>
e0000550:	0a0d                	addi	s4,s4,3
	...

Disassembly of section .data:

e0000554 <remu10_table>:
char remu10_table[16] = {
e0000554:	0100                	addi	s0,sp,128
e0000556:	0202                	c.slli64	tp
e0000558:	05040303          	lb	t1,80(s0)
e000055c:	0605                	addi	a2,a2,1
e000055e:	08080707          	.4byte	0x8080707
e0000562:	0009                	c.nop	2

Disassembly of section .stack:

e0008000 <_stack-0x2000>:
	...

Disassembly of section .debug_info:

00000000 <.debug_info>:
   0:	0874                	addi	a3,sp,28
   2:	0000                	unimp
   4:	0005                	c.nop	1
   6:	0401                	addi	s0,s0,0
   8:	0000                	unimp
   a:	0000                	unimp
   c:	8a20                	.2byte	0x8a20
   e:	0000                	unimp
  10:	1d00                	addi	s0,sp,688
  12:	0000                	unimp
  14:	0000                	unimp
  16:	0071                	c.nop	28
  18:	0000                	unimp
  1a:	0084                	addi	s1,sp,64
  1c:	e000                	.2byte	0xe000
  1e:	03d6                	slli	t2,t2,0x15
  20:	0000                	unimp
  22:	0000                	unimp
  24:	0000                	unimp
  26:	0000650f          	.4byte	0x650f
  2a:	0200                	addi	s0,sp,256
  2c:	1b28                	addi	a0,sp,440
  2e:	0032                	c.slli	zero,0xc
  30:	0000                	unimp
  32:	0421                	addi	s0,s0,8
  34:	000d                	c.nop	3
  36:	0000                	unimp
  38:	00006c0f          	.4byte	0x6c0f
  3c:	0200                	addi	s0,sp,256
  3e:	00261863          	bne	a2,sp,4e <_min_stack-0x1fb2>
  42:	0000                	unimp
  44:	0422                	slli	s0,s0,0x8
  46:	6905                	lui	s2,0x1
  48:	746e                	.2byte	0x746e
  4a:	0500                	addi	s0,sp,640
  4c:	0704                	addi	s1,sp,896
  4e:	00000153          	.4byte	0x153
  52:	0805                	addi	a6,a6,1
  54:	7e05                	lui	t3,0xfffe1
  56:	0001                	nop
  58:	0500                	addi	s0,sp,640
  5a:	0410                	addi	a2,sp,512
  5c:	000001bf 7e060105 	.8byte	0x7e060105000001bf
  64:	0000                	unimp
  66:	0500                	addi	s0,sp,640
  68:	0502                	c.slli64	a0
  6a:	01a4                	addi	s1,sp,200
  6c:	0000                	unimp
  6e:	0405                	addi	s0,s0,1
  70:	8305                	srli	a4,a4,0x1
  72:	0001                	nop
  74:	0500                	addi	s0,sp,640
  76:	0801                	addi	a6,a6,0
  78:	007c                	addi	a5,sp,12
  7a:	0000                	unimp
  7c:	0001ae0f          	.4byte	0x1ae0f
  80:	0300                	addi	s0,sp,384
  82:	1931                	addi	s2,s2,-20 # fec <_min_stack-0x1014>
  84:	0088                	addi	a0,sp,64
  86:	0000                	unimp
  88:	0205                	addi	tp,tp,1 # 1 <_min_stack-0x1fff>
  8a:	0000fa07          	.4byte	0xfa07
  8e:	0500                	addi	s0,sp,640
  90:	0704                	addi	s1,sp,896
  92:	014e                	slli	sp,sp,0x13
  94:	0000                	unimp
  96:	0805                	addi	a6,a6,1
  98:	00014907          	.4byte	0x14907
  9c:	1000                	addi	s0,sp,32
  9e:	00ad                	addi	ra,ra,11
  a0:	0000                	unimp
  a2:	00ad                	addi	ra,ra,11
  a4:	0000                	unimp
  a6:	4b11                	li	s6,4
  a8:	0000                	unimp
  aa:	0f00                	addi	s0,sp,912
  ac:	0500                	addi	s0,sp,640
  ae:	0801                	addi	a6,a6,0
  b0:	0085                	addi	ra,ra,1
  b2:	0000                	unimp
  b4:	0000ad23          	sw	zero,26(ra)
  b8:	2400                	.2byte	0x2400
  ba:	010d                	addi	sp,sp,3
  bc:	0000                	unimp
  be:	8201                	c.srli64	a2
  c0:	9d06                	add	s10,s10,ra
  c2:	0000                	unimp
  c4:	0500                	addi	s0,sp,640
  c6:	00055403          	lhu	s0,0(a0)
  ca:	18e0                	addi	s0,sp,124
  cc:	0128                	addi	a0,sp,136
  ce:	0000                	unimp
  d0:	0148                	addi	a0,sp,132
  d2:	0044                	addi	s1,sp,4
  d4:	0000                	unimp
  d6:	042e                	slli	s0,s0,0xb
  d8:	e000                	.2byte	0xe000
  da:	002c                	addi	a1,sp,8
  dc:	0000                	unimp
  de:	9c01                	.2byte	0x9c01
  e0:	0155                	addi	sp,sp,21
  e2:	0000                	unimp
  e4:	7325                	lui	t1,0xfffe9
  e6:	0100                	addi	s0,sp,128
  e8:	0148                	addi	a0,sp,132
  ea:	5516                	lw	a0,100(sp)
  ec:	0001                	nop
  ee:	0c00                	addi	s0,sp,528
  f0:	0000                	unimp
  f2:	2600                	.2byte	0x2600
  f4:	0069                	c.nop	26
  f6:	4a01                	li	s4,0
  f8:	0701                	addi	a4,a4,0
  fa:	0044                	addi	s1,sp,4
  fc:	0000                	unimp
  fe:	003c                	addi	a5,sp,8
 100:	0000                	unimp
 102:	00044427          	.4byte	0x44427
 106:	4400                	lw	s0,8(s0)
 108:	0004                	.2byte	0x4
 10a:	04e0                	addi	s0,sp,588
 10c:	0000                	unimp
 10e:	0100                	addi	s0,sp,128
 110:	3003014f          	.4byte	0x3003014f
 114:	0001                	nop
 116:	0100                	addi	s0,sp,128
 118:	0455                	addi	s0,s0,21
 11a:	0000                	unimp
 11c:	006a                	c.slli	zero,0x1a
 11e:	0000                	unimp
 120:	00044807          	.4byte	0x44807
 124:	b4e0                	.2byte	0xb4e0
 126:	0004                	.2byte	0x4
 128:	0600                	addi	s0,sp,768
 12a:	5a01                	li	s4,-32
 12c:	3a01                	jal	fffffa3c <fromhost+0x1ffefa2c>
 12e:	0000                	unimp
 130:	4428                	lw	a0,72(s0)
 132:	0004                	.2byte	0x4
 134:	5600                	lw	s0,40(a2)
 136:	0004                	.2byte	0x4
 138:	04e0                	addi	s0,sp,588
 13a:	0000                	unimp
 13c:	0100                	addi	s0,sp,128
 13e:	014d                	addi	sp,sp,19
 140:	0105                	addi	sp,sp,1
 142:	0455                	addi	s0,s0,21
 144:	0000                	unimp
 146:	00000077          	.4byte	0x77
 14a:	5812                	lw	a6,36(sp)
 14c:	0004                	.2byte	0x4
 14e:	b4e0                	.2byte	0xb4e0
 150:	0004                	.2byte	0x4
 152:	0000                	unimp
 154:	1300                	addi	s0,sp,416
 156:	00b4                	addi	a3,sp,72
 158:	0000                	unimp
 15a:	9318                	.2byte	0x9318
 15c:	0001                	nop
 15e:	3900                	.2byte	0x3900
 160:	4401                	li	s0,0
 162:	0000                	unimp
 164:	cc00                	sw	s0,24(s0)
 166:	0002                	c.slli64	zero
 168:	58e0                	lw	s0,116(s1)
 16a:	0001                	nop
 16c:	0100                	addi	s0,sp,128
 16e:	819c                	.2byte	0x819c
 170:	0002                	c.slli64	zero
 172:	2900                	.2byte	0x2900
 174:	012d                	addi	sp,sp,11
 176:	0000                	unimp
 178:	3901                	jal	fffffd88 <fromhost+0x1ffefd78>
 17a:	1801                	addi	a6,a6,-32
 17c:	0155                	addi	sp,sp,21
 17e:	0000                	unimp
 180:	0088                	addi	a0,sp,64
 182:	0000                	unimp
 184:	192a                	slli	s2,s2,0x2a
 186:	6370                	.2byte	0x6370
 188:	3b00                	.2byte	0x3b00
 18a:	0701                	addi	a4,a4,0
 18c:	0044                	addi	s1,sp,4
 18e:	0000                	unimp
 190:	0061762b          	.4byte	0x61762b
 194:	3c01                	jal	fffffba4 <fromhost+0x1ffefb94>
 196:	0b01                	addi	s6,s6,0
 198:	0038                	addi	a4,sp,8
 19a:	0000                	unimp
 19c:	7fac9103          	lh	sp,2042(s9)
 1a0:	812c                	.2byte	0x812c
 1a2:	0002                	c.slli64	zero
 1a4:	f600                	.2byte	0xf600
 1a6:	0002                	c.slli64	zero
 1a8:	b6e0                	.2byte	0xb6e0
 1aa:	0000                	unimp
 1ac:	0100                	addi	s0,sp,128
 1ae:	0140                	addi	s0,sp,132
 1b0:	1408                	addi	a0,sp,544
 1b2:	0290                	addi	a2,sp,320
 1b4:	0000                	unimp
 1b6:	a601                	j	4b6 <_min_stack-0x1b4a>
 1b8:	0002                	c.slli64	zero
 1ba:	a200                	.2byte	0xa200
 1bc:	0000                	unimp
 1be:	0100                	addi	s0,sp,128
 1c0:	0000029b          	.4byte	0x29b
 1c4:	013d                	addi	sp,sp,15
 1c6:	0000                	unimp
 1c8:	b61a                	.2byte	0xb61a
 1ca:	0000                	unimp
 1cc:	0300                	addi	s0,sp,384
 1ce:	02b0                	addi	a2,sp,328
 1d0:	0000                	unimp
 1d2:	01fc                	addi	a5,sp,204
 1d4:	0000                	unimp
 1d6:	0002bb03          	.4byte	0x2bb03
 1da:	4d00                	lw	s0,24(a0)
 1dc:	0002                	c.slli64	zero
 1de:	0300                	addi	s0,sp,384
 1e0:	02c6                	slli	t0,t0,0x11
 1e2:	0000                	unimp
 1e4:	029e                	slli	t0,t0,0x7
 1e6:	0000                	unimp
 1e8:	d015                	beqz	s0,10c <_min_stack-0x1ef4>
 1ea:	0002                	c.slli64	zero
 1ec:	0300                	addi	s0,sp,384
 1ee:	a891                	j	242 <_min_stack-0x1dbe>
 1f0:	2d7f                	.2byte	0x2d7f
 1f2:	000002db          	.4byte	0x2db
 1f6:	041a                	slli	s0,s0,0x6
 1f8:	e000                	.2byte	0xe000
 1fa:	0002e41b          	.4byte	0x2e41b
 1fe:	c900                	sw	s0,16(a0)
 200:	0000                	unimp
 202:	0f00                	addi	s0,sp,912
 204:	0002                	c.slli64	zero
 206:	1500                	addi	s0,sp,672
 208:	02e5                	addi	t0,t0,25
 20a:	0000                	unimp
 20c:	5a01                	li	s4,-32
 20e:	2e00                	.2byte	0x2e00
 210:	0422                	slli	s0,s0,0x8
 212:	0000                	unimp
 214:	041a                	slli	s0,s0,0x6
 216:	e000                	.2byte	0xe000
 218:	00dc                	addi	a5,sp,68
 21a:	0000                	unimp
 21c:	3001                	jal	fffffa1c <fromhost+0x1ffefa0c>
 21e:	0701                	addi	a4,a4,0
 220:	0258                	addi	a4,sp,260
 222:	0000                	unimp
 224:	2f01                	jal	934 <_min_stack-0x16cc>
 226:	0004                	.2byte	0x4
 228:	d800                	sw	s0,48(s0)
 22a:	0002                	c.slli64	zero
 22c:	0100                	addi	s0,sp,128
 22e:	043a                	slli	s0,s0,0xe
 230:	0000                	unimp
 232:	02e5                	addi	t0,t0,25
 234:	0000                	unimp
 236:	4408                	lw	a0,8(s0)
 238:	0004                	.2byte	0x4
 23a:	1a00                	addi	s0,sp,304
 23c:	0004                	.2byte	0x4
 23e:	dce0                	sw	s0,124(s1)
 240:	0000                	unimp
 242:	9a00                	.2byte	0x9a00
 244:	5501                	li	a0,-32
 246:	0004                	.2byte	0x4
 248:	e500                	.2byte	0xe500
 24a:	0002                	c.slli64	zero
 24c:	1200                	addi	s0,sp,288
 24e:	0422                	slli	s0,s0,0x8
 250:	e000                	.2byte	0xe000
 252:	04b4                	addi	a3,sp,584
 254:	0000                	unimp
 256:	0000                	unimp
 258:	8a1c                	.2byte	0x8a1c
 25a:	9ce00003          	lb	zero,-1586(zero) # fffff9ce <fromhost+0x1ffef9be>
 25e:	0005                	c.nop	1
 260:	6d00                	.2byte	0x6d00
 262:	0002                	c.slli64	zero
 264:	0b00                	addi	s0,sp,400
 266:	03c8                	addi	a0,sp,452
 268:	0000                	unimp
 26a:	3001                	jal	fffffa6a <fromhost+0x1ffefa5a>
 26c:	0700                	addi	s0,sp,896
 26e:	03b6                	slli	t2,t2,0xd
 270:	e000                	.2byte	0xe000
 272:	000006d3          	.4byte	0x6d3
 276:	00031a0b          	.4byte	0x31a0b
 27a:	0100                	addi	s0,sp,128
 27c:	0030                	addi	a2,sp,8
 27e:	0000                	unimp
 280:	0900                	addi	s0,sp,144
 282:	018c                	addi	a1,sp,192
 284:	0000                	unimp
 286:	0cf5                	addi	s9,s9,29
 288:	0044                	addi	s1,sp,4
 28a:	0000                	unimp
 28c:	02f1                	addi	t0,t0,28
 28e:	0000                	unimp
 290:	6f04                	.2byte	0x6f04
 292:	7475                	lui	s0,0xffffd
 294:	f500                	.2byte	0xf500
 296:	f11a                	.2byte	0xf11a
 298:	0002                	c.slli64	zero
 29a:	0a00                	addi	s0,sp,272
 29c:	012d                	addi	sp,sp,11
 29e:	0000                	unimp
 2a0:	2bf5                	jal	89c <_min_stack-0x1764>
 2a2:	0155                	addi	sp,sp,21
 2a4:	0000                	unimp
 2a6:	7604                	.2byte	0x7604
 2a8:	0061                	c.nop	24
 2aa:	3bf5                	jal	a6 <_min_stack-0x1f5a>
 2ac:	0038                	addi	a4,sp,8
 2ae:	0000                	unimp
 2b0:	2216                	.2byte	0x2216
 2b2:	0001                	nop
 2b4:	f700                	.2byte	0xf700
 2b6:	4410                	lw	a2,8(s0)
 2b8:	0000                	unimp
 2ba:	0200                	addi	s0,sp,256
 2bc:	6170                	.2byte	0x6170
 2be:	0064                	addi	s1,sp,12
 2c0:	004417f7          	.4byte	0x4417f7
 2c4:	0000                	unimp
 2c6:	7002                	.2byte	0x7002
 2c8:	10f80063          	beq	a6,a5,3c8 <_min_stack-0x1c38>
 2cc:	0044                	addi	s1,sp,4
 2ce:	0000                	unimp
 2d0:	7302                	.2byte	0x7302
 2d2:	f9007263          	bgeu	zero,a6,fffffa56 <fromhost+0x1ffefa46>
 2d6:	fb08                	.2byte	0xfb08
 2d8:	0002                	c.slli64	zero
 2da:	2f00                	.2byte	0x2f00
 2dc:	0074756f          	jal	a0,47ae2 <tohost+0x27ada>
 2e0:	2f01                	jal	9f0 <_min_stack-0x1610>
 2e2:	0101                	addi	sp,sp,0
 2e4:	00731917          	auipc	s2,0x731
 2e8:	0112                	slli	sp,sp,0x4
 2ea:	f618                	.2byte	0xf618
 2ec:	0002                	c.slli64	zero
 2ee:	0000                	unimp
 2f0:	1300                	addi	s0,sp,416
 2f2:	02f6                	slli	t0,t0,0x1d
 2f4:	0000                	unimp
 2f6:	0000ad13          	slti	s10,ra,0
 2fa:	1000                	addi	s0,sp,32
 2fc:	00ad                	addi	ra,ra,11
 2fe:	0000                	unimp
 300:	0000030b          	.4byte	0x30b
 304:	4b11                	li	s6,4
 306:	0000                	unimp
 308:	0100                	addi	s0,sp,128
 30a:	0900                	addi	s0,sp,144
 30c:	005d                	c.nop	23
 30e:	0000                	unimp
 310:	00440cbb          	.4byte	0x440cbb
 314:	0000                	unimp
 316:	03a9                	addi	t2,t2,10
 318:	0000                	unimp
 31a:	6f04                	.2byte	0x6f04
 31c:	7475                	lui	s0,0xffffd
 31e:	bb00                	.2byte	0xbb00
 320:	0002f11b          	.4byte	0x2f11b
 324:	0400                	addi	s0,sp,512
 326:	0069                	c.nop	26
 328:	004424bb          	.4byte	0x4424bb
 32c:	0000                	unimp
 32e:	6204                	.2byte	0x6204
 330:	bb00                	.2byte	0xbb00
 332:	0000442b          	.4byte	0x442b
 336:	0400                	addi	s0,sp,512
 338:	bb006773          	csrrsi	a4,0xbb0,0
 33c:	4432                	lw	s0,12(sp)
 33e:	0000                	unimp
 340:	0a00                	addi	s0,sp,272
 342:	0122                	slli	sp,sp,0x8
 344:	0000                	unimp
 346:	00443abb          	.4byte	0x443abb
 34a:	0000                	unimp
 34c:	7004                	.2byte	0x7004
 34e:	6461                	lui	s0,0x18
 350:	bb00                	.2byte	0xbb00
 352:	4445                	li	s0,17
 354:	0000                	unimp
 356:	0a00                	addi	s0,sp,272
 358:	000001b7          	lui	gp,0x0
 35c:	00ad4fbb          	.4byte	0xad4fbb
 360:	0000                	unimp
 362:	6016                	.2byte	0x6016
 364:	0001                	nop
 366:	bd00                	.2byte	0xbd00
 368:	a908                	.2byte	0xa908
 36a:	02000003          	lb	zero,32(zero) # 20 <_min_stack-0x1fe0>
 36e:	12be0073          	sfence.vma	t3,a1
 372:	02f6                	slli	t0,t0,0x1d
 374:	0000                	unimp
 376:	6e02                	.2byte	0x6e02
 378:	6765                	lui	a4,0x19
 37a:	bf00                	.2byte	0xbf00
 37c:	4410                	lw	a2,8(s0)
 37e:	0000                	unimp
 380:	0200                	addi	s0,sp,256
 382:	6370                	.2byte	0x6370
 384:	bf00                	.2byte	0xbf00
 386:	4419                	li	s0,6
 388:	0000                	unimp
 38a:	0200                	addi	s0,sp,256
 38c:	0074                	addi	a3,sp,12
 38e:	10c0                	addi	s0,sp,100
 390:	0000004b          	.4byte	0x4b
 394:	7502                	.2byte	0x7502
 396:	c000                	sw	s0,0(s0)
 398:	4b12                	lw	s6,4(sp)
 39a:	0000                	unimp
 39c:	1700                	addi	s0,sp,928
 39e:	7402                	.2byte	0x7402
 3a0:	d600                	sw	s0,40(a2)
 3a2:	0000440b          	.4byte	0x440b
 3a6:	0000                	unimp
 3a8:	1000                	addi	s0,sp,32
 3aa:	00ad                	addi	ra,ra,11
 3ac:	0000                	unimp
 3ae:	03b9                	addi	t2,t2,14
 3b0:	0000                	unimp
 3b2:	4b11                	li	s6,4
 3b4:	0000                	unimp
 3b6:	1f00                	addi	s0,sp,944
 3b8:	0900                	addi	s0,sp,144
 3ba:	01d9                	addi	gp,gp,22 # 16 <_min_stack-0x1fea>
 3bc:	0000                	unimp
 3be:	0c9d                	addi	s9,s9,7
 3c0:	0044                	addi	s1,sp,4
 3c2:	0000                	unimp
 3c4:	0422                	slli	s0,s0,0x8
 3c6:	0000                	unimp
 3c8:	6f04                	.2byte	0x6f04
 3ca:	7475                	lui	s0,0xffffd
 3cc:	9d00                	.2byte	0x9d00
 3ce:	0002f11b          	.4byte	0x2f11b
 3d2:	0a00                	addi	s0,sp,272
 3d4:	0000004f          	.4byte	0x4f
 3d8:	2c9d                	jal	64e <_min_stack-0x19b2>
 3da:	0155                	addi	sp,sp,21
 3dc:	0000                	unimp
 3de:	220a                	.2byte	0x220a
 3e0:	0001                	nop
 3e2:	9d00                	.2byte	0x9d00
 3e4:	4438                	lw	a4,72(s0)
 3e6:	0000                	unimp
 3e8:	0400                	addi	s0,sp,512
 3ea:	6170                	.2byte	0x6170
 3ec:	0064                	addi	s1,sp,12
 3ee:	439d                	li	t2,7
 3f0:	0044                	addi	s1,sp,4
 3f2:	0000                	unimp
 3f4:	7002                	.2byte	0x7002
 3f6:	109f0063          	beq	t5,s1,4f6 <_min_stack-0x1b0a>
 3fa:	0044                	addi	s1,sp,4
 3fc:	0000                	unimp
 3fe:	7416                	.2byte	0x7416
 400:	0000                	unimp
 402:	9f00                	.2byte	0x9f00
 404:	4418                	lw	a4,8(s0)
 406:	0000                	unimp
 408:	1700                	addi	s0,sp,928
 40a:	6c02                	.2byte	0x6c02
 40c:	6e65                	lui	t3,0x19
 40e:	a200                	.2byte	0xa200
 410:	4412                	lw	s0,4(sp)
 412:	0000                	unimp
 414:	0200                	addi	s0,sp,256
 416:	7470                	.2byte	0x7470
 418:	0072                	c.slli	zero,0x1c
 41a:	01551aa3          	sh	s5,21(a0)
 41e:	0000                	unimp
 420:	0000                	unimp
 422:	1f30                	addi	a2,sp,952
 424:	0000                	unimp
 426:	0100                	addi	s0,sp,128
 428:	0d92                	slli	s11,s11,0x4
 42a:	4401                	li	s0,0
 42c:	0004                	.2byte	0x4
 42e:	0400                	addi	s0,sp,512
 430:	00727473          	csrrci	s0,0x7,4
 434:	1f92                	slli	t6,t6,0x24
 436:	02f1                	addi	t0,t0,28
 438:	0000                	unimp
 43a:	6304                	.2byte	0x6304
 43c:	9200                	.2byte	0x9200
 43e:	4428                	lw	a0,72(s0)
 440:	0000                	unimp
 442:	0000                	unimp
 444:	1a31                	addi	s4,s4,-20
 446:	0001                	nop
 448:	0100                	addi	s0,sp,128
 44a:	058c                	addi	a1,sp,704
 44c:	0044                	addi	s1,sp,4
 44e:	0000                	unimp
 450:	5f01                	li	t5,-32
 452:	0004                	.2byte	0x4
 454:	0400                	addi	s0,sp,512
 456:	118c0073          	.4byte	0x118c0073
 45a:	0044                	addi	s1,sp,4
 45c:	0000                	unimp
 45e:	0900                	addi	s0,sp,144
 460:	016a                	slli	sp,sp,0x1a
 462:	0000                	unimp
 464:	004b1187          	.4byte	0x4b1187
 468:	0000                	unimp
 46a:	0478                	addi	a4,sp,524
 46c:	0000                	unimp
 46e:	6e04                	.2byte	0x6e04
 470:	8700                	.2byte	0x8700
 472:	4b21                	li	s6,8
 474:	0000                	unimp
 476:	0000                	unimp
 478:	5609                	li	a2,-30
 47a:	0000                	unimp
 47c:	7500                	.2byte	0x7500
 47e:	4b11                	li	s6,4
 480:	0000                	unimp
 482:	a300                	.2byte	0xa300
 484:	0004                	.2byte	0x4
 486:	0400                	addi	s0,sp,512
 488:	006e                	c.slli	zero,0x1b
 48a:	2175                	jal	936 <_min_stack-0x16ca>
 48c:	0000004b          	.4byte	0x4b
 490:	7102                	.2byte	0x7102
 492:	7600                	.2byte	0x7600
 494:	4b0c                	lw	a1,16(a4)
 496:	0000                	unimp
 498:	0200                	addi	s0,sp,256
 49a:	0072                	c.slli	zero,0x1c
 49c:	0f76                	slli	t5,t5,0x1d
 49e:	0000004b          	.4byte	0x4b
 4a2:	1d00                	addi	s0,sp,688
 4a4:	002a                	c.slli	zero,0xa
 4a6:	0000                	unimp
 4a8:	02a60657          	.4byte	0x2a60657
 4ac:	e000                	.2byte	0xe000
 4ae:	000e                	c.slli	zero,0x3
 4b0:	0000                	unimp
 4b2:	9c01                	.2byte	0x9c01
 4b4:	cb0c                	sw	a1,16(a4)
 4b6:	0001                	nop
 4b8:	4f00                	lw	s0,24(a4)
 4ba:	00ee                	slli	ra,ra,0x1b
 4bc:	e000                	.2byte	0xe000
 4be:	0010                	.2byte	0x10
 4c0:	0000                	unimp
 4c2:	9c01                	.2byte	0x9c01
 4c4:	04d5                	addi	s1,s1,21
 4c6:	0000                	unimp
 4c8:	6332                	.2byte	0x6332
 4ca:	0100                	addi	s0,sp,128
 4cc:	00b41f4f          	.4byte	0xb41f4f
 4d0:	0000                	unimp
 4d2:	5a01                	li	s4,-32
 4d4:	3300                	.2byte	0x3300
 4d6:	0000                	unimp
 4d8:	0000                	unimp
 4da:	4901                	li	s2,0
 4dc:	ad06                	.2byte	0xad06
 4de:	0000                	unimp
 4e0:	dc00                	sw	s0,56(s0)
 4e2:	0000                	unimp
 4e4:	12e0                	addi	s0,sp,364
 4e6:	0000                	unimp
 4e8:	0100                	addi	s0,sp,128
 4ea:	0c9c                	addi	a5,sp,592
 4ec:	019a                	slli	gp,gp,0x6
 4ee:	0000                	unimp
 4f0:	0000b637          	lui	a2,0xb
 4f4:	26e0                	.2byte	0x26e0
 4f6:	0000                	unimp
 4f8:	0100                	addi	s0,sp,128
 4fa:	279c                	.2byte	0x279c
 4fc:	0005                	c.nop	1
 4fe:	1e00                	addi	s0,sp,816
 500:	00727473          	csrrci	s0,0x7,4
 504:	551c                	lw	a5,40(a0)
 506:	0001                	nop
 508:	f800                	.2byte	0xf800
 50a:	0002                	c.slli64	zero
 50c:	1e00                	addi	s0,sp,816
 50e:	656c                	.2byte	0x656c
 510:	006e                	c.slli	zero,0x1b
 512:	4b2e                	lw	s6,200(sp)
 514:	0000                	unimp
 516:	0f00                	addi	s0,sp,912
 518:	34000003          	lb	zero,832(zero) # 340 <_min_stack-0x1cc0>
 51c:	0069                	c.nop	26
 51e:	3801                	jal	fffffd2e <fromhost+0x1ffefd1e>
 520:	4b10                	lw	a2,16(a4)
 522:	0000                	unimp
 524:	0000                	unimp
 526:	0c00                	addi	s0,sp,528
 528:	0171                	addi	sp,sp,28
 52a:	0000                	unimp
 52c:	882c                	.2byte	0x882c
 52e:	0000                	unimp
 530:	2ee0                	.2byte	0x2ee0
 532:	0000                	unimp
 534:	0100                	addi	s0,sp,128
 536:	639c                	.2byte	0x639c
 538:	0005                	c.nop	1
 53a:	3500                	.2byte	0x3500
 53c:	01e1                	addi	gp,gp,24
 53e:	0000                	unimp
 540:	2c01                	jal	750 <_min_stack-0x18b0>
 542:	00004417          	auipc	s0,0x4
 546:	0100                	addi	s0,sp,128
 548:	365a                	.2byte	0x365a
 54a:	00ee                	slli	ra,ra,0x1b
 54c:	0000                	unimp
 54e:	2c01                	jal	75e <_min_stack-0x18a2>
 550:	7c28                	.2byte	0x7c28
 552:	0000                	unimp
 554:	3300                	.2byte	0x3300
 556:	02000003          	lb	zero,32(zero) # 20 <_min_stack-0x1fe0>
 55a:	0069                	c.nop	26
 55c:	102d                	c.nop	-21
 55e:	0000004b          	.4byte	0x4b
 562:	0c00                	addi	s0,sp,528
 564:	003c                	addi	a5,sp,8
 566:	0000                	unimp
 568:	241d                	jal	78e <_min_stack-0x1872>
 56a:	0004                	.2byte	0x4
 56c:	0ae0                	addi	s0,sp,348
 56e:	0000                	unimp
 570:	0100                	addi	s0,sp,128
 572:	8b9c                	.2byte	0x8b9c
 574:	0005                	c.nop	1
 576:	3700                	.2byte	0x3700
 578:	042e                	slli	s0,s0,0xb
 57a:	e000                	.2byte	0xe000
 57c:	015a                	slli	sp,sp,0x16
 57e:	0000                	unimp
 580:	0106                	slli	sp,sp,0x1
 582:	055a                	slli	a0,a0,0x16
 584:	00054403          	lbu	s0,0(a0)
 588:	00e0                	addi	s0,sp,76
 58a:	1d00                	addi	s0,sp,688
 58c:	0134                	addi	a3,sp,136
 58e:	0000                	unimp
 590:	1c1a                	slli	s8,s8,0x26
 592:	0084                	addi	s1,sp,64
 594:	e000                	.2byte	0xe000
 596:	0004                	.2byte	0x4
 598:	0000                	unimp
 59a:	9c01                	.2byte	0x9c01
 59c:	b91f 0003 fe00      	.byte	0x1f, 0xb9, 0x03, 0x00, 0x00, 0xfe
 5a2:	0000                	unimp
 5a4:	a6e0                	.2byte	0xa6e0
 5a6:	0000                	unimp
 5a8:	0100                	addi	s0,sp,128
 5aa:	d39c                	sw	a5,32(a5)
 5ac:	0006                	c.slli	zero,0x1
 5ae:	0100                	addi	s0,sp,128
 5b0:	000003d3          	.4byte	0x3d3
 5b4:	034d                	addi	t1,t1,19 # fffe9013 <fromhost+0x1ffd9003>
 5b6:	0000                	unimp
 5b8:	de01                	beqz	a2,4d0 <_min_stack-0x1b30>
 5ba:	77000003          	lb	zero,1904(zero) # 770 <_min_stack-0x1890>
 5be:	01000003          	lb	zero,16(zero) # 10 <_min_stack-0x1ff0>
 5c2:	03e9                	addi	t2,t2,26
 5c4:	0000                	unimp
 5c6:	03dd                	addi	t2,t2,23
 5c8:	0000                	unimp
 5ca:	0003f403          	.4byte	0x3f403
 5ce:	1000                	addi	s0,sp,32
 5d0:	0004                	.2byte	0x4
 5d2:	0300                	addi	s0,sp,384
 5d4:	03fe                	slli	t2,t2,0x1f
 5d6:	0000                	unimp
 5d8:	0428                	addi	a0,sp,520
 5da:	0000                	unimp
 5dc:	c814                	sw	a3,16(s0)
 5de:	1b000003          	lb	zero,432(zero) # 1b0 <_min_stack-0x1e50>
 5e2:	0409                	addi	s0,s0,2 # 4544 <_min_stack+0x2544>
 5e4:	0000                	unimp
 5e6:	000c                	.2byte	0xc
 5e8:	0000                	unimp
 5ea:	0601                	addi	a2,a2,0 # b000 <_stack_len+0x3000>
 5ec:	0000                	unimp
 5ee:	00040a03          	lb	s4,0(s0)
 5f2:	4300                	lw	s0,0(a4)
 5f4:	0004                	.2byte	0x4
 5f6:	0300                	addi	s0,sp,384
 5f8:	0415                	addi	s0,s0,5
 5fa:	0000                	unimp
 5fc:	045a                	slli	s0,s0,0x16
 5fe:	0000                	unimp
 600:	0d00                	addi	s0,sp,656
 602:	0422                	slli	s0,s0,0x8
 604:	0000                	unimp
 606:	0144                	addi	s1,sp,132
 608:	e000                	.2byte	0xe000
 60a:	0028                	addi	a0,sp,8
 60c:	0000                	unimp
 60e:	064707ab          	.4byte	0x64707ab
 612:	0000                	unimp
 614:	2f01                	jal	d24 <_min_stack-0x12dc>
 616:	0004                	.2byte	0x4
 618:	9600                	.2byte	0x9600
 61a:	0004                	.2byte	0x4
 61c:	0e00                	addi	s0,sp,784
 61e:	043a                	slli	s0,s0,0xe
 620:	0000                	unimp
 622:	4408                	lw	a0,8(s0)
 624:	0004                	.2byte	0x4
 626:	4400                	lw	s0,8(s0)
 628:	0001                	nop
 62a:	3be0                	.2byte	0x3be0
 62c:	0000                	unimp
 62e:	9a00                	.2byte	0x9a00
 630:	550e                	lw	a0,224(sp)
 632:	0004                	.2byte	0x4
 634:	0700                	addi	s0,sp,896
 636:	0152                	slli	sp,sp,0x14
 638:	e000                	.2byte	0xe000
 63a:	04b4                	addi	a3,sp,584
 63c:	0000                	unimp
 63e:	0106                	slli	sp,sp,0x1
 640:	025a                	slli	tp,tp,0x16
 642:	00000083          	lb	ra,0(zero) # 0 <_min_stack-0x2000>
 646:	3800                	.2byte	0x3800
 648:	0422                	slli	s0,s0,0x8
 64a:	0000                	unimp
 64c:	0168                	addi	a0,sp,140
 64e:	e000                	.2byte	0xe000
 650:	0002                	c.slli64	zero
 652:	0000                	unimp
 654:	b001                	j	fffffe54 <fromhost+0x1ffefe44>
 656:	9105                	srli	a0,a0,0x21
 658:	0006                	c.slli	zero,0x1
 65a:	0100                	addi	s0,sp,128
 65c:	0000042f          	.4byte	0x42f
 660:	000004a3          	sb	zero,9(zero) # 9 <_min_stack-0x1ff7>
 664:	3a01                	jal	ffffff74 <fromhost+0x1ffeff64>
 666:	0004                	.2byte	0x4
 668:	b000                	.2byte	0xb000
 66a:	0004                	.2byte	0x4
 66c:	3900                	.2byte	0x3900
 66e:	0444                	addi	s1,sp,516
 670:	0000                	unimp
 672:	0168                	addi	a0,sp,140
 674:	e000                	.2byte	0xe000
 676:	0002                	c.slli64	zero
 678:	0000                	unimp
 67a:	9a01                	andi	a2,a2,-32
 67c:	0105                	addi	sp,sp,1
 67e:	0455                	addi	s0,s0,21
 680:	0000                	unimp
 682:	04b0                	addi	a2,sp,584
 684:	0000                	unimp
 686:	6a12                	.2byte	0x6a12
 688:	0001                	nop
 68a:	b4e0                	.2byte	0xb4e0
 68c:	0004                	.2byte	0x4
 68e:	0000                	unimp
 690:	0800                	addi	s0,sp,16
 692:	0422                	slli	s0,s0,0x8
 694:	0000                	unimp
 696:	017a                	slli	sp,sp,0x1e
 698:	e000                	.2byte	0xe000
 69a:	004e                	c.slli	zero,0x13
 69c:	0000                	unimp
 69e:	01b4                	addi	a3,sp,200
 6a0:	0000042f          	.4byte	0x42f
 6a4:	04c1                	addi	s1,s1,16
 6a6:	0000                	unimp
 6a8:	3a0e                	.2byte	0x3a0e
 6aa:	0004                	.2byte	0x4
 6ac:	0800                	addi	s0,sp,16
 6ae:	0444                	addi	s1,sp,516
 6b0:	0000                	unimp
 6b2:	017a                	slli	sp,sp,0x1e
 6b4:	e000                	.2byte	0xe000
 6b6:	0061                	c.nop	24
 6b8:	0000                	unimp
 6ba:	0e9a                	slli	t4,t4,0x6
 6bc:	0455                	addi	s0,s0,21
 6be:	0000                	unimp
 6c0:	0001a007          	.4byte	0x1a007
 6c4:	b4e0                	.2byte	0xb4e0
 6c6:	0004                	.2byte	0x4
 6c8:	0600                	addi	s0,sp,768
 6ca:	5a01                	li	s4,-32
 6cc:	7902                	.2byte	0x7902
 6ce:	0000                	unimp
 6d0:	0000                	unimp
 6d2:	1f00                	addi	s0,sp,944
 6d4:	0000030b          	.4byte	0x30b
 6d8:	01a4                	addi	s1,sp,200
 6da:	e000                	.2byte	0xe000
 6dc:	0102                	c.slli64	sp
 6de:	0000                	unimp
 6e0:	9c01                	.2byte	0x9c01
 6e2:	084e                	slli	a6,a6,0x13
 6e4:	0000                	unimp
 6e6:	2501                	jal	ce6 <_min_stack-0x131a>
 6e8:	ce000003          	lb	zero,-800(zero) # fffffce0 <fromhost+0x1ffefcd0>
 6ec:	0004                	.2byte	0x4
 6ee:	0100                	addi	s0,sp,128
 6f0:	032e                	slli	t1,t1,0xb
 6f2:	0000                	unimp
 6f4:	051a                	slli	a0,a0,0x6
 6f6:	0000                	unimp
 6f8:	3701                	jal	5f8 <_min_stack-0x1a08>
 6fa:	71000003          	lb	zero,1808(zero) # 710 <_min_stack-0x18f0>
 6fe:	0005                	c.nop	1
 700:	0100                	addi	s0,sp,128
 702:	0341                	addi	t1,t1,16
 704:	0000                	unimp
 706:	05c8                	addi	a0,sp,708
 708:	0000                	unimp
 70a:	4c01                	li	s8,0
 70c:	0f000003          	lb	zero,240(zero) # f0 <_min_stack-0x1f10>
 710:	0006                	c.slli	zero,0x1
 712:	0100                	addi	s0,sp,128
 714:	00000357          	.4byte	0x357
 718:	0659                	addi	a2,a2,22
 71a:	0000                	unimp
 71c:	6215                	lui	tp,0x5
 71e:	02000003          	lb	zero,32(zero) # 20 <_min_stack-0x1fe0>
 722:	5091                	li	ra,-28
 724:	00036d03          	.4byte	0x36d03
 728:	a500                	.2byte	0xa500
 72a:	0006                	c.slli	zero,0x1
 72c:	0300                	addi	s0,sp,384
 72e:	0376                	slli	t1,t1,0x1d
 730:	0000                	unimp
 732:	06e1                	addi	a3,a3,24 # fff00018 <fromhost+0x1fef0008>
 734:	0000                	unimp
 736:	00038103          	lb	sp,0(t2)
 73a:	3300                	.2byte	0x3300
 73c:	3a000007          	.4byte	0x3a000007
 740:	0000038b          	.4byte	0x38b
 744:	00039403          	lh	s0,0(t2)
 748:	6f00                	.2byte	0x6f00
 74a:	14000007          	.4byte	0x14000007
 74e:	031a                	slli	t1,t1,0x6
 750:	0000                	unimp
 752:	5f0d                	li	t5,-29
 754:	0004                	.2byte	0x4
 756:	ec00                	.2byte	0xec00
 758:	0001                	nop
 75a:	74e0                	.2byte	0x74e0
 75c:	0000                	unimp
 75e:	e100                	.2byte	0xe100
 760:	6f0e                	.2byte	0x6f0e
 762:	01000007          	.4byte	0x1000007
 766:	046e                	slli	s0,s0,0x1b
 768:	0000                	unimp
 76a:	07d8                	addi	a4,sp,964
 76c:	0000                	unimp
 76e:	0d00                	addi	s0,sp,656
 770:	0478                	addi	a4,sp,524
 772:	0000                	unimp
 774:	01fc                	addi	a5,sp,204
 776:	e000                	.2byte	0xe000
 778:	0090                	addi	a2,sp,64
 77a:	0000                	unimp
 77c:	0be2                	slli	s7,s7,0x18
 77e:	07a4                	addi	s1,sp,968
 780:	0000                	unimp
 782:	8701                	c.srai64	a4
 784:	0004                	.2byte	0x4
 786:	e400                	.2byte	0xe400
 788:	1a000007          	.4byte	0x1a000007
 78c:	0090                	addi	a2,sp,64
 78e:	0000                	unimp
 790:	00049003          	lh	zero,0(s1)
 794:	fd00                	.2byte	0xfd00
 796:	03000007          	.4byte	0x3000007
 79a:	0499                	addi	s1,s1,6
 79c:	0000                	unimp
 79e:	0809                	addi	a6,a6,2
 7a0:	0000                	unimp
 7a2:	0000                	unimp
 7a4:	00039d3b          	.4byte	0x39d3b
 7a8:	5400                	lw	s0,40(s0)
 7aa:	0002                	c.slli64	zero
 7ac:	1ee0                	addi	s0,sp,892
 7ae:	0000                	unimp
 7b0:	bf00                	.2byte	0xbf00
 7b2:	03000007          	.4byte	0x3000007
 7b6:	039e                	slli	t2,t2,0x7
 7b8:	0000                	unimp
 7ba:	0832                	slli	a6,a6,0xc
 7bc:	0000                	unimp
 7be:	0d00                	addi	s0,sp,656
 7c0:	0422                	slli	s0,s0,0x8
 7c2:	0000                	unimp
 7c4:	0280                	addi	s0,sp,320
 7c6:	e000                	.2byte	0xe000
 7c8:	000000a3          	sb	zero,1(zero) # 1 <_min_stack-0x1fff>
 7cc:	07e9                	addi	a5,a5,26 # c11c001a <fromhost+0xe11b000a>
 7ce:	080d                	addi	a6,a6,3
 7d0:	0000                	unimp
 7d2:	2f01                	jal	ee2 <_min_stack-0x111e>
 7d4:	0004                	.2byte	0x4
 7d6:	4b00                	lw	s0,16(a4)
 7d8:	0008                	.2byte	0x8
 7da:	0100                	addi	s0,sp,128
 7dc:	043a                	slli	s0,s0,0xe
 7de:	0000                	unimp
 7e0:	0858                	addi	a4,sp,20
 7e2:	0000                	unimp
 7e4:	4408                	lw	a0,8(s0)
 7e6:	0004                	.2byte	0x4
 7e8:	8000                	.2byte	0x8000
 7ea:	0002                	c.slli64	zero
 7ec:	a3e0                	.2byte	0xa3e0
 7ee:	0000                	unimp
 7f0:	9a00                	.2byte	0x9a00
 7f2:	5501                	li	a0,-32
 7f4:	0004                	.2byte	0x4
 7f6:	5800                	lw	s0,48(s0)
 7f8:	0008                	.2byte	0x8
 7fa:	0700                	addi	s0,sp,896
 7fc:	028a                	slli	t0,t0,0x2
 7fe:	e000                	.2byte	0xe000
 800:	04b4                	addi	a3,sp,584
 802:	0000                	unimp
 804:	0106                	slli	sp,sp,0x1
 806:	025a                	slli	tp,tp,0x16
 808:	2d08                	.2byte	0x2d08
 80a:	0000                	unimp
 80c:	1c00                	addi	s0,sp,560
 80e:	01c2                	slli	gp,gp,0x10
 810:	e000                	.2byte	0xe000
 812:	059c                	addi	a5,sp,704
 814:	0000                	unimp
 816:	0836                	slli	a6,a6,0xd
 818:	0000                	unimp
 81a:	0106                	slli	sp,sp,0x1
 81c:	025a                	slli	tp,tp,0x16
 81e:	5091                	li	ra,-28
 820:	0106                	slli	sp,sp,0x1
 822:	01a3035b          	.4byte	0x1a3035b
 826:	065d                	addi	a2,a2,23
 828:	5c01                	li	s8,-32
 82a:	5e01a303          	lw	t1,1504(gp)
 82e:	0003c80b          	.4byte	0x3c80b
 832:	0100                	addi	s0,sp,128
 834:	0030                	addi	a2,sp,8
 836:	00029407          	.4byte	0x29407
 83a:	9ce0                	.2byte	0x9ce0
 83c:	0005                	c.nop	1
 83e:	0600                	addi	s0,sp,768
 840:	5a01                	li	s4,-32
 842:	7802                	.2byte	0x7802
 844:	0b00                	addi	s0,sp,400
 846:	03c8                	addi	a0,sp,452
 848:	0000                	unimp
 84a:	3001                	jal	4a <_min_stack-0x1fb6>
 84c:	0000                	unimp
 84e:	443c                	lw	a5,72(s0)
 850:	0004                	.2byte	0x4
 852:	b400                	.2byte	0xb400
 854:	0002                	c.slli64	zero
 856:	18e0                	addi	s0,sp,124
 858:	0000                	unimp
 85a:	0100                	addi	s0,sp,128
 85c:	019c                	addi	a5,sp,192
 85e:	0455                	addi	s0,s0,21
 860:	0000                	unimp
 862:	0866                	slli	a6,a6,0x19
 864:	0000                	unimp
 866:	0002c207          	.4byte	0x2c207
 86a:	b4e0                	.2byte	0xb4e0
 86c:	0004                	.2byte	0x4
 86e:	0600                	addi	s0,sp,768
 870:	5a01                	li	s4,-32
 872:	7802                	.2byte	0x7802
 874:	0000                	unimp
 876:	0000                	unimp
 878:	00000103          	lb	sp,0(zero) # 0 <_min_stack-0x2000>
 87c:	0005                	c.nop	1
 87e:	0401                	addi	s0,s0,0
 880:	0374                	addi	a3,sp,396
 882:	0000                	unimp
 884:	00008a03          	lb	s4,0(ra)
 888:	1d00                	addi	s0,sp,688
 88a:	01b2                	slli	gp,gp,0xc
 88c:	0000                	unimp
 88e:	0071                	c.nop	28
 890:	0000                	unimp
 892:	010e                	slli	sp,sp,0x3
 894:	0000                	unimp
 896:	0000                	unimp
 898:	0000                	unimp
 89a:	0c6a                	slli	s8,s8,0x1a
 89c:	0000                	unimp
 89e:	0101                	addi	sp,sp,0
 8a0:	7e06                	.2byte	0x7e06
 8a2:	0000                	unimp
 8a4:	0100                	addi	s0,sp,128
 8a6:	0801                	addi	a6,a6,0
 8a8:	007c                	addi	a5,sp,12
 8aa:	0000                	unimp
 8ac:	0201                	addi	tp,tp,0 # 5000 <_min_stack+0x3000>
 8ae:	a405                	j	ace <_min_stack-0x1532>
 8b0:	0001                	nop
 8b2:	0100                	addi	s0,sp,128
 8b4:	0702                	c.slli64	a4
 8b6:	00fa                	slli	ra,ra,0x1e
 8b8:	0000                	unimp
 8ba:	0401                	addi	s0,s0,0
 8bc:	8305                	srli	a4,a4,0x1
 8be:	0001                	nop
 8c0:	0100                	addi	s0,sp,128
 8c2:	0704                	addi	s1,sp,896
 8c4:	014e                	slli	sp,sp,0x13
 8c6:	0000                	unimp
 8c8:	0801                	addi	a6,a6,0
 8ca:	7e05                	lui	t3,0xfffe1
 8cc:	0001                	nop
 8ce:	0100                	addi	s0,sp,128
 8d0:	0708                	addi	a0,sp,896
 8d2:	0149                	addi	sp,sp,18
 8d4:	0000                	unimp
 8d6:	0404                	addi	s1,sp,512
 8d8:	6905                	lui	s2,0x1
 8da:	746e                	.2byte	0x746e
 8dc:	0500                	addi	s0,sp,640
 8de:	005e                	c.slli	zero,0x17
 8e0:	0000                	unimp
 8e2:	0401                	addi	s0,s0,0
 8e4:	00015307          	.4byte	0x15307
 8e8:	0100                	addi	s0,sp,128
 8ea:	0410                	addi	a2,sp,512
 8ec:	000001bf 85080101 	.8byte	0x85080101000001bf
 8f4:	0000                	unimp
 8f6:	0600                	addi	s0,sp,768
 8f8:	01e8                	addi	a0,sp,204
 8fa:	0000                	unimp
 8fc:	1201                	addi	tp,tp,-32 # ffffffe0 <fromhost+0x1ffeffd0>
 8fe:	5e05                	li	t3,-31
 900:	0000                	unimp
 902:	de00                	sw	s0,56(a2)
 904:	0004                	.2byte	0x4
 906:	5ce0                	lw	s0,124(s1)
 908:	0000                	unimp
 90a:	0100                	addi	s0,sp,128
 90c:	009c                	addi	a5,sp,64
 90e:	0001                	nop
 910:	0200                	addi	s0,sp,256
 912:	7470                	.2byte	0x7470
 914:	0072                	c.slli	zero,0x1c
 916:	1314                	addi	a3,sp,416
 918:	0100                	addi	s0,sp,128
 91a:	0000                	unimp
 91c:	0894                	addi	a3,sp,80
 91e:	0000                	unimp
 920:	0001ed07          	.4byte	0x1ed07
 924:	0100                	addi	s0,sp,128
 926:	0715                	addi	a4,a4,5 # 19005 <_stack_len+0x11005>
 928:	005e                	c.slli	zero,0x17
 92a:	0000                	unimp
 92c:	5f01                	li	t5,-32
 92e:	6208                	.2byte	0x6208
 930:	0100                	addi	s0,sp,128
 932:	0c15                	addi	s8,s8,5 # 1d005 <_stack_len+0x15005>
 934:	005e                	c.slli	zero,0x17
 936:	0000                	unimp
 938:	5d01                	li	s10,-32
 93a:	6502                	.2byte	0x6502
 93c:	7272                	.2byte	0x7272
 93e:	1600                	addi	s0,sp,800
 940:	00005e07          	.4byte	0x5e07
 944:	3000                	.2byte	0x3000
 946:	0009                	c.nop	2
 948:	0900                	addi	s0,sp,144
 94a:	04de                	slli	s1,s1,0x17
 94c:	e000                	.2byte	0xe000
 94e:	0018                	.2byte	0x18
 950:	0000                	unimp
 952:	00ec                	addi	a1,sp,76
 954:	0000                	unimp
 956:	6902                	.2byte	0x6902
 958:	1700                	addi	s0,sp,928
 95a:	00005e0b          	.4byte	0x5e0b
 95e:	5300                	lw	s0,32(a4)
 960:	0009                	c.nop	2
 962:	0000                	unimp
 964:	fb0a                	.2byte	0xfb0a
 966:	0000                	unimp
 968:	0200                	addi	s0,sp,256
 96a:	0069                	c.nop	26
 96c:	005e0b23          	sb	t0,22(t3) # fffe1016 <fromhost+0x1ffd1006>
 970:	0000                	unimp
 972:	0000097b          	.4byte	0x97b
 976:	0000                	unimp
 978:	0065040b          	.4byte	0x65040b
 97c:	0000                	unimp
 97e:	1f00                	addi	s0,sp,944
 980:	0000                	unimp
 982:	0500                	addi	s0,sp,640
 984:	0100                	addi	s0,sp,128
 986:	0f04                	addi	s1,sp,912
 988:	0004                	.2byte	0x4
 98a:	0100                	addi	s0,sp,128
 98c:	0e5f 0000 0124      	.byte	0x5f, 0x0e, 0x00, 0x00, 0x24, 0x01
 992:	0000                	unimp
 994:	01f2                	slli	gp,gp,0x1c
 996:	0000                	unimp
 998:	0262                	slli	tp,tp,0x18
 99a:	0000                	unimp
 99c:	02ce                	slli	t0,t0,0x13
 99e:	0000                	unimp
 9a0:	8001                	c.srli64	s0

Disassembly of section .debug_abbrev:

00000000 <.debug_abbrev>:
   0:	0501                	addi	a0,a0,0
   2:	3100                	.2byte	0x3100
   4:	00170213          	addi	tp,a4,1
   8:	0200                	addi	s0,sp,256
   a:	0034                	addi	a3,sp,8
   c:	213a0803          	lb	a6,531(s4)
  10:	3b01                	jal	fffffd20 <fromhost+0x1ffefd10>
  12:	490b390b          	.4byte	0x490b390b
  16:	03000013          	li	zero,48
  1a:	0034                	addi	a3,sp,8
  1c:	1331                	addi	t1,t1,-20
  1e:	1702                	slli	a4,a4,0x20
  20:	0000                	unimp
  22:	0504                	addi	s1,sp,640
  24:	0300                	addi	s0,sp,384
  26:	3a08                	.2byte	0x3a08
  28:	0121                	addi	sp,sp,8
  2a:	0b390b3b          	.4byte	0xb390b3b
  2e:	1349                	addi	t1,t1,-14
  30:	0000                	unimp
  32:	2405                	jal	252 <_min_stack-0x1dae>
  34:	0b00                	addi	s0,sp,400
  36:	030b3e0b          	.4byte	0x30b3e0b
  3a:	000e                	c.slli	zero,0x3
  3c:	0600                	addi	s0,sp,768
  3e:	0049                	c.nop	18
  40:	1802                	slli	a6,a6,0x20
  42:	187e                	slli	a6,a6,0x3f
  44:	0000                	unimp
  46:	7d014807          	.4byte	0x7d014807
  4a:	7f01                	lui	t5,0xfffe0
  4c:	08000013          	li	zero,128
  50:	011d                	addi	sp,sp,7
  52:	1331                	addi	t1,t1,-20
  54:	0152                	slli	sp,sp,0x14
  56:	1755                	addi	a4,a4,-11
  58:	2158                	.2byte	0x2158
  5a:	5901                	li	s2,-32
  5c:	0521570b          	.4byte	0x521570b
  60:	0000                	unimp
  62:	2e09                	jal	374 <_min_stack-0x1c8c>
  64:	0301                	addi	t1,t1,0
  66:	3a0e                	.2byte	0x3a0e
  68:	0121                	addi	sp,sp,8
  6a:	0b390b3b          	.4byte	0xb390b3b
  6e:	13491927          	.4byte	0x13491927
  72:	2120                	.2byte	0x2120
  74:	0101                	addi	sp,sp,0
  76:	0a000013          	li	zero,160
  7a:	0005                	c.nop	1
  7c:	213a0e03          	lb	t3,531(s4)
  80:	3b01                	jal	fffffd90 <fromhost+0x1ffefd80>
  82:	490b390b          	.4byte	0x490b390b
  86:	0b000013          	li	zero,176
  8a:	0049                	c.nop	18
  8c:	0180                	addi	s0,sp,192
  8e:	00187e13          	andi	t3,a6,1
  92:	0c00                	addi	s0,sp,528
  94:	012e                	slli	sp,sp,0xb
  96:	0e03193f 3b01213a 	.8byte	0x3b01213a0e03193f
  9e:	0621390b          	.4byte	0x621390b
  a2:	01111927          	.4byte	0x1111927
  a6:	0612                	slli	a2,a2,0x4
  a8:	1840                	addi	s0,sp,52
  aa:	197a                	slli	s2,s2,0x3e
  ac:	1301                	addi	t1,t1,-32
  ae:	0000                	unimp
  b0:	1d0d                	addi	s10,s10,-29
  b2:	3101                	jal	fffffcb2 <fromhost+0x1ffefca2>
  b4:	55015213          	.4byte	0x55015213
  b8:	01215817          	auipc	a6,0x1215
  bc:	0b59                	addi	s6,s6,22
  be:	13010b57          	.4byte	0x13010b57
  c2:	0000                	unimp
  c4:	050e                	slli	a0,a0,0x3
  c6:	3100                	.2byte	0x3100
  c8:	0f000013          	li	zero,240
  cc:	0016                	c.slli	zero,0x5
  ce:	0b3a0e03          	lb	t3,179(s4)
  d2:	0b390b3b          	.4byte	0xb390b3b
  d6:	1349                	addi	t1,t1,-14
  d8:	0000                	unimp
  da:	0110                	addi	a2,sp,128
  dc:	4901                	li	s2,0
  de:	00130113          	addi	sp,t1,1
  e2:	1100                	addi	s0,sp,160
  e4:	0021                	c.nop	8
  e6:	1349                	addi	t1,t1,-14
  e8:	00000b2f          	.4byte	0xb2f
  ec:	4812                	lw	a6,4(sp)
  ee:	7d00                	.2byte	0x7d00
  f0:	7f01                	lui	t5,0xfffe0
  f2:	13000013          	li	zero,304
  f6:	210b000f          	.4byte	0x210b000f
  fa:	4904                	lw	s1,16(a0)
  fc:	14000013          	li	zero,320
 100:	0005                	c.nop	1
 102:	1331                	addi	t1,t1,-20
 104:	211c                	.2byte	0x211c
 106:	0000                	unimp
 108:	1500                	addi	s0,sp,672
 10a:	0034                	addi	a3,sp,8
 10c:	1331                	addi	t1,t1,-20
 10e:	1802                	slli	a6,a6,0x20
 110:	0000                	unimp
 112:	3416                	.2byte	0x3416
 114:	0300                	addi	s0,sp,384
 116:	3a0e                	.2byte	0x3a0e
 118:	0121                	addi	sp,sp,8
 11a:	0b390b3b          	.4byte	0xb390b3b
 11e:	1349                	addi	t1,t1,-14
 120:	0000                	unimp
 122:	00010b17          	auipc	s6,0x10
 126:	1800                	addi	s0,sp,48
 128:	012e                	slli	sp,sp,0xb
 12a:	0e03193f 3b01213a 	.8byte	0x3b01213a0e03193f
 132:	3905                	jal	fffffd62 <fromhost+0x1ffefd52>
 134:	0521                	addi	a0,a0,8
 136:	13491927          	.4byte	0x13491927
 13a:	0111                	addi	sp,sp,4
 13c:	0612                	slli	a2,a2,0x4
 13e:	1840                	addi	s0,sp,52
 140:	197a                	slli	s2,s2,0x3e
 142:	1301                	addi	t1,t1,-32
 144:	0000                	unimp
 146:	3419                	jal	fffffb4c <fromhost+0x1ffefb3c>
 148:	0300                	addi	s0,sp,384
 14a:	3a08                	.2byte	0x3a08
 14c:	0121                	addi	sp,sp,8
 14e:	0b39053b          	.4byte	0xb39053b
 152:	1349                	addi	t1,t1,-14
 154:	0000                	unimp
 156:	0b1a                	slli	s6,s6,0x6
 158:	5501                	li	a0,-32
 15a:	1b000017          	auipc	zero,0x1b000
 15e:	1331010b          	.4byte	0x1331010b
 162:	1755                	addi	a4,a4,-11
 164:	1301                	addi	t1,t1,-32
 166:	0000                	unimp
 168:	481c                	lw	a5,16(s0)
 16a:	7d01                	lui	s10,0xfffe0
 16c:	7f01                	lui	t5,0xfffe0
 16e:	00130113          	addi	sp,t1,1
 172:	1d00                	addi	s0,sp,688
 174:	002e                	c.slli	zero,0xb
 176:	0e03193f 3b01213a 	.8byte	0x3b01213a0e03193f
 17e:	270b390b          	.4byte	0x270b390b
 182:	1119                	addi	sp,sp,-26
 184:	1201                	addi	tp,tp,-32 # ffffffe0 <fromhost+0x1ffeffd0>
 186:	4006                	.2byte	0x4006
 188:	7a18                	.2byte	0x7a18
 18a:	0019                	c.nop	6
 18c:	1e00                	addi	s0,sp,816
 18e:	0005                	c.nop	1
 190:	213a0803          	lb	a6,531(s4)
 194:	3b01                	jal	fffffea4 <fromhost+0x1ffefe94>
 196:	3721                	jal	9e <_min_stack-0x1f62>
 198:	0b39                	addi	s6,s6,14 # 10130 <_stack_len+0x8130>
 19a:	1349                	addi	t1,t1,-14
 19c:	1702                	slli	a4,a4,0x20
 19e:	0000                	unimp
 1a0:	2e1f 3101 1113      	.byte	0x1f, 0x2e, 0x01, 0x31, 0x13, 0x11
 1a6:	1201                	addi	tp,tp,-32 # ffffffe0 <fromhost+0x1ffeffd0>
 1a8:	4006                	.2byte	0x4006
 1aa:	7a18                	.2byte	0x7a18
 1ac:	0119                	addi	sp,sp,6
 1ae:	20000013          	li	zero,512
 1b2:	0111                	addi	sp,sp,4
 1b4:	0e25                	addi	t3,t3,9
 1b6:	1f030b13          	addi	s6,t1,496
 1ba:	01111f1b          	.4byte	0x1111f1b
 1be:	0612                	slli	a2,a2,0x4
 1c0:	1710                	addi	a2,sp,928
 1c2:	0000                	unimp
 1c4:	0f21                	addi	t5,t5,8 # fffe0008 <fromhost+0x1ffcfff8>
 1c6:	0b00                	addi	s0,sp,400
 1c8:	000e030b          	.4byte	0xe030b
 1cc:	2200                	.2byte	0x2200
 1ce:	0024                	addi	s1,sp,8
 1d0:	0b3e0b0b          	.4byte	0xb3e0b0b
 1d4:	00000803          	lb	a6,0(zero) # 0 <_min_stack-0x2000>
 1d8:	49002623          	sw	a6,1164(zero) # 48c <_min_stack-0x1b74>
 1dc:	24000013          	li	zero,576
 1e0:	0034                	addi	a3,sp,8
 1e2:	0b3a0e03          	lb	t3,179(s4)
 1e6:	0b390b3b          	.4byte	0xb390b3b
 1ea:	1349                	addi	t1,t1,-14
 1ec:	1802193f 05250000 	.8byte	0x52500001802193f
 1f4:	0300                	addi	s0,sp,384
 1f6:	3a08                	.2byte	0x3a08
 1f8:	39053b0b          	.4byte	0x39053b0b
 1fc:	0213490b          	.4byte	0x213490b
 200:	26000017          	auipc	zero,0x26000
 204:	0034                	addi	a3,sp,8
 206:	0b3a0803          	lb	a6,179(s4)
 20a:	0b39053b          	.4byte	0xb39053b
 20e:	1349                	addi	t1,t1,-14
 210:	1702                	slli	a4,a4,0x20
 212:	0000                	unimp
 214:	31011d27          	.4byte	0x31011d27
 218:	12011113          	.4byte	0x12011113
 21c:	5806                	lw	a6,96(sp)
 21e:	5705590b          	.4byte	0x5705590b
 222:	0013010b          	.4byte	0x13010b
 226:	2800                	.2byte	0x2800
 228:	011d                	addi	sp,sp,7
 22a:	1331                	addi	t1,t1,-20
 22c:	0111                	addi	sp,sp,4
 22e:	0612                	slli	a2,a2,0x4
 230:	0b58                	addi	a4,sp,404
 232:	0559                	addi	a0,a0,22
 234:	00000b57          	.4byte	0xb57
 238:	0529                	addi	a0,a0,10
 23a:	0300                	addi	s0,sp,384
 23c:	3a0e                	.2byte	0x3a0e
 23e:	39053b0b          	.4byte	0x39053b0b
 242:	0213490b          	.4byte	0x213490b
 246:	2a000017          	auipc	zero,0x2a000
 24a:	0018                	.2byte	0x18
 24c:	0000                	unimp
 24e:	0300342b          	.4byte	0x300342b
 252:	3a08                	.2byte	0x3a08
 254:	39053b0b          	.4byte	0x39053b0b
 258:	0213490b          	.4byte	0x213490b
 25c:	0018                	.2byte	0x18
 25e:	2c00                	.2byte	0x2c00
 260:	011d                	addi	sp,sp,7
 262:	1331                	addi	t1,t1,-20
 264:	0152                	slli	sp,sp,0x14
 266:	1755                	addi	a4,a4,-11
 268:	0b58                	addi	a4,sp,404
 26a:	0559                	addi	a0,a0,22
 26c:	00000b57          	.4byte	0xb57
 270:	0a2d                	addi	s4,s4,11
 272:	3100                	.2byte	0x3100
 274:	00011113          	slli	sp,sp,0x0
 278:	2e00                	.2byte	0x2e00
 27a:	011d                	addi	sp,sp,7
 27c:	1331                	addi	t1,t1,-20
 27e:	0152                	slli	sp,sp,0x14
 280:	1755                	addi	a4,a4,-11
 282:	0b58                	addi	a4,sp,404
 284:	0559                	addi	a0,a0,22
 286:	13010b57          	.4byte	0x13010b57
 28a:	0000                	unimp
 28c:	03000a2f          	.4byte	0x3000a2f
 290:	3a08                	.2byte	0x3a08
 292:	39053b0b          	.4byte	0x39053b0b
 296:	3000000b          	.4byte	0x3000000b
 29a:	012e                	slli	sp,sp,0xb
 29c:	0b3a0e03          	lb	t3,179(s4)
 2a0:	0b390b3b          	.4byte	0xb390b3b
 2a4:	0b201927          	.4byte	0xb201927
 2a8:	1301                	addi	t1,t1,-32
 2aa:	0000                	unimp
 2ac:	2e31                	jal	5c8 <_min_stack-0x1a38>
 2ae:	3f01                	jal	1be <_min_stack-0x1e42>
 2b0:	0319                	addi	t1,t1,6
 2b2:	3a0e                	.2byte	0x3a0e
 2b4:	390b3b0b          	.4byte	0x390b3b0b
 2b8:	4919270b          	.4byte	0x4919270b
 2bc:	010b2013          	slti	zero,s6,16
 2c0:	32000013          	li	zero,800
 2c4:	0005                	c.nop	1
 2c6:	0b3a0803          	lb	a6,179(s4)
 2ca:	0b390b3b          	.4byte	0xb390b3b
 2ce:	1349                	addi	t1,t1,-14
 2d0:	1802                	slli	a6,a6,0x20
 2d2:	0000                	unimp
 2d4:	3f002e33          	.4byte	0x3f002e33
 2d8:	0319                	addi	t1,t1,6
 2da:	3a0e                	.2byte	0x3a0e
 2dc:	390b3b0b          	.4byte	0x390b3b0b
 2e0:	1113490b          	.4byte	0x1113490b
 2e4:	1201                	addi	tp,tp,-32 # ffffffe0 <fromhost+0x1ffeffd0>
 2e6:	4006                	.2byte	0x4006
 2e8:	7a18                	.2byte	0x7a18
 2ea:	0019                	c.nop	6
 2ec:	3400                	.2byte	0x3400
 2ee:	0034                	addi	a3,sp,8
 2f0:	0b3a0803          	lb	a6,179(s4)
 2f4:	0b390b3b          	.4byte	0xb390b3b
 2f8:	1349                	addi	t1,t1,-14
 2fa:	0b1c                	addi	a5,sp,400
 2fc:	0000                	unimp
 2fe:	0535                	addi	a0,a0,13
 300:	0300                	addi	s0,sp,384
 302:	3a0e                	.2byte	0x3a0e
 304:	390b3b0b          	.4byte	0x390b3b0b
 308:	0213490b          	.4byte	0x213490b
 30c:	0018                	.2byte	0x18
 30e:	3600                	.2byte	0x3600
 310:	0005                	c.nop	1
 312:	0b3a0e03          	lb	t3,179(s4)
 316:	0b390b3b          	.4byte	0xb390b3b
 31a:	1349                	addi	t1,t1,-14
 31c:	1702                	slli	a4,a4,0x20
 31e:	0000                	unimp
 320:	7d014837          	lui	a6,0x7d014
 324:	8201                	c.srli64	a2
 326:	1901                	addi	s2,s2,-32 # fe0 <_min_stack-0x1020>
 328:	137f                	.2byte	0x137f
 32a:	0000                	unimp
 32c:	1d38                	addi	a4,sp,696
 32e:	3101                	jal	ffffff2e <fromhost+0x1ffeff1e>
 330:	12011113          	.4byte	0x12011113
 334:	5806                	lw	a6,96(sp)
 336:	570b590b          	.4byte	0x570b590b
 33a:	0013010b          	.4byte	0x13010b
 33e:	3900                	.2byte	0x3900
 340:	011d                	addi	sp,sp,7
 342:	1331                	addi	t1,t1,-20
 344:	0111                	addi	sp,sp,4
 346:	0612                	slli	a2,a2,0x4
 348:	0b58                	addi	a4,sp,404
 34a:	0b59                	addi	s6,s6,22
 34c:	00000b57          	.4byte	0xb57
 350:	343a                	.2byte	0x343a
 352:	3100                	.2byte	0x3100
 354:	3b000013          	li	zero,944
 358:	1331010b          	.4byte	0x1331010b
 35c:	0111                	addi	sp,sp,4
 35e:	0612                	slli	a2,a2,0x4
 360:	1301                	addi	t1,t1,-32
 362:	0000                	unimp
 364:	2e3c                	.2byte	0x2e3c
 366:	3101                	jal	ffffff66 <fromhost+0x1ffeff56>
 368:	12011113          	.4byte	0x12011113
 36c:	4006                	.2byte	0x4006
 36e:	7a18                	.2byte	0x7a18
 370:	0019                	c.nop	6
 372:	0000                	unimp
 374:	2401                	jal	574 <_min_stack-0x1a8c>
 376:	0b00                	addi	s0,sp,400
 378:	030b3e0b          	.4byte	0x30b3e0b
 37c:	000e                	c.slli	zero,0x3
 37e:	0200                	addi	s0,sp,256
 380:	0034                	addi	a3,sp,8
 382:	213a0803          	lb	a6,531(s4)
 386:	3b01                	jal	96 <_min_stack-0x1f6a>
 388:	490b390b          	.4byte	0x490b390b
 38c:	00170213          	addi	tp,a4,1
 390:	0300                	addi	s0,sp,384
 392:	0111                	addi	sp,sp,4
 394:	0e25                	addi	t3,t3,9
 396:	1f030b13          	addi	s6,t1,496
 39a:	17551f1b          	.4byte	0x17551f1b
 39e:	0111                	addi	sp,sp,4
 3a0:	1710                	addi	a2,sp,928
 3a2:	0000                	unimp
 3a4:	2404                	.2byte	0x2404
 3a6:	0b00                	addi	s0,sp,400
 3a8:	030b3e0b          	.4byte	0x30b3e0b
 3ac:	0008                	.2byte	0x8
 3ae:	0500                	addi	s0,sp,640
 3b0:	0035                	c.nop	13
 3b2:	1349                	addi	t1,t1,-14
 3b4:	0000                	unimp
 3b6:	2e06                	.2byte	0x2e06
 3b8:	3f01                	jal	2c8 <_min_stack-0x1d38>
 3ba:	0319                	addi	t1,t1,6
 3bc:	3a0e                	.2byte	0x3a0e
 3be:	390b3b0b          	.4byte	0x390b3b0b
 3c2:	1113490b          	.4byte	0x1113490b
 3c6:	1201                	addi	tp,tp,-32 # ffffffe0 <fromhost+0x1ffeffd0>
 3c8:	4006                	.2byte	0x4006
 3ca:	7a18                	.2byte	0x7a18
 3cc:	0119                	addi	sp,sp,6
 3ce:	07000013          	li	zero,112
 3d2:	0034                	addi	a3,sp,8
 3d4:	0b3a0e03          	lb	t3,179(s4)
 3d8:	0b390b3b          	.4byte	0xb390b3b
 3dc:	1349                	addi	t1,t1,-14
 3de:	1802                	slli	a6,a6,0x20
 3e0:	0000                	unimp
 3e2:	3408                	.2byte	0x3408
 3e4:	0300                	addi	s0,sp,384
 3e6:	3a08                	.2byte	0x3a08
 3e8:	390b3b0b          	.4byte	0x390b3b0b
 3ec:	0213490b          	.4byte	0x213490b
 3f0:	0018                	.2byte	0x18
 3f2:	0900                	addi	s0,sp,144
 3f4:	0111010b          	.4byte	0x111010b
 3f8:	0612                	slli	a2,a2,0x4
 3fa:	1301                	addi	t1,t1,-32
 3fc:	0000                	unimp
 3fe:	0b0a                	slli	s6,s6,0x2
 400:	5501                	li	a0,-32
 402:	0b000017          	auipc	zero,0xb000
 406:	0b0b000f          	.4byte	0xb0b000f
 40a:	1349                	addi	t1,t1,-14
 40c:	0000                	unimp
 40e:	0100                	addi	s0,sp,128
 410:	0011                	c.nop	4
 412:	1710                	addi	a2,sp,928
 414:	1755                	addi	a4,a4,-11
 416:	0e1b0e03          	lb	t3,225(s6)
 41a:	0e25                	addi	t3,t3,9
 41c:	00000513          	li	a0,0
	...

Disassembly of section .debug_loclists:

00000000 <.debug_loclists>:
   0:	0884                	addi	s1,sp,80
   2:	0000                	unimp
   4:	0005                	c.nop	1
   6:	0004                	.2byte	0x4
   8:	0000                	unimp
   a:	0000                	unimp
   c:	00042e07          	.4byte	0x42e07
  10:	3ae0                	.2byte	0x3ae0
  12:	0004                	.2byte	0x4
  14:	01e0                	addi	s0,sp,204
  16:	075a                	slli	a4,a4,0x16
  18:	043a                	slli	s0,s0,0xe
  1a:	e000                	.2byte	0xe000
  1c:	0450                	addi	a2,sp,516
  1e:	e000                	.2byte	0xe000
  20:	5901                	li	s2,-32
  22:	00045007          	.4byte	0x45007
  26:	54e0                	lw	s0,108(s1)
  28:	0004                	.2byte	0x4
  2a:	04e0                	addi	s0,sp,588
  2c:	9f5a01a3          	sb	s5,-1565(s4)
  30:	00045407          	.4byte	0x45407
  34:	5ae0                	lw	s0,116(a3)
  36:	0004                	.2byte	0x4
  38:	01e0                	addi	s0,sp,204
  3a:	0059                	c.nop	22
  3c:	00042e07          	.4byte	0x42e07
  40:	3ae0                	.2byte	0x3ae0
  42:	0004                	.2byte	0x4
  44:	02e0                	addi	s0,sp,332
  46:	9f30                	.2byte	0x9f30
  48:	00043a07          	.4byte	0x43a07
  4c:	4ee0                	lw	s0,92(a3)
  4e:	0004                	.2byte	0x4
  50:	01e0                	addi	s0,sp,204
  52:	0758                	addi	a4,sp,900
  54:	044e                	slli	s0,s0,0x13
  56:	e000                	.2byte	0xe000
  58:	0454                	addi	a3,sp,516
  5a:	e000                	.2byte	0xe000
  5c:	5a01                	li	s4,-32
  5e:	00045407          	.4byte	0x45407
  62:	5ae0                	lw	s0,116(a3)
  64:	0004                	.2byte	0x4
  66:	01e0                	addi	s0,sp,204
  68:	0058                	addi	a4,sp,4
  6a:	00044407          	.4byte	0x44407
  6e:	48e0                	lw	s0,84(s1)
  70:	0004                	.2byte	0x4
  72:	02e0                	addi	s0,sp,332
  74:	9f3a                	add	t5,t5,a4
  76:	0700                	addi	s0,sp,896
  78:	0456                	slli	s0,s0,0x15
  7a:	e000                	.2byte	0xe000
  7c:	e0000457          	.4byte	0xe0000457
  80:	7a06                	.2byte	0x7a06
  82:	0800                	addi	s0,sp,16
  84:	1aff                	.2byte	0x1aff
  86:	009f cc07 0002      	.byte	0x9f, 0x00, 0x07, 0xcc, 0x02, 0x00
  8c:	0ee0                	addi	s0,sp,860
  8e:	01e00003          	lb	zero,30(zero) # 1e <_min_stack-0x1fe2>
  92:	075a                	slli	a4,a4,0x16
  94:	030e                	slli	t1,t1,0x3
  96:	e000                	.2byte	0xe000
  98:	0424                	addi	s1,sp,520
  9a:	e000                	.2byte	0xe000
  9c:	a304                	.2byte	0xa304
  9e:	5a01                	li	s4,-32
  a0:	009f f607 0002      	.byte	0x9f, 0x00, 0x07, 0xf6, 0x02, 0x00
  a6:	18e0                	addi	s0,sp,124
  a8:	01e00003          	lb	zero,30(zero) # 1e <_min_stack-0x1fe2>
  ac:	0758                	addi	a4,sp,900
  ae:	032e                	slli	t1,t1,0xb
  b0:	e000                	.2byte	0xe000
  b2:	0380                	addi	s0,sp,448
  b4:	e000                	.2byte	0xe000
  b6:	5801                	li	a6,-32
  b8:	00038007          	.4byte	0x38007
  bc:	8ce0                	.2byte	0x8ce0
  be:	01e00003          	lb	zero,30(zero) # 1e <_min_stack-0x1fe2>
  c2:	0768                	addi	a0,sp,908
  c4:	038c                	addi	a1,sp,448
  c6:	e000                	.2byte	0xe000
  c8:	03aa                	slli	t2,t2,0xa
  ca:	e000                	.2byte	0xe000
  cc:	5801                	li	a6,-32
  ce:	0003aa07          	.4byte	0x3aa07
  d2:	bae0                	.2byte	0xbae0
  d4:	01e00003          	lb	zero,30(zero) # 1e <_min_stack-0x1fe2>
  d8:	0768                	addi	a0,sp,908
  da:	03ba                	slli	t2,t2,0xe
  dc:	e000                	.2byte	0xe000
  de:	03ca                	slli	t2,t2,0x12
  e0:	e000                	.2byte	0xe000
  e2:	5801                	li	a6,-32
  e4:	0003ca07          	.4byte	0x3ca07
  e8:	d2e0                	sw	s0,100(a3)
  ea:	01e00003          	lb	zero,30(zero) # 1e <_min_stack-0x1fe2>
  ee:	0768                	addi	a0,sp,908
  f0:	03d2                	slli	t2,t2,0x14
  f2:	e000                	.2byte	0xe000
  f4:	03de                	slli	t2,t2,0x17
  f6:	e000                	.2byte	0xe000
  f8:	5801                	li	a6,-32
  fa:	0003de07          	.4byte	0x3de07
  fe:	e8e0                	.2byte	0xe8e0
 100:	01e00003          	lb	zero,30(zero) # 1e <_min_stack-0x1fe2>
 104:	0768                	addi	a0,sp,908
 106:	03e8                	addi	a0,sp,460
 108:	e000                	.2byte	0xe000
 10a:	03f4                	addi	a3,sp,460
 10c:	e000                	.2byte	0xe000
 10e:	5801                	li	a6,-32
 110:	0003f407          	.4byte	0x3f407
 114:	fae0                	.2byte	0xfae0
 116:	01e00003          	lb	zero,30(zero) # 1e <_min_stack-0x1fe2>
 11a:	0768                	addi	a0,sp,908
 11c:	03fa                	slli	t2,t2,0x1e
 11e:	e000                	.2byte	0xe000
 120:	0408                	addi	a0,sp,512
 122:	e000                	.2byte	0xe000
 124:	5801                	li	a6,-32
 126:	00040807          	.4byte	0x40807
 12a:	18e0                	addi	s0,sp,124
 12c:	0004                	.2byte	0x4
 12e:	01e0                	addi	s0,sp,204
 130:	0768                	addi	a0,sp,908
 132:	0418                	addi	a4,sp,512
 134:	e000                	.2byte	0xe000
 136:	0424                	addi	s1,sp,520
 138:	e000                	.2byte	0xe000
 13a:	5801                	li	a6,-32
 13c:	0700                	addi	s0,sp,896
 13e:	02f6                	slli	t0,t0,0x1d
 140:	e000                	.2byte	0xe000
 142:	030e                	slli	t1,t1,0x3
 144:	e000                	.2byte	0xe000
 146:	5a01                	li	s4,-32
 148:	00030e07          	.4byte	0x30e07
 14c:	14e0                	addi	s0,sp,620
 14e:	01e00003          	lb	zero,30(zero) # 1e <_min_stack-0x1fe2>
 152:	0766                	slli	a4,a4,0x19
 154:	032e                	slli	t1,t1,0xb
 156:	e000                	.2byte	0xe000
 158:	0332                	slli	t1,t1,0xc
 15a:	e000                	.2byte	0xe000
 15c:	6601                	.2byte	0x6601
 15e:	00033207          	.4byte	0x33207
 162:	4ae0                	lw	s0,84(a3)
 164:	03e00003          	lb	zero,62(zero) # 3e <_min_stack-0x1fc2>
 168:	0186                	slli	gp,gp,0x1
 16a:	079f 034a e000      	.byte	0x9f, 0x07, 0x4a, 0x03, 0x00, 0xe0
 170:	034c                	addi	a1,sp,388
 172:	e000                	.2byte	0xe000
 174:	5f01                	li	t5,-32
 176:	00034e07          	.4byte	0x34e07
 17a:	8ce0                	.2byte	0x8ce0
 17c:	01e00003          	lb	zero,30(zero) # 1e <_min_stack-0x1fe2>
 180:	0766                	slli	a4,a4,0x19
 182:	038c                	addi	a1,sp,448
 184:	e000                	.2byte	0xe000
 186:	0390                	addi	a2,sp,448
 188:	e000                	.2byte	0xe000
 18a:	9f018603          	lb	a2,-1552(gp)
 18e:	00039007          	.4byte	0x39007
 192:	94e0                	.2byte	0x94e0
 194:	03e00003          	lb	zero,62(zero) # 3e <_min_stack-0x1fc2>
 198:	017d                	addi	sp,sp,31
 19a:	079f 0394 e000      	.byte	0x9f, 0x07, 0x94, 0x03, 0x00, 0xe0
 1a0:	039a                	slli	t2,t2,0x6
 1a2:	e000                	.2byte	0xe000
 1a4:	6601                	.2byte	0x6601
 1a6:	00039a07          	.4byte	0x39a07
 1aa:	9ce0                	.2byte	0x9ce0
 1ac:	03e00003          	lb	zero,62(zero) # 3e <_min_stack-0x1fc2>
 1b0:	7f80                	.2byte	0x7f80
 1b2:	079f 039c e000      	.byte	0x9f, 0x07, 0x9c, 0x03, 0x00, 0xe0
 1b8:	039e                	slli	t2,t2,0x7
 1ba:	e000                	.2byte	0xe000
 1bc:	9f018603          	lb	a2,-1552(gp)
 1c0:	00039e07          	.4byte	0x39e07
 1c4:	bae0                	.2byte	0xbae0
 1c6:	01e00003          	lb	zero,30(zero) # 1e <_min_stack-0x1fe2>
 1ca:	0766                	slli	a4,a4,0x19
 1cc:	03ba                	slli	t2,t2,0xe
 1ce:	e000                	.2byte	0xe000
 1d0:	03bc                	addi	a5,sp,456
 1d2:	e000                	.2byte	0xe000
 1d4:	9f018603          	lb	a2,-1552(gp)
 1d8:	0003bc07          	.4byte	0x3bc07
 1dc:	18e0                	addi	s0,sp,124
 1de:	0004                	.2byte	0x4
 1e0:	01e0                	addi	s0,sp,204
 1e2:	0766                	slli	a4,a4,0x19
 1e4:	0418                	addi	a4,sp,512
 1e6:	e000                	.2byte	0xe000
 1e8:	041a                	slli	s0,s0,0x6
 1ea:	e000                	.2byte	0xe000
 1ec:	9f017f03          	.4byte	0x9f017f03
 1f0:	00041a07          	.4byte	0x41a07
 1f4:	24e0                	.2byte	0x24e0
 1f6:	0004                	.2byte	0x4
 1f8:	01e0                	addi	s0,sp,204
 1fa:	0066                	c.slli	zero,0x19
 1fc:	00033207          	.4byte	0x33207
 200:	5ee0                	lw	s0,124(a3)
 202:	02e00003          	lb	zero,46(zero) # 2e <_min_stack-0x1fd2>
 206:	9f30                	.2byte	0x9f30
 208:	00035e07          	.4byte	0x35e07
 20c:	88e0                	.2byte	0x88e0
 20e:	01e00003          	lb	zero,30(zero) # 1e <_min_stack-0x1fe2>
 212:	075d                	addi	a4,a4,23
 214:	0388                	addi	a0,sp,448
 216:	e000                	.2byte	0xe000
 218:	0389                	addi	t2,t2,2
 21a:	e000                	.2byte	0xe000
 21c:	5b01                	li	s6,-32
 21e:	00038c07          	.4byte	0x38c07
 222:	94e0                	.2byte	0x94e0
 224:	02e00003          	lb	zero,46(zero) # 2e <_min_stack-0x1fd2>
 228:	9f30                	.2byte	0x9f30
 22a:	00039407          	.4byte	0x39407
 22e:	b5e0                	.2byte	0xb5e0
 230:	01e00003          	lb	zero,30(zero) # 1e <_min_stack-0x1fe2>
 234:	075d                	addi	a4,a4,23
 236:	03be                	slli	t2,t2,0xf
 238:	e000                	.2byte	0xe000
 23a:	0418                	addi	a4,sp,512
 23c:	e000                	.2byte	0xe000
 23e:	5d01                	li	s10,-32
 240:	00041807          	.4byte	0x41807
 244:	1ae0                	addi	s0,sp,380
 246:	0004                	.2byte	0x4
 248:	02e0                	addi	s0,sp,332
 24a:	9f30                	.2byte	0x9f30
 24c:	0700                	addi	s0,sp,896
 24e:	0332                	slli	t1,t1,0xc
 250:	e000                	.2byte	0xe000
 252:	034a                	slli	t1,t1,0x12
 254:	e000                	.2byte	0xe000
 256:	3002                	.2byte	0x3002
 258:	079f 034a e000      	.byte	0x9f, 0x07, 0x4a, 0x03, 0x00, 0xe0
 25e:	034c                	addi	a1,sp,388
 260:	e000                	.2byte	0xe000
 262:	3102                	.2byte	0x3102
 264:	079f 034e e000      	.byte	0x9f, 0x07, 0x4e, 0x03, 0x00, 0xe0
 26a:	0388                	addi	a0,sp,448
 26c:	e000                	.2byte	0xe000
 26e:	5e01                	li	t3,-32
 270:	00038807          	.4byte	0x38807
 274:	89e0                	.2byte	0x89e0
 276:	01e00003          	lb	zero,30(zero) # 1e <_min_stack-0x1fe2>
 27a:	075c                	addi	a5,sp,900
 27c:	038c                	addi	a1,sp,448
 27e:	e000                	.2byte	0xe000
 280:	03b5                	addi	t2,t2,13
 282:	e000                	.2byte	0xe000
 284:	5e01                	li	t3,-32
 286:	0003be07          	.4byte	0x3be07
 28a:	18e0                	addi	s0,sp,124
 28c:	0004                	.2byte	0x4
 28e:	01e0                	addi	s0,sp,204
 290:	075e                	slli	a4,a4,0x17
 292:	0418                	addi	a4,sp,512
 294:	e000                	.2byte	0xe000
 296:	041a                	slli	s0,s0,0x6
 298:	e000                	.2byte	0xe000
 29a:	3002                	.2byte	0x3002
 29c:	009f 0e07 0003      	.byte	0x9f, 0x00, 0x07, 0x0e, 0x03, 0x00
 2a2:	2ae0                	.2byte	0x2ae0
 2a4:	01e00003          	lb	zero,30(zero) # 1e <_min_stack-0x1fe2>
 2a8:	032a0767          	jalr	a4,50(s4)
 2ac:	e000                	.2byte	0xe000
 2ae:	032e                	slli	t1,t1,0xb
 2b0:	e000                	.2byte	0xe000
 2b2:	5a01                	li	s4,-32
 2b4:	00032e07          	.4byte	0x32e07
 2b8:	20e0                	.2byte	0x20e0
 2ba:	0004                	.2byte	0x4
 2bc:	01e0                	addi	s0,sp,204
 2be:	04200767          	jalr	a4,66(zero) # 0 <_min_stack-0x2000>
 2c2:	e000                	.2byte	0xe000
 2c4:	0422                	slli	s0,s0,0x8
 2c6:	e000                	.2byte	0xe000
 2c8:	9f7f8703          	lb	a4,-1545(t6)
 2cc:	00042207          	.4byte	0x42207
 2d0:	24e0                	.2byte	0x24e0
 2d2:	0004                	.2byte	0x4
 2d4:	01e0                	addi	s0,sp,204
 2d6:	1a070067          	jr	416(a4)
 2da:	0004                	.2byte	0x4
 2dc:	22e0                	.2byte	0x22e0
 2de:	0004                	.2byte	0x4
 2e0:	02e0                	addi	s0,sp,332
 2e2:	9f30                	.2byte	0x9f30
 2e4:	0700                	addi	s0,sp,896
 2e6:	041a                	slli	s0,s0,0x6
 2e8:	e000                	.2byte	0xe000
 2ea:	0421                	addi	s0,s0,8
 2ec:	e000                	.2byte	0xe000
 2ee:	8608                	.2byte	0x8608
 2f0:	9400                	.2byte	0x9400
 2f2:	0801                	addi	a6,a6,0 # 7d014000 <tohost+0x7cff3ff8>
 2f4:	1aff                	.2byte	0x1aff
 2f6:	009f b607 0000      	.byte	0x9f, 0x00, 0x07, 0xb6, 0x00, 0x00
 2fc:	d0e0                	sw	s0,100(s1)
 2fe:	0000                	unimp
 300:	01e0                	addi	s0,sp,204
 302:	075a                	slli	a4,a4,0x16
 304:	00d0                	addi	a2,sp,68
 306:	e000                	.2byte	0xe000
 308:	00dc                	addi	a5,sp,68
 30a:	e000                	.2byte	0xe000
 30c:	5a01                	li	s4,-32
 30e:	0700                	addi	s0,sp,896
 310:	00b6                	slli	ra,ra,0xd
 312:	e000                	.2byte	0xe000
 314:	00d2                	slli	ra,ra,0x14
 316:	e000                	.2byte	0xe000
 318:	5b01                	li	s6,-32
 31a:	0000d207          	.4byte	0xd207
 31e:	d4e0                	sw	s0,108(s1)
 320:	0000                	unimp
 322:	03e0                	addi	s0,sp,460
 324:	079f017b          	.4byte	0x79f017b
 328:	00d4                	addi	a3,sp,68
 32a:	e000                	.2byte	0xe000
 32c:	00dc                	addi	a5,sp,68
 32e:	e000                	.2byte	0xe000
 330:	5b01                	li	s6,-32
 332:	0700                	addi	s0,sp,896
 334:	0088                	addi	a0,sp,64
 336:	e000                	.2byte	0xe000
 338:	009c                	addi	a5,sp,64
 33a:	e000                	.2byte	0xe000
 33c:	5b01                	li	s6,-32
 33e:	00009c07          	.4byte	0x9c07
 342:	b6e0                	.2byte	0xb6e0
 344:	0000                	unimp
 346:	04e0                	addi	s0,sp,588
 348:	9f5b01a3          	sb	s5,-1565(s6)
 34c:	0700                	addi	s0,sp,896
 34e:	00fe                	slli	ra,ra,0x1f
 350:	e000                	.2byte	0xe000
 352:	014e                	slli	sp,sp,0x13
 354:	e000                	.2byte	0xe000
 356:	5a01                	li	s4,-32
 358:	00014e07          	.4byte	0x14e07
 35c:	68e0                	.2byte	0x68e0
 35e:	0001                	nop
 360:	01e0                	addi	s0,sp,204
 362:	0764                	addi	s1,sp,908
 364:	0168                	addi	a0,sp,140
 366:	e000                	.2byte	0xe000
 368:	017a                	slli	sp,sp,0x1e
 36a:	e000                	.2byte	0xe000
 36c:	8409                	srai	s0,s0,0x2
 36e:	8200                	.2byte	0x8200
 370:	1c00                	addi	s0,sp,560
 372:	9f220083          	lb	ra,-1550(tp) # fffff9f2 <fromhost+0x1ffef9e2>
 376:	0700                	addi	s0,sp,896
 378:	00fe                	slli	ra,ra,0x1f
 37a:	e000                	.2byte	0xe000
 37c:	012e                	slli	sp,sp,0xb
 37e:	e000                	.2byte	0xe000
 380:	5b01                	li	s6,-32
 382:	00012e07          	.4byte	0x12e07
 386:	4ce0                	lw	s0,92(s1)
 388:	0001                	nop
 38a:	01e0                	addi	s0,sp,204
 38c:	0758                	addi	a4,sp,900
 38e:	014c                	addi	a1,sp,132
 390:	e000                	.2byte	0xe000
 392:	014e                	slli	sp,sp,0x13
 394:	e000                	.2byte	0xe000
 396:	5b01                	li	s6,-32
 398:	00014e07          	.4byte	0x14e07
 39c:	52e0                	lw	s0,100(a3)
 39e:	0001                	nop
 3a0:	01e0                	addi	s0,sp,204
 3a2:	0762                	slli	a4,a4,0x18
 3a4:	0152                	slli	sp,sp,0x14
 3a6:	e000                	.2byte	0xe000
 3a8:	0154                	addi	a3,sp,132
 3aa:	e000                	.2byte	0xe000
 3ac:	9f7f8203          	lb	tp,-1545(t6)
 3b0:	00015407          	.4byte	0x15407
 3b4:	5ae0                	lw	s0,116(a3)
 3b6:	0001                	nop
 3b8:	01e0                	addi	s0,sp,204
 3ba:	0762                	slli	a4,a4,0x18
 3bc:	0168                	addi	a0,sp,140
 3be:	e000                	.2byte	0xe000
 3c0:	017e                	slli	sp,sp,0x1f
 3c2:	e000                	.2byte	0xe000
 3c4:	5801                	li	a6,-32
 3c6:	00017e07          	.4byte	0x17e07
 3ca:	94e0                	.2byte	0x94e0
 3cc:	0001                	nop
 3ce:	01e0                	addi	s0,sp,204
 3d0:	0762                	slli	a4,a4,0x18
 3d2:	019c                	addi	a5,sp,192
 3d4:	e000                	.2byte	0xe000
 3d6:	01a4                	addi	s1,sp,200
 3d8:	e000                	.2byte	0xe000
 3da:	6201                	.2byte	0x6201
 3dc:	0700                	addi	s0,sp,896
 3de:	00fe                	slli	ra,ra,0x1f
 3e0:	e000                	.2byte	0xe000
 3e2:	013e                	slli	sp,sp,0xf
 3e4:	e000                	.2byte	0xe000
 3e6:	5c01                	li	s8,-32
 3e8:	00013e07          	.4byte	0x13e07
 3ec:	4ae0                	lw	s0,84(a3)
 3ee:	0001                	nop
 3f0:	04e0                	addi	s0,sp,588
 3f2:	9f5c01a3          	sb	s5,-1565(s8)
 3f6:	00014a07          	.4byte	0x14a07
 3fa:	4ee0                	lw	s0,92(a3)
 3fc:	0001                	nop
 3fe:	01e0                	addi	s0,sp,204
 400:	075c                	addi	a5,sp,900
 402:	014e                	slli	sp,sp,0x13
 404:	e000                	.2byte	0xe000
 406:	01a4                	addi	s1,sp,200
 408:	e000                	.2byte	0xe000
 40a:	a304                	.2byte	0xa304
 40c:	5c01                	li	s8,-32
 40e:	009f fe07 0000      	.byte	0x9f, 0x00, 0x07, 0xfe, 0x00, 0x00
 414:	4ee0                	lw	s0,92(a3)
 416:	0001                	nop
 418:	02e0                	addi	s0,sp,332
 41a:	9f30                	.2byte	0x9f30
 41c:	00016807          	.4byte	0x16807
 420:	7ee0                	.2byte	0x7ee0
 422:	0001                	nop
 424:	01e0                	addi	s0,sp,204
 426:	fe070063          	beqz	a4,fffffc06 <fromhost+0x1ffefbf6>
 42a:	0000                	unimp
 42c:	3ce0                	.2byte	0x3ce0
 42e:	0001                	nop
 430:	03e0                	addi	s0,sp,460
 432:	2008                	.2byte	0x2008
 434:	079f 014a e000      	.byte	0x9f, 0x07, 0x4a, 0x01, 0x00, 0xe0
 43a:	014e                	slli	sp,sp,0x13
 43c:	e000                	.2byte	0xe000
 43e:	9f200803          	lb	a6,-1550(zero) # fffff9f2 <fromhost+0x1ffef9e2>
 442:	0700                	addi	s0,sp,896
 444:	011c                	addi	a5,sp,128
 446:	e000                	.2byte	0xe000
 448:	0132                	slli	sp,sp,0xc
 44a:	e000                	.2byte	0xe000
 44c:	5f01                	li	t5,-32
 44e:	00014a07          	.4byte	0x14a07
 452:	4ee0                	lw	s0,92(a3)
 454:	0001                	nop
 456:	01e0                	addi	s0,sp,204
 458:	005f 1c07 0001      	.byte	0x5f, 0x00, 0x07, 0x1c, 0x01, 0x00
 45e:	22e0                	.2byte	0x22e0
 460:	0001                	nop
 462:	06e0                	addi	s0,sp,844
 464:	007a                	c.slli	zero,0x1e
 466:	007f                	.2byte	0x7f
 468:	9f22                	add	t5,t5,s0
 46a:	00012207          	.4byte	0x12207
 46e:	26e0                	.2byte	0x26e0
 470:	0001                	nop
 472:	01e0                	addi	s0,sp,204
 474:	075e                	slli	a4,a4,0x17
 476:	0126                	slli	sp,sp,0x9
 478:	e000                	.2byte	0xe000
 47a:	0132                	slli	sp,sp,0xc
 47c:	e000                	.2byte	0xe000
 47e:	7a06                	.2byte	0x7a06
 480:	7f00                	.2byte	0x7f00
 482:	2200                	.2byte	0x2200
 484:	079f 014a e000      	.byte	0x9f, 0x07, 0x4a, 0x01, 0x00, 0xe0
 48a:	014e                	slli	sp,sp,0x13
 48c:	e000                	.2byte	0xe000
 48e:	7a06                	.2byte	0x7a06
 490:	7f00                	.2byte	0x7f00
 492:	2200                	.2byte	0x2200
 494:	009f 4e07 0001      	.byte	0x9f, 0x00, 0x07, 0x4e, 0x01, 0x00
 49a:	52e0                	lw	s0,100(a3)
 49c:	0001                	nop
 49e:	02e0                	addi	s0,sp,332
 4a0:	9f30                	.2byte	0x9f30
 4a2:	0700                	addi	s0,sp,896
 4a4:	0168                	addi	a0,sp,140
 4a6:	e000                	.2byte	0xe000
 4a8:	016a                	slli	sp,sp,0x1a
 4aa:	e000                	.2byte	0xe000
 4ac:	3002                	.2byte	0x3002
 4ae:	009f 6807 0001      	.byte	0x9f, 0x00, 0x07, 0x68, 0x01, 0x00
 4b4:	69e0                	.2byte	0x69e0
 4b6:	0001                	nop
 4b8:	06e0                	addi	s0,sp,844
 4ba:	007a                	c.slli	zero,0x1e
 4bc:	ff08                	.2byte	0xff08
 4be:	9f1a                	add	t5,t5,t1
 4c0:	0700                	addi	s0,sp,896
 4c2:	019c                	addi	a5,sp,192
 4c4:	e000                	.2byte	0xe000
 4c6:	01a0                	addi	s0,sp,200
 4c8:	e000                	.2byte	0xe000
 4ca:	3002                	.2byte	0x3002
 4cc:	009f a407 0001      	.byte	0x9f, 0x00, 0x07, 0xa4, 0x01, 0x00
 4d2:	bce0                	.2byte	0xbce0
 4d4:	0001                	nop
 4d6:	01e0                	addi	s0,sp,204
 4d8:	075a                	slli	a4,a4,0x16
 4da:	01bc                	addi	a5,sp,200
 4dc:	e000                	.2byte	0xe000
 4de:	01cc                	addi	a1,sp,196
 4e0:	e000                	.2byte	0xe000
 4e2:	a304                	.2byte	0xa304
 4e4:	5a01                	li	s4,-32
 4e6:	079f 01cc e000      	.byte	0x9f, 0x07, 0xcc, 0x01, 0x00, 0xe0
 4ec:	01fe                	slli	gp,gp,0x1f
 4ee:	e000                	.2byte	0xe000
 4f0:	5a01                	li	s4,-32
 4f2:	0001fe07          	.4byte	0x1fe07
 4f6:	50e0                	lw	s0,100(s1)
 4f8:	0002                	c.slli64	zero
 4fa:	04e0                	addi	s0,sp,588
 4fc:	9f5a01a3          	sb	s5,-1565(s4)
 500:	00025007          	.4byte	0x25007
 504:	5ae0                	lw	s0,116(a3)
 506:	0002                	c.slli64	zero
 508:	01e0                	addi	s0,sp,204
 50a:	075a                	slli	a4,a4,0x16
 50c:	025a                	slli	tp,tp,0x16
 50e:	e000                	.2byte	0xe000
 510:	02a6                	slli	t0,t0,0x9
 512:	e000                	.2byte	0xe000
 514:	a304                	.2byte	0xa304
 516:	5a01                	li	s4,-32
 518:	009f a407 0001      	.byte	0x9f, 0x00, 0x07, 0xa4, 0x01, 0x00
 51e:	b2e0                	.2byte	0xb2e0
 520:	0001                	nop
 522:	01e0                	addi	s0,sp,204
 524:	01b2075b          	.4byte	0x1b2075b
 528:	e000                	.2byte	0xe000
 52a:	01c1                	addi	gp,gp,16
 52c:	e000                	.2byte	0xe000
 52e:	6101                	addi	sp,sp,0
 530:	0001c107          	.4byte	0x1c107
 534:	cce0                	sw	s0,92(s1)
 536:	0001                	nop
 538:	04e0                	addi	s0,sp,588
 53a:	9f5b01a3          	sb	s5,-1565(s6)
 53e:	0001cc07          	.4byte	0x1cc07
 542:	f8e0                	.2byte	0xf8e0
 544:	0001                	nop
 546:	01e0                	addi	s0,sp,204
 548:	0761                	addi	a4,a4,24
 54a:	01f8                	addi	a4,sp,204
 54c:	e000                	.2byte	0xe000
 54e:	0250                	addi	a2,sp,260
 550:	e000                	.2byte	0xe000
 552:	a304                	.2byte	0xa304
 554:	5b01                	li	s6,-32
 556:	079f 0250 e000      	.byte	0x9f, 0x07, 0x50, 0x02, 0x00, 0xe0
 55c:	0276                	slli	tp,tp,0x1d
 55e:	e000                	.2byte	0xe000
 560:	6101                	addi	sp,sp,0
 562:	00027607          	.4byte	0x27607
 566:	a6e0                	.2byte	0xa6e0
 568:	0002                	c.slli64	zero
 56a:	04e0                	addi	s0,sp,588
 56c:	9f5b01a3          	sb	s5,-1565(s6)
 570:	0700                	addi	s0,sp,896
 572:	01a4                	addi	s1,sp,200
 574:	e000                	.2byte	0xe000
 576:	01b4                	addi	a3,sp,200
 578:	e000                	.2byte	0xe000
 57a:	5c01                	li	s8,-32
 57c:	0001b407          	.4byte	0x1b407
 580:	c2e0                	sw	s0,68(a3)
 582:	0001                	nop
 584:	01e0                	addi	s0,sp,204
 586:	0759                	addi	a4,a4,22
 588:	01c2                	slli	gp,gp,0x10
 58a:	e000                	.2byte	0xe000
 58c:	01cc                	addi	a1,sp,196
 58e:	e000                	.2byte	0xe000
 590:	a304                	.2byte	0xa304
 592:	5c01                	li	s8,-32
 594:	079f 01cc e000      	.byte	0x9f, 0x07, 0xcc, 0x01, 0x00, 0xe0
 59a:	01de                	slli	gp,gp,0x17
 59c:	e000                	.2byte	0xe000
 59e:	5901                	li	s2,-32
 5a0:	0001de07          	.4byte	0x1de07
 5a4:	50e0                	lw	s0,100(s1)
 5a6:	0002                	c.slli64	zero
 5a8:	04e0                	addi	s0,sp,588
 5aa:	9f5c01a3          	sb	s5,-1565(s8)
 5ae:	00025007          	.4byte	0x25007
 5b2:	52e0                	lw	s0,100(a3)
 5b4:	0002                	c.slli64	zero
 5b6:	01e0                	addi	s0,sp,204
 5b8:	0759                	addi	a4,a4,22
 5ba:	0252                	slli	tp,tp,0x14
 5bc:	e000                	.2byte	0xe000
 5be:	02a6                	slli	t0,t0,0x9
 5c0:	e000                	.2byte	0xe000
 5c2:	a304                	.2byte	0xa304
 5c4:	5c01                	li	s8,-32
 5c6:	009f a407 0001      	.byte	0x9f, 0x00, 0x07, 0xa4, 0x01, 0x00
 5cc:	c1e0                	sw	s0,68(a1)
 5ce:	0001                	nop
 5d0:	01e0                	addi	s0,sp,204
 5d2:	075d                	addi	a4,a4,23
 5d4:	01c1                	addi	gp,gp,16
 5d6:	e000                	.2byte	0xe000
 5d8:	01c2                	slli	gp,gp,0x10
 5da:	e000                	.2byte	0xe000
 5dc:	a304                	.2byte	0xa304
 5de:	5d01                	li	s10,-32
 5e0:	079f 01cc e000      	.byte	0x9f, 0x07, 0xcc, 0x01, 0x00, 0xe0
 5e6:	0289                	addi	t0,t0,2
 5e8:	e000                	.2byte	0xe000
 5ea:	5b01                	li	s6,-32
 5ec:	00028907          	.4byte	0x28907
 5f0:	90e0                	.2byte	0x90e0
 5f2:	0002                	c.slli64	zero
 5f4:	02e0                	addi	s0,sp,332
 5f6:	4891                	li	a7,4
 5f8:	00029007          	.4byte	0x29007
 5fc:	93e0                	.2byte	0x93e0
 5fe:	0002                	c.slli64	zero
 600:	01e0                	addi	s0,sp,204
 602:	0298075b          	.4byte	0x298075b
 606:	e000                	.2byte	0xe000
 608:	02a6                	slli	t0,t0,0x9
 60a:	e000                	.2byte	0xe000
 60c:	5b01                	li	s6,-32
 60e:	0700                	addi	s0,sp,896
 610:	01a4                	addi	s1,sp,200
 612:	e000                	.2byte	0xe000
 614:	01c1                	addi	gp,gp,16
 616:	e000                	.2byte	0xe000
 618:	5e01                	li	t3,-32
 61a:	0001c107          	.4byte	0x1c107
 61e:	cce0                	sw	s0,92(s1)
 620:	0001                	nop
 622:	04e0                	addi	s0,sp,588
 624:	9f5e01a3          	sb	s5,-1565(t3)
 628:	0001cc07          	.4byte	0x1cc07
 62c:	89e0                	.2byte	0x89e0
 62e:	0002                	c.slli64	zero
 630:	01e0                	addi	s0,sp,204
 632:	075c                	addi	a5,sp,900
 634:	0289                	addi	t0,t0,2
 636:	e000                	.2byte	0xe000
 638:	0290                	addi	a2,sp,320
 63a:	e000                	.2byte	0xe000
 63c:	9102                	jalr	sp
 63e:	074c                	addi	a1,sp,900
 640:	0290                	addi	a2,sp,320
 642:	e000                	.2byte	0xe000
 644:	0298                	addi	a4,sp,320
 646:	e000                	.2byte	0xe000
 648:	a304                	.2byte	0xa304
 64a:	5e01                	li	t3,-32
 64c:	079f 0298 e000      	.byte	0x9f, 0x07, 0x98, 0x02, 0x00, 0xe0
 652:	02a6                	slli	t0,t0,0x9
 654:	e000                	.2byte	0xe000
 656:	5c01                	li	s8,-32
 658:	0700                	addi	s0,sp,896
 65a:	01a4                	addi	s1,sp,200
 65c:	e000                	.2byte	0xe000
 65e:	01ba                	slli	gp,gp,0xe
 660:	e000                	.2byte	0xe000
 662:	5f01                	li	t5,-32
 664:	0001ba07          	.4byte	0x1ba07
 668:	cce0                	sw	s0,92(s1)
 66a:	0001                	nop
 66c:	04e0                	addi	s0,sp,588
 66e:	9f5f01a3          	sb	s5,-1565(t5)
 672:	0001cc07          	.4byte	0x1cc07
 676:	fee0                	.2byte	0xfee0
 678:	0001                	nop
 67a:	01e0                	addi	s0,sp,204
 67c:	075f 01fe e000      	.byte	0x5f, 0x07, 0xfe, 0x01, 0x00, 0xe0
 682:	0250                	addi	a2,sp,260
 684:	e000                	.2byte	0xe000
 686:	a304                	.2byte	0xa304
 688:	5f01                	li	t5,-32
 68a:	079f 0250 e000      	.byte	0x9f, 0x07, 0x50, 0x02, 0x00, 0xe0
 690:	025a                	slli	tp,tp,0x16
 692:	e000                	.2byte	0xe000
 694:	5f01                	li	t5,-32
 696:	00025a07          	.4byte	0x25a07
 69a:	a6e0                	.2byte	0xa6e0
 69c:	0002                	c.slli64	zero
 69e:	04e0                	addi	s0,sp,588
 6a0:	9f5f01a3          	sb	s5,-1565(t5)
 6a4:	0700                	addi	s0,sp,896
 6a6:	01de                	slli	gp,gp,0x17
 6a8:	e000                	.2byte	0xe000
 6aa:	01e8                	addi	a0,sp,204
 6ac:	e000                	.2byte	0xe000
 6ae:	9f6f9103          	lh	sp,-1546(t6)
 6b2:	0001e807          	.4byte	0x1e807
 6b6:	50e0                	lw	s0,100(s1)
 6b8:	0002                	c.slli64	zero
 6ba:	01e0                	addi	s0,sp,204
 6bc:	0758                	addi	a4,sp,900
 6be:	0254                	addi	a3,sp,260
 6c0:	e000                	.2byte	0xe000
 6c2:	0298                	addi	a4,sp,320
 6c4:	e000                	.2byte	0xe000
 6c6:	5801                	li	a6,-32
 6c8:	00029807          	.4byte	0x29807
 6cc:	a4e0                	.2byte	0xa4e0
 6ce:	0002                	c.slli64	zero
 6d0:	03e0                	addi	s0,sp,460
 6d2:	7f78                	.2byte	0x7f78
 6d4:	079f 02a4 e000      	.byte	0x9f, 0x07, 0xa4, 0x02, 0x00, 0xe0
 6da:	02a6                	slli	t0,t0,0x9
 6dc:	e000                	.2byte	0xe000
 6de:	5801                	li	a6,-32
 6e0:	0700                	addi	s0,sp,896
 6e2:	01a4                	addi	s1,sp,200
 6e4:	e000                	.2byte	0xe000
 6e6:	01c2                	slli	gp,gp,0x10
 6e8:	e000                	.2byte	0xe000
 6ea:	3002                	.2byte	0x3002
 6ec:	079f 01cc e000      	.byte	0x9f, 0x07, 0xcc, 0x01, 0x00, 0xe0
 6f2:	01da                	slli	gp,gp,0x16
 6f4:	e000                	.2byte	0xe000
 6f6:	3002                	.2byte	0x3002
 6f8:	079f 01da e000      	.byte	0x9f, 0x07, 0xda, 0x01, 0x00, 0xe0
 6fe:	01de                	slli	gp,gp,0x17
 700:	e000                	.2byte	0xe000
 702:	3102                	.2byte	0x3102
 704:	079f 01de e000      	.byte	0x9f, 0x07, 0xde, 0x01, 0x00, 0xe0
 70a:	0250                	addi	a2,sp,260
 70c:	e000                	.2byte	0xe000
 70e:	5901                	li	s2,-32
 710:	00025007          	.4byte	0x25007
 714:	54e0                	lw	s0,108(s1)
 716:	0002                	c.slli64	zero
 718:	02e0                	addi	s0,sp,332
 71a:	9f30                	.2byte	0x9f30
 71c:	00025407          	.4byte	0x25407
 720:	90e0                	.2byte	0x90e0
 722:	0002                	c.slli64	zero
 724:	01e0                	addi	s0,sp,204
 726:	0759                	addi	a4,a4,22
 728:	0298                	addi	a4,sp,320
 72a:	e000                	.2byte	0xe000
 72c:	02a2                	slli	t0,t0,0x8
 72e:	e000                	.2byte	0xe000
 730:	5901                	li	s2,-32
 732:	0700                	addi	s0,sp,896
 734:	01a4                	addi	s1,sp,200
 736:	e000                	.2byte	0xe000
 738:	01c2                	slli	gp,gp,0x10
 73a:	e000                	.2byte	0xe000
 73c:	3002                	.2byte	0x3002
 73e:	079f 01cc e000      	.byte	0x9f, 0x07, 0xcc, 0x01, 0x00, 0xe0
 744:	028a                	slli	t0,t0,0x2
 746:	e000                	.2byte	0xe000
 748:	3002                	.2byte	0x3002
 74a:	079f 028a e000      	.byte	0x9f, 0x07, 0x8a, 0x02, 0x00, 0xe0
 750:	0290                	addi	a2,sp,320
 752:	e000                	.2byte	0xe000
 754:	3102                	.2byte	0x3102
 756:	079f 0290 e000      	.byte	0x9f, 0x07, 0x90, 0x02, 0x00, 0xe0
 75c:	0298                	addi	a4,sp,320
 75e:	e000                	.2byte	0xe000
 760:	5901                	li	s2,-32
 762:	00029807          	.4byte	0x29807
 766:	a6e0                	.2byte	0xa6e0
 768:	0002                	c.slli64	zero
 76a:	02e0                	addi	s0,sp,332
 76c:	9f30                	.2byte	0x9f30
 76e:	0700                	addi	s0,sp,896
 770:	01a4                	addi	s1,sp,200
 772:	e000                	.2byte	0xe000
 774:	01bc                	addi	a5,sp,200
 776:	e000                	.2byte	0xe000
 778:	5a01                	li	s4,-32
 77a:	0001bc07          	.4byte	0x1bc07
 77e:	c2e0                	sw	s0,68(a3)
 780:	0001                	nop
 782:	04e0                	addi	s0,sp,588
 784:	9f5a01a3          	sb	s5,-1565(s4)
 788:	0001cc07          	.4byte	0x1cc07
 78c:	dee0                	sw	s0,124(a3)
 78e:	0001                	nop
 790:	01e0                	addi	s0,sp,204
 792:	075a                	slli	a4,a4,0x16
 794:	01de                	slli	gp,gp,0x17
 796:	e000                	.2byte	0xe000
 798:	0240                	addi	s0,sp,260
 79a:	e000                	.2byte	0xe000
 79c:	6001                	.2byte	0x6001
 79e:	00024007          	.4byte	0x24007
 7a2:	44e0                	lw	s0,76(s1)
 7a4:	0002                	c.slli64	zero
 7a6:	03e0                	addi	s0,sp,460
 7a8:	7a80                	.2byte	0x7a80
 7aa:	079f 024a e000      	.byte	0x9f, 0x07, 0x4a, 0x02, 0x00, 0xe0
 7b0:	0250                	addi	a2,sp,260
 7b2:	e000                	.2byte	0xe000
 7b4:	6001                	.2byte	0x6001
 7b6:	00025007          	.4byte	0x25007
 7ba:	54e0                	lw	s0,108(s1)
 7bc:	0002                	c.slli64	zero
 7be:	01e0                	addi	s0,sp,204
 7c0:	075a                	slli	a4,a4,0x16
 7c2:	0254                	addi	a3,sp,260
 7c4:	e000                	.2byte	0xe000
 7c6:	0289                	addi	t0,t0,2
 7c8:	e000                	.2byte	0xe000
 7ca:	6001                	.2byte	0x6001
 7cc:	00029807          	.4byte	0x29807
 7d0:	a6e0                	.2byte	0xa6e0
 7d2:	0002                	c.slli64	zero
 7d4:	01e0                	addi	s0,sp,204
 7d6:	0060                	addi	s0,sp,12
 7d8:	0001fe07          	.4byte	0x1fe07
 7dc:	06e0                	addi	s0,sp,844
 7de:	0002                	c.slli64	zero
 7e0:	01e0                	addi	s0,sp,204
 7e2:	0060                	addi	s0,sp,12
 7e4:	00022007          	.4byte	0x22007
 7e8:	40e0                	lw	s0,68(s1)
 7ea:	0002                	c.slli64	zero
 7ec:	01e0                	addi	s0,sp,204
 7ee:	0760                	addi	s0,sp,908
 7f0:	0240                	addi	s0,sp,260
 7f2:	e000                	.2byte	0xe000
 7f4:	0244                	addi	s1,sp,260
 7f6:	e000                	.2byte	0xe000
 7f8:	9f7a8003          	lb	zero,-1545(s5)
 7fc:	0700                	addi	s0,sp,896
 7fe:	0226                	slli	tp,tp,0x9
 800:	e000                	.2byte	0xe000
 802:	024a                	slli	tp,tp,0x12
 804:	e000                	.2byte	0xe000
 806:	5f01                	li	t5,-32
 808:	0700                	addi	s0,sp,896
 80a:	023a                	slli	tp,tp,0xe
 80c:	e000                	.2byte	0xe000
 80e:	0240                	addi	s0,sp,260
 810:	e000                	.2byte	0xe000
 812:	7f09                	lui	t5,0xfffe2
 814:	0900                	addi	s0,sp,144
 816:	1ef6                	slli	t4,t4,0x3d
 818:	0080                	addi	s0,sp,64
 81a:	9f22                	add	t5,t5,s0
 81c:	00024007          	.4byte	0x24007
 820:	44e0                	lw	s0,76(s1)
 822:	0002                	c.slli64	zero
 824:	0be0                	addi	s0,sp,476
 826:	007f                	.2byte	0x7f
 828:	f609                	bnez	a2,732 <_min_stack-0x18ce>
 82a:	801e                	c.mv	zero,t2
 82c:	2200                	.2byte	0x2200
 82e:	1c36                	slli	s8,s8,0x2d
 830:	009f 5e07 0002      	.byte	0x9f, 0x00, 0x07, 0x5e, 0x02, 0x00
 836:	6ae0                	.2byte	0x6ae0
 838:	0002                	c.slli64	zero
 83a:	01e0                	addi	s0,sp,204
 83c:	075a                	slli	a4,a4,0x16
 83e:	026a                	slli	tp,tp,0x1a
 840:	e000                	.2byte	0xe000
 842:	0276                	slli	tp,tp,0x1d
 844:	e000                	.2byte	0xe000
 846:	9f507a03          	.4byte	0x9f507a03
 84a:	0700                	addi	s0,sp,896
 84c:	0288                	addi	a0,sp,320
 84e:	e000                	.2byte	0xe000
 850:	028a                	slli	t0,t0,0x2
 852:	e000                	.2byte	0xe000
 854:	3002                	.2byte	0x3002
 856:	009f 8807 0002      	.byte	0x9f, 0x00, 0x07, 0x88, 0x02, 0x00
 85c:	8ae0                	.2byte	0x8ae0
 85e:	0002                	c.slli64	zero
 860:	03e0                	addi	s0,sp,460
 862:	2d08                	.2byte	0x2d08
 864:	009f b407 0002      	.byte	0x9f, 0x00, 0x07, 0xb4, 0x02, 0x00
 86a:	bee0                	.2byte	0xbee0
 86c:	0002                	c.slli64	zero
 86e:	01e0                	addi	s0,sp,204
 870:	075a                	slli	a4,a4,0x16
 872:	02be                	slli	t0,t0,0xf
 874:	e000                	.2byte	0xe000
 876:	02c8                	addi	a0,sp,324
 878:	e000                	.2byte	0xe000
 87a:	5801                	li	a6,-32
 87c:	0002c807          	.4byte	0x2c807
 880:	cce0                	sw	s0,92(s1)
 882:	0002                	c.slli64	zero
 884:	01e0                	addi	s0,sp,204
 886:	005a                	c.slli	zero,0x16
 888:	0112                	slli	sp,sp,0x4
 88a:	0000                	unimp
 88c:	0005                	c.nop	1
 88e:	0004                	.2byte	0x4
 890:	0000                	unimp
 892:	0000                	unimp
 894:	0004ee07          	.4byte	0x4ee07
 898:	f6e0                	.2byte	0xf6e0
 89a:	0004                	.2byte	0x4
 89c:	01e0                	addi	s0,sp,204
 89e:	075e                	slli	a4,a4,0x17
 8a0:	04f6                	slli	s1,s1,0x1d
 8a2:	e000                	.2byte	0xe000
 8a4:	04fc                	addi	a5,sp,588
 8a6:	e000                	.2byte	0xe000
 8a8:	4105                	li	sp,1
 8aa:	2444                	.2byte	0x2444
 8ac:	9f1f fc07 0004      	.byte	0x1f, 0x9f, 0x07, 0xfc, 0x04, 0x00
 8b2:	02e0                	addi	s0,sp,332
 8b4:	0005                	c.nop	1
 8b6:	06e0                	addi	s0,sp,844
 8b8:	8411                	srai	s0,s0,0x4
 8ba:	c080                	sw	s0,0(s1)
 8bc:	02079f77          	.4byte	0x2079f77
 8c0:	0005                	c.nop	1
 8c2:	08e0                	addi	s0,sp,92
 8c4:	0005                	c.nop	1
 8c6:	06e0                	addi	s0,sp,844
 8c8:	8811                	andi	s0,s0,4
 8ca:	c080                	sw	s0,0(s1)
 8cc:	08079f77          	.4byte	0x8079f77
 8d0:	0005                	c.nop	1
 8d2:	16e0                	addi	s0,sp,876
 8d4:	0005                	c.nop	1
 8d6:	06e0                	addi	s0,sp,844
 8d8:	a011                	j	8dc <_min_stack-0x1724>
 8da:	c080                	sw	s0,0(s1)
 8dc:	1c079f77          	.4byte	0x1c079f77
 8e0:	0005                	c.nop	1
 8e2:	1ee0                	addi	s0,sp,892
 8e4:	0005                	c.nop	1
 8e6:	01e0                	addi	s0,sp,204
 8e8:	075d                	addi	a4,a4,23
 8ea:	051e                	slli	a0,a0,0x7
 8ec:	e000                	.2byte	0xe000
 8ee:	0526                	slli	a0,a0,0x9
 8f0:	e000                	.2byte	0xe000
 8f2:	7f08                	.2byte	0x7f08
 8f4:	3200                	.2byte	0x3200
 8f6:	7b24                	.2byte	0x7b24
 8f8:	2200                	.2byte	0x2200
 8fa:	079f 0526 e000      	.byte	0x9f, 0x07, 0x26, 0x05, 0x00, 0xe0
 900:	052c                	addi	a1,sp,648
 902:	e000                	.2byte	0xe000
 904:	7f08                	.2byte	0x7f08
 906:	327f                	.2byte	0x327f
 908:	7b24                	.2byte	0x7b24
 90a:	2200                	.2byte	0x2200
 90c:	079f 052c e000      	.byte	0x9f, 0x07, 0x2c, 0x05, 0x00, 0xe0
 912:	0536                	slli	a0,a0,0xd
 914:	e000                	.2byte	0xe000
 916:	9e06                	add	t3,t3,ra
 918:	1804                	addi	s1,sp,48
 91a:	1c00                	addi	s0,sp,560
 91c:	07c1                	addi	a5,a5,16
 91e:	0536                	slli	a0,a0,0xd
 920:	e000                	.2byte	0xe000
 922:	053a                	slli	a0,a0,0xe
 924:	e000                	.2byte	0xe000
 926:	7f08                	.2byte	0x7f08
 928:	327f                	.2byte	0x327f
 92a:	7b24                	.2byte	0x7b24
 92c:	2200                	.2byte	0x2200
 92e:	009f de07 0004      	.byte	0x9f, 0x00, 0x07, 0xde, 0x04, 0x00
 934:	16e0                	addi	s0,sp,876
 936:	0005                	c.nop	1
 938:	02e0                	addi	s0,sp,332
 93a:	9f30                	.2byte	0x9f30
 93c:	00051607          	.4byte	0x51607
 940:	32e0                	.2byte	0x32e0
 942:	0005                	c.nop	1
 944:	01e0                	addi	s0,sp,204
 946:	075e                	slli	a4,a4,0x17
 948:	0536                	slli	a0,a0,0xd
 94a:	e000                	.2byte	0xe000
 94c:	053a                	slli	a0,a0,0xe
 94e:	e000                	.2byte	0xe000
 950:	5e01                	li	t3,-32
 952:	0700                	addi	s0,sp,896
 954:	04de                	slli	s1,s1,0x17
 956:	e000                	.2byte	0xe000
 958:	04e8                	addi	a0,sp,588
 95a:	e000                	.2byte	0xe000
 95c:	3002                	.2byte	0x3002
 95e:	079f 04e8 e000      	.byte	0x9f, 0x07, 0xe8, 0x04, 0x00, 0xe0
 964:	04fa                	slli	s1,s1,0x1e
 966:	e000                	.2byte	0xe000
 968:	5f01                	li	t5,-32
 96a:	0004fa07          	.4byte	0x4fa07
 96e:	fce0                	.2byte	0xfce0
 970:	0004                	.2byte	0x4
 972:	06e0                	addi	s0,sp,844
 974:	007e                	c.slli	zero,0x1f
 976:	2306                	.2byte	0x2306
 978:	9f01                	.2byte	0x9f01
 97a:	0700                	addi	s0,sp,896
 97c:	050a                	slli	a0,a0,0x2
 97e:	e000                	.2byte	0xe000
 980:	0516                	slli	a0,a0,0x5
 982:	e000                	.2byte	0xe000
 984:	3002                	.2byte	0x3002
 986:	079f 0516 e000      	.byte	0x9f, 0x07, 0x16, 0x05, 0x00, 0xe0
 98c:	0530                	addi	a2,sp,648
 98e:	e000                	.2byte	0xe000
 990:	5f01                	li	t5,-32
 992:	00053607          	.4byte	0x53607
 996:	3ae0                	.2byte	0x3ae0
 998:	0005                	c.nop	1
 99a:	01e0                	addi	s0,sp,204
 99c:	5f 00             	Address 0x000000000000099c is out of bounds.


Disassembly of section .debug_aranges:

00000000 <.debug_aranges>:
   0:	001c                	.2byte	0x1c
   2:	0000                	unimp
   4:	0002                	c.slli64	zero
   6:	0000                	unimp
   8:	0000                	unimp
   a:	0004                	.2byte	0x4
   c:	0000                	unimp
   e:	0000                	unimp
  10:	0084                	addi	s1,sp,64
  12:	e000                	.2byte	0xe000
  14:	03d6                	slli	t2,t2,0x15
	...
  1e:	0000                	unimp
  20:	001c                	.2byte	0x1c
  22:	0000                	unimp
  24:	0002                	c.slli64	zero
  26:	0878                	addi	a4,sp,28
  28:	0000                	unimp
  2a:	0004                	.2byte	0x4
  2c:	0000                	unimp
  2e:	0000                	unimp
  30:	04de                	slli	s1,s1,0x17
  32:	e000                	.2byte	0xe000
  34:	005c                	addi	a5,sp,4
	...
  3e:	0000                	unimp
  40:	0024                	addi	s1,sp,8
  42:	0000                	unimp
  44:	0002                	c.slli64	zero
  46:	097f                	.2byte	0x97f
  48:	0000                	unimp
  4a:	0004                	.2byte	0x4
  4c:	0000                	unimp
  4e:	0000                	unimp
  50:	045a                	slli	s0,s0,0x16
  52:	e000                	.2byte	0xe000
  54:	0084                	addi	s1,sp,64
  56:	0000                	unimp
  58:	0000                	unimp
  5a:	e000                	.2byte	0xe000
  5c:	0084                	addi	s1,sp,64
	...

Disassembly of section .debug_rnglists:

00000000 <.debug_rnglists>:
   0:	000000eb          	.4byte	0xeb
   4:	0005                	c.nop	1
   6:	0004                	.2byte	0x4
   8:	0000                	unimp
   a:	0000                	unimp
   c:	1c06                	slli	s8,s8,0x21
   e:	0001                	nop
  10:	32e0                	.2byte	0x32e0
  12:	0001                	nop
  14:	06e0                	addi	s0,sp,844
  16:	0136                	slli	sp,sp,0xd
  18:	e000                	.2byte	0xe000
  1a:	013c                	addi	a5,sp,136
  1c:	e000                	.2byte	0xe000
  1e:	4a06                	lw	s4,64(sp)
  20:	0001                	nop
  22:	4ee0                	lw	s0,92(a3)
  24:	0001                	nop
  26:	00e0                	addi	s0,sp,76
  28:	4406                	lw	s0,64(sp)
  2a:	0001                	nop
  2c:	4ae0                	lw	s0,84(a3)
  2e:	0001                	nop
  30:	06e0                	addi	s0,sp,844
  32:	014e                	slli	sp,sp,0x13
  34:	e000                	.2byte	0xe000
  36:	0152                	slli	sp,sp,0x14
  38:	e000                	.2byte	0xe000
  3a:	0600                	addi	s0,sp,768
  3c:	0144                	addi	s1,sp,132
  3e:	e000                	.2byte	0xe000
  40:	014a                	slli	sp,sp,0x12
  42:	e000                	.2byte	0xe000
  44:	4e06                	lw	t3,64(sp)
  46:	0001                	nop
  48:	52e0                	lw	s0,100(a3)
  4a:	0001                	nop
  4c:	00e0                	addi	s0,sp,76
  4e:	7a06                	.2byte	0x7a06
  50:	0001                	nop
  52:	7ee0                	.2byte	0x7ee0
  54:	0001                	nop
  56:	06e0                	addi	s0,sp,844
  58:	019c                	addi	a5,sp,192
  5a:	e000                	.2byte	0xe000
  5c:	01a0                	addi	s0,sp,200
  5e:	e000                	.2byte	0xe000
  60:	0600                	addi	s0,sp,768
  62:	017a                	slli	sp,sp,0x1e
  64:	e000                	.2byte	0xe000
  66:	017e                	slli	sp,sp,0x1f
  68:	e000                	.2byte	0xe000
  6a:	9c06                	add	s8,s8,ra
  6c:	0001                	nop
  6e:	a0e0                	.2byte	0xa0e0
  70:	0001                	nop
  72:	00e0                	addi	s0,sp,76
  74:	ec06                	.2byte	0xec06
  76:	0001                	nop
  78:	fce0                	.2byte	0xfce0
  7a:	0001                	nop
  7c:	06e0                	addi	s0,sp,844
  7e:	01fe                	slli	gp,gp,0x1f
  80:	e000                	.2byte	0xe000
  82:	020a                	slli	tp,tp,0x2
  84:	e000                	.2byte	0xe000
  86:	0c06                	slli	s8,s8,0x1
  88:	0002                	c.slli64	zero
  8a:	14e0                	addi	s0,sp,620
  8c:	0002                	c.slli64	zero
  8e:	00e0                	addi	s0,sp,76
  90:	fc06                	.2byte	0xfc06
  92:	0001                	nop
  94:	fee0                	.2byte	0xfee0
  96:	0001                	nop
  98:	06e0                	addi	s0,sp,844
  9a:	0220                	addi	s0,sp,264
  9c:	e000                	.2byte	0xe000
  9e:	024a                	slli	tp,tp,0x12
  a0:	e000                	.2byte	0xe000
  a2:	0600                	addi	s0,sp,768
  a4:	0280                	addi	s0,sp,320
  a6:	e000                	.2byte	0xe000
  a8:	0288                	addi	a0,sp,320
  aa:	e000                	.2byte	0xe000
  ac:	8806                	mv	a6,ra
  ae:	0002                	c.slli64	zero
  b0:	8ae0                	.2byte	0x8ae0
  b2:	0002                	c.slli64	zero
  b4:	00e0                	addi	s0,sp,76
  b6:	f606                	.2byte	0xf606
  b8:	0002                	c.slli64	zero
  ba:	14e0                	addi	s0,sp,620
  bc:	06e00003          	lb	zero,110(zero) # 6e <_min_stack-0x1f92>
  c0:	032e                	slli	t1,t1,0xb
  c2:	e000                	.2byte	0xe000
  c4:	0424                	addi	s1,sp,520
  c6:	e000                	.2byte	0xe000
  c8:	0600                	addi	s0,sp,768
  ca:	0306                	slli	t1,t1,0x1
  cc:	e000                	.2byte	0xe000
  ce:	030e                	slli	t1,t1,0x3
  d0:	e000                	.2byte	0xe000
  d2:	7a06                	.2byte	0x7a06
  d4:	88e00003          	lb	zero,-1906(zero) # fffff88e <fromhost+0x1ffef87e>
  d8:	00e00003          	lb	zero,14(zero) # e <_min_stack-0x1ff2>
  dc:	1a06                	slli	s4,s4,0x21
  de:	0004                	.2byte	0x4
  e0:	1ee0                	addi	s0,sp,892
  e2:	0004                	.2byte	0x4
  e4:	06e0                	addi	s0,sp,844
  e6:	0420                	addi	s0,sp,520
  e8:	e000                	.2byte	0xe000
  ea:	0422                	slli	s0,s0,0x8
  ec:	e000                	.2byte	0xe000
  ee:	2500                	.2byte	0x2500
  f0:	0000                	unimp
  f2:	0500                	addi	s0,sp,640
  f4:	0400                	addi	s0,sp,512
  f6:	0000                	unimp
  f8:	0000                	unimp
  fa:	0600                	addi	s0,sp,768
  fc:	050a                	slli	a0,a0,0x2
  fe:	e000                	.2byte	0xe000
 100:	050a                	slli	a0,a0,0x2
 102:	e000                	.2byte	0xe000
 104:	0c06                	slli	s8,s8,0x1
 106:	0005                	c.nop	1
 108:	2ae0                	.2byte	0x2ae0
 10a:	0005                	c.nop	1
 10c:	00e0                	addi	s0,sp,76
 10e:	de06                	sw	ra,60(sp)
 110:	0004                	.2byte	0x4
 112:	3ae0                	.2byte	0x3ae0
 114:	0005                	c.nop	1
 116:	00e0                	addi	s0,sp,76
 118:	00000017          	auipc	zero,0x0
 11c:	0005                	c.nop	1
 11e:	0004                	.2byte	0x4
 120:	0000                	unimp
 122:	0000                	unimp
 124:	00045a07          	.4byte	0x45a07
 128:	84e0                	.2byte	0x84e0
 12a:	0701                	addi	a4,a4,0
 12c:	0000                	unimp
 12e:	e000                	.2byte	0xe000
 130:	0184                	addi	s1,sp,192
	...

Disassembly of section .debug_line:

00000000 <.debug_line>:
   0:	0c66                	slli	s8,s8,0x19
   2:	0000                	unimp
   4:	0005                	c.nop	1
   6:	0004                	.2byte	0x4
   8:	003c                	addi	a5,sp,8
   a:	0000                	unimp
   c:	0101                	addi	sp,sp,0
   e:	fb01                	bnez	a4,ffffff1e <fromhost+0x1ffeff0e>
  10:	0d0e                	slli	s10,s10,0x3
  12:	0100                	addi	s0,sp,128
  14:	0101                	addi	sp,sp,0
  16:	0001                	nop
  18:	0000                	unimp
  1a:	0001                	nop
  1c:	0100                	addi	s0,sp,128
  1e:	0101                	addi	sp,sp,0
  20:	031f 0071 0000      	.byte	0x1f, 0x03, 0x71, 0x00, 0x00, 0x00
  26:	00dd                	addi	ra,ra,23
  28:	0000                	unimp
  2a:	0146                	slli	sp,sp,0x11
  2c:	0000                	unimp
  2e:	0102                	c.slli64	sp
  30:	021f 040f 0069      	.byte	0x1f, 0x02, 0x0f, 0x04, 0x69, 0x00
  36:	0000                	unimp
  38:	6901                	.2byte	0x6901
  3a:	0000                	unimp
  3c:	0100                	addi	s0,sp,128
  3e:	019c                	addi	a5,sp,192
  40:	0000                	unimp
  42:	a502                	.2byte	0xa502
  44:	0001                	nop
  46:	0200                	addi	s0,sp,256
  48:	3805                	jal	fffff878 <fromhost+0x1ffef868>
  4a:	0500                	addi	s0,sp,640
  4c:	8402                	jr	s0
  4e:	0000                	unimp
  50:	03e0                	addi	s0,sp,460
  52:	0119                	addi	sp,sp,6
  54:	0105                	addi	sp,sp,1
  56:	00090103          	lb	sp,0(s2)
  5a:	0100                	addi	s0,sp,128
  5c:	3505                	jal	fffffe7c <fromhost+0x1ffefe6c>
  5e:	04091103          	lh	sp,64(s2)
  62:	0100                	addi	s0,sp,128
  64:	0305                	addi	t1,t1,1
  66:	00090103          	lb	sp,0(s2)
  6a:	0100                	addi	s0,sp,128
  6c:	00090103          	lb	sp,0(s2)
  70:	0100                	addi	s0,sp,128
  72:	2b05                	jal	5a2 <_min_stack-0x1a5e>
  74:	0306                	slli	t1,t1,0x1
  76:	0900                	addi	s0,sp,144
  78:	0000                	unimp
  7a:	0501                	addi	a0,a0,0
  7c:	01030603          	lb	a2,16(t1)
  80:	0a09                	addi	s4,s4,2
  82:	0100                	addi	s0,sp,128
  84:	4005                	c.li	zero,1
  86:	0306                	slli	t1,t1,0x1
  88:	0900                	addi	s0,sp,144
  8a:	0000                	unimp
  8c:	0501                	addi	a0,a0,0
  8e:	0900032b          	.4byte	0x900032b
  92:	0004                	.2byte	0x4
  94:	0501                	addi	a0,a0,0
  96:	01030603          	lb	a2,16(t1)
  9a:	0209                	addi	tp,tp,2 # 2 <_min_stack-0x1ffe>
  9c:	0100                	addi	s0,sp,128
  9e:	4005                	c.li	zero,1
  a0:	0306                	slli	t1,t1,0x1
  a2:	0900                	addi	s0,sp,144
  a4:	0000                	unimp
  a6:	0501                	addi	a0,a0,0
  a8:	0900032b          	.4byte	0x900032b
  ac:	0004                	.2byte	0x4
  ae:	0501                	addi	a0,a0,0
  b0:	01030603          	lb	a2,16(t1)
  b4:	0209                	addi	tp,tp,2 # 2 <_min_stack-0x1ffe>
  b6:	0100                	addi	s0,sp,128
  b8:	2b05                	jal	5e8 <_min_stack-0x1a18>
  ba:	0306                	slli	t1,t1,0x1
  bc:	0900                	addi	s0,sp,144
  be:	0000                	unimp
  c0:	0501                	addi	a0,a0,0
  c2:	01030603          	lb	a2,16(t1)
  c6:	0609                	addi	a2,a2,2
  c8:	0100                	addi	s0,sp,128
  ca:	2b05                	jal	5fa <_min_stack-0x1a06>
  cc:	0306                	slli	t1,t1,0x1
  ce:	0900                	addi	s0,sp,144
  d0:	0000                	unimp
  d2:	0501                	addi	a0,a0,0
  d4:	02030603          	lb	a2,32(t1)
  d8:	0409                	addi	s0,s0,2
  da:	0100                	addi	s0,sp,128
  dc:	2f05                	jal	80c <_min_stack-0x17f4>
  de:	0306                	slli	t1,t1,0x1
  e0:	0900                	addi	s0,sp,144
  e2:	0000                	unimp
  e4:	0501                	addi	a0,a0,0
  e6:	0358                	addi	a4,sp,388
  e8:	0900                	addi	s0,sp,144
  ea:	0002                	c.slli64	zero
  ec:	0501                	addi	a0,a0,0
  ee:	0360                	addi	s0,sp,396
  f0:	0900                	addi	s0,sp,144
  f2:	0004                	.2byte	0x4
  f4:	0501                	addi	a0,a0,0
  f6:	0900032b          	.4byte	0x900032b
  fa:	0004                	.2byte	0x4
  fc:	0501                	addi	a0,a0,0
  fe:	0301                	addi	t1,t1,0
 100:	0901                	addi	s2,s2,0
 102:	0002                	c.slli64	zero
 104:	0501                	addi	a0,a0,0
 106:	02030633          	mul	a2,t1,zero
 10a:	0209                	addi	tp,tp,2 # 2 <_min_stack-0x1ffe>
 10c:	0100                	addi	s0,sp,128
 10e:	0305                	addi	t1,t1,1
 110:	00090103          	lb	sp,0(s2)
 114:	0100                	addi	s0,sp,128
 116:	00090203          	lb	tp,0(s2)
 11a:	0100                	addi	s0,sp,128
 11c:	0d05                	addi	s10,s10,1 # fffe0001 <fromhost+0x1ffcfff1>
 11e:	0306                	slli	t1,t1,0x1
 120:	0904                	addi	s1,sp,144
 122:	0000                	unimp
 124:	0601                	addi	a2,a2,0
 126:	04097c03          	.4byte	0x4097c03
 12a:	0100                	addi	s0,sp,128
 12c:	0105                	addi	sp,sp,1
 12e:	0306                	slli	t1,t1,0x1
 130:	090d                	addi	s2,s2,3
 132:	0002                	c.slli64	zero
 134:	0501                	addi	a0,a0,0
 136:	003d                	c.nop	15
 138:	0402                	c.slli64	s0
 13a:	0601                	addi	a2,a2,0
 13c:	02097703          	.4byte	0x2097703
 140:	0100                	addi	s0,sp,128
 142:	0d05                	addi	s10,s10,1
 144:	0200                	addi	s0,sp,256
 146:	0104                	addi	s1,sp,128
 148:	0306                	slli	t1,t1,0x1
 14a:	0900                	addi	s0,sp,144
 14c:	0000                	unimp
 14e:	0501                	addi	a0,a0,0
 150:	0035                	c.nop	13
 152:	0402                	c.slli64	s0
 154:	0301                	addi	t1,t1,0
 156:	0900                	addi	s0,sp,144
 158:	0002                	c.slli64	zero
 15a:	0501                	addi	a0,a0,0
 15c:	003d                	c.nop	15
 15e:	0402                	c.slli64	s0
 160:	0301                	addi	t1,t1,0
 162:	0900                	addi	s0,sp,144
 164:	0004                	.2byte	0x4
 166:	0501                	addi	a0,a0,0
 168:	04020007          	.4byte	0x4020007
 16c:	0604                	addi	s1,sp,768
 16e:	06090403          	lb	s0,96(s2)
 172:	0100                	addi	s0,sp,128
 174:	3105                	jal	fffffd94 <fromhost+0x1ffefd84>
 176:	0200                	addi	s0,sp,256
 178:	0404                	addi	s1,sp,512
 17a:	0306                	slli	t1,t1,0x1
 17c:	0900                	addi	s0,sp,144
 17e:	0000                	unimp
 180:	0501                	addi	a0,a0,0
 182:	0035                	c.nop	13
 184:	0402                	c.slli64	s0
 186:	0304                	addi	s1,sp,384
 188:	0900                	addi	s0,sp,144
 18a:	0004                	.2byte	0x4
 18c:	0501                	addi	a0,a0,0
 18e:	000a                	c.slli	zero,0x2
 190:	0402                	c.slli64	s0
 192:	0304                	addi	s1,sp,384
 194:	0902                	c.slli64	s2
 196:	0002                	c.slli64	zero
 198:	0501                	addi	a0,a0,0
 19a:	0402002f          	.4byte	0x402002f
 19e:	0304                	addi	s1,sp,384
 1a0:	097e                	slli	s2,s2,0x1f
 1a2:	0002                	c.slli64	zero
 1a4:	0501                	addi	a0,a0,0
 1a6:	04020007          	.4byte	0x4020007
 1aa:	0604                	addi	s1,sp,768
 1ac:	02090203          	lb	tp,32(s2)
 1b0:	0100                	addi	s0,sp,128
 1b2:	3505                	jal	ffffffd2 <fromhost+0x1ffeffc2>
 1b4:	0200                	addi	s0,sp,256
 1b6:	0404                	addi	s1,sp,512
 1b8:	00097c03          	.4byte	0x97c03
 1bc:	0100                	addi	s0,sp,128
 1be:	2605                	jal	4de <_min_stack-0x1b22>
 1c0:	0200                	addi	s0,sp,256
 1c2:	0404                	addi	s1,sp,512
 1c4:	00090003          	lb	zero,0(s2)
 1c8:	0100                	addi	s0,sp,128
 1ca:	0200                	addi	s0,sp,256
 1cc:	0304                	addi	s1,sp,384
 1ce:	0306                	slli	t1,t1,0x1
 1d0:	0900                	addi	s0,sp,144
 1d2:	0004                	.2byte	0x4
 1d4:	0501                	addi	a0,a0,0
 1d6:	0615                	addi	a2,a2,5
 1d8:	04090903          	lb	s2,64(s2)
 1dc:	0100                	addi	s0,sp,128
 1de:	0305                	addi	t1,t1,1
 1e0:	00090103          	lb	sp,0(s2)
 1e4:	0100                	addi	s0,sp,128
 1e6:	0a05                	addi	s4,s4,1
 1e8:	0306                	slli	t1,t1,0x1
 1ea:	0900                	addi	s0,sp,144
 1ec:	0000                	unimp
 1ee:	0501                	addi	a0,a0,0
 1f0:	0030                	addi	a2,sp,8
 1f2:	0402                	c.slli64	s0
 1f4:	0601                	addi	a2,a2,0
 1f6:	04090003          	lb	zero,64(s2)
 1fa:	0100                	addi	s0,sp,128
 1fc:	0a05                	addi	s4,s4,1
 1fe:	0200                	addi	s0,sp,256
 200:	0104                	addi	s1,sp,128
 202:	0306                	slli	t1,t1,0x1
 204:	0900                	addi	s0,sp,144
 206:	0000                	unimp
 208:	0501                	addi	a0,a0,0
 20a:	0029                	c.nop	10
 20c:	0402                	c.slli64	s0
 20e:	0301                	addi	t1,t1,0
 210:	0900                	addi	s0,sp,144
 212:	0002                	c.slli64	zero
 214:	0501                	addi	a0,a0,0
 216:	0030                	addi	a2,sp,8
 218:	0402                	c.slli64	s0
 21a:	0301                	addi	t1,t1,0
 21c:	0900                	addi	s0,sp,144
 21e:	0002                	c.slli64	zero
 220:	0501                	addi	a0,a0,0
 222:	02030603          	lb	a2,32(t1)
 226:	0209                	addi	tp,tp,2 # 2 <_min_stack-0x1ffe>
 228:	0100                	addi	s0,sp,128
 22a:	0a05                	addi	s4,s4,1
 22c:	0306                	slli	t1,t1,0x1
 22e:	0900                	addi	s0,sp,144
 230:	0000                	unimp
 232:	0501                	addi	a0,a0,0
 234:	0301                	addi	t1,t1,0
 236:	0901                	addi	s2,s2,0
 238:	0002                	c.slli64	zero
 23a:	0501                	addi	a0,a0,0
 23c:	0622                	slli	a2,a2,0x8
 23e:	06090203          	lb	tp,96(s2)
 242:	0100                	addi	s0,sp,128
 244:	0305                	addi	t1,t1,1
 246:	00090203          	lb	tp,0(s2)
 24a:	0100                	addi	s0,sp,128
 24c:	0b05                	addi	s6,s6,1
 24e:	0306                	slli	t1,t1,0x1
 250:	0900                	addi	s0,sp,144
 252:	0000                	unimp
 254:	0501                	addi	a0,a0,0
 256:	0402003b          	.4byte	0x402003b
 25a:	0601                	addi	a2,a2,0
 25c:	04090003          	lb	zero,64(s2)
 260:	0100                	addi	s0,sp,128
 262:	0b05                	addi	s6,s6,1
 264:	0200                	addi	s0,sp,256
 266:	0104                	addi	s1,sp,128
 268:	0306                	slli	t1,t1,0x1
 26a:	0900                	addi	s0,sp,144
 26c:	0000                	unimp
 26e:	0501                	addi	a0,a0,0
 270:	04020033          	.4byte	0x4020033
 274:	0301                	addi	t1,t1,0
 276:	0900                	addi	s0,sp,144
 278:	0002                	c.slli64	zero
 27a:	0501                	addi	a0,a0,0
 27c:	0402003b          	.4byte	0x402003b
 280:	0301                	addi	t1,t1,0
 282:	0900                	addi	s0,sp,144
 284:	0004                	.2byte	0x4
 286:	0501                	addi	a0,a0,0
 288:	03030603          	lb	a2,48(t1)
 28c:	0209                	addi	tp,tp,2 # 2 <_min_stack-0x1ffe>
 28e:	0100                	addi	s0,sp,128
 290:	2b05                	jal	7c0 <_min_stack-0x1840>
 292:	0306                	slli	t1,t1,0x1
 294:	0900                	addi	s0,sp,144
 296:	0000                	unimp
 298:	0501                	addi	a0,a0,0
 29a:	0301                	addi	t1,t1,0
 29c:	0901                	addi	s2,s2,0
 29e:	0002                	c.slli64	zero
 2a0:	0501                	addi	a0,a0,0
 2a2:	060c                	addi	a1,sp,768
 2a4:	0900c803          	lbu	a6,144(ra)
 2a8:	0002                	c.slli64	zero
 2aa:	0501                	addi	a0,a0,0
 2ac:	09020303          	lb	t1,144(tp) # 90 <_min_stack-0x1f70>
 2b0:	0000                	unimp
 2b2:	0301                	addi	t1,t1,0
 2b4:	0902                	c.slli64	s2
 2b6:	0000                	unimp
 2b8:	0501                	addi	a0,a0,0
 2ba:	060c                	addi	a1,sp,768
 2bc:	00097c03          	.4byte	0x97c03
 2c0:	0100                	addi	s0,sp,128
 2c2:	0e090003          	lb	zero,224(s2)
 2c6:	0100                	addi	s0,sp,128
 2c8:	1805                	addi	a6,a6,-31
 2ca:	04090203          	lb	tp,64(s2)
 2ce:	0100                	addi	s0,sp,128
 2d0:	0605                	addi	a2,a2,1
 2d2:	04090203          	lb	tp,64(s2)
 2d6:	0100                	addi	s0,sp,128
 2d8:	2505                	jal	8f8 <_min_stack-0x1708>
 2da:	0306                	slli	t1,t1,0x1
 2dc:	00080903          	lb	s2,0(a6)
 2e0:	0501                	addi	a0,a0,0
 2e2:	031e                	slli	t1,t1,0x7
 2e4:	0900                	addi	s0,sp,144
 2e6:	0002                	c.slli64	zero
 2e8:	0501                	addi	a0,a0,0
 2ea:	0318                	addi	a4,sp,384
 2ec:	0900                	addi	s0,sp,144
 2ee:	0000                	unimp
 2f0:	0501                	addi	a0,a0,0
 2f2:	0305                	addi	t1,t1,1
 2f4:	0901                	addi	s2,s2,0
 2f6:	000a                	c.slli	zero,0x2
 2f8:	0501                	addi	a0,a0,0
 2fa:	0608                	addi	a0,sp,768
 2fc:	00090003          	lb	zero,0(s2)
 300:	0100                	addi	s0,sp,128
 302:	0a05                	addi	s4,s4,1
 304:	0306                	slli	t1,t1,0x1
 306:	0901                	addi	s2,s2,0
 308:	0004                	.2byte	0x4
 30a:	0501                	addi	a0,a0,0
 30c:	0610                	addi	a2,sp,768
 30e:	00090003          	lb	zero,0(s2)
 312:	0100                	addi	s0,sp,128
 314:	0505                	addi	a0,a0,1
 316:	0306                	slli	t1,t1,0x1
 318:	0901                	addi	s2,s2,0
 31a:	0002                	c.slli64	zero
 31c:	0501                	addi	a0,a0,0
 31e:	060d                	addi	a2,a2,3
 320:	00090003          	lb	zero,0(s2)
 324:	0100                	addi	s0,sp,128
 326:	1805                	addi	a6,a6,-31
 328:	04097803          	.4byte	0x4097803
 32c:	0100                	addi	s0,sp,128
 32e:	0805                	addi	a6,a6,1
 330:	04090803          	lb	a6,64(s2)
 334:	0100                	addi	s0,sp,128
 336:	2105                	jal	756 <_min_stack-0x18aa>
 338:	02090003          	lb	zero,32(s2)
 33c:	0100                	addi	s0,sp,128
 33e:	0305                	addi	t1,t1,1
 340:	0306                	slli	t1,t1,0x1
 342:	0902                	c.slli64	s2
 344:	0004                	.2byte	0x4
 346:	0501                	addi	a0,a0,0
 348:	060d                	addi	a2,a2,3
 34a:	00090003          	lb	zero,0(s2)
 34e:	0100                	addi	s0,sp,128
 350:	1005                	c.nop	-31
 352:	02097603          	.4byte	0x2097603
 356:	0100                	addi	s0,sp,128
 358:	0605                	addi	a2,a2,1
 35a:	02090a03          	lb	s4,32(s2)
 35e:	0100                	addi	s0,sp,128
 360:	0305                	addi	t1,t1,1
 362:	04096503          	.4byte	0x4096503
 366:	0100                	addi	s0,sp,128
 368:	1d05                	addi	s10,s10,-31
 36a:	06091703          	lh	a4,96(s2)
 36e:	0100                	addi	s0,sp,128
 370:	0705                	addi	a4,a4,1
 372:	0306                	slli	t1,t1,0x1
 374:	0906                	slli	s2,s2,0x1
 376:	0004                	.2byte	0x4
 378:	0501                	addi	a0,a0,0
 37a:	09690303          	lb	t1,150(s2)
 37e:	0000                	unimp
 380:	0501                	addi	a0,a0,0
 382:	0305                	addi	t1,t1,1
 384:	0906                	slli	s2,s2,0x1
 386:	0000                	unimp
 388:	0501                	addi	a0,a0,0
 38a:	09740303          	lb	t1,151(s0)
 38e:	0000                	unimp
 390:	0301                	addi	t1,t1,0
 392:	0901                	addi	s2,s2,0
 394:	0004                	.2byte	0x4
 396:	0501                	addi	a0,a0,0
 398:	091d0307          	.4byte	0x91d0307
 39c:	0000                	unimp
 39e:	0501                	addi	a0,a0,0
 3a0:	0318                	addi	a4,sp,384
 3a2:	097e                	slli	s2,s2,0x1f
 3a4:	0000                	unimp
 3a6:	0501                	addi	a0,a0,0
 3a8:	09000313          	li	t1,144
 3ac:	0002                	c.slli64	zero
 3ae:	0501                	addi	a0,a0,0
 3b0:	0610                	addi	a2,sp,768
 3b2:	10097503          	.4byte	0x10097503
 3b6:	0100                	addi	s0,sp,128
 3b8:	0505                	addi	a0,a0,1
 3ba:	0306                	slli	t1,t1,0x1
 3bc:	0911                	addi	s2,s2,4
 3be:	0004                	.2byte	0x4
 3c0:	0501                	addi	a0,a0,0
 3c2:	09640303          	lb	t1,150(s0)
 3c6:	0000                	unimp
 3c8:	0501                	addi	a0,a0,0
 3ca:	0305                	addi	t1,t1,1
 3cc:	0906                	slli	s2,s2,0x1
 3ce:	0000                	unimp
 3d0:	0501                	addi	a0,a0,0
 3d2:	09740303          	lb	t1,151(s0)
 3d6:	0000                	unimp
 3d8:	0301                	addi	t1,t1,0
 3da:	0901                	addi	s2,s2,0
 3dc:	0002                	c.slli64	zero
 3de:	0501                	addi	a0,a0,0
 3e0:	0305                	addi	t1,t1,1
 3e2:	0922                	slli	s2,s2,0x8
 3e4:	0000                	unimp
 3e6:	0501                	addi	a0,a0,0
 3e8:	0315                	addi	t1,t1,5
 3ea:	097e                	slli	s2,s2,0x1f
 3ec:	0002                	c.slli64	zero
 3ee:	0501                	addi	a0,a0,0
 3f0:	0900030b          	.4byte	0x900030b
 3f4:	0000                	unimp
 3f6:	0501                	addi	a0,a0,0
 3f8:	5f030603          	lb	a2,1520(t1)
 3fc:	0e09                	addi	t3,t3,2
 3fe:	0100                	addi	s0,sp,128
 400:	1105                	addi	sp,sp,-31
 402:	0306                	slli	t1,t1,0x1
 404:	0925                	addi	s2,s2,9
 406:	0004                	.2byte	0x4
 408:	0501                	addi	a0,a0,0
 40a:	09050303          	lb	t1,144(a0)
 40e:	0004                	.2byte	0x4
 410:	0501                	addi	a0,a0,0
 412:	060a                	slli	a2,a2,0x2
 414:	00090003          	lb	zero,0(s2)
 418:	0100                	addi	s0,sp,128
 41a:	0105                	addi	sp,sp,1
 41c:	06090103          	lb	sp,96(s2)
 420:	0100                	addi	s0,sp,128
 422:	0505                	addi	a0,a0,1
 424:	0306                	slli	t1,t1,0x1
 426:	0014097b          	.4byte	0x14097b
 42a:	0501                	addi	a0,a0,0
 42c:	09600303          	lb	t1,150(zero) # 96 <_min_stack-0x1f6a>
 430:	0000                	unimp
 432:	0501                	addi	a0,a0,0
 434:	0305                	addi	t1,t1,1
 436:	0906                	slli	s2,s2,0x1
 438:	0000                	unimp
 43a:	0501                	addi	a0,a0,0
 43c:	09740303          	lb	t1,151(s0)
 440:	0000                	unimp
 442:	0301                	addi	t1,t1,0
 444:	0901                	addi	s2,s2,0
 446:	0004                	.2byte	0x4
 448:	0501                	addi	a0,a0,0
 44a:	0305                	addi	t1,t1,1
 44c:	0926                	slli	s2,s2,0x9
 44e:	0000                	unimp
 450:	0501                	addi	a0,a0,0
 452:	0316                	slli	t1,t1,0x5
 454:	097e                	slli	s2,s2,0x1f
 456:	0000                	unimp
 458:	0501                	addi	a0,a0,0
 45a:	030c                	addi	a1,sp,384
 45c:	0908                	addi	a0,sp,144
 45e:	0004                	.2byte	0x4
 460:	0501                	addi	a0,a0,0
 462:	09020303          	lb	t1,144(tp) # 90 <_min_stack-0x1f70>
 466:	0000                	unimp
 468:	0301                	addi	t1,t1,0
 46a:	0901                	addi	s2,s2,0
 46c:	0000                	unimp
 46e:	0301                	addi	t1,t1,0
 470:	0901                	addi	s2,s2,0
 472:	0000                	unimp
 474:	0301                	addi	t1,t1,0
 476:	0901                	addi	s2,s2,0
 478:	0000                	unimp
 47a:	0301                	addi	t1,t1,0
 47c:	0902                	c.slli64	s2
 47e:	0000                	unimp
 480:	0501                	addi	a0,a0,0
 482:	060c                	addi	a1,sp,768
 484:	00097903          	.4byte	0x97903
 488:	0100                	addi	s0,sp,128
 48a:	08090003          	lb	zero,128(s2)
 48e:	0100                	addi	s0,sp,128
 490:	0605                	addi	a2,a2,1
 492:	08090703          	lb	a4,128(s2)
 496:	0100                	addi	s0,sp,128
 498:	0505                	addi	a0,a0,1
 49a:	0306                	slli	t1,t1,0x1
 49c:	0902                	c.slli64	s2
 49e:	0002                	c.slli64	zero
 4a0:	0301                	addi	t1,t1,0
 4a2:	0901                	addi	s2,s2,0
 4a4:	0000                	unimp
 4a6:	0501                	addi	a0,a0,0
 4a8:	0612                	slli	a2,a2,0x4
 4aa:	00097f03          	.4byte	0x97f03
 4ae:	0100                	addi	s0,sp,128
 4b0:	0c05                	addi	s8,s8,1
 4b2:	04090203          	lb	tp,64(s2)
 4b6:	0100                	addi	s0,sp,128
 4b8:	1205                	addi	tp,tp,-31 # ffffffe1 <fromhost+0x1ffeffd1>
 4ba:	02097e03          	.4byte	0x2097e03
 4be:	0100                	addi	s0,sp,128
 4c0:	0505                	addi	a0,a0,1
 4c2:	0306                	slli	t1,t1,0x1
 4c4:	0902                	c.slli64	s2
 4c6:	0004                	.2byte	0x4
 4c8:	0501                	addi	a0,a0,0
 4ca:	060c                	addi	a1,sp,768
 4cc:	00090003          	lb	zero,0(s2)
 4d0:	0100                	addi	s0,sp,128
 4d2:	0105                	addi	sp,sp,1
 4d4:	02092d03          	lw	s10,32(s2)
 4d8:	0100                	addi	s0,sp,128
 4da:	0305                	addi	t1,t1,1
 4dc:	0306                	slli	t1,t1,0x1
 4de:	0956                	slli	s2,s2,0x15
 4e0:	000c                	.2byte	0xc
 4e2:	0501                	addi	a0,a0,0
 4e4:	0606                	slli	a2,a2,0x1
 4e6:	00090003          	lb	zero,0(s2)
 4ea:	0100                	addi	s0,sp,128
 4ec:	0a05                	addi	s4,s4,1
 4ee:	02090003          	lb	zero,32(s2)
 4f2:	0100                	addi	s0,sp,128
 4f4:	1505                	addi	a0,a0,-31
 4f6:	06090003          	lb	zero,96(s2)
 4fa:	0100                	addi	s0,sp,128
 4fc:	0505                	addi	a0,a0,1
 4fe:	0306                	slli	t1,t1,0x1
 500:	0902                	c.slli64	s2
 502:	0004                	.2byte	0x4
 504:	0301                	addi	t1,t1,0
 506:	0901                	addi	s2,s2,0
 508:	0000                	unimp
 50a:	0501                	addi	a0,a0,0
 50c:	0609                	addi	a2,a2,2
 50e:	00090003          	lb	zero,0(s2)
 512:	0100                	addi	s0,sp,128
 514:	0305                	addi	t1,t1,1
 516:	0306                	slli	t1,t1,0x1
 518:	00040903          	lb	s2,0(s0)
 51c:	0301                	addi	t1,t1,0
 51e:	0901                	addi	s2,s2,0
 520:	0000                	unimp
 522:	0501                	addi	a0,a0,0
 524:	0606                	slli	a2,a2,0x1
 526:	00090003          	lb	zero,0(s2)
 52a:	0100                	addi	s0,sp,128
 52c:	0305                	addi	t1,t1,1
 52e:	0306                	slli	t1,t1,0x1
 530:	00040903          	lb	s2,0(s0)
 534:	0501                	addi	a0,a0,0
 536:	0605                	addi	a2,a2,1
 538:	00090003          	lb	zero,0(s2)
 53c:	0100                	addi	s0,sp,128
 53e:	1305                	addi	t1,t1,-31
 540:	097fb503          	.4byte	0x97fb503
 544:	000a                	c.slli	zero,0x2
 546:	0501                	addi	a0,a0,0
 548:	0316                	slli	t1,t1,0x5
 54a:	0901                	addi	s2,s2,0
 54c:	0004                	.2byte	0x4
 54e:	0501                	addi	a0,a0,0
 550:	097f0313          	addi	t1,t5,151 # fffe2097 <fromhost+0x1ffd2087>
 554:	0008                	.2byte	0x8
 556:	0501                	addi	a0,a0,0
 558:	030d                	addi	t1,t1,3
 55a:	0975                	addi	s2,s2,29
 55c:	0004                	.2byte	0x4
 55e:	0501                	addi	a0,a0,0
 560:	e4030607          	.4byte	0xe4030607
 564:	0900                	addi	s0,sp,144
 566:	0002                	c.slli64	zero
 568:	0501                	addi	a0,a0,0
 56a:	7fa70303          	lb	t1,2042(a4)
 56e:	0009                	c.nop	2
 570:	0100                	addi	s0,sp,128
 572:	1305                	addi	t1,t1,-31
 574:	0306                	slli	t1,t1,0x1
 576:	0900                	addi	s0,sp,144
 578:	0000                	unimp
 57a:	0501                	addi	a0,a0,0
 57c:	031c                	addi	a5,sp,384
 57e:	0900                	addi	s0,sp,144
 580:	0004                	.2byte	0x4
 582:	0501                	addi	a0,a0,0
 584:	01030603          	lb	a2,16(t1)
 588:	0409                	addi	s0,s0,2
 58a:	0100                	addi	s0,sp,128
 58c:	2705                	jal	cac <_min_stack-0x1354>
 58e:	0306                	slli	t1,t1,0x1
 590:	097f                	.2byte	0x97f
 592:	0000                	unimp
 594:	0501                	addi	a0,a0,0
 596:	030c                	addi	a1,sp,384
 598:	00d9                	addi	ra,ra,22
 59a:	0409                	addi	s0,s0,2
 59c:	0100                	addi	s0,sp,128
 59e:	1705                	addi	a4,a4,-31
 5a0:	097fa703          	lw	a4,151(t6)
 5a4:	0002                	c.slli64	zero
 5a6:	0501                	addi	a0,a0,0
 5a8:	0322                	slli	t1,t1,0x8
 5aa:	0900                	addi	s0,sp,144
 5ac:	0002                	c.slli64	zero
 5ae:	0501                	addi	a0,a0,0
 5b0:	0305                	addi	t1,t1,1
 5b2:	0900                	addi	s0,sp,144
 5b4:	0002                	c.slli64	zero
 5b6:	0501                	addi	a0,a0,0
 5b8:	0316                	slli	t1,t1,0x5
 5ba:	0901                	addi	s2,s2,0
 5bc:	0002                	c.slli64	zero
 5be:	0501                	addi	a0,a0,0
 5c0:	0318                	addi	a4,sp,384
 5c2:	00d8                	addi	a4,sp,68
 5c4:	0209                	addi	tp,tp,2 # 2 <_min_stack-0x1ffe>
 5c6:	0100                	addi	s0,sp,128
 5c8:	0c05                	addi	s8,s8,1
 5ca:	08090003          	lb	zero,128(s2)
 5ce:	0100                	addi	s0,sp,128
 5d0:	0705                	addi	a4,a4,1
 5d2:	0306                	slli	t1,t1,0x1
 5d4:	0901                	addi	s2,s2,0
 5d6:	0004                	.2byte	0x4
 5d8:	0501                	addi	a0,a0,0
 5da:	7f940303          	lb	t1,2041(s0)
 5de:	0009                	c.nop	2
 5e0:	0100                	addi	s0,sp,128
 5e2:	00090203          	lb	tp,0(s2)
 5e6:	0100                	addi	s0,sp,128
 5e8:	1505                	addi	a0,a0,-31
 5ea:	0306                	slli	t1,t1,0x1
 5ec:	0900                	addi	s0,sp,144
 5ee:	0000                	unimp
 5f0:	0501                	addi	a0,a0,0
 5f2:	0305                	addi	t1,t1,1
 5f4:	0900                	addi	s0,sp,144
 5f6:	0004                	.2byte	0x4
 5f8:	0501                	addi	a0,a0,0
 5fa:	01030603          	lb	a2,16(t1)
 5fe:	0209                	addi	tp,tp,2 # 2 <_min_stack-0x1ffe>
 600:	0100                	addi	s0,sp,128
 602:	0e05                	addi	t3,t3,1
 604:	0306                	slli	t1,t1,0x1
 606:	0900                	addi	s0,sp,144
 608:	0000                	unimp
 60a:	0501                	addi	a0,a0,0
 60c:	0305                	addi	t1,t1,1
 60e:	0900                	addi	s0,sp,144
 610:	0004                	.2byte	0x4
 612:	0501                	addi	a0,a0,0
 614:	01030603          	lb	a2,16(t1)
 618:	0209                	addi	tp,tp,2 # 2 <_min_stack-0x1ffe>
 61a:	0100                	addi	s0,sp,128
 61c:	0e05                	addi	t3,t3,1
 61e:	0306                	slli	t1,t1,0x1
 620:	0900                	addi	s0,sp,144
 622:	0000                	unimp
 624:	0501                	addi	a0,a0,0
 626:	0305                	addi	t1,t1,1
 628:	0900                	addi	s0,sp,144
 62a:	0004                	.2byte	0x4
 62c:	0501                	addi	a0,a0,0
 62e:	01030603          	lb	a2,16(t1)
 632:	0209                	addi	tp,tp,2 # 2 <_min_stack-0x1ffe>
 634:	0100                	addi	s0,sp,128
 636:	0e05                	addi	t3,t3,1
 638:	0306                	slli	t1,t1,0x1
 63a:	0900                	addi	s0,sp,144
 63c:	0000                	unimp
 63e:	0501                	addi	a0,a0,0
 640:	0305                	addi	t1,t1,1
 642:	0900                	addi	s0,sp,144
 644:	0004                	.2byte	0x4
 646:	0501                	addi	a0,a0,0
 648:	01030603          	lb	a2,16(t1)
 64c:	0209                	addi	tp,tp,2 # 2 <_min_stack-0x1ffe>
 64e:	0100                	addi	s0,sp,128
 650:	0505                	addi	a0,a0,1
 652:	0306                	slli	t1,t1,0x1
 654:	0900                	addi	s0,sp,144
 656:	0000                	unimp
 658:	0501                	addi	a0,a0,0
 65a:	01030603          	lb	a2,16(t1)
 65e:	0209                	addi	tp,tp,2 # 2 <_min_stack-0x1ffe>
 660:	0100                	addi	s0,sp,128
 662:	00090203          	lb	tp,0(s2)
 666:	0100                	addi	s0,sp,128
 668:	0d05                	addi	s10,s10,1
 66a:	0306                	slli	t1,t1,0x1
 66c:	097e                	slli	s2,s2,0x1f
 66e:	0000                	unimp
 670:	0501                	addi	a0,a0,0
 672:	0312                	slli	t1,t1,0x4
 674:	0902                	c.slli64	s2
 676:	0004                	.2byte	0x4
 678:	0501                	addi	a0,a0,0
 67a:	09000317          	auipc	t1,0x9000
 67e:	0006                	c.slli	zero,0x1
 680:	0501                	addi	a0,a0,0
 682:	030c                	addi	a1,sp,384
 684:	0900                	addi	s0,sp,144
 686:	0004                	.2byte	0x4
 688:	0601                	addi	a2,a2,0
 68a:	0900e103          	.4byte	0x900e103
 68e:	0002                	c.slli64	zero
 690:	0501                	addi	a0,a0,0
 692:	0610                	addi	a2,sp,768
 694:	06095f03          	lhu	t5,96(s2)
 698:	0100                	addi	s0,sp,128
 69a:	0a05                	addi	s4,s4,1
 69c:	04091903          	lh	s2,64(s2)
 6a0:	0100                	addi	s0,sp,128
 6a2:	1c05                	addi	s8,s8,-31
 6a4:	02090103          	lb	sp,32(s2)
 6a8:	0100                	addi	s0,sp,128
 6aa:	0705                	addi	a4,a4,1
 6ac:	0306                	slli	t1,t1,0x1
 6ae:	097d                	addi	s2,s2,31
 6b0:	0004                	.2byte	0x4
 6b2:	0501                	addi	a0,a0,0
 6b4:	0003060b          	.4byte	0x3060b
 6b8:	0009                	c.nop	2
 6ba:	0100                	addi	s0,sp,128
 6bc:	0705                	addi	a4,a4,1
 6be:	0306                	slli	t1,t1,0x1
 6c0:	0902                	c.slli64	s2
 6c2:	0004                	.2byte	0x4
 6c4:	0501                	addi	a0,a0,0
 6c6:	060a                	slli	a2,a2,0x2
 6c8:	00090003          	lb	zero,0(s2)
 6cc:	0100                	addi	s0,sp,128
 6ce:	0905                	addi	s2,s2,1
 6d0:	0306                	slli	t1,t1,0x1
 6d2:	0901                	addi	s2,s2,0
 6d4:	0004                	.2byte	0x4
 6d6:	0501                	addi	a0,a0,0
 6d8:	0003060b          	.4byte	0x3060b
 6dc:	0009                	c.nop	2
 6de:	0100                	addi	s0,sp,128
 6e0:	0705                	addi	a4,a4,1
 6e2:	0306                	slli	t1,t1,0x1
 6e4:	0902                	c.slli64	s2
 6e6:	0002                	c.slli64	zero
 6e8:	0501                	addi	a0,a0,0
 6ea:	060c                	addi	a1,sp,768
 6ec:	00090003          	lb	zero,0(s2)
 6f0:	0100                	addi	s0,sp,128
 6f2:	1005                	c.nop	-31
 6f4:	02090003          	lb	zero,32(s2)
 6f8:	0100                	addi	s0,sp,128
 6fa:	0c05                	addi	s8,s8,1
 6fc:	04090003          	lb	zero,64(s2)
 700:	0100                	addi	s0,sp,128
 702:	0705                	addi	a4,a4,1
 704:	0306                	slli	t1,t1,0x1
 706:	0901                	addi	s2,s2,0
 708:	0004                	.2byte	0x4
 70a:	0501                	addi	a0,a0,0
 70c:	0609                	addi	a2,a2,2
 70e:	00090003          	lb	zero,0(s2)
 712:	0100                	addi	s0,sp,128
 714:	0c05                	addi	s8,s8,1
 716:	0306                	slli	t1,t1,0x1
 718:	0979                	addi	s2,s2,30
 71a:	0004                	.2byte	0x4
 71c:	0501                	addi	a0,a0,0
 71e:	09110303          	lb	t1,145(sp)
 722:	0004                	.2byte	0x4
 724:	0501                	addi	a0,a0,0
 726:	0606                	slli	a2,a2,0x1
 728:	00090003          	lb	zero,0(s2)
 72c:	0100                	addi	s0,sp,128
 72e:	0505                	addi	a0,a0,1
 730:	0306                	slli	t1,t1,0x1
 732:	0901                	addi	s2,s2,0
 734:	0002                	c.slli64	zero
 736:	0501                	addi	a0,a0,0
 738:	00030607          	.4byte	0x30607
 73c:	0009                	c.nop	2
 73e:	0100                	addi	s0,sp,128
 740:	1705                	addi	a4,a4,-31
 742:	02090003          	lb	zero,32(s2)
 746:	0100                	addi	s0,sp,128
 748:	0f05                	addi	t5,t5,1
 74a:	04090003          	lb	zero,64(s2)
 74e:	0100                	addi	s0,sp,128
 750:	0305                	addi	t1,t1,1 # 900067b <tohost+0x8fe0673>
 752:	097fa703          	lw	a4,151(t6)
 756:	0002                	c.slli64	zero
 758:	0501                	addi	a0,a0,0
 75a:	db030607          	.4byte	0xdb030607
 75e:	0900                	addi	s0,sp,144
 760:	0008                	.2byte	0x8
 762:	0501                	addi	a0,a0,0
 764:	7fab0303          	lb	t1,2042(s6)
 768:	0009                	c.nop	2
 76a:	0100                	addi	s0,sp,128
 76c:	0505                	addi	a0,a0,1
 76e:	00090603          	lb	a2,0(s2)
 772:	0100                	addi	s0,sp,128
 774:	0305                	addi	t1,t1,1
 776:	00097403          	.4byte	0x97403
 77a:	0100                	addi	s0,sp,128
 77c:	02090103          	lb	sp,32(s2)
 780:	0100                	addi	s0,sp,128
 782:	0705                	addi	a4,a4,1
 784:	0900db03          	lhu	s6,144(ra)
 788:	0000                	unimp
 78a:	0301                	addi	t1,t1,0
 78c:	0901                	addi	s2,s2,0
 78e:	0000                	unimp
 790:	0501                	addi	a0,a0,0
 792:	09070303          	lb	t1,144(a4)
 796:	0006                	c.slli	zero,0x1
 798:	0501                	addi	a0,a0,0
 79a:	0003060f          	.4byte	0x3060f
 79e:	0009                	c.nop	2
 7a0:	0100                	addi	s0,sp,128
 7a2:	0d05                	addi	s10,s10,1
 7a4:	04090003          	lb	zero,64(s2)
 7a8:	0100                	addi	s0,sp,128
 7aa:	0705                	addi	a4,a4,1
 7ac:	0306                	slli	t1,t1,0x1
 7ae:	097d                	addi	s2,s2,31
 7b0:	0004                	.2byte	0x4
 7b2:	0501                	addi	a0,a0,0
 7b4:	060c                	addi	a1,sp,768
 7b6:	00090003          	lb	zero,0(s2)
 7ba:	0100                	addi	s0,sp,128
 7bc:	1905                	addi	s2,s2,-31
 7be:	08095003          	lhu	zero,128(s2)
 7c2:	0100                	addi	s0,sp,128
 7c4:	0c05                	addi	s8,s8,1
 7c6:	02093003          	.4byte	0x2093003
 7ca:	0100                	addi	s0,sp,128
 7cc:	1e05                	addi	t3,t3,-31
 7ce:	0306                	slli	t1,t1,0x1
 7d0:	7ee8                	.2byte	0x7ee8
 7d2:	0409                	addi	s0,s0,2
 7d4:	0100                	addi	s0,sp,128
 7d6:	0305                	addi	t1,t1,1
 7d8:	00090203          	lb	tp,0(s2)
 7dc:	0100                	addi	s0,sp,128
 7de:	0b05                	addi	s6,s6,1
 7e0:	0306                	slli	t1,t1,0x1
 7e2:	0900                	addi	s0,sp,144
 7e4:	0000                	unimp
 7e6:	0501                	addi	a0,a0,0
 7e8:	0402003b          	.4byte	0x402003b
 7ec:	0601                	addi	a2,a2,0
 7ee:	04090003          	lb	zero,64(s2)
 7f2:	0100                	addi	s0,sp,128
 7f4:	0b05                	addi	s6,s6,1
 7f6:	0200                	addi	s0,sp,256
 7f8:	0104                	addi	s1,sp,128
 7fa:	0306                	slli	t1,t1,0x1
 7fc:	0900                	addi	s0,sp,144
 7fe:	0000                	unimp
 800:	0501                	addi	a0,a0,0
 802:	04020033          	.4byte	0x4020033
 806:	0301                	addi	t1,t1,0
 808:	0900                	addi	s0,sp,144
 80a:	0002                	c.slli64	zero
 80c:	0501                	addi	a0,a0,0
 80e:	0402003b          	.4byte	0x402003b
 812:	0301                	addi	t1,t1,0
 814:	0900                	addi	s0,sp,144
 816:	0004                	.2byte	0x4
 818:	0501                	addi	a0,a0,0
 81a:	0301                	addi	t1,t1,0
 81c:	0901                	addi	s2,s2,0
 81e:	0002                	c.slli64	zero
 820:	0601                	addi	a2,a2,0
 822:	02093303          	.4byte	0x2093303
 826:	0100                	addi	s0,sp,128
 828:	0305                	addi	t1,t1,1
 82a:	00090103          	lb	sp,0(s2)
 82e:	0100                	addi	s0,sp,128
 830:	0105                	addi	sp,sp,1
 832:	0306                	slli	t1,t1,0x1
 834:	097f                	.2byte	0x97f
 836:	0000                	unimp
 838:	0501                	addi	a0,a0,0
 83a:	09010303          	lb	t1,144(sp)
 83e:	0006                	c.slli	zero,0x1
 840:	0501                	addi	a0,a0,0
 842:	0301                	addi	t1,t1,0
 844:	097f                	.2byte	0x97f
 846:	0004                	.2byte	0x4
 848:	0501                	addi	a0,a0,0
 84a:	09010303          	lb	t1,144(sp)
 84e:	0002                	c.slli64	zero
 850:	0601                	addi	a2,a2,0
 852:	02090103          	lb	sp,32(s2)
 856:	0100                	addi	s0,sp,128
 858:	0105                	addi	sp,sp,1
 85a:	0306                	slli	t1,t1,0x1
 85c:	0901                	addi	s2,s2,0
 85e:	0000                	unimp
 860:	0601                	addi	a2,a2,0
 862:	0901aa03          	lw	s4,144(gp)
 866:	000a                	c.slli	zero,0x2
 868:	0501                	addi	a0,a0,0
 86a:	09010303          	lb	t1,144(sp)
 86e:	0000                	unimp
 870:	0301                	addi	t1,t1,0
 872:	0901                	addi	s2,s2,0
 874:	0000                	unimp
 876:	0301                	addi	t1,t1,0
 878:	0902                	c.slli64	s2
 87a:	0000                	unimp
 87c:	0501                	addi	a0,a0,0
 87e:	0601                	addi	a2,a2,0
 880:	00097c03          	.4byte	0x97c03
 884:	0100                	addi	s0,sp,128
 886:	0305                	addi	t1,t1,1
 888:	04090403          	lb	s0,64(s2)
 88c:	0100                	addi	s0,sp,128
 88e:	0105                	addi	sp,sp,1
 890:	02097c03          	.4byte	0x2097c03
 894:	0100                	addi	s0,sp,128
 896:	12090003          	lb	zero,288(s2)
 89a:	0100                	addi	s0,sp,128
 89c:	0305                	addi	t1,t1,1
 89e:	10090403          	lb	s0,256(s2)
 8a2:	0100                	addi	s0,sp,128
 8a4:	0306                	slli	t1,t1,0x1
 8a6:	0902                	c.slli64	s2
 8a8:	0002                	c.slli64	zero
 8aa:	0501                	addi	a0,a0,0
 8ac:	0610                	addi	a2,sp,768
 8ae:	097fb803          	.4byte	0x97fb803
 8b2:	0000                	unimp
 8b4:	0501                	addi	a0,a0,0
 8b6:	0308                	addi	a0,sp,384
 8b8:	0905                	addi	s2,s2,1
 8ba:	0002                	c.slli64	zero
 8bc:	0501                	addi	a0,a0,0
 8be:	030a                	slli	t1,t1,0x2
 8c0:	0906                	slli	s2,s2,0x1
 8c2:	0004                	.2byte	0x4
 8c4:	0501                	addi	a0,a0,0
 8c6:	0316                	slli	t1,t1,0x5
 8c8:	0905                	addi	s2,s2,1
 8ca:	0004                	.2byte	0x4
 8cc:	0501                	addi	a0,a0,0
 8ce:	0906030f          	.4byte	0x906030f
 8d2:	0004                	.2byte	0x4
 8d4:	0301                	addi	t1,t1,0
 8d6:	0905                	addi	s2,s2,1
 8d8:	0002                	c.slli64	zero
 8da:	0501                	addi	a0,a0,0
 8dc:	0612                	slli	a2,a2,0x4
 8de:	08096803          	.4byte	0x8096803
 8e2:	0100                	addi	s0,sp,128
 8e4:	0a05                	addi	s4,s4,1
 8e6:	0306                	slli	t1,t1,0x1
 8e8:	0900                	addi	s0,sp,144
 8ea:	0000                	unimp
 8ec:	0501                	addi	a0,a0,0
 8ee:	0312                	slli	t1,t1,0x4
 8f0:	0900                	addi	s0,sp,144
 8f2:	0004                	.2byte	0x4
 8f4:	0501                	addi	a0,a0,0
 8f6:	0301                	addi	t1,t1,0
 8f8:	020900cb          	.4byte	0x20900cb
 8fc:	0100                	addi	s0,sp,128
 8fe:	0505                	addi	a0,a0,1
 900:	0306                	slli	t1,t1,0x1
 902:	1a097fb7          	lui	t6,0x1a097
 906:	0100                	addi	s0,sp,128
 908:	0805                	addi	a6,a6,1
 90a:	0306                	slli	t1,t1,0x1
 90c:	0900                	addi	s0,sp,144
 90e:	0000                	unimp
 910:	0501                	addi	a0,a0,0
 912:	02030607          	.4byte	0x2030607
 916:	0409                	addi	s0,s0,2
 918:	0100                	addi	s0,sp,128
 91a:	00090103          	lb	sp,0(s2)
 91e:	0100                	addi	s0,sp,128
 920:	00090103          	lb	sp,0(s2)
 924:	0100                	addi	s0,sp,128
 926:	0b05                	addi	s6,s6,1
 928:	0306                	slli	t1,t1,0x1
 92a:	0900                	addi	s0,sp,144
 92c:	0000                	unimp
 92e:	0501                	addi	a0,a0,0
 930:	030a                	slli	t1,t1,0x2
 932:	0900                	addi	s0,sp,144
 934:	0004                	.2byte	0x4
 936:	0501                	addi	a0,a0,0
 938:	097e0307          	.4byte	0x97e0307
 93c:	0002                	c.slli64	zero
 93e:	0601                	addi	a2,a2,0
 940:	04090303          	lb	t1,64(s2)
 944:	0100                	addi	s0,sp,128
 946:	0a05                	addi	s4,s4,1
 948:	0306                	slli	t1,t1,0x1
 94a:	0900                	addi	s0,sp,144
 94c:	0000                	unimp
 94e:	0501                	addi	a0,a0,0
 950:	01030607          	.4byte	0x1030607
 954:	0409                	addi	s0,s0,2
 956:	0100                	addi	s0,sp,128
 958:	1305                	addi	t1,t1,-31
 95a:	0306                	slli	t1,t1,0x1
 95c:	097d                	addi	s2,s2,31
 95e:	0000                	unimp
 960:	0501                	addi	a0,a0,0
 962:	030a                	slli	t1,t1,0x2
 964:	00020903          	lb	s2,0(tp) # 0 <_min_stack-0x2000>
 968:	0501                	addi	a0,a0,0
 96a:	0609                	addi	a2,a2,2
 96c:	04090203          	lb	tp,64(s2)
 970:	0100                	addi	s0,sp,128
 972:	04090103          	lb	sp,64(s2)
 976:	0100                	addi	s0,sp,128
 978:	0d05                	addi	s10,s10,1
 97a:	0306                	slli	t1,t1,0x1
 97c:	0900                	addi	s0,sp,144
 97e:	0000                	unimp
 980:	0501                	addi	a0,a0,0
 982:	0616                	slli	a2,a2,0x5
 984:	04090203          	lb	tp,64(s2)
 988:	0100                	addi	s0,sp,128
 98a:	0905                	addi	s2,s2,1
 98c:	0306                	slli	t1,t1,0x1
 98e:	0902                	c.slli64	s2
 990:	0004                	.2byte	0x4
 992:	0501                	addi	a0,a0,0
 994:	0316                	slli	t1,t1,0x5
 996:	097e                	slli	s2,s2,0x1f
 998:	0004                	.2byte	0x4
 99a:	0501                	addi	a0,a0,0
 99c:	030d                	addi	t1,t1,3
 99e:	0978                	addi	a4,sp,156
 9a0:	0004                	.2byte	0x4
 9a2:	0501                	addi	a0,a0,0
 9a4:	031e                	slli	t1,t1,0x7
 9a6:	090d                	addi	s2,s2,3
 9a8:	0002                	c.slli64	zero
 9aa:	0601                	addi	a2,a2,0
 9ac:	02090003          	lb	zero,32(s2)
 9b0:	0100                	addi	s0,sp,128
 9b2:	0f05                	addi	t5,t5,1
 9b4:	0306                	slli	t1,t1,0x1
 9b6:	0900                	addi	s0,sp,144
 9b8:	0000                	unimp
 9ba:	0501                	addi	a0,a0,0
 9bc:	0331                	addi	t1,t1,12
 9be:	0900                	addi	s0,sp,144
 9c0:	0004                	.2byte	0x4
 9c2:	0501                	addi	a0,a0,0
 9c4:	031e                	slli	t1,t1,0x7
 9c6:	0900                	addi	s0,sp,144
 9c8:	0004                	.2byte	0x4
 9ca:	0501                	addi	a0,a0,0
 9cc:	04030607          	.4byte	0x4030607
 9d0:	0c09                	addi	s8,s8,2
 9d2:	0100                	addi	s0,sp,128
 9d4:	0905                	addi	s2,s2,1
 9d6:	0306                	slli	t1,t1,0x1
 9d8:	0900                	addi	s0,sp,144
 9da:	0000                	unimp
 9dc:	0601                	addi	a2,a2,0
 9de:	08090103          	lb	sp,128(s2)
 9e2:	0100                	addi	s0,sp,128
 9e4:	1805                	addi	a6,a6,-31
 9e6:	0306                	slli	t1,t1,0x1
 9e8:	0900                	addi	s0,sp,144
 9ea:	0000                	unimp
 9ec:	0501                	addi	a0,a0,0
 9ee:	0609                	addi	a2,a2,2
 9f0:	06090103          	lb	sp,96(s2)
 9f4:	0100                	addi	s0,sp,128
 9f6:	0f05                	addi	t5,t5,1
 9f8:	0306                	slli	t1,t1,0x1
 9fa:	0900                	addi	s0,sp,144
 9fc:	0000                	unimp
 9fe:	0301                	addi	t1,t1,0
 a00:	0916                	slli	s2,s2,0x5
 a02:	0008                	.2byte	0x8
 a04:	0501                	addi	a0,a0,0
 a06:	0609                	addi	a2,a2,2
 a08:	04096103          	.4byte	0x4096103
 a0c:	0100                	addi	s0,sp,128
 a0e:	00090103          	lb	sp,0(s2)
 a12:	0100                	addi	s0,sp,128
 a14:	0d05                	addi	s10,s10,1
 a16:	0306                	slli	t1,t1,0x1
 a18:	0900                	addi	s0,sp,144
 a1a:	0000                	unimp
 a1c:	0501                	addi	a0,a0,0
 a1e:	0309                	addi	t1,t1,2
 a20:	097f                	.2byte	0x97f
 a22:	0004                	.2byte	0x4
 a24:	0601                	addi	a2,a2,0
 a26:	04090403          	lb	s0,64(s2)
 a2a:	0100                	addi	s0,sp,128
 a2c:	0f05                	addi	t5,t5,1
 a2e:	0306                	slli	t1,t1,0x1
 a30:	0900                	addi	s0,sp,144
 a32:	0000                	unimp
 a34:	0501                	addi	a0,a0,0
 a36:	0609                	addi	a2,a2,2
 a38:	04090103          	lb	sp,64(s2)
 a3c:	0100                	addi	s0,sp,128
 a3e:	3105                	jal	65e <_min_stack-0x19a2>
 a40:	0306                	slli	t1,t1,0x1
 a42:	097e                	slli	s2,s2,0x1f
 a44:	0000                	unimp
 a46:	0501                	addi	a0,a0,0
 a48:	0902030f          	.4byte	0x902030f
 a4c:	0002                	c.slli64	zero
 a4e:	0501                	addi	a0,a0,0
 a50:	0631                	addi	a2,a2,12
 a52:	02097e03          	.4byte	0x2097e03
 a56:	0100                	addi	s0,sp,128
 a58:	0705                	addi	a4,a4,1
 a5a:	02090903          	lb	s2,32(s2)
 a5e:	0100                	addi	s0,sp,128
 a60:	0905                	addi	s2,s2,1
 a62:	0306                	slli	t1,t1,0x1
 a64:	0900                	addi	s0,sp,144
 a66:	0000                	unimp
 a68:	0601                	addi	a2,a2,0
 a6a:	08090103          	lb	sp,128(s2)
 a6e:	0100                	addi	s0,sp,128
 a70:	0f05                	addi	t5,t5,1
 a72:	0306                	slli	t1,t1,0x1
 a74:	0900                	addi	s0,sp,144
 a76:	0000                	unimp
 a78:	0501                	addi	a0,a0,0
 a7a:	030c                	addi	a1,sp,384
 a7c:	0900                	addi	s0,sp,144
 a7e:	0010                	.2byte	0x10
 a80:	0501                	addi	a0,a0,0
 a82:	0609                	addi	a2,a2,2
 a84:	02090103          	lb	sp,32(s2)
 a88:	0100                	addi	s0,sp,128
 a8a:	0f05                	addi	t5,t5,1
 a8c:	0306                	slli	t1,t1,0x1
 a8e:	097f                	.2byte	0x97f
 a90:	0000                	unimp
 a92:	0501                	addi	a0,a0,0
 a94:	0618                	addi	a4,sp,768
 a96:	02096403          	.4byte	0x2096403
 a9a:	0100                	addi	s0,sp,128
 a9c:	0705                	addi	a4,a4,1
 a9e:	04091f03          	lh	t5,64(s2)
 aa2:	0100                	addi	s0,sp,128
 aa4:	0905                	addi	s2,s2,1
 aa6:	0306                	slli	t1,t1,0x1
 aa8:	0900                	addi	s0,sp,144
 aaa:	0000                	unimp
 aac:	0601                	addi	a2,a2,0
 aae:	08090103          	lb	sp,128(s2)
 ab2:	0100                	addi	s0,sp,128
 ab4:	1d05                	addi	s10,s10,-31
 ab6:	0306                	slli	t1,t1,0x1
 ab8:	0900                	addi	s0,sp,144
 aba:	0000                	unimp
 abc:	0501                	addi	a0,a0,0
 abe:	0900030f          	.4byte	0x900030f
 ac2:	0004                	.2byte	0x4
 ac4:	0501                	addi	a0,a0,0
 ac6:	03030607          	.4byte	0x3030607
 aca:	0809                	addi	a6,a6,2
 acc:	0100                	addi	s0,sp,128
 ace:	0905                	addi	s2,s2,1
 ad0:	0306                	slli	t1,t1,0x1
 ad2:	0900                	addi	s0,sp,144
 ad4:	0000                	unimp
 ad6:	0601                	addi	a2,a2,0
 ad8:	08090103          	lb	sp,128(s2)
 adc:	0100                	addi	s0,sp,128
 ade:	1d05                	addi	s10,s10,-31
 ae0:	0306                	slli	t1,t1,0x1
 ae2:	0900                	addi	s0,sp,144
 ae4:	0000                	unimp
 ae6:	0501                	addi	a0,a0,0
 ae8:	0900030f          	.4byte	0x900030f
 aec:	0004                	.2byte	0x4
 aee:	0301                	addi	t1,t1,0
 af0:	0904                	addi	s1,sp,144
 af2:	0004                	.2byte	0x4
 af4:	0501                	addi	a0,a0,0
 af6:	7f030607          	.4byte	0x7f030607
 afa:	0609                	addi	a2,a2,2
 afc:	0100                	addi	s0,sp,128
 afe:	0905                	addi	s2,s2,1
 b00:	0306                	slli	t1,t1,0x1
 b02:	0900                	addi	s0,sp,144
 b04:	0000                	unimp
 b06:	0601                	addi	a2,a2,0
 b08:	08090103          	lb	sp,128(s2)
 b0c:	0100                	addi	s0,sp,128
 b0e:	1d05                	addi	s10,s10,-31
 b10:	0306                	slli	t1,t1,0x1
 b12:	0900                	addi	s0,sp,144
 b14:	0000                	unimp
 b16:	0501                	addi	a0,a0,0
 b18:	0900030f          	.4byte	0x900030f
 b1c:	0004                	.2byte	0x4
 b1e:	0501                	addi	a0,a0,0
 b20:	03030607          	.4byte	0x3030607
 b24:	0609                	addi	a2,a2,2
 b26:	0100                	addi	s0,sp,128
 b28:	0905                	addi	s2,s2,1
 b2a:	0306                	slli	t1,t1,0x1
 b2c:	0900                	addi	s0,sp,144
 b2e:	0000                	unimp
 b30:	0601                	addi	a2,a2,0
 b32:	08090103          	lb	sp,128(s2)
 b36:	0100                	addi	s0,sp,128
 b38:	1005                	c.nop	-31
 b3a:	0306                	slli	t1,t1,0x1
 b3c:	0900                	addi	s0,sp,144
 b3e:	0000                	unimp
 b40:	0501                	addi	a0,a0,0
 b42:	0312                	slli	t1,t1,0x4
 b44:	0900                	addi	s0,sp,144
 b46:	0002                	c.slli64	zero
 b48:	0501                	addi	a0,a0,0
 b4a:	0310                	addi	a2,sp,384
 b4c:	0901                	addi	s2,s2,0
 b4e:	0004                	.2byte	0x4
 b50:	0301                	addi	t1,t1,0
 b52:	097f                	.2byte	0x97f
 b54:	0004                	.2byte	0x4
 b56:	0501                	addi	a0,a0,0
 b58:	0609                	addi	a2,a2,2
 b5a:	04090103          	lb	sp,64(s2)
 b5e:	0100                	addi	s0,sp,128
 b60:	00090103          	lb	sp,0(s2)
 b64:	0100                	addi	s0,sp,128
 b66:	0f05                	addi	t5,t5,1
 b68:	0306                	slli	t1,t1,0x1
 b6a:	0900                	addi	s0,sp,144
 b6c:	0000                	unimp
 b6e:	0501                	addi	a0,a0,0
 b70:	09560307          	.4byte	0x9560307
 b74:	0008                	.2byte	0x8
 b76:	0601                	addi	a2,a2,0
 b78:	02093103          	.4byte	0x2093103
 b7c:	0100                	addi	s0,sp,128
 b7e:	0305                	addi	t1,t1,1
 b80:	097ee403          	.4byte	0x97ee403
 b84:	0000                	unimp
 b86:	0501                	addi	a0,a0,0
 b88:	0305                	addi	t1,t1,1
 b8a:	0906                	slli	s2,s2,0x1
 b8c:	0000                	unimp
 b8e:	0501                	addi	a0,a0,0
 b90:	09740303          	lb	t1,151(s0)
 b94:	0000                	unimp
 b96:	0501                	addi	a0,a0,0
 b98:	a3030607          	.4byte	0xa3030607
 b9c:	0901                	addi	s2,s2,0
 b9e:	0004                	.2byte	0x4
 ba0:	0501                	addi	a0,a0,0
 ba2:	7edd0303          	lb	t1,2029(s10)
 ba6:	0209                	addi	tp,tp,2 # 2 <_min_stack-0x1ffe>
 ba8:	0100                	addi	s0,sp,128
 baa:	0306                	slli	t1,t1,0x1
 bac:	0901                	addi	s2,s2,0
 bae:	0002                	c.slli64	zero
 bb0:	0501                	addi	a0,a0,0
 bb2:	01a20307          	.4byte	0x1a20307
 bb6:	0009                	c.nop	2
 bb8:	0100                	addi	s0,sp,128
 bba:	1f05                	addi	t5,t5,-31
 bbc:	097dec03          	.4byte	0x97dec03
 bc0:	0002                	c.slli64	zero
 bc2:	0501                	addi	a0,a0,0
 bc4:	09010303          	lb	t1,144(sp)
 bc8:	0000                	unimp
 bca:	0501                	addi	a0,a0,0
 bcc:	0301                	addi	t1,t1,0
 bce:	0a0902ab          	.4byte	0xa0902ab
 bd2:	0100                	addi	s0,sp,128
 bd4:	0305                	addi	t1,t1,1
 bd6:	00090103          	lb	sp,0(s2)
 bda:	0100                	addi	s0,sp,128
 bdc:	00090203          	lb	tp,0(s2)
 be0:	0100                	addi	s0,sp,128
 be2:	0105                	addi	sp,sp,1
 be4:	0306                	slli	t1,t1,0x1
 be6:	097d                	addi	s2,s2,31
 be8:	0000                	unimp
 bea:	0301                	addi	t1,t1,0
 bec:	0900                	addi	s0,sp,144
 bee:	0008                	.2byte	0x8
 bf0:	0501                	addi	a0,a0,0
 bf2:	09010307          	.4byte	0x9010307
 bf6:	0002                	c.slli64	zero
 bf8:	0501                	addi	a0,a0,0
 bfa:	060e                	slli	a2,a2,0x3
 bfc:	02090203          	lb	tp,32(s2)
 c00:	0100                	addi	s0,sp,128
 c02:	0a05                	addi	s4,s4,1
 c04:	0306                	slli	t1,t1,0x1
 c06:	0900                	addi	s0,sp,144
 c08:	0000                	unimp
 c0a:	0501                	addi	a0,a0,0
 c0c:	030e                	slli	t1,t1,0x3
 c0e:	0900                	addi	s0,sp,144
 c10:	0008                	.2byte	0x8
 c12:	0501                	addi	a0,a0,0
 c14:	03030603          	lb	a2,48(t1)
 c18:	0209                	addi	tp,tp,2 # 2 <_min_stack-0x1ffe>
 c1a:	0100                	addi	s0,sp,128
 c1c:	097ebf03          	.4byte	0x97ebf03
 c20:	0000                	unimp
 c22:	0301                	addi	t1,t1,0
 c24:	0901                	addi	s2,s2,0
 c26:	0004                	.2byte	0x4
 c28:	0301                	addi	t1,t1,0
 c2a:	01c2                	slli	gp,gp,0x10
 c2c:	0009                	c.nop	2
 c2e:	0100                	addi	s0,sp,128
 c30:	0105                	addi	sp,sp,1
 c32:	0306                	slli	t1,t1,0x1
 c34:	0901                	addi	s2,s2,0
 c36:	0000                	unimp
 c38:	0501                	addi	a0,a0,0
 c3a:	0605                	addi	a2,a2,1
 c3c:	0c097b03          	.4byte	0xc097b03
 c40:	0100                	addi	s0,sp,128
 c42:	1005                	c.nop	-31
 c44:	0306                	slli	t1,t1,0x1
 c46:	0900                	addi	s0,sp,144
 c48:	0000                	unimp
 c4a:	0501                	addi	a0,a0,0
 c4c:	c1030603          	lb	a2,-1008(t1)
 c50:	097e                	slli	s2,s2,0x1f
 c52:	0002                	c.slli64	zero
 c54:	0301                	addi	t1,t1,0
 c56:	0901                	addi	s2,s2,0
 c58:	0002                	c.slli64	zero
 c5a:	0501                	addi	a0,a0,0
 c5c:	060a                	slli	a2,a2,0x2
 c5e:	00090003          	lb	zero,0(s2)
 c62:	0100                	addi	s0,sp,128
 c64:	0209                	addi	tp,tp,2 # 2 <_min_stack-0x1ffe>
 c66:	0000                	unimp
 c68:	0101                	addi	sp,sp,0
 c6a:	01f1                	addi	gp,gp,28
 c6c:	0000                	unimp
 c6e:	0005                	c.nop	1
 c70:	0004                	.2byte	0x4
 c72:	002a                	c.slli	zero,0xa
 c74:	0000                	unimp
 c76:	0101                	addi	sp,sp,0
 c78:	fb01                	bnez	a4,b88 <_min_stack-0x1478>
 c7a:	0d0e                	slli	s10,s10,0x3
 c7c:	0100                	addi	s0,sp,128
 c7e:	0101                	addi	sp,sp,0
 c80:	0001                	nop
 c82:	0000                	unimp
 c84:	0001                	nop
 c86:	0100                	addi	s0,sp,128
 c88:	0101                	addi	sp,sp,0
 c8a:	011f 0071 0000      	.byte	0x1f, 0x01, 0x71, 0x00, 0x00, 0x00
 c90:	0102                	c.slli64	sp
 c92:	021f 020f 01b2      	.byte	0x1f, 0x02, 0x0f, 0x02, 0xb2, 0x01
 c98:	0000                	unimp
 c9a:	b200                	.2byte	0xb200
 c9c:	0001                	nop
 c9e:	0000                	unimp
 ca0:	0c05                	addi	s8,s8,1
 ca2:	0500                	addi	s0,sp,640
 ca4:	de02                	sw	zero,60(sp)
 ca6:	0004                	.2byte	0x4
 ca8:	03e0                	addi	s0,sp,460
 caa:	0111                	addi	sp,sp,4
 cac:	0305                	addi	t1,t1,1
 cae:	00090203          	lb	tp,0(s2)
 cb2:	0100                	addi	s0,sp,128
 cb4:	00090103          	lb	sp,0(s2)
 cb8:	0100                	addi	s0,sp,128
 cba:	00090103          	lb	sp,0(s2)
 cbe:	0100                	addi	s0,sp,128
 cc0:	00090103          	lb	sp,0(s2)
 cc4:	0100                	addi	s0,sp,128
 cc6:	0705                	addi	a4,a4,1
 cc8:	00090003          	lb	zero,0(s2)
 ccc:	0100                	addi	s0,sp,128
 cce:	1305                	addi	t1,t1,-31
 cd0:	00090003          	lb	zero,0(s2)
 cd4:	0100                	addi	s0,sp,128
 cd6:	0b05                	addi	s6,s6,1
 cd8:	0306                	slli	t1,t1,0x1
 cda:	0900                	addi	s0,sp,144
 cdc:	0000                	unimp
 cde:	0501                	addi	a0,a0,0
 ce0:	09000313          	li	t1,144
 ce4:	0006                	c.slli	zero,0x1
 ce6:	0501                	addi	a0,a0,0
 ce8:	0005                	c.nop	1
 cea:	0402                	c.slli64	s0
 cec:	01030603          	lb	a2,16(t1)
 cf0:	0409                	addi	s0,s0,2
 cf2:	0100                	addi	s0,sp,128
 cf4:	0200                	addi	s0,sp,256
 cf6:	0304                	addi	s1,sp,384
 cf8:	06090103          	lb	sp,96(s2)
 cfc:	0100                	addi	s0,sp,128
 cfe:	0a05                	addi	s4,s4,1
 d00:	0200                	addi	s0,sp,256
 d02:	0304                	addi	s1,sp,384
 d04:	0306                	slli	t1,t1,0x1
 d06:	0900                	addi	s0,sp,144
 d08:	0000                	unimp
 d0a:	0501                	addi	a0,a0,0
 d0c:	001a                	c.slli	zero,0x6
 d0e:	0402                	c.slli64	s0
 d10:	7e030603          	lb	a2,2016(t1)
 d14:	0209                	addi	tp,tp,2 # 2 <_min_stack-0x1ffe>
 d16:	0100                	addi	s0,sp,128
 d18:	1305                	addi	t1,t1,-31
 d1a:	0200                	addi	s0,sp,256
 d1c:	0304                	addi	s1,sp,384
 d1e:	02090003          	lb	zero,32(s2)
 d22:	0100                	addi	s0,sp,128
 d24:	0305                	addi	t1,t1,1
 d26:	04090403          	lb	s0,64(s2)
 d2a:	0100                	addi	s0,sp,128
 d2c:	00090103          	lb	sp,0(s2)
 d30:	0100                	addi	s0,sp,128
 d32:	0805                	addi	a6,a6,1
 d34:	0306                	slli	t1,t1,0x1
 d36:	0900                	addi	s0,sp,144
 d38:	0000                	unimp
 d3a:	0501                	addi	a0,a0,0
 d3c:	01030603          	lb	a2,16(t1)
 d40:	0609                	addi	a2,a2,2
 d42:	0100                	addi	s0,sp,128
 d44:	00090103          	lb	sp,0(s2)
 d48:	0100                	addi	s0,sp,128
 d4a:	0805                	addi	a6,a6,1
 d4c:	0306                	slli	t1,t1,0x1
 d4e:	0900                	addi	s0,sp,144
 d50:	0000                	unimp
 d52:	0501                	addi	a0,a0,0
 d54:	01030603          	lb	a2,16(t1)
 d58:	0609                	addi	a2,a2,2
 d5a:	0100                	addi	s0,sp,128
 d5c:	00090103          	lb	sp,0(s2)
 d60:	0100                	addi	s0,sp,128
 d62:	0805                	addi	a6,a6,1
 d64:	0306                	slli	t1,t1,0x1
 d66:	0900                	addi	s0,sp,144
 d68:	0000                	unimp
 d6a:	0501                	addi	a0,a0,0
 d6c:	01030603          	lb	a2,16(t1)
 d70:	0609                	addi	a2,a2,2
 d72:	0100                	addi	s0,sp,128
 d74:	00090103          	lb	sp,0(s2)
 d78:	0100                	addi	s0,sp,128
 d7a:	0805                	addi	a6,a6,1
 d7c:	0306                	slli	t1,t1,0x1
 d7e:	0900                	addi	s0,sp,144
 d80:	0000                	unimp
 d82:	0501                	addi	a0,a0,0
 d84:	01030603          	lb	a2,16(t1)
 d88:	0209                	addi	tp,tp,2 # 2 <_min_stack-0x1ffe>
 d8a:	0100                	addi	s0,sp,128
 d8c:	0705                	addi	a4,a4,1
 d8e:	00090003          	lb	zero,0(s2)
 d92:	0100                	addi	s0,sp,128
 d94:	1305                	addi	t1,t1,-31
 d96:	00090003          	lb	zero,0(s2)
 d9a:	0100                	addi	s0,sp,128
 d9c:	0705                	addi	a4,a4,1
 d9e:	0306                	slli	t1,t1,0x1
 da0:	00000973          	.4byte	0x973
 da4:	0501                	addi	a0,a0,0
 da6:	090d030b          	.4byte	0x90d030b
 daa:	0002                	c.slli64	zero
 dac:	0501                	addi	a0,a0,0
 dae:	09000313          	li	t1,144
 db2:	0006                	c.slli	zero,0x1
 db4:	0501                	addi	a0,a0,0
 db6:	0605                	addi	a2,a2,1
 db8:	04090103          	lb	sp,64(s2)
 dbc:	0100                	addi	s0,sp,128
 dbe:	06090103          	lb	sp,96(s2)
 dc2:	0100                	addi	s0,sp,128
 dc4:	0705                	addi	a4,a4,1
 dc6:	0306                	slli	t1,t1,0x1
 dc8:	0900                	addi	s0,sp,144
 dca:	0000                	unimp
 dcc:	0501                	addi	a0,a0,0
 dce:	0605                	addi	a2,a2,1
 dd0:	02090103          	lb	sp,32(s2)
 dd4:	0100                	addi	s0,sp,128
 dd6:	0705                	addi	a4,a4,1
 dd8:	0306                	slli	t1,t1,0x1
 dda:	0900                	addi	s0,sp,144
 ddc:	0000                	unimp
 dde:	0601                	addi	a2,a2,0
 de0:	04090103          	lb	sp,64(s2)
 de4:	0100                	addi	s0,sp,128
 de6:	0a05                	addi	s4,s4,1
 de8:	0306                	slli	t1,t1,0x1
 dea:	0900                	addi	s0,sp,144
 dec:	0000                	unimp
 dee:	0501                	addi	a0,a0,0
 df0:	001a                	c.slli	zero,0x6
 df2:	0402                	c.slli64	s0
 df4:	0602                	c.slli64	a2
 df6:	02097c03          	.4byte	0x2097c03
 dfa:	0100                	addi	s0,sp,128
 dfc:	1305                	addi	t1,t1,-31
 dfe:	0200                	addi	s0,sp,256
 e00:	0204                	addi	s1,sp,256
 e02:	02090003          	lb	zero,32(s2)
 e06:	0100                	addi	s0,sp,128
 e08:	0305                	addi	t1,t1,1
 e0a:	04090603          	lb	a2,64(s2)
 e0e:	0100                	addi	s0,sp,128
 e10:	0505                	addi	a0,a0,1
 e12:	0306                	slli	t1,t1,0x1
 e14:	0900                	addi	s0,sp,144
 e16:	0000                	unimp
 e18:	0601                	addi	a2,a2,0
 e1a:	02090103          	lb	sp,32(s2)
 e1e:	0100                	addi	s0,sp,128
 e20:	00090103          	lb	sp,0(s2)
 e24:	0100                	addi	s0,sp,128
 e26:	0a05                	addi	s4,s4,1
 e28:	0306                	slli	t1,t1,0x1
 e2a:	0900                	addi	s0,sp,144
 e2c:	0000                	unimp
 e2e:	0501                	addi	a0,a0,0
 e30:	0005                	c.nop	1
 e32:	0402                	c.slli64	s0
 e34:	0601                	addi	a2,a2,0
 e36:	08090103          	lb	sp,128(s2)
 e3a:	0100                	addi	s0,sp,128
 e3c:	0a05                	addi	s4,s4,1
 e3e:	0200                	addi	s0,sp,256
 e40:	0104                	addi	s1,sp,128
 e42:	00090003          	lb	zero,0(s2)
 e46:	0100                	addi	s0,sp,128
 e48:	0505                	addi	a0,a0,1
 e4a:	02090303          	lb	t1,32(s2)
 e4e:	0100                	addi	s0,sp,128
 e50:	0105                	addi	sp,sp,1
 e52:	0306                	slli	t1,t1,0x1
 e54:	0901                	addi	s2,s2,0
 e56:	0000                	unimp
 e58:	0901                	addi	s2,s2,0
 e5a:	0004                	.2byte	0x4
 e5c:	0100                	addi	s0,sp,128
 e5e:	8d01                	sub	a0,a0,s0
 e60:	0001                	nop
 e62:	0500                	addi	s0,sp,640
 e64:	0400                	addi	s0,sp,512
 e66:	2e00                	.2byte	0x2e00
 e68:	0000                	unimp
 e6a:	0100                	addi	s0,sp,128
 e6c:	0101                	addi	sp,sp,0
 e6e:	000d0efb          	.4byte	0xd0efb
 e72:	0101                	addi	sp,sp,0
 e74:	0101                	addi	sp,sp,0
 e76:	0000                	unimp
 e78:	0100                	addi	s0,sp,128
 e7a:	0000                	unimp
 e7c:	0101                	addi	sp,sp,0
 e7e:	1f01                	addi	t5,t5,-32
 e80:	7102                	.2byte	0x7102
 e82:	0000                	unimp
 e84:	dd00                	sw	s0,56(a0)
 e86:	0000                	unimp
 e88:	0200                	addi	s0,sp,256
 e8a:	1f01                	addi	t5,t5,-32
 e8c:	0f02                	c.slli64	t5
 e8e:	be02                	.2byte	0xbe02
 e90:	0001                	nop
 e92:	0100                	addi	s0,sp,128
 e94:	01be                	slli	gp,gp,0xf
 e96:	0000                	unimp
 e98:	0001                	nop
 e9a:	0205                	addi	tp,tp,1 # 1 <_min_stack-0x1fff>
 e9c:	045a                	slli	s0,s0,0x16
 e9e:	e000                	.2byte	0xe000
 ea0:	031a                	slli	t1,t1,0x6
 ea2:	0904                	addi	s1,sp,144
 ea4:	0004                	.2byte	0x4
 ea6:	0301                	addi	t1,t1,0
 ea8:	0901                	addi	s2,s2,0
 eaa:	0004                	.2byte	0x4
 eac:	0301                	addi	t1,t1,0
 eae:	0901                	addi	s2,s2,0
 eb0:	0002                	c.slli64	zero
 eb2:	0301                	addi	t1,t1,0
 eb4:	0901                	addi	s2,s2,0
 eb6:	0002                	c.slli64	zero
 eb8:	0301                	addi	t1,t1,0
 eba:	0901                	addi	s2,s2,0
 ebc:	0002                	c.slli64	zero
 ebe:	0301                	addi	t1,t1,0
 ec0:	0901                	addi	s2,s2,0
 ec2:	0002                	c.slli64	zero
 ec4:	0301                	addi	t1,t1,0
 ec6:	0901                	addi	s2,s2,0
 ec8:	0002                	c.slli64	zero
 eca:	0301                	addi	t1,t1,0
 ecc:	0901                	addi	s2,s2,0
 ece:	0002                	c.slli64	zero
 ed0:	0301                	addi	t1,t1,0
 ed2:	0901                	addi	s2,s2,0
 ed4:	0002                	c.slli64	zero
 ed6:	0301                	addi	t1,t1,0
 ed8:	0901                	addi	s2,s2,0
 eda:	0002                	c.slli64	zero
 edc:	0301                	addi	t1,t1,0
 ede:	0901                	addi	s2,s2,0
 ee0:	0002                	c.slli64	zero
 ee2:	0301                	addi	t1,t1,0
 ee4:	0901                	addi	s2,s2,0
 ee6:	0002                	c.slli64	zero
 ee8:	0301                	addi	t1,t1,0
 eea:	0901                	addi	s2,s2,0
 eec:	0002                	c.slli64	zero
 eee:	0301                	addi	t1,t1,0
 ef0:	0901                	addi	s2,s2,0
 ef2:	0002                	c.slli64	zero
 ef4:	0301                	addi	t1,t1,0
 ef6:	0901                	addi	s2,s2,0
 ef8:	0002                	c.slli64	zero
 efa:	0301                	addi	t1,t1,0
 efc:	0901                	addi	s2,s2,0
 efe:	0002                	c.slli64	zero
 f00:	0301                	addi	t1,t1,0
 f02:	0901                	addi	s2,s2,0
 f04:	0002                	c.slli64	zero
 f06:	0301                	addi	t1,t1,0
 f08:	0901                	addi	s2,s2,0
 f0a:	0002                	c.slli64	zero
 f0c:	0301                	addi	t1,t1,0
 f0e:	0901                	addi	s2,s2,0
 f10:	0002                	c.slli64	zero
 f12:	0301                	addi	t1,t1,0
 f14:	0901                	addi	s2,s2,0
 f16:	0002                	c.slli64	zero
 f18:	0301                	addi	t1,t1,0
 f1a:	0901                	addi	s2,s2,0
 f1c:	0002                	c.slli64	zero
 f1e:	0301                	addi	t1,t1,0
 f20:	0901                	addi	s2,s2,0
 f22:	0002                	c.slli64	zero
 f24:	0301                	addi	t1,t1,0
 f26:	0901                	addi	s2,s2,0
 f28:	0002                	c.slli64	zero
 f2a:	0301                	addi	t1,t1,0
 f2c:	0901                	addi	s2,s2,0
 f2e:	0002                	c.slli64	zero
 f30:	0301                	addi	t1,t1,0
 f32:	0901                	addi	s2,s2,0
 f34:	0002                	c.slli64	zero
 f36:	0301                	addi	t1,t1,0
 f38:	0901                	addi	s2,s2,0
 f3a:	0002                	c.slli64	zero
 f3c:	0301                	addi	t1,t1,0
 f3e:	0901                	addi	s2,s2,0
 f40:	0002                	c.slli64	zero
 f42:	0301                	addi	t1,t1,0
 f44:	0901                	addi	s2,s2,0
 f46:	0002                	c.slli64	zero
 f48:	0301                	addi	t1,t1,0
 f4a:	0901                	addi	s2,s2,0
 f4c:	0002                	c.slli64	zero
 f4e:	0301                	addi	t1,t1,0
 f50:	0901                	addi	s2,s2,0
 f52:	0002                	c.slli64	zero
 f54:	0301                	addi	t1,t1,0
 f56:	0901                	addi	s2,s2,0
 f58:	0002                	c.slli64	zero
 f5a:	0301                	addi	t1,t1,0
 f5c:	00020903          	lb	s2,0(tp) # 0 <_min_stack-0x2000>
 f60:	0301                	addi	t1,t1,0
 f62:	00080907          	.4byte	0x80907
 f66:	0301                	addi	t1,t1,0
 f68:	0901                	addi	s2,s2,0
 f6a:	0008                	.2byte	0x8
 f6c:	0301                	addi	t1,t1,0
 f6e:	0901                	addi	s2,s2,0
 f70:	0008                	.2byte	0x8
 f72:	0301                	addi	t1,t1,0
 f74:	0904                	addi	s1,sp,144
 f76:	0004                	.2byte	0x4
 f78:	0301                	addi	t1,t1,0
 f7a:	0901                	addi	s2,s2,0
 f7c:	0004                	.2byte	0x4
 f7e:	0301                	addi	t1,t1,0
 f80:	0901                	addi	s2,s2,0
 f82:	0002                	c.slli64	zero
 f84:	0301                	addi	t1,t1,0
 f86:	0906                	slli	s2,s2,0x1
 f88:	0004                	.2byte	0x4
 f8a:	0301                	addi	t1,t1,0
 f8c:	0901                	addi	s2,s2,0
 f8e:	0002                	c.slli64	zero
 f90:	0301                	addi	t1,t1,0
 f92:	0901                	addi	s2,s2,0
 f94:	0002                	c.slli64	zero
 f96:	0301                	addi	t1,t1,0
 f98:	00040903          	lb	s2,0(s0)
 f9c:	0301                	addi	t1,t1,0
 f9e:	0901                	addi	s2,s2,0
 fa0:	0006                	c.slli	zero,0x1
 fa2:	0301                	addi	t1,t1,0
 fa4:	0901                	addi	s2,s2,0
 fa6:	0002                	c.slli64	zero
 fa8:	0301                	addi	t1,t1,0
 faa:	0902                	c.slli64	s2
 fac:	0004                	.2byte	0x4
 fae:	0301                	addi	t1,t1,0
 fb0:	0901                	addi	s2,s2,0
 fb2:	0004                	.2byte	0x4
 fb4:	0901                	addi	s2,s2,0
 fb6:	0002                	c.slli64	zero
 fb8:	0100                	addi	s0,sp,128
 fba:	0001                	nop
 fbc:	0205                	addi	tp,tp,1 # 1 <_min_stack-0x1fff>
 fbe:	0000                	unimp
 fc0:	e000                	.2byte	0xe000
 fc2:	0100d803          	lhu	a6,16(ra)
 fc6:	28090203          	lb	tp,640(s2)
 fca:	0100                	addi	s0,sp,128
 fcc:	04090203          	lb	tp,64(s2)
 fd0:	0100                	addi	s0,sp,128
 fd2:	04090503          	lb	a0,64(s2)
 fd6:	0100                	addi	s0,sp,128
 fd8:	48090103          	lb	sp,1152(s2)
 fdc:	0100                	addi	s0,sp,128
 fde:	04090103          	lb	sp,64(s2)
 fe2:	0100                	addi	s0,sp,128
 fe4:	04090503          	lb	a0,64(s2)
 fe8:	0100                	addi	s0,sp,128
 fea:	0409                	addi	s0,s0,2
 fec:	0000                	unimp
 fee:	0101                	addi	sp,sp,0

Disassembly of section .debug_str:

00000000 <.debug_str>:
   0:	6175                	addi	sp,sp,368
   2:	7472                	.2byte	0x7472
   4:	675f 7465 6863      	.byte	0x5f, 0x67, 0x65, 0x74, 0x63, 0x68
   a:	7261                	lui	tp,0xffff8
   c:	5f00                	lw	s0,56(a4)
   e:	625f 6975 746c      	.byte	0x5f, 0x62, 0x75, 0x69, 0x6c, 0x74
  14:	6e69                	lui	t3,0x1a
  16:	765f 5f61 696c      	.byte	0x5f, 0x76, 0x61, 0x5f, 0x6c, 0x69
  1c:	71007473          	csrrci	s0,0x710,0
  20:	7270                	.2byte	0x7270
  22:	6e69                	lui	t3,0x1a
  24:	6374                	.2byte	0x6374
  26:	6168                	.2byte	0x6168
  28:	0072                	c.slli	zero,0x1c
  2a:	6175                	addi	sp,sp,368
  2c:	7472                	.2byte	0x7472
  2e:	775f 6961 5f74      	.byte	0x5f, 0x77, 0x61, 0x69, 0x74, 0x5f
  34:	7874                	.2byte	0x7874
  36:	645f 6e6f 0065      	.byte	0x5f, 0x64, 0x6f, 0x6e, 0x65, 0x00
  3c:	706d6973          	csrrsi	s2,0x706,26
  40:	656c                	.2byte	0x656c
  42:	655f 6378 685f      	.byte	0x5f, 0x65, 0x78, 0x63, 0x5f, 0x68
  48:	6e61                	lui	t3,0x18
  4a:	6c64                	.2byte	0x6c64
  4c:	7265                	lui	tp,0xffff9
  4e:	7300                	.2byte	0x7300
  50:	7274                	.2byte	0x7274
  52:	6e69                	lui	t3,0x1a
  54:	69640067          	jr	1686(s0)
  58:	7576                	.2byte	0x7576
  5a:	3031                	jal	fffff866 <fromhost+0x1ffef856>
  5c:	7100                	.2byte	0x7100
  5e:	7270                	.2byte	0x7270
  60:	6e69                	lui	t3,0x1a
  62:	6974                	.2byte	0x6974
  64:	5f00                	lw	s0,56(a4)
  66:	675f 756e 5f63      	.byte	0x5f, 0x67, 0x6e, 0x75, 0x63, 0x5f
  6c:	6176                	.2byte	0x6176
  6e:	6c5f 7369 0074      	.byte	0x5f, 0x6c, 0x69, 0x73, 0x74, 0x00
  74:	6170                	.2byte	0x6170
  76:	6364                	.2byte	0x6364
  78:	6168                	.2byte	0x6168
  7a:	0072                	c.slli	zero,0x1c
  7c:	6e75                	lui	t3,0x1d
  7e:	6e676973          	csrrsi	s2,0x6e6,14
  82:	6465                	lui	s0,0x19
  84:	6320                	.2byte	0x6320
  86:	6168                	.2byte	0x6168
  88:	0072                	c.slli	zero,0x1c
  8a:	20554e47          	.4byte	0x20554e47
  8e:	20373143          	.4byte	0x20373143
  92:	3131                	jal	fffffc9e <fromhost+0x1ffefc8e>
  94:	322e                	.2byte	0x322e
  96:	302e                	.2byte	0x302e
  98:	2d20                	.2byte	0x2d20
  9a:	616d                	addi	sp,sp,240
  9c:	6962                	.2byte	0x6962
  9e:	693d                	lui	s2,0xf
  a0:	706c                	.2byte	0x706c
  a2:	2d203233          	.4byte	0x2d203233
  a6:	636d                	lui	t1,0x1b
  a8:	6f6d                	lui	t5,0x1b
  aa:	6564                	.2byte	0x6564
  ac:	3d6c                	.2byte	0x3d6c
  ae:	656d                	lui	a0,0x1b
  b0:	6164                	.2byte	0x6164
  b2:	796e                	.2byte	0x796e
  b4:	2d20                	.2byte	0x2d20
  b6:	616d                	addi	sp,sp,240
  b8:	6372                	.2byte	0x6372
  ba:	3d68                	.2byte	0x3d68
  bc:	7672                	.2byte	0x7672
  be:	6d693233          	.4byte	0x6d693233
  c2:	672d2063          	.4byte	0x672d2063
  c6:	2d20                	.2byte	0x2d20
  c8:	2d20734f          	.4byte	0x2d20734f
  cc:	7666                	.2byte	0x7666
  ce:	7369                	lui	t1,0xffffa
  d0:	6269                	lui	tp,0x1a
  d2:	6c69                	lui	s8,0x1a
  d4:	7469                	lui	s0,0xffffa
  d6:	3d79                	jal	ffffff74 <fromhost+0x1ffeff64>
  d8:	6968                	.2byte	0x6968
  da:	6464                	.2byte	0x6464
  dc:	6e65                	lui	t3,0x19
  de:	2d20                	.2byte	0x2d20
  e0:	6666                	.2byte	0x6666
  e2:	6572                	.2byte	0x6572
  e4:	7365                	lui	t1,0xffff9
  e6:	6174                	.2byte	0x6174
  e8:	646e                	.2byte	0x646e
  ea:	6e69                	lui	t3,0x1a
  ec:	6c630067          	jr	1734(t1) # ffff96c6 <fromhost+0x1ffe96b6>
  f0:	6f635f6b          	.4byte	0x6f635f6b
  f4:	6e75                	lui	t3,0x1d
  f6:	6574                	.2byte	0x6574
  f8:	0072                	c.slli	zero,0x1c
  fa:	726f6873          	csrrsi	a6,0x726,30
  fe:	2074                	.2byte	0x2074
 100:	6e75                	lui	t3,0x1d
 102:	6e676973          	csrrsi	s2,0x6e6,14
 106:	6465                	lui	s0,0x19
 108:	6920                	.2byte	0x6920
 10a:	746e                	.2byte	0x746e
 10c:	7200                	.2byte	0x7200
 10e:	6d65                	lui	s10,0x19
 110:	3175                	jal	fffffdbc <fromhost+0x1ffefdac>
 112:	5f30                	lw	a2,120(a4)
 114:	6174                	.2byte	0x6174
 116:	6c62                	.2byte	0x6c62
 118:	0065                	c.nop	25
 11a:	7570                	.2byte	0x7570
 11c:	6374                	.2byte	0x6374
 11e:	6168                	.2byte	0x6168
 120:	0072                	c.slli	zero,0x1c
 122:	74646977          	.4byte	0x74646977
 126:	0068                	addi	a0,sp,12
 128:	7570                	.2byte	0x7570
 12a:	7374                	.2byte	0x7374
 12c:	6600                	.2byte	0x6600
 12e:	616d726f          	jal	tp,d7744 <tohost+0xb773c>
 132:	0074                	addi	a3,sp,12
 134:	7865                	lui	a6,0xffff9
 136:	6574                	.2byte	0x6574
 138:	6e72                	.2byte	0x6e72
 13a:	6c61                	lui	s8,0x18
 13c:	695f 7172 685f      	.byte	0x5f, 0x69, 0x72, 0x71, 0x5f, 0x68
 142:	6e61                	lui	t3,0x18
 144:	6c64                	.2byte	0x6c64
 146:	7265                	lui	tp,0xffff9
 148:	6c00                	.2byte	0x6c00
 14a:	20676e6f          	jal	t3,76350 <tohost+0x56348>
 14e:	6f6c                	.2byte	0x6f6c
 150:	676e                	.2byte	0x676e
 152:	7520                	.2byte	0x7520
 154:	736e                	.2byte	0x736e
 156:	6769                	lui	a4,0x1a
 158:	656e                	.2byte	0x656e
 15a:	2064                	.2byte	0x2064
 15c:	6e69                	lui	t3,0x1a
 15e:	0074                	addi	a3,sp,12
 160:	7270                	.2byte	0x7270
 162:	6e69                	lui	t3,0x1a
 164:	5f74                	lw	a3,124(a4)
 166:	7562                	.2byte	0x7562
 168:	0066                	c.slli	zero,0x19
 16a:	6572                	.2byte	0x6572
 16c:	756d                	lui	a0,0xffffb
 16e:	3031                	jal	fffff97a <fromhost+0x1ffef96a>
 170:	7500                	.2byte	0x7500
 172:	7261                	lui	tp,0xffff8
 174:	5f74                	lw	a3,124(a4)
 176:	5f746573          	csrrsi	a0,0x5f7,8
 17a:	00676663          	bltu	a4,t1,186 <_min_stack-0x1e7a>
 17e:	6f6c                	.2byte	0x6f6c
 180:	676e                	.2byte	0x676e
 182:	6c20                	.2byte	0x6c20
 184:	20676e6f          	jal	t3,7638a <tohost+0x56382>
 188:	6e69                	lui	t3,0x1a
 18a:	0074                	addi	a3,sp,12
 18c:	7071                	c.lui	zero,0xffffc
 18e:	6972                	.2byte	0x6972
 190:	746e                	.2byte	0x746e
 192:	7000                	.2byte	0x7000
 194:	6972                	.2byte	0x6972
 196:	746e                	.2byte	0x746e
 198:	0066                	c.slli	zero,0x19
 19a:	6175                	addi	sp,sp,368
 19c:	7472                	.2byte	0x7472
 19e:	735f 6e65 0064      	.byte	0x5f, 0x73, 0x65, 0x6e, 0x64, 0x00
 1a4:	726f6873          	csrrsi	a6,0x726,30
 1a8:	2074                	.2byte	0x2074
 1aa:	6e69                	lui	t3,0x1a
 1ac:	0074                	addi	a3,sp,12
 1ae:	6975                	lui	s2,0x1d
 1b0:	746e                	.2byte	0x746e
 1b2:	3631                	jal	fffffcbe <fromhost+0x1ffefcae>
 1b4:	745f 6c00 7465      	.byte	0x5f, 0x74, 0x00, 0x6c, 0x65, 0x74
 1ba:	6162                	.2byte	0x6162
 1bc:	6c006573          	csrrsi	a0,0x6c0,0
 1c0:	20676e6f          	jal	t3,763c6 <tohost+0x563be>
 1c4:	6f64                	.2byte	0x6f64
 1c6:	6275                	lui	tp,0x1d
 1c8:	656c                	.2byte	0x656c
 1ca:	7500                	.2byte	0x7500
 1cc:	7261                	lui	tp,0xffff8
 1ce:	5f74                	lw	a3,124(a4)
 1d0:	646e6573          	csrrsi	a0,0x646,28
 1d4:	72616863          	bltu	sp,t1,904 <_min_stack-0x16fc>
 1d8:	7100                	.2byte	0x7100
 1da:	7270                	.2byte	0x7270
 1dc:	6e69                	lui	t3,0x1a
 1de:	7374                	.2byte	0x7374
 1e0:	7000                	.2byte	0x7000
 1e2:	7261                	lui	tp,0xffff8
 1e4:	7469                	lui	s0,0xffffa
 1e6:	0079                	c.nop	30
 1e8:	616d                	addi	sp,sp,240
 1ea:	6e69                	lui	t3,0x1a
 1ec:	6200                	.2byte	0x6200
 1ee:	6675                	lui	a2,0x1d
 1f0:	0066                	c.slli	zero,0x19
 1f2:	7263732f          	.4byte	0x7263732f
 1f6:	7461                	lui	s0,0xffff8
 1f8:	2f326863          	bltu	tp,s3,4e8 <_min_stack-0x1b18>
 1fc:	636d                	lui	t1,0x1b
 1fe:	6169                	addi	sp,sp,208
 200:	696e                	.2byte	0x696e
 202:	7473612f          	.4byte	0x7473612f
 206:	6172                	.2byte	0x6172
 208:	2f6c                	.2byte	0x2f6c
 20a:	7361                	lui	t1,0xffff8
 20c:	7274                	.2byte	0x7274
 20e:	6c61                	lui	s8,0x18
 210:	65622e2f          	.4byte	0x65622e2f
 214:	646e                	.2byte	0x646e
 216:	7265                	lui	tp,0xffff9
 218:	7469672f          	.4byte	0x7469672f
 21c:	6568632f          	.4byte	0x6568632f
 220:	756f6b63          	bltu	t5,s6,976 <_min_stack-0x168a>
 224:	7374                	.2byte	0x7374
 226:	65706f2f          	.4byte	0x65706f2f
 22a:	746e                	.2byte	0x746e
 22c:	7469                	lui	s0,0xffffa
 22e:	6e61                	lui	t3,0x18
 230:	372d                	jal	15a <_min_stack-0x1ea6>
 232:	3964                	.2byte	0x3964
 234:	6666                	.2byte	0x6666
 236:	3864                	.2byte	0x3864
 238:	3662                	.2byte	0x3662
 23a:	3839                	jal	fffffa58 <fromhost+0x1ffefa48>
 23c:	3264                	.2byte	0x3264
 23e:	6164                	.2byte	0x6164
 240:	2f34                	.2byte	0x2f34
 242:	742f7773          	csrrci	a4,0x742,30
 246:	7365                	lui	t1,0xffff9
 248:	7374                	.2byte	0x7374
 24a:	7261632f          	.4byte	0x7261632f
 24e:	6966                	.2byte	0x6966
 250:	6c65                	lui	s8,0x19
 252:	2f64                	.2byte	0x2f64
 254:	6d6d6f63          	bltu	s10,s6,932 <_min_stack-0x16ce>
 258:	632f6e6f          	jal	t3,f688a <tohost+0xd6882>
 25c:	7472                	.2byte	0x7472
 25e:	2e30                	.2byte	0x2e30
 260:	732f0053          	.4byte	0x732f0053
 264:	74617263          	bgeu	sp,t1,9a8 <_min_stack-0x1658>
 268:	2f326863          	bltu	tp,s3,558 <_min_stack-0x1aa8>
 26c:	636d                	lui	t1,0x1b
 26e:	6169                	addi	sp,sp,208
 270:	696e                	.2byte	0x696e
 272:	7473612f          	.4byte	0x7473612f
 276:	6172                	.2byte	0x6172
 278:	2f6c                	.2byte	0x2f6c
 27a:	7361                	lui	t1,0xffff8
 27c:	7274                	.2byte	0x7274
 27e:	6c61                	lui	s8,0x18
 280:	65622e2f          	.4byte	0x65622e2f
 284:	646e                	.2byte	0x646e
 286:	7265                	lui	tp,0xffff9
 288:	7469672f          	.4byte	0x7469672f
 28c:	6568632f          	.4byte	0x6568632f
 290:	756f6b63          	bltu	t5,s6,9e6 <_min_stack-0x161a>
 294:	7374                	.2byte	0x7374
 296:	65706f2f          	.4byte	0x65706f2f
 29a:	746e                	.2byte	0x746e
 29c:	7469                	lui	s0,0xffffa
 29e:	6e61                	lui	t3,0x18
 2a0:	372d                	jal	1ca <_min_stack-0x1e36>
 2a2:	3964                	.2byte	0x3964
 2a4:	6666                	.2byte	0x6666
 2a6:	3864                	.2byte	0x3864
 2a8:	3662                	.2byte	0x3662
 2aa:	3839                	jal	fffffac8 <fromhost+0x1ffefab8>
 2ac:	3264                	.2byte	0x3264
 2ae:	6164                	.2byte	0x6164
 2b0:	2f34                	.2byte	0x2f34
 2b2:	742f7773          	csrrci	a4,0x742,30
 2b6:	7365                	lui	t1,0xffff9
 2b8:	7374                	.2byte	0x7374
 2ba:	7261632f          	.4byte	0x7261632f
 2be:	6966                	.2byte	0x6966
 2c0:	6c65                	lui	s8,0x19
 2c2:	2f64                	.2byte	0x2f64
 2c4:	6469                	lui	s0,0x1a
 2c6:	616d                	addi	sp,sp,240
 2c8:	745f 7365 0074      	.byte	0x5f, 0x74, 0x65, 0x73, 0x74, 0x00
 2ce:	20554e47          	.4byte	0x20554e47
 2d2:	5341                	li	t1,-16
 2d4:	3220                	.2byte	0x3220
 2d6:	332e                	.2byte	0x332e
 2d8:	0038                	addi	a4,sp,8

Disassembly of section .debug_line_str:

00000000 <.debug_line_str>:
   0:	7263732f          	.4byte	0x7263732f
   4:	7461                	lui	s0,0xffff8
   6:	2f326863          	bltu	tp,s3,2f6 <_min_stack-0x1d0a>
   a:	636d                	lui	t1,0x1b
   c:	6169                	addi	sp,sp,208
   e:	696e                	.2byte	0x696e
  10:	7473612f          	.4byte	0x7473612f
  14:	6172                	.2byte	0x6172
  16:	2f6c                	.2byte	0x2f6c
  18:	7361                	lui	t1,0xffff8
  1a:	7274                	.2byte	0x7274
  1c:	6c61                	lui	s8,0x18
  1e:	65622e2f          	.4byte	0x65622e2f
  22:	646e                	.2byte	0x646e
  24:	7265                	lui	tp,0xffff9
  26:	7469672f          	.4byte	0x7469672f
  2a:	6568632f          	.4byte	0x6568632f
  2e:	756f6b63          	bltu	t5,s6,784 <_min_stack-0x187c>
  32:	7374                	.2byte	0x7374
  34:	65706f2f          	.4byte	0x65706f2f
  38:	746e                	.2byte	0x746e
  3a:	7469                	lui	s0,0xffffa
  3c:	6e61                	lui	t3,0x18
  3e:	372d                	jal	ffffff68 <fromhost+0x1ffeff58>
  40:	3964                	.2byte	0x3964
  42:	6666                	.2byte	0x6666
  44:	3864                	.2byte	0x3864
  46:	3662                	.2byte	0x3662
  48:	3839                	jal	fffff866 <fromhost+0x1ffef856>
  4a:	3264                	.2byte	0x3264
  4c:	6164                	.2byte	0x6164
  4e:	2f34                	.2byte	0x2f34
  50:	742f7773          	csrrci	a4,0x742,30
  54:	7365                	lui	t1,0xffff9
  56:	7374                	.2byte	0x7374
  58:	7261632f          	.4byte	0x7261632f
  5c:	6966                	.2byte	0x6966
  5e:	6c65                	lui	s8,0x19
  60:	2f64                	.2byte	0x2f64
  62:	6d6d6f63          	bltu	s10,s6,740 <_min_stack-0x18c0>
  66:	752f6e6f          	jal	t3,f67b8 <tohost+0xd67b0>
  6a:	6974                	.2byte	0x6974
  6c:	736c                	.2byte	0x736c
  6e:	632e                	.2byte	0x632e
  70:	2f00                	.2byte	0x2f00
  72:	61726373          	csrrsi	t1,0x617,4
  76:	6374                	.2byte	0x6374
  78:	3268                	.2byte	0x3268
  7a:	69636d2f          	.4byte	0x69636d2f
  7e:	6e61                	lui	t3,0x18
  80:	2f69                	jal	81a <_min_stack-0x17e6>
  82:	7361                	lui	t1,0xffff8
  84:	7274                	.2byte	0x7274
  86:	6c61                	lui	s8,0x18
  88:	7473612f          	.4byte	0x7473612f
  8c:	6172                	.2byte	0x6172
  8e:	2f6c                	.2byte	0x2f6c
  90:	622e                	.2byte	0x622e
  92:	6e65                	lui	t3,0x19
  94:	6564                	.2byte	0x6564
  96:	2f72                	.2byte	0x2f72
  98:	2f746967          	.4byte	0x2f746967
  9c:	63656863          	bltu	a0,s6,6cc <_min_stack-0x1934>
  a0:	74756f6b          	.4byte	0x74756f6b
  a4:	706f2f73          	csrrs	t5,0x706,t5
  a8:	6e65                	lui	t3,0x19
  aa:	6974                	.2byte	0x6974
  ac:	6174                	.2byte	0x6174
  ae:	2d6e                	.2byte	0x2d6e
  b0:	66396437          	lui	s0,0x66396
  b4:	6466                	.2byte	0x6466
  b6:	6238                	.2byte	0x6238
  b8:	3936                	.2byte	0x3936
  ba:	6438                	.2byte	0x6438
  bc:	6432                	.2byte	0x6432
  be:	3461                	jal	fffffb46 <fromhost+0x1ffefb36>
  c0:	2f77732f          	.4byte	0x2f77732f
  c4:	6574                	.2byte	0x6574
  c6:	2f737473          	csrrci	s0,0x2f7,6
  ca:	66726163          	bltu	tp,t2,72c <_min_stack-0x18d4>
  ce:	6569                	lui	a0,0x1a
  d0:	646c                	.2byte	0x646c
  d2:	6d64692f          	.4byte	0x6d64692f
  d6:	5f61                	li	t5,-8
  d8:	6574                	.2byte	0x6574
  da:	2f007473          	csrrci	s0,0x2f0,0
  de:	61726373          	csrrsi	t1,0x617,4
  e2:	6374                	.2byte	0x6374
  e4:	3268                	.2byte	0x3268
  e6:	69636d2f          	.4byte	0x69636d2f
  ea:	6e61                	lui	t3,0x18
  ec:	2f69                	jal	886 <_min_stack-0x177a>
  ee:	7361                	lui	t1,0xffff8
  f0:	7274                	.2byte	0x7274
  f2:	6c61                	lui	s8,0x18
  f4:	7473612f          	.4byte	0x7473612f
  f8:	6172                	.2byte	0x6172
  fa:	2f6c                	.2byte	0x2f6c
  fc:	622e                	.2byte	0x622e
  fe:	6e65                	lui	t3,0x19
 100:	6564                	.2byte	0x6564
 102:	2f72                	.2byte	0x2f72
 104:	2f746967          	.4byte	0x2f746967
 108:	63656863          	bltu	a0,s6,738 <_min_stack-0x18c8>
 10c:	74756f6b          	.4byte	0x74756f6b
 110:	706f2f73          	csrrs	t5,0x706,t5
 114:	6e65                	lui	t3,0x19
 116:	6974                	.2byte	0x6974
 118:	6174                	.2byte	0x6174
 11a:	2d6e                	.2byte	0x2d6e
 11c:	66396437          	lui	s0,0x66396
 120:	6466                	.2byte	0x6466
 122:	6238                	.2byte	0x6238
 124:	3936                	.2byte	0x3936
 126:	6438                	.2byte	0x6438
 128:	6432                	.2byte	0x6432
 12a:	3461                	jal	fffffbb2 <fromhost+0x1ffefba2>
 12c:	2f77732f          	.4byte	0x2f77732f
 130:	6574                	.2byte	0x6574
 132:	2f737473          	csrrci	s0,0x2f7,6
 136:	66726163          	bltu	tp,t2,798 <_min_stack-0x1868>
 13a:	6569                	lui	a0,0x1a
 13c:	646c                	.2byte	0x646c
 13e:	6d6f632f          	.4byte	0x6d6f632f
 142:	6f6d                	lui	t5,0x1b
 144:	006e                	c.slli	zero,0x1b
 146:	7273752f          	.4byte	0x7273752f
 14a:	6361702f          	.4byte	0x6361702f
 14e:	69722f6b          	.4byte	0x69722f6b
 152:	2d766373          	csrrsi	t1,0x2d7,12
 156:	2e31                	jal	472 <_min_stack-0x1b8e>
 158:	2d30                	.2byte	0x2d30
 15a:	2f66676b          	.4byte	0x2f66676b
 15e:	6972                	.2byte	0x6972
 160:	36766373          	csrrsi	t1,0x367,12
 164:	2d34                	.2byte	0x2d34
 166:	2d636367          	.4byte	0x2d636367
 16a:	3131                	jal	fffffd76 <fromhost+0x1ffefd66>
 16c:	322e                	.2byte	0x322e
 16e:	302e                	.2byte	0x302e
 170:	62696c2f          	.4byte	0x62696c2f
 174:	6363672f          	.4byte	0x6363672f
 178:	7369722f          	.4byte	0x7369722f
 17c:	34367663          	bgeu	a2,gp,4c8 <_min_stack-0x1b38>
 180:	752d                	lui	a0,0xfffeb
 182:	6b6e                	.2byte	0x6b6e
 184:	6f6e                	.2byte	0x6f6e
 186:	652d6e77          	.4byte	0x652d6e77
 18a:	666c                	.2byte	0x666c
 18c:	2e31312f          	.4byte	0x2e31312f
 190:	2e32                	.2byte	0x2e32
 192:	2f30                	.2byte	0x2f30
 194:	6e69                	lui	t3,0x1a
 196:	64756c63          	bltu	a0,t2,7ee <_min_stack-0x1812>
 19a:	0065                	c.nop	25
 19c:	61647473          	csrrci	s0,0x616,8
 1a0:	6772                	.2byte	0x6772
 1a2:	682e                	.2byte	0x682e
 1a4:	7300                	.2byte	0x7300
 1a6:	6474                	.2byte	0x6474
 1a8:	6e69                	lui	t3,0x1a
 1aa:	2d74                	.2byte	0x2d74
 1ac:	2e636367          	.4byte	0x2e636367
 1b0:	0068                	addi	a0,sp,12
 1b2:	6469                	lui	s0,0x1a
 1b4:	616d                	addi	sp,sp,240
 1b6:	745f 7365 2e74      	.byte	0x5f, 0x74, 0x65, 0x73, 0x74, 0x2e
 1bc:	72630063          	beq	t1,t1,8dc <_min_stack-0x1724>
 1c0:	3074                	.2byte	0x3074
 1c2:	532e                	lw	t1,232(sp)
	...

Disassembly of section .comment:

00000000 <.comment>:
   0:	3a434347          	.4byte	0x3a434347
   4:	2820                	.2byte	0x2820
   6:	736f7263          	bgeu	t5,s6,72a <_min_stack-0x18d6>
   a:	6f6f7473          	csrrci	s0,0x6f6,30
   e:	2d6c                	.2byte	0x2d6c
  10:	474e                	lw	a4,208(sp)
  12:	3120                	.2byte	0x3120
  14:	322e                	.2byte	0x322e
  16:	2e35                	jal	352 <_min_stack-0x1cae>
  18:	5f30                	lw	a2,120(a4)
  1a:	6372                	.2byte	0x6372
  1c:	2931                	jal	438 <_min_stack-0x1bc8>
  1e:	3120                	.2byte	0x3120
  20:	2e31                	jal	33c <_min_stack-0x1cc4>
  22:	2e32                	.2byte	0x2e32
  24:	0030                	addi	a2,sp,8

Disassembly of section .riscv.attributes:

00000000 <.riscv.attributes>:
   0:	3e41                	jal	fffffb90 <fromhost+0x1ffefb80>
   2:	0000                	unimp
   4:	7200                	.2byte	0x7200
   6:	7369                	lui	t1,0xffffa
   8:	01007663          	bgeu	zero,a6,14 <_min_stack-0x1fec>
   c:	0034                	addi	a3,sp,8
   e:	0000                	unimp
  10:	1004                	addi	s1,sp,32
  12:	7205                	lui	tp,0xfffe1
  14:	3376                	.2byte	0x3376
  16:	6932                	.2byte	0x6932
  18:	7032                	.2byte	0x7032
  1a:	5f31                	li	t5,-20
  1c:	326d                	jal	fffff9c6 <fromhost+0x1ffef9b6>
  1e:	3070                	.2byte	0x3070
  20:	635f 7032 5f30      	.byte	0x5f, 0x63, 0x32, 0x70, 0x30, 0x5f
  26:	697a                	.2byte	0x697a
  28:	32727363          	bgeu	tp,t2,34e <_min_stack-0x1cb2>
  2c:	3070                	.2byte	0x3070
  2e:	7a5f 6669 6e65      	.byte	0x5f, 0x7a, 0x69, 0x66, 0x65, 0x6e
  34:	32696563          	bltu	s2,t1,35e <_min_stack-0x1ca2>
  38:	3070                	.2byte	0x3070
  3a:	0800                	addi	s0,sp,16
  3c:	0a01                	addi	s4,s4,0
  3e:	0b              	Address 0x000000000000003e is out of bounds.


Disassembly of section .debug_frame:

00000000 <.debug_frame>:
   0:	000c                	.2byte	0xc
   2:	0000                	unimp
   4:	ffff                	.2byte	0xffff
   6:	ffff                	.2byte	0xffff
   8:	7c010003          	lb	zero,1984(sp)
   c:	0d01                	addi	s10,s10,0 # 19000 <_stack_len+0x11000>
   e:	0002                	c.slli64	zero
  10:	000c                	.2byte	0xc
  12:	0000                	unimp
  14:	0000                	unimp
  16:	0000                	unimp
  18:	0084                	addi	s1,sp,64
  1a:	e000                	.2byte	0xe000
  1c:	0004                	.2byte	0x4
  1e:	0000                	unimp
  20:	000c                	.2byte	0xc
  22:	0000                	unimp
  24:	0000                	unimp
  26:	0000                	unimp
  28:	0088                	addi	a0,sp,64
  2a:	e000                	.2byte	0xe000
  2c:	002e                	c.slli	zero,0xb
  2e:	0000                	unimp
  30:	000c                	.2byte	0xc
  32:	0000                	unimp
  34:	0000                	unimp
  36:	0000                	unimp
  38:	00b6                	slli	ra,ra,0xd
  3a:	e000                	.2byte	0xe000
  3c:	0026                	c.slli	zero,0x9
  3e:	0000                	unimp
  40:	000c                	.2byte	0xc
  42:	0000                	unimp
  44:	0000                	unimp
  46:	0000                	unimp
  48:	00dc                	addi	a5,sp,68
  4a:	e000                	.2byte	0xe000
  4c:	0012                	c.slli	zero,0x4
  4e:	0000                	unimp
  50:	000c                	.2byte	0xc
  52:	0000                	unimp
  54:	0000                	unimp
  56:	0000                	unimp
  58:	00ee                	slli	ra,ra,0x1b
  5a:	e000                	.2byte	0xe000
  5c:	0010                	.2byte	0x10
  5e:	0000                	unimp
  60:	0030                	addi	a2,sp,8
  62:	0000                	unimp
  64:	0000                	unimp
  66:	0000                	unimp
  68:	00fe                	slli	ra,ra,0x1f
  6a:	e000                	.2byte	0xe000
  6c:	00a6                	slli	ra,ra,0x9
  6e:	0000                	unimp
  70:	0e42                	slli	t3,t3,0x10
  72:	4c20                	lw	s0,88(s0)
  74:	0288                	addi	a0,sp,320
  76:	0389                	addi	t2,t2,2
  78:	0694                	addi	a3,sp,832
  7a:	0181                	addi	gp,gp,0
  7c:	0492                	slli	s1,s1,0x4
  7e:	82020593          	addi	a1,tp,-2016 # fffe0820 <fromhost+0x1ffd0810>
  82:	c10a                	sw	sp,128(sp)
  84:	c842                	sw	a6,16(sp)
  86:	c942                	sw	a6,144(sp)
  88:	d242                	sw	a6,36(sp)
  8a:	d342                	sw	a6,164(sp)
  8c:	d442                	sw	a6,40(sp)
  8e:	0e42                	slli	t3,t3,0x10
  90:	4200                	lw	s0,0(a2)
  92:	0024000b          	.4byte	0x24000b
  96:	0000                	unimp
  98:	0000                	unimp
  9a:	0000                	unimp
  9c:	01a4                	addi	s1,sp,200
  9e:	e000                	.2byte	0xe000
  a0:	0102                	c.slli64	sp
  a2:	0000                	unimp
  a4:	0e42                	slli	t3,t3,0x10
  a6:	4640                	lw	s0,12(a2)
  a8:	0389                	addi	t2,t2,2
  aa:	0181                	addi	gp,gp,0
  ac:	0288                	addi	a0,sp,320
  ae:	0a58                	addi	a4,sp,276
  b0:	42c1                	li	t0,16
  b2:	42c8                	lw	a0,4(a3)
  b4:	42c9                	li	t0,18
  b6:	000e                	c.slli	zero,0x3
  b8:	0b42                	slli	s6,s6,0x10
  ba:	0000                	unimp
  bc:	000c                	.2byte	0xc
  be:	0000                	unimp
  c0:	0000                	unimp
  c2:	0000                	unimp
  c4:	02a6                	slli	t0,t0,0x9
  c6:	e000                	.2byte	0xe000
  c8:	000e                	c.slli	zero,0x3
  ca:	0000                	unimp
  cc:	001c                	.2byte	0x1c
  ce:	0000                	unimp
  d0:	0000                	unimp
  d2:	0000                	unimp
  d4:	02b4                	addi	a3,sp,328
  d6:	e000                	.2byte	0xe000
  d8:	0018                	.2byte	0x18
  da:	0000                	unimp
  dc:	0e42                	slli	t3,t3,0x10
  de:	4210                	lw	a2,0(a2)
  e0:	0288                	addi	a0,sp,320
  e2:	8148                	.2byte	0x8148
  e4:	4401                	li	s0,0
  e6:	44c1                	li	s1,16
  e8:	42c8                	lw	a0,4(a3)
  ea:	000e                	c.slli	zero,0x3
  ec:	0040                	addi	s0,sp,4
  ee:	0000                	unimp
  f0:	0000                	unimp
  f2:	0000                	unimp
  f4:	02cc                	addi	a1,sp,324
  f6:	e000                	.2byte	0xe000
  f8:	0158                	addi	a4,sp,132
  fa:	0000                	unimp
  fc:	0e42                	slli	t3,t3,0x10
  fe:	4260                	lw	s0,68(a2)
 100:	0a88                	addi	a0,sp,336
 102:	8954                	.2byte	0x8954
 104:	930c920b          	.4byte	0x930c920b
 108:	940d                	srai	s0,s0,0x23
 10a:	950e                	add	a0,a0,gp
 10c:	9710960f          	.4byte	0x9710960f
 110:	8111                	srli	a0,a0,0x4
 112:	9809                	andi	s0,s0,-30
 114:	7212                	.2byte	0x7212
 116:	c10a                	sw	sp,128(sp)
 118:	c842                	sw	a6,16(sp)
 11a:	c942                	sw	a6,144(sp)
 11c:	d242                	sw	a6,36(sp)
 11e:	d342                	sw	a6,164(sp)
 120:	d442                	sw	a6,40(sp)
 122:	d542                	sw	a6,168(sp)
 124:	d642                	sw	a6,44(sp)
 126:	d842                	sw	a6,48(sp)
 128:	d744                	sw	s1,44(a4)
 12a:	0e42                	slli	t3,t3,0x10
 12c:	4200                	lw	s0,0(a2)
 12e:	000c000b          	.4byte	0xc000b
 132:	0000                	unimp
 134:	0000                	unimp
 136:	0000                	unimp
 138:	0424                	addi	s1,sp,520
 13a:	e000                	.2byte	0xe000
 13c:	000a                	c.slli	zero,0x2
 13e:	0000                	unimp
 140:	0024                	addi	s1,sp,8
 142:	0000                	unimp
 144:	0000                	unimp
 146:	0000                	unimp
 148:	042e                	slli	s0,s0,0xb
 14a:	e000                	.2byte	0xe000
 14c:	002c                	addi	a1,sp,8
 14e:	0000                	unimp
 150:	0e42                	slli	t3,t3,0x10
 152:	4610                	lw	a2,8(a2)
 154:	0288                	addi	a0,sp,320
 156:	0389                	addi	t2,t2,2
 158:	0181                	addi	gp,gp,0
 15a:	0a54                	addi	a3,sp,276
 15c:	44c1                	li	s1,16
 15e:	42c8                	lw	a0,4(a3)
 160:	42c9                	li	t0,18
 162:	000e                	c.slli	zero,0x3
 164:	0b42                	slli	s6,s6,0x10
 166:	0000                	unimp
 168:	000c                	.2byte	0xc
 16a:	0000                	unimp
 16c:	ffff                	.2byte	0xffff
 16e:	ffff                	.2byte	0xffff
 170:	7c010003          	lb	zero,1984(sp)
 174:	0d01                	addi	s10,s10,0
 176:	0002                	c.slli64	zero
 178:	000c                	.2byte	0xc
 17a:	0000                	unimp
 17c:	0168                	addi	a0,sp,140
 17e:	0000                	unimp
 180:	04de                	slli	s1,s1,0x17
 182:	e000                	.2byte	0xe000
 184:	005c                	addi	a5,sp,4
	...
