
carfield_mmap_test.elf:     file format elf32-littleriscv
architecture: riscv:rv32, flags 0x00000112:
EXEC_P, HAS_SYMS, D_PAGED
start address 0xe0000080

Sections:
Idx Name          Size      VMA       LMA       File off  Algn
  0 .vectors      00000084  e0000000  e0000000  00001000  2**0
                  CONTENTS, ALLOC, LOAD, READONLY, CODE
  1 .text         000004e0  e0000084  e0000084  00001084  2**1
                  CONTENTS, ALLOC, LOAD, READONLY, CODE
  2 .rodata       00000018  e0000564  e0000564  00001564  2**2
                  CONTENTS, ALLOC, LOAD, READONLY, DATA
  3 .data         00000010  e000057c  e000057c  0000157c  2**2
                  CONTENTS, ALLOC, LOAD, DATA
  4 .bss          00000000  e000058c  e000058c  0000158c  2**0
                  ALLOC
  5 .logs.fields  00000000  e000058c  e000058c  0000158c  2**0
                  CONTENTS
  6 .stack        00002000  e0008000  e0008000  00002000  2**0
                  ALLOC
  7 .debug_info   000009c2  00000000  00000000  0000158c  2**0
                  CONTENTS, READONLY, DEBUGGING
  8 .debug_abbrev 000003e2  00000000  00000000  00001f4e  2**0
                  CONTENTS, READONLY, DEBUGGING
  9 .debug_loc    00000b11  00000000  00000000  00002330  2**0
                  CONTENTS, READONLY, DEBUGGING
 10 .debug_aranges 00000070  00000000  00000000  00002e48  2**3
                  CONTENTS, READONLY, DEBUGGING
 11 .debug_ranges 00000158  00000000  00000000  00002eb8  2**3
                  CONTENTS, READONLY, DEBUGGING
 12 .debug_line   000007f2  00000000  00000000  00003010  2**0
                  CONTENTS, READONLY, DEBUGGING
 13 .debug_str    00000309  00000000  00000000  00003802  2**0
                  CONTENTS, READONLY, DEBUGGING
 14 .comment      00000011  00000000  00000000  00003b0b  2**0
                  CONTENTS, READONLY
 15 .debug_frame  0000018c  00000000  00000000  00003b1c  2**2
                  CONTENTS, READONLY, DEBUGGING

Disassembly of section .vectors:

e0000000 <_vectors_start>:
  .option norvc;
  
  .org 0x00
  .rept 10
  jal x0, default_exc_handler
  .endr
e0000000:	4520006f          	j	e0000452 <default_exc_handler>
e0000004:	44e0006f          	j	e0000452 <default_exc_handler>
e0000008:	44a0006f          	j	e0000452 <default_exc_handler>
e000000c:	4460006f          	j	e0000452 <default_exc_handler>
e0000010:	4420006f          	j	e0000452 <default_exc_handler>
e0000014:	43e0006f          	j	e0000452 <default_exc_handler>
e0000018:	43a0006f          	j	e0000452 <default_exc_handler>
e000001c:	4360006f          	j	e0000452 <default_exc_handler>
e0000020:	4320006f          	j	e0000452 <default_exc_handler>
e0000024:	42e0006f          	j	e0000452 <default_exc_handler>
  
  jal x0, default_exc_handler
e0000028:	42a0006f          	j	e0000452 <default_exc_handler>
  
  jal x0, external_irq_handler
e000002c:	4240006f          	j	e0000450 <external_irq_handler>

  .org 0x30
  .rept 18
  jal x0, default_exc_handler
  .endr
e0000030:	4220006f          	j	e0000452 <default_exc_handler>
e0000034:	41e0006f          	j	e0000452 <default_exc_handler>
e0000038:	41a0006f          	j	e0000452 <default_exc_handler>
e000003c:	4160006f          	j	e0000452 <default_exc_handler>
e0000040:	4120006f          	j	e0000452 <default_exc_handler>
e0000044:	40e0006f          	j	e0000452 <default_exc_handler>
e0000048:	40a0006f          	j	e0000452 <default_exc_handler>
e000004c:	4060006f          	j	e0000452 <default_exc_handler>
e0000050:	4020006f          	j	e0000452 <default_exc_handler>
e0000054:	3fe0006f          	j	e0000452 <default_exc_handler>
e0000058:	3fa0006f          	j	e0000452 <default_exc_handler>
e000005c:	3f60006f          	j	e0000452 <default_exc_handler>
e0000060:	3f20006f          	j	e0000452 <default_exc_handler>
e0000064:	3ee0006f          	j	e0000452 <default_exc_handler>
e0000068:	3ea0006f          	j	e0000452 <default_exc_handler>
e000006c:	3e60006f          	j	e0000452 <default_exc_handler>
e0000070:	3e20006f          	j	e0000452 <default_exc_handler>
e0000074:	3de0006f          	j	e0000452 <default_exc_handler>
  jal x0, default_exc_handler
e0000078:	3da0006f          	j	e0000452 <default_exc_handler>
  jal x0, default_exc_handler
e000007c:	3d60006f          	j	e0000452 <default_exc_handler>


  // reset vector
  .org 0x80
  jal x0, reset_handler
e0000080:	3d60006f          	j	e0000456 <reset_handler>

Disassembly of section .text:

e0000084 <uart_set_cfg>:
}


void uart_set_cfg(int parity, uint16_t clk_counter) {
  unsigned int i;
  *(volatile unsigned int*)(UART_REG_LCR) = 0x83; //sets 8N1 and set DLAB to 1
e0000084:	400007b7          	lui	a5,0x40000
e0000088:	08300713          	li	a4,131
e000008c:	c7d8                	sw	a4,12(a5)
  *(volatile unsigned int*)(UART_REG_DLM) = (clk_counter >> 8) & 0xFF;
e000008e:	0085d713          	srli	a4,a1,0x8
e0000092:	c3d8                	sw	a4,4(a5)
  *(volatile unsigned int*)(UART_REG_DLL) =  clk_counter       & 0xFF;
e0000094:	0ff5f593          	andi	a1,a1,255
e0000098:	c38c                	sw	a1,0(a5)
  *(volatile unsigned int*)(UART_REG_FCR) = 0xA7; //enables 16byte FIFO and clear FIFOs
e000009a:	0a700713          	li	a4,167
e000009e:	c798                	sw	a4,8(a5)
  *(volatile unsigned int*)(UART_REG_LCR) = 0x03; //sets 8N1 and set DLAB to 0
e00000a0:	470d                	li	a4,3
e00000a2:	c7d8                	sw	a4,12(a5)

  *(volatile unsigned int*)(UART_REG_IER) = ((*(volatile unsigned int*)(UART_REG_IER)) & 0xF0) | 0x02; // set IER (interrupt enable register) on UART
e00000a4:	43d8                	lw	a4,4(a5)
e00000a6:	0f077713          	andi	a4,a4,240
e00000aa:	00276713          	ori	a4,a4,2
e00000ae:	c3d8                	sw	a4,4(a5)
}
e00000b0:	8082                	ret

e00000b2 <uart_send>:

  while(len > 0) {
    // process this in batches of 16 bytes to actually use the FIFO in the UART

    // wait until there is space in the fifo
    while( (*(volatile unsigned int*)(UART_REG_LSR) & 0x20) == 0);
e00000b2:	40000737          	lui	a4,0x40000
  while(len > 0) {
e00000b6:	e191                	bnez	a1,e00000ba <uart_send+0x8>
      *(volatile unsigned int*)(UART_REG_THR) = *str++;

      len--;
    }
  }
}
e00000b8:	8082                	ret
    while( (*(volatile unsigned int*)(UART_REG_LSR) & 0x20) == 0);
e00000ba:	4b5c                	lw	a5,20(a4)
e00000bc:	0207f793          	andi	a5,a5,32
e00000c0:	dfed                	beqz	a5,e00000ba <uart_send+0x8>
e00000c2:	04050793          	addi	a5,a0,64
      *(volatile unsigned int*)(UART_REG_THR) = *str++;
e00000c6:	0505                	addi	a0,a0,1
e00000c8:	fff54683          	lbu	a3,-1(a0)
      len--;
e00000cc:	15fd                	addi	a1,a1,-1
      *(volatile unsigned int*)(UART_REG_THR) = *str++;
e00000ce:	c314                	sw	a3,0(a4)
    for(i = 0; (i < UART_FIFO_DEPTH) && (len > 0); i++) {
e00000d0:	fef503e3          	beq	a0,a5,e00000b6 <uart_send+0x4>
e00000d4:	f9ed                	bnez	a1,e00000c6 <uart_send+0x14>
e00000d6:	8082                	ret

e00000d8 <uart_getchar>:

char uart_getchar() {
  while((*((volatile int*)UART_REG_LSR) & 0x1) != 0x1);
e00000d8:	40000737          	lui	a4,0x40000
e00000dc:	4b5c                	lw	a5,20(a4)
e00000de:	8b85                	andi	a5,a5,1
e00000e0:	dff5                	beqz	a5,e00000dc <uart_getchar+0x4>

  return *(volatile int*)UART_REG_RBR;
e00000e2:	4308                	lw	a0,0(a4)
}
e00000e4:	0ff57513          	andi	a0,a0,255
e00000e8:	8082                	ret

e00000ea <uart_sendchar>:

void uart_sendchar(const char c) {
  // wait until there is space in the fifo
  while( (*(volatile unsigned int*)(UART_REG_LSR) & 0x20) == 0);
e00000ea:	40000737          	lui	a4,0x40000
e00000ee:	4b5c                	lw	a5,20(a4)
e00000f0:	0207f793          	andi	a5,a5,32
e00000f4:	dfed                	beqz	a5,e00000ee <uart_sendchar+0x4>

  // load FIFO
  *(volatile unsigned int*)(UART_REG_THR) = c;
e00000f6:	c308                	sw	a0,0(a4)
}
e00000f8:	8082                	ret

e00000fa <qprints.constprop.2>:
  }
  else
    putchar((char)c);
}

static int qprints(char **out, const char *string, int width, int pad)
e00000fa:	1101                	addi	sp,sp,-32
e00000fc:	cc22                	sw	s0,24(sp)
e00000fe:	ca26                	sw	s1,20(sp)
e0000100:	c84a                	sw	s2,16(sp)
e0000102:	ce06                	sw	ra,28(sp)
e0000104:	c64e                	sw	s3,12(sp)
e0000106:	c452                	sw	s4,8(sp)
e0000108:	84aa                	mv	s1,a0
e000010a:	842e                	mv	s0,a1
{
  register int pc = 0, padchar = ' ';
e000010c:	02000913          	li	s2,32

  if (width > 0) {
e0000110:	02b05463          	blez	a1,e0000138 <qprints.constprop.2+0x3e>
e0000114:	87aa                	mv	a5,a0
e0000116:	a011                	j	e000011a <qprints.constprop.2+0x20>
    register int len = 0;
    register const char *ptr;
    for (ptr = string; *ptr; ++ptr) ++len;
e0000118:	0785                	addi	a5,a5,1
e000011a:	0007c683          	lbu	a3,0(a5) # 40000000 <tohost+0x3ffdfff8>
e000011e:	40978733          	sub	a4,a5,s1
e0000122:	fafd                	bnez	a3,e0000118 <qprints.constprop.2+0x1e>
    if (len >= width) width = 0;
e0000124:	02875163          	ble	s0,a4,e0000146 <qprints.constprop.2+0x4c>
    else width -= len;
e0000128:	8c19                	sub	s0,s0,a4
    if (pad & PAD_ZERO) padchar = '0';
e000012a:	00267793          	andi	a5,a2,2
  register int pc = 0, padchar = ' ';
e000012e:	02000913          	li	s2,32
    if (pad & PAD_ZERO) padchar = '0';
e0000132:	c399                	beqz	a5,e0000138 <qprints.constprop.2+0x3e>
e0000134:	03000913          	li	s2,48
  }
  if (!(pad & PAD_RIGHT)) {
e0000138:	8a05                	andi	a2,a2,1
  register int pc = 0, padchar = ' ';
e000013a:	4781                	li	a5,0
  if (!(pad & PAD_RIGHT)) {
e000013c:	e20d                	bnez	a2,e000015e <qprints.constprop.2+0x64>
e000013e:	89a2                	mv	s3,s0
  uart_sendchar(s);
e0000140:	0ff97a13          	andi	s4,s2,255
e0000144:	a031                	j	e0000150 <qprints.constprop.2+0x56>
    if (len >= width) width = 0;
e0000146:	4401                	li	s0,0
e0000148:	b7cd                	j	e000012a <qprints.constprop.2+0x30>
  uart_sendchar(s);
e000014a:	8552                	mv	a0,s4
e000014c:	3f79                	jal	e00000ea <uart_sendchar>
    for ( ; width > 0; --width) {
e000014e:	19fd                	addi	s3,s3,-1
e0000150:	ff304de3          	bgtz	s3,e000014a <qprints.constprop.2+0x50>
e0000154:	87a2                	mv	a5,s0
e0000156:	00045363          	bgez	s0,e000015c <qprints.constprop.2+0x62>
e000015a:	4781                	li	a5,0
e000015c:	8c1d                	sub	s0,s0,a5
e000015e:	409789b3          	sub	s3,a5,s1
e0000162:	a019                	j	e0000168 <qprints.constprop.2+0x6e>
  uart_sendchar(s);
e0000164:	3759                	jal	e00000ea <uart_sendchar>
      qprintchar (out, padchar);
      ++pc;
    }
  }
  for ( ; *string ; ++string) {
e0000166:	0485                	addi	s1,s1,1
e0000168:	0004c503          	lbu	a0,0(s1)
e000016c:	01348a33          	add	s4,s1,s3
e0000170:	f975                	bnez	a0,e0000164 <qprints.constprop.2+0x6a>
e0000172:	84a2                	mv	s1,s0
  uart_sendchar(s);
e0000174:	0ff97913          	andi	s2,s2,255
    qprintchar (out, *string);
    ++pc;
  }
  for ( ; width > 0; --width) {
e0000178:	00904f63          	bgtz	s1,e0000196 <qprints.constprop.2+0x9c>
    qprintchar (out, padchar);
    ++pc;
  }

  return pc;
e000017c:	00045363          	bgez	s0,e0000182 <qprints.constprop.2+0x88>
e0000180:	4401                	li	s0,0
}
e0000182:	01440533          	add	a0,s0,s4
e0000186:	40f2                	lw	ra,28(sp)
e0000188:	4462                	lw	s0,24(sp)
e000018a:	44d2                	lw	s1,20(sp)
e000018c:	4942                	lw	s2,16(sp)
e000018e:	49b2                	lw	s3,12(sp)
e0000190:	4a22                	lw	s4,8(sp)
e0000192:	6105                	addi	sp,sp,32
e0000194:	8082                	ret
  uart_sendchar(s);
e0000196:	854a                	mv	a0,s2
e0000198:	3f89                	jal	e00000ea <uart_sendchar>
  for ( ; width > 0; --width) {
e000019a:	14fd                	addi	s1,s1,-1
e000019c:	bff1                	j	e0000178 <qprints.constprop.2+0x7e>

e000019e <qprinti.constprop.1>:

static int qprinti(char **out, int i, int b, int sg, int width, int pad, char letbase)
e000019e:	7139                	addi	sp,sp,-64
e00001a0:	da26                	sw	s1,52(sp)
e00001a2:	de06                	sw	ra,60(sp)
e00001a4:	dc22                	sw	s0,56(sp)
e00001a6:	84b2                	mv	s1,a2
e00001a8:	863a                	mv	a2,a4
  char print_buf[PRINT_BUF_LEN];
  register char *s;
  register int neg = 0, pc = 0;
  unsigned int t,u = i;

  if (i == 0)
e00001aa:	ed09                	bnez	a0,e00001c4 <qprinti.constprop.1+0x26>
  {
    print_buf[0] = '0';
e00001ac:	03000793          	li	a5,48
    print_buf[1] = '\0';
    return qprints (out, print_buf, width, pad);
e00001b0:	85b6                	mv	a1,a3
e00001b2:	0808                	addi	a0,sp,16
    print_buf[0] = '0';
e00001b4:	00f11823          	sh	a5,16(sp)
    return qprints (out, print_buf, width, pad);
e00001b8:	3789                	jal	e00000fa <qprints.constprop.2>
    {
      *--s = '-';
    }
  }
  return pc + qprints (out, s, width, pad);
}
e00001ba:	50f2                	lw	ra,60(sp)
e00001bc:	5462                	lw	s0,56(sp)
e00001be:	54d2                	lw	s1,52(sp)
e00001c0:	6121                	addi	sp,sp,64
e00001c2:	8082                	ret
  if (sg && b == 10 && i < 0)
e00001c4:	c881                	beqz	s1,e00001d4 <qprinti.constprop.1+0x36>
e00001c6:	4729                	li	a4,10
e00001c8:	06e59d63          	bne	a1,a4,e0000242 <qprinti.constprop.1+0xa4>
e00001cc:	06055b63          	bgez	a0,e0000242 <qprinti.constprop.1+0xa4>
    u = -i;
e00001d0:	40a00533          	neg	a0,a0
  *s = '\0';
e00001d4:	020107a3          	sb	zero,47(sp)
  if(b == 16) {
e00001d8:	4741                	li	a4,16
  s = print_buf + PRINT_BUF_LEN-1;
e00001da:	02f10413          	addi	s0,sp,47
  if(b == 16) {
e00001de:	0ae58263          	beq	a1,a4,e0000282 <qprinti.constprop.1+0xe4>
  n = (0x19999999 * n + (n >> 1) + (n >> 3)) >> 28;
e00001e2:	1999a737          	lui	a4,0x1999a
  return remu10_table[n];
e00001e6:	00000317          	auipc	t1,0x0
e00001ea:	39630313          	addi	t1,t1,918 # e000057c <remu10_table>
  n = (0x19999999 * n + (n >> 1) + (n >> 3)) >> 28;
e00001ee:	99970713          	addi	a4,a4,-1639 # 19999999 <tohost+0x19979991>
  r = n - q * 10;
e00001f2:	4e29                	li	t3,10
    while (u) {
e00001f4:	c52d                	beqz	a0,e000025e <qprinti.constprop.1+0xc0>
  n = (0x19999999 * n + (n >> 1) + (n >> 3)) >> 28;
e00001f6:	02e50833          	mul	a6,a0,a4
e00001fa:	00155893          	srli	a7,a0,0x1
e00001fe:	00355793          	srli	a5,a0,0x3
      *--s = remu10(u) + '0';
e0000202:	147d                	addi	s0,s0,-1
  n = (0x19999999 * n + (n >> 1) + (n >> 3)) >> 28;
e0000204:	9846                	add	a6,a6,a7
e0000206:	983e                	add	a6,a6,a5
e0000208:	01c85813          	srli	a6,a6,0x1c
  return remu10_table[n];
e000020c:	981a                	add	a6,a6,t1
      *--s = remu10(u) + '0';
e000020e:	00084583          	lbu	a1,0(a6)
  q = (n >> 1) + (n >> 2);
e0000212:	00255793          	srli	a5,a0,0x2
e0000216:	97c6                	add	a5,a5,a7
      *--s = remu10(u) + '0';
e0000218:	03058593          	addi	a1,a1,48
e000021c:	00b40023          	sb	a1,0(s0)
  q = q + (q >> 4);
e0000220:	0047d593          	srli	a1,a5,0x4
e0000224:	97ae                	add	a5,a5,a1
  q = q + (q >> 8);
e0000226:	0087d593          	srli	a1,a5,0x8
e000022a:	97ae                	add	a5,a5,a1
  q = q + (q >> 16);
e000022c:	0107d593          	srli	a1,a5,0x10
e0000230:	97ae                	add	a5,a5,a1
  q = q >> 3;
e0000232:	838d                	srli	a5,a5,0x3
  r = n - q * 10;
e0000234:	03c785b3          	mul	a1,a5,t3
  return q + ((r + 6) >> 4);
e0000238:	0519                	addi	a0,a0,6
e000023a:	8d0d                	sub	a0,a0,a1
e000023c:	8111                	srli	a0,a0,0x4
e000023e:	953e                	add	a0,a0,a5
e0000240:	bf55                	j	e00001f4 <qprinti.constprop.1+0x56>
  register int neg = 0, pc = 0;
e0000242:	4481                	li	s1,0
e0000244:	bf41                	j	e00001d4 <qprinti.constprop.1+0x36>
      int t = u & 0xF;
e0000246:	00f57813          	andi	a6,a0,15
      if (t >= 10)
e000024a:	01075363          	ble	a6,a4,e0000250 <qprinti.constprop.1+0xb2>
        t += letbase - '0' - 10;
e000024e:	983e                	add	a6,a6,a5
      *--s = t + '0';
e0000250:	147d                	addi	s0,s0,-1
e0000252:	03080813          	addi	a6,a6,48
e0000256:	01040023          	sb	a6,0(s0)
      u >>= 4;
e000025a:	8111                	srli	a0,a0,0x4
    while (u) {
e000025c:	f56d                	bnez	a0,e0000246 <qprinti.constprop.1+0xa8>
  if (neg) {
e000025e:	cc89                	beqz	s1,e0000278 <qprinti.constprop.1+0xda>
    if( width && (pad & PAD_ZERO) )
e0000260:	c68d                	beqz	a3,e000028a <qprinti.constprop.1+0xec>
e0000262:	00267793          	andi	a5,a2,2
e0000266:	c395                	beqz	a5,e000028a <qprinti.constprop.1+0xec>
  uart_sendchar(s);
e0000268:	02d00513          	li	a0,45
e000026c:	c632                	sw	a2,12(sp)
e000026e:	c436                	sw	a3,8(sp)
e0000270:	3dad                	jal	e00000ea <uart_sendchar>
      --width;
e0000272:	46a2                	lw	a3,8(sp)
e0000274:	4632                	lw	a2,12(sp)
e0000276:	16fd                	addi	a3,a3,-1
  return pc + qprints (out, s, width, pad);
e0000278:	85b6                	mv	a1,a3
e000027a:	8522                	mv	a0,s0
e000027c:	3dbd                	jal	e00000fa <qprints.constprop.2>
e000027e:	9526                	add	a0,a0,s1
e0000280:	bf2d                	j	e00001ba <qprinti.constprop.1+0x1c>
      if (t >= 10)
e0000282:	4725                	li	a4,9
        t += letbase - '0' - 10;
e0000284:	fc678793          	addi	a5,a5,-58
e0000288:	bfd1                	j	e000025c <qprinti.constprop.1+0xbe>
      *--s = '-';
e000028a:	02d00793          	li	a5,45
e000028e:	fef40fa3          	sb	a5,-1(s0)
  register int neg = 0, pc = 0;
e0000292:	4481                	li	s1,0
      *--s = '-';
e0000294:	147d                	addi	s0,s0,-1
e0000296:	b7cd                	j	e0000278 <qprinti.constprop.1+0xda>

e0000298 <uart_wait_tx_done>:
  while( (*(volatile unsigned int*)(UART_REG_LSR) & 0x40) == 0);
e0000298:	40000737          	lui	a4,0x40000
e000029c:	4b5c                	lw	a5,20(a4)
e000029e:	0407f793          	andi	a5,a5,64
e00002a2:	dfed                	beqz	a5,e000029c <uart_wait_tx_done+0x4>
}
e00002a4:	8082                	ret

e00002a6 <putchar>:
{
e00002a6:	1141                	addi	sp,sp,-16
e00002a8:	c422                	sw	s0,8(sp)
e00002aa:	842a                	mv	s0,a0
  uart_sendchar(s);
e00002ac:	0ff57513          	andi	a0,a0,255
{
e00002b0:	c606                	sw	ra,12(sp)
  uart_sendchar(s);
e00002b2:	3d25                	jal	e00000ea <uart_sendchar>
}
e00002b4:	8522                	mv	a0,s0
e00002b6:	40b2                	lw	ra,12(sp)
e00002b8:	4422                	lw	s0,8(sp)
e00002ba:	0141                	addi	sp,sp,16
e00002bc:	8082                	ret

e00002be <printf>:

  return pc;
}

int printf(const char *format, ...)
{
e00002be:	711d                	addi	sp,sp,-96
e00002c0:	dc22                	sw	s0,56(sp)
  int pc;
  va_list va;

  va_start(va, format);
e00002c2:	00c0                	addi	s0,sp,68
{
e00002c4:	da26                	sw	s1,52(sp)
e00002c6:	d84a                	sw	s2,48(sp)
e00002c8:	d64e                	sw	s3,44(sp)
e00002ca:	d452                	sw	s4,40(sp)
e00002cc:	d256                	sw	s5,36(sp)
e00002ce:	d05a                	sw	s6,32(sp)
e00002d0:	ce5e                	sw	s7,28(sp)
e00002d2:	de06                	sw	ra,60(sp)
e00002d4:	cc62                	sw	s8,24(sp)
e00002d6:	8baa                	mv	s7,a0
e00002d8:	c2ae                	sw	a1,68(sp)
e00002da:	c4b2                	sw	a2,72(sp)
e00002dc:	c6b6                	sw	a3,76(sp)
e00002de:	c8ba                	sw	a4,80(sp)
e00002e0:	cabe                	sw	a5,84(sp)
e00002e2:	ccc2                	sw	a6,88(sp)
e00002e4:	cec6                	sw	a7,92(sp)
  va_start(va, format);
e00002e6:	c622                	sw	s0,12(sp)
  register int pc = 0;
e00002e8:	4b01                	li	s6,0
    if (*format == '%')
e00002ea:	02500493          	li	s1,37
      if (*format == '-')
e00002ee:	02d00913          	li	s2,45
      while (*format == '0')
e00002f2:	03000993          	li	s3,48
        width *= 10;
e00002f6:	4a29                	li	s4,10
        pc += qprints (out, s?s:"(null)", width, pad);
e00002f8:	00000a97          	auipc	s5,0x0
e00002fc:	26ca8a93          	addi	s5,s5,620 # e0000564 <main+0x88>
  for (; *format != 0; ++format)
e0000300:	000bc783          	lbu	a5,0(s7)
e0000304:	ef91                	bnez	a5,e0000320 <printf+0x62>

  va_end(va);

  return pc;

}
e0000306:	50f2                	lw	ra,60(sp)
e0000308:	5462                	lw	s0,56(sp)
e000030a:	855a                	mv	a0,s6
e000030c:	54d2                	lw	s1,52(sp)
e000030e:	5942                	lw	s2,48(sp)
e0000310:	59b2                	lw	s3,44(sp)
e0000312:	5a22                	lw	s4,40(sp)
e0000314:	5a92                	lw	s5,36(sp)
e0000316:	5b02                	lw	s6,32(sp)
e0000318:	4bf2                	lw	s7,28(sp)
e000031a:	4c62                	lw	s8,24(sp)
e000031c:	6125                	addi	sp,sp,96
e000031e:	8082                	ret
    if (*format == '%')
e0000320:	0e979663          	bne	a5,s1,e000040c <printf+0x14e>
      if (*format == '\0') break;
e0000324:	001bc683          	lbu	a3,1(s7)
e0000328:	def9                	beqz	a3,e0000306 <printf+0x48>
e000032a:	001b8793          	addi	a5,s7,1
      if (*format == '%') goto out;
e000032e:	0c968e63          	beq	a3,s1,e000040a <printf+0x14c>
      width = pad = 0;
e0000332:	4701                	li	a4,0
      if (*format == '-')
e0000334:	01269563          	bne	a3,s2,e000033e <printf+0x80>
        ++format;
e0000338:	002b8793          	addi	a5,s7,2
        pad = PAD_RIGHT;
e000033c:	4705                	li	a4,1
e000033e:	8bbe                	mv	s7,a5
      while (*format == '0')
e0000340:	000bc783          	lbu	a5,0(s7)
e0000344:	001b8693          	addi	a3,s7,1
e0000348:	03378b63          	beq	a5,s3,e000037e <printf+0xc0>
      width = pad = 0;
e000034c:	4681                	li	a3,0
      for ( ; *format >= '0' && *format <= '9'; ++format) {
e000034e:	4525                	li	a0,9
e0000350:	000bc783          	lbu	a5,0(s7)
e0000354:	001b8813          	addi	a6,s7,1
e0000358:	fd078613          	addi	a2,a5,-48
e000035c:	0ff67593          	andi	a1,a2,255
e0000360:	02b57363          	bleu	a1,a0,e0000386 <printf+0xc8>
      if( *format == 's' ) {
e0000364:	07300613          	li	a2,115
e0000368:	02c79463          	bne	a5,a2,e0000390 <printf+0xd2>
        register char *s = va_arg(va, char*);
e000036c:	4008                	lw	a0,0(s0)
e000036e:	00440c13          	addi	s8,s0,4
        pc += qprints (out, s?s:"(null)", width, pad);
e0000372:	e111                	bnez	a0,e0000376 <printf+0xb8>
e0000374:	8556                	mv	a0,s5
e0000376:	863a                	mv	a2,a4
e0000378:	85b6                	mv	a1,a3
        pc += qprints (out, scr, width, pad);
e000037a:	3341                	jal	e00000fa <qprints.constprop.2>
e000037c:	a035                	j	e00003a8 <printf+0xea>
        pad |= PAD_ZERO;
e000037e:	00276713          	ori	a4,a4,2
        ++format;
e0000382:	8bb6                	mv	s7,a3
e0000384:	bf75                	j	e0000340 <printf+0x82>
        width *= 10;
e0000386:	034686b3          	mul	a3,a3,s4
      for ( ; *format >= '0' && *format <= '9'; ++format) {
e000038a:	8bc2                	mv	s7,a6
        width += *format - '0';
e000038c:	96b2                	add	a3,a3,a2
e000038e:	b7c9                	j	e0000350 <printf+0x92>
      if( *format == 'd' ) {
e0000390:	06400613          	li	a2,100
e0000394:	00c79e63          	bne	a5,a2,e00003b0 <printf+0xf2>
        pc += qprinti (out, va_arg(va, int), 10, 1, width, pad, 'a');
e0000398:	00440c13          	addi	s8,s0,4
e000039c:	06100793          	li	a5,97
e00003a0:	4605                	li	a2,1
e00003a2:	45a9                	li	a1,10
e00003a4:	4008                	lw	a0,0(s0)
e00003a6:	3be5                	jal	e000019e <qprinti.constprop.1>
e00003a8:	9b2a                	add	s6,s6,a0
e00003aa:	8462                	mv	s0,s8
  for (; *format != 0; ++format)
e00003ac:	0b85                	addi	s7,s7,1
e00003ae:	bf89                	j	e0000300 <printf+0x42>
      if( *format == 'u' ) {
e00003b0:	07500613          	li	a2,117
e00003b4:	00c79863          	bne	a5,a2,e00003c4 <printf+0x106>
        pc += qprinti (out, va_arg(va, unsigned int), 10, 0, width, pad, 'a');
e00003b8:	00440c13          	addi	s8,s0,4
e00003bc:	06100793          	li	a5,97
e00003c0:	4601                	li	a2,0
e00003c2:	b7c5                	j	e00003a2 <printf+0xe4>
      if( *format == 'x' ) {
e00003c4:	07800613          	li	a2,120
e00003c8:	00c79963          	bne	a5,a2,e00003da <printf+0x11c>
        pc += qprinti (out, va_arg(va, uint32_t), 16, 0, width, pad, 'a');
e00003cc:	00440c13          	addi	s8,s0,4
e00003d0:	06100793          	li	a5,97
        pc += qprinti (out, va_arg(va, uint32_t), 16, 0, width, pad, 'A');
e00003d4:	4601                	li	a2,0
e00003d6:	45c1                	li	a1,16
e00003d8:	b7f1                	j	e00003a4 <printf+0xe6>
      if( *format == 'X' ) {
e00003da:	05800613          	li	a2,88
e00003de:	00c79763          	bne	a5,a2,e00003ec <printf+0x12e>
        pc += qprinti (out, va_arg(va, uint32_t), 16, 0, width, pad, 'A');
e00003e2:	00440c13          	addi	s8,s0,4
e00003e6:	04100793          	li	a5,65
e00003ea:	b7ed                	j	e00003d4 <printf+0x116>
      if( *format == 'c' ) {
e00003ec:	06300613          	li	a2,99
e00003f0:	fac79ee3          	bne	a5,a2,e00003ac <printf+0xee>
        scr[0] = va_arg(va, int);
e00003f4:	401c                	lw	a5,0(s0)
e00003f6:	00440c13          	addi	s8,s0,4
        scr[1] = '\0';
e00003fa:	000104a3          	sb	zero,9(sp)
        scr[0] = va_arg(va, int);
e00003fe:	00f10423          	sb	a5,8(sp)
        pc += qprints (out, scr, width, pad);
e0000402:	863a                	mv	a2,a4
e0000404:	85b6                	mv	a1,a3
e0000406:	0028                	addi	a0,sp,8
e0000408:	bf8d                	j	e000037a <printf+0xbc>
      ++format;
e000040a:	8bbe                	mv	s7,a5
  uart_sendchar(s);
e000040c:	000bc503          	lbu	a0,0(s7)
      ++pc;
e0000410:	0b05                	addi	s6,s6,1
  uart_sendchar(s);
e0000412:	39e1                	jal	e00000ea <uart_sendchar>
e0000414:	bf61                	j	e00003ac <printf+0xee>

e0000416 <simple_exc_handler>:
  printf("EXCEPTION!!!\r\n");
e0000416:	00000517          	auipc	a0,0x0
e000041a:	15650513          	addi	a0,a0,342 # e000056c <main+0x90>
e000041e:	b545                	j	e00002be <printf>

e0000420 <puts>:

int puts(const char *s)
{
e0000420:	1141                	addi	sp,sp,-16
e0000422:	c422                	sw	s0,8(sp)
e0000424:	c226                	sw	s1,4(sp)
e0000426:	c606                	sw	ra,12(sp)
e0000428:	c04a                	sw	s2,0(sp)
e000042a:	84aa                	mv	s1,a0
  int i=0;

  while(s[i] != '\0')
e000042c:	842a                	mv	s0,a0
e000042e:	40940933          	sub	s2,s0,s1
e0000432:	0405                	addi	s0,s0,1
e0000434:	fff44503          	lbu	a0,-1(s0)
e0000438:	e911                	bnez	a0,e000044c <puts+0x2c>
  uart_sendchar(s);
e000043a:	4529                	li	a0,10
e000043c:	317d                	jal	e00000ea <uart_sendchar>
    putchar(s[i++]);

  putchar('\n');

  return i;
}
e000043e:	40b2                	lw	ra,12(sp)
e0000440:	4422                	lw	s0,8(sp)
e0000442:	854a                	mv	a0,s2
e0000444:	4492                	lw	s1,4(sp)
e0000446:	4902                	lw	s2,0(sp)
e0000448:	0141                	addi	sp,sp,16
e000044a:	8082                	ret
  uart_sendchar(s);
e000044c:	3979                	jal	e00000ea <uart_sendchar>
e000044e:	b7c5                	j	e000042e <puts+0xe>

e0000450 <external_irq_handler>:
    while(1);
}


void external_irq_handler(void)  {
}
e0000450:	8082                	ret

e0000452 <default_exc_handler>:
  jal x0, sleep_loop //exc handler
e0000452:	0840006f          	j	e00004d6 <sleep_loop>

e0000456 <reset_handler>:
  mv  x1, x0
e0000456:	00000093          	li	ra,0
  mv  x2, x1
e000045a:	8106                	mv	sp,ra
  mv  x3, x1
e000045c:	8186                	mv	gp,ra
  mv  x4, x1
e000045e:	8206                	mv	tp,ra
  mv  x5, x1
e0000460:	8286                	mv	t0,ra
  mv  x6, x1
e0000462:	8306                	mv	t1,ra
  mv  x7, x1
e0000464:	8386                	mv	t2,ra
  mv  x8, x1
e0000466:	8406                	mv	s0,ra
  mv  x9, x1
e0000468:	8486                	mv	s1,ra
  mv x10, x1
e000046a:	8506                	mv	a0,ra
  mv x11, x1
e000046c:	8586                	mv	a1,ra
  mv x12, x1
e000046e:	8606                	mv	a2,ra
  mv x13, x1
e0000470:	8686                	mv	a3,ra
  mv x14, x1
e0000472:	8706                	mv	a4,ra
  mv x15, x1
e0000474:	8786                	mv	a5,ra
  mv x16, x1
e0000476:	8806                	mv	a6,ra
  mv x17, x1
e0000478:	8886                	mv	a7,ra
  mv x18, x1
e000047a:	8906                	mv	s2,ra
  mv x19, x1
e000047c:	8986                	mv	s3,ra
  mv x20, x1
e000047e:	8a06                	mv	s4,ra
  mv x21, x1
e0000480:	8a86                	mv	s5,ra
  mv x22, x1
e0000482:	8b06                	mv	s6,ra
  mv x23, x1
e0000484:	8b86                	mv	s7,ra
  mv x24, x1
e0000486:	8c06                	mv	s8,ra
  mv x25, x1
e0000488:	8c86                	mv	s9,ra
  mv x26, x1
e000048a:	8d06                	mv	s10,ra
  mv x27, x1
e000048c:	8d86                	mv	s11,ra
  mv x28, x1
e000048e:	8e06                	mv	t3,ra
  mv x29, x1
e0000490:	8e86                	mv	t4,ra
  mv x30, x1
e0000492:	8f06                	mv	t5,ra
  mv x31, x1
e0000494:	8f86                	mv	t6,ra
  la   x2, _stack_start
e0000496:	00010117          	auipc	sp,0x10
e000049a:	b6a10113          	addi	sp,sp,-1174 # e0010000 <_stack_start>

e000049e <_start>:
  la x26, _bss_start
e000049e:	00000d17          	auipc	s10,0x0
e00004a2:	0eed0d13          	addi	s10,s10,238 # e000058c <_bss_end>
  la x27, _bss_end
e00004a6:	00000d97          	auipc	s11,0x0
e00004aa:	0e6d8d93          	addi	s11,s11,230 # e000058c <_bss_end>
  bge x26, x27, zero_loop_end
e00004ae:	01bd5763          	ble	s11,s10,e00004bc <main_entry>

e00004b2 <zero_loop>:
  sw x0, 0(x26)
e00004b2:	000d2023          	sw	zero,0(s10)
  addi x26, x26, 4
e00004b6:	0d11                	addi	s10,s10,4
  ble x26, x27, zero_loop
e00004b8:	ffaddde3          	ble	s10,s11,e00004b2 <zero_loop>

e00004bc <main_entry>:
  addi x10, x0, 0
e00004bc:	00000513          	li	a0,0
  addi x11, x0, 0
e00004c0:	00000593          	li	a1,0
  jal x1, main
e00004c4:	018000ef          	jal	ra,e00004dc <main>
  li a0, 0xc11c0018
e00004c8:	c11c0537          	lui	a0,0xc11c0
e00004cc:	01850513          	addi	a0,a0,24 # c11c0018 <fromhost+0xe11b0008>
  li t0, 0x1
e00004d0:	4285                	li	t0,1
  sw t0, 0(a0)
e00004d2:	00552023          	sw	t0,0(a0)

e00004d6 <sleep_loop>:
  wfi
e00004d6:	10500073          	wfi
  j sleep_loop
e00004da:	bff5                	j	e00004d6 <sleep_loop>

e00004dc <main>:
int main(int argc, char **argv) {
e00004dc:	4781                	li	a5,0
   *pointer = i*4;
e00004de:	1e000637          	lui	a2,0x1e000
  for (int i=0; i<NUM_ITER; i++){
e00004e2:	07800693          	li	a3,120
   *pointer = i*4;
e00004e6:	00c78733          	add	a4,a5,a2
e00004ea:	070a                	slli	a4,a4,0x2
e00004ec:	c31c                	sw	a5,0(a4)
e00004ee:	0791                	addi	a5,a5,4
  for (int i=0; i<NUM_ITER; i++){
e00004f0:	fed79be3          	bne	a5,a3,e00004e6 <main+0xa>
e00004f4:	4781                	li	a5,0
  int check_l2 = 0;
e00004f6:	4701                	li	a4,0
    if(*pointer == i*4)
e00004f8:	1e0005b7          	lui	a1,0x1e000
  for (int i=0; i<NUM_ITER; i++){
e00004fc:	07800613          	li	a2,120
    if(*pointer == i*4)
e0000500:	00b786b3          	add	a3,a5,a1
e0000504:	068a                	slli	a3,a3,0x2
e0000506:	4294                	lw	a3,0(a3)
e0000508:	00f69363          	bne	a3,a5,e000050e <main+0x32>
      check_l2++;
e000050c:	0705                	addi	a4,a4,1
e000050e:	0791                	addi	a5,a5,4
  for (int i=0; i<NUM_ITER; i++){
e0000510:	fec798e3          	bne	a5,a2,e0000500 <main+0x24>
e0000514:	4781                	li	a5,0
   *pointer = i*4;
e0000516:	201005b7          	lui	a1,0x20100
  for (int i=0; i<NUM_ITER; i++){
e000051a:	07800613          	li	a2,120
   *pointer = i*4;
e000051e:	00b786b3          	add	a3,a5,a1
e0000522:	068a                	slli	a3,a3,0x2
e0000524:	c29c                	sw	a5,0(a3)
e0000526:	0791                	addi	a5,a5,4
  for (int i=0; i<NUM_ITER; i++){
e0000528:	fec79be3          	bne	a5,a2,e000051e <main+0x42>
e000052c:	4781                	li	a5,0
  int check_l3 = 0;
e000052e:	4681                	li	a3,0
    if(*pointer == i*4)
e0000530:	20100537          	lui	a0,0x20100
  for (int i=0; i<NUM_ITER; i++){
e0000534:	07800593          	li	a1,120
    if(*pointer == i*4)
e0000538:	00a78633          	add	a2,a5,a0
e000053c:	060a                	slli	a2,a2,0x2
e000053e:	4210                	lw	a2,0(a2)
e0000540:	00f61363          	bne	a2,a5,e0000546 <main+0x6a>
      check_l3++;
e0000544:	0685                	addi	a3,a3,1
e0000546:	0791                	addi	a5,a5,4
  for (int i=0; i<NUM_ITER; i++){
e0000548:	feb798e3          	bne	a5,a1,e0000538 <main+0x5c>
  if( check_l2 == NUM_ITER && check_l3 == NUM_ITER )
e000054c:	47f9                	li	a5,30
e000054e:	00f71463          	bne	a4,a5,e0000556 <main+0x7a>
e0000552:	00e68763          	beq	a3,a4,e0000560 <main+0x84>
   *pointer = 0xffffffff;
e0000556:	c11c07b7          	lui	a5,0xc11c0
e000055a:	577d                	li	a4,-1
e000055c:	cf98                	sw	a4,24(a5)
e000055e:	a001                	j	e000055e <main+0x82>
}
e0000560:	4501                	li	a0,0
e0000562:	8082                	ret

Disassembly of section .rodata:

e0000564 <.rodata>:
e0000564:	6e28                	flw	fa0,88(a2)
e0000566:	6c75                	lui	s8,0x1d
e0000568:	296c                	fld	fa1,208(a0)
e000056a:	0000                	unimp
e000056c:	5845                	li	a6,-15
e000056e:	54504543          	0x54504543
e0000572:	4f49                	li	t5,18
e0000574:	214e                	fld	ft2,208(sp)
e0000576:	2121                	jal	e000097e <_bss_end+0x3f2>
e0000578:	0a0d                	addi	s4,s4,3
	...

Disassembly of section .data:

e000057c <remu10_table>:
char remu10_table[16] = {
e000057c:	0100                	addi	s0,sp,128
e000057e:	0202                	slli	tp,tp,0x0
e0000580:	05040303          	lb	t1,80(s0)
e0000584:	0605                	addi	a2,a2,1
e0000586:	08080707          	0x8080707
e000058a:	0009                	c.addi	zero,2

Disassembly of section .stack:

e0008000 <_stack-0x2000>:
	...

Disassembly of section .debug_info:

00000000 <.debug_info>:
   0:	083e                	slli	a6,a6,0xf
   2:	0000                	unimp
   4:	0004                	0x4
   6:	0000                	unimp
   8:	0000                	unimp
   a:	0104                	addi	s1,sp,128
   c:	018a                	slli	gp,gp,0x2
   e:	0000                	unimp
  10:	270c                	fld	fa1,8(a4)
  12:	0000                	unimp
  14:	ed00                	fsw	fs0,24(a0)
  16:	0001                	nop
  18:	8400                	0x8400
  1a:	0000                	unimp
  1c:	cce0                	sw	s0,92(s1)
  1e:	00000003          	lb	zero,0(zero) # 0 <_min_stack-0x2000>
  22:	0000                	unimp
  24:	0200                	addi	s0,sp,256
  26:	0244                	addi	s1,sp,260
  28:	0000                	unimp
  2a:	2802                	fld	fa6,0(sp)
  2c:	0030                	addi	a2,sp,8
  2e:	0000                	unimp
  30:	01630403          	lb	s0,22(t1)
  34:	0000                	unimp
  36:	4b02                	lw	s6,0(sp)
  38:	0002                	0x2
  3a:	0200                	addi	s0,sp,256
  3c:	00002563          	0x2563
  40:	0400                	addi	s0,sp,512
  42:	0504                	addi	s1,sp,640
  44:	6e69                	lui	t3,0x1a
  46:	0074                	addi	a3,sp,12
  48:	0405                	addi	s0,s0,1
  4a:	00011907          	0x11907
  4e:	0500                	addi	s0,sp,640
  50:	0508                	addi	a0,sp,640
  52:	00000087          	0x87
  56:	1005                	c.addi	zero,-31
  58:	e304                	fsw	fs1,0(a4)
  5a:	0000                	unimp
  5c:	0500                	addi	s0,sp,640
  5e:	0601                	addi	a2,a2,0
  60:	00f1                	addi	ra,ra,28
  62:	0000                	unimp
  64:	0205                	addi	tp,tp,1
  66:	0005                	c.addi	zero,1
  68:	0000                	unimp
  6a:	0500                	addi	s0,sp,640
  6c:	0504                	addi	s1,sp,640
  6e:	008c                	addi	a1,sp,64
  70:	0000                	unimp
  72:	0105                	addi	sp,sp,1
  74:	ef08                	fsw	fa0,24(a4)
  76:	0000                	unimp
  78:	0200                	addi	s0,sp,256
  7a:	012d                	addi	sp,sp,11
  7c:	0000                	unimp
  7e:	00843103          	0x843103
  82:	0000                	unimp
  84:	0205                	addi	tp,tp,1
  86:	00013b07          	fld	fs6,0(sp)
  8a:	0500                	addi	s0,sp,640
  8c:	0704                	addi	s1,sp,896
  8e:	0114                	addi	a3,sp,128
  90:	0000                	unimp
  92:	0805                	addi	a6,a6,1
  94:	00010f07          	0x10f07
  98:	0600                	addi	s0,sp,768
  9a:	00a9                	addi	ra,ra,10
  9c:	0000                	unimp
  9e:	00a9                	addi	ra,ra,10
  a0:	0000                	unimp
  a2:	00004807          	flq	fa6,0(zero) # 0 <_min_stack-0x2000>
  a6:	0f00                	addi	s0,sp,912
  a8:	0500                	addi	s0,sp,640
  aa:	0801                	addi	a6,a6,0
  ac:	00f8                	addi	a4,sp,76
  ae:	0000                	unimp
  b0:	a908                	fsd	fa0,16(a0)
  b2:	0000                	unimp
  b4:	0900                	addi	s0,sp,144
  b6:	0095                	addi	ra,ra,5
  b8:	0000                	unimp
  ba:	8001                	srli	s0,s0,0x0
  bc:	0099                	addi	ra,ra,6
  be:	0000                	unimp
  c0:	0305                	addi	t1,t1,1
  c2:	057c                	addi	a5,sp,652
  c4:	e000                	fsw	fs0,0(s0)
  c6:	360a                	fld	fa2,160(sp)
  c8:	0001                	nop
  ca:	0100                	addi	s0,sp,128
  cc:	0146                	slli	sp,sp,0x11
  ce:	0041                	c.addi	zero,16
  d0:	0000                	unimp
  d2:	0420                	addi	s0,sp,520
  d4:	e000                	fsw	fs0,0(s0)
  d6:	0030                	addi	a2,sp,8
  d8:	0000                	unimp
  da:	9c01                	0x9c01
  dc:	014d                	addi	sp,sp,19
  de:	0000                	unimp
  e0:	0100730b          	0x100730b
  e4:	0146                	slli	sp,sp,0x11
  e6:	014d                	addi	sp,sp,19
  e8:	0000                	unimp
  ea:	0000                	unimp
  ec:	0000                	unimp
  ee:	690c                	flw	fa1,16(a0)
  f0:	0100                	addi	s0,sp,128
  f2:	0148                	addi	a0,sp,132
  f4:	0041                	c.addi	zero,16
  f6:	0000                	unimp
  f8:	00000037          	lui	zero,0x0
  fc:	2b0d                	jal	62e <_min_stack-0x19d2>
  fe:	0004                	0x4
 100:	3a00                	fld	fs0,48(a2)
 102:	0004                	0x4
 104:	04e0                	addi	s0,sp,588
 106:	0000                	unimp
 108:	0100                	addi	s0,sp,128
 10a:	014d                	addi	sp,sp,19
 10c:	0129                	addi	sp,sp,10
 10e:	0000                	unimp
 110:	3b0e                	fld	fs6,224(sp)
 112:	0004                	0x4
 114:	7100                	flw	fs0,32(a0)
 116:	0000                	unimp
 118:	0f00                	addi	s0,sp,912
 11a:	043e                	slli	s0,s0,0xf
 11c:	e000                	fsw	fs0,0(s0)
 11e:	049c                	addi	a5,sp,576
 120:	0000                	unimp
 122:	0110                	addi	a2,sp,128
 124:	015a                	slli	sp,sp,0x16
 126:	003a                	0x3a
 128:	1100                	addi	s0,sp,160
 12a:	0000042b          	0x42b
 12e:	044c                	addi	a1,sp,516
 130:	e000                	fsw	fs0,0(s0)
 132:	0004                	0x4
 134:	0000                	unimp
 136:	4b01                	li	s6,0
 138:	0e01                	addi	t3,t3,0
 13a:	0000043b          	0x43b
 13e:	0085                	addi	ra,ra,1
 140:	0000                	unimp
 142:	4e12                	lw	t3,4(sp)
 144:	0004                	0x4
 146:	9ce0                	0x9ce0
 148:	0004                	0x4
 14a:	0000                	unimp
 14c:	1300                	addi	s0,sp,416
 14e:	b004                	fsd	fs1,32(s0)
 150:	0000                	unimp
 152:	0a00                	addi	s0,sp,272
 154:	00be                	slli	ra,ra,0xf
 156:	0000                	unimp
 158:	3701                	jal	58 <_min_stack-0x1fa8>
 15a:	4101                	li	sp,0
 15c:	0000                	unimp
 15e:	be00                	fsd	fs0,56(a2)
 160:	0002                	0x2
 162:	58e0                	lw	s0,116(s1)
 164:	0001                	nop
 166:	0100                	addi	s0,sp,128
 168:	659c                	flw	fa5,8(a1)
 16a:	0002                	0x2
 16c:	1400                	addi	s0,sp,544
 16e:	025d                	addi	tp,tp,23
 170:	0000                	unimp
 172:	3701                	jal	72 <_min_stack-0x1f8e>
 174:	4d01                	li	s10,0
 176:	0001                	nop
 178:	9d00                	0x9d00
 17a:	0000                	unimp
 17c:	1500                	addi	s0,sp,672
 17e:	7016                	flw	ft0,100(sp)
 180:	39010063          	beq	sp,a6,500 <_min_stack-0x1b00>
 184:	4101                	li	sp,0
 186:	0000                	unimp
 188:	1700                	addi	s0,sp,928
 18a:	6176                	flw	ft2,92(sp)
 18c:	0100                	addi	s0,sp,128
 18e:	013a                	slli	sp,sp,0xe
 190:	0036                	0x36
 192:	0000                	unimp
 194:	7fac9103          	lh	sp,2042(s9)
 198:	6518                	flw	fa4,8(a0)
 19a:	0002                	0x2
 19c:	e800                	fsw	fs0,16(s0)
 19e:	0002                	0x2
 1a0:	d8e0                	sw	s0,116(s1)
 1a2:	0000                	unimp
 1a4:	0100                	addi	s0,sp,128
 1a6:	013e                	slli	sp,sp,0xf
 1a8:	7519                	lui	a0,0xfffe6
 1aa:	0002                	0x2
 1ac:	0000                	unimp
 1ae:	8b0e                	mv	s6,gp
 1b0:	0002                	0x2
 1b2:	be00                	fsd	fs0,56(a2)
 1b4:	0000                	unimp
 1b6:	0e00                	addi	s0,sp,784
 1b8:	0280                	addi	s0,sp,320
 1ba:	0000                	unimp
 1bc:	0160                	addi	s0,sp,140
 1be:	0000                	unimp
 1c0:	d81a                	sw	t1,48(sp)
 1c2:	0000                	unimp
 1c4:	1b00                	addi	s0,sp,432
 1c6:	0295                	addi	t0,t0,5
 1c8:	0000                	unimp
 1ca:	0226                	slli	tp,tp,0x9
 1cc:	0000                	unimp
 1ce:	0002a01b          	0x2a01b
 1d2:	7e00                	flw	fs0,56(a2)
 1d4:	0002                	0x2
 1d6:	1b00                	addi	s0,sp,432
 1d8:	000002ab          	0x2ab
 1dc:	02d6                	slli	t0,t0,0x15
 1de:	0000                	unimp
 1e0:	b51c                	fsd	fa5,40(a0)
 1e2:	0002                	0x2
 1e4:	0300                	addi	s0,sp,384
 1e6:	a891                	j	23a <_min_stack-0x1dc6>
 1e8:	1d7f                	0x1d7f
 1ea:	02c0                	addi	s0,sp,324
 1ec:	0000                	unimp
 1ee:	040c                	addi	a1,sp,512
 1f0:	e000                	fsw	fs0,0(s0)
 1f2:	c81e                	sw	t2,16(sp)
 1f4:	0002                	0x2
 1f6:	f000                	fsw	fs0,32(s0)
 1f8:	0000                	unimp
 1fa:	0700                	addi	s0,sp,896
 1fc:	0002                	0x2
 1fe:	1c00                	addi	s0,sp,560
 200:	02c9                	addi	t0,t0,18
 202:	0000                	unimp
 204:	5a01                	li	s4,-32
 206:	1f00                	addi	s0,sp,944
 208:	040a                	slli	s0,s0,0x2
 20a:	0000                	unimp
 20c:	040c                	addi	a1,sp,512
 20e:	e000                	fsw	fs0,0(s0)
 210:	0108                	addi	a0,sp,128
 212:	0000                	unimp
 214:	2e01                	jal	524 <_min_stack-0x1adc>
 216:	5001                	0x5001
 218:	0002                	0x2
 21a:	0e00                	addi	s0,sp,784
 21c:	0416                	slli	s0,s0,0x5
 21e:	0000                	unimp
 220:	00000317          	auipc	t1,0x0
 224:	210e                	fld	ft2,192(sp)
 226:	0004                	0x4
 228:	2b00                	fld	fs0,16(a4)
 22a:	20000003          	lb	zero,512(zero) # 200 <_min_stack-0x1e00>
 22e:	0000042b          	0x42b
 232:	040c                	addi	a1,sp,512
 234:	e000                	fsw	fs0,0(s0)
 236:	0108                	addi	a0,sp,128
 238:	0000                	unimp
 23a:	9801                	andi	s0,s0,-32
 23c:	3b0e                	fld	fs6,224(sp)
 23e:	0004                	0x4
 240:	2b00                	fld	fs0,16(a4)
 242:	12000003          	lb	zero,288(zero) # 120 <_min_stack-0x1ee0>
 246:	0414                	addi	a3,sp,512
 248:	e000                	fsw	fs0,0(s0)
 24a:	049c                	addi	a5,sp,576
 24c:	0000                	unimp
 24e:	0000                	unimp
 250:	7c12                	flw	fs8,36(sp)
 252:	74e00003          	lb	zero,1870(zero) # 74e <_min_stack-0x18b2>
 256:	0005                	c.addi	zero,1
 258:	1200                	addi	s0,sp,288
 25a:	03a8                	addi	a0,sp,456
 25c:	e000                	fsw	fs0,0(s0)
 25e:	06ad                	addi	a3,a3,11
 260:	0000                	unimp
 262:	0000                	unimp
 264:	2100                	fld	fs0,0(a0)
 266:	0126                	slli	sp,sp,0x9
 268:	0000                	unimp
 26a:	f301                	bnez	a4,16a <_min_stack-0x1e96>
 26c:	0041                	c.addi	zero,16
 26e:	0000                	unimp
 270:	d501                	beqz	a0,178 <_min_stack-0x1e88>
 272:	0002                	0x2
 274:	2200                	fld	fs0,0(a2)
 276:	0074756f          	jal	a0,47a7c <tohost+0x27a74>
 27a:	f301                	bnez	a4,17a <_min_stack-0x1e86>
 27c:	02d5                	addi	t0,t0,21
 27e:	0000                	unimp
 280:	00025d23          	0x25d23
 284:	0100                	addi	s0,sp,128
 286:	00014df3          	0x14df3
 28a:	2200                	fld	fs0,0(a2)
 28c:	6176                	flw	ft2,92(sp)
 28e:	0100                	addi	s0,sp,128
 290:	000036f3          	csrrc	a3,0x0,zero
 294:	2400                	fld	fs0,8(s0)
 296:	006e                	0x6e
 298:	0000                	unimp
 29a:	f501                	bnez	a0,1a2 <_min_stack-0x1e5e>
 29c:	0041                	c.addi	zero,16
 29e:	0000                	unimp
 2a0:	7025                	0x7025
 2a2:	6461                	lui	s0,0x18
 2a4:	0100                	addi	s0,sp,128
 2a6:	41f5                	li	gp,29
 2a8:	0000                	unimp
 2aa:	2500                	fld	fs0,8(a0)
 2ac:	6370                	flw	fa2,68(a4)
 2ae:	0100                	addi	s0,sp,128
 2b0:	41f6                	lw	gp,92(sp)
 2b2:	0000                	unimp
 2b4:	2500                	fld	fs0,8(a0)
 2b6:	00726373          	csrrsi	t1,0x7,4
 2ba:	f701                	bnez	a4,1c2 <_min_stack-0x1e3e>
 2bc:	02e1                	addi	t0,t0,24
 2be:	0000                	unimp
 2c0:	6f26                	flw	ft10,72(sp)
 2c2:	7475                	lui	s0,0xffffd
 2c4:	0100                	addi	s0,sp,128
 2c6:	012d                	addi	sp,sp,11
 2c8:	00731627          	0x731627
 2cc:	1001                	c.addi	zero,-32
 2ce:	db01                	beqz	a4,1de <_min_stack-0x1e22>
 2d0:	0002                	0x2
 2d2:	0000                	unimp
 2d4:	1300                	addi	s0,sp,416
 2d6:	db04                	sw	s1,48(a4)
 2d8:	0002                	0x2
 2da:	1300                	addi	s0,sp,416
 2dc:	a904                	fsd	fs1,16(a0)
 2de:	0000                	unimp
 2e0:	0600                	addi	s0,sp,768
 2e2:	00a9                	addi	ra,ra,10
 2e4:	0000                	unimp
 2e6:	02f1                	addi	t0,t0,28
 2e8:	0000                	unimp
 2ea:	00004807          	flq	fa6,0(zero) # 0 <_min_stack-0x2000>
 2ee:	0100                	addi	s0,sp,128
 2f0:	2100                	fld	fs0,0(a0)
 2f2:	00c5                	addi	ra,ra,17
 2f4:	0000                	unimp
 2f6:	b901                	j	ffffff06 <fromhost+0x1ffefef6>
 2f8:	0041                	c.addi	zero,16
 2fa:	0000                	unimp
 2fc:	9001                	srli	s0,s0,0x20
 2fe:	22000003          	lb	zero,544(zero) # 220 <_min_stack-0x1de0>
 302:	0074756f          	jal	a0,47b08 <tohost+0x27b00>
 306:	b901                	j	ffffff16 <fromhost+0x1ffeff06>
 308:	02d5                	addi	t0,t0,21
 30a:	0000                	unimp
 30c:	6922                	flw	fs2,8(sp)
 30e:	0100                	addi	s0,sp,128
 310:	41b9                	li	gp,14
 312:	0000                	unimp
 314:	2200                	fld	fs0,0(a2)
 316:	0062                	0x62
 318:	b901                	j	ffffff28 <fromhost+0x1ffeff18>
 31a:	0041                	c.addi	zero,16
 31c:	0000                	unimp
 31e:	7322                	flw	ft6,40(sp)
 320:	b9010067          	jr	-1136(sp)
 324:	0041                	c.addi	zero,16
 326:	0000                	unimp
 328:	00006e23          	0x6e23
 32c:	0100                	addi	s0,sp,128
 32e:	41b9                	li	gp,14
 330:	0000                	unimp
 332:	2200                	fld	fs0,0(a2)
 334:	6170                	flw	fa2,68(a0)
 336:	0064                	addi	s1,sp,12
 338:	b901                	j	ffffff48 <fromhost+0x1ffeff38>
 33a:	0041                	c.addi	zero,16
 33c:	0000                	unimp
 33e:	0000af23          	sw	zero,30(ra)
 342:	0100                	addi	s0,sp,128
 344:	a9b9                	j	7a2 <_min_stack-0x185e>
 346:	0000                	unimp
 348:	2400                	fld	fs0,8(s0)
 34a:	014e                	slli	sp,sp,0x13
 34c:	0000                	unimp
 34e:	bb01                	j	5e <_min_stack-0x1fa2>
 350:	0390                	addi	a2,sp,448
 352:	0000                	unimp
 354:	7325                	lui	t1,0xfffe9
 356:	0100                	addi	s0,sp,128
 358:	dbbc                	sw	a5,112(a5)
 35a:	0002                	0x2
 35c:	2500                	fld	fs0,8(a0)
 35e:	656e                	flw	fa0,216(sp)
 360:	bd010067          	jr	-1072(sp)
 364:	0041                	c.addi	zero,16
 366:	0000                	unimp
 368:	7025                	0x7025
 36a:	bd010063          	beq	sp,a6,fffff72a <fromhost+0x1ffef71a>
 36e:	0041                	c.addi	zero,16
 370:	0000                	unimp
 372:	7425                	lui	s0,0xfffe9
 374:	0100                	addi	s0,sp,128
 376:	48be                	lw	a7,204(sp)
 378:	0000                	unimp
 37a:	2500                	fld	fs0,8(a0)
 37c:	0075                	c.addi	zero,29
 37e:	be01                	j	fffffe8e <fromhost+0x1ffefe7e>
 380:	0048                	addi	a0,sp,4
 382:	0000                	unimp
 384:	00742527          	fsw	ft7,10(s0) # fffe900a <fromhost+0x1ffd8ffa>
 388:	d401                	beqz	s0,290 <_min_stack-0x1d70>
 38a:	0041                	c.addi	zero,16
 38c:	0000                	unimp
 38e:	0000                	unimp
 390:	a906                	fsd	ft1,144(sp)
 392:	0000                	unimp
 394:	a000                	fsd	fs0,0(s0)
 396:	07000003          	lb	zero,112(zero) # 70 <_min_stack-0x1f90>
 39a:	0048                	addi	a0,sp,4
 39c:	0000                	unimp
 39e:	001f d421 0000      	0xd421001f
 3a4:	0100                	addi	s0,sp,128
 3a6:	0000419b          	0x419b
 3aa:	0100                	addi	s0,sp,128
 3ac:	040a                	slli	s0,s0,0x2
 3ae:	0000                	unimp
 3b0:	6f22                	flw	ft10,8(sp)
 3b2:	7475                	lui	s0,0xffffd
 3b4:	0100                	addi	s0,sp,128
 3b6:	0002d59b          	0x2d59b
 3ba:	2300                	fld	fs0,0(a4)
 3bc:	000000b7          	lui	ra,0x0
 3c0:	9b01                	andi	a4,a4,-32
 3c2:	014d                	addi	sp,sp,19
 3c4:	0000                	unimp
 3c6:	00006e23          	0x6e23
 3ca:	0100                	addi	s0,sp,128
 3cc:	0000419b          	0x419b
 3d0:	2200                	fld	fs0,0(a2)
 3d2:	6170                	flw	fa2,68(a0)
 3d4:	0064                	addi	s1,sp,12
 3d6:	9b01                	andi	a4,a4,-32
 3d8:	0041                	c.addi	zero,16
 3da:	0000                	unimp
 3dc:	7025                	0x7025
 3de:	9d010063          	beq	sp,a6,fffff59e <fromhost+0x1ffef58e>
 3e2:	0041                	c.addi	zero,16
 3e4:	0000                	unimp
 3e6:	1224                	addi	s1,sp,296
 3e8:	0000                	unimp
 3ea:	0100                	addi	s0,sp,128
 3ec:	419d                	li	gp,7
 3ee:	0000                	unimp
 3f0:	2700                	fld	fs0,8(a4)
 3f2:	6c25                	lui	s8,0x9
 3f4:	6e65                	lui	t3,0x19
 3f6:	0100                	addi	s0,sp,128
 3f8:	41a0                	lw	s0,64(a1)
 3fa:	0000                	unimp
 3fc:	2500                	fld	fs0,8(a0)
 3fe:	7470                	flw	fa2,108(s0)
 400:	0072                	0x72
 402:	a101                	j	802 <_min_stack-0x17fe>
 404:	014d                	addi	sp,sp,19
 406:	0000                	unimp
 408:	0000                	unimp
 40a:	5828                	lw	a0,112(s0)
 40c:	0001                	nop
 40e:	0100                	addi	s0,sp,128
 410:	0190                	addi	a2,sp,192
 412:	0000042b          	0x42b
 416:	7322                	flw	ft6,40(sp)
 418:	7274                	flw	fa3,100(a2)
 41a:	0100                	addi	s0,sp,128
 41c:	d590                	sw	a2,40(a1)
 41e:	0002                	0x2
 420:	2200                	fld	fs0,0(a2)
 422:	90010063          	beqz	sp,fffff522 <fromhost+0x1ffef512>
 426:	0041                	c.addi	zero,16
 428:	0000                	unimp
 42a:	2900                	fld	fs0,16(a0)
 42c:	000a                	0xa
 42e:	0000                	unimp
 430:	8a01                	andi	a2,a2,0
 432:	0041                	c.addi	zero,16
 434:	0000                	unimp
 436:	4501                	li	a0,0
 438:	0004                	0x4
 43a:	2200                	fld	fs0,0(a2)
 43c:	8a010073          	0x8a010073
 440:	0041                	c.addi	zero,16
 442:	0000                	unimp
 444:	2100                	fld	fs0,0(a0)
 446:	00dc                	addi	a5,sp,68
 448:	0000                	unimp
 44a:	8501                	srai	a0,a0,0x0
 44c:	0048                	addi	a0,sp,4
 44e:	0000                	unimp
 450:	5f01                	li	t5,-32
 452:	0004                	0x4
 454:	2200                	fld	fs0,0(a2)
 456:	006e                	0x6e
 458:	8501                	srai	a0,a0,0x0
 45a:	0048                	addi	a0,sp,4
 45c:	0000                	unimp
 45e:	2100                	fld	fs0,0(a0)
 460:	0175                	addi	sp,sp,29
 462:	0000                	unimp
 464:	7301                	lui	t1,0xfffe0
 466:	0048                	addi	a0,sp,4
 468:	0000                	unimp
 46a:	8b01                	andi	a4,a4,0
 46c:	0004                	0x4
 46e:	2200                	fld	fs0,0(a2)
 470:	006e                	0x6e
 472:	7301                	lui	t1,0xfffe0
 474:	0048                	addi	a0,sp,4
 476:	0000                	unimp
 478:	7125                	addi	sp,sp,-416
 47a:	0100                	addi	s0,sp,128
 47c:	4874                	lw	a3,84(s0)
 47e:	0000                	unimp
 480:	2500                	fld	fs0,8(a0)
 482:	0072                	0x72
 484:	7401                	lui	s0,0xfffe0
 486:	0048                	addi	a0,sp,4
 488:	0000                	unimp
 48a:	2a00                	fld	fs0,16(a2)
 48c:	00fd                	addi	ra,ra,31
 48e:	0000                	unimp
 490:	5501                	li	a0,-32
 492:	0298                	addi	a4,sp,320
 494:	e000                	fsw	fs0,0(s0)
 496:	000e                	0xe
 498:	0000                	unimp
 49a:	9c01                	0x9c01
 49c:	00017c2b          	0x17c2b
 4a0:	0100                	addi	s0,sp,128
 4a2:	ea4d                	bnez	a2,554 <_min_stack-0x1aac>
 4a4:	0000                	unimp
 4a6:	10e0                	addi	s0,sp,108
 4a8:	0000                	unimp
 4aa:	0100                	addi	s0,sp,128
 4ac:	bd9c                	fsd	fa5,56(a1)
 4ae:	0004                	0x4
 4b0:	2c00                	fld	fs0,24(s0)
 4b2:	4d010063          	beq	sp,a6,972 <_min_stack-0x168e>
 4b6:	00b0                	addi	a2,sp,72
 4b8:	0000                	unimp
 4ba:	5a01                	li	s4,-32
 4bc:	2d00                	fld	fs0,24(a0)
 4be:	00a2                	slli	ra,ra,0x8
 4c0:	0000                	unimp
 4c2:	4701                	li	a4,0
 4c4:	00a9                	addi	ra,ra,10
 4c6:	0000                	unimp
 4c8:	00d8                	addi	a4,sp,68
 4ca:	e000                	fsw	fs0,0(s0)
 4cc:	0012                	0x12
 4ce:	0000                	unimp
 4d0:	9c01                	0x9c01
 4d2:	0002532b          	0x2532b
 4d6:	0100                	addi	s0,sp,128
 4d8:	b235                	j	fffffe04 <fromhost+0x1ffefdf4>
 4da:	0000                	unimp
 4dc:	26e0                	fld	fs0,200(a3)
 4de:	0000                	unimp
 4e0:	0100                	addi	s0,sp,128
 4e2:	109c                	addi	a5,sp,96
 4e4:	0005                	c.addi	zero,1
 4e6:	2e00                	fld	fs0,24(a2)
 4e8:	00727473          	csrrci	s0,0x7,4
 4ec:	3501                	jal	2ec <_min_stack-0x1d14>
 4ee:	014d                	addi	sp,sp,19
 4f0:	0000                	unimp
 4f2:	0345                	addi	t1,t1,17
 4f4:	0000                	unimp
 4f6:	6c2e                	flw	fs8,200(sp)
 4f8:	6e65                	lui	t3,0x19
 4fa:	0100                	addi	s0,sp,128
 4fc:	4835                	li	a6,13
 4fe:	0000                	unimp
 500:	6300                	flw	fs0,0(a4)
 502:	2f000003          	lb	zero,752(zero) # 2f0 <_min_stack-0x1d10>
 506:	0069                	c.addi	zero,26
 508:	3601                	jal	8 <_min_stack-0x1ff8>
 50a:	0048                	addi	a0,sp,4
 50c:	0000                	unimp
 50e:	0000                	unimp
 510:	00001a2b          	0x1a2b
 514:	0100                	addi	s0,sp,128
 516:	842a                	mv	s0,a0
 518:	0000                	unimp
 51a:	2ee0                	fld	fs0,216(a3)
 51c:	0000                	unimp
 51e:	0100                	addi	s0,sp,128
 520:	4b9c                	lw	a5,16(a5)
 522:	0005                	c.addi	zero,1
 524:	3000                	fld	fs0,32(s0)
 526:	00cd                	addi	ra,ra,19
 528:	0000                	unimp
 52a:	2a01                	jal	63a <_min_stack-0x19c6>
 52c:	0041                	c.addi	zero,16
 52e:	0000                	unimp
 530:	5a01                	li	s4,-32
 532:	3831                	jal	fffffd4e <fromhost+0x1ffefd3e>
 534:	0002                	0x2
 536:	0100                	addi	s0,sp,128
 538:	792a                	flw	fs2,168(sp)
 53a:	0000                	unimp
 53c:	8100                	0x8100
 53e:	25000003          	lb	zero,592(zero) # 250 <_min_stack-0x1db0>
 542:	0069                	c.addi	zero,26
 544:	2b01                	jal	a54 <_min_stack-0x15ac>
 546:	0048                	addi	a0,sp,4
 548:	0000                	unimp
 54a:	2b00                	fld	fs0,16(a4)
 54c:	0074                	addi	a3,sp,12
 54e:	0000                	unimp
 550:	1b01                	addi	s6,s6,-32
 552:	0416                	slli	s0,s0,0x5
 554:	e000                	fsw	fs0,0(s0)
 556:	000a                	0xa
 558:	0000                	unimp
 55a:	9c01                	0x9c01
 55c:	0574                	addi	a3,sp,652
 55e:	0000                	unimp
 560:	2032                	fld	ft0,264(sp)
 562:	0004                	0x4
 564:	53e0                	lw	s0,100(a5)
 566:	0001                	nop
 568:	1000                	addi	s0,sp,32
 56a:	5a01                	li	s4,-32
 56c:	0305                	addi	t1,t1,1
 56e:	056c                	addi	a1,sp,652
 570:	e000                	fsw	fs0,0(s0)
 572:	0000                	unimp
 574:	0003a033          	sltz	zero,t2
 578:	fa00                	fsw	fs0,48(a2)
 57a:	0000                	unimp
 57c:	a4e0                	fsd	fs0,200(s1)
 57e:	0000                	unimp
 580:	0100                	addi	s0,sp,128
 582:	ad9c                	fsd	fa5,24(a1)
 584:	0006                	0x6
 586:	0e00                	addi	s0,sp,784
 588:	000003bb          	0x3bb
 58c:	03a2                	slli	t2,t2,0x8
 58e:	0000                	unimp
 590:	c60e                	sw	gp,12(sp)
 592:	c0000003          	lb	zero,-1024(zero) # fffffc00 <fromhost+0x1ffefbf0>
 596:	0e000003          	lb	zero,224(zero) # e0 <_min_stack-0x1f20>
 59a:	03d1                	addi	t2,t2,20
 59c:	0000                	unimp
 59e:	0438                	addi	a4,sp,520
 5a0:	0000                	unimp
 5a2:	0003dc1b          	0x3dc1b
 5a6:	7200                	flw	fs0,32(a2)
 5a8:	0004                	0x4
 5aa:	1b00                	addi	s0,sp,432
 5ac:	03e6                	slli	t2,t2,0x19
 5ae:	0000                	unimp
 5b0:	049c                	addi	a5,sp,576
 5b2:	0000                	unimp
 5b4:	b019                	j	fffffdba <fromhost+0x1ffefdaa>
 5b6:	00000003          	lb	zero,0(zero) # 0 <_min_stack-0x2000>
 5ba:	f11e                	fsw	ft7,160(sp)
 5bc:	00000003          	lb	zero,0(zero) # 0 <_min_stack-0x2000>
 5c0:	0000                	unimp
 5c2:	da00                	sw	s0,48(a2)
 5c4:	0005                	c.addi	zero,1
 5c6:	1b00                	addi	s0,sp,432
 5c8:	03f2                	slli	t2,t2,0x1c
 5ca:	0000                	unimp
 5cc:	04be                	slli	s1,s1,0xf
 5ce:	0000                	unimp
 5d0:	0003fd1b          	0x3fd1b
 5d4:	ee00                	fsw	fs0,24(a2)
 5d6:	0004                	0x4
 5d8:	0000                	unimp
 5da:	0a34                	addi	a3,sp,280
 5dc:	0004                	0x4
 5de:	4000                	lw	s0,0(s0)
 5e0:	0001                	nop
 5e2:	20e0                	fld	fs0,192(s1)
 5e4:	0000                	unimp
 5e6:	0100                	addi	s0,sp,128
 5e8:	21a9                	jal	a32 <_min_stack-0x15ce>
 5ea:	0006                	0x6
 5ec:	0e00                	addi	s0,sp,784
 5ee:	0416                	slli	s0,s0,0x5
 5f0:	0000                	unimp
 5f2:	00000517          	auipc	a0,0x0
 5f6:	2135                	jal	a22 <_min_stack-0x15de>
 5f8:	0004                	0x4
 5fa:	2000                	fld	fs0,0(s0)
 5fc:	0000042b          	0x42b
 600:	0140                	addi	s0,sp,132
 602:	e000                	fsw	fs0,0(s0)
 604:	0038                	addi	a4,sp,8
 606:	0000                	unimp
 608:	9801                	andi	s0,s0,-32
 60a:	3b35                	jal	346 <_min_stack-0x1cba>
 60c:	0004                	0x4
 60e:	0f00                	addi	s0,sp,912
 610:	014e                	slli	sp,sp,0x13
 612:	e000                	fsw	fs0,0(s0)
 614:	049c                	addi	a5,sp,576
 616:	0000                	unimp
 618:	0110                	addi	a2,sp,128
 61a:	025a                	slli	tp,tp,0x16
 61c:	0084                	addi	s1,sp,64
 61e:	0000                	unimp
 620:	3600                	fld	fs0,40(a2)
 622:	040a                	slli	s0,s0,0x2
 624:	0000                	unimp
 626:	0164                	addi	s1,sp,140
 628:	e000                	fsw	fs0,0(s0)
 62a:	0002                	0x2
 62c:	0000                	unimp
 62e:	ae01                	j	93e <_min_stack-0x16c2>
 630:	0669                	addi	a2,a2,26
 632:	0000                	unimp
 634:	160e                	slli	a2,a2,0x23
 636:	0004                	0x4
 638:	2b00                	fld	fs0,16(a4)
 63a:	0005                	c.addi	zero,1
 63c:	0e00                	addi	s0,sp,784
 63e:	0421                	addi	s0,s0,8
 640:	0000                	unimp
 642:	0000053f 00042b37 	0x42b370000053f
 64a:	6400                	flw	fs0,8(s0)
 64c:	0001                	nop
 64e:	02e0                	addi	s0,sp,332
 650:	0000                	unimp
 652:	0100                	addi	s0,sp,128
 654:	0e98                	addi	a4,sp,848
 656:	0000043b          	0x43b
 65a:	0000053f 00016612 	0x166120000053f
 662:	9ce0                	0x9ce0
 664:	0004                	0x4
 666:	0000                	unimp
 668:	2000                	fld	fs0,0(s0)
 66a:	040a                	slli	s0,s0,0x2
 66c:	0000                	unimp
 66e:	0174                	addi	a3,sp,140
 670:	e000                	fsw	fs0,0(s0)
 672:	0050                	addi	a2,sp,4
 674:	0000                	unimp
 676:	b201                	j	ffffff76 <fromhost+0x1ffeff66>
 678:	160e                	slli	a2,a2,0x23
 67a:	0004                	0x4
 67c:	5700                	lw	s0,40(a4)
 67e:	0005                	c.addi	zero,1
 680:	3500                	fld	fs0,40(a0)
 682:	0421                	addi	s0,s0,8
 684:	0000                	unimp
 686:	2b20                	fld	fs0,80(a4)
 688:	0004                	0x4
 68a:	7400                	flw	fs0,40(s0)
 68c:	0001                	nop
 68e:	68e0                	flw	fs0,84(s1)
 690:	0000                	unimp
 692:	0100                	addi	s0,sp,128
 694:	3598                	fld	fa4,40(a1)
 696:	0000043b          	0x43b
 69a:	00019a0f          	0x19a0f
 69e:	9ce0                	0x9ce0
 6a0:	0004                	0x4
 6a2:	1000                	addi	s0,sp,32
 6a4:	5a01                	li	s4,-32
 6a6:	8202                	jr	tp
 6a8:	0000                	unimp
 6aa:	0000                	unimp
 6ac:	3300                	fld	fs0,32(a4)
 6ae:	02f1                	addi	t0,t0,28
 6b0:	0000                	unimp
 6b2:	019e                	slli	gp,gp,0x7
 6b4:	e000                	fsw	fs0,0(s0)
 6b6:	00fa                	slli	ra,ra,0x1e
 6b8:	0000                	unimp
 6ba:	9c01                	0x9c01
 6bc:	0818                	addi	a4,sp,16
 6be:	0000                	unimp
 6c0:	0c0e                	slli	s8,s8,0x3
 6c2:	6b000003          	lb	zero,1712(zero) # 6b0 <_min_stack-0x1950>
 6c6:	0005                	c.addi	zero,1
 6c8:	0e00                	addi	s0,sp,784
 6ca:	0315                	addi	t1,t1,5
 6cc:	0000                	unimp
 6ce:	05be                	slli	a1,a1,0xf
 6d0:	0000                	unimp
 6d2:	1e0e                	slli	t3,t3,0x23
 6d4:	2a000003          	lb	zero,672(zero) # 2a0 <_min_stack-0x1d60>
 6d8:	0006                	0x6
 6da:	0e00                	addi	s0,sp,784
 6dc:	0328                	addi	a0,sp,392
 6de:	0000                	unimp
 6e0:	0688                	addi	a0,sp,832
 6e2:	0000                	unimp
 6e4:	330e                	fld	ft6,224(sp)
 6e6:	d6000003          	lb	zero,-672(zero) # fffffd60 <fromhost+0x1ffefd50>
 6ea:	0006                	0x6
 6ec:	0e00                	addi	s0,sp,784
 6ee:	033e                	slli	t1,t1,0xf
 6f0:	0000                	unimp
 6f2:	00000727          	0x727
 6f6:	491c                	lw	a5,16(a0)
 6f8:	02000003          	lb	zero,32(zero) # 20 <_min_stack-0x1fe0>
 6fc:	5091                	li	ra,-28
 6fe:	0003541b          	0x3541b
 702:	9300                	0x9300
 704:	1b000007          	0x1b000007
 708:	035d                	addi	t1,t1,23
 70a:	0000                	unimp
 70c:	07d6                	slli	a5,a5,0x15
 70e:	0000                	unimp
 710:	0003681b          	0x3681b
 714:	2f00                	fld	fs0,24(a4)
 716:	0008                	0x8
 718:	3800                	fld	fs0,48(s0)
 71a:	0372                	slli	t1,t1,0x1c
 71c:	0000                	unimp
 71e:	00037b1b          	0x37b1b
 722:	7200                	flw	fs0,32(a2)
 724:	0008                	0x8
 726:	1900                	addi	s0,sp,176
 728:	0301                	addi	t1,t1,0
 72a:	0000                	unimp
 72c:	3400                	fld	fs0,40(s0)
 72e:	0445                	addi	s0,s0,17
 730:	0000                	unimp
 732:	01e2                	slli	gp,gp,0x18
 734:	e000                	fsw	fs0,0(s0)
 736:	0080                	addi	s0,sp,64
 738:	0000                	unimp
 73a:	df01                	beqz	a4,652 <_min_stack-0x19ae>
 73c:	074a                	slli	a4,a4,0x12
 73e:	0000                	unimp
 740:	550e                	lw	a0,224(sp)
 742:	0004                	0x4
 744:	c100                	sw	s0,0(a0)
 746:	0008                	0x8
 748:	0000                	unimp
 74a:	5f34                	lw	a3,120(a4)
 74c:	0004                	0x4
 74e:	f200                	fsw	fs0,32(a2)
 750:	0001                	nop
 752:	a0e0                	fsd	fs0,192(s1)
 754:	0000                	unimp
 756:	0100                	addi	s0,sp,128
 758:	7fe0                	flw	fs0,124(a5)
 75a:	0e000007          	0xe000007
 75e:	0000046f          	jal	s0,75e <_min_stack-0x18a2>
 762:	08d4                	addi	a3,sp,84
 764:	0000                	unimp
 766:	a01a                	fsd	ft6,0(sp)
 768:	0000                	unimp
 76a:	1b00                	addi	s0,sp,432
 76c:	0478                	addi	a4,sp,524
 76e:	0000                	unimp
 770:	08f4                	addi	a3,sp,92
 772:	0000                	unimp
 774:	0004811b          	0x4811b
 778:	0700                	addi	s0,sp,896
 77a:	0009                	c.addi	zero,2
 77c:	0000                	unimp
 77e:	1e00                	addi	s0,sp,816
 780:	0384                	addi	s1,sp,448
 782:	0000                	unimp
 784:	00c0                	addi	s0,sp,68
 786:	0000                	unimp
 788:	0796                	slli	a5,a5,0x5
 78a:	0000                	unimp
 78c:	0003851b          	0x3851b
 790:	3700                	fld	fs0,40(a4)
 792:	0009                	c.addi	zero,2
 794:	0000                	unimp
 796:	0a36                	slli	s4,s4,0xd
 798:	0004                	0x4
 79a:	6800                	flw	fs0,16(s0)
 79c:	0002                	0x2
 79e:	0ae0                	addi	s0,sp,348
 7a0:	0000                	unimp
 7a2:	0100                	addi	s0,sp,128
 7a4:	0007e5e7          	0x7e5e7
 7a8:	0e00                	addi	s0,sp,784
 7aa:	0416                	slli	s0,s0,0x5
 7ac:	0000                	unimp
 7ae:	00000957          	0x957
 7b2:	210e                	fld	ft2,192(sp)
 7b4:	0004                	0x4
 7b6:	6b00                	flw	fs0,16(a4)
 7b8:	0009                	c.addi	zero,2
 7ba:	3700                	fld	fs0,40(a4)
 7bc:	0000042b          	0x42b
 7c0:	0268                	addi	a0,sp,268
 7c2:	e000                	fsw	fs0,0(s0)
 7c4:	000a                	0xa
 7c6:	0000                	unimp
 7c8:	9801                	andi	s0,s0,-32
 7ca:	3b0e                	fld	fs6,224(sp)
 7cc:	0004                	0x4
 7ce:	8000                	0x8000
 7d0:	0009                	c.addi	zero,2
 7d2:	0f00                	addi	s0,sp,912
 7d4:	0272                	slli	tp,tp,0x1c
 7d6:	e000                	fsw	fs0,0(s0)
 7d8:	049c                	addi	a5,sp,576
 7da:	0000                	unimp
 7dc:	0110                	addi	a2,sp,128
 7de:	025a                	slli	tp,tp,0x16
 7e0:	2d08                	fld	fa0,24(a0)
 7e2:	0000                	unimp
 7e4:	3900                	fld	fs0,48(a0)
 7e6:	01ba                	slli	gp,gp,0xe
 7e8:	e000                	fsw	fs0,0(s0)
 7ea:	0574                	addi	a3,sp,652
 7ec:	0000                	unimp
 7ee:	00000807          	0x807
 7f2:	0110                	addi	a2,sp,128
 7f4:	025a                	slli	tp,tp,0x16
 7f6:	5091                	li	ra,-28
 7f8:	0110                	addi	a2,sp,128
 7fa:	01f3035b          	0x1f3035b
 7fe:	105d                	c.addi	zero,-9
 800:	5c01                	li	s8,-32
 802:	5e01f303          	0x5e01f303
 806:	0f00                	addi	s0,sp,912
 808:	027e                	slli	tp,tp,0x1f
 80a:	e000                	fsw	fs0,0(s0)
 80c:	0574                	addi	a3,sp,652
 80e:	0000                	unimp
 810:	0110                	addi	a2,sp,128
 812:	025a                	slli	tp,tp,0x16
 814:	0078                	addi	a4,sp,12
 816:	0000                	unimp
 818:	2b3a                	fld	fs6,392(sp)
 81a:	0004                	0x4
 81c:	a600                	fsd	fs0,8(a2)
 81e:	0002                	0x2
 820:	18e0                	addi	s0,sp,124
 822:	0000                	unimp
 824:	0100                	addi	s0,sp,128
 826:	0e9c                	addi	a5,sp,848
 828:	0000043b          	0x43b
 82c:	0995                	addi	s3,s3,5
 82e:	0000                	unimp
 830:	0002b40f          	0x2b40f
 834:	9ce0                	0x9ce0
 836:	0004                	0x4
 838:	1000                	addi	s0,sp,32
 83a:	5a01                	li	s4,-32
 83c:	7802                	flw	fa6,32(sp)
 83e:	0000                	unimp
 840:	0000                	unimp
 842:	015a                	slli	sp,sp,0x16
 844:	0000                	unimp
 846:	0004                	0x4
 848:	0000031b          	0x31b
 84c:	0104                	addi	s1,sp,128
 84e:	018a                	slli	gp,gp,0x2
 850:	0000                	unimp
 852:	a20c                	fsd	fa1,0(a2)
 854:	0002                	0x2
 856:	ed00                	fsw	fs0,24(a0)
 858:	0001                	nop
 85a:	2000                	fld	fs0,0(s0)
 85c:	0001                	nop
 85e:	0000                	unimp
 860:	0000                	unimp
 862:	2500                	fld	fs0,8(a0)
 864:	0005                	c.addi	zero,1
 866:	0200                	addi	s0,sp,256
 868:	0504                	addi	s1,sp,640
 86a:	6e69                	lui	t3,0x1a
 86c:	0074                	addi	a3,sp,12
 86e:	19070403          	lb	s0,400(a4) # 40000190 <tohost+0x3ffe0188>
 872:	0001                	nop
 874:	0300                	addi	s0,sp,384
 876:	0508                	addi	a0,sp,640
 878:	00000087          	0x87
 87c:	e3041003          	lh	zero,-464(s0) # fffdfe30 <fromhost+0x1ffcfe20>
 880:	0000                	unimp
 882:	0300                	addi	s0,sp,384
 884:	0601                	addi	a2,a2,0
 886:	00f1                	addi	ra,ra,28
 888:	0000                	unimp
 88a:	00050203          	lb	tp,0(a0) # 5f2 <_min_stack-0x1a0e>
 88e:	0000                	unimp
 890:	0300                	addi	s0,sp,384
 892:	0504                	addi	s1,sp,640
 894:	008c                	addi	a1,sp,64
 896:	0000                	unimp
 898:	ef080103          	lb	sp,-272(a6)
 89c:	0000                	unimp
 89e:	0300                	addi	s0,sp,384
 8a0:	0702                	slli	a4,a4,0x0
 8a2:	0000013b          	0x13b
 8a6:	14070403          	lb	s0,320(a4)
 8aa:	0001                	nop
 8ac:	0300                	addi	s0,sp,384
 8ae:	0708                	addi	a0,sp,896
 8b0:	0000010f          	0x10f
 8b4:	8304                	0x8304
 8b6:	0002                	0x2
 8b8:	0100                	addi	s0,sp,128
 8ba:	00045047          	fmsub.s	ft0,fs0,ft0,ft0,unknown
 8be:	02e0                	addi	s0,sp,332
 8c0:	0000                	unimp
 8c2:	0100                	addi	s0,sp,128
 8c4:	059c                	addi	a5,sp,704
 8c6:	027e                	slli	tp,tp,0x1f
 8c8:	0000                	unimp
 8ca:	1801                	addi	a6,a6,-32
 8cc:	0025                	c.addi	zero,9
 8ce:	0000                	unimp
 8d0:	04dc                	addi	a5,sp,580
 8d2:	e000                	fsw	fs0,0(s0)
 8d4:	0088                	addi	a0,sp,64
 8d6:	0000                	unimp
 8d8:	9c01                	0x9c01
 8da:	0144                	addi	s1,sp,132
 8dc:	0000                	unimp
 8de:	9806                	add	a6,a6,ra
 8e0:	0002                	0x2
 8e2:	0100                	addi	s0,sp,128
 8e4:	2518                	fld	fa4,8(a0)
 8e6:	0000                	unimp
 8e8:	be00                	fsd	fs0,56(a2)
 8ea:	0009                	c.addi	zero,2
 8ec:	0600                	addi	s0,sp,768
 8ee:	029d                	addi	t0,t0,7
 8f0:	0000                	unimp
 8f2:	1801                	addi	a6,a6,-32
 8f4:	0144                	addi	s1,sp,132
 8f6:	0000                	unimp
 8f8:	09df 0000 7607      	0x7607000009df
 8fe:	0002                	0x2
 900:	0100                	addi	s0,sp,128
 902:	571a                	lw	a4,164(sp)
 904:	0001                	nop
 906:	0000                	unimp
 908:	000a                	0xa
 90a:	0700                	addi	s0,sp,896
 90c:	0264                	addi	s1,sp,268
 90e:	0000                	unimp
 910:	1b01                	addi	s6,s6,-32
 912:	0025                	c.addi	zero,9
 914:	0000                	unimp
 916:	0ab4                	addi	a3,sp,344
 918:	0000                	unimp
 91a:	00026d07          	0x26d07
 91e:	0100                	addi	s0,sp,128
 920:	251c                	fld	fa5,8(a0)
 922:	0000                	unimp
 924:	de00                	sw	s0,56(a2)
 926:	000a                	0xa
 928:	0800                	addi	s0,sp,16
 92a:	04de                	slli	s1,s1,0x17
 92c:	e000                	fsw	fs0,0(s0)
 92e:	0018                	0x18
 930:	0000                	unimp
 932:	0102                	slli	sp,sp,0x0
 934:	0000                	unimp
 936:	6909                	lui	s2,0x2
 938:	0100                	addi	s0,sp,128
 93a:	2520                	fld	fs0,72(a0)
 93c:	0000                	unimp
 93e:	fd00                	fsw	fs0,56(a0)
 940:	000a                	0xa
 942:	0000                	unimp
 944:	f808                	fsw	fa0,48(s0)
 946:	0004                	0x4
 948:	1ee0                	addi	s0,sp,892
 94a:	0000                	unimp
 94c:	1900                	addi	s0,sp,176
 94e:	0001                	nop
 950:	0a00                	addi	s0,sp,272
 952:	0069                	c.addi	zero,26
 954:	2501                	jal	f54 <_min_stack-0x10ac>
 956:	0025                	c.addi	zero,9
 958:	0000                	unimp
 95a:	0800                	addi	s0,sp,16
 95c:	0516                	slli	a0,a0,0x5
 95e:	e000                	fsw	fs0,0(s0)
 960:	0018                	0x18
 962:	0000                	unimp
 964:	0130                	addi	a2,sp,136
 966:	0000                	unimp
 968:	690a                	flw	fs2,128(sp)
 96a:	0100                	addi	s0,sp,128
 96c:	2530                	fld	fa2,72(a0)
 96e:	0000                	unimp
 970:	0000                	unimp
 972:	0005300b          	0x5300b
 976:	1ce0                	addi	s0,sp,636
 978:	0000                	unimp
 97a:	0a00                	addi	s0,sp,272
 97c:	0069                	c.addi	zero,26
 97e:	3401                	jal	37e <_min_stack-0x1c82>
 980:	0025                	c.addi	zero,9
 982:	0000                	unimp
 984:	0000                	unimp
 986:	040c                	addi	a1,sp,512
 988:	014a                	slli	sp,sp,0x12
 98a:	0000                	unimp
 98c:	040c                	addi	a1,sp,512
 98e:	0150                	addi	a2,sp,132
 990:	0000                	unimp
 992:	f8080103          	lb	sp,-128(a6)
 996:	0000                	unimp
 998:	0c00                	addi	s0,sp,528
 99a:	2504                	fld	fs1,8(a0)
 99c:	0000                	unimp
 99e:	0000                	unimp
 9a0:	001e                	0x1e
 9a2:	0000                	unimp
 9a4:	0002                	0x2
 9a6:	03d0                	addi	a2,sp,452
 9a8:	0000                	unimp
 9aa:	0104                	addi	s1,sp,128
 9ac:	0635                	addi	a2,a2,13
 9ae:	0000                	unimp
 9b0:	0138                	addi	a4,sp,136
 9b2:	0000                	unimp
 9b4:	000002b7          	lui	t0,0x0
 9b8:	01ed                	addi	gp,gp,27
 9ba:	0000                	unimp
 9bc:	02fd                	addi	t0,t0,31
 9be:	0000                	unimp
 9c0:	8001                	srli	s0,s0,0x0

Disassembly of section .debug_abbrev:

00000000 <.debug_abbrev>:
   0:	1101                	addi	sp,sp,-32
   2:	2501                	jal	602 <_min_stack-0x19fe>
   4:	130e                	slli	t1,t1,0x23
   6:	1b0e030b          	0x1b0e030b
   a:	110e                	slli	sp,sp,0x23
   c:	1201                	addi	tp,tp,-32
   e:	1006                	0x1006
  10:	02000017          	auipc	zero,0x2000
  14:	0016                	0x16
  16:	0b3a0e03          	lb	t3,179(s4)
  1a:	13490b3b          	0x13490b3b
  1e:	0000                	unimp
  20:	0b000f03          	lb	t5,176(zero) # 20000c0 <tohost+0x1fe00b8>
  24:	000e030b          	0xe030b
  28:	0400                	addi	s0,sp,512
  2a:	0024                	addi	s1,sp,8
  2c:	0b3e0b0b          	0xb3e0b0b
  30:	00000803          	lb	a6,0(zero) # 0 <_min_stack-0x2000>
  34:	2405                	jal	254 <_min_stack-0x1dac>
  36:	0b00                	addi	s0,sp,400
  38:	030b3e0b          	0x30b3e0b
  3c:	000e                	0xe
  3e:	0600                	addi	s0,sp,768
  40:	0101                	addi	sp,sp,0
  42:	1349                	addi	t1,t1,-14
  44:	1301                	addi	t1,t1,-32
  46:	0000                	unimp
  48:	49002107          	flw	ft2,1168(zero) # 490 <_min_stack-0x1b70>
  4c:	000b2f13          	slti	t5,s6,0
  50:	0800                	addi	s0,sp,16
  52:	0026                	0x26
  54:	1349                	addi	t1,t1,-14
  56:	0000                	unimp
  58:	3409                	jal	fffffa5a <fromhost+0x1ffefa4a>
  5a:	0300                	addi	s0,sp,384
  5c:	3a0e                	fld	fs4,224(sp)
  5e:	490b3b0b          	0x490b3b0b
  62:	02193f13          	sltiu	t5,s2,33
  66:	0018                	0x18
  68:	0a00                	addi	s0,sp,272
  6a:	012e                	slli	sp,sp,0xb
  6c:	0e03193f 053b0b3a 	0x53b0b3a0e03193f
  74:	13491927          	0x13491927
  78:	0111                	addi	sp,sp,4
  7a:	0612                	slli	a2,a2,0x4
  7c:	1840                	addi	s0,sp,52
  7e:	01194297          	auipc	t0,0x1194
  82:	0b000013          	li	zero,176
  86:	0005                	c.addi	zero,1
  88:	0b3a0803          	lb	a6,179(s4)
  8c:	1349053b          	0x1349053b
  90:	1702                	slli	a4,a4,0x20
  92:	0000                	unimp
  94:	340c                	fld	fa1,40(s0)
  96:	0300                	addi	s0,sp,384
  98:	3a08                	fld	fa0,48(a2)
  9a:	49053b0b          	0x49053b0b
  9e:	00170213          	addi	tp,a4,1
  a2:	0d00                	addi	s0,sp,656
  a4:	011d                	addi	sp,sp,7
  a6:	1331                	addi	t1,t1,-20
  a8:	0111                	addi	sp,sp,4
  aa:	0612                	slli	a2,a2,0x4
  ac:	0b58                	addi	a4,sp,404
  ae:	0559                	addi	a0,a0,22
  b0:	1301                	addi	t1,t1,-32
  b2:	0000                	unimp
  b4:	050e                	slli	a0,a0,0x3
  b6:	3100                	fld	fs0,32(a0)
  b8:	00170213          	addi	tp,a4,1
  bc:	0f00                	addi	s0,sp,912
  be:	8289                	srli	a3,a3,0x2
  c0:	0101                	addi	sp,sp,0
  c2:	0111                	addi	sp,sp,4
  c4:	1331                	addi	t1,t1,-20
  c6:	0000                	unimp
  c8:	8a10                	0x8a10
  ca:	0182                	slli	gp,gp,0x0
  cc:	0200                	addi	s0,sp,256
  ce:	9118                	0x9118
  d0:	1842                	slli	a6,a6,0x30
  d2:	0000                	unimp
  d4:	1d11                	addi	s10,s10,-28
  d6:	3101                	jal	fffffcd6 <fromhost+0x1ffefcc6>
  d8:	12011113          	0x12011113
  dc:	5806                	lw	a6,96(sp)
  de:	0005590b          	0x5590b
  e2:	1200                	addi	s0,sp,288
  e4:	8289                	srli	a3,a3,0x2
  e6:	0001                	nop
  e8:	0111                	addi	sp,sp,4
  ea:	1331                	addi	t1,t1,-20
  ec:	0000                	unimp
  ee:	0b000f13          	li	t5,176
  f2:	0013490b          	0x13490b
  f6:	1400                	addi	s0,sp,544
  f8:	0005                	c.addi	zero,1
  fa:	0b3a0e03          	lb	t3,179(s4)
  fe:	1349053b          	0x1349053b
 102:	1702                	slli	a4,a4,0x20
 104:	0000                	unimp
 106:	1815                	addi	a6,a6,-27
 108:	0000                	unimp
 10a:	1600                	addi	s0,sp,800
 10c:	0034                	addi	a3,sp,8
 10e:	0b3a0803          	lb	a6,179(s4)
 112:	1349053b          	0x1349053b
 116:	0000                	unimp
 118:	03003417          	auipc	s0,0x3003
 11c:	3a08                	fld	fa0,48(a2)
 11e:	49053b0b          	0x49053b0b
 122:	00180213          	addi	tp,a6,1
 126:	1800                	addi	s0,sp,48
 128:	011d                	addi	sp,sp,7
 12a:	1331                	addi	t1,t1,-20
 12c:	0152                	slli	sp,sp,0x14
 12e:	1755                	addi	a4,a4,-11
 130:	0b58                	addi	a4,sp,404
 132:	0559                	addi	a0,a0,22
 134:	0000                	unimp
 136:	0519                	addi	a0,a0,6
 138:	3100                	fld	fs0,32(a0)
 13a:	000b1c13          	slli	s8,s6,0x0
 13e:	1a00                	addi	s0,sp,304
 140:	1755010b          	0x1755010b
 144:	0000                	unimp
 146:	3100341b          	0x3100341b
 14a:	00170213          	addi	tp,a4,1
 14e:	1c00                	addi	s0,sp,560
 150:	0034                	addi	a3,sp,8
 152:	1331                	addi	t1,t1,-20
 154:	1802                	slli	a6,a6,0x20
 156:	0000                	unimp
 158:	0a1d                	addi	s4,s4,7
 15a:	3100                	fld	fs0,32(a0)
 15c:	00011113          	slli	sp,sp,0x0
 160:	1e00                	addi	s0,sp,816
 162:	1331010b          	0x1331010b
 166:	1755                	addi	a4,a4,-11
 168:	1301                	addi	t1,t1,-32
 16a:	0000                	unimp
 16c:	1d1f 3101 5213      	0x521331011d1f
 172:	5501                	li	a0,-32
 174:	590b5817          	auipc	a6,0x590b5
 178:	0105                	addi	sp,sp,1
 17a:	20000013          	li	zero,512
 17e:	011d                	addi	sp,sp,7
 180:	1331                	addi	t1,t1,-20
 182:	0152                	slli	sp,sp,0x14
 184:	1755                	addi	a4,a4,-11
 186:	0b58                	addi	a4,sp,404
 188:	0b59                	addi	s6,s6,22
 18a:	0000                	unimp
 18c:	2e21                	jal	4a4 <_min_stack-0x1b5c>
 18e:	0301                	addi	t1,t1,0
 190:	3a0e                	fld	fs4,224(sp)
 192:	270b3b0b          	0x270b3b0b
 196:	4919                	li	s2,6
 198:	010b2013          	slti	zero,s6,16
 19c:	22000013          	li	zero,544
 1a0:	0005                	c.addi	zero,1
 1a2:	0b3a0803          	lb	a6,179(s4)
 1a6:	13490b3b          	0x13490b3b
 1aa:	0000                	unimp
 1ac:	03000523          	sb	a6,42(zero) # 2a <_min_stack-0x1fd6>
 1b0:	3a0e                	fld	fs4,224(sp)
 1b2:	490b3b0b          	0x490b3b0b
 1b6:	24000013          	li	zero,576
 1ba:	0034                	addi	a3,sp,8
 1bc:	0b3a0e03          	lb	t3,179(s4)
 1c0:	13490b3b          	0x13490b3b
 1c4:	0000                	unimp
 1c6:	3425                	jal	fffffbee <fromhost+0x1ffefbde>
 1c8:	0300                	addi	s0,sp,384
 1ca:	3a08                	fld	fa0,48(a2)
 1cc:	490b3b0b          	0x490b3b0b
 1d0:	26000013          	li	zero,608
 1d4:	000a                	0xa
 1d6:	0b3a0803          	lb	a6,179(s4)
 1da:	0000053b          	0x53b
 1de:	00010b27          	0x10b27
 1e2:	2800                	fld	fs0,16(s0)
 1e4:	012e                	slli	sp,sp,0xb
 1e6:	0b3a0e03          	lb	t3,179(s4)
 1ea:	19270b3b          	0x19270b3b
 1ee:	0b20                	addi	s0,sp,408
 1f0:	1301                	addi	t1,t1,-32
 1f2:	0000                	unimp
 1f4:	2e29                	jal	50e <_min_stack-0x1af2>
 1f6:	3f01                	jal	106 <_min_stack-0x1efa>
 1f8:	0319                	addi	t1,t1,6
 1fa:	3a0e                	fld	fs4,224(sp)
 1fc:	270b3b0b          	0x270b3b0b
 200:	4919                	li	s2,6
 202:	010b2013          	slti	zero,s6,16
 206:	2a000013          	li	zero,672
 20a:	002e                	0x2e
 20c:	0e03193f 0b3b0b3a 	0xb3b0b3a0e03193f
 214:	01111927          	0x1111927
 218:	0612                	slli	a2,a2,0x4
 21a:	1840                	addi	s0,sp,52
 21c:	00194297          	auipc	t0,0x194
 220:	2b00                	fld	fs0,16(a4)
 222:	012e                	slli	sp,sp,0xb
 224:	0e03193f 0b3b0b3a 	0xb3b0b3a0e03193f
 22c:	01111927          	0x1111927
 230:	0612                	slli	a2,a2,0x4
 232:	1840                	addi	s0,sp,52
 234:	01194297          	auipc	t0,0x1194
 238:	2c000013          	li	zero,704
 23c:	0005                	c.addi	zero,1
 23e:	0b3a0803          	lb	a6,179(s4)
 242:	13490b3b          	0x13490b3b
 246:	1802                	slli	a6,a6,0x20
 248:	0000                	unimp
 24a:	2e2d                	jal	584 <_min_stack-0x1a7c>
 24c:	3f00                	fld	fs0,56(a4)
 24e:	0319                	addi	t1,t1,6
 250:	3a0e                	fld	fs4,224(sp)
 252:	490b3b0b          	0x490b3b0b
 256:	12011113          	0x12011113
 25a:	4006                	0x4006
 25c:	9718                	0x9718
 25e:	1942                	slli	s2,s2,0x30
 260:	0000                	unimp
 262:	052e                	slli	a0,a0,0xb
 264:	0300                	addi	s0,sp,384
 266:	3a08                	fld	fa0,48(a2)
 268:	490b3b0b          	0x490b3b0b
 26c:	00170213          	addi	tp,a4,1
 270:	2f00                	fld	fs0,24(a4)
 272:	0034                	addi	a3,sp,8
 274:	0b3a0803          	lb	a6,179(s4)
 278:	13490b3b          	0x13490b3b
 27c:	0b1c                	addi	a5,sp,400
 27e:	0000                	unimp
 280:	0530                	addi	a2,sp,648
 282:	0300                	addi	s0,sp,384
 284:	3a0e                	fld	fs4,224(sp)
 286:	490b3b0b          	0x490b3b0b
 28a:	00180213          	addi	tp,a6,1 # 590b5175 <tohost+0x5909516d>
 28e:	3100                	fld	fs0,32(a0)
 290:	0005                	c.addi	zero,1
 292:	0b3a0e03          	lb	t3,179(s4)
 296:	13490b3b          	0x13490b3b
 29a:	1702                	slli	a4,a4,0x20
 29c:	0000                	unimp
 29e:	8932                	mv	s2,a2
 2a0:	0182                	slli	gp,gp,0x0
 2a2:	1101                	addi	sp,sp,-32
 2a4:	9501                	srai	a0,a0,0x20
 2a6:	1942                	slli	s2,s2,0x30
 2a8:	1331                	addi	t1,t1,-20
 2aa:	0000                	unimp
 2ac:	31012e33          	0x31012e33
 2b0:	12011113          	0x12011113
 2b4:	4006                	0x4006
 2b6:	9718                	0x9718
 2b8:	1942                	slli	s2,s2,0x30
 2ba:	1301                	addi	t1,t1,-32
 2bc:	0000                	unimp
 2be:	1d34                	addi	a3,sp,696
 2c0:	3101                	jal	fffffec0 <fromhost+0x1ffefeb0>
 2c2:	55015213          	0x55015213
 2c6:	590b5817          	auipc	a6,0x590b5
 2ca:	0013010b          	0x13010b
 2ce:	3500                	fld	fs0,40(a0)
 2d0:	0005                	c.addi	zero,1
 2d2:	1331                	addi	t1,t1,-20
 2d4:	0000                	unimp
 2d6:	1d36                	slli	s10,s10,0x2d
 2d8:	3101                	jal	fffffed8 <fromhost+0x1ffefec8>
 2da:	12011113          	0x12011113
 2de:	5806                	lw	a6,96(sp)
 2e0:	010b590b          	0x10b590b
 2e4:	37000013          	li	zero,880
 2e8:	011d                	addi	sp,sp,7
 2ea:	1331                	addi	t1,t1,-20
 2ec:	0111                	addi	sp,sp,4
 2ee:	0612                	slli	a2,a2,0x4
 2f0:	0b58                	addi	a4,sp,404
 2f2:	0b59                	addi	s6,s6,22
 2f4:	0000                	unimp
 2f6:	3438                	fld	fa4,104(s0)
 2f8:	3100                	fld	fs0,32(a0)
 2fa:	39000013          	li	zero,912
 2fe:	8289                	srli	a3,a3,0x2
 300:	0101                	addi	sp,sp,0
 302:	0111                	addi	sp,sp,4
 304:	1331                	addi	t1,t1,-20
 306:	1301                	addi	t1,t1,-32
 308:	0000                	unimp
 30a:	2e3a                	fld	ft8,392(sp)
 30c:	3101                	jal	ffffff0c <fromhost+0x1ffefefc>
 30e:	12011113          	0x12011113
 312:	4006                	0x4006
 314:	9718                	0x9718
 316:	1942                	slli	s2,s2,0x30
 318:	0000                	unimp
 31a:	0100                	addi	s0,sp,128
 31c:	0111                	addi	sp,sp,4
 31e:	0e25                	addi	t3,t3,9
 320:	0e030b13          	addi	s6,t1,224 # fffe00e0 <fromhost+0x1ffd00d0>
 324:	17550e1b          	0x17550e1b
 328:	0111                	addi	sp,sp,4
 32a:	1710                	addi	a2,sp,928
 32c:	0000                	unimp
 32e:	2402                	fld	fs0,0(sp)
 330:	0b00                	addi	s0,sp,400
 332:	030b3e0b          	0x30b3e0b
 336:	0008                	0x8
 338:	0300                	addi	s0,sp,384
 33a:	0024                	addi	s1,sp,8
 33c:	0b3e0b0b          	0xb3e0b0b
 340:	00000e03          	lb	t3,0(zero) # 0 <_min_stack-0x2000>
 344:	2e04                	fld	fs1,24(a2)
 346:	3f00                	fld	fs0,56(a4)
 348:	0319                	addi	t1,t1,6
 34a:	3a0e                	fld	fs4,224(sp)
 34c:	270b3b0b          	0x270b3b0b
 350:	1119                	addi	sp,sp,-26
 352:	1201                	addi	tp,tp,-32
 354:	4006                	0x4006
 356:	9718                	0x9718
 358:	1942                	slli	s2,s2,0x30
 35a:	0000                	unimp
 35c:	2e05                	jal	68c <_min_stack-0x1974>
 35e:	3f01                	jal	26e <_min_stack-0x1d92>
 360:	0319                	addi	t1,t1,6
 362:	3a0e                	fld	fs4,224(sp)
 364:	270b3b0b          	0x270b3b0b
 368:	4919                	li	s2,6
 36a:	12011113          	0x12011113
 36e:	4006                	0x4006
 370:	9718                	0x9718
 372:	1942                	slli	s2,s2,0x30
 374:	1301                	addi	t1,t1,-32
 376:	0000                	unimp
 378:	0506                	slli	a0,a0,0x1
 37a:	0300                	addi	s0,sp,384
 37c:	3a0e                	fld	fs4,224(sp)
 37e:	490b3b0b          	0x490b3b0b
 382:	00170213          	addi	tp,a4,1
 386:	0700                	addi	s0,sp,896
 388:	0034                	addi	a3,sp,8
 38a:	0b3a0e03          	lb	t3,179(s4)
 38e:	13490b3b          	0x13490b3b
 392:	1702                	slli	a4,a4,0x20
 394:	0000                	unimp
 396:	0b08                	addi	a0,sp,400
 398:	1101                	addi	sp,sp,-32
 39a:	1201                	addi	tp,tp,-32
 39c:	0106                	slli	sp,sp,0x1
 39e:	09000013          	li	zero,144
 3a2:	0034                	addi	a3,sp,8
 3a4:	0b3a0803          	lb	a6,179(s4)
 3a8:	13490b3b          	0x13490b3b
 3ac:	1702                	slli	a4,a4,0x20
 3ae:	0000                	unimp
 3b0:	340a                	fld	fs0,160(sp)
 3b2:	0300                	addi	s0,sp,384
 3b4:	3a08                	fld	fa0,48(a2)
 3b6:	490b3b0b          	0x490b3b0b
 3ba:	0b000013          	li	zero,176
 3be:	0111010b          	0x111010b
 3c2:	0612                	slli	a2,a2,0x4
 3c4:	0000                	unimp
 3c6:	0f0c                	addi	a1,sp,912
 3c8:	0b00                	addi	s0,sp,400
 3ca:	0013490b          	0x13490b
 3ce:	0000                	unimp
 3d0:	1101                	addi	sp,sp,-32
 3d2:	1000                	addi	s0,sp,32
 3d4:	5506                	lw	a0,96(sp)
 3d6:	0306                	slli	t1,t1,0x1
 3d8:	1b0e                	slli	s6,s6,0x23
 3da:	250e                	fld	fa0,192(sp)
 3dc:	130e                	slli	t1,t1,0x23
 3de:	0005                	c.addi	zero,1
	...

Disassembly of section .debug_loc:

00000000 <.debug_loc>:
   0:	039c                	addi	a5,sp,448
   2:	0000                	unimp
   4:	03aa                	slli	t2,t2,0xa
   6:	0000                	unimp
   8:	0001                	nop
   a:	aa5a                	fsd	fs6,272(sp)
   c:	c2000003          	lb	zero,-992(zero) # fffffc20 <fromhost+0x1ffefc10>
  10:	01000003          	lb	zero,16(zero) # 10 <_min_stack-0x1ff0>
  14:	5900                	lw	s0,48(a0)
  16:	03c2                	slli	t2,t2,0x10
  18:	0000                	unimp
  1a:	03c8                	addi	a0,sp,452
  1c:	0000                	unimp
  1e:	0004                	0x4
  20:	9f5a01f3          	0x9f5a01f3
  24:	03c8                	addi	a0,sp,452
  26:	0000                	unimp
  28:	03cc                	addi	a1,sp,452
  2a:	0000                	unimp
  2c:	0001                	nop
  2e:	0059                	c.addi	zero,22
  30:	0000                	unimp
  32:	0000                	unimp
  34:	0000                	unimp
  36:	9c00                	0x9c00
  38:	aa000003          	lb	zero,-1376(zero) # fffffaa0 <fromhost+0x1ffefa90>
  3c:	02000003          	lb	zero,32(zero) # 20 <_min_stack-0x1fe0>
  40:	3000                	fld	fs0,32(s0)
  42:	ae9f 0003 c400      	0xc4000003ae9f
  48:	01000003          	lb	zero,16(zero) # 10 <_min_stack-0x1ff0>
  4c:	6200                	flw	fs0,0(a2)
  4e:	03c4                	addi	s1,sp,452
  50:	0000                	unimp
  52:	03c8                	addi	a0,sp,452
  54:	0000                	unimp
  56:	0001                	nop
  58:	c85a                	sw	s6,16(sp)
  5a:	cc000003          	lb	zero,-832(zero) # fffffcc0 <fromhost+0x1ffefcb0>
  5e:	06000003          	lb	zero,96(zero) # 60 <_min_stack-0x1fa0>
  62:	7800                	flw	fs0,48(s0)
  64:	7900                	flw	fs0,48(a0)
  66:	1c00                	addi	s0,sp,560
  68:	009f 0000 0000      	0x9f
  6e:	0000                	unimp
  70:	b600                	fsd	fs0,40(a2)
  72:	ba000003          	lb	zero,-1120(zero) # fffffba0 <fromhost+0x1ffefb90>
  76:	02000003          	lb	zero,32(zero) # 20 <_min_stack-0x1fe0>
  7a:	3a00                	fld	fs0,48(a2)
  7c:	009f 0000 0000      	0x9f
  82:	0000                	unimp
  84:	c800                	sw	s0,16(s0)
  86:	c9000003          	lb	zero,-880(zero) # fffffc90 <fromhost+0x1ffefc80>
  8a:	06000003          	lb	zero,96(zero) # 60 <_min_stack-0x1fa0>
  8e:	7a00                	flw	fs0,48(a2)
  90:	0800                	addi	s0,sp,16
  92:	1aff                	0x1aff
  94:	009f 0000 0000      	0x9f
  9a:	0000                	unimp
  9c:	3a00                	fld	fs0,48(a2)
  9e:	0002                	0x2
  a0:	7c00                	flw	fs0,56(s0)
  a2:	0002                	0x2
  a4:	0100                	addi	s0,sp,128
  a6:	5a00                	lw	s0,48(a2)
  a8:	027c                	addi	a5,sp,268
  aa:	0000                	unimp
  ac:	0392                	slli	t2,t2,0x4
  ae:	0000                	unimp
  b0:	0004                	0x4
  b2:	9f5a01f3          	0x9f5a01f3
	...
  be:	0264                	addi	s1,sp,268
  c0:	0000                	unimp
  c2:	0286                	slli	t0,t0,0x1
  c4:	0000                	unimp
  c6:	0001                	nop
  c8:	9c58                	0x9c58
  ca:	0002                	0x2
  cc:	ee00                	fsw	fs0,24(a2)
  ce:	0002                	0x2
  d0:	0100                	addi	s0,sp,128
  d2:	5800                	lw	s0,48(s0)
  d4:	02ee                	slli	t0,t0,0x1b
  d6:	0000                	unimp
  d8:	02fa                	slli	t0,t0,0x1e
  da:	0000                	unimp
  dc:	0001                	nop
  de:	fa68                	fsw	fa0,116(a2)
  e0:	0002                	0x2
  e2:	1800                	addi	s0,sp,48
  e4:	01000003          	lb	zero,16(zero) # 10 <_min_stack-0x1ff0>
  e8:	5800                	lw	s0,48(s0)
  ea:	0318                	addi	a4,sp,384
  ec:	0000                	unimp
  ee:	0328                	addi	a0,sp,392
  f0:	0000                	unimp
  f2:	0001                	nop
  f4:	2868                	fld	fa0,208(s0)
  f6:	38000003          	lb	zero,896(zero) # 380 <_min_stack-0x1c80>
  fa:	01000003          	lb	zero,16(zero) # 10 <_min_stack-0x1ff0>
  fe:	5800                	lw	s0,48(s0)
 100:	0338                	addi	a4,sp,392
 102:	0000                	unimp
 104:	0340                	addi	s0,sp,388
 106:	0000                	unimp
 108:	0001                	nop
 10a:	4068                	lw	a0,68(s0)
 10c:	4c000003          	lb	zero,1216(zero) # 4c0 <_min_stack-0x1b40>
 110:	01000003          	lb	zero,16(zero) # 10 <_min_stack-0x1ff0>
 114:	5800                	lw	s0,48(s0)
 116:	034c                	addi	a1,sp,388
 118:	0000                	unimp
 11a:	0356                	slli	t1,t1,0x15
 11c:	0000                	unimp
 11e:	0001                	nop
 120:	5668                	lw	a0,108(a2)
 122:	62000003          	lb	zero,1568(zero) # 620 <_min_stack-0x19e0>
 126:	01000003          	lb	zero,16(zero) # 10 <_min_stack-0x1ff0>
 12a:	5800                	lw	s0,48(s0)
 12c:	0362                	slli	t1,t1,0x18
 12e:	0000                	unimp
 130:	0368                	addi	a0,sp,396
 132:	0000                	unimp
 134:	0001                	nop
 136:	6868                	flw	fa0,84(s0)
 138:	76000003          	lb	zero,1888(zero) # 760 <_min_stack-0x18a0>
 13c:	01000003          	lb	zero,16(zero) # 10 <_min_stack-0x1ff0>
 140:	5800                	lw	s0,48(s0)
 142:	0376                	slli	t1,t1,0x1d
 144:	0000                	unimp
 146:	0386                	slli	t2,t2,0x1
 148:	0000                	unimp
 14a:	0001                	nop
 14c:	8668                	0x8668
 14e:	92000003          	lb	zero,-1760(zero) # fffff920 <fromhost+0x1ffef910>
 152:	01000003          	lb	zero,16(zero) # 10 <_min_stack-0x1ff0>
 156:	5800                	lw	s0,48(s0)
	...
 160:	0264                	addi	s1,sp,268
 162:	0000                	unimp
 164:	027c                	addi	a5,sp,268
 166:	0000                	unimp
 168:	0001                	nop
 16a:	7c5a                	flw	fs8,180(sp)
 16c:	0002                	0x2
 16e:	8200                	0x8200
 170:	0002                	0x2
 172:	0100                	addi	s0,sp,128
 174:	6700                	flw	fs0,8(a4)
 176:	029c                	addi	a5,sp,320
 178:	0000                	unimp
 17a:	02a0                	addi	s0,sp,328
 17c:	0000                	unimp
 17e:	0001                	nop
 180:	0002a067          	0x2a067
 184:	b800                	fsd	fs0,48(s0)
 186:	0002                	0x2
 188:	0300                	addi	s0,sp,384
 18a:	8700                	0x8700
 18c:	9f01                	0x9f01
 18e:	02b8                	addi	a4,sp,328
 190:	0000                	unimp
 192:	02ba                	slli	t0,t0,0xe
 194:	0000                	unimp
 196:	0001                	nop
 198:	bc5f 0002 fa00      	0xfa000002bc5f
 19e:	0002                	0x2
 1a0:	0100                	addi	s0,sp,128
 1a2:	6700                	flw	fs0,8(a4)
 1a4:	02fa                	slli	t0,t0,0x1e
 1a6:	0000                	unimp
 1a8:	02fe                	slli	t0,t0,0x1f
 1aa:	0000                	unimp
 1ac:	01870003          	lb	zero,24(a4)
 1b0:	fe9f 0002 0200      	0x2000002fe9f
 1b6:	03000003          	lb	zero,48(zero) # 30 <_min_stack-0x1fd0>
 1ba:	7d00                	flw	fs0,56(a0)
 1bc:	9f01                	0x9f01
 1be:	0302                	slli	t1,t1,0x0
 1c0:	0000                	unimp
 1c2:	0308                	addi	a0,sp,384
 1c4:	0000                	unimp
 1c6:	0001                	nop
 1c8:	00030867          	jalr	a6,t1
 1cc:	0a00                	addi	s0,sp,272
 1ce:	03000003          	lb	zero,48(zero) # 30 <_min_stack-0x1fd0>
 1d2:	8000                	0x8000
 1d4:	9f7f                	0x9f7f
 1d6:	030a                	slli	t1,t1,0x2
 1d8:	0000                	unimp
 1da:	030c                	addi	a1,sp,384
 1dc:	0000                	unimp
 1de:	01870003          	lb	zero,24(a4)
 1e2:	0c9f 0003 2800      	0x280000030c9f
 1e8:	01000003          	lb	zero,16(zero) # 10 <_min_stack-0x1ff0>
 1ec:	6700                	flw	fs0,8(a4)
 1ee:	0328                	addi	a0,sp,392
 1f0:	0000                	unimp
 1f2:	032a                	slli	t1,t1,0xa
 1f4:	0000                	unimp
 1f6:	01870003          	lb	zero,24(a4)
 1fa:	2a9f 0003 8600      	0x860000032a9f
 200:	01000003          	lb	zero,16(zero) # 10 <_min_stack-0x1ff0>
 204:	6700                	flw	fs0,8(a4)
 206:	0386                	slli	t2,t2,0x1
 208:	0000                	unimp
 20a:	0388                	addi	a0,sp,448
 20c:	0000                	unimp
 20e:	017f0003          	lb	zero,23(t5)
 212:	889f 0003 9200      	0x92000003889f
 218:	01000003          	lb	zero,16(zero) # 10 <_min_stack-0x1ff0>
 21c:	6700                	flw	fs0,8(a4)
	...
 226:	02a0                	addi	s0,sp,328
 228:	0000                	unimp
 22a:	02cc                	addi	a1,sp,324
 22c:	0000                	unimp
 22e:	0002                	0x2
 230:	9f30                	0x9f30
 232:	02cc                	addi	a1,sp,324
 234:	0000                	unimp
 236:	02f6                	slli	t0,t0,0x1d
 238:	0000                	unimp
 23a:	0001                	nop
 23c:	f65d                	bnez	a2,1ea <_min_stack-0x1e16>
 23e:	0002                	0x2
 240:	f700                	fsw	fs0,40(a4)
 242:	0002                	0x2
 244:	0100                	addi	s0,sp,128
 246:	5b00                	lw	s0,48(a4)
 248:	02fa                	slli	t0,t0,0x1e
 24a:	0000                	unimp
 24c:	0302                	slli	t1,t1,0x0
 24e:	0000                	unimp
 250:	0002                	0x2
 252:	9f30                	0x9f30
 254:	0302                	slli	t1,t1,0x0
 256:	0000                	unimp
 258:	00000323          	sb	zero,6(zero) # 6 <_min_stack-0x1ffa>
 25c:	0001                	nop
 25e:	2c5d                	jal	514 <_min_stack-0x1aec>
 260:	86000003          	lb	zero,-1952(zero) # fffff860 <fromhost+0x1ffef850>
 264:	01000003          	lb	zero,16(zero) # 10 <_min_stack-0x1ff0>
 268:	5d00                	lw	s0,56(a0)
 26a:	0386                	slli	t2,t2,0x1
 26c:	0000                	unimp
 26e:	0388                	addi	a0,sp,448
 270:	0000                	unimp
 272:	0002                	0x2
 274:	9f30                	0x9f30
	...
 27e:	02a0                	addi	s0,sp,328
 280:	0000                	unimp
 282:	02b8                	addi	a4,sp,328
 284:	0000                	unimp
 286:	0002                	0x2
 288:	9f30                	0x9f30
 28a:	02b8                	addi	a4,sp,328
 28c:	0000                	unimp
 28e:	02ba                	slli	t0,t0,0xe
 290:	0000                	unimp
 292:	0002                	0x2
 294:	9f31                	0x9f31
 296:	02bc                	addi	a5,sp,328
 298:	0000                	unimp
 29a:	02f6                	slli	t0,t0,0x1d
 29c:	0000                	unimp
 29e:	0001                	nop
 2a0:	f65e                	fsw	fs7,44(sp)
 2a2:	0002                	0x2
 2a4:	f700                	fsw	fs0,40(a4)
 2a6:	0002                	0x2
 2a8:	0100                	addi	s0,sp,128
 2aa:	5c00                	lw	s0,56(s0)
 2ac:	02fa                	slli	t0,t0,0x1e
 2ae:	0000                	unimp
 2b0:	00000323          	sb	zero,6(zero) # 6 <_min_stack-0x1ffa>
 2b4:	0001                	nop
 2b6:	2c5e                	fld	fs8,464(sp)
 2b8:	86000003          	lb	zero,-1952(zero) # fffff860 <fromhost+0x1ffef850>
 2bc:	01000003          	lb	zero,16(zero) # 10 <_min_stack-0x1ff0>
 2c0:	5e00                	lw	s0,56(a2)
 2c2:	0386                	slli	t2,t2,0x1
 2c4:	0000                	unimp
 2c6:	0388                	addi	a0,sp,448
 2c8:	0000                	unimp
 2ca:	0002                	0x2
 2cc:	9f30                	0x9f30
	...
 2d6:	027c                	addi	a5,sp,268
 2d8:	0000                	unimp
 2da:	0294                	addi	a3,sp,320
 2dc:	0000                	unimp
 2de:	0001                	nop
 2e0:	9466                	add	s0,s0,s9
 2e2:	0002                	0x2
 2e4:	9c00                	0x9c00
 2e6:	0002                	0x2
 2e8:	0100                	addi	s0,sp,128
 2ea:	5a00                	lw	s0,48(a2)
 2ec:	029c                	addi	a5,sp,320
 2ee:	0000                	unimp
 2f0:	038e                	slli	t2,t2,0x3
 2f2:	0000                	unimp
 2f4:	0001                	nop
 2f6:	8e66                	mv	t3,s9
 2f8:	90000003          	lb	zero,-1792(zero) # fffff900 <fromhost+0x1ffef8f0>
 2fc:	03000003          	lb	zero,48(zero) # 30 <_min_stack-0x1fd0>
 300:	8600                	0x8600
 302:	9f7f                	0x9f7f
 304:	0390                	addi	a2,sp,448
 306:	0000                	unimp
 308:	0392                	slli	t2,t2,0x4
 30a:	0000                	unimp
 30c:	0001                	nop
 30e:	0066                	0x66
 310:	0000                	unimp
 312:	0000                	unimp
 314:	0000                	unimp
 316:	8800                	0x8800
 318:	90000003          	lb	zero,-1792(zero) # fffff900 <fromhost+0x1ffef8f0>
 31c:	02000003          	lb	zero,32(zero) # 20 <_min_stack-0x1fe0>
 320:	3000                	fld	fs0,32(s0)
 322:	009f 0000 0000      	0x9f
 328:	0000                	unimp
 32a:	8800                	0x8800
 32c:	8f000003          	lb	zero,-1808(zero) # fffff8f0 <fromhost+0x1ffef8e0>
 330:	08000003          	lb	zero,128(zero) # 80 <_min_stack-0x1f80>
 334:	8700                	0x8700
 336:	9400                	0x9400
 338:	0801                	addi	a6,a6,0
 33a:	1aff                	0x1aff
 33c:	009f 0000 0000      	0x9f
 342:	0000                	unimp
 344:	2e00                	fld	fs0,24(a2)
 346:	0000                	unimp
 348:	4400                	lw	s0,8(s0)
 34a:	0000                	unimp
 34c:	0100                	addi	s0,sp,128
 34e:	5a00                	lw	s0,48(a2)
 350:	0044                	addi	s1,sp,4
 352:	0000                	unimp
 354:	0054                	addi	a3,sp,4
 356:	0000                	unimp
 358:	0001                	nop
 35a:	005a                	0x5a
 35c:	0000                	unimp
 35e:	0000                	unimp
 360:	0000                	unimp
 362:	2e00                	fld	fs0,24(a2)
 364:	0000                	unimp
 366:	4a00                	lw	s0,16(a2)
 368:	0000                	unimp
 36a:	0100                	addi	s0,sp,128
 36c:	5b00                	lw	s0,48(a4)
 36e:	004a                	0x4a
 370:	0000                	unimp
 372:	0054                	addi	a3,sp,4
 374:	0000                	unimp
 376:	0001                	nop
 378:	0000005b          	0x5b
	...
 384:	1400                	addi	s0,sp,544
 386:	0000                	unimp
 388:	0100                	addi	s0,sp,128
 38a:	5b00                	lw	s0,48(a4)
 38c:	0014                	0x14
 38e:	0000                	unimp
 390:	002e                	0x2e
 392:	0000                	unimp
 394:	0004                	0x4
 396:	9f5b01f3          	0x9f5b01f3
	...
 3a2:	0076                	0x76
 3a4:	0000                	unimp
 3a6:	0094                	addi	a3,sp,64
 3a8:	0000                	unimp
 3aa:	0001                	nop
 3ac:	945a                	add	s0,s0,s6
 3ae:	0000                	unimp
 3b0:	f000                	fsw	fs0,32(s0)
 3b2:	0000                	unimp
 3b4:	0100                	addi	s0,sp,128
 3b6:	5900                	lw	s0,48(a0)
	...
 3c0:	0076                	0x76
 3c2:	0000                	unimp
 3c4:	00a6                	slli	ra,ra,0x9
 3c6:	0000                	unimp
 3c8:	0001                	nop
 3ca:	0000a65b          	0xa65b
 3ce:	c400                	sw	s0,8(s0)
 3d0:	0000                	unimp
 3d2:	0100                	addi	s0,sp,128
 3d4:	5800                	lw	s0,48(s0)
 3d6:	00c4                	addi	s1,sp,68
 3d8:	0000                	unimp
 3da:	00c6                	slli	ra,ra,0x11
 3dc:	0000                	unimp
 3de:	0001                	nop
 3e0:	0000c65b          	0xc65b
 3e4:	ca00                	sw	s0,16(a2)
 3e6:	0000                	unimp
 3e8:	0100                	addi	s0,sp,128
 3ea:	6300                	flw	fs0,0(a4)
 3ec:	00ca                	slli	ra,ra,0x12
 3ee:	0000                	unimp
 3f0:	00cc                	addi	a1,sp,68
 3f2:	0000                	unimp
 3f4:	7f830003          	lb	zero,2040(t1)
 3f8:	cc9f 0000 da00      	0xda000000cc9f
 3fe:	0000                	unimp
 400:	0100                	addi	s0,sp,128
 402:	6300                	flw	fs0,0(a4)
 404:	00e0                	addi	s0,sp,76
 406:	0000                	unimp
 408:	00e4                	addi	s1,sp,76
 40a:	0000                	unimp
 40c:	0001                	nop
 40e:	ec58                	fsw	fa4,28(s0)
 410:	0000                	unimp
 412:	f400                	fsw	fs0,40(s0)
 414:	0000                	unimp
 416:	0100                	addi	s0,sp,128
 418:	5800                	lw	s0,48(s0)
 41a:	00f4                	addi	a3,sp,76
 41c:	0000                	unimp
 41e:	0108                	addi	a0,sp,128
 420:	0000                	unimp
 422:	0001                	nop
 424:	1259                	addi	tp,tp,-10
 426:	0001                	nop
 428:	1a00                	addi	s0,sp,304
 42a:	0001                	nop
 42c:	0100                	addi	s0,sp,128
 42e:	5900                	lw	s0,48(a0)
	...
 438:	0076                	0x76
 43a:	0000                	unimp
 43c:	00b6                	slli	ra,ra,0xd
 43e:	0000                	unimp
 440:	0001                	nop
 442:	b65c                	fsd	fa5,168(a2)
 444:	0000                	unimp
 446:	c200                	sw	s0,0(a2)
 448:	0000                	unimp
 44a:	0400                	addi	s0,sp,512
 44c:	f300                	fsw	fs0,32(a4)
 44e:	5c01                	li	s8,-32
 450:	c29f 0000 c600      	0xc6000000c29f
 456:	0000                	unimp
 458:	0100                	addi	s0,sp,128
 45a:	5c00                	lw	s0,56(s0)
 45c:	00c6                	slli	ra,ra,0x11
 45e:	0000                	unimp
 460:	011a                	slli	sp,sp,0x6
 462:	0000                	unimp
 464:	0004                	0x4
 466:	9f5c01f3          	0x9f5c01f3
	...
 472:	0076                	0x76
 474:	0000                	unimp
 476:	00c6                	slli	ra,ra,0x11
 478:	0000                	unimp
 47a:	0002                	0x2
 47c:	9f30                	0x9f30
 47e:	00e0                	addi	s0,sp,76
 480:	0000                	unimp
 482:	00e2                	slli	ra,ra,0x18
 484:	0000                	unimp
 486:	0001                	nop
 488:	ec64                	fsw	fs1,92(s0)
 48a:	0000                	unimp
 48c:	f400                	fsw	fs0,40(s0)
 48e:	0000                	unimp
 490:	0100                	addi	s0,sp,128
 492:	6400                	flw	fs0,8(s0)
	...
 49c:	0076                	0x76
 49e:	0000                	unimp
 4a0:	00b4                	addi	a3,sp,72
 4a2:	0000                	unimp
 4a4:	20080003          	lb	zero,512(a6) # 590b54c6 <tohost+0x590954be>
 4a8:	c29f 0000 c600      	0xc6000000c29f
 4ae:	0000                	unimp
 4b0:	0300                	addi	s0,sp,384
 4b2:	0800                	addi	s0,sp,16
 4b4:	9f20                	0x9f20
	...
 4be:	0094                	addi	a3,sp,64
 4c0:	0000                	unimp
 4c2:	0096                	slli	ra,ra,0x5
 4c4:	0000                	unimp
 4c6:	0008                	0x8
 4c8:	007f                	0x7f
 4ca:	0079                	c.addi	zero,30
 4cc:	231c                	fld	fa5,0(a4)
 4ce:	9f01                	0x9f01
 4d0:	009e                	slli	ra,ra,0x7
 4d2:	0000                	unimp
 4d4:	00b4                	addi	a3,sp,72
 4d6:	0000                	unimp
 4d8:	0001                	nop
 4da:	c25e                	sw	s7,4(sp)
 4dc:	0000                	unimp
 4de:	c600                	sw	s0,8(a2)
 4e0:	0000                	unimp
 4e2:	0100                	addi	s0,sp,128
 4e4:	5e00                	lw	s0,56(a2)
	...
 4ee:	0094                	addi	a3,sp,64
 4f0:	0000                	unimp
 4f2:	0096                	slli	ra,ra,0x5
 4f4:	0000                	unimp
 4f6:	0001                	nop
 4f8:	9e5f 0000 aa00      	0xaa0000009e5f
 4fe:	0000                	unimp
 500:	0100                	addi	s0,sp,128
 502:	5f00                	lw	s0,56(a4)
 504:	00c2                	slli	ra,ra,0x10
 506:	0000                	unimp
 508:	00c6                	slli	ra,ra,0x11
 50a:	0000                	unimp
 50c:	0001                	nop
 50e:	005f 0000 0000      	0x5f
 514:	0000                	unimp
 516:	c600                	sw	s0,8(a2)
 518:	0000                	unimp
 51a:	ca00                	sw	s0,16(a2)
 51c:	0000                	unimp
 51e:	0200                	addi	s0,sp,256
 520:	3000                	fld	fs0,32(s0)
 522:	009f 0000 0000      	0x9f
 528:	0000                	unimp
 52a:	e000                	fsw	fs0,0(s0)
 52c:	0000                	unimp
 52e:	e200                	fsw	fs0,0(a2)
 530:	0000                	unimp
 532:	0200                	addi	s0,sp,256
 534:	3000                	fld	fs0,32(s0)
 536:	009f 0000 0000      	0x9f
 53c:	0000                	unimp
 53e:	e000                	fsw	fs0,0(s0)
 540:	0000                	unimp
 542:	e100                	fsw	fs0,0(a0)
 544:	0000                	unimp
 546:	0600                	addi	s0,sp,768
 548:	7a00                	flw	fs0,48(a2)
 54a:	0800                	addi	s0,sp,16
 54c:	1aff                	0x1aff
 54e:	009f 0000 0000      	0x9f
 554:	0000                	unimp
 556:	1200                	addi	s0,sp,288
 558:	0001                	nop
 55a:	1600                	addi	s0,sp,800
 55c:	0001                	nop
 55e:	0200                	addi	s0,sp,256
 560:	3000                	fld	fs0,32(s0)
 562:	009f 0000 0000      	0x9f
 568:	0000                	unimp
 56a:	1a00                	addi	s0,sp,304
 56c:	0001                	nop
 56e:	3000                	fld	fs0,32(s0)
 570:	0001                	nop
 572:	0100                	addi	s0,sp,128
 574:	5a00                	lw	s0,48(a2)
 576:	0130                	addi	a2,sp,136
 578:	0000                	unimp
 57a:	0140                	addi	s0,sp,132
 57c:	0000                	unimp
 57e:	0004                	0x4
 580:	9f5a01f3          	0x9f5a01f3
 584:	0140                	addi	s0,sp,132
 586:	0000                	unimp
 588:	0150                	addi	a2,sp,132
 58a:	0000                	unimp
 58c:	0001                	nop
 58e:	505a                	0x505a
 590:	0001                	nop
 592:	be00                	fsd	fs0,56(a2)
 594:	0001                	nop
 596:	0400                	addi	s0,sp,512
 598:	f300                	fsw	fs0,32(a4)
 59a:	5a01                	li	s4,-32
 59c:	be9f 0001 c200      	0xc2000001be9f
 5a2:	0001                	nop
 5a4:	0100                	addi	s0,sp,128
 5a6:	5a00                	lw	s0,48(a2)
 5a8:	01c2                	slli	gp,gp,0x10
 5aa:	0000                	unimp
 5ac:	0214                	addi	a3,sp,256
 5ae:	0000                	unimp
 5b0:	0004                	0x4
 5b2:	9f5a01f3          	0x9f5a01f3
	...
 5be:	011a                	slli	sp,sp,0x6
 5c0:	0000                	unimp
 5c2:	012e                	slli	sp,sp,0xb
 5c4:	0000                	unimp
 5c6:	0001                	nop
 5c8:	00012e5b          	0x12e5b
 5cc:	4000                	lw	s0,0(s0)
 5ce:	0001                	nop
 5d0:	0400                	addi	s0,sp,512
 5d2:	f300                	fsw	fs0,32(a4)
 5d4:	5b01                	li	s6,-32
 5d6:	409f 0001 7000      	0x70000001409f
 5dc:	0001                	nop
 5de:	0100                	addi	s0,sp,128
 5e0:	5b00                	lw	s0,48(a4)
 5e2:	0170                	addi	a2,sp,140
 5e4:	0000                	unimp
 5e6:	01be                	slli	gp,gp,0xf
 5e8:	0000                	unimp
 5ea:	0004                	0x4
 5ec:	9f5b01f3          	0x9f5b01f3
 5f0:	01be                	slli	gp,gp,0xf
 5f2:	0000                	unimp
 5f4:	01da                	slli	gp,gp,0x16
 5f6:	0000                	unimp
 5f8:	0001                	nop
 5fa:	0001da5b          	0x1da5b
 5fe:	fe00                	fsw	fs0,56(a2)
 600:	0001                	nop
 602:	0400                	addi	s0,sp,512
 604:	f300                	fsw	fs0,32(a4)
 606:	5b01                	li	s6,-32
 608:	fe9f 0001 0600      	0x6000001fe9f
 60e:	0002                	0x2
 610:	0100                	addi	s0,sp,128
 612:	5b00                	lw	s0,48(a4)
 614:	0206                	slli	tp,tp,0x1
 616:	0000                	unimp
 618:	0214                	addi	a3,sp,256
 61a:	0000                	unimp
 61c:	0004                	0x4
 61e:	9f5b01f3          	0x9f5b01f3
	...
 62a:	011a                	slli	sp,sp,0x6
 62c:	0000                	unimp
 62e:	0126                	slli	sp,sp,0x9
 630:	0000                	unimp
 632:	0001                	nop
 634:	265c                	fld	fa5,136(a2)
 636:	0001                	nop
 638:	3600                	fld	fs0,40(a2)
 63a:	0001                	nop
 63c:	0100                	addi	s0,sp,128
 63e:	5900                	lw	s0,48(a0)
 640:	0136                	slli	sp,sp,0xd
 642:	0000                	unimp
 644:	0140                	addi	s0,sp,132
 646:	0000                	unimp
 648:	0004                	0x4
 64a:	9f5c01f3          	0x9f5c01f3
 64e:	0140                	addi	s0,sp,132
 650:	0000                	unimp
 652:	0150                	addi	a2,sp,132
 654:	0000                	unimp
 656:	0001                	nop
 658:	5059                	0x5059
 65a:	0001                	nop
 65c:	be00                	fsd	fs0,56(a2)
 65e:	0001                	nop
 660:	0400                	addi	s0,sp,512
 662:	f300                	fsw	fs0,32(a4)
 664:	5c01                	li	s8,-32
 666:	be9f 0001 c000      	0xc0000001be9f
 66c:	0001                	nop
 66e:	0100                	addi	s0,sp,128
 670:	5900                	lw	s0,48(a0)
 672:	01c0                	addi	s0,sp,196
 674:	0000                	unimp
 676:	0214                	addi	a3,sp,256
 678:	0000                	unimp
 67a:	0004                	0x4
 67c:	9f5c01f3          	0x9f5c01f3
	...
 688:	011a                	slli	sp,sp,0x6
 68a:	0000                	unimp
 68c:	0135                	addi	sp,sp,13
 68e:	0000                	unimp
 690:	0001                	nop
 692:	355d                	jal	538 <_min_stack-0x1ac8>
 694:	0001                	nop
 696:	3600                	fld	fs0,40(a2)
 698:	0001                	nop
 69a:	0400                	addi	s0,sp,512
 69c:	f300                	fsw	fs0,32(a4)
 69e:	5d01                	li	s10,-32
 6a0:	409f 0001 ed00      	0xed000001409f
 6a6:	0001                	nop
 6a8:	0100                	addi	s0,sp,128
 6aa:	5d00                	lw	s0,56(a0)
 6ac:	01ed                	addi	gp,gp,27
 6ae:	0000                	unimp
 6b0:	01f4                	addi	a3,sp,204
 6b2:	0000                	unimp
 6b4:	0002                	0x2
 6b6:	4891                	li	a7,4
 6b8:	01f4                	addi	a3,sp,204
 6ba:	0000                	unimp
 6bc:	01f9                	addi	gp,gp,30
 6be:	0000                	unimp
 6c0:	0001                	nop
 6c2:	fe5d                	bnez	a2,680 <_min_stack-0x1980>
 6c4:	0001                	nop
 6c6:	1400                	addi	s0,sp,544
 6c8:	0002                	0x2
 6ca:	0100                	addi	s0,sp,128
 6cc:	5d00                	lw	s0,56(a0)
	...
 6d6:	011a                	slli	sp,sp,0x6
 6d8:	0000                	unimp
 6da:	0135                	addi	sp,sp,13
 6dc:	0000                	unimp
 6de:	0001                	nop
 6e0:	355e                	fld	fa0,496(sp)
 6e2:	0001                	nop
 6e4:	4000                	lw	s0,0(s0)
 6e6:	0001                	nop
 6e8:	0400                	addi	s0,sp,512
 6ea:	f300                	fsw	fs0,32(a4)
 6ec:	5e01                	li	t3,-32
 6ee:	409f 0001 ed00      	0xed000001409f
 6f4:	0001                	nop
 6f6:	0100                	addi	s0,sp,128
 6f8:	5c00                	lw	s0,56(s0)
 6fa:	01ed                	addi	gp,gp,27
 6fc:	0000                	unimp
 6fe:	01f4                	addi	a3,sp,204
 700:	0000                	unimp
 702:	0002                	0x2
 704:	4c91                	li	s9,4
 706:	01f4                	addi	a3,sp,204
 708:	0000                	unimp
 70a:	01fe                	slli	gp,gp,0x1f
 70c:	0000                	unimp
 70e:	0004                	0x4
 710:	9f5e01f3          	0x9f5e01f3
 714:	01fe                	slli	gp,gp,0x1f
 716:	0000                	unimp
 718:	0214                	addi	a3,sp,256
 71a:	0000                	unimp
 71c:	0001                	nop
 71e:	005c                	addi	a5,sp,4
 720:	0000                	unimp
 722:	0000                	unimp
 724:	0000                	unimp
 726:	1a00                	addi	s0,sp,304
 728:	0001                	nop
 72a:	2c00                	fld	fs0,24(s0)
 72c:	0001                	nop
 72e:	0100                	addi	s0,sp,128
 730:	5f00                	lw	s0,56(a4)
 732:	012c                	addi	a1,sp,136
 734:	0000                	unimp
 736:	0140                	addi	s0,sp,132
 738:	0000                	unimp
 73a:	0004                	0x4
 73c:	9f5f01f3          	0x9f5f01f3
 740:	0140                	addi	s0,sp,132
 742:	0000                	unimp
 744:	0170                	addi	a2,sp,140
 746:	0000                	unimp
 748:	0001                	nop
 74a:	705f 0001 be00      	0xbe000001705f
 750:	0001                	nop
 752:	0400                	addi	s0,sp,512
 754:	f300                	fsw	fs0,32(a4)
 756:	5f01                	li	t5,-32
 758:	be9f 0001 c200      	0xc2000001be9f
 75e:	0001                	nop
 760:	0100                	addi	s0,sp,128
 762:	5f00                	lw	s0,56(a4)
 764:	01c2                	slli	gp,gp,0x10
 766:	0000                	unimp
 768:	01fe                	slli	gp,gp,0x1f
 76a:	0000                	unimp
 76c:	0004                	0x4
 76e:	9f5f01f3          	0x9f5f01f3
 772:	01fe                	slli	gp,gp,0x1f
 774:	0000                	unimp
 776:	0204                	addi	s1,sp,256
 778:	0000                	unimp
 77a:	0001                	nop
 77c:	045f 0002 1400      	0x14000002045f
 782:	0002                	0x2
 784:	0400                	addi	s0,sp,512
 786:	f300                	fsw	fs0,32(a4)
 788:	5f01                	li	t5,-32
 78a:	009f 0000 0000      	0x9f
 790:	0000                	unimp
 792:	5000                	lw	s0,32(s0)
 794:	0001                	nop
 796:	5a00                	lw	s0,48(a2)
 798:	0001                	nop
 79a:	0300                	addi	s0,sp,384
 79c:	9100                	0x9100
 79e:	015a9f6f          	jal	t5,a9fb2 <tohost+0x89faa>
 7a2:	0000                	unimp
 7a4:	01be                	slli	gp,gp,0xf
 7a6:	0000                	unimp
 7a8:	0001                	nop
 7aa:	c258                	sw	a4,4(a2)
 7ac:	0001                	nop
 7ae:	0600                	addi	s0,sp,768
 7b0:	0002                	0x2
 7b2:	0100                	addi	s0,sp,128
 7b4:	5800                	lw	s0,48(s0)
 7b6:	0206                	slli	tp,tp,0x1
 7b8:	0000                	unimp
 7ba:	0212                	slli	tp,tp,0x4
 7bc:	0000                	unimp
 7be:	7f780003          	lb	zero,2039(a6)
 7c2:	129f 0002 1400      	0x14000002129f
 7c8:	0002                	0x2
 7ca:	0100                	addi	s0,sp,128
 7cc:	5800                	lw	s0,48(s0)
	...
 7d6:	011a                	slli	sp,sp,0x6
 7d8:	0000                	unimp
 7da:	0136                	slli	sp,sp,0xd
 7dc:	0000                	unimp
 7de:	0002                	0x2
 7e0:	9f30                	0x9f30
 7e2:	0140                	addi	s0,sp,132
 7e4:	0000                	unimp
 7e6:	014c                	addi	a1,sp,132
 7e8:	0000                	unimp
 7ea:	0002                	0x2
 7ec:	9f30                	0x9f30
 7ee:	014c                	addi	a1,sp,132
 7f0:	0000                	unimp
 7f2:	0150                	addi	a2,sp,132
 7f4:	0000                	unimp
 7f6:	0002                	0x2
 7f8:	9f31                	0x9f31
 7fa:	0150                	addi	a2,sp,132
 7fc:	0000                	unimp
 7fe:	01be                	slli	gp,gp,0xf
 800:	0000                	unimp
 802:	0001                	nop
 804:	be59                	j	39a <_min_stack-0x1c66>
 806:	0001                	nop
 808:	c200                	sw	s0,0(a2)
 80a:	0001                	nop
 80c:	0200                	addi	s0,sp,256
 80e:	3000                	fld	fs0,32(s0)
 810:	c29f 0001 f400      	0xf4000001c29f
 816:	0001                	nop
 818:	0100                	addi	s0,sp,128
 81a:	5900                	lw	s0,48(a0)
 81c:	01fe                	slli	gp,gp,0x1f
 81e:	0000                	unimp
 820:	0210                	addi	a2,sp,256
 822:	0000                	unimp
 824:	0001                	nop
 826:	0059                	c.addi	zero,22
 828:	0000                	unimp
 82a:	0000                	unimp
 82c:	0000                	unimp
 82e:	1a00                	addi	s0,sp,304
 830:	0001                	nop
 832:	3600                	fld	fs0,40(a2)
 834:	0001                	nop
 836:	0200                	addi	s0,sp,256
 838:	3000                	fld	fs0,32(s0)
 83a:	409f 0001 ee00      	0xee000001409f
 840:	0001                	nop
 842:	0200                	addi	s0,sp,256
 844:	3000                	fld	fs0,32(s0)
 846:	ee9f 0001 f400      	0xf4000001ee9f
 84c:	0001                	nop
 84e:	0200                	addi	s0,sp,256
 850:	3100                	fld	fs0,32(a0)
 852:	f49f 0001 fe00      	0xfe000001f49f
 858:	0001                	nop
 85a:	0100                	addi	s0,sp,128
 85c:	5900                	lw	s0,48(a0)
 85e:	01fe                	slli	gp,gp,0x1f
 860:	0000                	unimp
 862:	0214                	addi	a3,sp,256
 864:	0000                	unimp
 866:	0002                	0x2
 868:	9f30                	0x9f30
	...
 872:	011a                	slli	sp,sp,0x6
 874:	0000                	unimp
 876:	0130                	addi	a2,sp,136
 878:	0000                	unimp
 87a:	0001                	nop
 87c:	305a                	fld	ft0,432(sp)
 87e:	0001                	nop
 880:	3600                	fld	fs0,40(a2)
 882:	0001                	nop
 884:	0400                	addi	s0,sp,512
 886:	f300                	fsw	fs0,32(a4)
 888:	5a01                	li	s4,-32
 88a:	409f 0001 b600      	0xb6000001409f
 890:	0001                	nop
 892:	0100                	addi	s0,sp,128
 894:	5a00                	lw	s0,48(a2)
 896:	01b6                	slli	gp,gp,0xd
 898:	0000                	unimp
 89a:	01b8                	addi	a4,sp,200
 89c:	0000                	unimp
 89e:	7a7a0003          	lb	zero,1959(s4)
 8a2:	be9f 0001 e800      	0xe8000001be9f
 8a8:	0001                	nop
 8aa:	0100                	addi	s0,sp,128
 8ac:	5a00                	lw	s0,48(a2)
 8ae:	01fe                	slli	gp,gp,0x1f
 8b0:	0000                	unimp
 8b2:	0214                	addi	a3,sp,256
 8b4:	0000                	unimp
 8b6:	0001                	nop
 8b8:	005a                	0x5a
 8ba:	0000                	unimp
 8bc:	0000                	unimp
 8be:	0000                	unimp
 8c0:	7200                	flw	fs0,32(a2)
 8c2:	0001                	nop
 8c4:	7a00                	flw	fs0,48(a2)
 8c6:	0001                	nop
 8c8:	0100                	addi	s0,sp,128
 8ca:	5a00                	lw	s0,48(a2)
	...
 8d4:	019c                	addi	a5,sp,192
 8d6:	0000                	unimp
 8d8:	01b6                	slli	gp,gp,0xd
 8da:	0000                	unimp
 8dc:	0001                	nop
 8de:	b65a                	fsd	fs6,296(sp)
 8e0:	0001                	nop
 8e2:	b800                	fsd	fs0,48(s0)
 8e4:	0001                	nop
 8e6:	0300                	addi	s0,sp,384
 8e8:	7a00                	flw	fs0,48(a2)
 8ea:	9f7a                	add	t5,t5,t5
	...
 8f4:	019c                	addi	a5,sp,192
 8f6:	0000                	unimp
 8f8:	01bc                	addi	a5,sp,200
 8fa:	0000                	unimp
 8fc:	0001                	nop
 8fe:	005f 0000 0000      	0x5f
 904:	0000                	unimp
 906:	b000                	fsd	fs0,32(s0)
 908:	0001                	nop
 90a:	b600                	fsd	fs0,40(a2)
 90c:	0001                	nop
 90e:	0900                	addi	s0,sp,144
 910:	7f00                	flw	fs0,56(a4)
 912:	0900                	addi	s0,sp,144
 914:	1ef6                	slli	t4,t4,0x3d
 916:	007a                	0x7a
 918:	9f22                	add	t5,t5,s0
 91a:	01b6                	slli	gp,gp,0xd
 91c:	0000                	unimp
 91e:	01b8                	addi	a4,sp,200
 920:	0000                	unimp
 922:	007f000b          	0x7f000b
 926:	f609                	bnez	a2,830 <_min_stack-0x17d0>
 928:	7a1e                	flw	fs4,228(sp)
 92a:	2200                	fld	fs0,0(a2)
 92c:	1c36                	slli	s8,s8,0x2d
 92e:	009f 0000 0000      	0x9f
 934:	0000                	unimp
 936:	c600                	sw	s0,8(a2)
 938:	0001                	nop
 93a:	d200                	sw	s0,32(a2)
 93c:	0001                	nop
 93e:	0100                	addi	s0,sp,128
 940:	6000                	flw	fs0,0(s0)
 942:	01d2                	slli	gp,gp,0x14
 944:	0000                	unimp
 946:	01d8                	addi	a4,sp,196
 948:	0000                	unimp
 94a:	50800003          	lb	zero,1288(zero) # 508 <_min_stack-0x1af8>
 94e:	009f 0000 0000      	0x9f
 954:	0000                	unimp
 956:	ec00                	fsw	fs0,24(s0)
 958:	0001                	nop
 95a:	ee00                	fsw	fs0,24(a2)
 95c:	0001                	nop
 95e:	0200                	addi	s0,sp,256
 960:	3000                	fld	fs0,32(s0)
 962:	009f 0000 0000      	0x9f
 968:	0000                	unimp
 96a:	ec00                	fsw	fs0,24(s0)
 96c:	0001                	nop
 96e:	ee00                	fsw	fs0,24(a2)
 970:	0001                	nop
 972:	0300                	addi	s0,sp,384
 974:	0800                	addi	s0,sp,16
 976:	9f2d                	0x9f2d
	...
 980:	01ec                	addi	a1,sp,204
 982:	0000                	unimp
 984:	01f4                	addi	a3,sp,204
 986:	0000                	unimp
 988:	2d080003          	lb	zero,720(a6)
 98c:	009f 0000 0000      	0x9f
 992:	0000                	unimp
 994:	2200                	fld	fs0,0(a2)
 996:	0002                	0x2
 998:	2c00                	fld	fs0,24(s0)
 99a:	0002                	0x2
 99c:	0100                	addi	s0,sp,128
 99e:	5a00                	lw	s0,48(a2)
 9a0:	022c                	addi	a1,sp,264
 9a2:	0000                	unimp
 9a4:	0236                	slli	tp,tp,0xd
 9a6:	0000                	unimp
 9a8:	0001                	nop
 9aa:	3658                	fld	fa4,168(a2)
 9ac:	0002                	0x2
 9ae:	3a00                	fld	fs0,48(a2)
 9b0:	0002                	0x2
 9b2:	0100                	addi	s0,sp,128
 9b4:	5a00                	lw	s0,48(a2)
	...
 9be:	04dc                	addi	a5,sp,580
 9c0:	e000                	fsw	fs0,0(s0)
 9c2:	0534                	addi	a3,sp,648
 9c4:	e000                	fsw	fs0,0(s0)
 9c6:	0001                	nop
 9c8:	345a                	fld	fs0,432(sp)
 9ca:	0005                	c.addi	zero,1
 9cc:	64e0                	flw	fs0,76(s1)
 9ce:	0005                	c.addi	zero,1
 9d0:	04e0                	addi	s0,sp,588
 9d2:	f300                	fsw	fs0,32(a4)
 9d4:	5a01                	li	s4,-32
 9d6:	009f 0000 0000      	0x9f
 9dc:	0000                	unimp
 9de:	dc00                	sw	s0,56(s0)
 9e0:	0004                	0x4
 9e2:	fce0                	fsw	fs0,124(s1)
 9e4:	0004                	0x4
 9e6:	01e0                	addi	s0,sp,204
 9e8:	5b00                	lw	s0,48(a4)
 9ea:	04fc                	addi	a5,sp,588
 9ec:	e000                	fsw	fs0,0(s0)
 9ee:	0564                	addi	s1,sp,652
 9f0:	e000                	fsw	fs0,0(s0)
 9f2:	0004                	0x4
 9f4:	9f5b01f3          	0x9f5b01f3
	...
 a00:	04e6                	slli	s1,s1,0x19
 a02:	e000                	fsw	fs0,0(s0)
 a04:	04f0                	addi	a2,sp,588
 a06:	e000                	fsw	fs0,0(s0)
 a08:	0009                	c.addi	zero,2
 a0a:	807f                	0x807f
 a0c:	8080                	0x8080
 a0e:	01f0                	addi	a2,sp,204
 a10:	2432                	fld	fs0,264(sp)
 a12:	f09f 0004 f8e0      	0xf8e00004f09f
 a18:	0004                	0x4
 a1a:	0ae0                	addi	s0,sp,348
 a1c:	7e00                	flw	fs0,56(a2)
 a1e:	0600                	addi	s0,sp,768
 a20:	484e                	lw	a6,208(sp)
 a22:	2224                	fld	fs1,64(a2)
 a24:	2432                	fld	fs0,264(sp)
 a26:	009f 0005 10e0      	0x10e00005009f
 a2c:	0005                	c.addi	zero,1
 a2e:	09e0                	addi	s0,sp,220
 a30:	7f00                	flw	fs0,56(a4)
 a32:	8080                	0x8080
 a34:	f080                	fsw	fs0,32(s1)
 a36:	3201                	jal	336 <_min_stack-0x1cca>
 a38:	9f24                	0x9f24
 a3a:	0510                	addi	a2,sp,640
 a3c:	e000                	fsw	fs0,0(s0)
 a3e:	0516                	slli	a0,a0,0x5
 a40:	e000                	fsw	fs0,0(s0)
 a42:	0009                	c.addi	zero,2
 a44:	fc7f                	0xfc7f
 a46:	ffff                	0xffff
 a48:	243201ef          	jal	gp,2148a <tohost+0x1482>
 a4c:	1e9f 0005 28e0      	0x28e000051e9f
 a52:	0005                	c.addi	zero,1
 a54:	09e0                	addi	s0,sp,220
 a56:	7f00                	flw	fs0,56(a4)
 a58:	8080                	0x8080
 a5a:	80c0                	0x80c0
 a5c:	3202                	fld	ft4,32(sp)
 a5e:	9f24                	0x9f24
 a60:	0528                	addi	a0,sp,648
 a62:	e000                	fsw	fs0,0(s0)
 a64:	0530                	addi	a2,sp,648
 a66:	e000                	fsw	fs0,0(s0)
 a68:	000c                	0xc
 a6a:	007d                	c.addi	zero,31
 a6c:	2306                	fld	ft6,64(sp)
 a6e:	8080                	0x8080
 a70:	80c0                	0x80c0
 a72:	3202                	fld	ft4,32(sp)
 a74:	9f24                	0x9f24
 a76:	0538                	addi	a4,sp,648
 a78:	e000                	fsw	fs0,0(s0)
 a7a:	0548                	addi	a0,sp,644
 a7c:	e000                	fsw	fs0,0(s0)
 a7e:	0009                	c.addi	zero,2
 a80:	807f                	0x807f
 a82:	c080                	sw	s0,0(s1)
 a84:	0280                	addi	s0,sp,320
 a86:	2432                	fld	fs0,264(sp)
 a88:	489f 0005 4ee0      	0x4ee00005489f
 a8e:	0005                	c.addi	zero,1
 a90:	09e0                	addi	s0,sp,220
 a92:	7f00                	flw	fs0,56(a4)
 a94:	fffc                	fsw	fa5,124(a5)
 a96:	320280bf 05569f24 	0x5569f24320280bf
 a9e:	e000                	fsw	fs0,0(s0)
 aa0:	0560                	addi	s0,sp,652
 aa2:	e000                	fsw	fs0,0(s0)
 aa4:	0006                	0x6
 aa6:	049e                	slli	s1,s1,0x7
 aa8:	0018                	0x18
 aaa:	c11c                	sw	a5,0(a0)
	...
 ab4:	04dc                	addi	a5,sp,580
 ab6:	e000                	fsw	fs0,0(s0)
 ab8:	0500                	addi	s0,sp,640
 aba:	e000                	fsw	fs0,0(s0)
 abc:	0002                	0x2
 abe:	9f30                	0x9f30
 ac0:	0500                	addi	s0,sp,640
 ac2:	e000                	fsw	fs0,0(s0)
 ac4:	055c                	addi	a5,sp,644
 ac6:	e000                	fsw	fs0,0(s0)
 ac8:	0001                	nop
 aca:	605e                	flw	ft0,212(sp)
 acc:	0005                	c.addi	zero,1
 ace:	64e0                	flw	fs0,76(s1)
 ad0:	0005                	c.addi	zero,1
 ad2:	01e0                	addi	s0,sp,204
 ad4:	5e00                	lw	s0,56(a2)
	...
 ade:	04dc                	addi	a5,sp,580
 ae0:	e000                	fsw	fs0,0(s0)
 ae2:	0538                	addi	a4,sp,648
 ae4:	e000                	fsw	fs0,0(s0)
 ae6:	0002                	0x2
 ae8:	9f30                	0x9f30
 aea:	0538                	addi	a4,sp,648
 aec:	e000                	fsw	fs0,0(s0)
 aee:	0564                	addi	s1,sp,652
 af0:	e000                	fsw	fs0,0(s0)
 af2:	0001                	nop
 af4:	005d                	c.addi	zero,23
 af6:	0000                	unimp
 af8:	0000                	unimp
 afa:	0000                	unimp
 afc:	dc00                	sw	s0,56(s0)
 afe:	0004                	0x4
 b00:	e6e0                	fsw	fs0,76(a3)
 b02:	0004                	0x4
 b04:	02e0                	addi	s0,sp,332
 b06:	3000                	fld	fs0,32(s0)
 b08:	009f 0000 0000      	0x9f
 b0e:	0000                	unimp
	...

Disassembly of section .debug_aranges:

00000000 <.debug_aranges>:
   0:	001c                	0x1c
   2:	0000                	unimp
   4:	0002                	0x2
   6:	0000                	unimp
   8:	0000                	unimp
   a:	0004                	0x4
   c:	0000                	unimp
   e:	0000                	unimp
  10:	0084                	addi	s1,sp,64
  12:	e000                	fsw	fs0,0(s0)
  14:	03cc                	addi	a1,sp,452
	...
  1e:	0000                	unimp
  20:	0024                	addi	s1,sp,8
  22:	0000                	unimp
  24:	0002                	0x2
  26:	0842                	slli	a6,a6,0x10
  28:	0000                	unimp
  2a:	0004                	0x4
  2c:	0000                	unimp
  2e:	0000                	unimp
  30:	0450                	addi	a2,sp,516
  32:	e000                	fsw	fs0,0(s0)
  34:	0002                	0x2
  36:	0000                	unimp
  38:	04dc                	addi	a5,sp,580
  3a:	e000                	fsw	fs0,0(s0)
  3c:	0088                	addi	a0,sp,64
	...
  46:	0000                	unimp
  48:	0024                	addi	s1,sp,8
  4a:	0000                	unimp
  4c:	0002                	0x2
  4e:	09a0                	addi	s0,sp,216
  50:	0000                	unimp
  52:	0004                	0x4
  54:	0000                	unimp
  56:	0000                	unimp
  58:	0452                	slli	s0,s0,0x14
  5a:	e000                	fsw	fs0,0(s0)
  5c:	008a                	slli	ra,ra,0x2
  5e:	0000                	unimp
  60:	0000                	unimp
  62:	e000                	fsw	fs0,0(s0)
  64:	0084                	addi	s1,sp,64
	...

Disassembly of section .debug_ranges:

00000000 <.debug_ranges>:
   0:	0094                	addi	a3,sp,64
   2:	0000                	unimp
   4:	00aa                	slli	ra,ra,0xa
   6:	0000                	unimp
   8:	00ae                	slli	ra,ra,0xb
   a:	0000                	unimp
   c:	00b4                	addi	a3,sp,72
   e:	0000                	unimp
  10:	00c2                	slli	ra,ra,0x10
  12:	0000                	unimp
  14:	00c6                	slli	ra,ra,0x11
	...
  1e:	0000                	unimp
  20:	00bc                	addi	a5,sp,72
  22:	0000                	unimp
  24:	00c2                	slli	ra,ra,0x10
  26:	0000                	unimp
  28:	00c6                	slli	ra,ra,0x11
  2a:	0000                	unimp
  2c:	00ca                	slli	ra,ra,0x12
	...
  36:	0000                	unimp
  38:	00bc                	addi	a5,sp,72
  3a:	0000                	unimp
  3c:	00c2                	slli	ra,ra,0x10
  3e:	0000                	unimp
  40:	00c6                	slli	ra,ra,0x11
  42:	0000                	unimp
  44:	00ca                	slli	ra,ra,0x12
	...
  4e:	0000                	unimp
  50:	00f0                	addi	a2,sp,76
  52:	0000                	unimp
  54:	00f4                	addi	a3,sp,76
  56:	0000                	unimp
  58:	0112                	slli	sp,sp,0x4
  5a:	0000                	unimp
  5c:	0116                	slli	sp,sp,0x5
	...
  66:	0000                	unimp
  68:	00f0                	addi	a2,sp,76
  6a:	0000                	unimp
  6c:	00f4                	addi	a3,sp,76
  6e:	0000                	unimp
  70:	0112                	slli	sp,sp,0x4
  72:	0000                	unimp
  74:	0116                	slli	sp,sp,0x5
	...
  7e:	0000                	unimp
  80:	015e                	slli	sp,sp,0x17
  82:	0000                	unimp
  84:	016e                	slli	sp,sp,0x1b
  86:	0000                	unimp
  88:	0172                	slli	sp,sp,0x1c
  8a:	0000                	unimp
  8c:	017e                	slli	sp,sp,0x1f
  8e:	0000                	unimp
  90:	0180                	addi	s0,sp,192
  92:	0000                	unimp
  94:	018a                	slli	gp,gp,0x2
	...
  9e:	0000                	unimp
  a0:	016e                	slli	sp,sp,0x1b
  a2:	0000                	unimp
  a4:	0170                	addi	a2,sp,140
  a6:	0000                	unimp
  a8:	018e                	slli	gp,gp,0x3
  aa:	0000                	unimp
  ac:	0194                	addi	a3,sp,192
  ae:	0000                	unimp
  b0:	019c                	addi	a5,sp,192
  b2:	0000                	unimp
  b4:	01be                	slli	gp,gp,0xf
	...
  be:	0000                	unimp
  c0:	01c2                	slli	gp,gp,0x10
  c2:	0000                	unimp
  c4:	01d8                	addi	a4,sp,196
  c6:	0000                	unimp
  c8:	01fe                	slli	gp,gp,0x1f
  ca:	0000                	unimp
  cc:	0206                	slli	tp,tp,0x1
	...
  d6:	0000                	unimp
  d8:	0264                	addi	s1,sp,268
  da:	0000                	unimp
  dc:	0282                	slli	t0,t0,0x0
  de:	0000                	unimp
  e0:	029c                	addi	a5,sp,320
  e2:	0000                	unimp
  e4:	0392                	slli	t2,t2,0x4
	...
  ee:	0000                	unimp
  f0:	0274                	addi	a3,sp,268
  f2:	0000                	unimp
  f4:	027c                	addi	a5,sp,268
  f6:	0000                	unimp
  f8:	02e8                	addi	a0,sp,332
  fa:	0000                	unimp
  fc:	02f6                	slli	t0,t0,0x1d
	...
 106:	0000                	unimp
 108:	0388                	addi	a0,sp,448
 10a:	0000                	unimp
 10c:	038c                	addi	a1,sp,448
 10e:	0000                	unimp
 110:	038e                	slli	t2,t2,0x3
 112:	0000                	unimp
 114:	0392                	slli	t2,t2,0x4
	...
 11e:	0000                	unimp
 120:	0450                	addi	a2,sp,516
 122:	e000                	fsw	fs0,0(s0)
 124:	0452                	slli	s0,s0,0x14
 126:	e000                	fsw	fs0,0(s0)
 128:	04dc                	addi	a5,sp,580
 12a:	e000                	fsw	fs0,0(s0)
 12c:	0564                	addi	s1,sp,652
 12e:	e000                	fsw	fs0,0(s0)
	...
 138:	ffff                	0xffff
 13a:	ffff                	0xffff
 13c:	0000                	unimp
 13e:	0000                	unimp
 140:	0452                	slli	s0,s0,0x14
 142:	e000                	fsw	fs0,0(s0)
 144:	04dc                	addi	a5,sp,580
 146:	e000                	fsw	fs0,0(s0)
 148:	0000                	unimp
 14a:	e000                	fsw	fs0,0(s0)
 14c:	0084                	addi	s1,sp,64
 14e:	e000                	fsw	fs0,0(s0)
	...

Disassembly of section .debug_line:

00000000 <.debug_line>:
   0:	0521                	addi	a0,a0,8
   2:	0000                	unimp
   4:	0002                	0x2
   6:	000000cf          	fnmadd.s	ft1,ft0,ft0,ft0,rne
   a:	0101                	addi	sp,sp,0
   c:	000d0efb          	0xd0efb
  10:	0101                	addi	sp,sp,0
  12:	0101                	addi	sp,sp,0
  14:	0000                	unimp
  16:	0100                	addi	s0,sp,128
  18:	0000                	unimp
  1a:	2f01                	jal	72a <_min_stack-0x18d6>
  1c:	61726373          	csrrsi	t1,0x617,4
  20:	6374                	flw	fa3,68(a4)
  22:	2f68                	fld	fa0,216(a4)
  24:	636d                	lui	t1,0x1b
  26:	6169                	addi	sp,sp,208
  28:	696e                	flw	fs2,216(sp)
  2a:	2d746f2f          	0x2d746f2f
  2e:	66726163          	bltu	tp,t2,690 <_min_stack-0x1970>
  32:	6569                	lui	a0,0x1a
  34:	646c                	flw	fa1,76(s0)
  36:	65706f2f          	0x65706f2f
  3a:	746e                	flw	fs0,248(sp)
  3c:	7469                	lui	s0,0xffffa
  3e:	6e61                	lui	t3,0x18
  40:	2f77732f          	0x2f77732f
  44:	6574                	flw	fa3,76(a0)
  46:	2f737473          	csrrci	s0,0x2f7,6
  4a:	66726163          	bltu	tp,t2,6ac <_min_stack-0x1954>
  4e:	6569                	lui	a0,0x1a
  50:	646c                	flw	fa1,76(s0)
  52:	6d6f632f          	0x6d6f632f
  56:	6f6d                	lui	t5,0x1b
  58:	006e                	0x6e
  5a:	7273752f          	0x7273752f
  5e:	7263732f          	0x7263732f
  62:	7461                	lui	s0,0xffff8
  64:	6c2f6863          	bltu	t5,sp,734 <_min_stack-0x18cc>
  68:	6761                	lui	a4,0x18
  6a:	6572                	flw	fa0,28(sp)
  6c:	3576                	fld	fa0,376(sp)
  6e:	61766c2f          	0x61766c2f
  72:	656c                	flw	fa1,76(a0)
  74:	746e                	flw	fs0,248(sp)
  76:	2f65                	jal	82e <_min_stack-0x17d2>
  78:	6972                	flw	fs2,28(sp)
  7a:	5f766373          	csrrsi	t1,0x5f7,12
  7e:	6e69                	lui	t3,0x1a
  80:	6c617473          	csrrci	s0,0x6c6,2
  84:	2f6c                	fld	fa1,216(a4)
  86:	696c                	flw	fa1,84(a0)
  88:	2f62                	fld	ft10,24(sp)
  8a:	2f636367          	0x2f636367
  8e:	6972                	flw	fs2,28(sp)
  90:	36766373          	csrrsi	t1,0x367,12
  94:	2d34                	fld	fa3,88(a0)
  96:	6e75                	lui	t3,0x1d
  98:	776f6e6b          	0x776f6e6b
  9c:	2d6e                	fld	fs10,216(sp)
  9e:	6c65                	lui	s8,0x19
  a0:	2f66                	fld	ft10,88(sp)
  a2:	2e322e37          	lui	t3,0x2e322
  a6:	2f30                	fld	fa2,88(a4)
  a8:	6e69                	lui	t3,0x1a
  aa:	64756c63          	bltu	a0,t2,702 <_min_stack-0x18fe>
  ae:	0065                	c.addi	zero,25
  b0:	7500                	flw	fs0,40(a0)
  b2:	6974                	flw	fa3,84(a0)
  b4:	736c                	flw	fa1,100(a4)
  b6:	632e                	flw	ft6,200(sp)
  b8:	0100                	addi	s0,sp,128
  ba:	0000                	unimp
  bc:	61647473          	csrrci	s0,0x616,8
  c0:	6772                	flw	fa4,28(sp)
  c2:	682e                	flw	fa6,200(sp)
  c4:	0200                	addi	s0,sp,256
  c6:	0000                	unimp
  c8:	69647473          	csrrci	s0,0x696,8
  cc:	746e                	flw	fs0,248(sp)
  ce:	672d                	lui	a4,0xb
  d0:	682e6363          	bltu	t3,sp,756 <_min_stack-0x18aa>
  d4:	0200                	addi	s0,sp,256
  d6:	0000                	unimp
  d8:	0000                	unimp
  da:	0205                	addi	tp,tp,1
  dc:	0084                	addi	s1,sp,64
  de:	e000                	fsw	fs0,0(s0)
  e0:	03012903          	lw	s2,48(sp)
  e4:	0902                	slli	s2,s2,0x0
  e6:	0000                	unimp
  e8:	0301                	addi	t1,t1,0
  ea:	0901                	addi	s2,s2,0
  ec:	000a                	0xa
  ee:	0301                	addi	t1,t1,0
  f0:	0901                	addi	s2,s2,0
  f2:	0006                	0x6
  f4:	0301                	addi	t1,t1,0
  f6:	0901                	addi	s2,s2,0
  f8:	0006                	0x6
  fa:	0301                	addi	t1,t1,0
  fc:	0901                	addi	s2,s2,0
  fe:	0006                	0x6
 100:	0301                	addi	t1,t1,0
 102:	0902                	slli	s2,s2,0x0
 104:	0004                	0x4
 106:	0301                	addi	t1,t1,0
 108:	0901                	addi	s2,s2,0
 10a:	000c                	0xc
 10c:	0301                	addi	t1,t1,0
 10e:	0902                	slli	s2,s2,0x0
 110:	0002                	0x2
 112:	0301                	addi	t1,t1,0
 114:	00000907          	0x907
 118:	0301                	addi	t1,t1,0
 11a:	097c                	addi	a5,sp,156
 11c:	0004                	0x4
 11e:	0301                	addi	t1,t1,0
 120:	090d                	addi	s2,s2,3
 122:	0002                	0x2
 124:	0001                	nop
 126:	0402                	slli	s0,s0,0x0
 128:	0301                	addi	t1,t1,0
 12a:	00020977          	0x20977
 12e:	0001                	nop
 130:	0402                	slli	s0,s0,0x0
 132:	0304                	addi	s1,sp,384
 134:	0904                	addi	s1,sp,144
 136:	000c                	0xc
 138:	0001                	nop
 13a:	0402                	slli	s0,s0,0x0
 13c:	0304                	addi	s1,sp,384
 13e:	0902                	slli	s2,s2,0x0
 140:	0006                	0x6
 142:	0001                	nop
 144:	0402                	slli	s0,s0,0x0
 146:	0304                	addi	s1,sp,384
 148:	097e                	slli	s2,s2,0x1f
 14a:	0002                	0x2
 14c:	0001                	nop
 14e:	0402                	slli	s0,s0,0x0
 150:	0304                	addi	s1,sp,384
 152:	097e                	slli	s2,s2,0x1f
 154:	0002                	0x2
 156:	0001                	nop
 158:	0402                	slli	s0,s0,0x0
 15a:	00030603          	lb	a2,0(t1) # 1b000 <_stack_len+0x13000>
 15e:	0409                	addi	s0,s0,2
 160:	0100                	addi	s0,sp,128
 162:	0306                	slli	t1,t1,0x1
 164:	0909                	addi	s2,s2,2
 166:	0004                	0x4
 168:	0301                	addi	t1,t1,0
 16a:	0901                	addi	s2,s2,0
 16c:	0000                	unimp
 16e:	0001                	nop
 170:	0402                	slli	s0,s0,0x0
 172:	0601                	addi	a2,a2,0
 174:	04090003          	lb	zero,64(s2) # 2040 <_min_stack+0x40>
 178:	0100                	addi	s0,sp,128
 17a:	0306                	slli	t1,t1,0x1
 17c:	0902                	slli	s2,s2,0x0
 17e:	0006                	0x6
 180:	0301                	addi	t1,t1,0
 182:	0901                	addi	s2,s2,0
 184:	0002                	0x2
 186:	0301                	addi	t1,t1,0
 188:	0902                	slli	s2,s2,0x0
 18a:	0006                	0x6
 18c:	0301                	addi	t1,t1,0
 18e:	0902                	slli	s2,s2,0x0
 190:	0000                	unimp
 192:	0001                	nop
 194:	0402                	slli	s0,s0,0x0
 196:	0601                	addi	a2,a2,0
 198:	04090003          	lb	zero,64(s2)
 19c:	0100                	addi	s0,sp,128
 19e:	0306                	slli	t1,t1,0x1
 1a0:	00080903          	lb	s2,0(a6)
 1a4:	0301                	addi	t1,t1,0
 1a6:	0901                	addi	s2,s2,0
 1a8:	0002                	0x2
 1aa:	0301                	addi	t1,t1,0
 1ac:	00c8                	addi	a0,sp,68
 1ae:	0209                	addi	tp,tp,2
 1b0:	0100                	addi	s0,sp,128
 1b2:	0e090003          	lb	zero,224(s2)
 1b6:	0100                	addi	s0,sp,128
 1b8:	04090203          	lb	tp,64(s2)
 1bc:	0100                	addi	s0,sp,128
 1be:	04090203          	lb	tp,64(s2)
 1c2:	0100                	addi	s0,sp,128
 1c4:	08090303          	lb	t1,128(s2)
 1c8:	0100                	addi	s0,sp,128
 1ca:	0c090103          	lb	sp,192(s2)
 1ce:	0100                	addi	s0,sp,128
 1d0:	04090103          	lb	sp,64(s2)
 1d4:	0100                	addi	s0,sp,128
 1d6:	02090103          	lb	sp,32(s2)
 1da:	0100                	addi	s0,sp,128
 1dc:	04097803          	0x4097803
 1e0:	0100                	addi	s0,sp,128
 1e2:	04090803          	lb	a6,64(s2)
 1e6:	0100                	addi	s0,sp,128
 1e8:	06090203          	lb	tp,96(s2)
 1ec:	0100                	addi	s0,sp,128
 1ee:	02097603          	0x2097603
 1f2:	0100                	addi	s0,sp,128
 1f4:	02090a03          	lb	s4,32(s2)
 1f8:	0100                	addi	s0,sp,128
 1fa:	04096503          	0x4096503
 1fe:	0100                	addi	s0,sp,128
 200:	06091703          	lh	a4,96(s2)
 204:	0100                	addi	s0,sp,128
 206:	04096903          	0x4096903
 20a:	0100                	addi	s0,sp,128
 20c:	04091c03          	lh	s8,64(s2)
 210:	0100                	addi	s0,sp,128
 212:	16096403          	0x16096403
 216:	0100                	addi	s0,sp,128
 218:	02092103          	lw	sp,32(s2)
 21c:	0100                	addi	s0,sp,128
 21e:	0e095f03          	lhu	t5,224(s2)
 222:	0100                	addi	s0,sp,128
 224:	04092503          	lw	a0,64(s2)
 228:	0100                	addi	s0,sp,128
 22a:	04090503          	lb	a0,64(s2)
 22e:	0100                	addi	s0,sp,128
 230:	06090103          	lb	sp,96(s2)
 234:	0100                	addi	s0,sp,128
 236:	14095503          	lhu	a0,320(s2)
 23a:	0100                	addi	s0,sp,128
 23c:	04092503          	lw	a0,64(s2)
 240:	0100                	addi	s0,sp,128
 242:	04090803          	lb	a6,64(s2)
 246:	0100                	addi	s0,sp,128
 248:	08090003          	lb	zero,128(s2)
 24c:	0100                	addi	s0,sp,128
 24e:	04090703          	lb	a4,64(s2)
 252:	0100                	addi	s0,sp,128
 254:	02090203          	lb	tp,32(s2)
 258:	0100                	addi	s0,sp,128
 25a:	04090203          	lb	tp,64(s2)
 25e:	0100                	addi	s0,sp,128
 260:	04097e03          	0x4097e03
 264:	0100                	addi	s0,sp,128
 266:	04090203          	lb	tp,64(s2)
 26a:	0100                	addi	s0,sp,128
 26c:	02092d03          	lw	s10,32(s2)
 270:	0100                	addi	s0,sp,128
 272:	0a095603          	lhu	a2,160(s2)
 276:	0100                	addi	s0,sp,128
 278:	0c090303          	lb	t1,192(s2)
 27c:	0100                	addi	s0,sp,128
 27e:	04090403          	lb	s0,64(s2)
 282:	0100                	addi	s0,sp,128
 284:	04090303          	lb	t1,64(s2)
 288:	0100                	addi	s0,sp,128
 28a:	02097c03          	0x2097c03
 28e:	0100                	addi	s0,sp,128
 290:	04090403          	lb	s0,64(s2)
 294:	0100                	addi	s0,sp,128
 296:	097fb503          	0x97fb503
 29a:	0004                	0x4
 29c:	0301                	addi	t1,t1,0
 29e:	0901                	addi	s2,s2,0
 2a0:	0004                	0x4
 2a2:	0301                	addi	t1,t1,0
 2a4:	097f                	0x97f
 2a6:	0008                	0x8
 2a8:	0301                	addi	t1,t1,0
 2aa:	0975                	addi	s2,s2,29
 2ac:	0004                	0x4
 2ae:	0301                	addi	t1,t1,0
 2b0:	020900e3          	beqz	s2,ad0 <_min_stack-0x1530>
 2b4:	0100                	addi	s0,sp,128
 2b6:	097fa803          	lw	a6,151(t6)
 2ba:	0002                	0x2
 2bc:	0301                	addi	t1,t1,0
 2be:	00d9                	addi	ra,ra,22
 2c0:	0c09                	addi	s8,s8,2
 2c2:	0100                	addi	s0,sp,128
 2c4:	097fa703          	lw	a4,151(t6)
 2c8:	0002                	0x2
 2ca:	0301                	addi	t1,t1,0
 2cc:	0901                	addi	s2,s2,0
 2ce:	0008                	0x8
 2d0:	0301                	addi	t1,t1,0
 2d2:	00d8                	addi	a4,sp,68
 2d4:	0209                	addi	tp,tp,2
 2d6:	0100                	addi	s0,sp,128
 2d8:	097f9703          	lh	a4,151(t6)
 2dc:	0004                	0x4
 2de:	0301                	addi	t1,t1,0
 2e0:	00e9                	addi	ra,ra,26
 2e2:	0609                	addi	a2,a2,2
 2e4:	0100                	addi	s0,sp,128
 2e6:	097f9803          	lh	a6,151(t6)
 2ea:	0008                	0x8
 2ec:	0301                	addi	t1,t1,0
 2ee:	0901                	addi	s2,s2,0
 2f0:	0006                	0x6
 2f2:	0301                	addi	t1,t1,0
 2f4:	0901                	addi	s2,s2,0
 2f6:	0006                	0x6
 2f8:	0301                	addi	t1,t1,0
 2fa:	0901                	addi	s2,s2,0
 2fc:	0006                	0x6
 2fe:	0301                	addi	t1,t1,0
 300:	0901                	addi	s2,s2,0
 302:	0002                	0x2
 304:	0301                	addi	t1,t1,0
 306:	0902                	slli	s2,s2,0x0
 308:	0004                	0x4
 30a:	0301                	addi	t1,t1,0
 30c:	00c0                	addi	s0,sp,68
 30e:	0a09                	addi	s4,s4,2
 310:	0100                	addi	s0,sp,128
 312:	04091703          	lh	a4,64(s2)
 316:	0100                	addi	s0,sp,128
 318:	04090203          	lb	tp,64(s2)
 31c:	0100                	addi	s0,sp,128
 31e:	04090103          	lb	sp,64(s2)
 322:	0100                	addi	s0,sp,128
 324:	02090203          	lb	tp,32(s2)
 328:	0100                	addi	s0,sp,128
 32a:	0a090103          	lb	sp,160(s2)
 32e:	0100                	addi	s0,sp,128
 330:	02097903          	0x2097903
 334:	0100                	addi	s0,sp,128
 336:	02091103          	lh	sp,32(s2)
 33a:	0100                	addi	s0,sp,128
 33c:	02090103          	lb	sp,32(s2)
 340:	0100                	addi	s0,sp,128
 342:	097fa703          	lw	a4,151(t6)
 346:	0008                	0x8
 348:	0301                	addi	t1,t1,0
 34a:	00dd                	addi	ra,ra,23
 34c:	0a09                	addi	s4,s4,2
 34e:	0100                	addi	s0,sp,128
 350:	06090703          	lb	a4,96(s2)
 354:	0100                	addi	s0,sp,128
 356:	0a096603          	0xa096603
 35a:	0100                	addi	s0,sp,128
 35c:	02090103          	lb	sp,32(s2)
 360:	0100                	addi	s0,sp,128
 362:	06091603          	lh	a2,96(s2)
 366:	0100                	addi	s0,sp,128
 368:	08095003          	lhu	zero,128(s2)
 36c:	0100                	addi	s0,sp,128
 36e:	02093003          	0x2093003
 372:	0100                	addi	s0,sp,128
 374:	097ee803          	0x97ee803
 378:	0004                	0x4
 37a:	0301                	addi	t1,t1,0
 37c:	0902                	slli	s2,s2,0x0
 37e:	0000                	unimp
 380:	0001                	nop
 382:	0402                	slli	s0,s0,0x0
 384:	0601                	addi	a2,a2,0
 386:	04090003          	lb	zero,64(s2)
 38a:	0100                	addi	s0,sp,128
 38c:	0306                	slli	t1,t1,0x1
 38e:	0901                	addi	s2,s2,0
 390:	0008                	0x8
 392:	0301                	addi	t1,t1,0
 394:	00020933          	add	s2,tp,zero
 398:	0301                	addi	t1,t1,0
 39a:	0901                	addi	s2,s2,0
 39c:	0006                	0x6
 39e:	0301                	addi	t1,t1,0
 3a0:	097f                	0x97f
 3a2:	0004                	0x4
 3a4:	0301                	addi	t1,t1,0
 3a6:	0901                	addi	s2,s2,0
 3a8:	0002                	0x2
 3aa:	0301                	addi	t1,t1,0
 3ac:	0902                	slli	s2,s2,0x0
 3ae:	0002                	0x2
 3b0:	0301                	addi	t1,t1,0
 3b2:	01aa                	slli	gp,gp,0xa
 3b4:	0a09                	addi	s4,s4,2
 3b6:	0100                	addi	s0,sp,128
 3b8:	04090403          	lb	s0,64(s2)
 3bc:	0100                	addi	s0,sp,128
 3be:	02097c03          	0x2097c03
 3c2:	0100                	addi	s0,sp,128
 3c4:	12090003          	lb	zero,288(s2)
 3c8:	0100                	addi	s0,sp,128
 3ca:	10090403          	lb	s0,256(s2)
 3ce:	0100                	addi	s0,sp,128
 3d0:	097fba03          	0x97fba03
 3d4:	0002                	0x2
 3d6:	0301                	addi	t1,t1,0
 3d8:	0905                	addi	s2,s2,1
 3da:	0002                	0x2
 3dc:	0301                	addi	t1,t1,0
 3de:	0906                	slli	s2,s2,0x1
 3e0:	0004                	0x4
 3e2:	0301                	addi	t1,t1,0
 3e4:	0905                	addi	s2,s2,1
 3e6:	0004                	0x4
 3e8:	0301                	addi	t1,t1,0
 3ea:	0906                	slli	s2,s2,0x1
 3ec:	0004                	0x4
 3ee:	0301                	addi	t1,t1,0
 3f0:	0905                	addi	s2,s2,1
 3f2:	0002                	0x2
 3f4:	0301                	addi	t1,t1,0
 3f6:	0968                	addi	a0,sp,156
 3f8:	0008                	0x8
 3fa:	0301                	addi	t1,t1,0
 3fc:	060900cb          	fnmsub.q	ft1,fs2,ft0,ft0,rne
 400:	0100                	addi	s0,sp,128
 402:	097fb703          	0x97fb703
 406:	001a                	0x1a
 408:	0301                	addi	t1,t1,0
 40a:	0904                	addi	s1,sp,144
 40c:	0004                	0x4
 40e:	0301                	addi	t1,t1,0
 410:	0901                	addi	s2,s2,0
 412:	000a                	0xa
 414:	0301                	addi	t1,t1,0
 416:	097e                	slli	s2,s2,0x1f
 418:	0004                	0x4
 41a:	0301                	addi	t1,t1,0
 41c:	00020903          	lb	s2,0(tp) # 0 <_min_stack-0x2000>
 420:	0301                	addi	t1,t1,0
 422:	0902                	slli	s2,s2,0x0
 424:	0004                	0x4
 426:	0301                	addi	t1,t1,0
 428:	0901                	addi	s2,s2,0
 42a:	0004                	0x4
 42c:	0301                	addi	t1,t1,0
 42e:	0902                	slli	s2,s2,0x0
 430:	0004                	0x4
 432:	0301                	addi	t1,t1,0
 434:	0978                	addi	a4,sp,156
 436:	000c                	0xc
 438:	0301                	addi	t1,t1,0
 43a:	090d                	addi	s2,s2,3
 43c:	0002                	0x2
 43e:	0301                	addi	t1,t1,0
 440:	0904                	addi	s1,sp,144
 442:	0016                	0x16
 444:	0301                	addi	t1,t1,0
 446:	0901                	addi	s2,s2,0
 448:	0008                	0x8
 44a:	0301                	addi	t1,t1,0
 44c:	0901                	addi	s2,s2,0
 44e:	0006                	0x6
 450:	0301                	addi	t1,t1,0
 452:	0916                	slli	s2,s2,0x5
 454:	0008                	0x8
 456:	0301                	addi	t1,t1,0
 458:	0962                	slli	s2,s2,0x18
 45a:	0004                	0x4
 45c:	0301                	addi	t1,t1,0
 45e:	097f                	0x97f
 460:	0004                	0x4
 462:	0301                	addi	t1,t1,0
 464:	0904                	addi	s1,sp,144
 466:	0004                	0x4
 468:	0301                	addi	t1,t1,0
 46a:	097f                	0x97f
 46c:	0004                	0x4
 46e:	0301                	addi	t1,t1,0
 470:	0902                	slli	s2,s2,0x0
 472:	0002                	0x2
 474:	0301                	addi	t1,t1,0
 476:	00040907          	0x40907
 47a:	0301                	addi	t1,t1,0
 47c:	0901                	addi	s2,s2,0
 47e:	0008                	0x8
 480:	0301                	addi	t1,t1,0
 482:	0964                	addi	s1,sp,156
 484:	0014                	0x14
 486:	0301                	addi	t1,t1,0
 488:	091f 0004 0301      	0x3010004091f
 48e:	0901                	addi	s2,s2,0
 490:	0008                	0x8
 492:	0301                	addi	t1,t1,0
 494:	000c0903          	lb	s2,0(s8) # 19000 <_stack_len+0x11000>
 498:	0301                	addi	t1,t1,0
 49a:	0901                	addi	s2,s2,0
 49c:	0008                	0x8
 49e:	0301                	addi	t1,t1,0
 4a0:	0904                	addi	s1,sp,144
 4a2:	0008                	0x8
 4a4:	0301                	addi	t1,t1,0
 4a6:	097f                	0x97f
 4a8:	0006                	0x6
 4aa:	0301                	addi	t1,t1,0
 4ac:	0901                	addi	s2,s2,0
 4ae:	0008                	0x8
 4b0:	0301                	addi	t1,t1,0
 4b2:	000a0903          	lb	s2,0(s4)
 4b6:	0301                	addi	t1,t1,0
 4b8:	0901                	addi	s2,s2,0
 4ba:	0008                	0x8
 4bc:	0301                	addi	t1,t1,0
 4be:	0901                	addi	s2,s2,0
 4c0:	0006                	0x6
 4c2:	0301                	addi	t1,t1,0
 4c4:	097f                	0x97f
 4c6:	0004                	0x4
 4c8:	0301                	addi	t1,t1,0
 4ca:	0902                	slli	s2,s2,0x0
 4cc:	0004                	0x4
 4ce:	0301                	addi	t1,t1,0
 4d0:	0956                	slli	s2,s2,0x15
 4d2:	0008                	0x8
 4d4:	0301                	addi	t1,t1,0
 4d6:	02097f8f          	0x2097f8f
 4da:	0100                	addi	s0,sp,128
 4dc:	0901a303          	lw	t1,144(gp)
 4e0:	0004                	0x4
 4e2:	0301                	addi	t1,t1,0
 4e4:	7edd                	lui	t4,0xffff7
 4e6:	0209                	addi	tp,tp,2
 4e8:	0100                	addi	s0,sp,128
 4ea:	097f8f03          	lb	t5,151(t6)
 4ee:	0004                	0x4
 4f0:	0301                	addi	t1,t1,0
 4f2:	0901                	addi	s2,s2,0
 4f4:	0000                	unimp
 4f6:	0301                	addi	t1,t1,0
 4f8:	0a0902ab          	0xa0902ab
 4fc:	0100                	addi	s0,sp,128
 4fe:	0a090003          	lb	zero,160(s2)
 502:	0100                	addi	s0,sp,128
 504:	02090303          	lb	t1,32(s2)
 508:	0100                	addi	s0,sp,128
 50a:	097ec203          	lbu	tp,151(t4) # ffff7097 <fromhost+0x1ffe7087>
 50e:	000e                	0xe
 510:	0301                	addi	t1,t1,0
 512:	01c4                	addi	s1,sp,196
 514:	0409                	addi	s0,s0,2
 516:	0100                	addi	s0,sp,128
 518:	097ebc03          	0x97ebc03
 51c:	000e                	0xe
 51e:	0901                	addi	s2,s2,0
 520:	0004                	0x4
 522:	0100                	addi	s0,sp,128
 524:	0c01                	addi	s8,s8,0
 526:	0001                	nop
 528:	0200                	addi	s0,sp,256
 52a:	2b00                	fld	fs0,16(a4)
 52c:	0000                	unimp
 52e:	0100                	addi	s0,sp,128
 530:	fb01                	bnez	a4,440 <_min_stack-0x1bc0>
 532:	0d0e                	slli	s10,s10,0x3
 534:	0100                	addi	s0,sp,128
 536:	0101                	addi	sp,sp,0
 538:	0001                	nop
 53a:	0000                	unimp
 53c:	0001                	nop
 53e:	0100                	addi	s0,sp,128
 540:	6300                	flw	fs0,0(a4)
 542:	7261                	lui	tp,0xffff8
 544:	6966                	flw	fs2,88(sp)
 546:	6c65                	lui	s8,0x19
 548:	5f64                	lw	s1,124(a4)
 54a:	6d6d                	lui	s10,0x1b
 54c:	7061                	0x7061
 54e:	745f 7365 2e74      	0x2e747365745f
 554:	00000063          	beqz	zero,554 <_min_stack-0x1aac>
 558:	0000                	unimp
 55a:	0500                	addi	s0,sp,640
 55c:	dc02                	sw	zero,56(sp)
 55e:	0004                	0x4
 560:	03e0                	addi	s0,sp,460
 562:	00030117          	auipc	sp,0x30
 566:	0009                	c.addi	zero,2
 568:	0100                	addi	s0,sp,128
 56a:	02090a03          	lb	s4,32(s2)
 56e:	0100                	addi	s0,sp,128
 570:	04097e03          	0x4097e03
 574:	0100                	addi	s0,sp,128
 576:	0200                	addi	s0,sp,256
 578:	0304                	addi	s1,sp,384
 57a:	04090203          	lb	tp,64(s2)
 57e:	0100                	addi	s0,sp,128
 580:	0200                	addi	s0,sp,256
 582:	0304                	addi	s1,sp,384
 584:	0a097e03          	0xa097e03
 588:	0100                	addi	s0,sp,128
 58a:	06097b03          	0x6097b03
 58e:	0100                	addi	s0,sp,128
 590:	02090c03          	lb	s8,32(s2)
 594:	0100                	addi	s0,sp,128
 596:	04097e03          	0x4097e03
 59a:	0100                	addi	s0,sp,128
 59c:	04090203          	lb	tp,64(s2)
 5a0:	0100                	addi	s0,sp,128
 5a2:	0c090103          	lb	sp,192(s2)
 5a6:	0100                	addi	s0,sp,128
 5a8:	0200                	addi	s0,sp,256
 5aa:	0204                	addi	s1,sp,256
 5ac:	04097d03          	0x4097d03
 5b0:	0100                	addi	s0,sp,128
 5b2:	06090d03          	lb	s10,96(s2)
 5b6:	0100                	addi	s0,sp,128
 5b8:	04097e03          	0x4097e03
 5bc:	0100                	addi	s0,sp,128
 5be:	0200                	addi	s0,sp,256
 5c0:	0304                	addi	s1,sp,384
 5c2:	04090203          	lb	tp,64(s2)
 5c6:	0100                	addi	s0,sp,128
 5c8:	0200                	addi	s0,sp,256
 5ca:	0304                	addi	s1,sp,384
 5cc:	0a097e03          	0xa097e03
 5d0:	0100                	addi	s0,sp,128
 5d2:	06096c03          	0x6096c03
 5d6:	0100                	addi	s0,sp,128
 5d8:	02091a03          	lh	s4,32(s2)
 5dc:	0100                	addi	s0,sp,128
 5de:	04097e03          	0x4097e03
 5e2:	0100                	addi	s0,sp,128
 5e4:	04090203          	lb	tp,64(s2)
 5e8:	0100                	addi	s0,sp,128
 5ea:	0c090103          	lb	sp,192(s2)
 5ee:	0100                	addi	s0,sp,128
 5f0:	0200                	addi	s0,sp,256
 5f2:	0204                	addi	s1,sp,256
 5f4:	04097d03          	0x4097d03
 5f8:	0100                	addi	s0,sp,128
 5fa:	04090a03          	lb	s4,64(s2)
 5fe:	0100                	addi	s0,sp,128
 600:	0200                	addi	s0,sp,256
 602:	0104                	addi	s1,sp,128
 604:	0306                	slli	t1,t1,0x1
 606:	0900                	addi	s0,sp,144
 608:	0006                	0x6
 60a:	0601                	addi	a2,a2,0
 60c:	04090403          	lb	s0,64(s2)
 610:	0100                	addi	s0,sp,128
 612:	0a090203          	lb	tp,160(s2)
 616:	0100                	addi	s0,sp,128
 618:	0409                	addi	s0,s0,2
 61a:	0000                	unimp
 61c:	0101                	addi	sp,sp,0
 61e:	0500                	addi	s0,sp,640
 620:	5002                	0x5002
 622:	0004                	0x4
 624:	03e0                	addi	s0,sp,460
 626:	00c6                	slli	ra,ra,0x11
 628:	0301                	addi	t1,t1,0
 62a:	0901                	addi	s2,s2,0
 62c:	0000                	unimp
 62e:	0901                	addi	s2,s2,0
 630:	0002                	0x2
 632:	0100                	addi	s0,sp,128
 634:	b901                	j	244 <_min_stack-0x1dbc>
 636:	0001                	nop
 638:	0200                	addi	s0,sp,256
 63a:	5c00                	lw	s0,56(s0)
 63c:	0000                	unimp
 63e:	0100                	addi	s0,sp,128
 640:	fb01                	bnez	a4,550 <_min_stack-0x1ab0>
 642:	0d0e                	slli	s10,s10,0x3
 644:	0100                	addi	s0,sp,128
 646:	0101                	addi	sp,sp,0
 648:	0001                	nop
 64a:	0000                	unimp
 64c:	0001                	nop
 64e:	0100                	addi	s0,sp,128
 650:	7263732f          	0x7263732f
 654:	7461                	lui	s0,0xffff8
 656:	6d2f6863          	bltu	t5,s2,d26 <_min_stack-0x12da>
 65a:	6e616963          	bltu	sp,t1,d4c <_min_stack-0x12b4>
 65e:	2f69                	jal	df8 <_min_stack-0x1208>
 660:	632d746f          	jal	s0,d7c92 <tohost+0xb7c8a>
 664:	7261                	lui	tp,0xffff8
 666:	6966                	flw	fs2,88(sp)
 668:	6c65                	lui	s8,0x19
 66a:	2f64                	fld	fs1,216(a4)
 66c:	6e65706f          	j	57d52 <tohost+0x37d4a>
 670:	6974                	flw	fa3,84(a0)
 672:	6174                	flw	fa3,68(a0)
 674:	2f6e                	fld	ft10,216(sp)
 676:	742f7773          	csrrci	a4,0x742,30
 67a:	7365                	lui	t1,0xffff9
 67c:	7374                	flw	fa3,100(a4)
 67e:	7261632f          	0x7261632f
 682:	6966                	flw	fs2,88(sp)
 684:	6c65                	lui	s8,0x19
 686:	2f64                	fld	fs1,216(a4)
 688:	6d6d6f63          	bltu	s10,s6,d66 <_min_stack-0x129a>
 68c:	00006e6f          	jal	t3,668c <_min_stack+0x468c>
 690:	30747263          	bleu	t2,s0,994 <_min_stack-0x166c>
 694:	532e                	lw	t1,232(sp)
 696:	0100                	addi	s0,sp,128
 698:	0000                	unimp
 69a:	0000                	unimp
 69c:	0205                	addi	tp,tp,1
 69e:	0452                	slli	s0,s0,0x14
 6a0:	e000                	fsw	fs0,0(s0)
 6a2:	031a                	slli	t1,t1,0x6
 6a4:	0904                	addi	s1,sp,144
 6a6:	0004                	0x4
 6a8:	0301                	addi	t1,t1,0
 6aa:	0901                	addi	s2,s2,0
 6ac:	0004                	0x4
 6ae:	0301                	addi	t1,t1,0
 6b0:	0901                	addi	s2,s2,0
 6b2:	0002                	0x2
 6b4:	0301                	addi	t1,t1,0
 6b6:	0901                	addi	s2,s2,0
 6b8:	0002                	0x2
 6ba:	0301                	addi	t1,t1,0
 6bc:	0901                	addi	s2,s2,0
 6be:	0002                	0x2
 6c0:	0301                	addi	t1,t1,0
 6c2:	0901                	addi	s2,s2,0
 6c4:	0002                	0x2
 6c6:	0301                	addi	t1,t1,0
 6c8:	0901                	addi	s2,s2,0
 6ca:	0002                	0x2
 6cc:	0301                	addi	t1,t1,0
 6ce:	0901                	addi	s2,s2,0
 6d0:	0002                	0x2
 6d2:	0301                	addi	t1,t1,0
 6d4:	0901                	addi	s2,s2,0
 6d6:	0002                	0x2
 6d8:	0301                	addi	t1,t1,0
 6da:	0901                	addi	s2,s2,0
 6dc:	0002                	0x2
 6de:	0301                	addi	t1,t1,0
 6e0:	0901                	addi	s2,s2,0
 6e2:	0002                	0x2
 6e4:	0301                	addi	t1,t1,0
 6e6:	0901                	addi	s2,s2,0
 6e8:	0002                	0x2
 6ea:	0301                	addi	t1,t1,0
 6ec:	0901                	addi	s2,s2,0
 6ee:	0002                	0x2
 6f0:	0301                	addi	t1,t1,0
 6f2:	0901                	addi	s2,s2,0
 6f4:	0002                	0x2
 6f6:	0301                	addi	t1,t1,0
 6f8:	0901                	addi	s2,s2,0
 6fa:	0002                	0x2
 6fc:	0301                	addi	t1,t1,0
 6fe:	0901                	addi	s2,s2,0
 700:	0002                	0x2
 702:	0301                	addi	t1,t1,0
 704:	0901                	addi	s2,s2,0
 706:	0002                	0x2
 708:	0301                	addi	t1,t1,0
 70a:	0901                	addi	s2,s2,0
 70c:	0002                	0x2
 70e:	0301                	addi	t1,t1,0
 710:	0901                	addi	s2,s2,0
 712:	0002                	0x2
 714:	0301                	addi	t1,t1,0
 716:	0901                	addi	s2,s2,0
 718:	0002                	0x2
 71a:	0301                	addi	t1,t1,0
 71c:	0901                	addi	s2,s2,0
 71e:	0002                	0x2
 720:	0301                	addi	t1,t1,0
 722:	0901                	addi	s2,s2,0
 724:	0002                	0x2
 726:	0301                	addi	t1,t1,0
 728:	0901                	addi	s2,s2,0
 72a:	0002                	0x2
 72c:	0301                	addi	t1,t1,0
 72e:	0901                	addi	s2,s2,0
 730:	0002                	0x2
 732:	0301                	addi	t1,t1,0
 734:	0901                	addi	s2,s2,0
 736:	0002                	0x2
 738:	0301                	addi	t1,t1,0
 73a:	0901                	addi	s2,s2,0
 73c:	0002                	0x2
 73e:	0301                	addi	t1,t1,0
 740:	0901                	addi	s2,s2,0
 742:	0002                	0x2
 744:	0301                	addi	t1,t1,0
 746:	0901                	addi	s2,s2,0
 748:	0002                	0x2
 74a:	0301                	addi	t1,t1,0
 74c:	0901                	addi	s2,s2,0
 74e:	0002                	0x2
 750:	0301                	addi	t1,t1,0
 752:	0901                	addi	s2,s2,0
 754:	0002                	0x2
 756:	0301                	addi	t1,t1,0
 758:	0901                	addi	s2,s2,0
 75a:	0002                	0x2
 75c:	0301                	addi	t1,t1,0
 75e:	00020903          	lb	s2,0(tp) # ffff8000 <fromhost+0x1ffe7ff0>
 762:	0301                	addi	t1,t1,0
 764:	00080907          	0x80907
 768:	0301                	addi	t1,t1,0
 76a:	0901                	addi	s2,s2,0
 76c:	0008                	0x8
 76e:	0301                	addi	t1,t1,0
 770:	0901                	addi	s2,s2,0
 772:	0008                	0x8
 774:	0301                	addi	t1,t1,0
 776:	0904                	addi	s1,sp,144
 778:	0004                	0x4
 77a:	0301                	addi	t1,t1,0
 77c:	0901                	addi	s2,s2,0
 77e:	0004                	0x4
 780:	0301                	addi	t1,t1,0
 782:	0901                	addi	s2,s2,0
 784:	0002                	0x2
 786:	0301                	addi	t1,t1,0
 788:	0906                	slli	s2,s2,0x1
 78a:	0004                	0x4
 78c:	0301                	addi	t1,t1,0
 78e:	0901                	addi	s2,s2,0
 790:	0004                	0x4
 792:	0301                	addi	t1,t1,0
 794:	0901                	addi	s2,s2,0
 796:	0004                	0x4
 798:	0301                	addi	t1,t1,0
 79a:	00040903          	lb	s2,0(s0) # ffff8000 <fromhost+0x1ffe7ff0>
 79e:	0301                	addi	t1,t1,0
 7a0:	0901                	addi	s2,s2,0
 7a2:	0008                	0x8
 7a4:	0301                	addi	t1,t1,0
 7a6:	0901                	addi	s2,s2,0
 7a8:	0002                	0x2
 7aa:	0301                	addi	t1,t1,0
 7ac:	0902                	slli	s2,s2,0x0
 7ae:	0004                	0x4
 7b0:	0301                	addi	t1,t1,0
 7b2:	0901                	addi	s2,s2,0
 7b4:	0004                	0x4
 7b6:	0901                	addi	s2,s2,0
 7b8:	0002                	0x2
 7ba:	0100                	addi	s0,sp,128
 7bc:	0001                	nop
 7be:	0205                	addi	tp,tp,1
 7c0:	0000                	unimp
 7c2:	e000                	fsw	fs0,0(s0)
 7c4:	0100d803          	lhu	a6,16(ra) # 10 <_min_stack-0x1ff0>
 7c8:	28090203          	lb	tp,640(s2)
 7cc:	0100                	addi	s0,sp,128
 7ce:	04090203          	lb	tp,64(s2)
 7d2:	0100                	addi	s0,sp,128
 7d4:	04090503          	lb	a0,64(s2)
 7d8:	0100                	addi	s0,sp,128
 7da:	48090103          	lb	sp,1152(s2)
 7de:	0100                	addi	s0,sp,128
 7e0:	04090103          	lb	sp,64(s2)
 7e4:	0100                	addi	s0,sp,128
 7e6:	04090503          	lb	a0,64(s2)
 7ea:	0100                	addi	s0,sp,128
 7ec:	0409                	addi	s0,s0,2
 7ee:	0000                	unimp
 7f0:	0101                	addi	sp,sp,0

Disassembly of section .debug_str:

00000000 <.debug_str>:
   0:	726f6873          	csrrsi	a6,0x726,30
   4:	2074                	fld	fa3,192(s0)
   6:	6e69                	lui	t3,0x1a
   8:	0074                	addi	a3,sp,12
   a:	7570                	flw	fa2,108(a0)
   c:	6374                	flw	fa3,68(a4)
   e:	6168                	flw	fa0,68(a0)
  10:	0072                	0x72
  12:	6170                	flw	fa2,68(a0)
  14:	6364                	flw	fs1,68(a4)
  16:	6168                	flw	fa0,68(a0)
  18:	0072                	0x72
  1a:	6175                	addi	sp,sp,368
  1c:	7472                	flw	fs0,60(sp)
  1e:	735f 7465 635f      	0x635f7465735f
  24:	6766                	flw	fa4,88(sp)
  26:	2f00                	fld	fs0,24(a4)
  28:	61726373          	csrrsi	t1,0x617,4
  2c:	6374                	flw	fa3,68(a4)
  2e:	2f68                	fld	fa0,216(a4)
  30:	636d                	lui	t1,0x1b
  32:	6169                	addi	sp,sp,208
  34:	696e                	flw	fs2,216(sp)
  36:	2d746f2f          	0x2d746f2f
  3a:	66726163          	bltu	tp,t2,69c <_min_stack-0x1964>
  3e:	6569                	lui	a0,0x1a
  40:	646c                	flw	fa1,76(s0)
  42:	65706f2f          	0x65706f2f
  46:	746e                	flw	fs0,248(sp)
  48:	7469                	lui	s0,0xffffa
  4a:	6e61                	lui	t3,0x18
  4c:	2f77732f          	0x2f77732f
  50:	6574                	flw	fa3,76(a0)
  52:	2f737473          	csrrci	s0,0x2f7,6
  56:	66726163          	bltu	tp,t2,6b8 <_min_stack-0x1948>
  5a:	6569                	lui	a0,0x1a
  5c:	646c                	flw	fa1,76(s0)
  5e:	6d6f632f          	0x6d6f632f
  62:	6f6d                	lui	t5,0x1b
  64:	2f6e                	fld	ft10,216(sp)
  66:	7475                	lui	s0,0xffffd
  68:	6c69                	lui	s8,0x1a
  6a:	00632e73          	csrrs	t3,0x6,t1
  6e:	74646977          	0x74646977
  72:	0068                	addi	a0,sp,12
  74:	706d6973          	csrrsi	s2,0x706,26
  78:	656c                	flw	fa1,76(a0)
  7a:	655f 6378 685f      	0x685f6378655f
  80:	6e61                	lui	t3,0x18
  82:	6c64                	flw	fs1,92(s0)
  84:	7265                	lui	tp,0xffff9
  86:	6c00                	flw	fs0,24(s0)
  88:	20676e6f          	jal	t3,7628e <tohost+0x56286>
  8c:	6f6c                	flw	fa1,92(a4)
  8e:	676e                	flw	fa4,216(sp)
  90:	6920                	flw	fs0,80(a0)
  92:	746e                	flw	fs0,248(sp)
  94:	7200                	flw	fs0,32(a2)
  96:	6d65                	lui	s10,0x19
  98:	3175                	jal	fffffd44 <fromhost+0x1ffefd34>
  9a:	5f30                	lw	a2,120(a4)
  9c:	6174                	flw	fa3,68(a0)
  9e:	6c62                	flw	fs8,24(sp)
  a0:	0065                	c.addi	zero,25
  a2:	6175                	addi	sp,sp,368
  a4:	7472                	flw	fs0,60(sp)
  a6:	675f 7465 6863      	0x68637465675f
  ac:	7261                	lui	tp,0xffff8
  ae:	6c00                	flw	fs0,24(s0)
  b0:	7465                	lui	s0,0xffff9
  b2:	6162                	flw	ft2,24(sp)
  b4:	73006573          	csrrsi	a0,0x730,0
  b8:	7274                	flw	fa3,100(a2)
  ba:	6e69                	lui	t3,0x1a
  bc:	72700067          	jr	1831(zero) # 727 <_min_stack-0x18d9>
  c0:	6e69                	lui	t3,0x1a
  c2:	6674                	flw	fa3,76(a2)
  c4:	7100                	flw	fs0,32(a0)
  c6:	7270                	flw	fa2,100(a2)
  c8:	6e69                	lui	t3,0x1a
  ca:	6974                	flw	fa3,84(a0)
  cc:	7000                	flw	fs0,32(s0)
  ce:	7261                	lui	tp,0xffff8
  d0:	7469                	lui	s0,0xffffa
  d2:	0079                	c.addi	zero,30
  d4:	7071                	0x7071
  d6:	6972                	flw	fs2,28(sp)
  d8:	746e                	flw	fs0,248(sp)
  da:	65720073          	0x65720073
  de:	756d                	lui	a0,0xffffb
  e0:	3031                	jal	fffff8ec <fromhost+0x1ffef8dc>
  e2:	6c00                	flw	fs0,24(s0)
  e4:	20676e6f          	jal	t3,762ea <tohost+0x562e2>
  e8:	6f64                	flw	fs1,92(a4)
  ea:	6275                	lui	tp,0x1d
  ec:	656c                	flw	fa1,76(a0)
  ee:	7500                	flw	fs0,40(a0)
  f0:	736e                	flw	ft6,248(sp)
  f2:	6769                	lui	a4,0x1a
  f4:	656e                	flw	fa0,216(sp)
  f6:	2064                	fld	fs1,192(s0)
  f8:	72616863          	bltu	sp,t1,828 <_min_stack-0x17d8>
  fc:	7500                	flw	fs0,40(a0)
  fe:	7261                	lui	tp,0xffff8
 100:	5f74                	lw	a3,124(a4)
 102:	74696177          	0x74696177
 106:	745f 5f78 6f64      	0x6f645f78745f
 10c:	656e                	flw	fa0,216(sp)
 10e:	6c00                	flw	fs0,24(s0)
 110:	20676e6f          	jal	t3,76316 <tohost+0x5630e>
 114:	6f6c                	flw	fa1,92(a4)
 116:	676e                	flw	fa4,216(sp)
 118:	7520                	flw	fs0,104(a0)
 11a:	736e                	flw	ft6,248(sp)
 11c:	6769                	lui	a4,0x1a
 11e:	656e                	flw	fa0,216(sp)
 120:	2064                	fld	fs1,192(s0)
 122:	6e69                	lui	t3,0x1a
 124:	0074                	addi	a3,sp,12
 126:	7071                	0x7071
 128:	6972                	flw	fs2,28(sp)
 12a:	746e                	flw	fs0,248(sp)
 12c:	7500                	flw	fs0,40(a0)
 12e:	6e69                	lui	t3,0x1a
 130:	3174                	fld	fa3,224(a0)
 132:	5f36                	lw	t5,108(sp)
 134:	0074                	addi	a3,sp,12
 136:	7570                	flw	fa2,108(a0)
 138:	7374                	flw	fa3,100(a4)
 13a:	7300                	flw	fs0,32(a4)
 13c:	6f68                	flw	fa0,92(a4)
 13e:	7472                	flw	fs0,60(sp)
 140:	7520                	flw	fs0,104(a0)
 142:	736e                	flw	ft6,248(sp)
 144:	6769                	lui	a4,0x1a
 146:	656e                	flw	fa0,216(sp)
 148:	2064                	fld	fs1,192(s0)
 14a:	6e69                	lui	t3,0x1a
 14c:	0074                	addi	a3,sp,12
 14e:	7270                	flw	fa2,100(a2)
 150:	6e69                	lui	t3,0x1a
 152:	5f74                	lw	a3,124(a4)
 154:	7562                	flw	fa0,56(sp)
 156:	0066                	0x66
 158:	7071                	0x7071
 15a:	6972                	flw	fs2,28(sp)
 15c:	746e                	flw	fs0,248(sp)
 15e:	72616863          	bltu	sp,t1,88e <_min_stack-0x1772>
 162:	5f00                	lw	s0,56(a4)
 164:	625f 6975 746c      	0x746c6975625f
 16a:	6e69                	lui	t3,0x1a
 16c:	765f 5f61 696c      	0x696c5f61765f
 172:	64007473          	csrrci	s0,0x640,0
 176:	7669                	lui	a2,0xffffa
 178:	3175                	jal	fffffe24 <fromhost+0x1ffefe14>
 17a:	0030                	addi	a2,sp,8
 17c:	6175                	addi	sp,sp,368
 17e:	7472                	flw	fs0,60(sp)
 180:	735f 6e65 6364      	0x63646e65735f
 186:	6168                	flw	fa0,68(a0)
 188:	0072                	0x72
 18a:	20554e47          	fmsub.s	ft8,fa0,ft5,ft4,rmm
 18e:	20313143          	fmadd.s	ft2,ft2,ft3,ft4,rup
 192:	2e322e37          	lui	t3,0x2e322
 196:	2030                	fld	fa2,64(s0)
 198:	6d2d                	lui	s10,0xb
 19a:	7261                	lui	tp,0xffff8
 19c:	723d6863          	bltu	s10,gp,8cc <_min_stack-0x1734>
 1a0:	3376                	fld	ft6,376(sp)
 1a2:	6932                	flw	fs2,12(sp)
 1a4:	636d                	lui	t1,0x1b
 1a6:	2d20                	fld	fs0,88(a0)
 1a8:	616d                	addi	sp,sp,240
 1aa:	6962                	flw	fs2,24(sp)
 1ac:	693d                	lui	s2,0xf
 1ae:	706c                	flw	fa1,100(s0)
 1b0:	2d203233          	0x2d203233
 1b4:	636d                	lui	t1,0x1b
 1b6:	6f6d                	lui	t5,0x1b
 1b8:	6564                	flw	fs1,76(a0)
 1ba:	3d6c                	fld	fa1,248(a0)
 1bc:	656d                	lui	a0,0x1b
 1be:	6164                	flw	fs1,68(a0)
 1c0:	796e                	flw	fs2,248(sp)
 1c2:	2d20                	fld	fs0,88(a0)
 1c4:	4f2d2067          	0x4f2d2067
 1c8:	662d2073          	csrs	0x662,s10
 1cc:	6976                	flw	fs2,92(sp)
 1ce:	69626973          	csrrsi	s2,0x696,4
 1d2:	696c                	flw	fa1,84(a0)
 1d4:	7974                	flw	fa3,116(a0)
 1d6:	683d                	lui	a6,0xf
 1d8:	6469                	lui	s0,0x1a
 1da:	6564                	flw	fs1,76(a0)
 1dc:	206e                	fld	ft0,216(sp)
 1de:	662d                	lui	a2,0xb
 1e0:	7266                	flw	ft4,120(sp)
 1e2:	6565                	lui	a0,0x19
 1e4:	6e617473          	csrrci	s0,0x6e6,2
 1e8:	6964                	flw	fs1,84(a0)
 1ea:	676e                	flw	fa4,216(sp)
 1ec:	2f00                	fld	fs0,24(a4)
 1ee:	61726373          	csrrsi	t1,0x617,4
 1f2:	6374                	flw	fa3,68(a4)
 1f4:	2f68                	fld	fa0,216(a4)
 1f6:	636d                	lui	t1,0x1b
 1f8:	6169                	addi	sp,sp,208
 1fa:	696e                	flw	fs2,216(sp)
 1fc:	2d746f2f          	0x2d746f2f
 200:	66726163          	bltu	tp,t2,862 <_min_stack-0x179e>
 204:	6569                	lui	a0,0x1a
 206:	646c                	flw	fa1,76(s0)
 208:	65706f2f          	0x65706f2f
 20c:	746e                	flw	fs0,248(sp)
 20e:	7469                	lui	s0,0xffffa
 210:	6e61                	lui	t3,0x18
 212:	2f77732f          	0x2f77732f
 216:	6574                	flw	fa3,76(a0)
 218:	2f737473          	csrrci	s0,0x2f7,6
 21c:	66726163          	bltu	tp,t2,87e <_min_stack-0x1782>
 220:	6569                	lui	a0,0x1a
 222:	646c                	flw	fa1,76(s0)
 224:	7261632f          	0x7261632f
 228:	6966                	flw	fs2,88(sp)
 22a:	6c65                	lui	s8,0x19
 22c:	5f64                	lw	s1,124(a4)
 22e:	6d6d                	lui	s10,0x1b
 230:	7061                	0x7061
 232:	745f 7365 0074      	0x747365745f
 238:	5f6b6c63          	bltu	s6,s6,830 <_min_stack-0x17d0>
 23c:	6e756f63          	bltu	a0,t2,93a <_min_stack-0x16c6>
 240:	6574                	flw	fa3,76(a0)
 242:	0072                	0x72
 244:	5f5f 6e67 6375      	0x63756e675f5f
 24a:	765f 5f61 696c      	0x696c5f61765f
 250:	75007473          	csrrci	s0,0x750,0
 254:	7261                	lui	tp,0xffff8
 256:	5f74                	lw	a3,124(a4)
 258:	646e6573          	csrrsi	a0,0x646,28
 25c:	6600                	flw	fs0,8(a2)
 25e:	616d726f          	jal	tp,d7874 <tohost+0xb786c>
 262:	0074                	addi	a3,sp,12
 264:	63656863          	bltu	a0,s6,894 <_min_stack-0x176c>
 268:	326c5f6b          	0x326c5f6b
 26c:	6300                	flw	fs0,0(a4)
 26e:	6568                	flw	fa0,76(a0)
 270:	6c5f6b63          	bltu	t5,t0,946 <_min_stack-0x16ba>
 274:	6f700033          	0x6f700033
 278:	6e69                	lui	t3,0x1a
 27a:	6574                	flw	fa3,76(a0)
 27c:	0072                	0x72
 27e:	616d                	addi	sp,sp,240
 280:	6e69                	lui	t3,0x1a
 282:	6500                	flw	fs0,8(a0)
 284:	7478                	flw	fa4,108(s0)
 286:	7265                	lui	tp,0xffff9
 288:	616e                	flw	ft2,216(sp)
 28a:	5f6c                	lw	a1,124(a4)
 28c:	7269                	lui	tp,0xffffa
 28e:	5f71                	li	t5,-4
 290:	6168                	flw	fa0,68(a0)
 292:	646e                	flw	fs0,216(sp)
 294:	656c                	flw	fa1,76(a0)
 296:	0072                	0x72
 298:	7261                	lui	tp,0xffff8
 29a:	61006367          	0x61006367
 29e:	6772                	flw	fa4,28(sp)
 2a0:	0076                	0x76
 2a2:	66726163          	bltu	tp,t2,904 <_min_stack-0x16fc>
 2a6:	6569                	lui	a0,0x1a
 2a8:	646c                	flw	fa1,76(s0)
 2aa:	6d5f 616d 5f70      	0x5f70616d6d5f
 2b0:	6574                	flw	fa3,76(a0)
 2b2:	632e7473          	csrrci	s0,0x632,28
 2b6:	2f00                	fld	fs0,24(a4)
 2b8:	61726373          	csrrsi	t1,0x617,4
 2bc:	6374                	flw	fa3,68(a4)
 2be:	2f68                	fld	fa0,216(a4)
 2c0:	636d                	lui	t1,0x1b
 2c2:	6169                	addi	sp,sp,208
 2c4:	696e                	flw	fs2,216(sp)
 2c6:	2d746f2f          	0x2d746f2f
 2ca:	66726163          	bltu	tp,t2,92c <_min_stack-0x16d4>
 2ce:	6569                	lui	a0,0x1a
 2d0:	646c                	flw	fa1,76(s0)
 2d2:	65706f2f          	0x65706f2f
 2d6:	746e                	flw	fs0,248(sp)
 2d8:	7469                	lui	s0,0xffffa
 2da:	6e61                	lui	t3,0x18
 2dc:	2f77732f          	0x2f77732f
 2e0:	6574                	flw	fa3,76(a0)
 2e2:	2f737473          	csrrci	s0,0x2f7,6
 2e6:	66726163          	bltu	tp,t2,948 <_min_stack-0x16b8>
 2ea:	6569                	lui	a0,0x1a
 2ec:	646c                	flw	fa1,76(s0)
 2ee:	6d6f632f          	0x6d6f632f
 2f2:	6f6d                	lui	t5,0x1b
 2f4:	2f6e                	fld	ft10,216(sp)
 2f6:	30747263          	bleu	t2,s0,5fa <_min_stack-0x1a06>
 2fa:	532e                	lw	t1,232(sp)
 2fc:	4700                	lw	s0,8(a4)
 2fe:	554e                	lw	a0,240(sp)
 300:	4120                	lw	s0,64(a0)
 302:	2e322053          	0x2e322053
 306:	3932                	fld	fs2,296(sp)
	...

Disassembly of section .comment:

00000000 <.comment>:
   0:	3a434347          	fmsub.d	ft6,ft6,ft4,ft7,rmm
   4:	2820                	fld	fs0,80(s0)
   6:	29554e47          	fmsub.s	ft8,fa0,fs5,ft5,rmm
   a:	3720                	fld	fs0,104(a4)
   c:	322e                	fld	ft4,232(sp)
   e:	302e                	fld	ft0,232(sp)
	...

Disassembly of section .debug_frame:

00000000 <.debug_frame>:
   0:	000c                	0xc
   2:	0000                	unimp
   4:	ffff                	0xffff
   6:	ffff                	0xffff
   8:	0001                	nop
   a:	7c01                	lui	s8,0xfffe0
   c:	0d01                	addi	s10,s10,0
   e:	0002                	0x2
  10:	000c                	0xc
  12:	0000                	unimp
  14:	0000                	unimp
  16:	0000                	unimp
  18:	0084                	addi	s1,sp,64
  1a:	e000                	fsw	fs0,0(s0)
  1c:	002e                	0x2e
  1e:	0000                	unimp
  20:	000c                	0xc
  22:	0000                	unimp
  24:	0000                	unimp
  26:	0000                	unimp
  28:	00b2                	slli	ra,ra,0xc
  2a:	e000                	fsw	fs0,0(s0)
  2c:	0026                	0x26
  2e:	0000                	unimp
  30:	000c                	0xc
  32:	0000                	unimp
  34:	0000                	unimp
  36:	0000                	unimp
  38:	00d8                	addi	a4,sp,68
  3a:	e000                	fsw	fs0,0(s0)
  3c:	0012                	0x12
  3e:	0000                	unimp
  40:	000c                	0xc
  42:	0000                	unimp
  44:	0000                	unimp
  46:	0000                	unimp
  48:	00ea                	slli	ra,ra,0x1a
  4a:	e000                	fsw	fs0,0(s0)
  4c:	0010                	0x10
  4e:	0000                	unimp
  50:	0030                	addi	a2,sp,8
  52:	0000                	unimp
  54:	0000                	unimp
  56:	0000                	unimp
  58:	00fa                	slli	ra,ra,0x1e
  5a:	e000                	fsw	fs0,0(s0)
  5c:	00a4                	addi	s1,sp,72
  5e:	0000                	unimp
  60:	0e42                	slli	t3,t3,0x10
  62:	4c20                	lw	s0,88(s0)
  64:	0288                	addi	a0,sp,320
  66:	0389                	addi	t2,t2,2
  68:	0492                	slli	s1,s1,0x4
  6a:	0181                	addi	gp,gp,0
  6c:	06940593          	addi	a1,s0,105 # ffffa069 <fromhost+0x1ffea059>
  70:	8002                	0x8002
  72:	c10a                	sw	sp,128(sp)
  74:	c842                	sw	a6,16(sp)
  76:	c942                	sw	a6,144(sp)
  78:	d242                	sw	a6,36(sp)
  7a:	d342                	sw	a6,164(sp)
  7c:	d442                	sw	a6,40(sp)
  7e:	0e42                	slli	t3,t3,0x10
  80:	4200                	lw	s0,0(a2)
  82:	0024000b          	0x24000b
  86:	0000                	unimp
  88:	0000                	unimp
  8a:	0000                	unimp
  8c:	019e                	slli	gp,gp,0x7
  8e:	e000                	fsw	fs0,0(s0)
  90:	00fa                	slli	ra,ra,0x1e
  92:	0000                	unimp
  94:	0e42                	slli	t3,t3,0x10
  96:	4640                	lw	s0,12(a2)
  98:	0389                	addi	t2,t2,2
  9a:	0181                	addi	gp,gp,0
  9c:	0288                	addi	a0,sp,320
  9e:	0a56                	slli	s4,s4,0x15
  a0:	42c1                	li	t0,16
  a2:	42c8                	lw	a0,4(a3)
  a4:	42c9                	li	t0,18
  a6:	000e                	0xe
  a8:	0b42                	slli	s6,s6,0x10
  aa:	0000                	unimp
  ac:	000c                	0xc
  ae:	0000                	unimp
  b0:	0000                	unimp
  b2:	0000                	unimp
  b4:	0298                	addi	a4,sp,320
  b6:	e000                	fsw	fs0,0(s0)
  b8:	000e                	0xe
  ba:	0000                	unimp
  bc:	001c                	0x1c
  be:	0000                	unimp
  c0:	0000                	unimp
  c2:	0000                	unimp
  c4:	02a6                	slli	t0,t0,0x9
  c6:	e000                	fsw	fs0,0(s0)
  c8:	0018                	0x18
  ca:	0000                	unimp
  cc:	0e42                	slli	t3,t3,0x10
  ce:	4210                	lw	a2,0(a2)
  d0:	0288                	addi	a0,sp,320
  d2:	8148                	0x8148
  d4:	4601                	li	a2,0
  d6:	42c1                	li	t0,16
  d8:	42c8                	lw	a0,4(a3)
  da:	000e                	0xe
  dc:	0040                	addi	s0,sp,4
  de:	0000                	unimp
  e0:	0000                	unimp
  e2:	0000                	unimp
  e4:	02be                	slli	t0,t0,0xf
  e6:	e000                	fsw	fs0,0(s0)
  e8:	0158                	addi	a4,sp,132
  ea:	0000                	unimp
  ec:	0e42                	slli	t3,t3,0x10
  ee:	4260                	lw	s0,68(a2)
  f0:	0a88                	addi	a0,sp,336
  f2:	8954                	0x8954
  f4:	930c920b          	0x930c920b
  f8:	940d                	srai	s0,s0,0x23
  fa:	950e                	add	a0,a0,gp
  fc:	9710960f          	0x9710960f
 100:	8111                	srli	a0,a0,0x4
 102:	9809                	andi	s0,s0,-30
 104:	7212                	flw	ft4,36(sp)
 106:	c10a                	sw	sp,128(sp)
 108:	c842                	sw	a6,16(sp)
 10a:	c944                	sw	s1,20(a0)
 10c:	d242                	sw	a6,36(sp)
 10e:	d342                	sw	a6,164(sp)
 110:	d442                	sw	a6,40(sp)
 112:	d542                	sw	a6,168(sp)
 114:	d642                	sw	a6,44(sp)
 116:	d742                	sw	a6,172(sp)
 118:	d842                	sw	a6,48(sp)
 11a:	0e42                	slli	t3,t3,0x10
 11c:	4200                	lw	s0,0(a2)
 11e:	000c000b          	0xc000b
 122:	0000                	unimp
 124:	0000                	unimp
 126:	0000                	unimp
 128:	0416                	slli	s0,s0,0x5
 12a:	e000                	fsw	fs0,0(s0)
 12c:	000a                	0xa
 12e:	0000                	unimp
 130:	0028                	addi	a0,sp,8
 132:	0000                	unimp
 134:	0000                	unimp
 136:	0000                	unimp
 138:	0420                	addi	s0,sp,520
 13a:	e000                	fsw	fs0,0(s0)
 13c:	0030                	addi	a2,sp,8
 13e:	0000                	unimp
 140:	0e42                	slli	t3,t3,0x10
 142:	4810                	lw	a2,16(s0)
 144:	0288                	addi	a0,sp,320
 146:	0389                	addi	t2,t2,2
 148:	0181                	addi	gp,gp,0
 14a:	0492                	slli	s1,s1,0x4
 14c:	0a56                	slli	s4,s4,0x15
 14e:	42c1                	li	t0,16
 150:	44c8                	lw	a0,12(s1)
 152:	42c9                	li	t0,18
 154:	42d2                	lw	t0,20(sp)
 156:	000e                	0xe
 158:	0b42                	slli	s6,s6,0x10
 15a:	0000                	unimp
 15c:	000c                	0xc
 15e:	0000                	unimp
 160:	ffff                	0xffff
 162:	ffff                	0xffff
 164:	0001                	nop
 166:	7c01                	lui	s8,0xfffe0
 168:	0d01                	addi	s10,s10,0
 16a:	0002                	0x2
 16c:	000c                	0xc
 16e:	0000                	unimp
 170:	015c                	addi	a5,sp,132
 172:	0000                	unimp
 174:	04dc                	addi	a5,sp,580
 176:	e000                	fsw	fs0,0(s0)
 178:	0088                	addi	a0,sp,64
 17a:	0000                	unimp
 17c:	000c                	0xc
 17e:	0000                	unimp
 180:	015c                	addi	a5,sp,132
 182:	0000                	unimp
 184:	0450                	addi	a2,sp,516
 186:	e000                	fsw	fs0,0(s0)
 188:	0002                	0x2
	...
