
preboot_code_hmac_read.elf:     file format elf32-littleriscv
architecture: riscv:rv32, flags 0x00000112:
EXEC_P, HAS_SYMS, D_PAGED
start address 0xe0000080

Sections:
Idx Name          Size      VMA       LMA       File off  Algn
  0 .vectors      00000084  e0000000  e0000000  00001000  2**0
                  CONTENTS, ALLOC, LOAD, READONLY, CODE
  1 .text         00000576  e0000084  e0000084  00001084  2**1
                  CONTENTS, ALLOC, LOAD, READONLY, CODE
  2 .rodata       000041d4  e00005fc  e00005fc  000015fc  2**2
                  CONTENTS, ALLOC, LOAD, READONLY, DATA
  3 .data         00000010  e00047d0  e00047d0  000057d0  2**2
                  CONTENTS, ALLOC, LOAD, DATA
  4 .bss          00000000  e00047e0  e00047e0  000057e0  2**0
                  ALLOC
  5 .logs.fields  00000000  e00047e0  e00047e0  000057e0  2**0
                  CONTENTS
  6 .stack        00002000  e0008000  e0008000  00006000  2**0
                  ALLOC
  7 .debug_frame  000002e8  00000000  00000000  000057e0  2**2
                  CONTENTS, READONLY, DEBUGGING
  8 .debug_info   00000c23  00000000  00000000  00005ac8  2**0
                  CONTENTS, READONLY, DEBUGGING
  9 .debug_abbrev 000004a4  00000000  00000000  000066eb  2**0
                  CONTENTS, READONLY, DEBUGGING
 10 .debug_loc    00000bbf  00000000  00000000  00006b8f  2**0
                  CONTENTS, READONLY, DEBUGGING
 11 .debug_aranges 00000068  00000000  00000000  00007750  2**3
                  CONTENTS, READONLY, DEBUGGING
 12 .debug_ranges 00000150  00000000  00000000  000077b8  2**3
                  CONTENTS, READONLY, DEBUGGING
 13 .debug_line   0000091b  00000000  00000000  00007908  2**0
                  CONTENTS, READONLY, DEBUGGING
 14 .debug_str    00000335  00000000  00000000  00008223  2**0
                  CONTENTS, READONLY, DEBUGGING
 15 .comment      0000001a  00000000  00000000  00008558  2**0
                  CONTENTS, READONLY
 16 .Pulp_Chip.Info 0000004e  00000000  00000000  00008572  2**0
                  CONTENTS, READONLY

Disassembly of section .vectors:

e0000000 <_vectors_start>:
  .option norvc;
  
  .org 0x00
  .rept 10
  jal x0, default_exc_handler
  .endr
e0000000:	4be0006f          	j	e00004be <default_exc_handler>
e0000004:	4ba0006f          	j	e00004be <default_exc_handler>
e0000008:	4b60006f          	j	e00004be <default_exc_handler>
e000000c:	4b20006f          	j	e00004be <default_exc_handler>
e0000010:	4ae0006f          	j	e00004be <default_exc_handler>
e0000014:	4aa0006f          	j	e00004be <default_exc_handler>
e0000018:	4a60006f          	j	e00004be <default_exc_handler>
e000001c:	4a20006f          	j	e00004be <default_exc_handler>
e0000020:	49e0006f          	j	e00004be <default_exc_handler>
e0000024:	49a0006f          	j	e00004be <default_exc_handler>
  
  jal x0, default_exc_handler
e0000028:	4960006f          	j	e00004be <default_exc_handler>
  
  jal x0, external_irq_handler
e000002c:	4260006f          	j	e0000452 <external_irq_handler>

  .org 0x30
  .rept 18
  jal x0, default_exc_handler
  .endr
e0000030:	48e0006f          	j	e00004be <default_exc_handler>
e0000034:	48a0006f          	j	e00004be <default_exc_handler>
e0000038:	4860006f          	j	e00004be <default_exc_handler>
e000003c:	4820006f          	j	e00004be <default_exc_handler>
e0000040:	47e0006f          	j	e00004be <default_exc_handler>
e0000044:	47a0006f          	j	e00004be <default_exc_handler>
e0000048:	4760006f          	j	e00004be <default_exc_handler>
e000004c:	4720006f          	j	e00004be <default_exc_handler>
e0000050:	46e0006f          	j	e00004be <default_exc_handler>
e0000054:	46a0006f          	j	e00004be <default_exc_handler>
e0000058:	4660006f          	j	e00004be <default_exc_handler>
e000005c:	4620006f          	j	e00004be <default_exc_handler>
e0000060:	45e0006f          	j	e00004be <default_exc_handler>
e0000064:	45a0006f          	j	e00004be <default_exc_handler>
e0000068:	4560006f          	j	e00004be <default_exc_handler>
e000006c:	4520006f          	j	e00004be <default_exc_handler>
e0000070:	44e0006f          	j	e00004be <default_exc_handler>
e0000074:	44a0006f          	j	e00004be <default_exc_handler>
  jal x0, default_exc_handler
e0000078:	4460006f          	j	e00004be <default_exc_handler>
  jal x0, default_exc_handler
e000007c:	4420006f          	j	e00004be <default_exc_handler>


  // reset vector
  .org 0x80
  jal x0, reset_handler
e0000080:	4420006f          	j	e00004c2 <reset_handler>

Disassembly of section .text:

e0000084 <uart_set_cfg>:
}


void uart_set_cfg(int parity, uint16_t clk_counter) {
  unsigned int i;
  *(volatile unsigned int*)(UART_REG_LCR) = 0x83; //sets 8N1 and set DLAB to 1
e0000084:	400007b7          	lui	a5,0x40000
e0000088:	08300713          	li	a4,131
e000008c:	c7d8                	sw	a4,12(a5)
  *(volatile unsigned int*)(UART_REG_DLM) = (clk_counter >> 8) & 0xFF;
e000008e:	0085d713          	srli	a4,a1,0x8
e0000092:	c3d8                	sw	a4,4(a5)
  *(volatile unsigned int*)(UART_REG_DLL) =  clk_counter       & 0xFF;
e0000094:	0ff5f593          	andi	a1,a1,255
e0000098:	c38c                	sw	a1,0(a5)
  *(volatile unsigned int*)(UART_REG_FCR) = 0xA7; //enables 16byte FIFO and clear FIFOs
e000009a:	0a700713          	li	a4,167
e000009e:	c798                	sw	a4,8(a5)
  *(volatile unsigned int*)(UART_REG_LCR) = 0x03; //sets 8N1 and set DLAB to 0
e00000a0:	470d                	li	a4,3
e00000a2:	c7d8                	sw	a4,12(a5)

  *(volatile unsigned int*)(UART_REG_IER) = ((*(volatile unsigned int*)(UART_REG_IER)) & 0xF0) | 0x02; // set IER (interrupt enable register) on UART
e00000a4:	43d8                	lw	a4,4(a5)
e00000a6:	0f077713          	andi	a4,a4,240
e00000aa:	00276713          	ori	a4,a4,2
e00000ae:	c3d8                	sw	a4,4(a5)
}
e00000b0:	8082                	ret

e00000b2 <uart_send>:

  while(len > 0) {
    // process this in batches of 16 bytes to actually use the FIFO in the UART

    // wait until there is space in the fifo
    while( (*(volatile unsigned int*)(UART_REG_LSR) & 0x20) == 0);
e00000b2:	40000737          	lui	a4,0x40000
  while(len > 0) {
e00000b6:	e191                	bnez	a1,e00000ba <uart_send+0x8>
      *(volatile unsigned int*)(UART_REG_THR) = *str++;

      len--;
    }
  }
}
e00000b8:	8082                	ret
    while( (*(volatile unsigned int*)(UART_REG_LSR) & 0x20) == 0);
e00000ba:	4b5c                	lw	a5,20(a4)
e00000bc:	0207f793          	andi	a5,a5,32
e00000c0:	dfed                	beqz	a5,e00000ba <uart_send+0x8>
e00000c2:	04050793          	addi	a5,a0,64
      *(volatile unsigned int*)(UART_REG_THR) = *str++;
e00000c6:	0505                	addi	a0,a0,1
e00000c8:	fff54683          	lbu	a3,-1(a0)
      len--;
e00000cc:	15fd                	addi	a1,a1,-1
      *(volatile unsigned int*)(UART_REG_THR) = *str++;
e00000ce:	c314                	sw	a3,0(a4)
    for(i = 0; (i < UART_FIFO_DEPTH) && (len > 0); i++) {
e00000d0:	fef503e3          	beq	a0,a5,e00000b6 <uart_send+0x4>
e00000d4:	f9ed                	bnez	a1,e00000c6 <uart_send+0x14>
e00000d6:	8082                	ret

e00000d8 <uart_getchar>:

char uart_getchar() {
  while((*((volatile int*)UART_REG_LSR) & 0x1) != 0x1);
e00000d8:	40000737          	lui	a4,0x40000
e00000dc:	4b5c                	lw	a5,20(a4)
e00000de:	8b85                	andi	a5,a5,1
e00000e0:	dff5                	beqz	a5,e00000dc <uart_getchar+0x4>

  return *(volatile int*)UART_REG_RBR;
e00000e2:	4308                	lw	a0,0(a4)
}
e00000e4:	0ff57513          	andi	a0,a0,255
e00000e8:	8082                	ret

e00000ea <uart_sendchar>:

void uart_sendchar(const char c) {
  // wait until there is space in the fifo
  while( (*(volatile unsigned int*)(UART_REG_LSR) & 0x20) == 0);
e00000ea:	40000737          	lui	a4,0x40000
e00000ee:	4b5c                	lw	a5,20(a4)
e00000f0:	0207f793          	andi	a5,a5,32
e00000f4:	dfed                	beqz	a5,e00000ee <uart_sendchar+0x4>

  // load FIFO
  *(volatile unsigned int*)(UART_REG_THR) = c;
e00000f6:	c308                	sw	a0,0(a4)
}
e00000f8:	8082                	ret

e00000fa <qprints.constprop.2>:
  }
  else
    putchar((char)c);
}

static int qprints(char **out, const char *string, int width, int pad)
e00000fa:	1101                	addi	sp,sp,-32
e00000fc:	cc22                	sw	s0,24(sp)
e00000fe:	ca26                	sw	s1,20(sp)
e0000100:	c84a                	sw	s2,16(sp)
e0000102:	ce06                	sw	ra,28(sp)
e0000104:	c64e                	sw	s3,12(sp)
e0000106:	c452                	sw	s4,8(sp)
e0000108:	84aa                	mv	s1,a0
e000010a:	842e                	mv	s0,a1
{
  register int pc = 0, padchar = ' ';
e000010c:	02000913          	li	s2,32

  if (width > 0) {
e0000110:	02b05463          	blez	a1,e0000138 <qprints.constprop.2+0x3e>
e0000114:	87aa                	mv	a5,a0
e0000116:	a011                	j	e000011a <qprints.constprop.2+0x20>
    register int len = 0;
    register const char *ptr;
    for (ptr = string; *ptr; ++ptr) ++len;
e0000118:	0785                	addi	a5,a5,1
e000011a:	0007c683          	lbu	a3,0(a5) # 40000000 <tohost+0x3ffdfff8>
e000011e:	40978733          	sub	a4,a5,s1
e0000122:	fafd                	bnez	a3,e0000118 <qprints.constprop.2+0x1e>
    if (len >= width) width = 0;
e0000124:	04875663          	ble	s0,a4,e0000170 <qprints.constprop.2+0x76>
    else width -= len;
e0000128:	8c19                	sub	s0,s0,a4
    if (pad & PAD_ZERO) padchar = '0';
e000012a:	00267793          	andi	a5,a2,2
  register int pc = 0, padchar = ' ';
e000012e:	02000913          	li	s2,32
    if (pad & PAD_ZERO) padchar = '0';
e0000132:	c399                	beqz	a5,e0000138 <qprints.constprop.2+0x3e>
e0000134:	03000913          	li	s2,48
  }
  if (!(pad & PAD_RIGHT)) {
e0000138:	8a05                	andi	a2,a2,1
e000013a:	ca21                	beqz	a2,e000018a <qprints.constprop.2+0x90>
  register int pc = 0, padchar = ' ';
e000013c:	4781                	li	a5,0
e000013e:	409789b3          	sub	s3,a5,s1
    for ( ; width > 0; --width) {
      qprintchar (out, padchar);
      ++pc;
    }
  }
  for ( ; *string ; ++string) {
e0000142:	0004c503          	lbu	a0,0(s1)
e0000146:	01348a33          	add	s4,s1,s3
e000014a:	e521                	bnez	a0,e0000192 <qprints.constprop.2+0x98>
e000014c:	84a2                	mv	s1,s0
  uart_sendchar(s);
e000014e:	0ff97913          	andi	s2,s2,255
    qprintchar (out, *string);
    ++pc;
  }
  for ( ; width > 0; --width) {
e0000152:	04904363          	bgtz	s1,e0000198 <qprints.constprop.2+0x9e>
    qprintchar (out, padchar);
    ++pc;
  }

  return pc;
e0000156:	00045363          	bgez	s0,e000015c <qprints.constprop.2+0x62>
e000015a:	4401                	li	s0,0
}
e000015c:	01440533          	add	a0,s0,s4
e0000160:	40f2                	lw	ra,28(sp)
e0000162:	4462                	lw	s0,24(sp)
e0000164:	44d2                	lw	s1,20(sp)
e0000166:	4942                	lw	s2,16(sp)
e0000168:	49b2                	lw	s3,12(sp)
e000016a:	4a22                	lw	s4,8(sp)
e000016c:	6105                	addi	sp,sp,32
e000016e:	8082                	ret
    if (len >= width) width = 0;
e0000170:	4401                	li	s0,0
e0000172:	bf65                	j	e000012a <qprints.constprop.2+0x30>
  uart_sendchar(s);
e0000174:	8552                	mv	a0,s4
e0000176:	3f95                	jal	e00000ea <uart_sendchar>
    for ( ; width > 0; --width) {
e0000178:	19fd                	addi	s3,s3,-1
e000017a:	ff304de3          	bgtz	s3,e0000174 <qprints.constprop.2+0x7a>
e000017e:	87a2                	mv	a5,s0
e0000180:	00045363          	bgez	s0,e0000186 <qprints.constprop.2+0x8c>
e0000184:	4781                	li	a5,0
e0000186:	8c1d                	sub	s0,s0,a5
e0000188:	bf5d                	j	e000013e <qprints.constprop.2+0x44>
  if (!(pad & PAD_RIGHT)) {
e000018a:	89a2                	mv	s3,s0
  uart_sendchar(s);
e000018c:	0ff97a13          	andi	s4,s2,255
e0000190:	b7ed                	j	e000017a <qprints.constprop.2+0x80>
e0000192:	3fa1                	jal	e00000ea <uart_sendchar>
  for ( ; *string ; ++string) {
e0000194:	0485                	addi	s1,s1,1
e0000196:	b775                	j	e0000142 <qprints.constprop.2+0x48>
  uart_sendchar(s);
e0000198:	854a                	mv	a0,s2
e000019a:	3f81                	jal	e00000ea <uart_sendchar>
  for ( ; width > 0; --width) {
e000019c:	14fd                	addi	s1,s1,-1
e000019e:	bf55                	j	e0000152 <qprints.constprop.2+0x58>

e00001a0 <qprinti.constprop.1>:

static int qprinti(char **out, int i, int b, int sg, int width, int pad, char letbase)
e00001a0:	7139                	addi	sp,sp,-64
e00001a2:	da26                	sw	s1,52(sp)
e00001a4:	de06                	sw	ra,60(sp)
e00001a6:	dc22                	sw	s0,56(sp)
e00001a8:	84b2                	mv	s1,a2
e00001aa:	863a                	mv	a2,a4
  char print_buf[PRINT_BUF_LEN];
  register char *s;
  register int neg = 0, pc = 0;
  unsigned int t,u = i;

  if (i == 0)
e00001ac:	ed09                	bnez	a0,e00001c6 <qprinti.constprop.1+0x26>
  {
    print_buf[0] = '0';
e00001ae:	03000793          	li	a5,48
    print_buf[1] = '\0';
    return qprints (out, print_buf, width, pad);
e00001b2:	85b6                	mv	a1,a3
e00001b4:	0808                	addi	a0,sp,16
    print_buf[0] = '0';
e00001b6:	00f11823          	sh	a5,16(sp)
    return qprints (out, print_buf, width, pad);
e00001ba:	3781                	jal	e00000fa <qprints.constprop.2>
    {
      *--s = '-';
    }
  }
  return pc + qprints (out, s, width, pad);
}
e00001bc:	50f2                	lw	ra,60(sp)
e00001be:	5462                	lw	s0,56(sp)
e00001c0:	54d2                	lw	s1,52(sp)
e00001c2:	6121                	addi	sp,sp,64
e00001c4:	8082                	ret
  if (sg && b == 10 && i < 0)
e00001c6:	c881                	beqz	s1,e00001d6 <qprinti.constprop.1+0x36>
e00001c8:	4729                	li	a4,10
e00001ca:	06e59d63          	bne	a1,a4,e0000244 <qprinti.constprop.1+0xa4>
e00001ce:	06055b63          	bgez	a0,e0000244 <qprinti.constprop.1+0xa4>
    u = -i;
e00001d2:	40a00533          	neg	a0,a0
  *s = '\0';
e00001d6:	020107a3          	sb	zero,47(sp)
  if(b == 16) {
e00001da:	4741                	li	a4,16
  s = print_buf + PRINT_BUF_LEN-1;
e00001dc:	02f10413          	addi	s0,sp,47
  if(b == 16) {
e00001e0:	0ae58263          	beq	a1,a4,e0000284 <qprinti.constprop.1+0xe4>
  n = (0x19999999 * n + (n >> 1) + (n >> 3)) >> 28;
e00001e4:	1999a737          	lui	a4,0x1999a
  return remu10_table[n];
e00001e8:	00004317          	auipc	t1,0x4
e00001ec:	5e830313          	addi	t1,t1,1512 # e00047d0 <remu10_table>
  n = (0x19999999 * n + (n >> 1) + (n >> 3)) >> 28;
e00001f0:	99970713          	addi	a4,a4,-1639 # 19999999 <tohost+0x19979991>
  r = n - q * 10;
e00001f4:	4e29                	li	t3,10
    while (u) {
e00001f6:	c52d                	beqz	a0,e0000260 <qprinti.constprop.1+0xc0>
  n = (0x19999999 * n + (n >> 1) + (n >> 3)) >> 28;
e00001f8:	02e50833          	mul	a6,a0,a4
e00001fc:	00155893          	srli	a7,a0,0x1
e0000200:	00355793          	srli	a5,a0,0x3
      *--s = remu10(u) + '0';
e0000204:	147d                	addi	s0,s0,-1
  n = (0x19999999 * n + (n >> 1) + (n >> 3)) >> 28;
e0000206:	9846                	add	a6,a6,a7
e0000208:	983e                	add	a6,a6,a5
e000020a:	01c85813          	srli	a6,a6,0x1c
  return remu10_table[n];
e000020e:	981a                	add	a6,a6,t1
      *--s = remu10(u) + '0';
e0000210:	00084583          	lbu	a1,0(a6)
  q = (n >> 1) + (n >> 2);
e0000214:	00255793          	srli	a5,a0,0x2
e0000218:	97c6                	add	a5,a5,a7
      *--s = remu10(u) + '0';
e000021a:	03058593          	addi	a1,a1,48
e000021e:	00b40023          	sb	a1,0(s0)
  q = q + (q >> 4);
e0000222:	0047d593          	srli	a1,a5,0x4
e0000226:	97ae                	add	a5,a5,a1
  q = q + (q >> 8);
e0000228:	0087d593          	srli	a1,a5,0x8
e000022c:	97ae                	add	a5,a5,a1
  q = q + (q >> 16);
e000022e:	0107d593          	srli	a1,a5,0x10
e0000232:	97ae                	add	a5,a5,a1
  q = q >> 3;
e0000234:	838d                	srli	a5,a5,0x3
  r = n - q * 10;
e0000236:	03c785b3          	mul	a1,a5,t3
  return q + ((r + 6) >> 4);
e000023a:	0519                	addi	a0,a0,6
e000023c:	8d0d                	sub	a0,a0,a1
e000023e:	8111                	srli	a0,a0,0x4
e0000240:	953e                	add	a0,a0,a5
e0000242:	bf55                	j	e00001f6 <qprinti.constprop.1+0x56>
  register int neg = 0, pc = 0;
e0000244:	4481                	li	s1,0
e0000246:	bf41                	j	e00001d6 <qprinti.constprop.1+0x36>
      int t = u & 0xF;
e0000248:	00f57813          	andi	a6,a0,15
      if (t >= 10)
e000024c:	01075363          	ble	a6,a4,e0000252 <qprinti.constprop.1+0xb2>
        t += letbase - '0' - 10;
e0000250:	983e                	add	a6,a6,a5
      *--s = t + '0';
e0000252:	147d                	addi	s0,s0,-1
e0000254:	03080813          	addi	a6,a6,48
e0000258:	01040023          	sb	a6,0(s0)
      u >>= 4;
e000025c:	8111                	srli	a0,a0,0x4
    while (u) {
e000025e:	f56d                	bnez	a0,e0000248 <qprinti.constprop.1+0xa8>
  if (neg) {
e0000260:	cc89                	beqz	s1,e000027a <qprinti.constprop.1+0xda>
    if( width && (pad & PAD_ZERO) )
e0000262:	c68d                	beqz	a3,e000028c <qprinti.constprop.1+0xec>
e0000264:	00267793          	andi	a5,a2,2
e0000268:	c395                	beqz	a5,e000028c <qprinti.constprop.1+0xec>
  uart_sendchar(s);
e000026a:	02d00513          	li	a0,45
e000026e:	c432                	sw	a2,8(sp)
e0000270:	c636                	sw	a3,12(sp)
e0000272:	3da5                	jal	e00000ea <uart_sendchar>
      --width;
e0000274:	46b2                	lw	a3,12(sp)
e0000276:	4622                	lw	a2,8(sp)
e0000278:	16fd                	addi	a3,a3,-1
  return pc + qprints (out, s, width, pad);
e000027a:	85b6                	mv	a1,a3
e000027c:	8522                	mv	a0,s0
e000027e:	3db5                	jal	e00000fa <qprints.constprop.2>
e0000280:	9526                	add	a0,a0,s1
e0000282:	bf2d                	j	e00001bc <qprinti.constprop.1+0x1c>
      if (t >= 10)
e0000284:	4725                	li	a4,9
        t += letbase - '0' - 10;
e0000286:	fc678793          	addi	a5,a5,-58
e000028a:	bfd1                	j	e000025e <qprinti.constprop.1+0xbe>
      *--s = '-';
e000028c:	02d00793          	li	a5,45
e0000290:	fef40fa3          	sb	a5,-1(s0)
  register int neg = 0, pc = 0;
e0000294:	4481                	li	s1,0
      *--s = '-';
e0000296:	147d                	addi	s0,s0,-1
e0000298:	b7cd                	j	e000027a <qprinti.constprop.1+0xda>

e000029a <uart_wait_tx_done>:
  while( (*(volatile unsigned int*)(UART_REG_LSR) & 0x40) == 0);
e000029a:	40000737          	lui	a4,0x40000
e000029e:	4b5c                	lw	a5,20(a4)
e00002a0:	0407f793          	andi	a5,a5,64
e00002a4:	dfed                	beqz	a5,e000029e <uart_wait_tx_done+0x4>
}
e00002a6:	8082                	ret

e00002a8 <putchar>:
{
e00002a8:	1141                	addi	sp,sp,-16
e00002aa:	c422                	sw	s0,8(sp)
e00002ac:	842a                	mv	s0,a0
  uart_sendchar(s);
e00002ae:	0ff57513          	andi	a0,a0,255
{
e00002b2:	c606                	sw	ra,12(sp)
  uart_sendchar(s);
e00002b4:	3d1d                	jal	e00000ea <uart_sendchar>
}
e00002b6:	8522                	mv	a0,s0
e00002b8:	40b2                	lw	ra,12(sp)
e00002ba:	4422                	lw	s0,8(sp)
e00002bc:	0141                	addi	sp,sp,16
e00002be:	8082                	ret

e00002c0 <printf>:

  return pc;
}

int printf(const char *format, ...)
{
e00002c0:	711d                	addi	sp,sp,-96
e00002c2:	dc22                	sw	s0,56(sp)
  int pc;
  va_list va;

  va_start(va, format);
e00002c4:	00c0                	addi	s0,sp,68
{
e00002c6:	da26                	sw	s1,52(sp)
e00002c8:	d84a                	sw	s2,48(sp)
e00002ca:	d64e                	sw	s3,44(sp)
e00002cc:	d452                	sw	s4,40(sp)
e00002ce:	d256                	sw	s5,36(sp)
e00002d0:	d05a                	sw	s6,32(sp)
e00002d2:	ce5e                	sw	s7,28(sp)
e00002d4:	de06                	sw	ra,60(sp)
e00002d6:	cc62                	sw	s8,24(sp)
e00002d8:	8baa                	mv	s7,a0
e00002da:	c2ae                	sw	a1,68(sp)
e00002dc:	c4b2                	sw	a2,72(sp)
e00002de:	c6b6                	sw	a3,76(sp)
e00002e0:	c8ba                	sw	a4,80(sp)
e00002e2:	cabe                	sw	a5,84(sp)
e00002e4:	ccc2                	sw	a6,88(sp)
e00002e6:	cec6                	sw	a7,92(sp)
  va_start(va, format);
e00002e8:	c622                	sw	s0,12(sp)
  register int pc = 0;
e00002ea:	4b01                	li	s6,0
    if (*format == '%')
e00002ec:	02500493          	li	s1,37
      if (*format == '-')
e00002f0:	02d00913          	li	s2,45
      while (*format == '0')
e00002f4:	03000993          	li	s3,48
        width *= 10;
e00002f8:	4a29                	li	s4,10
        pc += qprints (out, s?s:"(null)", width, pad);
e00002fa:	00004a97          	auipc	s5,0x4
e00002fe:	422a8a93          	addi	s5,s5,1058 # e000471c <HMAC_SMOKETEST_CLEAR+0x4120>
  for (; *format != 0; ++format)
e0000302:	000bc783          	lbu	a5,0(s7)
e0000306:	ef91                	bnez	a5,e0000322 <printf+0x62>

  va_end(va);

  return pc;

}
e0000308:	50f2                	lw	ra,60(sp)
e000030a:	5462                	lw	s0,56(sp)
e000030c:	855a                	mv	a0,s6
e000030e:	54d2                	lw	s1,52(sp)
e0000310:	5942                	lw	s2,48(sp)
e0000312:	59b2                	lw	s3,44(sp)
e0000314:	5a22                	lw	s4,40(sp)
e0000316:	5a92                	lw	s5,36(sp)
e0000318:	5b02                	lw	s6,32(sp)
e000031a:	4bf2                	lw	s7,28(sp)
e000031c:	4c62                	lw	s8,24(sp)
e000031e:	6125                	addi	sp,sp,96
e0000320:	8082                	ret
    if (*format == '%')
e0000322:	0e979663          	bne	a5,s1,e000040e <printf+0x14e>
      if (*format == '\0') break;
e0000326:	001bc683          	lbu	a3,1(s7)
e000032a:	def9                	beqz	a3,e0000308 <printf+0x48>
e000032c:	001b8793          	addi	a5,s7,1
      if (*format == '%') goto out;
e0000330:	0c968e63          	beq	a3,s1,e000040c <printf+0x14c>
      width = pad = 0;
e0000334:	4701                	li	a4,0
      if (*format == '-')
e0000336:	01269563          	bne	a3,s2,e0000340 <printf+0x80>
        ++format;
e000033a:	002b8793          	addi	a5,s7,2
        pad = PAD_RIGHT;
e000033e:	4705                	li	a4,1
e0000340:	8bbe                	mv	s7,a5
      while (*format == '0')
e0000342:	000bc783          	lbu	a5,0(s7)
e0000346:	001b8693          	addi	a3,s7,1
e000034a:	03378b63          	beq	a5,s3,e0000380 <printf+0xc0>
      width = pad = 0;
e000034e:	4681                	li	a3,0
      for ( ; *format >= '0' && *format <= '9'; ++format) {
e0000350:	4525                	li	a0,9
e0000352:	000bc783          	lbu	a5,0(s7)
e0000356:	001b8813          	addi	a6,s7,1
e000035a:	fd078613          	addi	a2,a5,-48
e000035e:	0ff67593          	andi	a1,a2,255
e0000362:	02b57363          	bleu	a1,a0,e0000388 <printf+0xc8>
      if( *format == 's' ) {
e0000366:	07300613          	li	a2,115
e000036a:	02c79463          	bne	a5,a2,e0000392 <printf+0xd2>
        register char *s = va_arg(va, char*);
e000036e:	4008                	lw	a0,0(s0)
e0000370:	00440c13          	addi	s8,s0,4
        pc += qprints (out, s?s:"(null)", width, pad);
e0000374:	e111                	bnez	a0,e0000378 <printf+0xb8>
e0000376:	8556                	mv	a0,s5
e0000378:	863a                	mv	a2,a4
e000037a:	85b6                	mv	a1,a3
        pc += qprints (out, scr, width, pad);
e000037c:	3bbd                	jal	e00000fa <qprints.constprop.2>
e000037e:	a035                	j	e00003aa <printf+0xea>
        pad |= PAD_ZERO;
e0000380:	00276713          	ori	a4,a4,2
        ++format;
e0000384:	8bb6                	mv	s7,a3
e0000386:	bf75                	j	e0000342 <printf+0x82>
        width *= 10;
e0000388:	034686b3          	mul	a3,a3,s4
      for ( ; *format >= '0' && *format <= '9'; ++format) {
e000038c:	8bc2                	mv	s7,a6
        width += *format - '0';
e000038e:	96b2                	add	a3,a3,a2
e0000390:	b7c9                	j	e0000352 <printf+0x92>
      if( *format == 'd' ) {
e0000392:	06400613          	li	a2,100
e0000396:	00c79e63          	bne	a5,a2,e00003b2 <printf+0xf2>
        pc += qprinti (out, va_arg(va, int), 10, 1, width, pad, 'a');
e000039a:	00440c13          	addi	s8,s0,4
e000039e:	06100793          	li	a5,97
e00003a2:	4605                	li	a2,1
e00003a4:	45a9                	li	a1,10
e00003a6:	4008                	lw	a0,0(s0)
e00003a8:	3be5                	jal	e00001a0 <qprinti.constprop.1>
e00003aa:	9b2a                	add	s6,s6,a0
e00003ac:	8462                	mv	s0,s8
  for (; *format != 0; ++format)
e00003ae:	0b85                	addi	s7,s7,1
e00003b0:	bf89                	j	e0000302 <printf+0x42>
      if( *format == 'u' ) {
e00003b2:	07500613          	li	a2,117
e00003b6:	00c79863          	bne	a5,a2,e00003c6 <printf+0x106>
        pc += qprinti (out, va_arg(va, unsigned int), 10, 0, width, pad, 'a');
e00003ba:	00440c13          	addi	s8,s0,4
e00003be:	06100793          	li	a5,97
e00003c2:	4601                	li	a2,0
e00003c4:	b7c5                	j	e00003a4 <printf+0xe4>
      if( *format == 'x' ) {
e00003c6:	07800613          	li	a2,120
e00003ca:	00c79963          	bne	a5,a2,e00003dc <printf+0x11c>
        pc += qprinti (out, va_arg(va, uint32_t), 16, 0, width, pad, 'a');
e00003ce:	00440c13          	addi	s8,s0,4
e00003d2:	06100793          	li	a5,97
        pc += qprinti (out, va_arg(va, uint32_t), 16, 0, width, pad, 'A');
e00003d6:	4601                	li	a2,0
e00003d8:	45c1                	li	a1,16
e00003da:	b7f1                	j	e00003a6 <printf+0xe6>
      if( *format == 'X' ) {
e00003dc:	05800613          	li	a2,88
e00003e0:	00c79763          	bne	a5,a2,e00003ee <printf+0x12e>
        pc += qprinti (out, va_arg(va, uint32_t), 16, 0, width, pad, 'A');
e00003e4:	00440c13          	addi	s8,s0,4
e00003e8:	04100793          	li	a5,65
e00003ec:	b7ed                	j	e00003d6 <printf+0x116>
      if( *format == 'c' ) {
e00003ee:	06300613          	li	a2,99
e00003f2:	fac79ee3          	bne	a5,a2,e00003ae <printf+0xee>
        scr[0] = va_arg(va, int);
e00003f6:	401c                	lw	a5,0(s0)
e00003f8:	00440c13          	addi	s8,s0,4
        scr[1] = '\0';
e00003fc:	000104a3          	sb	zero,9(sp)
        scr[0] = va_arg(va, int);
e0000400:	00f10423          	sb	a5,8(sp)
        pc += qprints (out, scr, width, pad);
e0000404:	863a                	mv	a2,a4
e0000406:	85b6                	mv	a1,a3
e0000408:	0028                	addi	a0,sp,8
e000040a:	bf8d                	j	e000037c <printf+0xbc>
      ++format;
e000040c:	8bbe                	mv	s7,a5
  uart_sendchar(s);
e000040e:	000bc503          	lbu	a0,0(s7)
      ++pc;
e0000412:	0b05                	addi	s6,s6,1
  uart_sendchar(s);
e0000414:	39d9                	jal	e00000ea <uart_sendchar>
e0000416:	bf61                	j	e00003ae <printf+0xee>

e0000418 <simple_exc_handler>:
  printf("EXCEPTION!!!\r\n");
e0000418:	00004517          	auipc	a0,0x4
e000041c:	30c50513          	addi	a0,a0,780 # e0004724 <HMAC_SMOKETEST_CLEAR+0x4128>
e0000420:	b545                	j	e00002c0 <printf>

e0000422 <puts>:

int puts(const char *s)
{
e0000422:	1141                	addi	sp,sp,-16
e0000424:	c422                	sw	s0,8(sp)
e0000426:	c226                	sw	s1,4(sp)
e0000428:	c606                	sw	ra,12(sp)
e000042a:	c04a                	sw	s2,0(sp)
e000042c:	84aa                	mv	s1,a0
  int i=0;

  while(s[i] != '\0')
e000042e:	842a                	mv	s0,a0
e0000430:	40940933          	sub	s2,s0,s1
e0000434:	0405                	addi	s0,s0,1
e0000436:	fff44503          	lbu	a0,-1(s0)
e000043a:	e911                	bnez	a0,e000044e <puts+0x2c>
  uart_sendchar(s);
e000043c:	4529                	li	a0,10
e000043e:	3175                	jal	e00000ea <uart_sendchar>
    putchar(s[i++]);

  putchar('\n');

  return i;
}
e0000440:	40b2                	lw	ra,12(sp)
e0000442:	4422                	lw	s0,8(sp)
e0000444:	854a                	mv	a0,s2
e0000446:	4492                	lw	s1,4(sp)
e0000448:	4902                	lw	s2,0(sp)
e000044a:	0141                	addi	sp,sp,16
e000044c:	8082                	ret
  uart_sendchar(s);
e000044e:	3971                	jal	e00000ea <uart_sendchar>
e0000450:	b7c5                	j	e0000430 <puts+0xe>

e0000452 <external_irq_handler>:

void external_irq_handler(void)  {
e0000452:	1101                	addi	sp,sp,-32
e0000454:	c63a                	sw	a4,12(sp)
e0000456:	c43e                	sw	a5,8(sp)
e0000458:	ce2a                	sw	a0,28(sp)
e000045a:	cc2e                	sw	a1,24(sp)
e000045c:	ca32                	sw	a2,20(sp)
e000045e:	c836                	sw	a3,16(sp)
e0000460:	c242                	sw	a6,4(sp)
  p_reg5 = (int *) 0x1040401C;

  // start of """Interrupt Service Routine"""
  
  plic_check = (int *) 0xC8200004;
  while(*plic_check != mbox_id);   //check wether the intr is the correct one
e0000462:	c82007b7          	lui	a5,0xc8200
e0000466:	09f00713          	li	a4,159
e000046a:	43d0                	lw	a2,4(a5)
e000046c:	00478693          	addi	a3,a5,4 # c8200004 <pulp__FC+0xc8200005>
e0000470:	fee61de3          	bne	a2,a4,e000046a <external_irq_handler+0x18>
  
  p_reg = (int *) 0x10404020;
 *p_reg = 0x00000000;        //clearing the pending interrupt signal
e0000474:	104047b7          	lui	a5,0x10404
e0000478:	0207a023          	sw	zero,32(a5) # 10404020 <tohost+0x103e4018>
 
 *plic_check = mbox_id;      //completing interrupt
e000047c:	c298                	sw	a4,0(a3)
 
  a = *p_reg1;
e000047e:	4788                	lw	a0,8(a5)
  c = *p_reg3;
  d = *p_reg4;
  e = *p_reg5;
  
  
  if( a == 0xBAADC0DE &&  b == 0xBAADC0DE && c == 0xBAADC0DE && d == 0xBAADC0DE && e == 0xBAADC0DE){
e0000480:	baadc737          	lui	a4,0xbaadc
  b = *p_reg2;
e0000484:	4b8c                	lw	a1,16(a5)
  c = *p_reg3;
e0000486:	4bd0                	lw	a2,20(a5)
  d = *p_reg4;
e0000488:	4f94                	lw	a3,24(a5)
  e = *p_reg5;
e000048a:	01c7a803          	lw	a6,28(a5)
  if( a == 0xBAADC0DE &&  b == 0xBAADC0DE && c == 0xBAADC0DE && d == 0xBAADC0DE && e == 0xBAADC0DE){
e000048e:	0de70713          	addi	a4,a4,222 # baadc0de <pulp__FC+0xbaadc0df>
e0000492:	00e51c63          	bne	a0,a4,e00004aa <external_irq_handler+0x58>
e0000496:	00a59a63          	bne	a1,a0,e00004aa <external_irq_handler+0x58>
e000049a:	00b61863          	bne	a2,a1,e00004aa <external_irq_handler+0x58>
e000049e:	00c69663          	bne	a3,a2,e00004aa <external_irq_handler+0x58>
e00004a2:	00d81463          	bne	a6,a3,e00004aa <external_irq_handler+0x58>
      p_reg = (int *) 0x10404024; // completion interrupt to ariane agent
     *p_reg = 0x00000001;
e00004a6:	4705                	li	a4,1
e00004a8:	d3d8                	sw	a4,36(a5)
  }
  
  return;
}
e00004aa:	4572                	lw	a0,28(sp)
e00004ac:	45e2                	lw	a1,24(sp)
e00004ae:	4652                	lw	a2,20(sp)
e00004b0:	46c2                	lw	a3,16(sp)
e00004b2:	4732                	lw	a4,12(sp)
e00004b4:	47a2                	lw	a5,8(sp)
e00004b6:	4812                	lw	a6,4(sp)
e00004b8:	6105                	addi	sp,sp,32
e00004ba:	30200073          	mret

e00004be <default_exc_handler>:
  jal x0, sleep_loop //exc handler
e00004be:	0760006f          	j	e0000534 <sleep_loop>

e00004c2 <reset_handler>:
  mv  x1, x0
e00004c2:	00000093          	li	ra,0
  mv  x2, x1
e00004c6:	8106                	mv	sp,ra
  mv  x3, x1
e00004c8:	8186                	mv	gp,ra
  mv  x4, x1
e00004ca:	8206                	mv	tp,ra
  mv  x5, x1
e00004cc:	8286                	mv	t0,ra
  mv  x6, x1
e00004ce:	8306                	mv	t1,ra
  mv  x7, x1
e00004d0:	8386                	mv	t2,ra
  mv  x8, x1
e00004d2:	8406                	mv	s0,ra
  mv  x9, x1
e00004d4:	8486                	mv	s1,ra
  mv x10, x1
e00004d6:	8506                	mv	a0,ra
  mv x11, x1
e00004d8:	8586                	mv	a1,ra
  mv x12, x1
e00004da:	8606                	mv	a2,ra
  mv x13, x1
e00004dc:	8686                	mv	a3,ra
  mv x14, x1
e00004de:	8706                	mv	a4,ra
  mv x15, x1
e00004e0:	8786                	mv	a5,ra
  mv x16, x1
e00004e2:	8806                	mv	a6,ra
  mv x17, x1
e00004e4:	8886                	mv	a7,ra
  mv x18, x1
e00004e6:	8906                	mv	s2,ra
  mv x19, x1
e00004e8:	8986                	mv	s3,ra
  mv x20, x1
e00004ea:	8a06                	mv	s4,ra
  mv x21, x1
e00004ec:	8a86                	mv	s5,ra
  mv x22, x1
e00004ee:	8b06                	mv	s6,ra
  mv x23, x1
e00004f0:	8b86                	mv	s7,ra
  mv x24, x1
e00004f2:	8c06                	mv	s8,ra
  mv x25, x1
e00004f4:	8c86                	mv	s9,ra
  mv x26, x1
e00004f6:	8d06                	mv	s10,ra
  mv x27, x1
e00004f8:	8d86                	mv	s11,ra
  mv x28, x1
e00004fa:	8e06                	mv	t3,ra
  mv x29, x1
e00004fc:	8e86                	mv	t4,ra
  mv x30, x1
e00004fe:	8f06                	mv	t5,ra
  mv x31, x1
e0000500:	8f86                	mv	t6,ra
  la   x2, _stack_start
e0000502:	00010117          	auipc	sp,0x10
e0000506:	afe10113          	addi	sp,sp,-1282 # e0010000 <_stack_start>

e000050a <_start>:
  la x26, _bss_start
e000050a:	00004d17          	auipc	s10,0x4
e000050e:	2d6d0d13          	addi	s10,s10,726 # e00047e0 <_bss_end>
  la x27, _bss_end
e0000512:	00004d97          	auipc	s11,0x4
e0000516:	2ced8d93          	addi	s11,s11,718 # e00047e0 <_bss_end>
  bge x26, x27, zero_loop_end
e000051a:	01bd5763          	ble	s11,s10,e0000528 <main_entry>

e000051e <zero_loop>:
  sw x0, 0(x26)
e000051e:	000d2023          	sw	zero,0(s10)
  addi x26, x26, 4
e0000522:	0d11                	addi	s10,s10,4
  ble x26, x27, zero_loop
e0000524:	ffaddde3          	ble	s10,s11,e000051e <zero_loop>

e0000528 <main_entry>:
  addi x10, x0, 0
e0000528:	00000513          	li	a0,0
  addi x11, x0, 0
e000052c:	00000593          	li	a1,0
  jal x1, main
e0000530:	00a000ef          	jal	ra,e000053a <main>

e0000534 <sleep_loop>:
  wfi
e0000534:	10500073          	wfi
  j sleep_loop
e0000538:	bff5                	j	e0000534 <sleep_loop>

e000053a <main>:
#include "../common/utils.h"
#include <stdbool.h>

#define TARGET_SYNTHESIS

int main(int argc, char **argv) {
e000053a:	1101                	addi	sp,sp,-32
e000053c:	cc22                	sw	s0,24(sp)
e000053e:	c64e                	sw	s3,12(sp)
  #else
  //set_flls();
  int baud_rate = 115200;
  int test_freq = 100000000;
  #endif
  uart_set_cfg(0,(test_freq/baud_rate)>>4);
e0000540:	45ed                	li	a1,27
e0000542:	4501                	li	a0,0
e0000544:	f0000437          	lui	s0,0xf0000


  for(i = 0; i < buffer_size_clear; i=i+2){
e0000548:	f00049b7          	lui	s3,0xf0004
int main(int argc, char **argv) {
e000054c:	ca26                	sw	s1,20(sp)
e000054e:	c84a                	sw	s2,16(sp)
e0000550:	c452                	sw	s4,8(sp)
e0000552:	c256                	sw	s5,4(sp)
e0000554:	ce06                	sw	ra,28(sp)
e0000556:	00000917          	auipc	s2,0x0
e000055a:	0a690913          	addi	s2,s2,166 # e00005fc <HMAC_SMOKETEST_CLEAR>
  uart_set_cfg(0,(test_freq/baud_rate)>>4);
e000055e:	361d                	jal	e0000084 <uart_set_cfg>
e0000560:	0411                	addi	s0,s0,4
  int errors = 0;
e0000562:	4481                	li	s1,0
    read = *flash_addr;
    exp = HMAC_SMOKETEST_CLEAR[i+1];
    if(read==exp)
      printf("Correct! Addr: %x, Exptected Data: %x, Read Data: %x\r\n",flash_addr,exp, read);
    else{
      printf("Error! Addr: %x, Exptected Data: %x, Read Data: %x\r\n",flash_addr,exp, read);
e0000564:	00004a17          	auipc	s4,0x4
e0000568:	208a0a13          	addi	s4,s4,520 # e000476c <HMAC_SMOKETEST_CLEAR+0x4170>
      printf("Correct! Addr: %x, Exptected Data: %x, Read Data: %x\r\n",flash_addr,exp, read);
e000056c:	00004a97          	auipc	s5,0x4
e0000570:	1c8a8a93          	addi	s5,s5,456 # e0004734 <HMAC_SMOKETEST_CLEAR+0x4138>
  for(i = 0; i < buffer_size_clear; i=i+2){
e0000574:	12498993          	addi	s3,s3,292 # f0004124 <pulp__FC+0xf0004125>
    read = *flash_addr;
e0000578:	ffc42683          	lw	a3,-4(s0) # effffffc <pulp__FC+0xeffffffd>
    exp = HMAC_SMOKETEST_CLEAR[i+1];
e000057c:	00492603          	lw	a2,4(s2)
e0000580:	ffc40593          	addi	a1,s0,-4
    if(read==exp)
e0000584:	06c69263          	bne	a3,a2,e00005e8 <main+0xae>
      printf("Correct! Addr: %x, Exptected Data: %x, Read Data: %x\r\n",flash_addr,exp, read);
e0000588:	8636                	mv	a2,a3
e000058a:	8556                	mv	a0,s5
e000058c:	3b15                	jal	e00002c0 <printf>
      errors++;
    }
    flash_addr = (int *)(0xf0000000 + (i+1)*0x4);
    read = *flash_addr;
e000058e:	4014                	lw	a3,0(s0)
    exp = HMAC_SMOKETEST_CLEAR[i];
e0000590:	00092603          	lw	a2,0(s2)
    if(read==exp)
e0000594:	04c69e63          	bne	a3,a2,e00005f0 <main+0xb6>
      printf("Correct! Addr: %x, Exptected Data: %x, Read Data: %x\r\n",flash_addr,exp,read);
e0000598:	8636                	mv	a2,a3
e000059a:	85a2                	mv	a1,s0
e000059c:	8556                	mv	a0,s5
e000059e:	330d                	jal	e00002c0 <printf>
e00005a0:	0421                	addi	s0,s0,8
e00005a2:	0921                	addi	s2,s2,8
  for(i = 0; i < buffer_size_clear; i=i+2){
e00005a4:	fd341ae3          	bne	s0,s3,e0000578 <main+0x3e>
      errors++;
    }
    flash_addr = (int *)(0xf0000000 + (i+2)*0x4);
  }

  printf("Total Correct: %x/%x", (i-errors), i);
e00005a8:	6405                	lui	s0,0x1
e00005aa:	04840413          	addi	s0,s0,72 # 1048 <_min_stack-0xfb8>
e00005ae:	409405b3          	sub	a1,s0,s1
e00005b2:	8622                	mv	a2,s0
e00005b4:	00004517          	auipc	a0,0x4
e00005b8:	1f050513          	addi	a0,a0,496 # e00047a4 <HMAC_SMOKETEST_CLEAR+0x41a8>
e00005bc:	3311                	jal	e00002c0 <printf>
  printf("Total Errors: %x/%x", errors, i);
e00005be:	8622                	mv	a2,s0
e00005c0:	85a6                	mv	a1,s1
e00005c2:	00004517          	auipc	a0,0x4
e00005c6:	1fa50513          	addi	a0,a0,506 # e00047bc <HMAC_SMOKETEST_CLEAR+0x41c0>
e00005ca:	39dd                	jal	e00002c0 <printf>
  *debug_mode = 0x0;
  
  return 0;
  
}
e00005cc:	40f2                	lw	ra,28(sp)
e00005ce:	4462                	lw	s0,24(sp)
  *debug_mode = 0x0;
e00005d0:	ff0007b7          	lui	a5,0xff000
e00005d4:	0007aa23          	sw	zero,20(a5) # ff000014 <pulp__FC+0xff000015>
}
e00005d8:	44d2                	lw	s1,20(sp)
e00005da:	4942                	lw	s2,16(sp)
e00005dc:	49b2                	lw	s3,12(sp)
e00005de:	4a22                	lw	s4,8(sp)
e00005e0:	4a92                	lw	s5,4(sp)
e00005e2:	4501                	li	a0,0
e00005e4:	6105                	addi	sp,sp,32
e00005e6:	8082                	ret
      printf("Error! Addr: %x, Exptected Data: %x, Read Data: %x\r\n",flash_addr,exp, read);
e00005e8:	8552                	mv	a0,s4
e00005ea:	39d9                	jal	e00002c0 <printf>
      errors++;
e00005ec:	0485                	addi	s1,s1,1
e00005ee:	b745                	j	e000058e <main+0x54>
      printf("Error! Addr: %x, Exptected Data: %x, Read Data: %x\r\n",flash_addr,exp, read);
e00005f0:	85a2                	mv	a1,s0
e00005f2:	8552                	mv	a0,s4
e00005f4:	31f1                	jal	e00002c0 <printf>
      errors++;
e00005f6:	0485                	addi	s1,s1,1
e00005f8:	b765                	j	e00005a0 <main+0x66>

Disassembly of section .rodata:

e00005fc <HMAC_SMOKETEST_CLEAR>:
e00005fc:	0761a72f          	amoadd.w.aqrl	a4,s6,(gp)
e0000600:	7472                	flw	fs0,60(sp)
e0000602:	767f                	0x767f
e0000604:	61a8                	flw	fa0,64(a1)
e0000606:	b2a1                	j	dfffff4e <tohost+0xdffdff46>
e0000608:	d4b5                	beqz	s1,e0000574 <main+0x3a>
e000060a:	4295d8b7          	lui	a7,0x4295d
e000060e:	3fc6                	fld	ft11,112(sp)
e0000610:	f576                	fsw	ft9,168(sp)
e0000612:	7dc0                	flw	fs0,60(a1)
e0000614:	2aa9                	jal	e000076e <HMAC_SMOKETEST_CLEAR+0x172>
e0000616:	74bc                	flw	fa5,104(s1)
e0000618:	d540                	sw	s0,44(a0)
e000061a:	5ef6                	lw	t4,124(sp)
e000061c:	421b0153          	0x421b0153
e0000620:	60c9                	lui	ra,0x12
e0000622:	00ff                	0xff
e0000624:	b91d                	j	e000025a <qprinti.constprop.1+0xba>
e0000626:	b400                	fsd	fs0,40(s0)
e0000628:	91ee                	add	gp,gp,s11
e000062a:	4555                	li	a0,21
e000062c:	fc1456cb          	fnmsub.ah	a3,s0,ra,t6
e0000630:	861a                	mv	a2,t1
e0000632:	f745                	bnez	a4,e00005da <main+0xa0>
e0000634:	25c4                	fld	fs1,136(a1)
e0000636:	16360a83          	lb	s5,355(a2)
e000063a:	9bfc                	0x9bfc
e000063c:	1208                	addi	a0,sp,288
e000063e:	228a                	fld	ft5,128(sp)
e0000640:	33df a7db c7bb      	0xc7bba7db33df
e0000646:	8e98                	0x8e98
e0000648:	9c559413          	0x9c559413
e000064c:	1455                	addi	s0,s0,-11
e000064e:	c6b8                	sw	a4,72(a3)
e0000650:	8ba94d67          	0x8ba94d67
e0000654:	d611                	beqz	a2,e0000560 <main+0x26>
e0000656:	691f92db          	p.machhun	t0,t6,a7,20
e000065a:	9adc                	0x9adc
e000065c:	28bc                	fld	fa5,80(s1)
e000065e:	f98d                	bnez	a1,e0000590 <main+0x56>
e0000660:	e858db2f          	0xe858db2f
e0000664:	251a                	fld	fa0,384(sp)
e0000666:	32aaa4eb          	0x32aaa4eb
e000066a:	ad1e                	fsd	ft7,152(sp)
e000066c:	4031                	0x4031
e000066e:	40d5                	li	ra,21
e0000670:	beb1                	j	e00001cc <qprinti.constprop.1+0x2c>
e0000672:	cb1f 9289 7e86      	0x7e869289cb1f
e0000678:	35a4                	fld	fs1,104(a1)
e000067a:	a136497b          	lp.setup	x18,a2,dffffaa0 <tohost+0xdffdfa98>
e000067e:	45f9901b          	0x45f9901b
e0000682:	a206                	fsd	ft1,256(sp)
e0000684:	1628                	addi	a0,sp,808
e0000686:	1326                	slli	t1,t1,0x29
e0000688:	4bb2                	lw	s7,12(sp)
e000068a:	4ebb7cdb          	p.mac.zh.sh	s9,s6,a1,t2
e000068e:	974a                	add	a4,a4,s2
e0000690:	d9fc                	sw	a5,116(a1)
e0000692:	f508                	fsw	fa0,40(a0)
e0000694:	41d5                	li	gp,21
e0000696:	ddf81eeb          	0xddf81eeb
e000069a:	26fc                	fld	fa5,200(a3)
e000069c:	1c38                	addi	a4,sp,568
e000069e:	cb98                	sw	a4,16(a5)
e00006a0:	f9578a6b          	0xf9578a6b
e00006a4:	5997e4db          	p.mac.zh.sl	s1,a5,s9,a2
e00006a8:	6a08d48f          	0x6a08d48f
e00006ac:	f4d8                	fsw	fa4,44(s1)
e00006ae:	b841                	j	dfffff3e <tohost+0xdffdff36>
e00006b0:	7118                	flw	fa4,32(a0)
e00006b2:	864a                	mv	a2,s2
e00006b4:	453d                	li	a0,15
e00006b6:	e7c4                	fsw	fs1,12(a5)
e00006b8:	7219                	lui	tp,0xfffe6
e00006ba:	3e04                	fld	fs1,56(a2)
e00006bc:	250d                	jal	e0000cde <HMAC_SMOKETEST_CLEAR+0x6e2>
e00006be:	d481                	beqz	s1,e00005c6 <main+0x8c>
e00006c0:	ffa0                	fsw	fs0,120(a5)
e00006c2:	a23d                	j	e00007f0 <HMAC_SMOKETEST_CLEAR+0x1f4>
e00006c4:	3cb9                	jal	e0000122 <qprints.constprop.2+0x28>
e00006c6:	5fd8                	lw	a4,60(a5)
e00006c8:	26bd7977          	0x26bd7977
e00006cc:	e95e                	fsw	fs7,144(sp)
e00006ce:	60c1                	lui	ra,0x10
e00006d0:	2985                	jal	e0000b40 <HMAC_SMOKETEST_CLEAR+0x544>
e00006d2:	ff42                	fsw	fa6,188(sp)
e00006d4:	e668                	fsw	fa0,76(a2)
e00006d6:	9f18                	0x9f18
e00006d8:	d0d8                	sw	a4,36(s1)
e00006da:	5c01                	li	s8,-32
e00006dc:	98c5                	andi	s1,s1,-15
e00006de:	b9ac                	fsd	fa1,112(a1)
e00006e0:	8e85                	sub	a3,a3,s1
e00006e2:	7d93be47          	fmsub.h	t3,t2,s9,a5,rup
e00006e6:	3236                	fld	ft4,360(sp)
e00006e8:	67b8206f          	j	e0083562 <fromhost+0x73552>
e00006ec:	0f21                	addi	t5,t5,8
e00006ee:	36f5                	jal	e00002da <printf+0x1a>
e00006f0:	88f2                	mv	a7,t3
e00006f2:	aaba                	fsd	fa4,336(sp)
e00006f4:	68ae                	flw	fa7,200(sp)
e00006f6:	3ab5                	jal	e0000072 <_vectors_start+0x72>
e00006f8:	57bcb86f          	jal	a6,e00cc472 <fromhost+0xbc462>
e00006fc:	85c5                	srai	a1,a1,0x11
e00006fe:	9272                	add	tp,tp,t3
e0000700:	11b2                	slli	gp,gp,0x2c
e0000702:	32b4                	fld	fa3,96(a3)
e0000704:	7371                	lui	t1,0xffffc
e0000706:	4e34                	lw	a3,88(a2)
e0000708:	c900                	sw	s0,16(a0)
e000070a:	a236                	fsd	fa3,256(sp)
e000070c:	384809f7          	0x384809f7
e0000710:	644484c3          	fmadd.h	s1,s1,tp,a2,rne
e0000714:	a3ee                	fsd	fs11,448(sp)
e0000716:	9d12                	add	s10,s10,tp
e0000718:	2651                	jal	e0000a9c <HMAC_SMOKETEST_CLEAR+0x4a0>
e000071a:	84c5                	srai	s1,s1,0x11
e000071c:	3408                	fld	fa0,40(s0)
e000071e:	0220                	addi	s0,sp,264
e0000720:	6e7f                	0x6e7f
e0000722:	8850                	0x8850
e0000724:	62870623          	sb	s0,1580(a4)
e0000728:	246e                	fld	fs0,216(sp)
e000072a:	c95a                	sw	s6,144(sp)
e000072c:	130d                	addi	t1,t1,-29
e000072e:	dff9                	beqz	a5,e000070c <HMAC_SMOKETEST_CLEAR+0x110>
e0000730:	90c9feab          	0x90c9feab
e0000734:	96a8                	0x96a8
e0000736:	c8de                	sw	s7,80(sp)
e0000738:	7212                	flw	ft4,36(sp)
e000073a:	5892                	lw	a7,36(sp)
e000073c:	de62                	sw	s8,60(sp)
e000073e:	57dc                	lw	a5,44(a5)
e0000740:	0452                	slli	s0,s0,0x14
e0000742:	0c68                	addi	a0,sp,540
e0000744:	1446                	slli	s0,s0,0x31
e0000746:	8928                	0x8928
e0000748:	ce3d                	beqz	a2,e00007c6 <HMAC_SMOKETEST_CLEAR+0x1ca>
e000074a:	2648                	fld	fa0,136(a2)
e000074c:	9a1e                	add	s4,s4,t2
e000074e:	d048                	sw	a0,36(s0)
e0000750:	456d                	li	a0,27
e0000752:	17e8                	addi	a0,sp,1004
e0000754:	86866f83          	p.elw	t6,-1944(a2)
e0000758:	0fcd                	addi	t6,t6,19
e000075a:	fc3e                	fsw	fa5,56(sp)
e000075c:	4bad                	li	s7,11
e000075e:	4d2e                	lw	s10,200(sp)
e0000760:	9aba                	add	s5,s5,a4
e0000762:	a922                	fsd	fs0,144(sp)
e0000764:	7c7e                	flw	fs8,252(sp)
e0000766:	3496                	fld	fs1,352(sp)
e0000768:	18df d2ac c311      	0xc311d2ac18df
e000076e:	b7a0aabb          	0xb7a0aabb
e0000772:	5beb8d9b          	0x5beb8d9b
e0000776:	1491                	addi	s1,s1,-28
e0000778:	bf10                	fsd	fa2,56(a4)
e000077a:	87e9                	srai	a5,a5,0x1a
e000077c:	a5a5                	j	e0000de4 <HMAC_SMOKETEST_CLEAR+0x7e8>
e000077e:	a5a5                	j	e0000de6 <HMAC_SMOKETEST_CLEAR+0x7ea>
e0000780:	0000                	unimp
e0000782:	0000                	unimp
e0000784:	a5a5                	j	e0000dec <HMAC_SMOKETEST_CLEAR+0x7f0>
e0000786:	a5a5                	j	e0000dee <HMAC_SMOKETEST_CLEAR+0x7f2>
e0000788:	a5a5                	j	e0000df0 <HMAC_SMOKETEST_CLEAR+0x7f4>
e000078a:	a5a5                	j	e0000df2 <HMAC_SMOKETEST_CLEAR+0x7f6>
e000078c:	a5a5                	j	e0000df4 <HMAC_SMOKETEST_CLEAR+0x7f8>
e000078e:	a5a5                	j	e0000df6 <HMAC_SMOKETEST_CLEAR+0x7fa>
e0000790:	a5a5                	j	e0000df8 <HMAC_SMOKETEST_CLEAR+0x7fc>
e0000792:	a5a5                	j	e0000dfa <HMAC_SMOKETEST_CLEAR+0x7fe>
e0000794:	a5a5                	j	e0000dfc <HMAC_SMOKETEST_CLEAR+0x800>
e0000796:	a5a5                	j	e0000dfe <HMAC_SMOKETEST_CLEAR+0x802>
e0000798:	a5a5                	j	e0000e00 <HMAC_SMOKETEST_CLEAR+0x804>
e000079a:	a5a5                	j	e0000e02 <HMAC_SMOKETEST_CLEAR+0x806>
e000079c:	a5a5                	j	e0000e04 <HMAC_SMOKETEST_CLEAR+0x808>
e000079e:	a5a5                	j	e0000e06 <HMAC_SMOKETEST_CLEAR+0x80a>
e00007a0:	a5a5                	j	e0000e08 <HMAC_SMOKETEST_CLEAR+0x80c>
e00007a2:	a5a5                	j	e0000e0a <HMAC_SMOKETEST_CLEAR+0x80e>
e00007a4:	a5a5                	j	e0000e0c <HMAC_SMOKETEST_CLEAR+0x810>
e00007a6:	a5a5                	j	e0000e0e <HMAC_SMOKETEST_CLEAR+0x812>
e00007a8:	a5a5                	j	e0000e10 <HMAC_SMOKETEST_CLEAR+0x814>
e00007aa:	a5a5                	j	e0000e12 <HMAC_SMOKETEST_CLEAR+0x816>
e00007ac:	4a46                	lw	s4,80(sp)
e00007ae:	eff6                	fsw	ft9,220(sp)
e00007b0:	a2bd                	j	e000091e <HMAC_SMOKETEST_CLEAR+0x322>
e00007b2:	5801                	li	a6,-32
e00007b4:	a7cd62cb          	0xa7cd62cb
e00007b8:	2251                	jal	e000093c <HMAC_SMOKETEST_CLEAR+0x340>
e00007ba:	36d3c8cf          	0x36d3c8cf
e00007be:	55c9                	li	a1,-14
e00007c0:	39c2                	fld	fs3,48(sp)
e00007c2:	634a                	flw	ft6,144(sp)
e00007c4:	bbaa                	fsd	fa0,496(sp)
e00007c6:	762e                	flw	fa2,232(sp)
e00007c8:	61fc                	flw	fa5,68(a1)
e00007ca:	463d                	li	a2,15
e00007cc:	15d1                	addi	a1,a1,-12
e00007ce:	23da                	fld	ft7,400(sp)
e00007d0:	dfb2                	sw	a2,252(sp)
e00007d2:	01aa                	slli	gp,gp,0xa
e00007d4:	4ec67b7b          	0x4ec67b7b
e00007d8:	fdc6                	fsw	fa7,248(sp)
e00007da:	8475                	srai	s0,s0,0x1d
e00007dc:	d23ec7c7          	fmsub.d	fa5,ft9,ft3,fs10,rmm
e00007e0:	4570                	lw	a2,76(a0)
e00007e2:	e936                	fsw	fa3,144(sp)
e00007e4:	5688a56b          	0x5688a56b
e00007e8:	98038d63          	beqz	t2,dffff982 <tohost+0xdffdf97a>
e00007ec:	f289                	bnez	a3,e00006ee <HMAC_SMOKETEST_CLEAR+0xf2>
e00007ee:	7addb20f          	0x7addb20f
e00007f2:	b8cd6803          	p.elw	a6,-1140(s10)
e00007f6:	bac0                	fsd	fs0,176(a3)
e00007f8:	c1ce                	sw	s3,192(sp)
e00007fa:	9d96                	add	s11,s11,t0
e00007fc:	89c8                	0x89c8
e00007fe:	195f 3d0b ead3      	0xead33d0b195f
e0000804:	cc12                	sw	tp,24(sp)
e0000806:	f5bc                	fsw	fa5,104(a1)
e0000808:	110e                	slli	sp,sp,0x23
e000080a:	d7dc                	sw	a5,44(a5)
e000080c:	04d2                	slli	s1,s1,0x14
e000080e:	edc4                	fsw	fs1,28(a1)
e0000810:	33dc                	fld	fa5,160(a5)
e0000812:	8dfa                	mv	s11,t5
e0000814:	c0c8                	sw	a0,4(s1)
e0000816:	85249197          	auipc	gp,0x85249
e000081a:	505d74ef          	jal	s1,e00d851e <fromhost+0xc850e>
e000081e:	4c9c                	lw	a5,24(s1)
e0000820:	448e                	lw	s1,192(sp)
e0000822:	79cc                	flw	fa1,52(a1)
e0000824:	f071                	bnez	s0,e00007e8 <HMAC_SMOKETEST_CLEAR+0x1ec>
e0000826:	e2d0                	fsw	fa2,4(a3)
e0000828:	4a586ad7          	pv.sra.sci.h	s5,a6,11
e000082c:	fc22                	fsw	fs0,56(sp)
e000082e:	28c22ca7          	fsw	fa2,665(tp) # fffe6299 <pulp__FC+0xfffe629a>
e0000832:	589f 3b44 efb6      	0xefb63b44589f
e0000838:	b0e2                	fsd	fs8,96(sp)
e000083a:	0354                	addi	a3,sp,388
e000083c:	4454                	lw	a3,12(s0)
e000083e:	9e19                	0x9e19
e0000840:	5b04                	lw	s1,48(a4)
e0000842:	78e033a7          	fsd	fa4,1927(zero) # 787 <_min_stack-0x1879>
e0000846:	2cde8e3f 5b721b4b 	0x5b721b4b2cde8e3f
e000084e:	0568                	addi	a0,sp,652
e0000850:	877c                	0x877c
e0000852:	5260                	lw	s0,100(a2)
e0000854:	3ac9                	jal	e0000226 <qprinti.constprop.1+0x86>
e0000856:	1030                	addi	a2,sp,40
e0000858:	ad4e                	fsd	fs3,152(sp)
e000085a:	4868                	lw	a0,84(s0)
e000085c:	7381                	lui	t2,0xfffe0
e000085e:	5e79                	li	t3,-2
e0000860:	2411                	jal	e0000a64 <HMAC_SMOKETEST_CLEAR+0x468>
e0000862:	05ac                	addi	a1,sp,712
e0000864:	2348                	fld	fa0,128(a4)
e0000866:	e352                	fsw	fs4,132(sp)
e0000868:	7668                	flw	fa0,108(a2)
e000086a:	d540                	sw	s0,44(a0)
e000086c:	38f7a953          	0x38f7a953
e0000870:	34f8                	fld	fa4,232(s1)
e0000872:	a331                	j	e0000d7e <HMAC_SMOKETEST_CLEAR+0x782>
e0000874:	136f6753          	fmul.d	fa4,ft10,fs6,unknown
e0000878:	f672                	fsw	ft8,44(sp)
e000087a:	d926                	sw	s1,176(sp)
e000087c:	b586                	fsd	ft1,232(sp)
e000087e:	5cca                	lw	s9,176(sp)
e0000880:	b186b0ab          	0xb186b0ab
e0000884:	9fc0eebb          	0x9fc0eebb
e0000888:	bf2e                	fsd	fa1,440(sp)
e000088a:	61e5                	lui	gp,0x19
e000088c:	fc70                	fsw	fa2,124(s0)
e000088e:	47b5                	li	a5,13
e0000890:	d0bd                	beqz	s1,e00007f6 <HMAC_SMOKETEST_CLEAR+0x1fa>
e0000892:	788e                	flw	fa7,224(sp)
e0000894:	3b40d99b          	0x3b40d99b
e0000898:	262a                	fld	fa2,136(sp)
e000089a:	f971                	bnez	a0,e000086e <HMAC_SMOKETEST_CLEAR+0x272>
e000089c:	ce3c93bf 5b9fd926 	0x5b9fd926ce3c93bf
e00008a4:	e555                	bnez	a0,e0000950 <HMAC_SMOKETEST_CLEAR+0x354>
e00008a6:	72b9                	lui	t0,0xfffee
e00008a8:	005e                	0x5e
e00008aa:	d406                	sw	ra,40(sp)
e00008ac:	747f                	0x747f
e00008ae:	273efcef          	jal	s9,e00f0320 <fromhost+0xe0310>
e00008b2:	c9b9                	beqz	a1,e0000908 <HMAC_SMOKETEST_CLEAR+0x30c>
e00008b4:	e8f6                	fsw	ft9,80(sp)
e00008b6:	2761                	jal	e000103e <HMAC_SMOKETEST_CLEAR+0xa42>
e00008b8:	5598                	lw	a4,40(a1)
e00008ba:	c52df0a3          	0xc52df0a3
e00008be:	99df462b          	0x99df462b
e00008c2:	cdaeec17          	auipc	s8,0xcdaee
e00008c6:	429c                	lw	a5,0(a3)
e00008c8:	8e47218b          	p.lw	gp,-1820(a4!)
e00008cc:	70c70b03          	lb	s6,1804(a4)
e00008d0:	d66c                	sw	a1,108(a2)
e00008d2:	e7d1e7e7          	0xe7d1e7e7
e00008d6:	c3d23cb3          	p.bclr	s9,tp,1,29
e00008da:	0356                	slli	t1,t1,0x15
e00008dc:	83c529a3          	sw	t3,-1997(a0)
e00008e0:	035d                	addi	t1,t1,23
e00008e2:	d42d                	beqz	s0,e000084c <HMAC_SMOKETEST_CLEAR+0x250>
e00008e4:	e1f0                	fsw	fa2,68(a1)
e00008e6:	b082                	fsd	ft0,96(sp)
e00008e8:	930e                	add	t1,t1,gp
e00008ea:	8df9                	and	a1,a1,a4
e00008ec:	a350                	fsd	fa2,128(a4)
e00008ee:	9c305c33          	vfsgnjn.r.ah	s8,zero,gp
e00008f2:	0750                	addi	a2,sp,900
e00008f4:	2de0                	fld	fs0,216(a1)
e00008f6:	7b9d                	lui	s7,0xfffe7
e00008f8:	84b9                	srai	s1,s1,0xe
e00008fa:	4f68                	lw	a0,92(a4)
e00008fc:	cf55                	beqz	a4,e00009b8 <HMAC_SMOKETEST_CLEAR+0x3bc>
e00008fe:	16b338db          	p.subn	a7,t1,a1,11
e0000902:	0f1d                	addi	t5,t5,7
e0000904:	aca4                	fsd	fs1,88(s1)
e0000906:	c2f2                	sw	t3,68(sp)
e0000908:	80ea                	mv	ra,s10
e000090a:	1685                	addi	a3,a3,-31
e000090c:	d2ed                	beqz	a3,e00008ee <HMAC_SMOKETEST_CLEAR+0x2f2>
e000090e:	227d                	jal	e0000abc <HMAC_SMOKETEST_CLEAR+0x4c0>
e0000910:	ae60                	fsd	fs0,216(a2)
e0000912:	43f0                	lw	a2,68(a5)
e0000914:	e8bc                	fsw	fa5,80(s1)
e0000916:	9404                	0x9404
e0000918:	61f4                	flw	fa3,68(a1)
e000091a:	d8dc                	sw	a5,52(s1)
e000091c:	d3b0                	sw	a2,96(a5)
e000091e:	3491                	jal	e0000362 <printf+0xa2>
e0000920:	0db76fe3          	bltu	a4,s11,e00011fe <HMAC_SMOKETEST_CLEAR+0xc02>
e0000924:	3719                	jal	e000082a <HMAC_SMOKETEST_CLEAR+0x22e>
e0000926:	cda6                	sw	s1,216(sp)
e0000928:	6ca44e27          	0x6ca44e27
e000092c:	4552544f          	fnmadd.ah	s0,tp,s5,s0
e0000930:	01d4                	addi	a3,sp,196
e0000932:	0000                	unimp
e0000934:	0000                	unimp
e0000936:	0000                	unimp
e0000938:	411c                	lw	a5,0(a0)
	...
e000096a:	0000                	unimp
e000096c:	0400                	addi	s0,sp,512
e000096e:	0000                	unimp
e0000970:	0000                	unimp
e0000972:	0000                	unimp
e0000974:	0480                	addi	s0,sp,576
e0000976:	0000                	unimp
e0000978:	2c88                	fld	fa0,24(s1)
	...
e00009fa:	0000                	unimp
e00009fc:	c0001073          	csrw	0xc00,zero
e0000a00:	2080006f          	j	e0000c08 <HMAC_SMOKETEST_CLEAR+0x60c>
e0000a04:	24c0006f          	j	e0000c50 <HMAC_SMOKETEST_CLEAR+0x654>
e0000a08:	c0001073          	csrw	0xc00,zero
e0000a0c:	c0001073          	csrw	0xc00,zero
e0000a10:	c0001073          	csrw	0xc00,zero
e0000a14:	2900006f          	j	e0000ca4 <HMAC_SMOKETEST_CLEAR+0x6a8>
e0000a18:	c0001073          	csrw	0xc00,zero
e0000a1c:	c0001073          	csrw	0xc00,zero
e0000a20:	c0001073          	csrw	0xc00,zero
e0000a24:	2d40006f          	j	e0000cf8 <HMAC_SMOKETEST_CLEAR+0x6fc>
e0000a28:	c0001073          	csrw	0xc00,zero
e0000a2c:	c0001073          	csrw	0xc00,zero
e0000a30:	c0001073          	csrw	0xc00,zero
e0000a34:	c0001073          	csrw	0xc00,zero
e0000a38:	c0001073          	csrw	0xc00,zero
e0000a3c:	c0001073          	csrw	0xc00,zero
e0000a40:	c0001073          	csrw	0xc00,zero
e0000a44:	c0001073          	csrw	0xc00,zero
e0000a48:	c0001073          	csrw	0xc00,zero
e0000a4c:	c0001073          	csrw	0xc00,zero
e0000a50:	c0001073          	csrw	0xc00,zero
e0000a54:	c0001073          	csrw	0xc00,zero
e0000a58:	c0001073          	csrw	0xc00,zero
e0000a5c:	c0001073          	csrw	0xc00,zero
e0000a60:	c0001073          	csrw	0xc00,zero
e0000a64:	c0001073          	csrw	0xc00,zero
e0000a68:	c0001073          	csrw	0xc00,zero
e0000a6c:	c0001073          	csrw	0xc00,zero
e0000a70:	c0001073          	csrw	0xc00,zero
e0000a74:	2d80006f          	j	e0000d4c <HMAC_SMOKETEST_CLEAR+0x750>
e0000a78:	c0001073          	csrw	0xc00,zero
e0000a7c:	34418193          	addi	gp,gp,836 # 19344 <_stack_len+0x11344>
e0000a80:	f0002197          	auipc	gp,0xf0002
e0000a84:	b6810113          	addi	sp,sp,-1176
e0000a88:	f0020117          	auipc	sp,0xf0020
e0000a8c:	f7128293          	addi	t0,t0,-143 # fffedf71 <pulp__FC+0xfffedf72>
e0000a90:	00000297          	auipc	t0,0x0
e0000a94:	f0002517          	auipc	a0,0xf0002
e0000a98:	30529073          	csrw	mtvec,t0
e0000a9c:	8a418593          	addi	a1,gp,-1884 # d0002324 <tohost+0xcffe231c>
e0000aa0:	b2850513          	addi	a0,a0,-1240 # d00025bc <tohost+0xcffe25b4>
e0000aa4:	bd060613          	addi	a2,a2,-1072
e0000aa8:	00004617          	auipc	a2,0x4
e0000aac:	f000                	fsw	fs0,32(s0)
e0000aae:	28b10513          	addi	a0,sp,651 # d0020d13 <tohost+0xd0000d0b>
e0000ab2:	f0002517          	auipc	a0,0xf0002
e0000ab6:	bb658593          	addi	a1,a1,-1098
e0000aba:	04172597          	auipc	a1,0x4172
e0000abe:	0000                	unimp
e0000ac0:	cea5                	beqz	a3,e0000b38 <HMAC_SMOKETEST_CLEAR+0x53c>
e0000ac2:	201d                	jal	e0000ae8 <HMAC_SMOKETEST_CLEAR+0x4ec>
e0000ac4:	00000497          	auipc	s1,0x0
e0000ac8:	08440413          	addi	s0,s0,132
e0000acc:	00947863          	bleu	s1,s0,e0000adc <HMAC_SMOKETEST_CLEAR+0x4e0>
e0000ad0:	07c48493          	addi	s1,s1,124 # e0000b40 <HMAC_SMOKETEST_CLEAR+0x544>
e0000ad4:	9282                	jalr	t0
e0000ad6:	0411                	addi	s0,s0,4
e0000ad8:	00042283          	lw	t0,0(s0)
e0000adc:	54d0006f          	j	e0001828 <HMAC_SMOKETEST_CLEAR+0x122c>
e0000ae0:	fe946ce3          	bltu	s0,s1,e0000ad8 <HMAC_SMOKETEST_CLEAR+0x4dc>
e0000ae4:	00b562b3          	or	t0,a0,a1
e0000ae8:	00b57e63          	bleu	a1,a0,e0000b04 <HMAC_SMOKETEST_CLEAR+0x508>
e0000aec:	00029b63          	bnez	t0,e0000b02 <HMAC_SMOKETEST_CLEAR+0x506>
e0000af0:	0032f293          	andi	t0,t0,3
e0000af4:	0511                	addi	a0,a0,4
e0000af6:	20236de3          	bltu	t1,sp,e0001510 <HMAC_SMOKETEST_CLEAR+0xf14>
e0000afa:	0005                	c.addi	zero,1
e0000afc:	00b51363          	bne	a0,a1,e0000b02 <HMAC_SMOKETEST_CLEAR+0x506>
e0000b00:	feb5                	bnez	a3,e0000a7c <HMAC_SMOKETEST_CLEAR+0x480>
e0000b02:	8082                	ret
e0000b04:	02b57963          	bleu	a1,a0,e0000b36 <HMAC_SMOKETEST_CLEAR+0x53a>
e0000b08:	8082                	ret
e0000b0a:	0000                	unimp
e0000b0c:	00c2e2b3          	or	t0,t0,a2
e0000b10:	00b562b3          	or	t0,a0,a1
e0000b14:	02029463          	bnez	t0,e0000b3c <HMAC_SMOKETEST_CLEAR+0x540>
e0000b18:	0032f293          	andi	t0,t0,3
e0000b1c:	40a58333          	sub	t1,a1,a0
e0000b20:	40c502b3          	sub	t0,a0,a2
e0000b24:	00062283          	lw	t0,0(a2) # e0004aa8 <_bss_end+0x2c8>
e0000b28:	0062ee63          	bltu	t0,t1,e0000b44 <HMAC_SMOKETEST_CLEAR+0x548>
e0000b2c:	0055                	c.addi	zero,21
e0000b2e:	0511                	addi	a0,a0,4
e0000b30:	0611                	addi	a2,a2,4
e0000b32:	80822023          	sw	s0,-2048(tp) # fffff800 <pulp__FC+0xfffff801>
e0000b36:	6ae31363          	bne	t1,a4,e00011dc <HMAC_SMOKETEST_CLEAR+0xbe0>
e0000b3a:	feb5                	bnez	a3,e0000ab6 <HMAC_SMOKETEST_CLEAR+0x4ba>
e0000b3c:	0000                	unimp
e0000b3e:	0000                	unimp
e0000b40:	00b5                	addi	ra,ra,13
e0000b42:	8082                	ret
e0000b44:	b3812103          	lw	sp,-1224(sp)
e0000b48:	f0002117          	auipc	sp,0xf0002
e0000b4c:	4332                	lw	t1,12(sp)
e0000b4e:	43c2                	lw	t2,16(sp)
e0000b50:	4102                	lw	sp,0(sp)
e0000b52:	4082                	lw	ra,0(sp)
e0000b54:	4572                	lw	a0,28(sp)
e0000b56:	5582                	lw	a1,32(sp)
e0000b58:	4452                	lw	s0,20(sp)
e0000b5a:	44e2                	lw	s1,24(sp)
e0000b5c:	5732                	lw	a4,44(sp)
e0000b5e:	57c2                	lw	a5,48(sp)
e0000b60:	5612                	lw	a2,36(sp)
e0000b62:	56a2                	lw	a3,40(sp)
e0000b64:	5972                	lw	s2,60(sp)
e0000b66:	4986                	lw	s3,64(sp)
e0000b68:	5852                	lw	a6,52(sp)
e0000b6a:	58e2                	lw	a7,56(sp)
e0000b6c:	4b36                	lw	s6,76(sp)
e0000b6e:	4bc6                	lw	s7,80(sp)
e0000b70:	4a16                	lw	s4,68(sp)
e0000b72:	4aa6                	lw	s5,72(sp)
e0000b74:	4d76                	lw	s10,92(sp)
e0000b76:	5d86                	lw	s11,96(sp)
e0000b78:	4c56                	lw	s8,84(sp)
e0000b7a:	4ce6                	lw	s9,88(sp)
e0000b7c:	5f36                	lw	t5,108(sp)
e0000b7e:	5fc6                	lw	t6,112(sp)
e0000b80:	5e16                	lw	t3,100(sp)
e0000b82:	5ea6                	lw	t4,104(sp)
e0000b84:	0082                	slli	ra,ra,0x0
e0000b86:	52d69073          	csrw	0x52d,a3
e0000b8a:	0113e293          	ori	t0,t2,17
e0000b8e:	0781                	addi	a5,a5,0
e0000b90:	3002                	fld	ft0,32(sp)
e0000b92:	42a2                	lw	t0,8(sp)
e0000b94:	300022f3          	csrr	t0,mstatus
e0000b98:	8082                	ret
e0000b9a:	0001                	nop
e0000b9c:	6309                	lui	t1,0x2
e0000b9e:	f2930313          	addi	t1,t1,-215 # 1f29 <_min_stack-0xd7>
e0000ba2:	ff72                	fsw	ft8,188(sp)
e0000ba4:	0062                	0x62
e0000ba6:	88030513          	addi	a0,t1,-1920
e0000baa:	0655e2b3          	0x655e2b3
e0000bae:	cd50                	sw	a2,28(a0)
e0000bb0:	f885                	bnez	s1,e0000ae0 <HMAC_SMOKETEST_CLEAR+0x4e4>
e0000bb2:	c10c2a23          	sw	a6,-1004(s8) # adaee4d6 <tohost+0xadace4ce>
e0000bb6:	8082                	ret
e0000bb8:	00052223          	sw	zero,4(a0) # d0002ab6 <tohost+0xcffe2aae>
e0000bbc:	34202373          	csrr	t1,mcause
e0000bc0:	341022f3          	csrr	t0,mepc
e0000bc4:	80820073          	0x80820073
e0000bc8:	4385                	li	t2,1
e0000bca:	430d1363          	bne	s10,a6,e0000ff0 <HMAC_SMOKETEST_CLEAR+0x9f4>
e0000bce:	9383fe33          	0x9383fe33
e0000bd2:	0002                	0x2
e0000bd4:	006e                	0x6e
e0000bd6:	0289                	addi	t0,t0,2
e0000bd8:	04630063          	beq	t1,t1,e0000c18 <HMAC_SMOKETEST_CLEAR+0x61c>
e0000bdc:	8082                	ret
e0000bde:	0001                	nop
e0000be0:	8082                	ret
e0000be2:	0291                	addi	t0,t0,4
e0000be4:	85028293          	addi	t0,t0,-1968 # e00002e0 <printf+0x20>
e0000be8:	00003297          	auipc	t0,0x3
e0000bec:	00030863          	beqz	t1,e0000bfc <HMAC_SMOKETEST_CLEAR+0x600>
e0000bf0:	00028303          	lb	t1,0(t0) # e0003be8 <HMAC_SMOKETEST_CLEAR+0x35ec>
e0000bf4:	a883a383          	lw	t2,-1400(t2) # fffdfa88 <pulp__FC+0xfffdfa89>
e0000bf8:	f0002397          	auipc	t2,0xf0002
e0000bfc:	8082                	ret
e0000bfe:	0001                	nop
e0000c00:	0023a023          	sw	sp,0(t2) # d0002bf8 <tohost+0xcffe2bf0>
e0000c04:	c206                	sw	ra,4(sp)
e0000c06:	c416                	sw	t0,8(sp)
e0000c08:	f8810113          	addi	sp,sp,-120 # d0002ad0 <tohost+0xcffe2ac8>
e0000c0c:	ca22                	sw	s0,20(sp)
e0000c0e:	cc26                	sw	s1,24(sp)
e0000c10:	c61a                	sw	t1,12(sp)
e0000c12:	c81e                	sw	t2,16(sp)
e0000c14:	d232                	sw	a2,36(sp)
e0000c16:	d436                	sw	a3,40(sp)
e0000c18:	ce2a                	sw	a0,28(sp)
e0000c1a:	d02e                	sw	a1,32(sp)
e0000c1c:	da42                	sw	a6,52(sp)
e0000c1e:	dc46                	sw	a7,56(sp)
e0000c20:	d63a                	sw	a4,44(sp)
e0000c22:	d83e                	sw	a5,48(sp)
e0000c24:	c2d2                	sw	s4,68(sp)
e0000c26:	c4d6                	sw	s5,72(sp)
e0000c28:	de4a                	sw	s2,60(sp)
e0000c2a:	c0ce                	sw	s3,64(sp)
e0000c2c:	cae2                	sw	s8,84(sp)
e0000c2e:	cce6                	sw	s9,88(sp)
e0000c30:	c6da                	sw	s6,76(sp)
e0000c32:	c8de                	sw	s7,80(sp)
e0000c34:	d2f2                	sw	t3,100(sp)
e0000c36:	d4f6                	sw	t4,104(sp)
e0000c38:	ceea                	sw	s10,92(sp)
e0000c3a:	d0ee                	sw	s11,96(sp)
e0000c3c:	300022f3          	csrr	t0,mstatus
e0000c40:	d6fa                	sw	t5,108(sp)
e0000c42:	d8fe                	sw	t6,112(sp)
e0000c44:	c016                	sw	t0,0(sp)
e0000c46:	3f69                	jal	e0000be0 <HMAC_SMOKETEST_CLEAR+0x5e4>
e0000c48:	da96                	sw	t0,116(sp)
e0000c4a:	3f9d                	jal	e0000bc0 <HMAC_SMOKETEST_CLEAR+0x5c4>
e0000c4c:	1540006f          	j	e0000da0 <HMAC_SMOKETEST_CLEAR+0x7a4>
e0000c50:	7bf000ef          	jal	ra,e0001c0e <HMAC_SMOKETEST_CLEAR+0x1612>
e0000c54:	c206                	sw	ra,4(sp)
e0000c56:	c416                	sw	t0,8(sp)
e0000c58:	f8810113          	addi	sp,sp,-120
e0000c5c:	ca22                	sw	s0,20(sp)
e0000c5e:	cc26                	sw	s1,24(sp)
e0000c60:	c61a                	sw	t1,12(sp)
e0000c62:	c81e                	sw	t2,16(sp)
e0000c64:	d232                	sw	a2,36(sp)
e0000c66:	d436                	sw	a3,40(sp)
e0000c68:	ce2a                	sw	a0,28(sp)
e0000c6a:	d02e                	sw	a1,32(sp)
e0000c6c:	da42                	sw	a6,52(sp)
e0000c6e:	dc46                	sw	a7,56(sp)
e0000c70:	d63a                	sw	a4,44(sp)
e0000c72:	d83e                	sw	a5,48(sp)
e0000c74:	c2d2                	sw	s4,68(sp)
e0000c76:	c4d6                	sw	s5,72(sp)
e0000c78:	de4a                	sw	s2,60(sp)
e0000c7a:	c0ce                	sw	s3,64(sp)
e0000c7c:	cae2                	sw	s8,84(sp)
e0000c7e:	cce6                	sw	s9,88(sp)
e0000c80:	c6da                	sw	s6,76(sp)
e0000c82:	c8de                	sw	s7,80(sp)
e0000c84:	d2f2                	sw	t3,100(sp)
e0000c86:	d4f6                	sw	t4,104(sp)
e0000c88:	ceea                	sw	s10,92(sp)
e0000c8a:	d0ee                	sw	s11,96(sp)
e0000c8c:	300022f3          	csrr	t0,mstatus
e0000c90:	d6fa                	sw	t5,108(sp)
e0000c92:	d8fe                	sw	t6,112(sp)
e0000c94:	3410                	fld	fa2,40(s0)
e0000c96:	c016                	sw	t0,0(sp)
e0000c98:	da96                	sw	t0,116(sp)
e0000c9a:	7d3022f3          	csrr	t0,0x7d3
e0000c9e:	37a1006f          	j	e0011018 <fromhost+0x1008>
e0000ca2:	011300ef          	jal	ra,e00314b2 <fromhost+0x214a2>
e0000ca6:	f881                	bnez	s1,e0000bb6 <HMAC_SMOKETEST_CLEAR+0x5ba>
e0000ca8:	1020                	addi	s0,sp,40
e0000caa:	0001                	nop
e0000cac:	c61a                	sw	t1,12(sp)
e0000cae:	c81e                	sw	t2,16(sp)
e0000cb0:	c206                	sw	ra,4(sp)
e0000cb2:	c416                	sw	t0,8(sp)
e0000cb4:	ce2a                	sw	a0,28(sp)
e0000cb6:	d02e                	sw	a1,32(sp)
e0000cb8:	ca22                	sw	s0,20(sp)
e0000cba:	cc26                	sw	s1,24(sp)
e0000cbc:	d63a                	sw	a4,44(sp)
e0000cbe:	d83e                	sw	a5,48(sp)
e0000cc0:	d232                	sw	a2,36(sp)
e0000cc2:	d436                	sw	a3,40(sp)
e0000cc4:	de4a                	sw	s2,60(sp)
e0000cc6:	c0ce                	sw	s3,64(sp)
e0000cc8:	da42                	sw	a6,52(sp)
e0000cca:	dc46                	sw	a7,56(sp)
e0000ccc:	c6da                	sw	s6,76(sp)
e0000cce:	c8de                	sw	s7,80(sp)
e0000cd0:	c2d2                	sw	s4,68(sp)
e0000cd2:	c4d6                	sw	s5,72(sp)
e0000cd4:	ceea                	sw	s10,92(sp)
e0000cd6:	d0ee                	sw	s11,96(sp)
e0000cd8:	cae2                	sw	s8,84(sp)
e0000cda:	cce6                	sw	s9,88(sp)
e0000cdc:	d6fa                	sw	t5,108(sp)
e0000cde:	d8fe                	sw	t6,112(sp)
e0000ce0:	d2f2                	sw	t3,100(sp)
e0000ce2:	d4f6                	sw	t4,104(sp)
e0000ce4:	da96                	sw	t0,116(sp)
e0000ce6:	22f322f3          	csrrs	t0,0x22f,t1
e0000cea:	3000                	fld	fs0,32(s0)
e0000cec:	3dd5                	jal	e0000be0 <HMAC_SMOKETEST_CLEAR+0x5e4>
e0000cee:	341000ef          	jal	ra,e000182e <HMAC_SMOKETEST_CLEAR+0x1232>
e0000cf2:	c016                	sw	t0,0(sp)
e0000cf4:	0ae0                	addi	s0,sp,348
e0000cf6:	0001                	nop
e0000cf8:	7930                	flw	fa2,112(a0)
e0000cfa:	c206006f          	j	dff6111a <tohost+0xdff41112>
e0000cfe:	c416                	sw	t0,8(sp)
e0000d00:	f8810113          	addi	sp,sp,-120
e0000d04:	ca22                	sw	s0,20(sp)
e0000d06:	cc26                	sw	s1,24(sp)
e0000d08:	c61a                	sw	t1,12(sp)
e0000d0a:	c81e                	sw	t2,16(sp)
e0000d0c:	d232                	sw	a2,36(sp)
e0000d0e:	d436                	sw	a3,40(sp)
e0000d10:	ce2a                	sw	a0,28(sp)
e0000d12:	d02e                	sw	a1,32(sp)
e0000d14:	da42                	sw	a6,52(sp)
e0000d16:	dc46                	sw	a7,56(sp)
e0000d18:	d63a                	sw	a4,44(sp)
e0000d1a:	d83e                	sw	a5,48(sp)
e0000d1c:	c2d2                	sw	s4,68(sp)
e0000d1e:	c4d6                	sw	s5,72(sp)
e0000d20:	de4a                	sw	s2,60(sp)
e0000d22:	c0ce                	sw	s3,64(sp)
e0000d24:	cae2                	sw	s8,84(sp)
e0000d26:	cce6                	sw	s9,88(sp)
e0000d28:	c6da                	sw	s6,76(sp)
e0000d2a:	c8de                	sw	s7,80(sp)
e0000d2c:	d2f2                	sw	t3,100(sp)
e0000d2e:	d4f6                	sw	t4,104(sp)
e0000d30:	ceea                	sw	s10,92(sp)
e0000d32:	d0ee                	sw	s11,96(sp)
e0000d34:	300022f3          	csrr	t0,mstatus
e0000d38:	d6fa                	sw	t5,108(sp)
e0000d3a:	d8fe                	sw	t6,112(sp)
e0000d3c:	3410                	fld	fa2,40(s0)
e0000d3e:	c016                	sw	t0,0(sp)
e0000d40:	da96                	sw	t0,116(sp)
e0000d42:	757022f3          	csrr	t0,0x757
e0000d46:	3545006f          	j	e005109a <fromhost+0x4108a>
e0000d4a:	011300ef          	jal	ra,e003155a <fromhost+0x2154a>
e0000d4e:	f881                	bnez	s1,e0000c5e <HMAC_SMOKETEST_CLEAR+0x662>
e0000d50:	05a0                	addi	s0,sp,712
e0000d52:	0001                	nop
e0000d54:	c61a                	sw	t1,12(sp)
e0000d56:	c81e                	sw	t2,16(sp)
e0000d58:	c206                	sw	ra,4(sp)
e0000d5a:	c416                	sw	t0,8(sp)
e0000d5c:	ce2a                	sw	a0,28(sp)
e0000d5e:	d02e                	sw	a1,32(sp)
e0000d60:	ca22                	sw	s0,20(sp)
e0000d62:	cc26                	sw	s1,24(sp)
e0000d64:	d63a                	sw	a4,44(sp)
e0000d66:	d83e                	sw	a5,48(sp)
e0000d68:	d232                	sw	a2,36(sp)
e0000d6a:	d436                	sw	a3,40(sp)
e0000d6c:	de4a                	sw	s2,60(sp)
e0000d6e:	c0ce                	sw	s3,64(sp)
e0000d70:	da42                	sw	a6,52(sp)
e0000d72:	dc46                	sw	a7,56(sp)
e0000d74:	c6da                	sw	s6,76(sp)
e0000d76:	c8de                	sw	s7,80(sp)
e0000d78:	c2d2                	sw	s4,68(sp)
e0000d7a:	c4d6                	sw	s5,72(sp)
e0000d7c:	ceea                	sw	s10,92(sp)
e0000d7e:	d0ee                	sw	s11,96(sp)
e0000d80:	cae2                	sw	s8,84(sp)
e0000d82:	cce6                	sw	s9,88(sp)
e0000d84:	d6fa                	sw	t5,108(sp)
e0000d86:	d8fe                	sw	t6,112(sp)
e0000d88:	d2f2                	sw	t3,100(sp)
e0000d8a:	d4f6                	sw	t4,104(sp)
e0000d8c:	da96                	sw	t0,116(sp)
e0000d8e:	22f322f3          	csrrs	t0,0x22f,t1
e0000d92:	3000                	fld	fs0,32(s0)
e0000d94:	35b1                	jal	e0000be0 <HMAC_SMOKETEST_CLEAR+0x5e4>
e0000d96:	341000ef          	jal	ra,e00018d6 <HMAC_SMOKETEST_CLEAR+0x12da>
e0000d9a:	c016                	sw	t0,0(sp)
e0000d9c:	0060                	addi	s0,sp,12
e0000d9e:	0001                	nop
e0000da0:	7e30                	flw	fa2,120(a2)
e0000da2:	8293006f          	j	dff315ca <tohost+0xdff115c2>
e0000da6:	6902                	flw	fs2,0(sp)
e0000da8:	00002297          	auipc	t0,0x2
e0000dac:	00030863          	beqz	t1,e0000dbc <HMAC_SMOKETEST_CLEAR+0x7c0>
e0000db0:	00028303          	lb	t1,0(t0) # e0002da8 <HMAC_SMOKETEST_CLEAR+0x27ac>
e0000db4:	8c83a383          	lw	t2,-1848(t2)
e0000db8:	f0002397          	auipc	t2,0xf0002
e0000dbc:	4282                	lw	t0,0(sp)
e0000dbe:	a1039073          	csrw	0xa10,t2
e0000dc2:	90730003          	lb	zero,-1785(t1)
e0000dc6:	3002                	fld	ft0,32(sp)
e0000dc8:	3412                	fld	fs0,288(sp)
e0000dca:	52d6                	lw	t0,116(sp)
e0000dcc:	4332                	lw	t1,12(sp)
e0000dce:	43c2                	lw	t2,16(sp)
e0000dd0:	4092                	lw	ra,4(sp)
e0000dd2:	42a2                	lw	t0,8(sp)
e0000dd4:	4572                	lw	a0,28(sp)
e0000dd6:	5582                	lw	a1,32(sp)
e0000dd8:	4452                	lw	s0,20(sp)
e0000dda:	44e2                	lw	s1,24(sp)
e0000ddc:	5732                	lw	a4,44(sp)
e0000dde:	57c2                	lw	a5,48(sp)
e0000de0:	5612                	lw	a2,36(sp)
e0000de2:	56a2                	lw	a3,40(sp)
e0000de4:	5972                	lw	s2,60(sp)
e0000de6:	4986                	lw	s3,64(sp)
e0000de8:	5852                	lw	a6,52(sp)
e0000dea:	58e2                	lw	a7,56(sp)
e0000dec:	4b36                	lw	s6,76(sp)
e0000dee:	4bc6                	lw	s7,80(sp)
e0000df0:	4a16                	lw	s4,68(sp)
e0000df2:	4aa6                	lw	s5,72(sp)
e0000df4:	4d76                	lw	s10,92(sp)
e0000df6:	5d86                	lw	s11,96(sp)
e0000df8:	4c56                	lw	s8,84(sp)
e0000dfa:	4ce6                	lw	s9,88(sp)
e0000dfc:	5f36                	lw	t5,108(sp)
e0000dfe:	5fc6                	lw	t6,112(sp)
e0000e00:	5e16                	lw	t3,100(sp)
e0000e02:	5ea6                	lw	t4,104(sp)
e0000e04:	30200073          	mret
e0000e08:	07810113          	addi	sp,sp,120
e0000e0c:	d422                	sw	s0,40(sp)
e0000e0e:	d226                	sw	s1,36(sp)
e0000e10:	7179                	addi	sp,sp,-48
e0000e12:	d606                	sw	ra,44(sp)
e0000e14:	85c50513          	addi	a0,a0,-1956
e0000e18:	00004517          	auipc	a0,0x4
e0000e1c:	1000f517          	auipc	a0,0x1000f
e0000e20:	4100                	lw	s0,0(a0)
e0000e22:	c809                	beqz	s0,e0000e34 <HMAC_SMOKETEST_CLEAR+0x838>
e0000e24:	4581                	li	a1,0
e0000e26:	051310ef          	jal	ra,e0032676 <fromhost+0x22666>
e0000e2a:	7dc5                	lui	s11,0xffff1
e0000e2c:	00002597          	auipc	a1,0x2
e0000e30:	1cc0                	addi	s0,sp,628
e0000e32:	a821                	j	e0000e4a <HMAC_SMOKETEST_CLEAR+0x84e>
e0000e34:	0808                	addi	a0,sp,16
e0000e36:	4651                	li	a2,20
e0000e38:	60c58593          	addi	a1,a1,1548 # e0003438 <HMAC_SMOKETEST_CLEAR+0x2e3c>
e0000e3c:	0808                	addi	a0,sp,16
e0000e3e:	10ef10ef          	jal	ra,e00f1f4c <fromhost+0xe1f3c>
e0000e42:	2910                	fld	fa2,16(a0)
e0000e44:	0014                	addi	a3,sp,0
e0000e46:	11200537          	lui	a0,0x11200
e0000e4a:	00ef3493          	sltiu	s1,t5,14
e0000e4e:	7c80                	flw	fs0,56(s1)
e0000e50:	c111                	beqz	a0,e0000e54 <HMAC_SMOKETEST_CLEAR+0x858>
e0000e52:	002c                	addi	a1,sp,8
e0000e54:	e891                	bnez	s1,e0000e68 <HMAC_SMOKETEST_CLEAR+0x86c>
e0000e56:	cd0d0517          	auipc	a0,0xcd0d0
e0000e5a:	842a                	mv	s0,a0
e0000e5c:	8065                	srli	s0,s0,0x19
e0000e5e:	4585                	li	a1,1
e0000e60:	1001                	c.addi	zero,-32
e0000e62:	19000513          	li	a0,400
e0000e66:	a829                	j	e0000e80 <HMAC_SMOKETEST_CLEAR+0x884>
e0000e68:	8622                	mv	a2,s0
e0000e6a:	859310ef          	jal	ra,dff326c2 <tohost+0xdff126ba>
e0000e6e:	7045                	0x7045
e0000e70:	00002597          	auipc	a1,0x2
e0000e74:	255010ef          	jal	ra,e00028c8 <HMAC_SMOKETEST_CLEAR+0x22cc>
e0000e78:	0808                	addi	a0,sp,16
e0000e7a:	4651                	li	a2,20
e0000e7c:	0d4010ef          	jal	ra,e0001f50 <HMAC_SMOKETEST_CLEAR+0x1954>
e0000e80:	0808                	addi	a0,sp,16
e0000e82:	85a2                	mv	a1,s0
e0000e84:	aad5                	j	e0001078 <HMAC_SMOKETEST_CLEAR+0xa7c>
e0000e86:	653110ef          	jal	ra,e0012cd8 <fromhost+0x2cc8>
e0000e8a:	f5170513          	addi	a0,a4,-175
e0000e8e:	1000                	addi	s0,sp,32
e0000e90:	0040                	addi	s0,sp,4
e0000e92:	e4a5                	bnez	s1,e0000efa <HMAC_SMOKETEST_CLEAR+0x8fe>
e0000e94:	4581                	li	a1,0
e0000e96:	051310ef          	jal	ra,e00326e6 <fromhost+0x226d6>
e0000e9a:	7805                	lui	a6,0xfffe1
e0000e9c:	0000                	unimp
e0000e9e:	15c00413          	li	s0,348
e0000ea2:	45812417          	auipc	s0,0x45812
e0000ea6:	8622                	mv	a2,s0
e0000ea8:	6564                	flw	fs1,76(a0)
e0000eaa:	0028                	addi	a0,sp,8
e0000eac:	1000                	addi	s0,sp,32
e0000eae:	20fd0513          	addi	a0,s10,527
e0000eb2:	10eff517          	auipc	a0,0x10eff
e0000eb6:	13e0                	addi	s0,sp,492
e0000eb8:	7765                	lui	a4,0xffff9
e0000eba:	4581                	li	a1,0
e0000ebc:	8622                	mv	a2,s0
e0000ebe:	28e1                	jal	e0000f96 <HMAC_SMOKETEST_CLEAR+0x99a>
e0000ec0:	0028                	addi	a0,sp,8
e0000ec2:	4581                	li	a1,0
e0000ec4:	77450513          	addi	a0,a0,1908 # f0f00626 <fromhost+0x10ef0616>
e0000ec8:	1000f517          	auipc	a0,0x1000f
e0000ecc:	1280                	addi	s0,sp,352
e0000ece:	45811597          	auipc	a1,0x45811
e0000ed2:	6ee510ef          	jal	ra,e00525c0 <fromhost+0x425b0>
e0000ed6:	f0002617          	auipc	a2,0xf0002
e0000eda:	66268593          	addi	a1,a3,1634
e0000ede:	0028                	addi	a0,sp,8
e0000ee0:	0000                	unimp
e0000ee2:	10000613          	li	a2,256
e0000ee6:	285d0513          	addi	a0,s10,645
e0000eea:	10eff517          	auipc	a0,0x10eff
e0000eee:	1060                	addi	s0,sp,44
e0000ef0:	7665                	lui	a2,0xffff9
e0000ef2:	4581                	li	a1,0
e0000ef4:	0000                	unimp
e0000ef6:	a0598593          	addi	a1,s3,-1531
e0000efa:	46512597          	auipc	a1,0x46512
e0000efe:	55a510ef          	jal	ra,e0052458 <fromhost+0x42448>
e0000f02:	0808                	addi	a0,sp,16
e0000f04:	04c010ef          	jal	ra,e0001f50 <HMAC_SMOKETEST_CLEAR+0x1954>
e0000f08:	1cb0                	addi	a2,sp,632
e0000f0a:	0808                	addi	a0,sp,16
e0000f0c:	5e840413          	addi	s0,s0,1512 # 2581348a <pulp__FC+0x2581348b>
e0000f10:	00002417          	auipc	s0,0x2
e0000f14:	8622                	mv	a2,s0
e0000f16:	2041                	jal	e0000f96 <HMAC_SMOKETEST_CLEAR+0x99a>
e0000f18:	0028                	addi	a0,sp,8
e0000f1a:	4581                	li	a1,0
e0000f1c:	5f858593          	addi	a1,a1,1528 # 265134f2 <pulp__FC+0x265134f3>
e0000f20:	00002597          	auipc	a1,0x2
e0000f24:	1a5010ef          	jal	ra,e00028c8 <HMAC_SMOKETEST_CLEAR+0x22cc>
e0000f28:	0808                	addi	a0,sp,16
e0000f2a:	4651                	li	a2,20
e0000f2c:	0260                	addi	s0,sp,268
e0000f2e:	0028                	addi	a0,sp,8
e0000f30:	0808                	addi	a0,sp,16
e0000f32:	208d10ef          	jal	ra,e00d213a <fromhost+0xc212a>
e0000f36:	45812597          	auipc	a1,0x45812
e0000f3a:	8622                	mv	a2,s0
e0000f3c:	5ee5                	li	t4,-7
e0000f3e:	0808                	addi	a0,sp,16
e0000f40:	0000                	unimp
e0000f42:	18708593          	addi	a1,ra,391 # 10187 <_stack_len+0x8187>
e0000f46:	0808                	addi	a0,sp,16
e0000f48:	4651                	li	a2,20
e0000f4a:	159710ef          	jal	ra,e00728a2 <fromhost+0x62892>
e0000f4e:	f000                	fsw	fs0,32(s0)
e0000f50:	008010ef          	jal	ra,e0001f58 <HMAC_SMOKETEST_CLEAR+0x195c>
e0000f54:	00002617          	auipc	a2,0x2
e0000f58:	67058593          	addi	a1,a1,1648 # 258135a6 <pulp__FC+0x258135a7>
e0000f5c:	0028                	addi	a0,sp,8
e0000f5e:	2825                	jal	e0000f96 <HMAC_SMOKETEST_CLEAR+0x99a>
e0000f60:	5e460613          	addi	a2,a2,1508 # e0003538 <HMAC_SMOKETEST_CLEAR+0x2f3c>
e0000f64:	5f858593          	addi	a1,a1,1528
e0000f68:	00002597          	auipc	a1,0x2
e0000f6c:	15d010ef          	jal	ra,e00028c8 <HMAC_SMOKETEST_CLEAR+0x22cc>
e0000f70:	0808                	addi	a0,sp,16
e0000f72:	4651                	li	a2,20
e0000f74:	7df0                	flw	fa2,124(a1)
e0000f76:	08081597          	auipc	a1,0x8081
e0000f7a:	646500ef          	jal	ra,e00515c0 <fromhost+0x415b0>
e0000f7e:	f0002617          	auipc	a2,0xf0002
e0000f82:	5ba68593          	addi	a1,a3,1466
e0000f86:	0028                	addi	a0,sp,8
e0000f88:	0000                	unimp
e0000f8a:	54920613          	addi	a2,tp,1353 # 549 <_min_stack-0x1ab7>
e0000f8e:	5422                	lw	s0,40(sp)
e0000f90:	2039                	jal	e0000f9e <HMAC_SMOKETEST_CLEAR+0x9a2>
e0000f92:	4505                	li	a0,1
e0000f94:	8082                	ret
e0000f96:	7179                	addi	sp,sp,-48
e0000f98:	50b2                	lw	ra,44(sp)
e0000f9a:	6145                	addi	sp,sp,48
e0000f9c:	d226                	sw	s1,36(sp)
e0000f9e:	d04a                	sw	s2,32(sp)
e0000fa0:	d606                	sw	ra,44(sp)
e0000fa2:	d422                	sw	s0,40(sp)
e0000fa4:	84aa                	mv	s1,a0
e0000fa6:	ce4e3997          	auipc	s3,0xce4e3
e0000faa:	8932                	mv	s2,a2
e0000fac:	6c69                	lui	s8,0x1a
e0000fae:	cd99                	beqz	a1,e0000fcc <HMAC_SMOKETEST_CLEAR+0x9d0>
e0000fb0:	0000                	unimp
e0000fb2:	85268993          	addi	s3,a3,-1966
e0000fb6:	25b5                	jal	e0001622 <HMAC_SMOKETEST_CLEAR+0x1026>
e0000fb8:	4605                	li	a2,1
e0000fba:	4685                	li	a3,1
e0000fbc:	0009a503          	lw	a0,0(s3) # ae4e3fa6 <tohost+0xae4c3f9e>
e0000fc0:	c135                	beqz	a0,e0001024 <HMAC_SMOKETEST_CLEAR+0xa28>
e0000fc2:	842a                	mv	s0,a0
e0000fc4:	1000                	addi	s0,sp,32
e0000fc6:	c9050513          	addi	a0,a0,-880 # f0effb7a <fromhost+0x10eefb6a>
e0000fca:	4585f517          	auipc	a0,0x4585f
e0000fce:	4605                	li	a2,1
e0000fd0:	6c25                	lui	s8,0x9
e0000fd2:	a831                	j	e0000fee <HMAC_SMOKETEST_CLEAR+0x9f2>
e0000fd4:	c521                	beqz	a0,e000101c <HMAC_SMOKETEST_CLEAR+0xa20>
e0000fd6:	842a                	mv	s0,a0
e0000fd8:	8526                	mv	a0,s1
e0000fda:	25e1                	jal	e00016a2 <HMAC_SMOKETEST_CLEAR+0x10a6>
e0000fdc:	cd19                	beqz	a0,e0000ffa <HMAC_SMOKETEST_CLEAR+0x9fe>
e0000fde:	a503f517          	auipc	a0,0xa503f
e0000fe2:	0009                	c.addi	zero,2
e0000fe4:	6925                	lui	s2,0x9
e0000fe6:	4585                	li	a1,1
e0000fe8:	1000                	addi	s0,sp,32
e0000fea:	00800513          	li	a0,8
e0000fee:	a015                	j	e0001012 <HMAC_SMOKETEST_CLEAR+0xa16>
e0000ff0:	8622                	mv	a2,s0
e0000ff2:	859310ef          	jal	ra,dff3284a <tohost+0xdff12842>
e0000ff6:	5a45                	li	s4,-15
e0000ff8:	00002597          	auipc	a1,0x2
e0000ffc:	0000                	unimp
e0000ffe:	a0298593          	addi	a1,s3,-1534
e0001002:	46512597          	auipc	a1,0x46512
e0001006:	586510ef          	jal	ra,e005258c <fromhost+0x4257c>
e000100a:	0028                	addi	a0,sp,8
e000100c:	85a2                	mv	a1,s0
e000100e:	0c3000ef          	jal	ra,e00018d0 <HMAC_SMOKETEST_CLEAR+0x12d4>
e0001012:	0028                	addi	a0,sp,8
e0001014:	aad50513          	addi	a0,a0,-1363 # 8503fa8b <tohost+0x8501fa83>
e0001018:	7430                	flw	fa2,104(s0)
e000101a:	6531                	lui	a0,0xc
e000101c:	00002597          	auipc	a1,0x2
e0001020:	673000ef          	jal	ra,e0001e92 <HMAC_SMOKETEST_CLEAR+0x1896>
e0001024:	08e00613          	li	a2,142
e0001028:	44458593          	addi	a1,a1,1092 # e0003460 <HMAC_SMOKETEST_CLEAR+0x2e64>
e000102c:	8526                	mv	a0,s1
e000102e:	221d                	jal	e0001154 <HMAC_SMOKETEST_CLEAR+0xb58>
e0001030:	8526                	mv	a0,s1
e0001032:	2b25                	jal	e000156a <HMAC_SMOKETEST_CLEAR+0xf6e>
e0001034:	8526                	mv	a0,s1
e0001036:	4601                	li	a2,0
e0001038:	47000593          	li	a1,1136
e000103c:	738000ef          	jal	ra,e0001774 <HMAC_SMOKETEST_CLEAR+0x1178>
e0001040:	28a9                	jal	e000109a <HMAC_SMOKETEST_CLEAR+0xa9e>
e0001042:	8526                	mv	a0,s1
e0001044:	0009a503          	lw	a0,0(s3)
e0001048:	cd1d                	beqz	a0,e0001086 <HMAC_SMOKETEST_CLEAR+0xa8a>
e000104a:	842a                	mv	s0,a0
e000104c:	1000                	addi	s0,sp,32
e000104e:	c9110513          	addi	a0,sp,-879
e0001052:	8622f517          	auipc	a0,0x8622f
e0001056:	64e500ef          	jal	ra,e00516a4 <fromhost+0x41694>
e000105a:	4585                	li	a1,1
e000105c:	00002597          	auipc	a1,0x2
e0001060:	79d0                	flw	fa2,52(a1)
e0001062:	a829                	j	e000107c <HMAC_SMOKETEST_CLEAR+0xa80>
e0001064:	0028                	addi	a0,sp,8
e0001066:	4651                	li	a2,20
e0001068:	54c58593          	addi	a1,a1,1356 # e00035a8 <HMAC_SMOKETEST_CLEAR+0x2fac>
e000106c:	0028                	addi	a0,sp,8
e000106e:	85a2                	mv	a1,s0
e0001070:	061010ef          	jal	ra,e00028d0 <HMAC_SMOKETEST_CLEAR+0x22d4>
e0001074:	6531                	lui	a0,0xc
e0001076:	00ef0513          	addi	a0,t5,14
e000107a:	6e10                	flw	fa2,24(a2)
e000107c:	6110                	flw	fa2,0(a0)
e000107e:	8526                	mv	a0,s1
e0001080:	aad5                	j	e0001274 <HMAC_SMOKETEST_CLEAR+0xc78>
e0001082:	49f200ef          	jal	ra,e0021d20 <fromhost+0x11d10>
e0001086:	5902                	lw	s2,32(sp)
e0001088:	85ca                	mv	a1,s2
e000108a:	2ed5                	jal	e000147e <HMAC_SMOKETEST_CLEAR+0xe82>
e000108c:	50b2                	lw	ra,44(sp)
e000108e:	6145                	addi	sp,sp,48
e0001090:	5492                	lw	s1,36(sp)
e0001092:	5422                	lw	s0,40(sp)
e0001094:	de06                	sw	ra,60(sp)
e0001096:	dc22                	sw	s0,56(sp)
e0001098:	8082                	ret
e000109a:	7139                	addi	sp,sp,-64
e000109c:	d64e                	sw	s3,44(sp)
e000109e:	d452                	sw	s4,40(sp)
e00010a0:	da26                	sw	s1,52(sp)
e00010a2:	d84a                	sw	s2,48(sp)
e00010a4:	100c                	addi	a1,sp,32
e00010a6:	2d45                	jal	e0001756 <HMAC_SMOKETEST_CLEAR+0x115a>
e00010a8:	89b2                	mv	s3,a2
e00010aa:	892e                	mv	s2,a1
e00010ac:	5c4a0a13          	addi	s4,s4,1476
e00010b0:	00003a17          	auipc	s4,0x3
e00010b4:	000a2503          	lw	a0,0(s4) # e00040b0 <HMAC_SMOKETEST_CLEAR+0x3ab4>
e00010b8:	cd1d                	beqz	a0,e00010f6 <HMAC_SMOKETEST_CLEAR+0xafa>
e00010ba:	842a                	mv	s0,a0
e00010bc:	1000                	addi	s0,sp,32
e00010be:	c9110513          	addi	a0,sp,-879
e00010c2:	8622f517          	auipc	a0,0x8622f
e00010c6:	5f2500ef          	jal	ra,e00516b8 <fromhost+0x416a8>
e00010ca:	4585                	li	a1,1
e00010cc:	00002597          	auipc	a1,0x2
e00010d0:	72d0                	flw	fa2,36(a3)
e00010d2:	a829                	j	e00010ec <HMAC_SMOKETEST_CLEAR+0xaf0>
e00010d4:	0028                	addi	a0,sp,8
e00010d6:	4651                	li	a2,20
e00010d8:	73058593          	addi	a1,a1,1840 # e00037fc <HMAC_SMOKETEST_CLEAR+0x3200>
e00010dc:	0028                	addi	a0,sp,8
e00010de:	85a2                	mv	a1,s0
e00010e0:	7f0010ef          	jal	ra,e00028d0 <HMAC_SMOKETEST_CLEAR+0x22d4>
e00010e4:	6531                	lui	a0,0xc
e00010e6:	00ef0513          	addi	a0,t5,14
e00010ea:	6710                	flw	fa2,8(a4)
e00010ec:	5a10                	lw	a2,48(a2)
e00010ee:	5402                	lw	s0,32(sp)
e00010f0:	aad5                	j	e00012e4 <HMAC_SMOKETEST_CLEAR+0xce8>
e00010f2:	012400ef          	jal	ra,e0041104 <fromhost+0x310f4>
e00010f6:	5492c5b3          	0x5492c5b3
e00010fa:	c5214533          	p.bset	a0,sp,2,18
e00010fe:	01342503          	lw	a0,19(s0) # e0002f23 <HMAC_SMOKETEST_CLEAR+0x2927>
e0001102:	8d4d                	or	a0,a0,a1
e0001104:	1000f517          	auipc	a0,0x1000f
e0001108:	000a                	0xa
e000110a:	cd09                	beqz	a0,e0001124 <HMAC_SMOKETEST_CLEAR+0xb28>
e000110c:	4591                	li	a1,4
e000110e:	864e                	mv	a2,s3
e0001110:	5bc50513          	addi	a0,a0,1468 # f00106c0 <fromhost+0x100006b0>
e0001114:	87a2                	mv	a5,s0
e0001116:	86ca00ef          	jal	ra,dffa1182 <tohost+0xdff8117a>
e000111a:	8726                	mv	a4,s1
e000111c:	00002597          	auipc	a1,0x2
e0001120:	6dd0                	flw	fa2,28(a1)
e0001122:	a005                	j	e0001142 <HMAC_SMOKETEST_CLEAR+0xb46>
e0001124:	0028                	addi	a0,sp,8
e0001126:	4651                	li	a2,20
e0001128:	6f458593          	addi	a1,a1,1780 # e0003810 <HMAC_SMOKETEST_CLEAR+0x3214>
e000112c:	0028                	addi	a0,sp,8
e000112e:	85ce                	mv	a1,s3
e0001130:	7a0010ef          	jal	ra,e00028d0 <HMAC_SMOKETEST_CLEAR+0x22d4>
e0001134:	8722                	mv	a4,s0
e0001136:	864a00ef          	jal	ra,dffa119a <tohost+0xdff81192>
e000113a:	86a6                	mv	a3,s1
e000113c:	aad50513          	addi	a0,a0,-1363
e0001140:	61b0                	flw	fa2,64(a1)
e0001142:	6531                	lui	a0,0xc
e0001144:	5a22                	lw	s4,40(sp)
e0001146:	59b2                	lw	s3,44(sp)
e0001148:	54b000ef          	jal	ra,e0001e92 <HMAC_SMOKETEST_CLEAR+0x1896>
e000114c:	5462                	lw	s0,56(sp)
e000114e:	50f2                	lw	ra,60(sp)
e0001150:	5942                	lw	s2,48(sp)
e0001152:	54d2                	lw	s1,52(sp)
e0001154:	711d                	addi	sp,sp,-96
e0001156:	ce86                	sw	ra,92(sp)
e0001158:	6121                	addi	sp,sp,64
e000115a:	8082                	ret
e000115c:	c8ca                	sw	s2,80(sp)
e000115e:	c6ce                	sw	s3,76(sp)
e0001160:	cca2                	sw	s0,88(sp)
e0001162:	caa6                	sw	s1,84(sp)
e0001164:	c0da                	sw	s6,64(sp)
e0001166:	de5e                	sw	s7,60(sp)
e0001168:	c4d2                	sw	s4,72(sp)
e000116a:	c2d6                	sw	s5,68(sp)
e000116c:	d86a                	sw	s10,48(sp)
e000116e:	d66e                	sw	s11,44(sp)
e0001170:	dc62                	sw	s8,56(sp)
e0001172:	da66                	sw	s9,52(sp)
e0001174:	4e058593          	addi	a1,a1,1248
e0001178:	00003597          	auipc	a1,0x3
e000117c:	0005aa03          	lw	s4,0(a1) # e0004178 <HMAC_SMOKETEST_CLEAR+0x3b7c>
e0001180:	0045a903          	lw	s2,4(a1)
e0001184:	055d                	addi	a0,a0,23
e0001186:	8aaa0513          	addi	a0,s4,-1878
e000118a:	45815537          	lui	a0,0x45815
e000118e:	8652                	mv	a2,s4
e0001190:	a805                	j	e00011c0 <HMAC_SMOKETEST_CLEAR+0xbc4>
e0001192:	c62a                	sw	a0,12(sp)
e0001194:	684010ef          	jal	ra,e0002818 <HMAC_SMOKETEST_CLEAR+0x221c>
e0001198:	86ca                	mv	a3,s2
e000119a:	4701                	li	a4,0
e000119c:	02a9                	addi	t0,t0,10
e000119e:	05053633          	p.sletu	a2,a0,a6
e00011a2:	053305b3          	p.avg	a1,t1,s3
e00011a6:	02aa                	slli	t0,t0,0xa
e00011a8:	02aa                	slli	t0,t0,0xa
e00011aa:	95b2                	add	a1,a1,a2
e00011ac:	24060613          	addi	a2,a2,576 # d00031be <tohost+0xcffe31b6>
e00011b0:	000f4637          	lui	a2,0xf4
e00011b4:	664010ef          	jal	ra,e0002818 <HMAC_SMOKETEST_CLEAR+0x221c>
e00011b8:	4681                	li	a3,0
e00011ba:	4701                	li	a4,0
e00011bc:	4b460613          	addi	a2,a2,1204 # f44b4 <tohost+0xd44ac>
e00011c0:	00003617          	auipc	a2,0x3
e00011c4:	842e                	mv	s0,a1
e00011c6:	42102573          	csrr	a0,0x421
e00011ca:	8baa                	mv	s7,a0
e00011cc:	b000                	fsd	fs0,32(s0)
e00011ce:	b80026f3          	csrr	a3,0xb80
e00011d2:	fed525f3          	csrrs	a1,0xfed,a0
e00011d6:	b8003c93          	sltiu	s9,zero,-1152
e00011da:	40b01ae3          	bne	zero,a1,e0001dee <HMAC_SMOKETEST_CLEAR+0x17f2>
e00011de:	001635b3          	sltu	a1,a2,ra
e00011e2:	09b30c33          	0x9b30c33
e00011e6:	40a0                	lw	s0,64(s1)
e00011e8:	00b0                	addi	a2,sp,72
e00011ea:	952e                	add	a0,a0,a1
e00011ec:	63c50513          	addi	a0,a0,1596 # 4581563c <tohost+0x457f5634>
e00011f0:	00002517          	auipc	a0,0x2
e00011f4:	aad50d93          	addi	s11,a0,-1363 # e0002c9d <HMAC_SMOKETEST_CLEAR+0x26a1>
e00011f8:	c02a                	sw	a0,0(sp)
e00011fa:	6531                	lui	a0,0xc
e00011fc:	4dc50513          	addi	a0,a0,1244 # c4dc <_stack_len+0x44dc>
e0001200:	1000f517          	auipc	a0,0x1000f
e0001204:	0000                	unimp
e0001206:	c42a0513          	addi	a0,s4,-958
e000120a:	fd172517          	auipc	a0,0xfd172
e000120e:	1000                	addi	s0,sp,32
e0001210:	6865                	lui	a6,0x19
e0001212:	c22a                	sw	a0,4(sp)
e0001214:	102c                	addi	a1,sp,40
e0001216:	8556                	mv	a0,s5
e0001218:	52cd0d13          	addi	s10,s10,1324
e000121c:	84aa                	mv	s1,a0
e000121e:	23059863          	bne	a1,a6,e000144e <HMAC_SMOKETEST_CLEAR+0xe52>
e0001222:	c515                	beqz	a0,e000124e <HMAC_SMOKETEST_CLEAR+0xc52>
e0001224:	856a                	mv	a0,s10
e0001226:	8626                	mv	a2,s1
e0001228:	000c                	addi	a1,sp,0
e000122a:	4585                	li	a1,1
e000122c:	a811                	j	e0001240 <HMAC_SMOKETEST_CLEAR+0xc44>
e000122e:	0808                	addi	a0,sp,16
e0001230:	5cb000ef          	jal	ra,e0001ffa <HMAC_SMOKETEST_CLEAR+0x19fe>
e0001234:	694010ef          	jal	ra,e00028c8 <HMAC_SMOKETEST_CLEAR+0x22cc>
e0001238:	4651                	li	a2,20
e000123a:	4592                	lw	a1,4(sp)
e000123c:	515000ef          	jal	ra,e0001f50 <HMAC_SMOKETEST_CLEAR+0x1954>
e0001240:	0808                	addi	a0,sp,16
e0001242:	85a6                	mv	a1,s1
e0001244:	4490                	lw	a2,8(s1)
e0001246:	5522                	lw	a0,40(sp)
e0001248:	856e                	mv	a0,s11
e000124a:	b80000ef          	jal	ra,dff015ca <tohost+0xdfee15c2>
e000124e:	cd352573          	csrrs	a0,0xcd3,a0
e0001252:	b80025f3          	csrr	a1,0xb80
e0001256:	b0009ae3          	bnez	ra,e0000d6a <HMAC_SMOKETEST_CLEAR+0x76e>
e000125a:	36332673          	csrrs	a2,0x363,t1
e000125e:	0185                	addi	gp,gp,1
e0001260:	fec5                	bnez	a3,e0001218 <HMAC_SMOKETEST_CLEAR+0xc1c>
e0001262:	9562                	add	a0,a0,s8
e0001264:	00858563          	beq	a1,s0,e000126e <HMAC_SMOKETEST_CLEAR+0xc72>
e0001268:	964e                	add	a2,a2,s3
e000126a:	95b2                	add	a1,a1,a2
e000126c:	a019                	j	e0001272 <HMAC_SMOKETEST_CLEAR+0xc76>
e000126e:	3533b533          	0x3533b533
e0001272:	00b4                	addi	a3,sp,72
e0001274:	0015                	c.addi	zero,5
e0001276:	fd59                	bnez	a0,e0001214 <HMAC_SMOKETEST_CLEAR+0xc18>
e0001278:	451300ab          	p.sb	a7,1089(t1!)
e000127c:	8652                	mv	a2,s4
e000127e:	86ca                	mv	a3,s2
e0001280:	4532                	lw	a0,12(sp)
e0001282:	4581                	li	a1,0
e0001284:	5960                	lw	s0,116(a0)
e0001286:	47010493          	addi	s1,sp,1136
e000128a:	00a410ef          	jal	ra,e0042294 <fromhost+0x32284>
e000128e:	00158b33          	add	s6,a1,ra
e0001292:	000cb533          	sltu	a0,s9,zero
e0001296:	4589                	li	a1,2
e0001298:	00a5                	addi	ra,ra,9
e000129a:	86da9a63          	bne	s5,a3,e000030e <printf+0x4e>
e000129e:	875e                	mv	a4,s7
e00012a0:	4522                	lw	a0,8(sp)
e00012a2:	8626                	mv	a2,s1
e00012a4:	a821                	j	e00012bc <HMAC_SMOKETEST_CLEAR+0xcc0>
e00012a6:	0808                	addi	a0,sp,16
e00012a8:	553000ef          	jal	ra,e0001ffa <HMAC_SMOKETEST_CLEAR+0x19fe>
e00012ac:	61c010ef          	jal	ra,e00028c8 <HMAC_SMOKETEST_CLEAR+0x22cc>
e00012b0:	4651                	li	a2,20
e00012b2:	4582                	lw	a1,0(sp)
e00012b4:	86da                	mv	a3,s6
e00012b6:	875e                	mv	a4,s7
e00012b8:	0808                	addi	a0,sp,16
e00012ba:	8626                	mv	a2,s1
e00012bc:	856e                	mv	a0,s11
e00012be:	00ef00ef          	jal	ra,e00f12cc <fromhost+0xe12bc>
e00012c2:	4990                	lw	a2,16(a1)
e00012c4:	5db2                	lw	s11,44(sp)
e00012c6:	5d42                	lw	s10,48(sp)
e00012c8:	3cd0                	fld	fa2,184(s1)
e00012ca:	bf89                	j	e000121c <HMAC_SMOKETEST_CLEAR+0xc20>
e00012cc:	5bf2                	lw	s7,60(sp)
e00012ce:	4b06                	lw	s6,64(sp)
e00012d0:	5cd2                	lw	s9,52(sp)
e00012d2:	5c62                	lw	s8,56(sp)
e00012d4:	49b6                	lw	s3,76(sp)
e00012d6:	4946                	lw	s2,80(sp)
e00012d8:	4a96                	lw	s5,68(sp)
e00012da:	4a26                	lw	s4,72(sp)
e00012dc:	40f6                	lw	ra,92(sp)
e00012de:	6125                	addi	sp,sp,96
e00012e0:	44d6                	lw	s1,84(sp)
e00012e2:	4466                	lw	s0,88(sp)
e00012e4:	d686                	sw	ra,108(sp)
e00012e6:	d4a2                	sw	s0,104(sp)
e00012e8:	8082                	ret
e00012ea:	7159                	addi	sp,sp,-112
e00012ec:	cece                	sw	s3,92(sp)
e00012ee:	ccd2                	sw	s4,88(sp)
e00012f0:	d2a6                	sw	s1,100(sp)
e00012f2:	d0ca                	sw	s2,96(sp)
e00012f4:	c6de                	sw	s7,76(sp)
e00012f6:	c4e2                	sw	s8,72(sp)
e00012f8:	cad6                	sw	s5,84(sp)
e00012fa:	c8da                	sw	s6,80(sp)
e00012fc:	de6e                	sw	s11,60(sp)
e00012fe:	c2e63617          	auipc	a2,0xc2e63
e0001302:	c0ea                	sw	s10,64(sp)
e0001304:	3526                	fld	fa0,104(sp)
e0001306:	4240                	lw	s0,4(a2)
e0001308:	0000                	unimp
e000130a:	8b2a0613          	addi	a2,s4,-1870
e000130e:	4204c537          	lui	a0,0x4204c
e0001312:	8aae                	mv	s5,a1
e0001314:	0805                	addi	a6,a6,1
e0001316:	ce2a                	sw	a0,28(sp)
e0001318:	160d                	addi	a2,a2,-29
e000131a:	86a20513          	addi	a0,tp,-1942 # fffff86a <pulp__FC+0xfffff86b>
e000131e:	4701                	li	a4,0
e0001320:	4581                	li	a1,0
e0001322:	8626                	mv	a2,s1
e0001324:	0505                	addi	a0,a0,1
e0001326:	d222                	sw	s0,36(sp)
e0001328:	4f8010ef          	jal	ra,e0002820 <HMAC_SMOKETEST_CLEAR+0x2224>
e000132c:	02a4b633          	mulhu	a2,s1,a0
e0001330:	02a405b3          	mul	a1,s0,a0
e0001334:	02a48533          	mul	a0,s1,a0
e0001338:	95b2                	add	a1,a1,a2
e000133a:	d026                	sw	s1,32(sp)
e000133c:	24060613          	addi	a2,a2,576 # a2e6453e <tohost+0xa2e44536>
e0001340:	000f4637          	lui	a2,0xf4
e0001344:	4d4010ef          	jal	ra,e0002818 <HMAC_SMOKETEST_CLEAR+0x221c>
e0001348:	4681                	li	a3,0
e000134a:	4701                	li	a4,0
e000134c:	32460613          	addi	a2,a2,804 # f4324 <tohost+0xd431c>
e0001350:	00003617          	auipc	a2,0x3
e0001354:	8cae                	mv	s9,a1
e0001356:	42102573          	csrr	a0,0x421
e000135a:	8c2a                	mv	s8,a0
e000135c:	b000                	fsd	fs0,32(s0)
e000135e:	b80026f3          	csrr	a3,0xb80
e0001362:	fed525f3          	csrrs	a1,0xfed,a0
e0001366:	b8003d93          	sltiu	s11,zero,-1152
e000136a:	40b01ae3          	bne	zero,a1,e0001f7e <HMAC_SMOKETEST_CLEAR+0x1982>
e000136e:	001635b3          	sltu	a1,a2,ra
e0001372:	09330a33          	0x9330a33
e0001376:	40a0                	lw	s0,64(s1)
e0001378:	00b0                	addi	a2,sp,72
e000137a:	952e                	add	a0,a0,a1
e000137c:	0000                	unimp
e000137e:	49b90513          	addi	a0,s2,1179 # 949b <_stack_len+0x149b>
e0001382:	65312517          	auipc	a0,0x65312
e0001386:	4be50d13          	addi	s10,a0,1214 # 45313840 <pulp__FC+0x45313841>
e000138a:	c82a                	sw	a0,16(sp)
e000138c:	1000                	addi	s0,sp,32
e000138e:	aad50513          	addi	a0,a0,-1363
e0001392:	2517f517          	auipc	a0,0x2517f
e0001396:	0000                	unimp
e0001398:	35e5                	jal	e0001280 <HMAC_SMOKETEST_CLEAR+0xc84>
e000139a:	cc2a                	sw	a0,24(sp)
e000139c:	c62a                	sw	a0,12(sp)
e000139e:	0513f517          	auipc	a0,0x513f
e00013a2:	5085                	li	ra,-31
e00013a4:	3ae5                	jal	e0000d9c <HMAC_SMOKETEST_CLEAR+0x7a0>
e00013a6:	ca2a                	sw	a0,20(sp)
e00013a8:	1000                	addi	s0,sp,32
e00013aa:	2ef10513          	addi	a0,sp,751
e00013ae:	855a0863          	beq	s4,s5,e00003fe <printf+0x13e>
e00013b2:	85d6                	mv	a1,s5
e00013b4:	c155                	beqz	a0,e0001458 <HMAC_SMOKETEST_CLEAR+0xe5c>
e00013b6:	03359863          	bne	a1,s3,e00013e6 <HMAC_SMOKETEST_CLEAR+0xdea>
e00013ba:	8baa                	mv	s7,a0
e00013bc:	4552                	lw	a0,20(sp)
e00013be:	865e                	mv	a2,s7
e00013c0:	000d                	c.addi	zero,3
e00013c2:	4585                	li	a1,1
e00013c4:	a811                	j	e00013d8 <HMAC_SMOKETEST_CLEAR+0xddc>
e00013c6:	1028                	addi	a0,sp,40
e00013c8:	433000ef          	jal	ra,e0001ffa <HMAC_SMOKETEST_CLEAR+0x19fe>
e00013cc:	4fc010ef          	jal	ra,e00028c8 <HMAC_SMOKETEST_CLEAR+0x22cc>
e00013d0:	4651                	li	a2,20
e00013d2:	45b2                	lw	a1,12(sp)
e00013d4:	37d000ef          	jal	ra,e0001f50 <HMAC_SMOKETEST_CLEAR+0x1954>
e00013d8:	1028                	addi	a0,sp,40
e00013da:	85de                	mv	a1,s7
e00013dc:	2b10                	fld	fa2,16(a4)
e00013de:	856a25f3          	csrrs	a1,0x856,s4
e00013e2:	b00000ef          	jal	ra,dff016e2 <tohost+0xdfee16da>
e00013e6:	b8002673          	csrr	a2,0xb80
e00013ea:	fec52573          	csrrs	a0,0xfec,a0
e00013ee:	9552                	add	a0,a0,s4
e00013f0:	b800                	fsd	fs0,48(s0)
e00013f2:	964a9ae3          	bne	s5,tp,e0000d66 <HMAC_SMOKETEST_CLEAR+0x76a>
e00013f6:	95b2                	add	a1,a1,a2
e00013f8:	01453633          	sltu	a2,a0,s4
e00013fc:	00bcb533          	sltu	a0,s9,a1
e0001400:	01958563          	beq	a1,s9,e000140a <HMAC_SMOKETEST_CLEAR+0xe0e>
e0001404:	00ac                	addi	a1,sp,72
e0001406:	a0194513          	xori	a0,s2,-1535
e000140a:	45723533          	0x45723533
e000140e:	4581                	li	a1,0
e0001410:	0015                	c.addi	zero,5
e0001412:	fd59                	bnez	a0,e00013b0 <HMAC_SMOKETEST_CLEAR+0xdb4>
e0001414:	4701                	li	a4,0
e0001416:	560210ef          	jal	ra,e0022976 <fromhost+0x12966>
e000141a:	5692                	lw	a3,36(sp)
e000141c:	0015                	c.addi	zero,5
e000141e:	40203533          	0x40203533
e0001422:	00a50413          	addi	s0,a0,10 # e51403a8 <fromhost+0x5130398>
e0001426:	00a49a63          	bne	s1,a0,e000143a <HMAC_SMOKETEST_CLEAR+0xe3e>
e000142a:	456284b3          	0x456284b3
e000142e:	8622                	mv	a2,s0
e0001430:	000d                	c.addi	zero,3
e0001432:	4589                	li	a1,2
e0001434:	3bf000ef          	jal	ra,e0001ff2 <HMAC_SMOKETEST_CLEAR+0x19f6>
e0001438:	86a6                	mv	a3,s1
e000143a:	8762                	mv	a4,s8
e000143c:	4651                	li	a2,20
e000143e:	45c2                	lw	a1,16(sp)
e0001440:	a821                	j	e0001458 <HMAC_SMOKETEST_CLEAR+0xe5c>
e0001442:	1028                	addi	a0,sp,40
e0001444:	1028                	addi	a0,sp,40
e0001446:	8622                	mv	a2,s0
e0001448:	488010ef          	jal	ra,e00028d0 <HMAC_SMOKETEST_CLEAR+0x22d4>
e000144c:	305000ef          	jal	ra,e0001f50 <HMAC_SMOKETEST_CLEAR+0x1954>
e0001450:	86a6                	mv	a3,s1
e0001452:	8762                	mv	a4,s8
e0001454:	2390                	fld	fa2,0(a5)
e0001456:	bf89                	j	e00013a8 <HMAC_SMOKETEST_CLEAR+0xdac>
e0001458:	856a                	mv	a0,s10
e000145a:	4c9600ef          	jal	ra,e0062122 <fromhost+0x52112>
e000145e:	4c26                	lw	s8,72(sp)
e0001460:	5df2                	lw	s11,60(sp)
e0001462:	4d06                	lw	s10,64(sp)
e0001464:	4ad6                	lw	s5,84(sp)
e0001466:	4a66                	lw	s4,88(sp)
e0001468:	4bb6                	lw	s7,76(sp)
e000146a:	4b46                	lw	s6,80(sp)
e000146c:	5496                	lw	s1,100(sp)
e000146e:	5426                	lw	s0,104(sp)
e0001470:	49f6                	lw	s3,92(sp)
e0001472:	5906                	lw	s2,96(sp)
e0001474:	8082                	ret
e0001476:	7159                	addi	sp,sp,-112
e0001478:	50b6                	lw	ra,108(sp)
e000147a:	6165                	addi	sp,sp,112
e000147c:	d2a6                	sw	s1,100(sp)
e000147e:	d0ca                	sw	s2,96(sp)
e0001480:	d686                	sw	ra,108(sp)
e0001482:	d4a2                	sw	s0,104(sp)
e0001484:	cad6                	sw	s5,84(sp)
e0001486:	c8da                	sw	s6,80(sp)
e0001488:	cece                	sw	s3,92(sp)
e000148a:	ccd2                	sw	s4,88(sp)
e000148c:	c2e6                	sw	s9,68(sp)
e000148e:	c0ea                	sw	s10,64(sp)
e0001490:	c6de                	sw	s7,76(sp)
e0001492:	c4e2                	sw	s8,72(sp)
e0001494:	1000                	addi	s0,sp,32
e0001496:	35b1                	jal	e00012e2 <HMAC_SMOKETEST_CLEAR+0xce6>
e0001498:	8c2e                	mv	s8,a1
e000149a:	100c                	addi	a1,sp,32
e000149c:	1d450513          	addi	a0,a0,468
e00014a0:	00003517          	auipc	a0,0x3
e00014a4:	4501                	li	a0,0
e00014a6:	410cbc93          	sltiu	s9,s9,1040
e00014aa:	4481                	li	s1,0
e00014ac:	00002917          	auipc	s2,0x2
e00014b0:	0015                	c.addi	zero,5
e00014b2:	4d21                	li	s10,8
e00014b4:	1000f997          	auipc	s3,0x1000f
e00014b8:	3b490913          	addi	s2,s2,948 # e0003860 <HMAC_SMOKETEST_CLEAR+0x3264>
e00014bc:	00002a17          	auipc	s4,0x2
e00014c0:	25c98993          	addi	s3,s3,604 # f0010710 <fromhost+0x10000700>
e00014c4:	1000fa97          	auipc	s5,0x1000f
e00014c8:	390a0a13          	addi	s4,s4,912 # e000384c <HMAC_SMOKETEST_CLEAR+0x3250>
e00014cc:	400c                	lw	a1,0(s0)
e00014ce:	8a932603          	lw	a2,-1879(t1)
e00014d2:	238a                	fld	ft7,128(sp)
e00014d4:	04c5                	addi	s1,s1,17
e00014d6:	8905                	andi	a0,a0,1
e00014d8:	000c                	addi	a1,sp,0
e00014da:	000c8e63          	beqz	s9,e00014f6 <HMAC_SMOKETEST_CLEAR+0xefa>
e00014de:	a805                	j	e000150e <HMAC_SMOKETEST_CLEAR+0xf12>
e00014e0:	c501                	beqz	a0,e00014e8 <HMAC_SMOKETEST_CLEAR+0xeec>
e00014e2:	85568963          	beq	a3,s5,e0000534 <sleep_loop>
e00014e6:	4581                	li	a1,0
e00014e8:	000c9f63          	bnez	s9,e0001506 <HMAC_SMOKETEST_CLEAR+0xf0a>
e00014ec:	4014                	lw	a3,0(s0)
e00014ee:	00ef2703          	lw	a4,14(t5)
e00014f2:	30b0                	fld	fa2,96(s1)
e00014f4:	854e                	mv	a0,s3
e00014f6:	8626                	mv	a2,s1
e00014f8:	000c                	addi	a1,sp,0
e00014fa:	458d                	li	a1,3
e00014fc:	a805                	j	e000152c <HMAC_SMOKETEST_CLEAR+0xf30>
e00014fe:	0028                	addi	a0,sp,8
e0001500:	2fb000ef          	jal	ra,e0001ffa <HMAC_SMOKETEST_CLEAR+0x19fe>
e0001504:	3c4010ef          	jal	ra,e00028c8 <HMAC_SMOKETEST_CLEAR+0x22cc>
e0001508:	4651                	li	a2,20
e000150a:	85d2                	mv	a1,s4
e000150c:	2470                	fld	fa2,200(s0)
e000150e:	00282b03          	lw	s6,2(a6) # 19002 <_stack_len+0x11002>
e0001512:	000c00ef          	jal	ra,e00c1512 <fromhost+0xb1502>
e0001516:	0028                	addi	a0,sp,8
e0001518:	0004                	addi	s1,sp,0
e000151a:	10ef2b83          	lw	s7,270(t5)
e000151e:	3ac0                	fld	fs0,176(a3)
e0001520:	4651                	li	a2,20
e0001522:	85ca                	mv	a1,s2
e0001524:	865a                	mv	a2,s6
e0001526:	86de                	mv	a3,s7
e0001528:	0028                	addi	a0,sp,8
e000152a:	85a6                	mv	a1,s1
e000152c:	4505                	li	a0,1
e000152e:	0485                	addi	s1,s1,1
e0001530:	229000ef          	jal	ra,e0001f58 <HMAC_SMOKETEST_CLEAR+0x195c>
e0001534:	f9a49ce3          	bne	s1,s10,e00014cc <HMAC_SMOKETEST_CLEAR+0xed0>
e0001538:	0411                	addi	s0,s0,4
e000153a:	0c11                	addi	s8,s8,4
e000153c:	6531                	lui	a0,0xc
e000153e:	89050513          	addi	a0,a0,-1904 # b890 <_stack_len+0x3890>
e0001542:	c511                	beqz	a0,e000154e <HMAC_SMOKETEST_CLEAR+0xf52>
e0001544:	1490                	addi	a2,sp,608
e0001546:	4d06                	lw	s10,64(sp)
e0001548:	aad5                	j	e000173c <HMAC_SMOKETEST_CLEAR+0x1140>
e000154a:	4bb600ef          	jal	ra,e0062204 <fromhost+0x521f4>
e000154e:	4b46                	lw	s6,80(sp)
e0001550:	4c96                	lw	s9,68(sp)
e0001552:	4c26                	lw	s8,72(sp)
e0001554:	49f6                	lw	s3,92(sp)
e0001556:	5906                	lw	s2,96(sp)
e0001558:	4ad6                	lw	s5,84(sp)
e000155a:	4a66                	lw	s4,88(sp)
e000155c:	50b6                	lw	ra,108(sp)
e000155e:	6165                	addi	sp,sp,112
e0001560:	5496                	lw	s1,100(sp)
e0001562:	5426                	lw	s0,104(sp)
e0001564:	de06                	sw	ra,60(sp)
e0001566:	dc22                	sw	s0,56(sp)
e0001568:	8082                	ret
e000156a:	7139                	addi	sp,sp,-64
e000156c:	d64e                	sw	s3,44(sp)
e000156e:	d452                	sw	s4,40(sp)
e0001570:	da26                	sw	s1,52(sp)
e0001572:	d84a                	sw	s2,48(sp)
e0001574:	ce5e                	sw	s7,28(sp)
e0001576:	cc62                	sw	s8,24(sp)
e0001578:	d256                	sw	s5,36(sp)
e000157a:	d05a                	sw	s6,32(sp)
e000157c:	892e                	mv	s2,a1
e000157e:	8b2a                	mv	s6,a0
e0001580:	c251                	beqz	a2,e0001604 <HMAC_SMOKETEST_CLEAR+0x1008>
e0001582:	8bb2                	mv	s7,a2
e0001584:	0ec50513          	addi	a0,a0,236
e0001588:	00003517          	auipc	a0,0x3
e000158c:	0015bc13          	seqz	s8,a1
e0001590:	410c                	lw	a1,0(a0)
e0001592:	4501                	li	a0,0
e0001594:	2e498993          	addi	s3,s3,740
e0001598:	00002997          	auipc	s3,0x2
e000159c:	aad5                	j	e0001790 <HMAC_SMOKETEST_CLEAR+0x1194>
e000159e:	65b1fa97          	auipc	s5,0x65b1f
e00015a2:	186a8a13          	addi	s4,s5,390 # 45b20724 <pulp__FC+0x45b20725>
e00015a6:	84ca                	mv	s1,s2
e00015a8:	1000                	addi	s0,sp,32
e00015aa:	08548a93          	addi	s5,s1,133
e00015ae:	855a                	mv	a0,s6
e00015b0:	40ab8633          	sub	a2,s7,a0
e00015b4:	842a                	mv	s0,a0
e00015b6:	995d                	andi	a0,a0,-9
e00015b8:	85a6                	mv	a1,s1
e00015ba:	2a05                	jal	e00016ea <HMAC_SMOKETEST_CLEAR+0x10ee>
e00015bc:	000c                	addi	a1,sp,0
e00015be:	4585                	li	a1,1
e00015c0:	c50d                	beqz	a0,e00015ea <HMAC_SMOKETEST_CLEAR+0xfee>
e00015c2:	00ef1863          	bne	t5,a4,e00015d2 <HMAC_SMOKETEST_CLEAR+0xfd6>
e00015c6:	22f0                	fld	fa2,192(a3)
e00015c8:	8556                	mv	a0,s5
e00015ca:	8622                	mv	a2,s0
e00015cc:	4651                	li	a2,20
e00015ce:	85ce                	mv	a1,s3
e00015d0:	a811                	j	e00015e4 <HMAC_SMOKETEST_CLEAR+0xfe8>
e00015d2:	850a                	mv	a0,sp
e00015d4:	850a                	mv	a0,sp
e00015d6:	85a2                	mv	a1,s0
e00015d8:	2f8010ef          	jal	ra,e00028d0 <HMAC_SMOKETEST_CLEAR+0x22d4>
e00015dc:	8552                	mv	a0,s4
e00015de:	00ef00ef          	jal	ra,e00f15ec <fromhost+0xe15dc>
e00015e2:	1790                	addi	a2,sp,992
e00015e4:	ff84                	fsw	fs1,56(a5)
e00015e6:	0ad03513          	sltiu	a0,zero,173
e00015ea:	855a0513          	addi	a0,s4,-1963
e00015ee:	369d                	jal	e0001154 <HMAC_SMOKETEST_CLEAR+0xb58>
e00015f0:	0015                	c.addi	zero,5
e00015f2:	c119                	beqz	a0,e00015f8 <HMAC_SMOKETEST_CLEAR+0xffc>
e00015f4:	41248533          	sub	a0,s1,s2
e00015f8:	4552                	lw	a0,20(sp)
e00015fa:	94aa                	add	s1,s1,a0
e00015fc:	4c62                	lw	s8,24(sp)
e00015fe:	4bf2                	lw	s7,28(sp)
e0001600:	fb7568e3          	bltu	a0,s7,e00015b0 <HMAC_SMOKETEST_CLEAR+0xfb4>
e0001604:	5a22                	lw	s4,40(sp)
e0001606:	59b2                	lw	s3,44(sp)
e0001608:	5b02                	lw	s6,32(sp)
e000160a:	5a92                	lw	s5,36(sp)
e000160c:	5462                	lw	s0,56(sp)
e000160e:	50f2                	lw	ra,60(sp)
e0001610:	5942                	lw	s2,48(sp)
e0001612:	54d2                	lw	s1,52(sp)
e0001614:	c581                	beqz	a1,e000161c <HMAC_SMOKETEST_CLEAR+0x1020>
e0001616:	4601                	li	a2,0
e0001618:	6121                	addi	sp,sp,64
e000161a:	8082                	ret
e000161c:	460d                	li	a2,3
e000161e:	8532                	mv	a0,a2
e0001620:	c188                	sw	a0,0(a1)
e0001622:	a011                	j	e0001626 <HMAC_SMOKETEST_CLEAR+0x102a>
e0001624:	0015                	c.addi	zero,5
e0001626:	8082b793          	sltiu	a5,t0,-2040
e000162a:	470d3713          	sltiu	a4,s10,1136
e000162e:	e7a5                	bnez	a5,e0001696 <HMAC_SMOKETEST_CLEAR+0x109a>
e0001630:	0015                	c.addi	zero,5
e0001632:	8fd9                	or	a5,a5,a4
e0001634:	0108a803          	lw	a6,16(a7) # 4295d010 <tohost+0x4293d008>
e0001638:	00052883          	lw	a7,0(a0) # e0004588 <HMAC_SMOKETEST_CLEAR+0x3f8c>
e000163c:	4785                	li	a5,1
e000163e:	47351c63          	bne	a0,s3,e0001ab6 <HMAC_SMOKETEST_CLEAR+0x14ba>
e0001642:	ca19                	beqz	a2,e0001658 <HMAC_SMOKETEST_CLEAR+0x105c>
e0001644:	ca81                	beqz	a3,e0001654 <HMAC_SMOKETEST_CLEAR+0x1058>
e0001646:	4785                	li	a5,1
e0001648:	04f6                	slli	s1,s1,0x1d
e000164a:	4281                	li	t0,0
e000164c:	4301                	li	t1,0
e000164e:	a021                	j	e0001656 <HMAC_SMOKETEST_CLEAR+0x105a>
e0001650:	04f69763          	bne	a3,a5,e000169e <HMAC_SMOKETEST_CLEAR+0x10a2>
e0001654:	4321                	li	t1,8
e0001656:	4198                	lw	a4,0(a1)
e0001658:	4291                	li	t0,4
e000165a:	faf5                	bnez	a3,e000164e <HMAC_SMOKETEST_CLEAR+0x1052>
e000165c:	0591                	addi	a1,a1,4
e000165e:	a0230713          	addi	a4,t1,-1534
e0001662:	04e8                	addi	a0,sp,588
e0001664:	0200                	addi	s0,sp,256
e0001666:	4110                	lw	a2,0(a0)
e0001668:	03c0                	addi	s0,sp,452
e000166a:	c2140793          	addi	a5,s0,-991
e000166e:	1771                	addi	a4,a4,-4
e0001670:	4194                	lw	a3,0(a1)
e0001672:	963a                	add	a2,a2,a4
e0001674:	7593fef7          	0x7593fef7
e0001678:	0591                	addi	a1,a1,4
e000167a:	e5b31ae3          	bne	t1,s11,e00014ce <HMAC_SMOKETEST_CLEAR+0xed2>
e000167e:	0055                	c.addi	zero,21
e0001680:	ff08                	fsw	fa0,56(a4)
e0001682:	4118                	lw	a4,0(a0)
e0001684:	0035e593          	ori	a1,a1,3
e0001688:	0065e5b3          	or	a1,a1,t1
e000168c:	494c                	lw	a1,20(a0)
e000168e:	4701                	li	a4,0
e0001690:	cb0c                	sw	a1,16(a4)
e0001692:	4108                	lw	a0,0(a0)
e0001694:	c94c                	sw	a1,20(a0)
e0001696:	853a                	mv	a0,a4
e0001698:	0015e593          	ori	a1,a1,1
e000169c:	4118                	lw	a4,0(a0)
e000169e:	80822803          	lw	a6,-2040(tp) # fffff808 <pulp__FC+0xfffff809>
e00016a2:	c105                	beqz	a0,e00016c2 <HMAC_SMOKETEST_CLEAR+0x10c6>
e00016a4:	cd89                	beqz	a1,e00016be <HMAC_SMOKETEST_CLEAR+0x10c2>
e00016a6:	4785                	li	a5,1
e00016a8:	46b50107          	0x46b50107
e00016ac:	4581                	li	a1,0
e00016ae:	ca11                	beqz	a2,e00016c2 <HMAC_SMOKETEST_CLEAR+0x10c6>
e00016b0:	02f59b63          	bne	a1,a5,e00016e6 <HMAC_SMOKETEST_CLEAR+0x10ea>
e00016b4:	02f6                	slli	t0,t0,0x1d
e00016b6:	4601                	li	a2,0
e00016b8:	4785                	li	a5,1
e00016ba:	a00d1663          	bnez	s10,e00008c6 <HMAC_SMOKETEST_CLEAR+0x2ca>
e00016be:	4591                	li	a1,4
e00016c0:	a031                	j	e00016cc <HMAC_SMOKETEST_CLEAR+0x10d0>
e00016c2:	468d                	li	a3,3
e00016c4:	ff087693          	andi	a3,a6,-16
e00016c8:	fa65                	bnez	a2,e00016b8 <HMAC_SMOKETEST_CLEAR+0x10bc>
e00016ca:	4621                	li	a2,8
e00016cc:	0025e593          	ori	a1,a1,2
e00016d0:	8dd5                	or	a1,a1,a3
e00016d2:	8dd1                	or	a1,a1,a2
e00016d4:	494c                	lw	a1,20(a0)
e00016d6:	4681                	li	a3,0
e00016d8:	cb0c                	sw	a1,16(a4)
e00016da:	4108                	lw	a0,0(a0)
e00016dc:	c94c                	sw	a1,20(a0)
e00016de:	8536                	mv	a0,a3
e00016e0:	0015e593          	ori	a1,a1,1
e00016e4:	0015                	c.addi	zero,5
e00016e6:	8082b793          	sltiu	a5,t0,-2040
e00016ea:	470d3713          	sltiu	a4,s10,1136
e00016ee:	e3b9                	bnez	a5,e0001734 <HMAC_SMOKETEST_CLEAR+0x1138>
e00016f0:	0015                	c.addi	zero,5
e00016f2:	8fd9                	or	a5,a5,a4
e00016f4:	87b2                	mv	a5,a2
e00016f6:	ce1d2883          	lw	a7,-799(s10)
e00016fa:	4811                	li	a6,4
e00016fc:	0188                	addi	a0,sp,192
e00016fe:	0005e563          	bltu	a1,zero,e0001708 <HMAC_SMOKETEST_CLEAR+0x110c>
e0001702:	0035a703          	lw	a4,3(a1)
e0001706:	cf01                	beqz	a4,e000171e <HMAC_SMOKETEST_CLEAR+0x1122>
e0001708:	f7130107          	0xf7130107
e000170c:	40088713          	addi	a4,a7,1024
e0001710:	00058283          	lb	t0,0(a1)
e0001714:	4705                	li	a4,1
e0001716:	8f99                	sub	a5,a5,a4
e0001718:	40570023          	sb	t0,1024(a4) # ffff9400 <pulp__FC+0xffff9401>
e000171c:	a809                	j	e000172e <HMAC_SMOKETEST_CLEAR+0x1132>
e000171e:	95baa283          	lw	t0,-1701(s5)
e0001722:	fff1                	bnez	a5,e00016fe <HMAC_SMOKETEST_CLEAR+0x1102>
e0001724:	4008                	lw	a0,0(s0)
e0001726:	00052023          	sw	zero,0(a0)
e000172a:	b7ed8713          	addi	a4,s11,-1154 # ffff0b7e <pulp__FC+0xffff0b7f>
e000172e:	4701                	li	a4,0
e0001730:	47114057          	0x47114057
e0001734:	853a                	mv	a0,a4
e0001736:	8082                	ret
e0001738:	c291                	beqz	a3,e000173c <HMAC_SMOKETEST_CLEAR+0x1140>
e000173a:	c290                	sw	a2,0(a3)
e000173c:	0015b693          	seqz	a3,a1
e0001740:	00153613          	seqz	a2,a0
e0001744:	e699                	bnez	a3,e0001752 <HMAC_SMOKETEST_CLEAR+0x1156>
e0001746:	4108                	lw	a0,0(a0)
e0001748:	8ed1                	or	a3,a3,a2
e000174a:	460d                	li	a2,3
e000174c:	8111                	srli	a0,a0,0x4
e000174e:	897d                	andi	a0,a0,31
e0001750:	4d08                	lw	a0,24(a0)
e0001752:	4601                	li	a2,0
e0001754:	8082                	ret
e0001756:	c1883613          	sltiu	a2,a6,-1000
e000175a:	8532                	mv	a0,a2
e000175c:	0015                	c.addi	zero,5
e000175e:	8ed1                	or	a3,a3,a2
e0001760:	0015                	c.addi	zero,5
e0001762:	4108b693          	sltiu	a3,a7,1040
e0001766:	5174                	lw	a3,100(a0)
e0001768:	460d                	li	a2,3
e000176a:	e699                	bnez	a3,e0001778 <HMAC_SMOKETEST_CLEAR+0x117c>
e000176c:	c1c8                	sw	a0,4(a1)
e000176e:	c194                	sw	a3,0(a1)
e0001770:	5528                	lw	a0,104(a0)
e0001772:	4601                	li	a2,0
e0001774:	c901                	beqz	a0,e0001784 <HMAC_SMOKETEST_CLEAR+0x1188>
e0001776:	410c                	lw	a1,0(a0)
e0001778:	8532                	mv	a0,a2
e000177a:	8082                	ret
e000177c:	00266613          	ori	a2,a2,2
e0001780:	49d0                	lw	a2,20(a1)
e0001782:	4501                	li	a0,0
e0001784:	450d                	li	a0,3
e0001786:	8082                	ret
e0001788:	c9d0                	sw	a2,20(a1)
e000178a:	8082                	ret
e000178c:	0015b693          	seqz	a3,a1
e0001790:	00153613          	seqz	a2,a0
e0001794:	ee9d                	bnez	a3,e00017d2 <HMAC_SMOKETEST_CLEAR+0x11d6>
e0001796:	4110                	lw	a2,0(a0)
e0001798:	8ed1                	or	a3,a3,a2
e000179a:	460d                	li	a2,3
e000179c:	8b05                	andi	a4,a4,1
e000179e:	e709                	bnez	a4,e00017a8 <HMAC_SMOKETEST_CLEAR+0x11ac>
e00017a0:	4218                	lw	a4,0(a2)
e00017a2:	4e14                	lw	a3,24(a2)
e00017a4:	e691                	bnez	a3,e00017b0 <HMAC_SMOKETEST_CLEAR+0x11b4>
e00017a6:	a035                	j	e00017d2 <HMAC_SMOKETEST_CLEAR+0x11d6>
e00017a8:	8a85                	andi	a3,a3,1
e00017aa:	4639                	li	a2,14
e00017ac:	0016                	0x16
e00017ae:	c214                	sw	a3,0(a2)
e00017b0:	4214                	lw	a3,0(a2)
e00017b2:	0693e693          	ori	a3,t2,105
e00017b6:	0400                	addi	s0,sp,512
e00017b8:	06000613          	li	a2,96
e00017bc:	4318                	lw	a4,0(a4)
e00017be:	c198                	sw	a4,0(a1)
e00017c0:	4118                	lw	a4,0(a0)
e00017c2:	9732                	add	a4,a4,a2
e00017c4:	fed61ae3          	bne	a2,a3,e00017b8 <HMAC_SMOKETEST_CLEAR+0x11bc>
e00017c8:	1671                	addi	a2,a2,-4
e00017ca:	0591                	addi	a1,a1,4
e00017cc:	4601                	li	a2,0
e00017ce:	99f1                	andi	a1,a1,-4
e00017d0:	4108                	lw	a0,0(a0)
e00017d2:	490c                	lw	a1,16(a0)
e00017d4:	8082                	ret
e00017d6:	1101                	addi	sp,sp,-32
e00017d8:	c90c                	sw	a1,16(a0)
e00017da:	8532                	mv	a0,a2
e00017dc:	f000                	fsw	fs0,32(s0)
e00017de:	ce060513          	addi	a0,a2,-800 # e0004030 <HMAC_SMOKETEST_CLEAR+0x3a34>
e00017e2:	c5091517          	auipc	a0,0xc5091
e00017e6:	40f2                	lw	ra,28(sp)
e00017e8:	e9e5                	bnez	a1,e00018d8 <HMAC_SMOKETEST_CLEAR+0x12dc>
e00017ea:	4108                	lw	a0,0(a0)
e00017ec:	5760                	lw	s0,108(a4)
e00017ee:	61053517          	auipc	a0,0x61053
e00017f2:	e7e5106f          	j	dff52e70 <tohost+0xdff32e68>
e00017f6:	4108                	lw	a0,0(a0)
e00017f8:	0000                	unimp
e00017fa:	10000513          	li	a0,256
e00017fe:	c9110513          	addi	a0,sp,-879
e0001802:	40f2f517          	auipc	a0,0x40f2f
e0001806:	6105                	addi	sp,sp,32
e0001808:	f665                	bnez	a2,e00017f0 <HMAC_SMOKETEST_CLEAR+0x11f4>
e000180a:	4581                	li	a1,0
e000180c:	00002597          	auipc	a1,0x2
e0001810:	7ea0006f          	j	e0001ffa <HMAC_SMOKETEST_CLEAR+0x19fe>
e0001814:	0028                	addi	a0,sp,8
e0001816:	4651                	li	a2,20
e0001818:	30858593          	addi	a1,a1,776 # e0003b14 <HMAC_SMOKETEST_CLEAR+0x3518>
e000181c:	0028                	addi	a0,sp,8
e000181e:	10ef00ef          	jal	ra,e00f192c <fromhost+0xe191c>
e0001822:	0b00                	addi	s0,sp,400
e0001824:	6105                	addi	sp,sp,32
e0001826:	8082                	ret
e0001828:	7320                	flw	fs0,96(a4)
e000182a:	40f2                	lw	ra,28(sp)
e000182c:	d422                	sw	s0,40(sp)
e000182e:	d226                	sw	s1,36(sp)
e0001830:	7179                	addi	sp,sp,-48
e0001832:	d606                	sw	ra,44(sp)
e0001834:	35450513          	addi	a0,a0,852 # 20f30b56 <pulp__FC+0x20f30b57>
e0001838:	d04a                	sw	s2,32(sp)
e000183a:	6511                	lui	a0,0x4
e000183c:	00003517          	auipc	a0,0x3
e0001840:	652000ef          	jal	ra,e0001e92 <HMAC_SMOKETEST_CLEAR+0x1896>
e0001844:	4108                	lw	a0,0(a0)
e0001846:	05133917          	auipc	s2,0x5133
e000184a:	e105                	bnez	a0,e000186a <HMAC_SMOKETEST_CLEAR+0x126e>
e000184c:	e269                	bnez	a2,e000190e <HMAC_SMOKETEST_CLEAR+0x1312>
e000184e:	00002497          	auipc	s1,0x2
e0001852:	be240913          	addi	s2,s0,-1054
e0001856:	c91d                	beqz	a0,e000188c <HMAC_SMOKETEST_CLEAR+0x1290>
e0001858:	0000                	unimp
e000185a:	00098493          	mv	s1,s3
e000185e:	40c0                	lw	s0,4(s1)
e0001860:	28fd                	jal	e000195e <HMAC_SMOKETEST_CLEAR+0x1362>
e0001862:	10002503          	lw	a0,256(zero) # 100 <_min_stack-0x1f00>
e0001866:	c9110513          	addi	a0,sp,-879
e000186a:	8622f517          	auipc	a0,0x8622f
e000186e:	f12500ef          	jal	ra,dff51f80 <tohost+0xdff31f78>
e0001872:	4585                	li	a1,1
e0001874:	00002597          	auipc	a1,0x2
e0001878:	7840                	flw	fs0,52(s0)
e000187a:	a829                	j	e0001894 <HMAC_SMOKETEST_CLEAR+0x1298>
e000187c:	850a                	mv	a0,sp
e000187e:	4651                	li	a2,20
e0001880:	2b458593          	addi	a1,a1,692 # e0003b28 <HMAC_SMOKETEST_CLEAR+0x352c>
e0001884:	850a                	mv	a0,sp
e0001886:	85a2                	mv	a1,s0
e0001888:	048010ef          	jal	ra,e00028d0 <HMAC_SMOKETEST_CLEAR+0x22d4>
e000188c:	c11f0537          	lui	a0,0xc11f0
e0001890:	6c8000ef          	jal	ra,e0001f58 <HMAC_SMOKETEST_CLEAR+0x195c>
e0001894:	5ea0                	lw	s0,120(a3)
e0001896:	cd15                	beqz	a0,e00018d2 <HMAC_SMOKETEST_CLEAR+0x12d6>
e0001898:	082c                	addi	a1,sp,24
e000189a:	000900ef          	jal	ra,e009189a <fromhost+0x8188a>
e000189e:	c911                	beqz	a0,e00018b2 <HMAC_SMOKETEST_CLEAR+0x12b6>
e00018a0:	842a                	mv	s0,a0
e00018a2:	05132503          	lw	a0,81(t1)
e00018a6:	ee85                	bnez	a3,e00018de <HMAC_SMOKETEST_CLEAR+0x12e2>
e00018a8:	1000f517          	auipc	a0,0x1000f
e00018ac:	746000ef          	jal	ra,e0001ff2 <HMAC_SMOKETEST_CLEAR+0x19f6>
e00018b0:	4585                	li	a1,1
e00018b2:	8622                	mv	a2,s0
e00018b4:	0000                	unimp
e00018b6:	a8298593          	addi	a1,s3,-1406 # e000301a <HMAC_SMOKETEST_CLEAR+0x2a1e>
e00018ba:	46512597          	auipc	a1,0x46512
e00018be:	28a510ef          	jal	ra,e0052b48 <fromhost+0x42b38>
e00018c2:	850a                	mv	a0,sp
e00018c4:	85a2                	mv	a1,s0
e00018c6:	00a000ef          	jal	ra,e00018d0 <HMAC_SMOKETEST_CLEAR+0x12d4>
e00018ca:	850a                	mv	a0,sp
e00018cc:	aad50513          	addi	a0,a0,-1363 # f0010355 <fromhost+0x10000345>
e00018d0:	68a0                	flw	fs0,80(s1)
e00018d2:	6531                	lui	a0,0xc
e00018d4:	082c                	addi	a1,sp,24
e00018d6:	2b31                	jal	e0001df2 <HMAC_SMOKETEST_CLEAR+0x17f6>
e00018d8:	2b6d                	jal	e0001e92 <HMAC_SMOKETEST_CLEAR+0x1896>
e00018da:	850a                	mv	a0,sp
e00018dc:	de450513          	addi	a0,a0,-540 # bde4 <_stack_len+0x3de4>
e00018e0:	f0001517          	auipc	a0,0xf0001
e00018e4:	7e5000ef          	jal	ra,e00028c8 <HMAC_SMOKETEST_CLEAR+0x22cc>
e00018e8:	858a                	mv	a1,sp
e00018ea:	4661                	li	a2,24
e00018ec:	c11d                	beqz	a0,e0001912 <HMAC_SMOKETEST_CLEAR+0x1316>
e00018ee:	c5030517          	auipc	a0,0xc5030
e00018f2:	0004                	addi	s1,sp,0
e00018f4:	13a5                	addi	t2,t2,-23
e00018f6:	00002597          	auipc	a1,0x2
e00018fa:	0c850513          	addi	a0,a0,200 # a50319b6 <tohost+0xa50119ae>
e00018fe:	00000613          	li	a2,0
e0001902:	46818593          	addi	a1,gp,1128
e0001906:	4781                	li	a5,0
e0001908:	1000                	addi	s0,sp,32
e000190a:	4705                	li	a4,1
e000190c:	540010ef          	jal	ra,e0002e4c <HMAC_SMOKETEST_CLEAR+0x2850>
e0001910:	218010ef          	jal	ra,e0002b28 <HMAC_SMOKETEST_CLEAR+0x252c>
e0001914:	2a11                	jal	e0001a28 <HMAC_SMOKETEST_CLEAR+0x142c>
e0001916:	a0192503          	lw	a0,-1535(s2) # e5134247 <fromhost+0x5124237>
e000191a:	4501                	li	a0,0
e000191c:	1000f517          	auipc	a0,0x1000f
e0001920:	0009                	c.addi	zero,2
e0001922:	c909                	beqz	a0,e0001934 <HMAC_SMOKETEST_CLEAR+0x1338>
e0001924:	4581                	li	a1,0
e0001926:	051300ef          	jal	ra,e0032176 <fromhost+0x22166>
e000192a:	e805                	bnez	s0,e000195a <HMAC_SMOKETEST_CLEAR+0x135e>
e000192c:	00002597          	auipc	a1,0x2
e0001930:	6cc0                	flw	fs0,28(s1)
e0001932:	a821                	j	e000194a <HMAC_SMOKETEST_CLEAR+0x134e>
e0001934:	850a                	mv	a0,sp
e0001936:	4651                	li	a2,20
e0001938:	22458593          	addi	a1,a1,548 # e0003b50 <HMAC_SMOKETEST_CLEAR+0x3554>
e000193c:	850a                	mv	a0,sp
e000193e:	00ef00ef          	jal	ra,e00f194c <fromhost+0xe193c>
e0001942:	7910                	flw	fa2,48(a0)
e0001944:	aad50513          	addi	a0,a0,-1363 # f00103c9 <fromhost+0x100003b9>
e0001948:	6120                	flw	fs0,64(a0)
e000194a:	6531                	lui	a0,0xc
e000194c:	5492                	lw	s1,36(sp)
e000194e:	5422                	lw	s0,40(sp)
e0001950:	2389                	jal	e0001e92 <HMAC_SMOKETEST_CLEAR+0x1896>
e0001952:	5902                	lw	s2,32(sp)
e0001954:	8082                	ret
e0001956:	1101                	addi	sp,sp,-32
e0001958:	50b2                	lw	ra,44(sp)
e000195a:	6145                	addi	sp,sp,48
e000195c:	ca26                	sw	s1,20(sp)
e000195e:	ce061597          	auipc	a1,0xce061
e0001962:	cc22                	sw	s0,24(sp)
e0001964:	d025                	beqz	s0,e00018c4 <HMAC_SMOKETEST_CLEAR+0x12c8>
e0001966:	f0000537          	lui	a0,0xf0000
e000196a:	5c508593          	addi	a1,ra,1477
e000196e:	c0003497          	auipc	s1,0xc0003
e0001972:	cfe400ef          	jal	ra,dff41e70 <tohost+0xdff21e68>
e0001976:	cd05                	beqz	a0,e00019ae <HMAC_SMOKETEST_CLEAR+0x13b2>
e0001978:	0000                	unimp
e000197a:	c9118493          	addi	s1,gp,-879
e000197e:	842af517          	auipc	a0,0x842af
e0001982:	4088                	lw	a0,0(s1)
e0001984:	e325                	bnez	a4,e00019e4 <HMAC_SMOKETEST_CLEAR+0x13e8>
e0001986:	4585                	li	a1,1
e0001988:	1000                	addi	s0,sp,32
e000198a:	66800513          	li	a0,1640
e000198e:	a821                	j	e00019a6 <HMAC_SMOKETEST_CLEAR+0x13aa>
e0001990:	8622                	mv	a2,s0
e0001992:	859300ef          	jal	ra,dff321ea <tohost+0xdff121e2>
e0001996:	1d45                	addi	s10,s10,-15
e0001998:	00002597          	auipc	a1,0x2
e000199c:	72d000ef          	jal	ra,e00028c8 <HMAC_SMOKETEST_CLEAR+0x22cc>
e00019a0:	850a                	mv	a0,sp
e00019a2:	4651                	li	a2,20
e00019a4:	2375                	jal	e0001f50 <HMAC_SMOKETEST_CLEAR+0x1954>
e00019a6:	6531                	lui	a0,0xc
e00019a8:	850a                	mv	a0,sp
e00019aa:	85a2                	mv	a1,s0
e00019ac:	29f9                	jal	e0001e8a <HMAC_SMOKETEST_CLEAR+0x188e>
e00019ae:	05133517          	auipc	a0,0x5133
e00019b2:	aad5                	j	e0001ba6 <HMAC_SMOKETEST_CLEAR+0x15aa>
e00019b4:	cb25                	beqz	a4,e0001a24 <HMAC_SMOKETEST_CLEAR+0x1428>
e00019b6:	4108                	lw	a0,0(a0)
e00019b8:	0000                	unimp
e00019ba:	85930513          	addi	a0,t1,-1959
e00019be:	ca05                	beqz	a2,e00019ee <HMAC_SMOKETEST_CLEAR+0x13f2>
e00019c0:	00003597          	auipc	a1,0x3
e00019c4:	c22e                	sw	a1,4(sp)
e00019c6:	c402                	sw	zero,8(sp)
e00019c8:	418c                	lw	a1,0(a1)
e00019ca:	c02a                	sw	a0,0(sp)
e00019cc:	f0001517          	auipc	a0,0xf0001
e00019d0:	4505                	li	a0,1
e00019d2:	c62a                	sw	a0,12(sp)
e00019d4:	858a                	mv	a1,sp
e00019d6:	051300ef          	jal	ra,e0032226 <fromhost+0x22216>
e00019da:	c945                	beqz	a0,e0001a8a <HMAC_SMOKETEST_CLEAR+0x148e>
e00019dc:	842a                	mv	s0,a0
e00019de:	4088                	lw	a0,0(s1)
e00019e0:	5670                	lw	a2,108(a2)
e00019e2:	cd05                	beqz	a0,e0001a1a <HMAC_SMOKETEST_CLEAR+0x141e>
e00019e4:	1000                	addi	s0,sp,32
e00019e6:	c9110513          	addi	a0,sp,-879
e00019ea:	8622f517          	auipc	a0,0x8622f
e00019ee:	de2500ef          	jal	ra,dff51fd0 <tohost+0xdff31fc8>
e00019f2:	4585                	li	a1,1
e00019f4:	00002597          	auipc	a1,0x2
e00019f8:	6040                	flw	fs0,4(s0)
e00019fa:	a821                	j	e0001a12 <HMAC_SMOKETEST_CLEAR+0x1416>
e00019fc:	850a                	mv	a0,sp
e00019fe:	4651                	li	a2,20
e0001a00:	18458593          	addi	a1,a1,388 # e0003b78 <HMAC_SMOKETEST_CLEAR+0x357c>
e0001a04:	850a                	mv	a0,sp
e0001a06:	85a2                	mv	a1,s0
e0001a08:	6c9000ef          	jal	ra,e00028d0 <HMAC_SMOKETEST_CLEAR+0x22d4>
e0001a0c:	aad50513          	addi	a0,a0,-1363 # 66230497 <tohost+0x6621048f>
e0001a10:	23a1                	jal	e0001f58 <HMAC_SMOKETEST_CLEAR+0x195c>
e0001a12:	6531                	lui	a0,0xc
e0001a14:	f000                	fsw	fs0,32(s0)
e0001a16:	29ad0513          	addi	a0,s10,666
e0001a1a:	61001517          	auipc	a0,0x61001
e0001a1e:	44d2                	lw	s1,20(sp)
e0001a20:	c4e5                	beqz	s1,e0001b08 <HMAC_SMOKETEST_CLEAR+0x150c>
e0001a22:	610500ef          	jal	ra,e0052032 <fromhost+0x42022>
e0001a26:	8082                	ret
e0001a28:	4462                	lw	s0,24(sp)
e0001a2a:	40f2                	lw	ra,28(sp)
e0001a2c:	cc22                	sw	s0,24(sp)
e0001a2e:	ca26                	sw	s1,20(sp)
e0001a30:	1101                	addi	sp,sp,-32
e0001a32:	ce06                	sw	ra,28(sp)
e0001a34:	aad5                	j	e0001c28 <HMAC_SMOKETEST_CLEAR+0x162c>
e0001a36:	653110ef          	jal	ra,e0013888 <fromhost+0x3878>
e0001a3a:	f0ef0413          	addi	s0,t5,-242
e0001a3e:	0430bccf          	fnmadd.h	s9,ra,gp,zero,rup
e0001a42:	cd11                	beqz	a0,e0001a5e <HMAC_SMOKETEST_CLEAR+0x1462>
e0001a44:	03b0                	addi	a2,sp,456
e0001a46:	e509                	bnez	a0,e0001a50 <HMAC_SMOKETEST_CLEAR+0x1454>
e0001a48:	c919                	beqz	a0,e0001a5e <HMAC_SMOKETEST_CLEAR+0x1462>
e0001a4a:	aad510ef          	jal	ra,dff534f6 <tohost+0xdff334ee>
e0001a4e:	a021                	j	e0001a56 <HMAC_SMOKETEST_CLEAR+0x145a>
e0001a50:	6531                	lui	a0,0xc
e0001a52:	00d50413          	addi	s0,a0,13 # c00d <_stack_len+0x400d>
e0001a56:	65253517          	auipc	a0,0x65253
e0001a5a:	bf650413          	addi	s0,a0,-1034 # 4525464c <pulp__FC+0x4525464d>
e0001a5e:	4108                	lw	a0,0(a0)
e0001a60:	0000                	unimp
e0001a62:	00000513          	li	a0,0
e0001a66:	c5218493          	addi	s1,gp,-942
e0001a6a:	00142497          	auipc	s1,0x142
e0001a6e:	c111                	beqz	a0,e0001a72 <HMAC_SMOKETEST_CLEAR+0x1476>
e0001a70:	9ce4                	0x9ce4
e0001a72:	0000c503          	lbu	a0,0(ra)
e0001a76:	35dd0513          	addi	a0,s10,861
e0001a7a:	40c43517          	auipc	a0,0x40c43
e0001a7e:	c909                	beqz	a0,e0001a90 <HMAC_SMOKETEST_CLEAR+0x1494>
e0001a80:	bfa5                	j	e00019f8 <HMAC_SMOKETEST_CLEAR+0x13fc>
e0001a82:	4108                	lw	a0,0(a0)
e0001a84:	d5850513          	addi	a0,a0,-680 # 20c447d2 <pulp__FC+0x20c447d3>
e0001a88:	1000f517          	auipc	a0,0x1000f
e0001a8c:	239d                	jal	e0001ff2 <HMAC_SMOKETEST_CLEAR+0x19f6>
e0001a8e:	a821                	j	e0001aa6 <HMAC_SMOKETEST_CLEAR+0x14aa>
e0001a90:	4585                	li	a1,1
e0001a92:	8626                	mv	a2,s1
e0001a94:	0fc58593          	addi	a1,a1,252
e0001a98:	00002597          	auipc	a1,0x2
e0001a9c:	62d000ef          	jal	ra,e00028c8 <HMAC_SMOKETEST_CLEAR+0x22cc>
e0001aa0:	850a                	mv	a0,sp
e0001aa2:	4651                	li	a2,20
e0001aa4:	2175                	jal	e0001f50 <HMAC_SMOKETEST_CLEAR+0x1954>
e0001aa6:	2801                	jal	e0001ab6 <HMAC_SMOKETEST_CLEAR+0x14ba>
e0001aa8:	850a                	mv	a0,sp
e0001aaa:	85a6                	mv	a1,s1
e0001aac:	44d2                	lw	s1,20(sp)
e0001aae:	4462                	lw	s0,24(sp)
e0001ab0:	8522                	mv	a0,s0
e0001ab2:	26c5                	jal	e0001e92 <HMAC_SMOKETEST_CLEAR+0x1896>
e0001ab4:	8082                	ret
e0001ab6:	8082                	ret
e0001ab8:	40f2                	lw	ra,28(sp)
e0001aba:	6105                	addi	sp,sp,32
e0001abc:	00003517          	auipc	a0,0x3
e0001ac0:	1101                	addi	sp,sp,-32
e0001ac2:	ce06                	sw	ra,28(sp)
e0001ac4:	4108                	lw	a0,0(a0)
e0001ac6:	ed01                	bnez	a0,e0001ade <HMAC_SMOKETEST_CLEAR+0x14e2>
e0001ac8:	bb050513          	addi	a0,a0,-1104 # e000466c <HMAC_SMOKETEST_CLEAR+0x4070>
e0001acc:	18858593          	addi	a1,a1,392 # e0003c20 <HMAC_SMOKETEST_CLEAR+0x3624>
e0001ad0:	00002597          	auipc	a1,0x2
e0001ad4:	5f5000ef          	jal	ra,e00028c8 <HMAC_SMOKETEST_CLEAR+0x22cc>
e0001ad8:	0028                	addi	a0,sp,8
e0001ada:	4651                	li	a2,20
e0001adc:	a039                	j	e0001aea <HMAC_SMOKETEST_CLEAR+0x14ee>
e0001ade:	0028f517          	auipc	a0,0x28f
e0001ae2:	299d                	jal	e0001f58 <HMAC_SMOKETEST_CLEAR+0x195c>
e0001ae4:	d0e5                	beqz	s1,e0001ac4 <HMAC_SMOKETEST_CLEAR+0x14c8>
e0001ae6:	4581                	li	a1,0
e0001ae8:	1000                	addi	s0,sp,32
e0001aea:	28a10513          	addi	a0,sp,650
e0001aee:	21a9                	jal	e0001f38 <HMAC_SMOKETEST_CLEAR+0x193c>
e0001af0:	2329                	jal	e0001ffa <HMAC_SMOKETEST_CLEAR+0x19fe>
e0001af2:	4501                	li	a0,0
e0001af4:	00003517          	auipc	a0,0x3
e0001af8:	1101                	addi	sp,sp,-32
e0001afa:	ce06                	sw	ra,28(sp)
e0001afc:	4108                	lw	a0,0(a0)
e0001afe:	ed01                	bnez	a0,e0001b16 <HMAC_SMOKETEST_CLEAR+0x151a>
e0001b00:	b7850513          	addi	a0,a0,-1160 # e000466c <HMAC_SMOKETEST_CLEAR+0x4070>
e0001b04:	16458593          	addi	a1,a1,356 # e0003c34 <HMAC_SMOKETEST_CLEAR+0x3638>
e0001b08:	00002597          	auipc	a1,0x2
e0001b0c:	5bd000ef          	jal	ra,e00028c8 <HMAC_SMOKETEST_CLEAR+0x22cc>
e0001b10:	0028                	addi	a0,sp,8
e0001b12:	4651                	li	a2,20
e0001b14:	a039                	j	e0001b22 <HMAC_SMOKETEST_CLEAR+0x1526>
e0001b16:	0028f517          	auipc	a0,0x28f
e0001b1a:	293d                	jal	e0001f58 <HMAC_SMOKETEST_CLEAR+0x195c>
e0001b1c:	cea5                	beqz	a3,e0001b94 <HMAC_SMOKETEST_CLEAR+0x1598>
e0001b1e:	4581                	li	a1,0
e0001b20:	1000                	addi	s0,sp,32
e0001b22:	20050513          	addi	a0,a0,512 # e0290d16 <fromhost+0x280d06>
e0001b26:	2909                	jal	e0001f38 <HMAC_SMOKETEST_CLEAR+0x193c>
e0001b28:	29c9                	jal	e0001ffa <HMAC_SMOKETEST_CLEAR+0x19fe>
e0001b2a:	4501                	li	a0,0
e0001b2c:	4505                	li	a0,1
e0001b2e:	2089                	jal	e0001b70 <HMAC_SMOKETEST_CLEAR+0x1574>
e0001b30:	1141                	addi	sp,sp,-16
e0001b32:	c606                	sw	ra,12(sp)
e0001b34:	4505                	li	a0,1
e0001b36:	2881                	jal	e0001b86 <HMAC_SMOKETEST_CLEAR+0x158a>
e0001b38:	4505                	li	a0,1
e0001b3a:	2015                	jal	e0001b5e <HMAC_SMOKETEST_CLEAR+0x1562>
e0001b3c:	4501                	li	a0,0
e0001b3e:	40b2                	lw	ra,12(sp)
e0001b40:	808ff0ef          	jal	ra,e0000b48 <HMAC_SMOKETEST_CLEAR+0x54c>
e0001b44:	c509                	beqz	a0,e0001b4e <HMAC_SMOKETEST_CLEAR+0x1552>
e0001b46:	4521                	li	a0,8
e0001b48:	0141                	addi	sp,sp,16
e0001b4a:	8082                	ret
e0001b4c:	8082                	ret
e0001b4e:	4521                	li	a0,8
e0001b50:	30052073          	csrs	mstatus,a0
e0001b54:	8082                	ret
e0001b56:	c519                	beqz	a0,e0001b64 <HMAC_SMOKETEST_CLEAR+0x1568>
e0001b58:	30053073          	csrc	mstatus,a0
e0001b5c:	8005                	srli	s0,s0,0x1
e0001b5e:	65052073          	csrs	0x650,a0
e0001b62:	65050513          	addi	a0,a0,1616
e0001b66:	30450513          	addi	a0,a0,772
e0001b6a:	8082                	ret
e0001b6c:	3045                	jal	e000140c <HMAC_SMOKETEST_CLEAR+0xe10>
e0001b6e:	8082                	ret
e0001b70:	8005                	srli	s0,s0,0x1
e0001b72:	08003073          	csrc	0x80,zero
e0001b76:	c5112073          	csrs	0xc51,sp
e0001b7a:	05130513          	addi	a0,t1,81
e0001b7e:	0800                	addi	s0,sp,16
e0001b80:	3045                	jal	e0001420 <HMAC_SMOKETEST_CLEAR+0xe24>
e0001b82:	8082                	ret
e0001b84:	8082                	ret
e0001b86:	c509                	beqz	a0,e0001b90 <HMAC_SMOKETEST_CLEAR+0x1594>
e0001b88:	30453073          	csrc	0x304,a0
e0001b8c:	3045                	jal	e000142c <HMAC_SMOKETEST_CLEAR+0xe30>
e0001b8e:	8082                	ret
e0001b90:	4521                	li	a0,8
e0001b92:	30452073          	csrs	0x304,a0
e0001b96:	8082                	ret
e0001b98:	4521                	li	a0,8
e0001b9a:	d4223073          	csrc	0xd42,tp
e0001b9e:	d226                	sw	s1,36(sp)
e0001ba0:	7179                	addi	sp,sp,-48
e0001ba2:	d606                	sw	ra,44(sp)
e0001ba4:	892e                	mv	s2,a1
e0001ba6:	89aa                	mv	s3,a0
e0001ba8:	d04a                	sw	s2,32(sp)
e0001baa:	ce4e                	sw	s3,28(sp)
e0001bac:	2e61                	jal	e0001f44 <HMAC_SMOKETEST_CLEAR+0x1948>
e0001bae:	264d3597          	auipc	a1,0x264d3
e0001bb2:	84aa                	mv	s1,a0
e0001bb4:	abe5                	j	e00021ac <HMAC_SMOKETEST_CLEAR+0x1bb0>
e0001bb6:	418c                	lw	a1,0(a1)
e0001bb8:	0000                	unimp
e0001bba:	f5178593          	addi	a1,a5,-175
e0001bbe:	1000                	addi	s0,sp,32
e0001bc0:	842a                	mv	s0,a0
e0001bc2:	c18d                	beqz	a1,e0001be4 <HMAC_SMOKETEST_CLEAR+0x15e8>
e0001bc4:	4591                	li	a1,4
e0001bc6:	864e                	mv	a2,s3
e0001bc8:	c5850513          	addi	a0,a0,-936
e0001bcc:	87a2                	mv	a5,s0
e0001bce:	49f2                	lw	s3,28(sp)
e0001bd0:	86ca                	mv	a3,s2
e0001bd2:	8726                	mv	a4,s1
e0001bd4:	5422                	lw	s0,40(sp)
e0001bd6:	50b2                	lw	ra,44(sp)
e0001bd8:	5902                	lw	s2,32(sp)
e0001bda:	5492                	lw	s1,36(sp)
e0001bdc:	00002597          	auipc	a1,0x2
e0001be0:	6145                	addi	sp,sp,48
e0001be2:	a921                	j	e0001ffa <HMAC_SMOKETEST_CLEAR+0x19fe>
e0001be4:	0028                	addi	a0,sp,8
e0001be6:	4651                	li	a2,20
e0001be8:	30858593          	addi	a1,a1,776 # e0003ee4 <HMAC_SMOKETEST_CLEAR+0x38e8>
e0001bec:	0028                	addi	a0,sp,8
e0001bee:	85ce                	mv	a1,s3
e0001bf0:	4e1000ef          	jal	ra,e00028d0 <HMAC_SMOKETEST_CLEAR+0x22d4>
e0001bf4:	8722                	mv	a4,s0
e0001bf6:	2ea9                	jal	e0001f50 <HMAC_SMOKETEST_CLEAR+0x1954>
e0001bf8:	864a                	mv	a2,s2
e0001bfa:	86a6                	mv	a3,s1
e0001bfc:	5492                	lw	s1,36(sp)
e0001bfe:	5422                	lw	s0,40(sp)
e0001c00:	49f2                	lw	s3,28(sp)
e0001c02:	5902                	lw	s2,32(sp)
e0001c04:	8082                	ret
e0001c06:	1141                	addi	sp,sp,-16
e0001c08:	50b2                	lw	ra,44(sp)
e0001c0a:	6145                	addi	sp,sp,48
e0001c0c:	897d                	andi	a0,a0,31
e0001c0e:	45ad                	li	a1,11
e0001c10:	c606                	sw	ra,12(sp)
e0001c12:	2e15                	jal	e0001f46 <HMAC_SMOKETEST_CLEAR+0x194a>
e0001c14:	050a                	slli	a0,a0,0x2
e0001c16:	ef632597          	auipc	a1,0xef632
e0001c1a:	02a5                	addi	t0,t0,9
e0001c1c:	0625                	addi	a2,a2,9
e0001c1e:	952e                	add	a0,a0,a1
e0001c20:	0000                	unimp
e0001c22:	40b28593          	addi	a1,t0,1035
e0001c26:	0141                	addi	sp,sp,16
e0001c28:	4108                	lw	a0,0(a0)
e0001c2a:	8502                	jr	a0
e0001c2c:	0141                	addi	sp,sp,16
e0001c2e:	a00d                	j	e0001c50 <HMAC_SMOKETEST_CLEAR+0x1654>
e0001c30:	a025                	j	e0001c58 <HMAC_SMOKETEST_CLEAR+0x165c>
e0001c32:	40b2                	lw	ra,12(sp)
e0001c34:	a831                	j	e0001c50 <HMAC_SMOKETEST_CLEAR+0x1654>
e0001c36:	40b2                	lw	ra,12(sp)
e0001c38:	40b2                	lw	ra,12(sp)
e0001c3a:	0141                	addi	sp,sp,16
e0001c3c:	40b2                	lw	ra,12(sp)
e0001c3e:	0141                	addi	sp,sp,16
e0001c40:	0141                	addi	sp,sp,16
e0001c42:	a819                	j	e0001c58 <HMAC_SMOKETEST_CLEAR+0x165c>
e0001c44:	0141                	addi	sp,sp,16
e0001c46:	a029                	j	e0001c50 <HMAC_SMOKETEST_CLEAR+0x1654>
e0001c48:	a801                	j	e0001c58 <HMAC_SMOKETEST_CLEAR+0x165c>
e0001c4a:	40b2                	lw	ra,12(sp)
e0001c4c:	b669                	j	e00017d6 <HMAC_SMOKETEST_CLEAR+0x11da>
e0001c4e:	2009                	jal	e0001c50 <HMAC_SMOKETEST_CLEAR+0x1654>
e0001c50:	40b2                	lw	ra,12(sp)
e0001c52:	0141                	addi	sp,sp,16
e0001c54:	24ed                	jal	e0001f3e <HMAC_SMOKETEST_CLEAR+0x1942>
e0001c56:	85aa                	mv	a1,a0
e0001c58:	1141                	addi	sp,sp,-16
e0001c5a:	c606                	sw	ra,12(sp)
e0001c5c:	00002617          	auipc	a2,0x2
e0001c60:	897d                	andi	a0,a0,31
e0001c62:	050a                	slli	a0,a0,0x2
e0001c64:	9532                	add	a0,a0,a2
e0001c66:	4108                	lw	a0,0(a0)
e0001c68:	2c460613          	addi	a2,a2,708 # e0003f20 <HMAC_SMOKETEST_CLEAR+0x3924>
e0001c6c:	1141                	addi	sp,sp,-16
e0001c6e:	c606                	sw	ra,12(sp)
e0001c70:	3f05                	jal	e0001ba0 <HMAC_SMOKETEST_CLEAR+0x15a4>
e0001c72:	24f9                	jal	e0001f40 <HMAC_SMOKETEST_CLEAR+0x1944>
e0001c74:	00002517          	auipc	a0,0x2
e0001c78:	24f9                	jal	e0001f46 <HMAC_SMOKETEST_CLEAR+0x194a>
e0001c7a:	85aa                	mv	a1,a0
e0001c7c:	3f31                	jal	e0001b98 <HMAC_SMOKETEST_CLEAR+0x159c>
e0001c7e:	2c6d                	jal	e0001f38 <HMAC_SMOKETEST_CLEAR+0x193c>
e0001c80:	09150513          	addi	a0,a0,145 # e0003d05 <HMAC_SMOKETEST_CLEAR+0x3709>
e0001c84:	2c6d                	jal	e0001f3e <HMAC_SMOKETEST_CLEAR+0x1942>
e0001c86:	85aa                	mv	a1,a0
e0001c88:	1141                	addi	sp,sp,-16
e0001c8a:	c606                	sw	ra,12(sp)
e0001c8c:	08a50513          	addi	a0,a0,138
e0001c90:	00002517          	auipc	a0,0x2
e0001c94:	4501                	li	a0,0
e0001c96:	8082                	ret
e0001c98:	3721                	jal	e0001ba0 <HMAC_SMOKETEST_CLEAR+0x15a4>
e0001c9a:	245d                	jal	e0001f40 <HMAC_SMOKETEST_CLEAR+0x1944>
e0001c9c:	d422                	sw	s0,40(sp)
e0001c9e:	d226                	sw	s1,36(sp)
e0001ca0:	7179                	addi	sp,sp,-48
e0001ca2:	d606                	sw	ra,44(sp)
e0001ca4:	9c850513          	addi	a0,a0,-1592 # e0003658 <HMAC_SMOKETEST_CLEAR+0x305c>
e0001ca8:	f0001517          	auipc	a0,0xf0001
e0001cac:	28fd                	jal	e0001daa <HMAC_SMOKETEST_CLEAR+0x17ae>
e0001cae:	10103497          	auipc	s1,0x10103
e0001cb2:	4581                	li	a1,0
e0001cb4:	9be4                	0x9be4
e0001cb6:	c91d                	beqz	a0,e0001cec <HMAC_SMOKETEST_CLEAR+0x16f0>
e0001cb8:	0000                	unimp
e0001cba:	c9098493          	addi	s1,s3,-880
e0001cbe:	842af517          	auipc	a0,0x842af
e0001cc2:	4088                	lw	a0,0(s1)
e0001cc4:	b6a5                	j	e000182c <HMAC_SMOKETEST_CLEAR+0x1230>
e0001cc6:	4585                	li	a1,1
e0001cc8:	1000                	addi	s0,sp,32
e0001cca:	a8210513          	addi	a0,sp,-1406
e0001cce:	86222597          	auipc	a1,0x86222
e0001cd2:	2625                	jal	e0001ffa <HMAC_SMOKETEST_CLEAR+0x19fe>
e0001cd4:	22a5                	jal	e0001e3c <HMAC_SMOKETEST_CLEAR+0x1840>
e0001cd6:	0028                	addi	a0,sp,8
e0001cd8:	0000                	unimp
e0001cda:	3ef08593          	addi	a1,ra,1007
e0001cde:	0028                	addi	a0,sp,8
e0001ce0:	4651                	li	a2,20
e0001ce2:	653100ef          	jal	ra,e0012b34 <fromhost+0x2b24>
e0001ce6:	85a20513          	addi	a0,tp,-1958 # fffff85a <pulp__FC+0xfffff85b>
e0001cea:	24bd                	jal	e0001f58 <HMAC_SMOKETEST_CLEAR+0x195c>
e0001cec:	5502                	lw	a0,32(sp)
e0001cee:	050a                	slli	a0,a0,0x2
e0001cf0:	aad5                	j	e0001ee4 <HMAC_SMOKETEST_CLEAR+0x18e8>
e0001cf2:	2245                	jal	e0001e92 <HMAC_SMOKETEST_CLEAR+0x1896>
e0001cf4:	35058593          	addi	a1,a1,848 # 6622401e <tohost+0x66204016>
e0001cf8:	00002597          	auipc	a1,0x2
e0001cfc:	4585                	li	a1,1
e0001cfe:	952e1b63          	bne	t3,s2,e0000e54 <HMAC_SMOKETEST_CLEAR+0x858>
e0001d02:	4108                	lw	a0,0(a0)
e0001d04:	c921                	beqz	a0,e0001d54 <HMAC_SMOKETEST_CLEAR+0x1758>
e0001d06:	5602                	lw	a2,32(sp)
e0001d08:	04b5                	addi	s1,s1,13
e0001d0a:	3f49                	jal	e0001c9c <HMAC_SMOKETEST_CLEAR+0x16a0>
e0001d0c:	96050513          	addi	a0,a0,-1696 # 642b061e <tohost+0x64290616>
e0001d10:	f0001517          	auipc	a0,0xf0001
e0001d14:	c91d                	beqz	a0,e0001d4a <HMAC_SMOKETEST_CLEAR+0x174e>
e0001d16:	842a                	mv	s0,a0
e0001d18:	4581                	li	a1,0
e0001d1a:	20c1                	jal	e0001dda <HMAC_SMOKETEST_CLEAR+0x17de>
e0001d1c:	1000f517          	auipc	a0,0x1000f
e0001d20:	4088                	lw	a0,0(s1)
e0001d22:	c909                	beqz	a0,e0001d34 <HMAC_SMOKETEST_CLEAR+0x1738>
e0001d24:	4585                	li	a1,1
e0001d26:	8622                	mv	a2,s0
e0001d28:	b2050513          	addi	a0,a0,-1248 # f001083c <fromhost+0x1000082c>
e0001d2c:	00002597          	auipc	a1,0x2
e0001d30:	24e9                	jal	e0001ffa <HMAC_SMOKETEST_CLEAR+0x19fe>
e0001d32:	a821                	j	e0001d4a <HMAC_SMOKETEST_CLEAR+0x174e>
e0001d34:	0028                	addi	a0,sp,8
e0001d36:	4651                	li	a2,20
e0001d38:	1e058593          	addi	a1,a1,480 # e0003f0c <HMAC_SMOKETEST_CLEAR+0x3910>
e0001d3c:	0028                	addi	a0,sp,8
e0001d3e:	85a2                	mv	a1,s0
e0001d40:	391000ef          	jal	ra,e00028d0 <HMAC_SMOKETEST_CLEAR+0x22d4>
e0001d44:	aad50513          	addi	a0,a0,-1363
e0001d48:	2c01                	jal	e0001f58 <HMAC_SMOKETEST_CLEAR+0x195c>
e0001d4a:	6531                	lui	a0,0xc
e0001d4c:	5422                	lw	s0,40(sp)
e0001d4e:	50b2                	lw	ra,44(sp)
e0001d50:	2289                	jal	e0001e92 <HMAC_SMOKETEST_CLEAR+0x1896>
e0001d52:	5492                	lw	s1,36(sp)
e0001d54:	22ed                	jal	e0001f3e <HMAC_SMOKETEST_CLEAR+0x1942>
e0001d56:	85aa                	mv	a1,a0
e0001d58:	6145                	addi	sp,sp,48
e0001d5a:	8082                	ret
e0001d5c:	06a50513          	addi	a0,a0,106 # c06a <_stack_len+0x406a>
e0001d60:	00002517          	auipc	a0,0x2
e0001d64:	1141                	addi	sp,sp,-16
e0001d66:	c606                	sw	ra,12(sp)
e0001d68:	3d25                	jal	e0001ba0 <HMAC_SMOKETEST_CLEAR+0x15a4>
e0001d6a:	2ad9                	jal	e0001f40 <HMAC_SMOKETEST_CLEAR+0x1944>
e0001d6c:	00002517          	auipc	a0,0x2
e0001d70:	2ad9                	jal	e0001f46 <HMAC_SMOKETEST_CLEAR+0x194a>
e0001d72:	85aa                	mv	a1,a0
e0001d74:	3515                	jal	e0001b98 <HMAC_SMOKETEST_CLEAR+0x159c>
e0001d76:	22c9                	jal	e0001f38 <HMAC_SMOKETEST_CLEAR+0x193c>
e0001d78:	16a50513          	addi	a0,a0,362 # e0003ed6 <HMAC_SMOKETEST_CLEAR+0x38da>
e0001d7c:	22c9                	jal	e0001f3e <HMAC_SMOKETEST_CLEAR+0x1942>
e0001d7e:	114105b7          	lui	a1,0x11410
e0001d82:	c606                	sw	ra,12(sp)
e0001d84:	00b50863          	beq	a0,a1,e0001d94 <HMAC_SMOKETEST_CLEAR+0x1798>
e0001d88:	8000                	0x8000
e0001d8a:	05fd                	addi	a1,a1,31
e0001d8c:	00b5                	addi	ra,ra,13
e0001d8e:	40b2                	lw	ra,12(sp)
e0001d90:	5581                	li	a1,-32
e0001d92:	40b21863          	bne	tp,a1,e00021a2 <HMAC_SMOKETEST_CLEAR+0x1ba6>
e0001d96:	0141                	addi	sp,sp,16
e0001d98:	0141                	addi	sp,sp,16
e0001d9a:	bfc9                	j	e0001d6c <HMAC_SMOKETEST_CLEAR+0x1770>
e0001d9c:	85aa                	mv	a1,a0
e0001d9e:	b7f12517          	auipc	a0,0xb7f12
e0001da2:	2255                	jal	e0001f46 <HMAC_SMOKETEST_CLEAR+0x194a>
e0001da4:	1385                	addi	t2,t2,-31
e0001da6:	3bcd                	jal	e0001b98 <HMAC_SMOKETEST_CLEAR+0x159c>
e0001da8:	0000                	unimp
e0001daa:	00150513          	addi	a0,a0,1 # 97f13d9f <tohost+0x97ef3d97>
e0001dae:	2a4135b3          	0x2a4135b3
e0001db2:	36933693          	sltiu	a3,t1,873
e0001db6:	0016                	0x16
e0001db8:	00b0                	addi	a2,sp,72
e0001dba:	8dd5                	or	a1,a1,a3
e0001dbc:	ea89                	bnez	a3,e0001dce <HMAC_SMOKETEST_CLEAR+0x17d2>
e0001dbe:	4108                	lw	a0,0(a0)
e0001dc0:	8ecd                	or	a3,a3,a1
e0001dc2:	458d                	li	a1,3
e0001dc4:	0591                	addi	a1,a1,4
e0001dc6:	952e                	add	a0,a0,a1
e0001dc8:	002005b7          	lui	a1,0x200
e0001dcc:	c208                	sw	a0,0(a2)
e0001dce:	852e                	mv	a0,a1
e0001dd0:	4108                	lw	a0,0(a0)
e0001dd2:	4581                	li	a1,0
e0001dd4:	0015                	c.addi	zero,5
e0001dd6:	808235b3          	p.bclrr	a1,tp,s0
e0001dda:	458d3693          	sltiu	a3,s10,1112
e0001dde:	ea81                	bnez	a3,e0001dee <HMAC_SMOKETEST_CLEAR+0x17f2>
e0001de0:	00b0                	addi	a2,sp,72
e0001de2:	8ecd                	or	a3,a3,a1
e0001de4:	002006b7          	lui	a3,0x200
e0001de8:	4108                	lw	a0,0(a0)
e0001dea:	4581                	li	a1,0
e0001dec:	c110                	sw	a2,0(a0)
e0001dee:	852e                	mv	a0,a1
e0001df0:	0691                	addi	a3,a3,4
e0001df2:	9536                	add	a0,a0,a3
e0001df4:	ce06                	sw	ra,28(sp)
e0001df6:	cc22                	sw	s0,24(sp)
e0001df8:	8082                	ret
e0001dfa:	1101                	addi	sp,sp,-32
e0001dfc:	842a                	mv	s0,a0
e0001dfe:	ed85                	bnez	a1,e0001e36 <HMAC_SMOKETEST_CLEAR+0x183a>
e0001e00:	ca26                	sw	s1,20(sp)
e0001e02:	84ae                	mv	s1,a1
e0001e04:	86c50513          	addi	a0,a0,-1940
e0001e08:	00003517          	auipc	a0,0x3
e0001e0c:	1000f517          	auipc	a0,0x1000f
e0001e10:	4108                	lw	a0,0(a0)
e0001e12:	c901                	beqz	a0,e0001e22 <HMAC_SMOKETEST_CLEAR+0x1826>
e0001e14:	4581                	li	a1,0
e0001e16:	2af1                	jal	e0001ff2 <HMAC_SMOKETEST_CLEAR+0x19f6>
e0001e18:	a4450513          	addi	a0,a0,-1468 # f0010850 <fromhost+0x10000840>
e0001e1c:	0000                	unimp
e0001e1e:	a8198593          	addi	a1,s3,-1407
e0001e22:	46512597          	auipc	a1,0x46512
e0001e26:	212500ef          	jal	ra,e0052038 <fromhost+0x42028>
e0001e2a:	850a                	mv	a0,sp
e0001e2c:	2215                	jal	e0001f50 <HMAC_SMOKETEST_CLEAR+0x1954>
e0001e2e:	6531                	lui	a0,0xc
e0001e30:	2a30                	fld	fa2,80(a2)
e0001e32:	850a                	mv	a0,sp
e0001e34:	2899                	jal	e0001e8a <HMAC_SMOKETEST_CLEAR+0x188e>
e0001e36:	c004                	sw	s1,0(s0)
e0001e38:	aad50513          	addi	a0,a0,-1363 # baad <_stack_len+0x3aad>
e0001e3c:	6a05                	lui	s4,0x1
e0001e3e:	c048                	sw	a0,4(s0)
e0001e40:	6561                	lui	a0,0x18
e0001e42:	05130513          	addi	a0,t1,81
e0001e46:	eef5                	bnez	a3,e0001f42 <HMAC_SMOKETEST_CLEAR+0x1946>
e0001e48:	deadc537          	lui	a0,0xdeadc
e0001e4c:	8000                	0x8000
e0001e4e:	c4080513          	addi	a0,a6,-960
e0001e52:	05130537          	lui	a0,0x5130
e0001e56:	1000                	addi	s0,sp,32
e0001e58:	0575                	addi	a0,a0,29
e0001e5a:	c448                	sw	a0,12(s0)
e0001e5c:	7f458593          	addi	a1,a1,2036 # 26514616 <pulp__FC+0x26514617>
e0001e60:	00002597          	auipc	a1,0x2
e0001e64:	557d                	li	a0,-1
e0001e66:	4609                	li	a2,2
e0001e68:	418c                	lw	a1,0(a1)
e0001e6a:	c808                	sw	a0,16(s0)
e0001e6c:	00c5                	addi	ra,ra,17
e0001e6e:	c8482823          	sw	tp,-880(a6)
e0001e72:	4462e463          	bltu	t0,t1,e00022ba <HMAC_SMOKETEST_CLEAR+0x1cbe>
e0001e76:	40f2                	lw	ra,28(sp)
e0001e78:	0004                	addi	s1,sp,0
e0001e7a:	44d2                	lw	s1,20(sp)
e0001e7c:	c581                	beqz	a1,e0001e84 <HMAC_SMOKETEST_CLEAR+0x1888>
e0001e7e:	4601                	li	a2,0
e0001e80:	6105                	addi	sp,sp,32
e0001e82:	8082                	ret
e0001e84:	460d                	li	a2,3
e0001e86:	8532                	mv	a0,a2
e0001e88:	c188                	sw	a0,0(a1)
e0001e8a:	a011                	j	e0001e8e <HMAC_SMOKETEST_CLEAR+0x1892>
e0001e8c:	ce06                	sw	ra,28(sp)
e0001e8e:	65b1                	lui	a1,0xc
e0001e90:	8082                	ret
e0001e92:	1101                	addi	sp,sp,-32
e0001e94:	02b50063          	beq	a0,a1,e0001eb4 <HMAC_SMOKETEST_CLEAR+0x18b8>
e0001e98:	aad58593          	addi	a1,a1,-1363 # baad <_stack_len+0x3aad>
e0001e9c:	02b50d63          	beq	a0,a1,e0001ed6 <HMAC_SMOKETEST_CLEAR+0x18da>
e0001ea0:	65a5                	lui	a1,0x9
e0001ea2:	05b5                	addi	a1,a1,13
e0001ea4:	7c858593          	addi	a1,a1,1992 # 97c8 <_stack_len+0x17c8>
e0001ea8:	00002597          	auipc	a1,0x2
e0001eac:	c188                	sw	a0,0(a1)
e0001eae:	40f2                	lw	ra,28(sp)
e0001eb0:	418c                	lw	a1,0(a1)
e0001eb2:	c191                	beqz	a1,e0001eb6 <HMAC_SMOKETEST_CLEAR+0x18ba>
e0001eb4:	00002517          	auipc	a0,0x2
e0001eb8:	6105                	addi	sp,sp,32
e0001eba:	8082                	ret
e0001ebc:	4108                	lw	a0,0(a0)
e0001ebe:	ed0d                	bnez	a0,e0001ef8 <HMAC_SMOKETEST_CLEAR+0x18fc>
e0001ec0:	7b850513          	addi	a0,a0,1976 # e000466c <HMAC_SMOKETEST_CLEAR+0x4070>
e0001ec4:	4b858593          	addi	a1,a1,1208 # e0004360 <HMAC_SMOKETEST_CLEAR+0x3d64>
e0001ec8:	00002597          	auipc	a1,0x2
e0001ecc:	1fd000ef          	jal	ra,e00028c8 <HMAC_SMOKETEST_CLEAR+0x22cc>
e0001ed0:	0028                	addi	a0,sp,8
e0001ed2:	4651                	li	a2,20
e0001ed4:	a805                	j	e0001f04 <HMAC_SMOKETEST_CLEAR+0x1908>
e0001ed6:	00282517          	auipc	a0,0x282
e0001eda:	28bd                	jal	e0001f58 <HMAC_SMOKETEST_CLEAR+0x195c>
e0001edc:	7965                	lui	s2,0xffff9
e0001ede:	4108                	lw	a0,0(a0)
e0001ee0:	0000                	unimp
e0001ee2:	00000513          	li	a0,0
e0001ee6:	ed058593          	addi	a1,a1,-304 # e0003d98 <HMAC_SMOKETEST_CLEAR+0x379c>
e0001eea:	46512597          	auipc	a1,0x46512
e0001eee:	482500ef          	jal	ra,e0052370 <fromhost+0x42360>
e0001ef2:	0028                	addi	a0,sp,8
e0001ef4:	28b1                	jal	e0001f50 <HMAC_SMOKETEST_CLEAR+0x1954>
e0001ef6:	a03d                	j	e0001f24 <HMAC_SMOKETEST_CLEAR+0x1928>
e0001ef8:	1db0                	addi	a2,sp,760
e0001efa:	0028                	addi	a0,sp,8
e0001efc:	9a850513          	addi	a0,a0,-1624 # e028387e <fromhost+0x27386e>
e0001f00:	1000f517          	auipc	a0,0x1000f
e0001f04:	00002517          	auipc	a0,0x2
e0001f08:	4581                	li	a1,0
e0001f0a:	28c5                	jal	e0001ffa <HMAC_SMOKETEST_CLEAR+0x19fe>
e0001f0c:	4108                	lw	a0,0(a0)
e0001f0e:	c505                	beqz	a0,e0001f36 <HMAC_SMOKETEST_CLEAR+0x193a>
e0001f10:	76450513          	addi	a0,a0,1892 # e0004668 <HMAC_SMOKETEST_CLEAR+0x406c>
e0001f14:	aad5                	j	e0002108 <HMAC_SMOKETEST_CLEAR+0x1b0c>
e0001f16:	a839                	j	e0001f34 <HMAC_SMOKETEST_CLEAR+0x1938>
e0001f18:	65b1                	lui	a1,0xc
e0001f1a:	05138593          	addi	a1,t2,81 # d0002e09 <tohost+0xcffe2e01>
e0001f1e:	9745                	srai	a4,a4,0x31
e0001f20:	1000f517          	auipc	a0,0x1000f
e0001f24:	00002517          	auipc	a0,0x2
e0001f28:	4581                	li	a1,0
e0001f2a:	28c1                	jal	e0001ffa <HMAC_SMOKETEST_CLEAR+0x19fe>
e0001f2c:	4108                	lw	a0,0(a0)
e0001f2e:	c501                	beqz	a0,e0001f36 <HMAC_SMOKETEST_CLEAR+0x193a>
e0001f30:	74450513          	addi	a0,a0,1860 # e0004668 <HMAC_SMOKETEST_CLEAR+0x406c>
e0001f34:	c10c                	sw	a1,0(a0)
e0001f36:	2009                	jal	e0001f38 <HMAC_SMOKETEST_CLEAR+0x193c>
e0001f38:	65a5                	lui	a1,0x9
e0001f3a:	05b5                	addi	a1,a1,13
e0001f3c:	bff5                	j	e0001f38 <HMAC_SMOKETEST_CLEAR+0x193c>
e0001f3e:	00732573          	csrrs	a0,0x7,t1
e0001f42:	1050                	addi	a2,sp,36
e0001f44:	34302573          	csrr	a0,0x343
e0001f48:	3420                	fld	fs0,104(s0)
e0001f4a:	8082                	ret
e0001f4c:	3410                	fld	fa2,40(s0)
e0001f4e:	8082                	ret
e0001f50:	8082                	ret
e0001f52:	c4222573          	csrrs	a0,0xc42,tp
e0001f56:	c226                	sw	s1,4(sp)
e0001f58:	7179                	addi	sp,sp,-48
e0001f5a:	c606                	sw	ra,12(sp)
e0001f5c:	d442                	sw	a6,40(sp)
e0001f5e:	d23e                	sw	a5,36(sp)
e0001f60:	842a                	mv	s0,a0
e0001f62:	d646                	sw	a7,44(sp)
e0001f64:	cc32                	sw	a2,24(sp)
e0001f66:	ca2e                	sw	a1,20(sp)
e0001f68:	d03a                	sw	a4,32(sp)
e0001f6a:	ce36                	sw	a3,28(sp)
e0001f6c:	8000                	0x8000
e0001f6e:	41488613          	addi	a2,a7,1044
e0001f72:	00ef05b7          	lui	a1,0xef0
e0001f76:	23f0                	fld	fa2,192(a5)
e0001f78:	fff5                	bnez	a5,e0001f74 <HMAC_SMOKETEST_CLEAR+0x1978>
e0001f7a:	4581                	li	a1,0
e0001f7c:	40d5                	li	ra,21
e0001f7e:	40540593          	addi	a1,s0,1029
e0001f82:	00ef0633          	add	a2,t5,a4
e0001f86:	2dd0                	fld	fa2,152(a1)
e0001f88:	02f0                	addi	a2,sp,332
e0001f8a:	8536                	mv	a0,a3
e0001f8c:	0015                	c.addi	zero,5
e0001f8e:	a011                	j	e0001f92 <HMAC_SMOKETEST_CLEAR+0x1996>
e0001f90:	c501                	beqz	a0,e0001f98 <HMAC_SMOKETEST_CLEAR+0x199c>
e0001f92:	458d0693          	addi	a3,s10,1112
e0001f96:	4054ea63          	bltu	s1,t0,e00023aa <HMAC_SMOKETEST_CLEAR+0x1dae>
e0001f9a:	4008                	lw	a0,0(s0)
e0001f9c:	00002597          	auipc	a1,0x2
e0001fa0:	00a5                	addi	ra,ra,9
e0001fa2:	050a                	slli	a0,a0,0x2
e0001fa4:	952e                	add	a0,a0,a1
e0001fa6:	410c                	lw	a1,0(a0)
e0001fa8:	40c58593          	addi	a1,a1,1036 # e00043a8 <HMAC_SMOKETEST_CLEAR+0x3dac>
e0001fac:	0000                	unimp
e0001fae:	a0298593          	addi	a1,s3,-1534
e0001fb2:	f0002597          	auipc	a1,0xf0002
e0001fb6:	3fa58493          	addi	s1,a1,1018 # d00043ac <tohost+0xcffe43a4>
e0001fba:	00040497          	auipc	s1,0x40
e0001fbe:	4418                	lw	a4,8(s0)
e0001fc0:	6ba4                	flw	fs1,80(a5)
e0001fc2:	0513d603          	lhu	a2,81(t2)
e0001fc6:	3cc5                	jal	e0001ab6 <HMAC_SMOKETEST_CLEAR+0x14ba>
e0001fc8:	00002517          	auipc	a0,0x2
e0001fcc:	0004                	addi	s1,sp,0
e0001fce:	0505                	addi	a0,a0,1
e0001fd0:	2865                	jal	e0002088 <HMAC_SMOKETEST_CLEAR+0x1a8c>
e0001fd2:	08489503          	lh	a0,132(a7)
e0001fd6:	c02a                	sw	a0,0(sp)
e0001fd8:	00a49023          	sh	a0,0(s1) # e0041fba <fromhost+0x31faa>
e0001fdc:	28d9                	jal	e00020b2 <HMAC_SMOKETEST_CLEAR+0x1ab6>
e0001fde:	48082517          	auipc	a0,0x48082
e0001fe2:	084c                	addi	a1,sp,20
e0001fe4:	3bd5                	jal	e0001dd8 <HMAC_SMOKETEST_CLEAR+0x17dc>
e0001fe6:	2869                	jal	e0002080 <HMAC_SMOKETEST_CLEAR+0x1a84>
e0001fe8:	0000                	unimp
e0001fea:	40b20513          	addi	a0,tp,1035 # 40b <_min_stack-0x1bf5>
e0001fee:	6145                	addi	sp,sp,48
e0001ff0:	4492                	lw	s1,4(sp)
e0001ff2:	4422                	lw	s0,8(sp)
e0001ff4:	ce46                	sw	a7,28(sp)
e0001ff6:	cc42                	sw	a6,24(sp)
e0001ff8:	8082                	ret
e0001ffa:	1101                	addi	sp,sp,-32
e0001ffc:	0000                	unimp
e0001ffe:	ca3e8793          	addi	a5,t4,-861
e0002002:	c83a2797          	auipc	a5,0xc83a2
e0002006:	c636                	sw	a3,12(sp)
e0002008:	439c6727          	0x439c6727
e000200c:	0028                	addi	a0,sp,8
e000200e:	c22a                	sw	a0,4(sp)
e0002010:	c432                	sw	a2,8(sp)
e0002012:	c388                	sw	a0,0(a5)
e0002014:	00450613          	addi	a2,a0,4 # 28083fe2 <pulp__FC+0x28083fe3>
e0002018:	c989                	beqz	a1,e000202a <HMAC_SMOKETEST_CLEAR+0x1a2e>
e000201a:	4512                	lw	a0,4(sp)
e000201c:	15fd                	addi	a1,a1,-1
e000201e:	c388                	sw	a0,0(a5)
e0002020:	c232                	sw	a2,4(sp)
e0002022:	4108                	lw	a0,0(a0)
e0002024:	8082                	ret
e0002026:	8532                	mv	a0,a2
e0002028:	f9ed                	bnez	a1,e000201a <HMAC_SMOKETEST_CLEAR+0x1a1e>
e000202a:	6105                	addi	sp,sp,32
e000202c:	f000                	fsw	fs0,32(s0)
e000202e:	80828593          	addi	a1,t0,-2040
e0002032:	05170597          	auipc	a1,0x5170
e0002036:	0000                	unimp
e0002038:	6465                	lui	s0,0x19
e000203a:	c188                	sw	a0,0(a1)
e000203c:	c1c8                	sw	a0,4(a1)
e000203e:	8082                	ret
e0002040:	00c50513          	addi	a0,a0,12
e0002044:	cc22                	sw	s0,24(sp)
e0002046:	ca26                	sw	s1,20(sp)
e0002048:	1101                	addi	sp,sp,-32
e000204a:	ce06                	sw	ra,28(sp)
e000204c:	c20d                	beqz	a2,e000206e <HMAC_SMOKETEST_CLEAR+0x1a72>
e000204e:	8432                	mv	s0,a2
e0002050:	c84a                	sw	s2,16(sp)
e0002052:	c64e                	sw	s3,12(sp)
e0002054:	4481                	li	s1,0
e0002056:	892e0533          	0x892e0533
e000205a:	89aa                	mv	s3,a0
e000205c:	0005                	c.addi	zero,1
e000205e:	854e                	mv	a0,s3
e0002060:	0099                	addi	ra,ra,6
e0002062:	04854583          	lbu	a1,72(a0)
e0002066:	2f5918e3          	bne	s2,s5,e0002b56 <HMAC_SMOKETEST_CLEAR+0x255a>
e000206a:	e519                	bnez	a0,e0002078 <HMAC_SMOKETEST_CLEAR+0x1a7c>
e000206c:	a011                	j	e0002070 <HMAC_SMOKETEST_CLEAR+0x1a74>
e000206e:	4481                	li	s1,0
e0002070:	fe94                	fsw	fa3,56(a3)
e0002072:	84a2                	mv	s1,s0
e0002074:	4942                	lw	s2,16(sp)
e0002076:	44d2                	lw	s1,20(sp)
e0002078:	8526                	mv	a0,s1
e000207a:	49b2                	lw	s3,12(sp)
e000207c:	6105                	addi	sp,sp,32
e000207e:	8082                	ret
e0002080:	4462                	lw	s0,24(sp)
e0002082:	40f2                	lw	ra,28(sp)
e0002084:	d646                	sw	a7,44(sp)
e0002086:	d442                	sw	a6,40(sp)
e0002088:	7179                	addi	sp,sp,-48
e000208a:	c606                	sw	ra,12(sp)
e000208c:	ce36                	sw	a3,28(sp)
e000208e:	cc32                	sw	a2,24(sp)
e0002090:	d23e                	sw	a5,36(sp)
e0002092:	d03a                	sw	a4,32(sp)
e0002094:	f000                	fsw	fs0,32(s0)
e0002096:	ca2e8593          	addi	a1,t4,-862
e000209a:	41cc0597          	auipc	a1,0x41cc0
e000209e:	872a                	mv	a4,a0
e00020a0:	5de5                	li	s11,-7
e00020a2:	4190                	lw	a2,0(a1)
e00020a4:	0854                	addi	a3,sp,20
e00020a6:	8532                	mv	a0,a2
e00020a8:	0848                	addi	a0,sp,20
e00020aa:	c42a                	sw	a0,8(sp)
e00020ac:	40b2                	lw	ra,12(sp)
e00020ae:	6145                	addi	sp,sp,48
e00020b0:	863a                	mv	a2,a4
e00020b2:	200d                	jal	e00020d4 <HMAC_SMOKETEST_CLEAR+0x1ad8>
e00020b4:	f000                	fsw	fs0,32(s0)
e00020b6:	80828693          	addi	a3,t0,-2040
e00020ba:	42d40697          	auipc	a3,0x42d40
e00020be:	872e                	mv	a4,a1
e00020c0:	5be6                	lw	s7,120(sp)
e00020c2:	4290                	lw	a2,0(a3)
e00020c4:	85b6                	mv	a1,a3
e00020c6:	863e                	mv	a2,a5
e00020c8:	87aa                	mv	a5,a0
e00020ca:	8532                	mv	a0,a2
e00020cc:	715d                	addi	sp,sp,-80
e00020ce:	c686                	sw	ra,76(sp)
e00020d0:	86ba                	mv	a3,a4
e00020d2:	a009                	j	e00020d4 <HMAC_SMOKETEST_CLEAR+0x1ad8>
e00020d4:	c0ca                	sw	s2,64(sp)
e00020d6:	de4e                	sw	s3,60(sp)
e00020d8:	c4a2                	sw	s0,72(sp)
e00020da:	c2a6                	sw	s1,68(sp)
e00020dc:	d85a                	sw	s6,48(sp)
e00020de:	d65e                	sw	s7,44(sp)
e00020e0:	dc52                	sw	s4,56(sp)
e00020e2:	da56                	sw	s5,52(sp)
e00020e4:	d06a                	sw	s10,32(sp)
e00020e6:	ce6e                	sw	s11,28(sp)
e00020e8:	d462                	sw	s8,40(sp)
e00020ea:	d266                	sw	s9,36(sp)
e00020ec:	c436                	sw	a3,8(sp)
e00020ee:	c199                	beqz	a1,e00020f4 <HMAC_SMOKETEST_CLEAR+0x1af8>
e00020f0:	8cb2                	mv	s9,a2
e00020f2:	892a                	mv	s2,a0
e00020f4:	00000997          	auipc	s3,0x0
e00020f8:	89ae                	mv	s3,a1
e00020fa:	a029                	j	e0002104 <HMAC_SMOKETEST_CLEAR+0x1b08>
e00020fc:	c236                	sw	a3,4(sp)
e00020fe:	8993c503          	lbu	a0,-1895(t2)
e0002102:	f329                	bnez	a4,e0002044 <HMAC_SMOKETEST_CLEAR+0x1a48>
e0002104:	4205                	li	tp,1
e0002106:	4a81                	li	s5,0
e0002108:	000c                	addi	a1,sp,0
e000210a:	4d250563          	beq	a0,s2,e00025d4 <HMAC_SMOKETEST_CLEAR+0x1fd8>
e000210e:	4a29                	li	s4,10
e0002110:	02500c13          	li	s8,37
e0002114:	c225                	beqz	a2,e0002174 <HMAC_SMOKETEST_CLEAR+0x1b78>
e0002116:	c02e                	sw	a1,0(sp)
e0002118:	658d                	lui	a1,0x3
e000211a:	0ff58593          	addi	a1,a1,255 # 30ff <_min_stack+0x10ff>
e000211e:	44810963          	beq	sp,s0,e0002570 <HMAC_SMOKETEST_CLEAR+0x1f74>
e0002122:	85337413          	andi	s0,t1,-1965
e0002126:	009c                	addi	a5,sp,64
e0002128:	0184                	addi	s1,sp,192
e000212a:	c419                	beqz	s0,e0002138 <HMAC_SMOKETEST_CLEAR+0x1b3c>
e000212c:	0485                	addi	s1,s1,1
e000212e:	b7f5                	j	e000211a <HMAC_SMOKETEST_CLEAR+0x1b1e>
e0002130:	00154503          	lbu	a0,1(a0)
e0002134:	85e6                	mv	a1,s9
e0002136:	8626                	mv	a2,s1
e0002138:	c491                	beqz	s1,e0002144 <HMAC_SMOKETEST_CLEAR+0x1b48>
e000213a:	854a                	mv	a0,s2
e000213c:	3e040963          	beqz	s0,e000252e <HMAC_SMOKETEST_CLEAR+0x1f32>
e0002140:	9982                	jalr	s3
e0002142:	9aaa                	add	s5,s5,a0
e0002144:	00154603          	lbu	a2,1(a0)
e0002148:	009c8533          	add	a0,s9,s1
e000214c:	00e61863          	bne	a2,a4,e000215c <HMAC_SMOKETEST_CLEAR+0x1b60>
e0002150:	02100713          	li	a4,33
e0002154:	00250693          	addi	a3,a0,2
e0002158:	00254583          	lbu	a1,2(a0)
e000215c:	4b01                	li	s6,0
e000215e:	4b050693          	addi	a3,a0,1200
e0002162:	a029                	j	e000216c <HMAC_SMOKETEST_CLEAR+0x1b70>
e0002164:	3a058b63          	beqz	a1,e000251a <HMAC_SMOKETEST_CLEAR+0x1f1e>
e0002168:	0015                	c.addi	zero,5
e000216a:	85b2                	mv	a1,a2
e000216c:	4501                	li	a0,0
e000216e:	44810613          	addi	a2,sp,1096
e0002172:	4b81                	li	s7,0
e0002174:	0016                	0x16
e0002176:	fdf68c93          	addi	s9,a3,-33 # 22d42099 <pulp__FC+0x22d4209a>
e000217a:	fd053d93          	sltiu	s11,a0,-48
e000217e:	00167613          	andi	a2,a2,1
e0002182:	0ff58613          	addi	a2,a1,255
e0002186:	0ff66b63          	bltu	a2,t6,e000227c <HMAC_SMOKETEST_CLEAR+0x1c80>
e000218a:	0ff5f593          	andi	a1,a1,255
e000218e:	ca19                	beqz	a2,e00021a4 <HMAC_SMOKETEST_CLEAR+0x1ba8>
e0002190:	02cd                	addi	t0,t0,19
e0002192:	95b27613          	andi	a2,tp,-1701
e0002196:	86338493          	addi	s1,t2,-1949
e000219a:	0344                	addi	s1,sp,388
e000219c:	000c                	addi	a1,sp,0
e000219e:	0c85                	addi	s9,s9,1
e00021a0:	fd05                	bnez	a0,e00020d8 <HMAC_SMOKETEST_CLEAR+0x1adc>
e00021a2:	0b93c583          	lbu	a1,185(t2)
e00021a6:	0200                	addi	s0,sp,256
e00021a8:	fde9                	bnez	a1,e0002182 <HMAC_SMOKETEST_CLEAR+0x1b86>
e00021aa:	aea5                	j	e0002522 <HMAC_SMOKETEST_CLEAR+0x1f26>
e00021ac:	02000513          	li	a0,32
e00021b0:	03000613          	li	a2,48
e00021b4:	03000513          	li	a0,48
e00021b8:	fec590e3          	bne	a1,a2,e0002198 <HMAC_SMOKETEST_CLEAR+0x1b9c>
e00021bc:	c481                	beqz	s1,e00021c4 <HMAC_SMOKETEST_CLEAR+0x1bc8>
e00021be:	8bb2e763          	bltu	t0,s11,e000126c <HMAC_SMOKETEST_CLEAR+0xc70>
e00021c2:	b7c5                	j	e00021a2 <HMAC_SMOKETEST_CLEAR+0x1ba6>
e00021c4:	0ff57513          	andi	a0,a0,255
e00021c8:	00e4                	addi	s1,sp,76
e00021ca:	a671                	j	e0002556 <HMAC_SMOKETEST_CLEAR+0x1f5a>
e00021cc:	fa858513          	addi	a0,a1,-88
e00021d0:	38051363          	bnez	a0,e0002556 <HMAC_SMOKETEST_CLEAR+0x1f5a>
e00021d4:	050a                	slli	a0,a0,0x2
e00021d6:	69632597          	auipc	a1,0x69632
e00021da:	1e2504a7          	0x1e2504a7
e00021de:	952e                	add	a0,a0,a1
e00021e0:	0000                	unimp
e00021e2:	9c638593          	addi	a1,t2,-1594
e00021e6:	2a0d                	jal	e0002318 <HMAC_SMOKETEST_CLEAR+0x1d1c>
e00021e8:	4108                	lw	a0,0(a0)
e00021ea:	8502                	jr	a0
e00021ec:	0045                	c.addi	zero,17
e00021ee:	c22e                	sw	a1,4(sp)
e00021f0:	4512                	lw	a0,4(sp)
e00021f2:	5c630593          	addi	a1,t1,1478
e00021f6:	2b03000b          	p.lb	zero,688(t1!)
e00021fa:	0005                	c.addi	zero,1
e00021fc:	25758593          	addi	a1,a1,599 # 4963442d <pulp__FC+0x4963442e>
e0002200:	00002597          	auipc	a1,0x2
e0002204:	9982                	jalr	s3
e0002206:	9aaa                	add	s5,s5,a0
e0002208:	4605                	li	a2,1
e000220a:	854a                	mv	a0,s2
e000220c:	0ffbf713          	andi	a4,s7,255
e0002210:	41600b33          	neg	s6,s6
e0002214:	25280813          	addi	a6,a6,594
e0002218:	00002817          	auipc	a6,0x2
e000221c:	85ce                	mv	a1,s3
e000221e:	865a                	mv	a2,s6
e0002220:	47a9                	li	a5,10
e0002222:	854a                	mv	a0,s2
e0002224:	0480                	addi	s0,sp,576
e0002226:	a4a18d63          	beq	gp,a0,e0001480 <HMAC_SMOKETEST_CLEAR+0xe84>
e000222a:	27850513          	addi	a0,a0,632
e000222e:	02a59763          	bne	a1,a0,e000225c <HMAC_SMOKETEST_CLEAR+0x1c60>
e0002232:	00009963          	bnez	ra,e0002244 <HMAC_SMOKETEST_CLEAR+0x1c48>
e0002236:	260d8593          	addi	a1,s11,608
e000223a:	82632597          	auipc	a1,0x82632
e000223e:	020d                	addi	tp,tp,3
e0002240:	21b5                	jal	e00026ac <HMAC_SMOKETEST_CLEAR+0x20b0>
e0002242:	a851                	j	e00022d6 <HMAC_SMOKETEST_CLEAR+0x1cda>
e0002244:	0045                	c.addi	zero,17
e0002246:	c22e                	sw	a1,4(sp)
e0002248:	4512                	lw	a0,4(sp)
e000224a:	00850593          	addi	a1,a0,8
e000224e:	c22e                	sw	a1,4(sp)
e0002250:	4114                	lw	a3,0(a0)
e0002252:	0ffb0593          	addi	a1,s6,255
e0002256:	41502897          	auipc	a7,0x41502
e000225a:	2398f793          	andi	a5,a7,569
e000225e:	a2d5                	j	e0002442 <HMAC_SMOKETEST_CLEAR+0x1e46>
e0002260:	0000                	unimp
e0002262:	00458893          	addi	a7,a1,4 # 6263423e <tohost+0x62614236>
e0002266:	c22e                	sw	a1,4(sp)
e0002268:	4512                	lw	a0,4(sp)
e000226a:	0ffb0593          	addi	a1,s6,255
e000226e:	41102817          	auipc	a6,0x41102
e0002272:	2218f713          	andi	a4,a7,545
e0002276:	a2f5                	j	e0002462 <HMAC_SMOKETEST_CLEAR+0x1e66>
e0002278:	0000                	unimp
e000227a:	45120813          	addi	a6,tp,1105 # 451 <_min_stack-0x1baf>
e000227e:	82630593          	addi	a1,t1,-2010
e0002282:	220d                	jal	e00023a4 <HMAC_SMOKETEST_CLEAR+0x1da8>
e0002284:	4114                	lw	a3,0(a0)
e0002286:	00450593          	addi	a1,a0,4
e000228a:	c22e                	sw	a1,4(sp)
e000228c:	4150                	lw	a2,4(a0)
e000228e:	0085f793          	andi	a5,a1,8
e0002292:	c22e                	sw	a1,4(sp)
e0002294:	0000                	unimp
e0002296:	0ffb8893          	addi	a7,s7,255 # fffe70ff <pulp__FC+0xfffe7100>
e000229a:	45122897          	auipc	a7,0x45122
e000229e:	1fd80593          	addi	a1,a6,509 # 2110446b <pulp__FC+0x2110446c>
e00022a2:	aadd                	j	e0002498 <HMAC_SMOKETEST_CLEAR+0x1e9c>
e00022a4:	4110                	lw	a2,0(a0)
e00022a6:	00458863          	beq	a1,tp,e00022b6 <HMAC_SMOKETEST_CLEAR+0x1cba>
e00022aa:	c22e                	sw	a1,4(sp)
e00022ac:	2606                	fld	fa2,64(sp)
e00022ae:	200d2597          	auipc	a1,0x200d2
e00022b2:	1a650263          	beq	a0,t1,e0002456 <HMAC_SMOKETEST_CLEAR+0x1e5a>
e00022b6:	4611                	li	a2,4
e00022b8:	0000                	unimp
e00022ba:	1e0d8593          	addi	a1,s11,480
e00022be:	4512                	lw	a0,4(sp)
e00022c0:	a2fd                	j	e00024ae <HMAC_SMOKETEST_CLEAR+0x1eb2>
e00022c2:	c22e9163          	bne	t4,sp,e00016e4 <HMAC_SMOKETEST_CLEAR+0x10e8>
e00022c6:	4108                	lw	a0,0(a0)
e00022c8:	00450593          	addi	a1,a0,4
e00022cc:	084c                	addi	a1,sp,20
e00022ce:	4605                	li	a2,1
e00022d0:	00a10a23          	sb	a0,20(sp)
e00022d4:	1c0d                	addi	s8,s8,-29
e00022d6:	4512                	lw	a0,4(sp)
e00022d8:	aad9                	j	e00024ae <HMAC_SMOKETEST_CLEAR+0x1eb2>
e00022da:	c22e9563          	bne	t4,sp,e0001704 <HMAC_SMOKETEST_CLEAR+0x1108>
e00022de:	4110                	lw	a2,0(a0)
e00022e0:	00450593          	addi	a1,a0,4
e00022e4:	00002817          	auipc	a6,0x2
e00022e8:	0ffbf713          	andi	a4,s7,255
e00022ec:	47a1                	li	a5,8
e00022ee:	aa9d                	j	e0002464 <HMAC_SMOKETEST_CLEAR+0x1e68>
e00022f0:	17e80813          	addi	a6,a6,382 # e0004462 <HMAC_SMOKETEST_CLEAR+0x3e66>
e00022f4:	00002597          	auipc	a1,0x2
e00022f8:	1a0d9663          	bnez	s11,e00024a4 <HMAC_SMOKETEST_CLEAR+0x1ea8>
e00022fc:	4609                	li	a2,2
e00022fe:	854a                	mv	a0,s2
e0002300:	15d58593          	addi	a1,a1,349 # e0004451 <HMAC_SMOKETEST_CLEAR+0x3e55>
e0002304:	00458613          	addi	a2,a1,4
e0002308:	9982                	jalr	s3
e000230a:	4592                	lw	a1,4(sp)
e000230c:	01550433          	add	s0,a0,s5
e0002310:	c232                	sw	a2,4(sp)
e0002312:	4190                	lw	a2,0(a1)
e0002314:	15280813          	addi	a6,a6,338
e0002318:	00002817          	auipc	a6,0x2
e000231c:	0300                	addi	s0,sp,384
e000231e:	47c1                	li	a5,16
e0002320:	46a1                	li	a3,8
e0002322:	2e290713          	addi	a4,s2,738 # ffff92e2 <pulp__FC+0xffff92e3>
e0002326:	854a0ab3          	0x854a0ab3
e000232a:	85ce                	mv	a1,s3
e000232c:	4512                	lw	a0,4(sp)
e000232e:	00a40593          	addi	a1,s0,10 # 1900a <_stack_len+0x1100a>
e0002332:	a249                	j	e00024b4 <HMAC_SMOKETEST_CLEAR+0x1eb8>
e0002334:	4108                	lw	a0,0(a0)
e0002336:	4582                	lw	a1,0(sp)
e0002338:	0045                	c.addi	zero,17
e000233a:	c22e                	sw	a1,4(sp)
e000233c:	02200593          	li	a1,34
e0002340:	00b11c23          	sh	a1,24(sp)
e0002344:	0810                	addi	a2,sp,16
e0002346:	ca2e0693          	addi	a3,t3,-862
e000234a:	006c                	addi	a1,sp,12
e000234c:	45b2                	lw	a1,12(sp)
e000234e:	8baa                	mv	s7,a0
e0002350:	0151                	addi	sp,sp,20
e0002352:	2e8d                	jal	e00026c4 <HMAC_SMOKETEST_CLEAR+0x20c8>
e0002354:	0005c503          	lbu	a0,0(a1)
e0002358:	fff58413          	addi	s0,a1,-1
e000235c:	fd65                	bnez	a0,e0002354 <HMAC_SMOKETEST_CLEAR+0x1d58>
e000235e:	05859613          	0x5859613
e0002362:	0405                	addi	s0,s0,1
e0002364:	0000                	unimp
e0002366:	001d8593          	addi	a1,s11,1
e000236a:	99822597          	auipc	a1,0x99822
e000236e:	45b2                	lw	a1,12(sp)
e0002370:	0f75                	addi	t5,t5,29
e0002372:	854a                	mv	a0,s2
e0002374:	40b4                	lw	a3,64(s1)
e0002376:	854a                	mv	a0,s2
e0002378:	84aa                	mv	s1,a0
e000237a:	00950633          	add	a2,a0,s1
e000237e:	99822597          	auipc	a1,0x99822
e0002382:	0dc50433          	0xdc50433
e0002386:	854a                	mv	a0,s2
e0002388:	0000                	unimp
e000238a:	942a8593          	addi	a1,s5,-1726
e000238e:	865a2597          	auipc	a1,0x865a2
e0002392:	9982                	jalr	s3
e0002394:	0b65                	addi	s6,s6,25
e0002396:	4605                	li	a2,1
e0002398:	0000                	unimp
e000239a:	04b38593          	addi	a1,t2,75
e000239e:	00a4                	addi	s1,sp,72
e00023a0:	854a                	mv	a0,s2
e00023a2:	9982                	jalr	s3
e00023a4:	00002597          	auipc	a1,0x2
e00023a8:	120b8363          	beqz	s7,e00024ce <HMAC_SMOKETEST_CLEAR+0x1ed2>
e00023ac:	4605                	li	a2,1
e00023ae:	854a                	mv	a0,s2
e00023b0:	0b858593          	addi	a1,a1,184 # e000445c <HMAC_SMOKETEST_CLEAR+0x3e60>
e00023b4:	0095                	addi	ra,ra,5
e00023b6:	084c                	addi	a1,sp,20
e00023b8:	9982                	jalr	s3
e00023ba:	99820433          	0x99820433
e00023be:	4642                	lw	a2,16(sp)
e00023c0:	4619                	li	a2,6
e00023c2:	854a                	mv	a0,s2
e00023c4:	0000                	unimp
e00023c6:	942a0813          	addi	a6,s4,-1726 # 942 <_min_stack-0x16be>
e00023ca:	854a2817          	auipc	a6,0x854a2
e00023ce:	85ce                	mv	a1,s3
e00023d0:	0a08                	addi	a0,sp,272
e00023d2:	47a9                	li	a5,10
e00023d4:	24ad                	jal	e000263e <HMAC_SMOKETEST_CLEAR+0x2042>
e00023d6:	942a                	add	s0,s0,a0
e00023d8:	4681                	li	a3,0
e00023da:	4701                	li	a4,0
e00023dc:	08658593          	addi	a1,a1,134
e00023e0:	00002597          	auipc	a1,0x2
e00023e4:	9982                	jalr	s3
e00023e6:	942a                	add	s0,s0,a0
e00023e8:	4605                	li	a2,1
e00023ea:	854a                	mv	a0,s2
e00023ec:	00450593          	addi	a1,a0,4
e00023f0:	a8e5                	j	e00024e8 <HMAC_SMOKETEST_CLEAR+0x1eec>
e00023f2:	4512                	lw	a0,4(sp)
e00023f4:	100d                	c.addi	zero,-29
e00023f6:	4110                	lw	a2,0(a0)
e00023f8:	c22e                	sw	a1,4(sp)
e00023fa:	c22e8363          	beq	t4,sp,e0001820 <HMAC_SMOKETEST_CLEAR+0x1224>
e00023fe:	414c                	lw	a1,4(a0)
e0002400:	00850593          	addi	a1,a0,8
e0002404:	080d                	addi	a6,a6,3
e0002406:	4512                	lw	a0,4(sp)
e0002408:	a05d                	j	e00024ae <HMAC_SMOKETEST_CLEAR+0x1eb2>
e000240a:	c22e9d63          	bne	t4,sp,e0001844 <HMAC_SMOKETEST_CLEAR+0x1248>
e000240e:	4110                	lw	a2,0(a0)
e0002410:	00450593          	addi	a1,a0,4
e0002414:	00002817          	auipc	a6,0x2
e0002418:	0ffbf713          	andi	a4,s7,255
e000241c:	47a9                	li	a5,10
e000241e:	a099                	j	e0002464 <HMAC_SMOKETEST_CLEAR+0x1e68>
e0002420:	04e80813          	addi	a6,a6,78 # e0004462 <HMAC_SMOKETEST_CLEAR+0x3e66>
e0002424:	4512                	lw	a0,4(sp)
e0002426:	86630593          	addi	a1,t1,-1946
e000242a:	020d                	addi	tp,tp,3
e000242c:	4114                	lw	a3,0(a0)
e000242e:	00450593          	addi	a1,a0,4
e0002432:	c22e                	sw	a1,4(sp)
e0002434:	4150                	lw	a2,4(a0)
e0002436:	0085f793          	andi	a5,a1,8
e000243a:	c22e                	sw	a1,4(sp)
e000243c:	0000                	unimp
e000243e:	0ffb8893          	addi	a7,s7,255
e0002442:	854a2897          	auipc	a7,0x854a2
e0002446:	85ce                	mv	a1,s3
e0002448:	0288                	addi	a0,sp,320
e000244a:	4805                	li	a6,1
e000244c:	4512                	lw	a0,4(sp)
e000244e:	87260593          	addi	a1,a2,-1934
e0002452:	a0b9                	j	e00024a0 <HMAC_SMOKETEST_CLEAR+0x1ea4>
e0002454:	4110                	lw	a2,0(a0)
e0002456:	0045f713          	andi	a4,a1,4
e000245a:	c22e                	sw	a1,4(sp)
e000245c:	0000                	unimp
e000245e:	0ffb0813          	addi	a6,s6,255
e0002462:	854a2817          	auipc	a6,0x854a2
e0002466:	85ce                	mv	a1,s3
e0002468:	0088                	addi	a0,sp,64
e000246a:	47c1                	li	a5,16
e000246c:	a83d                	j	e00024aa <HMAC_SMOKETEST_CLEAR+0x1eae>
e000246e:	86a68763          	beq	a3,a0,e00014dc <HMAC_SMOKETEST_CLEAR+0xee0>
e0002472:	2ad1                	jal	e0002646 <HMAC_SMOKETEST_CLEAR+0x204a>
e0002474:	00450593          	addi	a1,a0,4
e0002478:	020d                	addi	tp,tp,3
e000247a:	4512                	lw	a0,4(sp)
e000247c:	00850593          	addi	a1,a0,8
e0002480:	c22e                	sw	a1,4(sp)
e0002482:	4114                	lw	a3,0(a0)
e0002484:	0ffbf793          	andi	a5,s7,255
e0002488:	c22e                	sw	a1,4(sp)
e000248a:	4150                	lw	a2,4(a0)
e000248c:	fda88893          	addi	a7,a7,-38 # 654a441c <tohost+0x65484414>
e0002490:	00002897          	auipc	a7,0x2
e0002494:	8726                	mv	a4,s1
e0002496:	4801                	li	a6,0
e0002498:	854a                	mv	a0,s2
e000249a:	85ce                	mv	a1,s3
e000249c:	00002597          	auipc	a1,0x2
e00024a0:	20c9                	jal	e0002562 <HMAC_SMOKETEST_CLEAR+0x1f66>
e00024a2:	a801                	j	e00024b2 <HMAC_SMOKETEST_CLEAR+0x1eb6>
e00024a4:	463d                	li	a2,15
e00024a6:	854a                	mv	a0,s2
e00024a8:	00358593          	addi	a1,a1,3 # e000449f <HMAC_SMOKETEST_CLEAR+0x3ea3>
e00024ac:	000cc503          	lbu	a0,0(s9)
e00024b0:	9982                	jalr	s3
e00024b2:	9aaa                	add	s5,s5,a0
e00024b4:	a8ad                	j	e000252e <HMAC_SMOKETEST_CLEAR+0x1f32>
e00024b6:	14e3f713          	andi	a4,t2,334
e00024ba:	c605                	beqz	a2,e00024e2 <HMAC_SMOKETEST_CLEAR+0x1ee6>
e00024bc:	0000                	unimp
e00024be:	0ffb0813          	addi	a6,s6,255
e00024c2:	b7452817          	auipc	a6,0xb7452
e00024c6:	4642                	lw	a2,16(sp)
e00024c8:	fa88                	fsw	fa0,48(a3)
e00024ca:	4789                	li	a5,2
e00024cc:	f9a80813          	addi	a6,a6,-102 # 9745445c <tohost+0x97434454>
e00024d0:	00002817          	auipc	a6,0x2
e00024d4:	85ce                	mv	a1,s3
e00024d6:	4681                	li	a3,0
e00024d8:	47a9                	li	a5,10
e00024da:	854a                	mv	a0,s2
e00024dc:	00950433          	add	s0,a0,s1
e00024e0:	4701                	li	a4,0
e00024e2:	2295                	jal	e0002646 <HMAC_SMOKETEST_CLEAR+0x204a>
e00024e4:	f8058593          	addi	a1,a1,-128
e00024e8:	00002597          	auipc	a1,0x2
e00024ec:	9982                	jalr	s3
e00024ee:	854a05b3          	0x854a05b3
e00024f2:	865a                	mv	a2,s6
e00024f4:	00a5                	addi	ra,ra,9
e00024f6:	bf5d                	j	e00024ac <HMAC_SMOKETEST_CLEAR+0x1eb0>
e00024f8:	0154                	addi	a3,sp,132
e00024fa:	86338ab3          	0x86338ab3
e00024fe:	00a5                	addi	ra,ra,9
e0002500:	410c                	lw	a1,0(a0)
e0002502:	4501                	li	a0,0
e0002504:	0505                	addi	a0,a0,1
e0002506:	fa7d                	bnez	a2,e00024fc <HMAC_SMOKETEST_CLEAR+0x1f00>
e0002508:	00064603          	lbu	a2,0(a2)
e000250c:	bf69                	j	e00024a6 <HMAC_SMOKETEST_CLEAR+0x1eaa>
e000250e:	06131597          	auipc	a1,0x6131
e0002512:	fff5                	bnez	a5,e000250e <HMAC_SMOKETEST_CLEAR+0x1f12>
e0002514:	4c65                	li	s8,25
e0002516:	4615                	li	a2,5
e0002518:	0000                	unimp
e000251a:	00008593          	mv	a1,ra
e000251e:	b7798593          	addi	a1,s3,-1161 # e0001c6b <HMAC_SMOKETEST_CLEAR+0x166f>
e0002522:	854a2597          	auipc	a1,0x854a2
e0002526:	9982                	jalr	s3
e0002528:	f585                	bnez	a1,e0002450 <HMAC_SMOKETEST_CLEAR+0x1e54>
e000252a:	4645                	li	a2,17
e000252c:	4a81                	li	s5,0
e000252e:	8556                	mv	a0,s5
e0002530:	9aaa                	add	s5,s5,a0
e0002532:	a011                	j	e0002536 <HMAC_SMOKETEST_CLEAR+0x1f3a>
e0002534:	5c92                	lw	s9,36(sp)
e0002536:	5c22                	lw	s8,40(sp)
e0002538:	4df2                	lw	s11,28(sp)
e000253a:	5d02                	lw	s10,32(sp)
e000253c:	5ad2                	lw	s5,52(sp)
e000253e:	5a62                	lw	s4,56(sp)
e0002540:	5bb2                	lw	s7,44(sp)
e0002542:	5b42                	lw	s6,48(sp)
e0002544:	4496                	lw	s1,68(sp)
e0002546:	4426                	lw	s0,72(sp)
e0002548:	59f2                	lw	s3,60(sp)
e000254a:	4906                	lw	s2,64(sp)
e000254c:	8082                	ret
e000254e:	40b62597          	auipc	a1,0x40b62
e0002552:	6161                	addi	sp,sp,80
e0002554:	f355                	bnez	a4,e00024f8 <HMAC_SMOKETEST_CLEAR+0x1efc>
e0002556:	4631                	li	a2,12
e0002558:	0000                	unimp
e000255a:	c6868593          	addi	a1,a3,-920
e000255e:	c4a2                	sw	s0,72(sp)
e0002560:	b7f1                	j	e000252c <HMAC_SMOKETEST_CLEAR+0x1f30>
e0002562:	715d                	addi	sp,sp,-80
e0002564:	de4e                	sw	s3,60(sp)
e0002566:	dc52                	sw	s4,56(sp)
e0002568:	c2a6                	sw	s1,68(sp)
e000256a:	c0ca                	sw	s2,64(sp)
e000256c:	d65e                	sw	s7,44(sp)
e000256e:	d462                	sw	s8,40(sp)
e0002570:	da56                	sw	s5,52(sp)
e0002572:	d85a                	sw	s6,48(sp)
e0002574:	8bc6                	mv	s7,a7
e0002576:	8a42                	mv	s4,a6
e0002578:	d266                	sw	s9,36(sp)
e000257a:	d06a                	sw	s10,32(sp)
e000257c:	892e                	mv	s2,a1
e000257e:	89aa                	mv	s3,a0
e0002580:	8b36                	mv	s6,a3
e0002582:	8ab2                	mv	s5,a2
e0002584:	416704b3          	sub	s1,a4,s6
e0002588:	02e6fc63          	bleu	a4,a3,e00025c0 <HMAC_SMOKETEST_CLEAR+0x1fc4>
e000258c:	0200                	addi	s0,sp,256
e000258e:	85be                	mv	a1,a5
e0002590:	850a                	mv	a0,sp
e0002592:	4c010613          	addi	a2,sp,1216
e0002596:	26c10513          	addi	a0,sp,620
e000259a:	c09d                	beqz	s1,e00025c0 <HMAC_SMOKETEST_CLEAR+0x1fc4>
e000259c:	00a4e463          	bltu	s1,a0,e00025a4 <HMAC_SMOKETEST_CLEAR+0x1fa8>
e00025a0:	0200                	addi	s0,sp,256
e00025a2:	8426                	mv	s0,s1
e00025a4:	858a                	mv	a1,sp
e00025a6:	854e                	mv	a0,s3
e00025a8:	02000413          	li	s0,32
e00025ac:	8c81                	sub	s1,s1,s0
e00025ae:	9c2a                	add	s8,s8,a0
e00025b0:	8622                	mv	a2,s0
e00025b2:	9902                	jalr	s2
e00025b4:	a0ad000b          	p.lb	zero,-1526(s10!)
e00025b8:	f0fd                	bnez	s1,e000259e <HMAC_SMOKETEST_CLEAR+0x1fa2>
e00025ba:	060b1663          	bnez	s6,e0002626 <HMAC_SMOKETEST_CLEAR+0x202a>
e00025be:	4401                	li	s0,0
e00025c0:	4c01                	li	s8,0
e00025c2:	fffb0363          	beq	s6,t6,e0001da8 <HMAC_SMOKETEST_CLEAR+0x17ac>
e00025c6:	8b0a                	mv	s6,sp
e00025c8:	4601                	li	a2,0
e00025ca:	5d7d0493          	addi	s1,s10,1495
e00025ce:	8526                	mv	a0,s1
e00025d0:	02000c93          	li	s9,32
e00025d4:	8522                	mv	a0,s0
e00025d6:	9556                	add	a0,a0,s5
e00025d8:	000a1363          	bnez	s4,e00025de <HMAC_SMOKETEST_CLEAR+0x1fe2>
e00025dc:	00455593          	srli	a1,a0,0x4
e00025e0:	00054503          	lbu	a0,0(a0)
e00025e4:	0005                	c.addi	zero,1
e00025e6:	95de06b3          	0x95de06b3
e00025ea:	00b68583          	lb	a1,11(a3)
e00025ee:	893d                	andi	a0,a0,15
e00025f0:	802300cb          	fnmsub.s	ft1,ft6,ft2,fa6,rne
e00025f4:	0005                	c.addi	zero,1
e00025f6:	0609                	addi	a2,a2,2
e00025f8:	955e                	add	a0,a0,s7
e00025fa:	19630503          	lb	a0,406(t1)
e00025fe:	0196                	slli	gp,gp,0x5
e0002600:	00a680a3          	sb	a0,1(a3)
e0002604:	0200                	addi	s0,sp,256
e0002606:	854e                	mv	a0,s3
e0002608:	858a                	mv	a1,sp
e000260a:	9c2a0613          	addi	a2,s4,-1598
e000260e:	14fd                	addi	s1,s1,-1
e0002610:	9902                	jalr	s2
e0002612:	4601                	li	a2,0
e0002614:	fba4                	fsw	fs1,112(a5)
e0002616:	c609                	beqz	a2,e0002620 <HMAC_SMOKETEST_CLEAR+0x2024>
e0002618:	0405                	addi	s0,s0,1
e000261a:	99029ee3          	bne	t0,a6,e0001fb6 <HMAC_SMOKETEST_CLEAR+0x19ba>
e000261e:	9c2a                	add	s8,s8,a0
e0002620:	858a                	mv	a1,sp
e0002622:	854e                	mv	a0,s3
e0002624:	5c92                	lw	s9,36(sp)
e0002626:	5c22                	lw	s8,40(sp)
e0002628:	8562                	mv	a0,s8
e000262a:	5d02                	lw	s10,32(sp)
e000262c:	5ad2                	lw	s5,52(sp)
e000262e:	5a62                	lw	s4,56(sp)
e0002630:	5bb2                	lw	s7,44(sp)
e0002632:	5b42                	lw	s6,48(sp)
e0002634:	4496                	lw	s1,68(sp)
e0002636:	4426                	lw	s0,72(sp)
e0002638:	59f2                	lw	s3,60(sp)
e000263a:	4906                	lw	s2,64(sp)
e000263c:	8082                	ret
e000263e:	7179                	addi	sp,sp,-48
e0002640:	40b6                	lw	ra,76(sp)
e0002642:	6161                	addi	sp,sp,80
e0002644:	ca05                	beqz	a2,e0002674 <HMAC_SMOKETEST_CLEAR+0x2078>
e0002646:	4381                	li	t2,0
e0002648:	d606                	sw	ra,44(sp)
e000264a:	88ae                	mv	a7,a1
e000264c:	8332                	mv	t1,a2
e000264e:	02935633          	divu	a2,t1,s1
e0002652:	02b1                	addi	t0,t0,12
e0002654:	02f6                	slli	t0,t0,0x1d
e0002656:	02f605b3          	mul	a1,a2,a5
e000265a:	8e0305b3          	0x8e0305b3
e000265e:	0005                	c.addi	zero,1
e0002660:	95c240b3          	0x95c240b3
e0002664:	01c58023          	sb	t3,0(a1) # 20b6454e <pulp__FC+0x20b6454f>
e0002668:	007285b3          	add	a1,t0,t2
e000266c:	0633fef3          	csrrci	t4,0x63,7
e0002670:	13fd                	addi	t2,t2,-1
e0002672:	058371e3          	bleu	s8,t1,e0002eb4 <HMAC_SMOKETEST_CLEAR+0x28b8>
e0002676:	0008                	addi	a0,sp,0
e0002678:	4070                	lw	a2,68(s0)
e000267a:	a031                	j	e0002686 <HMAC_SMOKETEST_CLEAR+0x208a>
e000267c:	4605                	li	a2,1
e000267e:	4585                	li	a1,1
e0002680:	02b105a3          	sb	a1,43(sp)
e0002684:	02000693          	li	a3,32
e0002688:	c291                	beqz	a3,e000268c <HMAC_SMOKETEST_CLEAR+0x2090>
e000268a:	85b6                	mv	a1,a3
e000268c:	02000593          	li	a1,32
e0002690:	00d5e463          	bltu	a1,a3,e0002698 <HMAC_SMOKETEST_CLEAR+0x209c>
e0002694:	40c586b3          	sub	a3,a1,a2
e0002698:	00b67e63          	bleu	a1,a2,e00026b4 <HMAC_SMOKETEST_CLEAR+0x20b8>
e000269c:	067d40c7          	0x67d40c7
e00026a0:	007c                	addi	a5,sp,12
e00026a2:	16fd8633          	0x16fd8633
e00026a6:	167d                	addi	a2,a2,-1
e00026a8:	00e60023          	sb	a4,0(a2)
e00026ac:	006c                	addi	a1,sp,12
e00026ae:	8d91                	sub	a1,a1,a2
e00026b0:	fee5                	bnez	a3,e00026a8 <HMAC_SMOKETEST_CLEAR+0x20ac>
e00026b2:	862e                	mv	a2,a1
e00026b4:	9882                	jalr	a7
e00026b6:	50b2                	lw	ra,44(sp)
e00026b8:	02058593          	addi	a1,a1,32
e00026bc:	00052813          	slti	a6,a0,0
e00026c0:	6145                	addi	sp,sp,48
e00026c2:	8082                	ret
e00026c4:	8fe9                	and	a5,a5,a0
e00026c6:	8bfd                	andi	a5,a5,31
e00026c8:	41f55793          	srai	a5,a0,0x1f
e00026cc:	00e87833          	and	a6,a6,a4
e00026d0:	0017b713          	seqz	a4,a5
e00026d4:	00081363          	bnez	a6,e00026da <HMAC_SMOKETEST_CLEAR+0x20de>
e00026d8:	02000713          	li	a4,32
e00026dc:	07970027          	0x7970027
e00026e0:	873e                	mv	a4,a5
e00026e2:	efe71813          	0xefe71813
e00026e6:	97c2                	add	a5,a5,a6
e00026e8:	f000                	fsw	fs0,32(s0)
e00026ea:	35938793          	addi	a5,t2,857
e00026ee:	439c0017          	auipc	zero,0x439c0
e00026f2:	c19c                	sw	a5,0(a1)
e00026f4:	0055                	c.addi	zero,21
e00026f6:	cb1d7713          	andi	a4,s10,-847
e00026fa:	56135713          	0x56135713
e00026fe:	0105                	addi	sp,sp,1
e0002700:	c2187ff7          	0xc2187ff7
e0002704:	0406                	slli	s0,s0,0x1
e0002706:	8a7d8023          	sb	t2,-1888(s11)
e000270a:	01556613          	ori	a2,a0,21
e000270e:	8a7d                	andi	a2,a2,31
e0002710:	00c6                	slli	ra,ra,0x11
e0002712:	80a35613          	0x80a35613
e0002716:	00c6                	slli	ra,ra,0x11
e0002718:	04066613          	ori	a2,a2,64
e000271c:	04056513          	ori	a0,a0,64
e0002720:	8169                	srli	a0,a0,0x1a
e0002722:	897d                	andi	a0,a0,31
e0002724:	a011                	j	e0002728 <HMAC_SMOKETEST_CLEAR+0x212c>
e0002726:	c208                	sw	a0,0(a2)
e0002728:	00a68123          	sb	a0,2(a3)
e000272c:	8082                	ret
e000272e:	c581                	beqz	a1,e0002736 <HMAC_SMOKETEST_CLEAR+0x213a>
e0002730:	0015c513          	xori	a0,a1,1
e0002734:	a011                	j	e0002738 <HMAC_SMOKETEST_CLEAR+0x213c>
e0002736:	460d                	li	a2,3
e0002738:	4601                	li	a2,0
e000273a:	c188                	sw	a0,0(a1)
e000273c:	1101                	addi	sp,sp,-32
e000273e:	ce06                	sw	ra,28(sp)
e0002740:	8532                	mv	a0,a2
e0002742:	8082                	ret
e0002744:	c84a                	sw	s2,16(sp)
e0002746:	c64e                	sw	s3,12(sp)
e0002748:	cc22                	sw	s0,24(sp)
e000274a:	ca26                	sw	s1,20(sp)
e000274c:	892e                	mv	s2,a1
e000274e:	4194                	lw	a3,0(a1)
e0002750:	448d                	li	s1,3
e0002752:	cd51                	beqz	a0,e00027ee <HMAC_SMOKETEST_CLEAR+0x21f2>
e0002754:	0049                	c.addi	zero,18
e0002756:	ca41                	beqz	a2,e00027e6 <HMAC_SMOKETEST_CLEAR+0x21ea>
e0002758:	cad9                	beqz	a3,e00027ee <HMAC_SMOKETEST_CLEAR+0x21f2>
e000275a:	00162603          	lw	a2,1(a2)
e000275e:	842a0513          	addi	a0,s4,-1982
e0002762:	35b7e537          	lui	a0,0x35b7e
e0002766:	016e                	slli	sp,sp,0x1b
e0002768:	3605                	jal	e0002288 <HMAC_SMOKETEST_CLEAR+0x1c8c>
e000276a:	8d35                	xor	a0,a0,a3
e000276c:	8db1                	xor	a1,a1,a2
e000276e:	85936733          	vfsub.r.h	a4,t1,s9
e0002772:	6005                	0x6005
e0002774:	fff50993          	addi	s3,a0,-1 # 35b7dfff <tohost+0x35b5dff7>
e0002778:	00b5                	addi	ra,ra,13
e000277a:	6541                	lui	a0,0x10
e000277c:	cb01                	beqz	a4,e000278c <HMAC_SMOKETEST_CLEAR+0x2190>
e000277e:	45819513          	0x45819513
e0002782:	854e                	mv	a0,s3
e0002784:	00c6                	slli	ra,ra,0x11
e0002786:	4681                	li	a3,0
e0002788:	0146                	slli	sp,sp,0x11
e000278a:	7633d593          	0x7633d593
e000278e:	0135                	addi	sp,sp,13
e0002790:	4701                	li	a4,0
e0002792:	2079                	jal	e0002820 <HMAC_SMOKETEST_CLEAR+0x2224>
e0002794:	e929                	bnez	a0,e00027e6 <HMAC_SMOKETEST_CLEAR+0x21ea>
e0002796:	4008                	lw	a0,0(s0)
e0002798:	8d31                	xor	a0,a0,a2
e000279a:	8d4d                	or	a0,a0,a1
e000279c:	4008                	lw	a0,0(s0)
e000279e:	458d                	li	a1,3
e00027a0:	00052823          	sw	zero,16(a0) # 10010 <_stack_len+0x8010>
e00027a4:	02052423          	sw	zero,40(a0)
e00027a8:	d10c                	sw	a1,32(a0)
e00027aa:	4008                	lw	a0,0(s0)
e00027ac:	0205                	addi	tp,tp,1
e00027ae:	4008                	lw	a0,0(s0)
e00027b0:	4008                	lw	a0,0(s0)
e00027b2:	40082823          	sw	zero,1040(a6) # e00048e0 <_bss_end+0x100>
e00027b6:	55fd                	li	a1,-1
e00027b8:	00052223          	sw	zero,4(a0)
e00027bc:	0089                	addi	ra,ra,2
e00027be:	c10c1513          	0xc10c1513
e00027c2:	05932683          	lw	a3,89(t1)
e00027c6:	0430                	addi	a2,sp,520
e00027c8:	0106                	slli	sp,sp,0x1
e00027ca:	4605                	li	a2,1
e00027cc:	458d                	li	a1,3
e00027ce:	83632603          	lw	a2,-1994(t1)
e00027d2:	00c6                	slli	ra,ra,0x11
e00027d4:	e219                	bnez	a2,e00027da <HMAC_SMOKETEST_CLEAR+0x21de>
e00027d6:	00c96513          	ori	a0,s2,12
e00027da:	8d4d                	or	a0,a0,a1
e00027dc:	c988                	sw	a0,16(a1)
e00027de:	4008                	lw	a0,0(s0)
e00027e0:	0805                	addi	a6,a6,1
e00027e2:	400c                	lw	a1,0(s0)
e00027e4:	0005                	c.addi	zero,1
e00027e6:	8526                	mv	a0,s1
e00027e8:	4481                	li	s1,0
e00027ea:	44d22223          	sw	a3,1092(tp) # 444 <_min_stack-0x1bbc>
e00027ee:	4462                	lw	s0,24(sp)
e00027f0:	49b2                	lw	s3,12(sp)
e00027f2:	4942                	lw	s2,16(sp)
e00027f4:	8082                	ret
e00027f6:	cd19                	beqz	a0,e0002814 <HMAC_SMOKETEST_CLEAR+0x2218>
e00027f8:	40f2                	lw	ra,28(sp)
e00027fa:	6105                	addi	sp,sp,32
e00027fc:	8a85                	andi	a3,a3,1
e00027fe:	fef5                	bnez	a3,e00027fa <HMAC_SMOKETEST_CLEAR+0x21fe>
e0002800:	4110                	lw	a2,0(a0)
e0002802:	4a54                	lw	a3,20(a2)
e0002804:	e299                	bnez	a3,e000280a <HMAC_SMOKETEST_CLEAR+0x220e>
e0002806:	ce4c                	sw	a1,28(a2)
e0002808:	4a54                	lw	a3,20(a2)
e000280a:	8a85                	andi	a3,a3,1
e000280c:	8921                	andi	a0,a0,8
e000280e:	dd75                	beqz	a0,e000280a <HMAC_SMOKETEST_CLEAR+0x220e>
e0002810:	4110                	lw	a2,0(a0)
e0002812:	4a48                	lw	a0,20(a2)
e0002814:	450d                	li	a0,3
e0002816:	8082                	ret
e0002818:	4501                	li	a0,0
e000281a:	8082                	ret
e000281c:	c426                	sw	s1,8(sp)
e000281e:	c24a                	sw	s2,4(sp)
e0002820:	1141                	addi	sp,sp,-16
e0002822:	c622                	sw	s0,12(sp)
e0002824:	4e01                	li	t3,0
e0002826:	4e81                	li	t4,0
e0002828:	4881                	li	a7,0
e000282a:	4801                	li	a6,0
e000282c:	42fd                	li	t0,31
e000282e:	07939313          	0x7939313
e0002832:	03f0                	addi	a2,sp,460
e0002834:	fe078493          	addi	s1,a5,-32 # a83a3fe2 <tohost+0xa8383fda>
e0002838:	0015                	c.addi	zero,5
e000283a:	53fd                	li	t2,-1
e000283c:	0095df33          	srl	t5,a1,s1
e0002840:	0004c563          	bltz	s1,e000284a <HMAC_SMOKETEST_CLEAR+0x224e>
e0002844:	00f5                	addi	ra,ra,29
e0002846:	a8098433          	0xa8098433
e000284a:	008354b3          	srl	s1,t1,s0
e000284e:	40f2ef33          	0x40f2ef33
e0002852:	01fe1433          	sll	s0,t3,t6
e0002856:	00849413          	slli	s0,s1,0x8
e000285a:	00945493          	srli	s1,s0,0x9
e000285e:	001e1493          	slli	s1,t3,0x1
e0002862:	001f6eb3          	or	t4,t5,ra
e0002866:	001e6f33          	or	t5,t3,ra
e000286a:	00de7413          	andi	s0,t3,13
e000286e:	0094be33          	sltu	t3,s1,s1
e0002872:	3e338563          	beq	t2,gp,e0002c5c <HMAC_SMOKETEST_CLEAR+0x2660>
e0002876:	00de00cf          	fnmadd.s	ft1,ft8,fa3,ft0,rne
e000287a:	a019                	j	e0002880 <HMAC_SMOKETEST_CLEAR+0x2284>
e000287c:	4901                	li	s2,0
e000287e:	4481                	li	s1,0
e0002880:	001e4f93          	xori	t6,t3,1
e0002884:	8936                	mv	s2,a3
e0002886:	84b2                	mv	s1,a2
e0002888:	000e1463          	bnez	t3,e0002890 <HMAC_SMOKETEST_CLEAR+0x2294>
e000288c:	00181413          	slli	s0,a6,0x1
e0002890:	01f8de13          	srli	t3,a7,0x1f
e0002894:	0886                	slli	a7,a7,0x1
e0002896:	68330e33          	0x68330e33
e000289a:	01c4                	addi	s1,sp,196
e000289c:	009f 8433 409f      	0x409f8433009f
e00028a2:	409434b3          	0x409434b3
e00028a6:	17fd                	addi	a5,a5,-1
e00028a8:	412e                	lw	sp,200(sp)
e00028aa:	94e30eb3          	0x94e30eb3
e00028ae:	e8b3f877          	0xe8b3f877
e00028b2:	01f8                	addi	a4,sp,204
e00028b4:	222301c7          	fmsub.d	ft3,ft6,ft2,ft4,rne
e00028b8:	c709                	beqz	a4,e00028c2 <HMAC_SMOKETEST_CLEAR+0x22c6>
e00028ba:	85c22023          	sw	t3,-1984(tp) # fffff840 <pulp__FC+0xfffff841>
e00028be:	4912                	lw	s2,4(sp)
e00028c0:	854601d7          	0x854601d7
e00028c4:	0141                	addi	sp,sp,16
e00028c6:	8082                	ret
e00028c8:	44a2                	lw	s1,8(sp)
e00028ca:	4432                	lw	s0,12(sp)
e00028cc:	0015b713          	seqz	a4,a1
e00028d0:	00153693          	seqz	a3,a0
e00028d4:	4711                	li	a4,4
e00028d6:	86b2                	mv	a3,a2
e00028d8:	8ed9                	or	a3,a3,a4
e00028da:	eab5                	bnez	a3,e000294e <HMAC_SMOKETEST_CLEAR+0x2352>
e00028dc:	00a5c6b3          	xor	a3,a1,a0
e00028e0:	00e66c63          	bltu	a2,a4,e00028f8 <HMAC_SMOKETEST_CLEAR+0x22fc>
e00028e4:	8832                	mv	a6,a2
e00028e6:	86b2                	mv	a3,a2
e00028e8:	0036f793          	andi	a5,a3,3
e00028ec:	40a0                	lw	s0,64(s1)
e00028ee:	8a8d                	andi	a3,a3,3
e00028f0:	eb91                	bnez	a5,e0002904 <HMAC_SMOKETEST_CLEAR+0x2308>
e00028f2:	9b7106b3          	0x9b7106b3
e00028f6:	07330833          	0x7330833
e00028fa:	40d6                	lw	ra,84(sp)
e00028fc:	4781                	li	a5,0
e00028fe:	00d78733          	add	a4,a5,a3
e0002902:	c6b9                	beqz	a3,e0002950 <HMAC_SMOKETEST_CLEAR+0x2354>
e0002904:	07330007          	0x7330007
e0002908:	00f5                	addi	ra,ra,29
e000290a:	00230883          	lb	a7,2(t1)
e000290e:	00f50117          	auipc	sp,0xf50
e0002912:	0785                	addi	a5,a5,1
e0002914:	0106fb63          	bleu	a6,a3,e000292a <HMAC_SMOKETEST_CLEAR+0x232e>
e0002918:	fef697e3          	bne	a3,a5,e0002906 <HMAC_SMOKETEST_CLEAR+0x230a>
e000291c:	4318                	lw	a4,0(a4)
e000291e:	873307b3          	0x873307b3
e0002922:	00d5                	addi	ra,ra,21
e0002924:	c398                	sw	a4,0(a5)
e0002926:	00d5e9e3          	bltu	a1,a3,e0003138 <HMAC_SMOKETEST_CLEAR+0x2b3c>
e000292a:	0691                	addi	a3,a3,4
e000292c:	00c6                	slli	ra,ra,0x11
e000292e:	8e15                	sub	a2,a2,a3
e0002930:	ff06                	fsw	ft1,188(sp)
e0002932:	95b6fe63          	bleu	s11,a3,e0001a8e <HMAC_SMOKETEST_CLEAR+0x1492>
e0002936:	07338683          	lb	a3,115(t2)
e000293a:	00d5                	addi	ra,ra,21
e000293c:	167d00d7          	0x167d00d7
e0002940:	0005                	c.addi	zero,1
e0002942:	fa6d0023          	sb	t1,-96(s10)
e0002946:	8082                	ret
e0002948:	0705                	addi	a4,a4,1
e000294a:	0585                	addi	a1,a1,1
e000294c:	fd06                	fsw	ft1,184(sp)
e000294e:	bff1                	j	e000292a <HMAC_SMOKETEST_CLEAR+0x232e>
e0002950:	4681                	li	a3,0
e0002952:	6663e7e3          	bltu	t2,t1,e00037c0 <HMAC_SMOKETEST_CLEAR+0x31c4>
e0002956:	00d6                	slli	ra,ra,0x15
e0002958:	4691                	li	a3,4
e000295a:	8732                	mv	a4,a2
e000295c:	0036f713          	andi	a4,a3,3
e0002960:	40a006b3          	neg	a3,a0
e0002964:	ffc6f813          	andi	a6,a3,-4
e0002968:	40e606b3          	sub	a3,a2,a4
e000296c:	86ba                	mv	a3,a4
e000296e:	cb018023          	sb	a6,-864(gp)
e0002972:	87aa                	mv	a5,a0
e0002974:	0785                	addi	a5,a5,1
e0002976:	fee5                	bnez	a3,e000296e <HMAC_SMOKETEST_CLEAR+0x2372>
e0002978:	16fd00b7          	lui	ra,0x16fd0
e000297c:	00e808b3          	add	a7,a6,a4
e0002980:	02080263          	beqz	a6,e00029a4 <HMAC_SMOKETEST_CLEAR+0x23a8>
e0002984:	010107b7          	lui	a5,0x1010
e0002988:	0ff5f813          	andi	a6,a1,255
e000298c:	02f807b3          	mul	a5,a6,a5
e0002990:	10178793          	addi	a5,a5,257 # 1010101 <tohost+0xff00f9>
e0002994:	0711                	addi	a4,a4,4
e0002996:	c29c                	sw	a5,0(a3)
e0002998:	00e506b3          	add	a3,a0,a4
e000299c:	00c77a63          	bleu	a2,a4,e00029b0 <HMAC_SMOKETEST_CLEAR+0x23b4>
e00029a0:	ff176ce3          	bltu	a4,a7,e0002998 <HMAC_SMOKETEST_CLEAR+0x239c>
e00029a4:	00e5                	addi	ra,ra,25
e00029a6:	8e198023          	sb	ra,-1824(s3)
e00029aa:	068506b3          	0x68506b3
e00029ae:	fe65                	bnez	a2,e00029a6 <HMAC_SMOKETEST_CLEAR+0x23aa>
e00029b0:	00b6                	slli	ra,ra,0xd
e00029b2:	167d                	addi	a2,a2,-1
e00029b4:	8eb2                	mv	t4,a2
e00029b6:	80826663          	bltu	tp,s0,e00019c2 <HMAC_SMOKETEST_CLEAR+0x13c6>
e00029ba:	4691                	li	a3,4
e00029bc:	40a0                	lw	s0,64(s1)
e00029be:	00d6fe93          	andi	t4,a3,13
e00029c2:	0ff506b3          	0xff506b3
e00029c6:	00368b63          	beq	a3,gp,e00029dc <HMAC_SMOKETEST_CLEAR+0x23e0>
e00029ca:	87f6fe13          	andi	t3,a3,-1921
e00029ce:	000ec683          	lbu	a3,0(t4)
e00029d2:	85aa                	mv	a1,a0
e00029d4:	09c6                	slli	s3,s3,0x11
e00029d6:	17fd                	addi	a5,a5,-1
e00029d8:	0005                	c.addi	zero,1
e00029da:	05b38563          	beq	t2,s11,e0002a24 <HMAC_SMOKETEST_CLEAR+0x2428>
e00029de:	41d6                	lw	gp,84(sp)
e00029e0:	0585                	addi	a1,a1,1
e00029e2:	fbf5                	bnez	a5,e00029d6 <HMAC_SMOKETEST_CLEAR+0x23da>
e00029e4:	01d58833          	add	a6,a1,t4
e00029e8:	99f1                	andi	a1,a1,-4
e00029ea:	c9a9                	beqz	a1,e0002a3c <HMAC_SMOKETEST_CLEAR+0x2440>
e00029ec:	10158593          	addi	a1,a1,257
e00029f0:	010105b7          	lui	a1,0x1010
e00029f4:	0ff00893          	li	a7,255
e00029f8:	02be02b3          	mul	t0,t3,a1
e00029fc:	f005                	bnez	s0,e000291c <HMAC_SMOKETEST_CLEAR+0x2320>
e00029fe:	65c10337          	lui	t1,0x65c10
e0002a02:	01d58393          	addi	t2,a1,29 # 101001d <tohost+0xff0015>
e0002a06:	4194                	lw	a3,0(a1)
e0002a08:	00ff                	0xff
e0002a0a:	c69305b3          	p.extract	a1,t1,3,9
e0002a0e:	c7b3fff7          	0xc7b3fff7
e0002a12:	0056                	0x56
e0002a14:	05170463          	beq	a4,a7,e0002a5c <HMAC_SMOKETEST_CLEAR+0x2460>
e0002a18:	0ff6f713          	andi	a4,a3,255
e0002a1c:	02770b63          	beq	a4,t2,e0002a52 <HMAC_SMOKETEST_CLEAR+0x2456>
e0002a20:	0076f733          	and	a4,a3,t2
e0002a24:	02668963          	beq	a3,t1,e0002a56 <HMAC_SMOKETEST_CLEAR+0x245a>
e0002a28:	0066f6b3          	and	a3,a3,t1
e0002a2c:	c69d                	beqz	a3,e0002a5a <HMAC_SMOKETEST_CLEAR+0x245e>
e0002a2e:	0e91                	addi	t4,t4,4
e0002a30:	0187d693          	srli	a3,a5,0x18
e0002a34:	00cefd63          	bleu	a2,t4,e0002a4e <HMAC_SMOKETEST_CLEAR+0x2452>
e0002a38:	fd0ee9e3          	bltu	t4,a6,e0002a0a <HMAC_SMOKETEST_CLEAR+0x240e>
e0002a3c:	01d505b3          	add	a1,a0,t4
e0002a40:	41d60633          	sub	a2,a2,t4
e0002a44:	01c50c63          	beq	a0,t3,e0002a5c <HMAC_SMOKETEST_CLEAR+0x2460>
e0002a48:	0005c503          	lbu	a0,0(a1)
e0002a4c:	fa75                	bnez	a2,e0002a40 <HMAC_SMOKETEST_CLEAR+0x2444>
e0002a4e:	4581                	li	a1,0
e0002a50:	167d                	addi	a2,a2,-1
e0002a52:	0585                	addi	a1,a1,1
e0002a54:	a021                	j	e0002a5c <HMAC_SMOKETEST_CLEAR+0x2460>
e0002a56:	0589                	addi	a1,a1,2
e0002a58:	a031                	j	e0002a64 <HMAC_SMOKETEST_CLEAR+0x2468>
e0002a5a:	0585                	addi	a1,a1,1
e0002a5c:	852e                	mv	a0,a1
e0002a5e:	8082                	ret
e0002a60:	a011                	j	e0002a64 <HMAC_SMOKETEST_CLEAR+0x2468>
e0002a62:	058d                	addi	a1,a1,3
e0002a64:	00d66663          	bltu	a2,a3,e0002a70 <HMAC_SMOKETEST_CLEAR+0x2474>
e0002a68:	4691                	li	a3,4
e0002a6a:	8332                	mv	t1,a2
e0002a6c:	0036f313          	andi	t1,a3,3
e0002a70:	40a006b3          	neg	a3,a0
e0002a74:	9af1                	andi	a3,a3,-4
e0002a76:	06b387b3          	0x6b387b3
e0002a7a:	4066                	0x4066
e0002a7c:	00f66363          	bltu	a2,a5,e0002a82 <HMAC_SMOKETEST_CLEAR+0x2486>
e0002a80:	0066                	0x66
e0002a82:	86b2                	mv	a3,a2
e0002a84:	0ff5                	addi	t6,t6,29
e0002a86:	86befd63          	bleu	a1,t4,e0001b00 <HMAC_SMOKETEST_CLEAR+0x1504>
e0002a8a:	00c5f393          	andi	t2,a1,12
e0002a8e:	00c74583          	lbu	a1,12(a4)
e0002a92:	fff60733          	p.extract	a4,a2,31,31
e0002a96:	863a                	mv	a2,a4
e0002a98:	0713fff7          	0x713fff7
e0002a9c:	953a                	add	a0,a0,a4
e0002a9e:	8082                	ret
e0002aa0:	fe7597e3          	bne	a1,t2,e0002a8e <HMAC_SMOKETEST_CLEAR+0x2492>
e0002aa4:	10158593          	addi	a1,a1,257
e0002aa8:	010105b7          	lui	a1,0x1010
e0002aac:	00ff0837          	lui	a6,0xff0
e0002ab0:	02b382b3          	mul	t0,t2,a1
e0002ab4:	f005                	bnez	s0,e00029d4 <HMAC_SMOKETEST_CLEAR+0x23d8>
e0002ab6:	65c10893          	addi	a7,sp,1628 # e0f52f6a <fromhost+0xf42f5a>
e0002aba:	04d38793          	addi	a5,t2,77
e0002abe:	0ff00633          	0xff00633
e0002ac2:	ffc67563          	bleu	t3,a2,e00022ac <HMAC_SMOKETEST_CLEAR+0x1cb0>
e0002ac6:	00d5c733          	xor	a4,a1,a3
e0002aca:	01872583          	lw	a1,24(a4)
e0002ace:	cd95                	beqz	a1,e0002b0a <HMAC_SMOKETEST_CLEAR+0x250e>
e0002ad0:	0055                	c.addi	zero,21
e0002ad2:	75b35593          	0x75b35593
e0002ad6:	47130107          	0x47130107
e0002ada:	75b3fff7          	0x75b3fff7
e0002ade:	8c6300f7          	0x8c6300f7
e0002ae2:	0305                	addi	t1,t1,1
e0002ae4:	0ff77593          	andi	a1,a4,255
e0002ae8:	02f58b63          	beq	a1,a5,e0002b1e <HMAC_SMOKETEST_CLEAR+0x2522>
e0002aec:	fd15                	bnez	a0,e0002a28 <HMAC_SMOKETEST_CLEAR+0x242c>
e0002aee:	9536                	add	a0,a0,a3
e0002af0:	16f1                	addi	a3,a3,-4
e0002af2:	00d598e3          	bne	a1,a3,e0003302 <HMAC_SMOKETEST_CLEAR+0x2d06>
e0002af6:	8082c583          	lbu	a1,-2040(t0)
e0002afa:	fff605b3          	p.extract	a1,a2,31,31
e0002afe:	86b2                	mv	a3,a2
e0002b00:	fff5                	bnez	a5,e0002afc <HMAC_SMOKETEST_CLEAR+0x2500>
e0002b02:	f6fd8613          	addi	a2,s11,-145
e0002b06:	4501                	li	a0,0
e0002b08:	00758e63          	beq	a1,t2,e0002b24 <HMAC_SMOKETEST_CLEAR+0x2528>
e0002b0c:	fff6                	fsw	ft9,252(sp)
e0002b0e:	8082                	ret
e0002b10:	8082                	ret
e0002b12:	80820513          	addi	a0,tp,-2040 # fffff808 <pulp__FC+0xfffff809>
e0002b16:	05130513          	addi	a0,t1,81 # 65c10051 <tohost+0x65bf0049>
e0002b1a:	ffe6                	fsw	fs9,252(sp)
e0002b1c:	9532                	add	a0,a0,a2
e0002b1e:	8082                	ret
e0002b20:	ffd6                	fsw	fs5,252(sp)
e0002b22:	8082                	ret
e0002b24:	d422                	sw	s0,40(sp)
e0002b26:	d226                	sw	s1,36(sp)
e0002b28:	7179                	addi	sp,sp,-48
e0002b2a:	d606                	sw	ra,44(sp)
e0002b2c:	cc52                	sw	s4,24(sp)
e0002b2e:	ca56                	sw	s5,20(sp)
e0002b30:	d04a                	sw	s2,32(sp)
e0002b32:	ce4e                	sw	s3,28(sp)
e0002b34:	c462                	sw	s8,8(sp)
e0002b36:	c266                	sw	s9,4(sp)
e0002b38:	c85a                	sw	s6,16(sp)
e0002b3a:	c65e                	sw	s7,12(sp)
e0002b3c:	89b6                	mv	s3,a3
e0002b3e:	84ae                	mv	s1,a1
e0002b40:	8abe                	mv	s5,a5
e0002b42:	8b3a                	mv	s6,a4
e0002b44:	0026                	0x26
e0002b46:	854a                	mv	a0,s2
e0002b48:	8a2a                	mv	s4,a0
e0002b4a:	04631913          	0x4631913
e0002b4e:	1c05                	addi	s8,s8,-31
e0002b50:	2575                	jal	e00031fc <HMAC_SMOKETEST_CLEAR+0x2c00>
e0002b52:	5bfd                	li	s7,-1
e0002b54:	04c0                	addi	s0,sp,580
e0002b56:	2d79                	jal	e00031f4 <HMAC_SMOKETEST_CLEAR+0x2bf8>
e0002b58:	842a                	mv	s0,a0
e0002b5a:	d9000513          	li	a0,-624
e0002b5e:	c1210533          	p.extract	a0,sp,0,18
e0002b62:	8c2a                	mv	s8,a0
e0002b64:	cc8d                	beqz	s1,e0002b9e <HMAC_SMOKETEST_CLEAR+0x25a2>
e0002b66:	4601                	li	a2,0
e0002b68:	0089                	addi	ra,ra,2
e0002b6a:	1571                	addi	a0,a0,-4
e0002b6c:	00c486b3          	add	a3,s1,a2
e0002b70:	034c0593          	addi	a1,s8,52 # 9034 <_stack_len+0x1034>
e0002b74:	00c587b3          	add	a5,a1,a2
e0002b78:	00068703          	lb	a4,0(a3)
e0002b7c:	0006c683          	lbu	a3,0(a3)
e0002b80:	00e78023          	sb	a4,0(a5)
e0002b84:	ff160713          	addi	a4,a2,-15
e0002b88:	0016b693          	seqz	a3,a3
e0002b8c:	8ed90017          	auipc	zero,0x8ed90
e0002b90:	0605                	addi	a2,a2,1
e0002b92:	040c3713          	sltiu	a4,s8,64
e0002b96:	a031                	j	e0002ba2 <HMAC_SMOKETEST_CLEAR+0x25a6>
e0002b98:	def1                	beqz	a3,e0002b74 <HMAC_SMOKETEST_CLEAR+0x2578>
e0002b9a:	aaa501a3          	sb	a0,-1373(a0)
e0002b9e:	85220a23          	sb	s2,-1964(tp) # fffff854 <pulp__FC+0xfffff855>
e0002ba2:	2df1                	jal	e000327e <HMAC_SMOKETEST_CLEAR+0x2c82>
e0002ba4:	ff057493          	andi	s1,a0,-16
e0002ba8:	020c                	addi	a1,sp,256
e0002baa:	4591                	li	a1,4
e0002bac:	4b11                	li	s6,4
e0002bae:	63632623          	sw	s6,1580(t1)
e0002bb2:	004c00bb          	0x4c00bb
e0002bb6:	854a                	mv	a0,s2
e0002bb8:	036c                	addi	a1,sp,396
e0002bba:	018c0913          	addi	s2,s8,24
e0002bbe:	2539                	jal	e00031cc <HMAC_SMOKETEST_CLEAR+0x2bd0>
e0002bc0:	2d11                	jal	e00031d4 <HMAC_SMOKETEST_CLEAR+0x2bd8>
e0002bc2:	45150513          	addi	a0,a0,1105
e0002bc6:	28230533          	0x28230533
e0002bca:	018c                	addi	a1,sp,192
e0002bcc:	00ac                	addi	a1,sp,72
e0002bce:	41652223          	sw	s6,1028(a0)
e0002bd2:	040c2c23          	sw	zero,88(s8)
e0002bd6:	038c0423          	sb	s8,40(s8)
e0002bda:	85d22223          	sw	t4,-1980(tp) # fffff844 <pulp__FC+0xfffff845>
e0002bde:	864e                	mv	a2,s3
e0002be0:	040c                	addi	a1,sp,512
e0002be2:	8526                	mv	a0,s1
e0002be4:	00ac2023          	sw	a0,0(s8)
e0002be8:	fb5fd0ef          	jal	ra,e0000b9c <HMAC_SMOKETEST_CLEAR+0x5a0>
e0002bec:	018aa023          	sw	s8,0(s5)
e0002bf0:	000a8463          	beqz	s5,e0002bf8 <HMAC_SMOKETEST_CLEAR+0x25fc>
e0002bf4:	f0000a97          	auipc	s5,0xf0000
e0002bf8:	30047073          	csrci	mstatus,8
e0002bfc:	000aa503          	lw	a0,0(s5) # d0002bf4 <tohost+0xcffe2bec>
e0002c00:	a98a8a93          	addi	s5,s5,-1384
e0002c04:	a78b0b13          	addi	s6,s6,-1416
e0002c08:	f0000b17          	auipc	s6,0xf0000
e0002c0c:	416c000b          	p.lb	zero,1046(s8!)
e0002c10:	c901                	beqz	a0,e0002c20 <HMAC_SMOKETEST_CLEAR+0x2624>
e0002c12:	25032503          	lw	a0,592(t1)
e0002c16:	0585000b          	p.lb	zero,88(a0!)
e0002c1a:	c16c                	sw	a1,68(a0)
e0002c1c:	a7050513          	addi	a0,a0,-1424
e0002c20:	f0000517          	auipc	a0,0xf0000
e0002c24:	c10c                	sw	a1,0(a0)
e0002c26:	410c2583          	lw	a1,1040(s8)
e0002c2a:	0585                	addi	a1,a1,1
e0002c2c:	f000                	fsw	fs0,32(s0)
e0002c2e:	000b8c93          	mv	s9,s7
e0002c32:	a5030c97          	auipc	s9,0xa5030
e0002c36:	000a                	0xa
e0002c38:	aaac                	fsd	fa1,80(a3)
e0002c3a:	cd91                	beqz	a1,e0002c56 <HMAC_SMOKETEST_CLEAR+0x265a>
e0002c3c:	5548000b          	p.lb	zero,1364(a6!) # ff0554 <tohost+0xfd054c>
e0002c40:	e149                	bnez	a0,e0002cc2 <HMAC_SMOKETEST_CLEAR+0x26c6>
e0002c42:	eb632503          	lw	a0,-330(t1)
e0002c46:	06a5                	addi	a3,a3,9
e0002c48:	02cc2583          	lw	a1,44(s8)
e0002c4c:	a0bd                	j	e0002cba <HMAC_SMOKETEST_CLEAR+0x26be>
e0002c4e:	20232023          	sw	sp,512(t1)
e0002c52:	4585018b          	p.lb	gp,1112(a0!) # d0003078 <tohost+0xcffe3070>
e0002c56:	018b1263          	bne	s6,s8,e0002c5a <HMAC_SMOKETEST_CLEAR+0x265e>
e0002c5a:	4108                	lw	a0,0(a0)
e0002c5c:	06400493          	li	s1,100
e0002c60:	06b5                	addi	a3,a3,13
e0002c62:	4401                	li	s0,0
e0002c64:	2b91                	jal	e00031b8 <HMAC_SMOKETEST_CLEAR+0x2bbc>
e0002c66:	0451                	addi	s0,s0,20
e0002c68:	01940533          	add	a0,s0,s9
e0002c6c:	f0000997          	auipc	s3,0xf0000
e0002c70:	fe941ce3          	bne	s0,s1,e0002c68 <HMAC_SMOKETEST_CLEAR+0x266c>
e0002c74:	854e                	mv	a0,s3
e0002c76:	2389                	jal	e00031b8 <HMAC_SMOKETEST_CLEAR+0x2bbc>
e0002c78:	b0898993          	addi	s3,s3,-1272 # d0002774 <tohost+0xcffe276c>
e0002c7c:	b10a0a13          	addi	s4,s4,-1264
e0002c80:	f0000a17          	auipc	s4,0xf0000
e0002c84:	f0000517          	auipc	a0,0xf0000
e0002c88:	8552                	mv	a0,s4
e0002c8a:	2b1d                	jal	e00031c0 <HMAC_SMOKETEST_CLEAR+0x2bc4>
e0002c8c:	2335                	jal	e00031b8 <HMAC_SMOKETEST_CLEAR+0x2bbc>
e0002c8e:	05130517          	auipc	a0,0x5130
e0002c92:	adc5                	j	e0003382 <HMAC_SMOKETEST_CLEAR+0x2d86>
e0002c94:	aaa5                	j	e0002e0c <HMAC_SMOKETEST_CLEAR+0x2810>
e0002c96:	230d                	jal	e00031b8 <HMAC_SMOKETEST_CLEAR+0x2bbc>
e0002c98:	f000                	fsw	fs0,32(s0)
e0002c9a:	05130513          	addi	a0,t1,81
e0002c9e:	ab45                	j	e000324e <HMAC_SMOKETEST_CLEAR+0x2c52>
e0002ca0:	f0000517          	auipc	a0,0xf0000
e0002ca4:	f000                	fsw	fs0,32(s0)
e0002ca6:	2b210513          	addi	a0,sp,690
e0002caa:	01350517          	auipc	a0,0x1350
e0002cae:	9ee50517          	auipc	a0,0x9ee50
e0002cb2:	9e652023          	sw	t1,-1568(a0) # 7ee5268e <tohost+0x7ee32686>
e0002cb6:	f0002023          	sw	zero,-256(zero) # ffffff00 <pulp__FC+0xffffff01>
e0002cba:	f0000513          	li	a0,-256
e0002cbe:	01450513          	addi	a0,a0,20
e0002cc2:	05850517          	auipc	a0,0x5850
e0002cc6:	c10c                	sw	a1,0(a0)
e0002cc8:	9c65                	0x9c65
e0002cca:	410c                	lw	a1,0(a0)
e0002ccc:	f0000597          	auipc	a1,0xf0000
e0002cd0:	02cc2503          	lw	a0,44(s8)
e0002cd4:	4190                	lw	a2,0(a1)
e0002cd6:	4b85                	li	s7,1
e0002cd8:	9b058593          	addi	a1,a1,-1616 # d000267c <tohost+0xcffe2674>
e0002cdc:	8e55                	or	a2,a2,a3
e0002cde:	c190                	sw	a2,0(a1)
e0002ce0:	00ab96b3          	sll	a3,s7,a0
e0002ce4:	02b5                	addi	t0,t0,13
e0002ce6:	9566                	add	a0,a0,s9
e0002ce8:	45d1                	li	a1,20
e0002cea:	00bc0533          	add	a0,s8,a1
e0002cee:	4590                	lw	a2,8(a1)
e0002cf0:	414c                	lw	a1,4(a0)
e0002cf2:	45902423          	sw	s9,1096(zero) # 448 <_min_stack-0x1bb8>
e0002cf6:	26232223          	sw	sp,612(t1)
e0002cfa:	00cc                	addi	a1,sp,68
e0002cfc:	0125                	addi	sp,sp,9
e0002cfe:	01262a23          	sw	s2,20(a2)
e0002d02:	0585a423          	sw	s8,72(a1)
e0002d06:	c10c                	sw	a1,0(a0)
e0002d08:	00ac                	addi	a1,sp,72
e0002d0a:	410c                	lw	a1,0(a0)
e0002d0c:	000a                	0xa
e0002d0e:	c119                	beqz	a0,e0002d14 <HMAC_SMOKETEST_CLEAR+0x2718>
e0002d10:	2025                	jal	e0002d38 <HMAC_SMOKETEST_CLEAR+0x273c>
e0002d12:	855ea503          	lw	a0,-1963(t4)
e0002d16:	4c92                	lw	s9,4(sp)
e0002d18:	000b2503          	lw	a0,0(s6) # d0002c08 <tohost+0xcffe2c00>
e0002d1c:	4b42                	lw	s6,16(sp)
e0002d1e:	4ad2                	lw	s5,20(sp)
e0002d20:	4c22                	lw	s8,8(sp)
e0002d22:	4bb2                	lw	s7,12(sp)
e0002d24:	5902                	lw	s2,32(sp)
e0002d26:	5492                	lw	s1,36(sp)
e0002d28:	4a62                	lw	s4,24(sp)
e0002d2a:	49f2                	lw	s3,28(sp)
e0002d2c:	6145                	addi	sp,sp,48
e0002d2e:	8082                	ret
e0002d30:	5422                	lw	s0,40(sp)
e0002d32:	50b2                	lw	ra,44(sp)
e0002d34:	95c50513          	addi	a0,a0,-1700 # e585261e <fromhost+0x584260e>
e0002d38:	f0000517          	auipc	a0,0xf0000
e0002d3c:	f0000517          	auipc	a0,0xf0000
e0002d40:	4108                	lw	a0,0(a0)
e0002d42:	cd19                	beqz	a0,e0002d60 <HMAC_SMOKETEST_CLEAR+0x2764>
e0002d44:	410c                	lw	a1,0(a0)
e0002d46:	41ec                	lw	a1,68(a1)
e0002d48:	93c50513          	addi	a0,a0,-1732 # d0002678 <tohost+0xcffe2670>
e0002d4c:	41f0                	lw	a2,68(a1)
e0002d4e:	167d                	addi	a2,a2,-1
e0002d50:	c981                	beqz	a1,e0002d60 <HMAC_SMOKETEST_CLEAR+0x2764>
e0002d52:	410c                	lw	a1,0(a0)
e0002d54:	4168                	lw	a0,68(a0)
e0002d56:	c111                	beqz	a0,e0002d5a <HMAC_SMOKETEST_CLEAR+0x275e>
e0002d58:	c1f0                	sw	a2,68(a1)
e0002d5a:	4108                	lw	a0,0(a0)
e0002d5c:	3004                	fld	fs1,32(s0)
e0002d5e:	8082                	ret
e0002d60:	8082                	ret
e0002d62:	c4226073          	csrsi	0xc42,4
e0002d66:	11410517          	auipc	a0,0x11410
e0002d6a:	c606                	sw	ra,12(sp)
e0002d6c:	9325                	srli	a4,a4,0x29
e0002d6e:	4108                	lw	a0,0(a0)
e0002d70:	f000                	fsw	fs0,32(s0)
e0002d72:	f0000513          	li	a0,-256
e0002d76:	c9010513          	addi	a0,sp,-880
e0002d7a:	c10c0517          	auipc	a0,0xc10c0
e0002d7e:	a0d9                	j	e0002e44 <HMAC_SMOKETEST_CLEAR+0x2848>
e0002d80:	92a5                	srli	a3,a3,0x29
e0002d82:	4585                	li	a1,1
e0002d84:	91c50513          	addi	a0,a0,-1764 # a10c2696 <tohost+0xa10a268e>
e0002d88:	f0000517          	auipc	a0,0xf0000
e0002d8c:	f0000417          	auipc	s0,0xf0000
e0002d90:	00052023          	sw	zero,0(a0) # d0002d88 <tohost+0xcffe2d80>
e0002d94:	4008                	lw	a0,0(s0)
e0002d96:	4108                	lw	a0,0(a0)
e0002d98:	8ec40413          	addi	s0,s0,-1812 # d0002678 <tohost+0xcffe2670>
e0002d9c:	00a5e863          	bltu	a1,a0,e0002dac <HMAC_SMOKETEST_CLEAR+0x27b0>
e0002da0:	400c                	lw	a1,0(s0)
e0002da2:	598c                	lw	a1,48(a1)
e0002da4:	03458593          	addi	a1,a1,52
e0002da8:	4008                	lw	a0,0(s0)
e0002daa:	400c                	lw	a1,0(s0)
e0002dac:	f0000517          	auipc	a0,0xf0000
e0002db0:	d49fe0ef          	jal	ra,e0001af8 <HMAC_SMOKETEST_CLEAR+0x14fc>
e0002db4:	4108                	lw	a0,0(a0)
e0002db6:	05135593          	0x5135593
e0002dba:	8d05                	sub	a0,a0,s1
e0002dbc:	00255593          	srli	a1,a0,0x2
e0002dc0:	0015                	c.addi	zero,5
e0002dc2:	8d4d                	or	a0,a0,a1
e0002dc4:	0045                	c.addi	zero,17
e0002dc6:	8d4d                	or	a0,a0,a1
e0002dc8:	8d4d                	or	a0,a0,a1
e0002dca:	8d4d5593          	0x8d4d5593
e0002dce:	55935593          	0x55935593
e0002dd2:	0085                	addi	ra,ra,1
e0002dd4:	fff54513          	not	a0,a0
e0002dd8:	0105                	addi	sp,sp,1
e0002dda:	8d4d                	or	a0,a0,a1
e0002ddc:	55555637          	lui	a2,0x55555
e0002de0:	00155593          	srli	a1,a0,0x1
e0002de4:	8df1                	and	a1,a1,a2
e0002de6:	8d0d                	sub	a0,a0,a1
e0002de8:	55560613          	addi	a2,a2,1365 # 55555555 <tohost+0x5553554d>
e0002dec:	33358593          	addi	a1,a1,819
e0002df0:	333335b7          	lui	a1,0x33333
e0002df4:	8109                	srli	a0,a0,0x2
e0002df6:	8d6d                	and	a0,a0,a1
e0002df8:	00b57633          	and	a2,a0,a1
e0002dfc:	0045                	c.addi	zero,17
e0002dfe:	952e                	add	a0,a0,a1
e0002e00:	9532                	add	a0,a0,a2
e0002e02:	85935593          	0x85935593
e0002e06:	f0f5                	bnez	s1,e0002dea <HMAC_SMOKETEST_CLEAR+0x27ee>
e0002e08:	0f0f15b7          	lui	a1,0xf0f1
e0002e0c:	0101                	addi	sp,sp,0
e0002e0e:	8d6d8593          	addi	a1,s11,-1834
e0002e12:	02b505b7          	lui	a1,0x2b50
e0002e16:	8161                	srli	a0,a0,0x18
e0002e18:	1015                	c.addi	zero,-27
e0002e1a:	45d10533          	0x45d10533
e0002e1e:	45130533          	0x45130533
e0002e22:	01f5                	addi	gp,gp,29
e0002e24:	f000                	fsw	fs0,32(s0)
e0002e26:	02b58593          	addi	a1,a1,43 # 2b5002b <tohost+0x2b30023>
e0002e2a:	41c80597          	auipc	a1,0x41c80
e0002e2e:	4148                	lw	a0,4(a0)
e0002e30:	8b25                	andi	a4,a4,9
e0002e32:	95aa                	add	a1,a1,a0
e0002e34:	c1c8                	sw	a0,4(a1)
e0002e36:	86131563          	bne	t1,ra,e0001ea0 <HMAC_SMOKETEST_CLEAR+0x18a4>
e0002e3a:	0085                	addi	ra,ra,1
e0002e3c:	0591                	addi	a1,a1,4
e0002e3e:	c188                	sw	a0,0(a1)
e0002e40:	00c5                	addi	ra,ra,17
e0002e42:	4148                	lw	a0,4(a0)
e0002e44:	4422                	lw	s0,8(sp)
e0002e46:	40b2                	lw	ra,12(sp)
e0002e48:	4548                	lw	a0,12(a0)
e0002e4a:	c008                	sw	a0,0(s0)
e0002e4c:	1141                	addi	sp,sp,-16
e0002e4e:	c606                	sw	ra,12(sp)
e0002e50:	0141                	addi	sp,sp,16
e0002e52:	8082                	ret
e0002e54:	06250513          	addi	a0,a0,98 # d0002e0e <tohost+0xcffe2e06>
e0002e58:	00000517          	auipc	a0,0x0
e0002e5c:	7ec58593          	addi	a1,a1,2028 # 21c83616 <pulp__FC+0x21c83617>
e0002e60:	00001597          	auipc	a1,0x1
e0002e64:	84078793          	addi	a5,a5,-1984
e0002e68:	f0000797          	auipc	a5,0xf0000
e0002e6c:	4681                	li	a3,0
e0002e6e:	4701                	li	a4,0
e0002e70:	10000613          	li	a2,256
e0002e74:	02b51763          	bne	a0,a1,e0002ea2 <HMAC_SMOKETEST_CLEAR+0x28a6>
e0002e78:	3945                	jal	e0002b28 <HMAC_SMOKETEST_CLEAR+0x252c>
e0002e7a:	4585                	li	a1,1
e0002e7c:	f0000517          	auipc	a0,0xf0000
e0002e80:	30047073          	csrci	mstatus,8
e0002e84:	567d                	li	a2,-1
e0002e86:	c110                	sw	a2,0(a0)
e0002e88:	82850513          	addi	a0,a0,-2008 # d00026a4 <tohost+0xcffe269c>
e0002e8c:	80450513          	addi	a0,a0,-2044
e0002e90:	f0000517          	auipc	a0,0xf0000
e0002e94:	f000                	fsw	fs0,32(s0)
e0002e96:	c10c0513          	addi	a0,s8,-1008
e0002e9a:	00050517          	auipc	a0,0x50
e0002e9e:	8165e0ef          	jal	ra,dff60eb4 <tohost+0xdff40eac>
e0002ea2:	00002023          	sw	zero,0(zero) # 0 <_min_stack-0x2000>
e0002ea6:	c8bf0513          	addi	a0,t5,-885
e0002eaa:	40b21517          	auipc	a0,0x40b21
e0002eae:	0141                	addi	sp,sp,16
e0002eb0:	79e5                	lui	s3,0xffff9
e0002eb2:	4108                	lw	a0,0(a0)
e0002eb4:	ce06                	sw	ra,28(sp)
e0002eb6:	cc22                	sw	s0,24(sp)
e0002eb8:	8082                	ret
e0002eba:	1101                	addi	sp,sp,-32
e0002ebc:	c64e                	sw	s3,12(sp)
e0002ebe:	c452                	sw	s4,8(sp)
e0002ec0:	ca26                	sw	s1,20(sp)
e0002ec2:	c84a                	sw	s2,16(sp)
e0002ec4:	efff                	0xefff
e0002ec6:	c2568493          	addi	s1,a3,-987
e0002eca:	effff497          	auipc	s1,0xeffff
e0002ece:	7c240913          	addi	s2,s0,1986
e0002ed2:	f000f917          	auipc	s2,0xf000f
e0002ed6:	7c298993          	addi	s3,s3,1986 # ffff97c2 <pulp__FC+0xffff97c3>
e0002eda:	efff0997          	auipc	s3,0xefff0
e0002ede:	86690a13          	addi	s4,s2,-1946 # d0011738 <tohost+0xcfff1730>
e0002ee2:	effffa17          	auipc	s4,0xeffff
e0002ee6:	7aea8a93          	addi	s5,s5,1966
e0002eea:	c129fa97          	auipc	s5,0xc129f
e0002eee:	796a7073          	csrci	pccr22,20
e0002ef2:	4088                	lw	a0,0(s1)
e0002ef4:	0009                	c.addi	zero,2
e0002ef6:	c901                	beqz	a0,e0002f06 <HMAC_SMOKETEST_CLEAR+0x290a>
e0002ef8:	3004                	fld	fs1,32(s0)
e0002efa:	416c2503          	lw	a0,1046(s8)
e0002efe:	0585                	addi	a1,a1,1
e0002f00:	000aa503          	lw	a0,0(s5) # a12a1eea <tohost+0xa1281ee2>
e0002f04:	000a                	0xa
e0002f06:	c16ca503          	lw	a0,-1002(s9) # 85032848 <tohost+0x85012840>
e0002f0a:	0513a503          	lw	a0,81(t2)
e0002f0e:	0044                	addi	s1,sp,4
e0002f10:	00c9                	addi	ra,ra,18
e0002f12:	4540                	lw	s0,12(a0)
e0002f14:	000a                	0xa
e0002f16:	157d                	addi	a0,a0,-1
e0002f18:	24c9                	jal	e00031da <HMAC_SMOKETEST_CLEAR+0x2bde>
e0002f1a:	40882503          	lw	a0,1032(a6)
e0002f1e:	157d                	addi	a0,a0,-1
e0002f20:	00aa2023          	sw	a0,0(s4) # d0001ee2 <tohost+0xcffe1eda>
e0002f24:	5808                	lw	a0,48(s0)
e0002f26:	2e81                	jal	e0003276 <HMAC_SMOKETEST_CLEAR+0x2c7a>
e0002f28:	c088                	sw	a0,0(s1)
e0002f2a:	3539                	jal	e0002d38 <HMAC_SMOKETEST_CLEAR+0x273c>
e0002f2c:	bf7d                	j	e0002eea <HMAC_SMOKETEST_CLEAR+0x28ee>
e0002f2e:	85220073          	0x85220073
e0002f32:	26b1                	jal	e000327e <HMAC_SMOKETEST_CLEAR+0x2c82>
e0002f34:	effff517          	auipc	a0,0xeffff
e0002f38:	0000                	unimp
e0002f3a:	bf65                	j	e0002ef2 <HMAC_SMOKETEST_CLEAR+0x28f6>
e0002f3c:	410c                	lw	a1,0(a0)
e0002f3e:	0585                	addi	a1,a1,1
e0002f40:	76450513          	addi	a0,a0,1892 # d0002698 <tohost+0xcffe2690>
e0002f44:	1141                	addi	sp,sp,-16
e0002f46:	c606                	sw	ra,12(sp)
e0002f48:	c10c                	sw	a1,0(a0)
e0002f4a:	8082                	ret
e0002f4c:	c04a                	sw	s2,0(sp)
e0002f4e:	c4227073          	csrci	0xc42,4
e0002f52:	c226                	sw	s1,4(sp)
e0002f54:	efff                	0xefff
e0002f56:	30040513          	addi	a0,s0,768
e0002f5a:	c911f517          	auipc	a0,0xc911f
e0002f5e:	73a5f517          	auipc	a0,0x73a5f
e0002f62:	4108                	lw	a0,0(a0)
e0002f64:	71a5                	lui	gp,0xfffe9
e0002f66:	410c                	lw	a1,0(a0)
e0002f68:	efff                	0xefff
e0002f6a:	c1f00513          	li	a0,-993
e0002f6e:	4108                	lw	a0,0(a0)
e0002f70:	41f0                	lw	a2,68(a1)
e0002f72:	0605                	addi	a2,a2,1
e0002f74:	72850513          	addi	a0,a0,1832 # 53a62686 <pulp__FC+0x53a62687>
e0002f78:	effff517          	auipc	a0,0xeffff
e0002f7c:	c10c                	sw	a1,0(a0)
e0002f7e:	4108                	lw	a0,0(a0)
e0002f80:	410c                	lw	a1,0(a0)
e0002f82:	15fd                	addi	a1,a1,-1
e0002f84:	efff                	0xefff
e0002f86:	ed650513          	addi	a0,a0,-298 # d0001e4e <tohost+0xcffe1e46>
e0002f8a:	c575f517          	auipc	a0,0xc575f
e0002f8e:	7065f517          	auipc	a0,0x7065f
e0002f92:	4108                	lw	a0,0(a0)
e0002f94:	7d25                	lui	s10,0xfffe9
e0002f96:	410c                	lw	a1,0(a0)
e0002f98:	efff                	0xefff
e0002f9a:	09130513          	addi	a0,t1,145
e0002f9e:	7049                	0x7049
e0002fa0:	effff917          	auipc	s2,0xeffff
e0002fa4:	effff617          	auipc	a2,0xeffff
e0002fa8:	cddd                	beqz	a1,e0003066 <HMAC_SMOKETEST_CLEAR+0x2a6a>
e0002faa:	4885                	li	a7,1
e0002fac:	4851                	li	a6,20
e0002fae:	0613f297          	auipc	t0,0x613f
e0002fb2:	6d86                	flw	fs11,64(sp)
e0002fb4:	7262                	flw	ft4,56(sp)
e0002fb6:	effff317          	auipc	t1,0xeffff
e0002fba:	6c238293          	addi	t0,t2,1730
e0002fbe:	454c                	lw	a1,12(a0)
e0002fc0:	efff                	0xefff
e0002fc2:	4c580313          	addi	t1,a6,1221
e0002fc6:	5404                	lw	s1,40(s0)
e0002fc8:	45c0                	lw	s0,12(a1)
e0002fca:	500c                	lw	a1,32(s0)
e0002fcc:	c2d8                	sw	a4,4(a3)
e0002fce:	40cc                	lw	a1,4(s1)
e0002fd0:	c70c                	sw	a1,8(a4)
e0002fd2:	5014                	lw	a3,32(s0)
e0002fd4:	00e59363          	bne	a1,a4,e0002fda <HMAC_SMOKETEST_CLEAR+0x29de>
e0002fd8:	01840713          	addi	a4,s0,24
e0002fdc:	0204                	addi	s1,sp,256
e0002fde:	408c                	lw	a1,0(s1)
e0002fe0:	c0d4                	sw	a3,4(s1)
e0002fe2:	444c2423          	sw	tp,1096(s8)
e0002fe6:	4418                	lw	a4,8(s0)
e0002fe8:	15fd                	addi	a1,a1,-1
e0002fea:	c08c                	sw	a1,0(s1)
e0002fec:	444c                	lw	a1,12(s0)
e0002fee:	c1d8                	sw	a4,4(a1)
e0002ff0:	4854                	lw	a3,20(s0)
e0002ff2:	c70c                	sw	a1,8(a4)
e0002ff4:	0044                	addi	s1,sp,4
e0002ff6:	42d81363          	bne	a6,a3,e000341c <HMAC_SMOKETEST_CLEAR+0x2e20>
e0002ffa:	428c0493          	addi	s1,s8,1064
e0002ffe:	15fd                	addi	a1,a1,-1
e0003000:	c2cc0097          	auipc	ra,0xc2cc0
e0003004:	4214                	lw	a3,0(a2)
e0003006:	c28c9733          	p.extractu	a4,s9,1,8
e000300a:	544c                	lw	a1,44(s0)
e000300c:	c214                	sw	a3,0(a2)
e000300e:	00b886b3          	add	a3,a7,a1
e0003012:	8ed9                	or	a3,a3,a4
e0003014:	42d8                	lw	a4,4(a3)
e0003016:	c418                	sw	a4,8(s0)
e0003018:	0305                	addi	t1,t1,1
e000301a:	9696                	add	a3,a3,t0
e000301c:	471c                	lw	a5,8(a4)
e000301e:	c3c4                	sw	s1,4(a5)
e0003020:	471c                	lw	a5,8(a4)
e0003022:	c45c                	sw	a5,12(s0)
e0003024:	4298                	lw	a4,0(a3)
e0003026:	0705                	addi	a4,a4,1
e0003028:	c704                	sw	s1,8(a4)
e000302a:	c854                	sw	a3,20(s0)
e000302c:	56d40003          	lb	zero,1389(s0)
e0003030:	c298                	sw	a4,0(a3)
e0003032:	20232683          	lw	a3,514(t1) # d00021b8 <tohost+0xcffe21b0>
e0003036:	0119                	addi	sp,sp,6
e0003038:	00d5e463          	bltu	a1,a3,e0003040 <HMAC_SMOKETEST_CLEAR+0x2a44>
e000303c:	effff517          	auipc	a0,0xeffff
e0003040:	410c                	lw	a1,0(a0)
e0003042:	f1d1                	bnez	a1,e0002fc6 <HMAC_SMOKETEST_CLEAR+0x29ca>
e0003044:	410c                	lw	a1,0(a0)
e0003046:	418c                	lw	a1,0(a1)
e0003048:	65450513          	addi	a0,a0,1620 # d0002690 <tohost+0xcffe2688>
e000304c:	4548                	lw	a0,12(a0)
e000304e:	4108                	lw	a0,0(a0)
e0003050:	c589                	beqz	a1,e000305a <HMAC_SMOKETEST_CLEAR+0x2a5e>
e0003052:	4108                	lw	a0,0(a0)
e0003054:	effff597          	auipc	a1,0xeffff
e0003058:	a011                	j	e000305c <HMAC_SMOKETEST_CLEAR+0x2a60>
e000305a:	557d                	li	a0,-1
e000305c:	c188                	sw	a0,0(a1)
e000305e:	8593f417          	auipc	s0,0x8593f
e0003062:	6505                	lui	a0,0x1
e0003064:	64e4                	flw	fs1,76(s1)
e0003066:	4004                	lw	s1,0(s0)
e0003068:	efff                	0xefff
e000306a:	14fd0413          	addi	s0,s10,335 # fffe914f <pulp__FC+0xfffe9150>
e000306e:	fcf5                	bnez	s1,e000306a <HMAC_SMOKETEST_CLEAR+0x2a6e>
e0003070:	c491                	beqz	s1,e000307c <HMAC_SMOKETEST_CLEAR+0x2a80>
e0003072:	2005                	jal	e0003092 <HMAC_SMOKETEST_CLEAR+0x2a96>
e0003074:	00092503          	lw	a0,0(s2) # d0001fa0 <tohost+0xcffe1f98>
e0003078:	00042023          	sw	zero,0(s0) # 6594205e <tohost+0x65922056>
e000307c:	4501                	li	a0,0
e000307e:	4902                	lw	s2,0(sp)
e0003080:	cb9ff0ef          	jal	ra,e0002d38 <HMAC_SMOKETEST_CLEAR+0x273c>
e0003084:	40b2                	lw	ra,12(sp)
e0003086:	0141                	addi	sp,sp,16
e0003088:	4492                	lw	s1,4(sp)
e000308a:	4422                	lw	s0,8(sp)
e000308c:	efff                	0xefff
e000308e:	80820513          	addi	a0,tp,-2040 # fffff808 <pulp__FC+0xfffff809>
e0003092:	c909f517          	auipc	a0,0xc909f
e0003096:	60e5f517          	auipc	a0,0x60e5f
e000309a:	4108                	lw	a0,0(a0)
e000309c:	6165                	addi	sp,sp,112
e000309e:	410c                	lw	a1,0(a0)
e00030a0:	efff                	0xefff
e00030a2:	aa010513          	addi	a0,sp,-1376
e00030a6:	0585f517          	auipc	a0,0x585f
e00030aa:	c10c                	sw	a1,0(a0)
e00030ac:	6025                	0x6025
e00030ae:	410c                	lw	a1,0(a0)
e00030b0:	efff                	0xefff
e00030b2:	20230513          	addi	a0,t1,514
e00030b6:	0075                	c.addi	zero,29
e00030b8:	00158393          	addi	t2,a1,1 # d0002055 <tohost+0xcffe204d>
e00030bc:	5d8e0e13          	addi	t3,t3,1496
e00030c0:	effffe17          	auipc	t3,0xeffff
e00030c4:	5e480813          	addi	a6,a6,1508
e00030c8:	effff817          	auipc	a6,0xeffff
e00030cc:	000e2503          	lw	a0,0(t3) # d00020c0 <tohost+0xcffe20b8>
e00030d0:	02b3ff63          	bleu	a1,t2,e000310e <HMAC_SMOKETEST_CLEAR+0x2b12>
e00030d4:	5c458593          	addi	a1,a1,1476
e00030d8:	effff597          	auipc	a1,0xeffff
e00030dc:	00de                	slli	ra,ra,0x17
e00030de:	c188                	sw	a0,0(a1)
e00030e0:	4194                	lw	a3,0(a1)
e00030e2:	05132023          	sw	a7,64(t1)
e00030e6:	5d05                	li	s10,-31
e00030e8:	effff517          	auipc	a0,0xeffff
e00030ec:	c10c                	sw	a1,0(a0)
e00030ee:	410c2503          	lw	a0,1040(s8)
e00030f2:	0585                	addi	a1,a1,1
e00030f4:	c511                	beqz	a0,e0003100 <HMAC_SMOKETEST_CLEAR+0x2b04>
e00030f6:	000e2503          	lw	a0,0(t3)
e00030fa:	4108                	lw	a0,0(a0)
e00030fc:	4108                	lw	a0,0(a0)
e00030fe:	a011                	j	e0003102 <HMAC_SMOKETEST_CLEAR+0x2b06>
e0003100:	000e                	0xe
e0003102:	4548                	lw	a0,12(a0)
e0003104:	00a8                	addi	a0,sp,72
e0003106:	557d2503          	lw	a0,1367(s10)
e000310a:	0aa32023          	sw	a0,160(t1)
e000310e:	00082503          	lw	a0,0(a6) # d00020c8 <tohost+0xcffe20c0>
e0003112:	cd49e563          	bltu	s3,s4,e00025dc <HMAC_SMOKETEST_CLEAR+0x1fe0>
e0003116:	4885                	li	a7,1
e0003118:	000e                	0xe
e000311a:	4108                	lw	a0,0(a0)
e000311c:	564e8e93          	addi	t4,t4,1380
e0003120:	effffe97          	auipc	t4,0xeffff
e0003124:	efff                	0xefff
e0003126:	42d10313          	addi	t1,sp,1069
e000312a:	000ef317          	auipc	t1,0xef
e000312e:	4548                	lw	a0,12(a0)
e0003130:	25035b23          	0x25035b23
e0003134:	06a3ee63          	bltu	t2,a0,e00031b0 <HMAC_SMOKETEST_CLEAR+0x2bb4>
e0003138:	4554                	lw	a3,12(a0)
e000313a:	42c8                	lw	a0,4(a3)
e000313c:	4ac8                	lw	a0,20(a3)
e000313e:	c78c                	sw	a1,8(a5)
e0003140:	46cc                	lw	a1,12(a3)
e0003142:	469c                	lw	a5,8(a3)
e0003144:	4150                	lw	a2,4(a0)
e0003146:	46cc8793          	addi	a5,s9,1132
e000314a:	c1dc                	sw	a5,4(a1)
e000314c:	00f6                	slli	ra,ra,0x1d
e000314e:	c14c                	sw	a1,4(a0)
e0003150:	0046                	0x46
e0003152:	c10c1363          	bne	s8,a6,e0002558 <HMAC_SMOKETEST_CLEAR+0x1f5c>
e0003156:	5688                	lw	a0,40(a3)
e0003158:	410c                	lw	a1,0(a0)
e000315a:	15fd                	addi	a1,a1,-1
e000315c:	4ed0                	lw	a2,28(a3)
e000315e:	c60c                	sw	a1,8(a2)
e0003160:	c10d                	beqz	a0,e0003182 <HMAC_SMOKETEST_CLEAR+0x2b86>
e0003162:	528c                	lw	a1,32(a3)
e0003164:	4150                	lw	a2,4(a0)
e0003166:	528c8713          	addi	a4,s9,1320
e000316a:	c1d0                	sw	a2,4(a1)
e000316c:	00e6                	slli	ra,ra,0x19
e000316e:	c14c                	sw	a1,4(a0)
e0003170:	0186                	slli	gp,gp,0x1
e0003172:	410c1363          	bne	s8,a6,e0003578 <HMAC_SMOKETEST_CLEAR+0x2f7c>
e0003176:	15fd                	addi	a1,a1,-1
e0003178:	0206a423          	sw	zero,40(a3)
e000317c:	000ea583          	lw	a1,0(t4) # d0002120 <tohost+0xcffe2118>
e0003180:	c10c                	sw	a1,0(a0)
e0003182:	56c8                	lw	a0,44(a3)
e0003184:	8dd1                	or	a1,a1,a2
e0003186:	9633a023          	sw	gp,-1696(t2)
e000318a:	00a8                	addi	a0,sp,72
e000318c:	0255                	addi	tp,tp,21
e000318e:	951a                	add	a0,a0,t1
e0003190:	00be                	slli	ra,ra,0xf
e0003192:	45900533          	0x45900533
e0003196:	c6d0                	sw	a2,12(a3)
e0003198:	414c                	lw	a1,4(a0)
e000319a:	c68c                	sw	a1,8(a3)
e000319c:	c59c                	sw	a5,8(a1)
e000319e:	cac8                	sw	a0,20(a3)
e00031a0:	4590                	lw	a2,8(a1)
e00031a2:	c25c                	sw	a5,4(a2)
e00031a4:	c10c                	sw	a1,0(a0)
e00031a6:	410c2503          	lw	a0,1040(s8)
e00031aa:	0585                	addi	a1,a1,1
e00031ac:	fd3d                	bnez	a0,e000312a <HMAC_SMOKETEST_CLEAR+0x2b2e>
e00031ae:	557d                	li	a0,-1
e00031b0:	000e                	0xe
e00031b2:	4108                	lw	a0,0(a0)
e00031b4:	4501                	li	a0,0
e00031b6:	8082                	ret
e00031b8:	00a82023          	sw	a0,0(a6)
e00031bc:	c14c                	sw	a1,4(a0)
e00031be:	567d                	li	a2,-1
e00031c0:	00850593          	addi	a1,a0,8 # d00020f0 <tohost+0xcffe20e8>
e00031c4:	c90c                	sw	a1,16(a0)
e00031c6:	c5102023          	sw	a7,-960(zero) # fffffc40 <pulp__FC+0xfffffc41>
e00031ca:	c54c                	sw	a1,12(a0)
e00031cc:	00052823          	sw	zero,16(a0)
e00031d0:	0005                	c.addi	zero,1
e00031d2:	8082                	ret
e00031d4:	4154                	lw	a3,4(a0)
e00031d6:	490c                	lw	a1,16(a0)
e00031d8:	8082                	ret
e00031da:	4510                	lw	a2,8(a0)
e00031dc:	c254                	sw	a3,4(a2)
e00031de:	41d4                	lw	a3,4(a1)
e00031e0:	c690                	sw	a2,8(a3)
e00031e2:	4510                	lw	a2,8(a0)
e00031e4:	c1d0                	sw	a2,4(a1)
e00031e6:	93632823          	sw	s6,-1744(t1) # e00f1a5a <fromhost+0xe1a4a>
e00031ea:	00a6                	slli	ra,ra,0x9
e00031ec:	157d                	addi	a0,a0,-1
e00031ee:	c188                	sw	a0,0(a1)
e00031f0:	0005                	c.addi	zero,1
e00031f2:	4188                	lw	a0,0(a1)
e00031f4:	1141                	addi	sp,sp,-16
e00031f6:	c606                	sw	ra,12(sp)
e00031f8:	4188                	lw	a0,0(a1)
e00031fa:	8082                	ret
e00031fc:	c04a                	sw	s2,0(sp)
e00031fe:	842a                	mv	s0,a0
e0003200:	c422                	sw	s0,8(sp)
e0003202:	c226                	sw	s1,4(sp)
e0003204:	00f47593          	andi	a1,s0,15
e0003208:	9941                	andi	a0,a0,-16
e000320a:	0541                	addi	a0,a0,16
e000320c:	4501                	li	a0,0
e000320e:	c191                	beqz	a1,e0003212 <HMAC_SMOKETEST_CLEAR+0x2c16>
e0003210:	00a46363          	bltu	s0,a0,e0003216 <HMAC_SMOKETEST_CLEAR+0x2c1a>
e0003214:	effff517          	auipc	a0,0xeffff
e0003218:	842a                	mv	s0,a0
e000321a:	330d                	jal	e0002f3c <HMAC_SMOKETEST_CLEAR+0x2940>
e000321c:	4104                	lw	s1,0(a0)
e000321e:	c099                	beqz	s1,e0003224 <HMAC_SMOKETEST_CLEAR+0x2c28>
e0003220:	4a050513          	addi	a0,a0,1184 # d00026b4 <tohost+0xcffe26ac>
e0003224:	effff597          	auipc	a1,0xeffff
e0003228:	e819                	bnez	s0,e000323e <HMAC_SMOKETEST_CLEAR+0x2c42>
e000322a:	a081                	j	e000326a <HMAC_SMOKETEST_CLEAR+0x2c6e>
e000322c:	05c1                	addi	a1,a1,16
e000322e:	8593f493          	andi	s1,t2,-1959
e0003232:	5785                	li	a5,-31
e0003234:	c41d                	beqz	s0,e0003262 <HMAC_SMOKETEST_CLEAR+0x2c66>
e0003236:	ff05f517          	auipc	a0,0xff05f
e000323a:	c104                	sw	s1,0(a0)
e000323c:	4825                	li	a6,9
e000323e:	efff2903          	lw	s2,-257(t5)
e0003242:	00890513          	addi	a0,s2,8
e0003246:	0005d613          	srli	a2,a1,0x0
e000324a:	7ff605b3          	0x7ff605b3
e000324e:	004536b3          	sltu	a3,a0,tp
e0003252:	c6193613          	sltiu	a2,s2,-927
e0003256:	c10c                	sw	a1,0(a0)
e0003258:	00b9                	addi	ra,ra,14
e000325a:	8e75                	and	a2,a2,a3
e000325c:	01248533          	add	a0,s1,s2
e0003260:	31f5                	jal	e0002f4c <HMAC_SMOKETEST_CLEAR+0x2950>
e0003262:	c489                	beqz	s1,e000326c <HMAC_SMOKETEST_CLEAR+0x2c70>
e0003264:	855fe0ef          	jal	ra,e0001ab8 <HMAC_SMOKETEST_CLEAR+0x14bc>
e0003268:	a029                	j	e0003272 <HMAC_SMOKETEST_CLEAR+0x2c76>
e000326a:	31cd                	jal	e0002f4c <HMAC_SMOKETEST_CLEAR+0x2950>
e000326c:	4492                	lw	s1,4(sp)
e000326e:	4422                	lw	s0,8(sp)
e0003270:	4501                	li	a0,0
e0003272:	4902                	lw	s2,0(sp)
e0003274:	8082                	ret
e0003276:	8082                	ret
e0003278:	40b2                	lw	ra,12(sp)
e000327a:	0141                	addi	sp,sp,16
e000327c:	4505                	li	a0,1
e000327e:	8082                	ret
e0003280:	4505                	li	a0,1
e0003282:	8082                	ret
e0003284:	7665                	lui	a2,0xffff9
e0003286:	6369                	lui	t1,0x1a
e0003288:	642f7773          	csrrci	a4,0x642,30
e000328c:	2f737473          	csrrci	s0,0x2f7,6
e0003290:	2f65                	jal	e0003a48 <HMAC_SMOKETEST_CLEAR+0x344c>
e0003292:	6574                	flw	fa3,76(a0)
e0003294:	735f 6f6d 6d68      	0x6d686f6d735f
e000329a:	6361                	lui	t1,0x18
e000329c:	632e7473          	csrrci	s0,0x632,28
e00032a0:	6574656b          	0x6574656b
e00032a4:	696e                	flw	fs2,216(sp)
e00032a6:	676e                	flw	fa4,216(sp)
e00032a8:	5200                	lw	s0,32(a2)
e00032aa:	6e75                	lui	t3,0x1d
e00032ac:	49442043          	fmadd.s	ft0,fs0,fs4,fs1,rdn
e00032b0:	4820                	lw	s0,80(s0)
e00032b2:	414d                	li	sp,19
e00032b4:	2e2e7473          	csrrci	s0,0x2e2,28
e00032b8:	2046                	fld	ft0,80(sp)
e00032ba:	6574                	flw	fa3,76(a0)
e00032bc:	6e6e                	flw	ft8,216(sp)
e00032be:	6e69                	lui	t3,0x1a
e00032c0:	002e                	0x2e
e00032c2:	7552                	flw	fa0,52(sp)
e00032c4:	53207473          	csrrci	s0,0x532,0
e00032c8:	65742067          	0x65742067
e00032cc:	2036                	fld	ft0,328(sp)
e00032ce:	6170                	flw	fa2,68(a0)
e00032d0:	4148                	lw	a0,4(a0)
e00032d2:	3532                	fld	fa0,296(sp)
e00032d4:	2e2e                	fld	ft8,200(sp)
e00032d6:	002e                	0x2e
e00032d8:	31207373          	csrrci	t1,0x312,0
e00032dc:	6e69                	lui	t3,0x1a
e00032de:	75522067          	0x75522067
e00032e2:	6e6e                	flw	ft8,216(sp)
e00032e4:	5320                	lw	s0,96(a4)
e00032e6:	4148                	lw	a0,4(a0)
e00032e8:	6574                	flw	fa3,76(a0)
e00032ea:	61707473          	csrrci	s0,0x617,0
e00032ee:	35327373          	csrrci	t1,0x353,4
e00032f2:	2036                	fld	ft0,328(sp)
e00032f4:	002e                	0x2e
e00032f6:	7552                	flw	fa0,52(sp)
e00032f8:	3220                	fld	fs0,96(a2)
e00032fa:	2e2e                	fld	ft8,200(sp)
e00032fc:	65742067          	0x65742067
e0003300:	6e6e                	flw	ft8,216(sp)
e0003302:	6e69                	lui	t3,0x1a
e0003304:	414d                	li	sp,19
e0003306:	74732043          	fmadd.h	zero,t1,t2,a4,rdn
e000330a:	4820                	lw	s0,80(s0)
e000330c:	3120                	fld	fs0,96(a0)
e000330e:	2e2e                	fld	ft8,200(sp)
e0003310:	6170                	flw	fa2,68(a0)
e0003312:	6e6e7373          	csrrci	t1,0x6e6,28
e0003316:	6e69                	lui	t3,0x1a
e0003318:	002e                	0x2e
e000331a:	7552                	flw	fa0,52(sp)
e000331c:	48207473          	csrrci	s0,0x482,0
e0003320:	65742067          	0x65742067
e0003324:	6170                	flw	fa2,68(a0)
e0003326:	414d7373          	csrrci	t1,0x414,26
e000332a:	002e2043          	fmadd.s	ft0,ft8,ft2,ft0,rdn
e000332e:	4944                	lw	s1,20(a0)
e0003330:	3220                	fld	fs0,96(a2)
e0003332:	2e2e                	fld	ft8,200(sp)
e0003334:	6c69                	lui	s8,0x1a
e0003336:	203a                	fld	ft0,392(sp)
e0003338:	2d46                	fld	fs10,80(sp)
e000333a:	6166                	flw	ft2,88(sp)
e000333c:	6d68                	flw	fa0,92(a0)
e000333e:	6361                	lui	t1,0x18
e0003340:	6964                	flw	fs1,84(a0)
e0003342:	5f66                	lw	t5,120(sp)
e0003344:	2874                	fld	fa3,208(s0)
e0003346:	6162                	flw	ft2,24(sp)
e0003348:	695f 696e 6464      	0x6464696e695f
e000334e:	2c72                	fld	fs8,280(sp)
e0003350:	615f6573          	csrrsi	a0,0x615,30
e0003354:	72202963          	p.beqimm	zero,2,e0003a86 <HMAC_SMOKETEST_CLEAR+0x348a>
e0003358:	6820                	flw	fs0,80(s0)
e000335a:	616d                	addi	sp,sp,240
e000335c:	736e                	flw	ft6,248(sp)
e000335e:	2520                	fld	fs0,72(a0)
e0003360:	7465                	lui	s0,0xffff9
e0003362:	7275                	lui	tp,0xffffd
e0003364:	2d46                	fld	fs10,80(sp)
e0003366:	6166                	flw	ft2,88(sp)
e0003368:	0064                	addi	s1,sp,12
e000336a:	4944                	lw	s1,20(a0)
e000336c:	6964                	flw	fs1,84(a0)
e000336e:	5f66                	lw	t5,120(sp)
e0003370:	6c69                	lui	s8,0x1a
e0003372:	203a                	fld	ft0,392(sp)
e0003374:	6d5f 646f 6d68      	0x6d68646f6d5f
e000337a:	6361                	lui	t1,0x18
e000337c:	3261                	jal	e0002d04 <HMAC_SMOKETEST_CLEAR+0x2708>
e000337e:	3635                	jal	e0002eaa <HMAC_SMOKETEST_CLEAR+0x28ae>
e0003380:	5f65                	li	t5,-7
e0003382:	74726873          	csrrsi	a6,0x747,4
e0003386:	6828                	flw	fa0,80(s0)
e0003388:	735f 6174 6b20      	0x6b206174735f
e000338e:	6d48                	flw	fa0,28(a0)
e0003390:	616d                	addi	sp,sp,240
e0003392:	6e612c63          	p.beqimm	sp,6,e0003a8a <HMAC_SMOKETEST_CLEAR+0x348e>
e0003396:	63616173          	csrrsi	sp,0x636,2
e000339a:	7254                	flw	fa3,36(a2)
e000339c:	436e                	lw	t1,216(sp)
e000339e:	74636e6f          	jal	t3,e0039ae4 <fromhost+0x29ad4>
e00033a2:	6f69                	lui	t5,0x1a
e00033a4:	7220                	flw	fs0,96(a2)
e00033a6:	7465                	lui	s0,0xffff9
e00033a8:	6966                	flw	fs2,88(sp)
e00033aa:	25202967          	0x25202967
e00033ae:	0064                	addi	s1,sp,12
e00033b0:	7275                	lui	tp,0xffffd
e00033b2:	736e                	flw	ft6,248(sp)
e00033b4:	6166                	flw	ft2,88(sp)
e00033b6:	6c69                	lui	s8,0x1a
e00033b8:	4944                	lw	s1,20(a0)
e00033ba:	2d46                	fld	fs10,80(sp)
e00033bc:	5f66                	lw	t5,120(sp)
e00033be:	6d68                	flw	fa0,92(a0)
e00033c0:	203a                	fld	ft0,392(sp)
e00033c2:	6964                	flw	fs1,84(a0)
e00033c4:	5f65646f          	jal	s0,e00599ba <fromhost+0x499aa>
e00033c8:	6361                	lui	t1,0x18
e00033ca:	6d5f 735f 6174      	0x6174735f6d5f
e00033d0:	6d68                	flw	fa0,92(a0)
e00033d2:	6361                	lui	t1,0x18
e00033d4:	616d                	addi	sp,sp,240
e00033d6:	74722c63          	p.beqimm	tp,7,e0003b2e <HMAC_SMOKETEST_CLEAR+0x3532>
e00033da:	6828                	flw	fa0,80(s0)
e00033dc:	202c                	fld	fa1,64(s0)
e00033de:	6b20486b          	0x6b20486b
e00033e2:	7965                	lui	s2,0xffff9
e00033e4:	6172                	flw	ft2,28(sp)
e00033e6:	736e                	flw	ft6,248(sp)
e00033e8:	616d                	addi	sp,sp,240
e00033ea:	6e6f5463          	ble	t1,t5,e0003ad2 <HMAC_SMOKETEST_CLEAR+0x34d6>
e00033ee:	63616f43          	fmadd.d	ft10,ft2,fs6,fa2,unknown
e00033f2:	6974                	flw	fa3,84(a0)
e00033f4:	2029                	jal	e00033fe <HMAC_SMOKETEST_CLEAR+0x2e02>
e00033f6:	6572                	flw	fa0,28(sp)
e00033f8:	666e                	flw	fa2,216(sp)
e00033fa:	6769                	lui	a4,0x1a
e00033fc:	64252073          	csrs	0x642,a0
e0003400:	7574                	flw	fa3,108(a0)
e0003402:	6e72                	flw	ft8,28(sp)
e0003404:	662d                	lui	a2,0xb
e0003406:	6961                	lui	s2,0x18
e0003408:	4400                	lw	s0,8(s0)
e000340a:	4649                	li	a2,18
e000340c:	6669                	lui	a2,0x1a
e000340e:	685f 3a6c 6420      	0x64203a6c685f
e0003414:	7270                	flw	fa2,100(a2)
e0003416:	616d636f          	jal	t1,e00d9a2c <fromhost+0xc9a1c>
e000341a:	6d685f63          	ble	s6,a6,e0003af8 <HMAC_SMOKETEST_CLEAR+0x34fc>
e000341e:	6361                	lui	t1,0x18
e0003420:	7365                	lui	t1,0xffff9
e0003422:	75742873          	csrrs	a6,0x757,s0
e0003426:	6e72                	flw	ft8,28(sp)
e0003428:	2029                	jal	e0003432 <HMAC_SMOKETEST_CLEAR+0x2e36>
e000342a:	6572                	flw	fa0,28(sp)
e000342c:	0000                	unimp
e000342e:	0000                	unimp
e0003430:	64252073          	csrs	0x642,a0
e0003434:	2c88                	fld	fa0,24(s1)
e0003436:	f000                	fsw	fs0,32(s0)
e0003438:	0000                	unimp
e000343a:	0000                	unimp
e000343c:	2c88                	fld	fa0,24(s1)
e000343e:	f000                	fsw	fs0,32(s0)
	...
e0003448:	0065                	c.addi	zero,25
e000344a:	0000                	unimp
e000344c:	0000                	unimp
e000344e:	0000                	unimp
e0003450:	2ca9                	jal	e00036aa <HMAC_SMOKETEST_CLEAR+0x30ae>
e0003452:	f000                	fsw	fs0,32(s0)
e0003454:	006a                	0x6a
e0003456:	0000                	unimp
e0003458:	2c88                	fld	fa0,24(s1)
e000345a:	f000                	fsw	fs0,32(s0)
e000345c:	2cc2                	fld	fs9,16(sp)
e000345e:	f000                	fsw	fs0,32(s0)
e0003460:	0000                	unimp
e0003462:	0000                	unimp
e0003464:	2079                	jal	e00034f2 <HMAC_SMOKETEST_CLEAR+0x2ef6>
e0003466:	76456e6f          	jal	t3,e0059bca <fromhost+0x49bba>
e000346a:	7265                	lui	tp,0xffff9
e000346c:	63657073          	csrci	0x636,10
e0003470:	2065                	jal	e0003518 <HMAC_SMOKETEST_CLEAR+0x2f1c>
e0003472:	6d697573          	csrrci	a0,0x6d6,18
e0003476:	73746573          	csrrsi	a0,0x737,8
e000347a:	6820                	flw	fs0,80(s0)
e000347c:	2066                	fld	ft0,88(sp)
e000347e:	7461                	lui	s0,0xffff8
e0003480:	666c                	flw	fa1,76(a2)
e0003482:	6f20                	flw	fs0,88(a4)
e0003484:	6f207473          	csrrci	s0,0x6f2,0
e0003488:	6c20                	flw	fs0,88(s0)
e000348a:	6165                	addi	sp,sp,112
e000348c:	2066                	fld	ft0,88(sp)
e000348e:	6874                	flw	fa3,84(s0)
e0003490:	656e                	flw	fa0,216(sp)
e0003492:	6f20                	flw	fs0,88(a4)
e0003494:	6472                	flw	fs0,28(sp)
e0003496:	6e69                	lui	t3,0x1a
e0003498:	2065                	jal	e0003540 <HMAC_SMOKETEST_CLEAR+0x2f44>
e000349a:	72696163          	bltu	s2,t1,e0003bbc <HMAC_SMOKETEST_CLEAR+0x35c0>
e000349e:	7574                	flw	fa3,108(a0)
e00034a0:	6c61                	lui	s8,0x18
e00034a2:	7620                	flw	fs0,104(a2)
e00034a4:	6e61                	lui	t3,0x18
e00034a6:	2064                	fld	fs1,192(s0)
e00034a8:	7365                	lui	t1,0xffff9
e00034aa:	202c                	fld	fa1,64(s0)
e00034ac:	6920                	flw	fs0,80(a0)
e00034ae:	68742073          	csrs	0x687,s0
e00034b2:	7369                	lui	t1,0xffffa
e00034b4:	203a                	fld	ft0,392(sp)
e00034b6:	2049                	jal	e0003538 <HMAC_SMOKETEST_CLEAR+0x2f3c>
e00034b8:	696d                	lui	s2,0x1b
e00034ba:	656e                	flw	fa0,216(sp)
e00034bc:	656e                	flw	fa0,216(sp)
e00034be:	6f20                	flw	fs0,88(a4)
e00034c0:	6d61                	lui	s10,0x18
e00034c2:	6f20                	flw	fs0,88(a4)
e00034c4:	2065                	jal	e000356c <HMAC_SMOKETEST_CLEAR+0x2f70>
e00034c6:	6566                	flw	fa0,88(sp)
e00034c8:	2066                	fld	ft0,88(sp)
e00034ca:	6874                	flw	fa3,84(s0)
e00034cc:	656e                	flw	fa0,216(sp)
e00034ce:	20777473          	csrrci	s0,0x207,14
e00034d2:	6f68                	flw	fa0,92(a4)
e00034d4:	6c70                	flw	fa2,92(s0)
e00034d6:	2065                	jal	e000357e <HMAC_SMOKETEST_CLEAR+0x2f82>
e00034d8:	7020                	flw	fs0,96(s0)
e00034da:	6f65                	lui	t5,0x19
e00034dc:	4920                	lw	s0,80(a0)
e00034de:	6820                	flw	fs0,80(s0)
e00034e0:	6874                	flw	fa3,84(s0)
e00034e2:	7461                	lui	s0,0xffff8
e00034e4:	7665                	lui	a2,0xffff9
e00034e6:	7265                	lui	tp,0xffff9
e00034e8:	7661                	lui	a2,0xffff8
e00034ea:	2065                	jal	e0003592 <HMAC_SMOKETEST_CLEAR+0x2f96>
e00034ec:	00006e77          	0x6e77
e00034f0:	6b20                	flw	fs0,80(a4)
e00034f2:	6f6e                	flw	ft10,216(sp)
e00034f4:	f519                	bnez	a0,e0003402 <HMAC_SMOKETEST_CLEAR+0x2e06>
e00034f6:	c94ef7cf          	fnmadd.s	fa5,ft9,fs4,fs9
e00034fa:	d6c6                	sw	a7,108(sp)
e00034fc:	a8b8                	fsd	fa4,80(s1)
e00034fe:	6d429d37          	lui	s10,0x6d429
e0003502:	68cb45c7          	fmsub.s	fa1,fs6,fa2,fa3,rmm
e0003506:	71ff                	0x71ff
e0003508:	2fe9                	jal	e0003ce2 <HMAC_SMOKETEST_CLEAR+0x36e6>
e000350a:	e276                	fsw	ft9,4(sp)
e000350c:	96dc                	0x96dc
e000350e:	3dc2                	fld	fs11,48(sp)
e0003510:	68e236af          	0x68e236af
e0003514:	2c88                	fld	fa0,24(s1)
e0003516:	f000                	fsw	fs0,32(s0)
	...
e0003520:	006d                	c.addi	zero,27
e0003522:	0000                	unimp
e0003524:	0000                	unimp
e0003526:	0000                	unimp
e0003528:	2ce0                	fld	fs0,216(s1)
e000352a:	f000                	fsw	fs0,32(s0)
e000352c:	0070                	addi	a2,sp,12
e000352e:	0000                	unimp
e0003530:	2c88                	fld	fa0,24(s1)
e0003532:	f000                	fsw	fs0,32(s0)
e0003534:	2cfe                	fld	fs9,472(sp)
e0003536:	f000                	fsw	fs0,32(s0)
e0003538:	0000                	unimp
e000353a:	0000                	unimp
e000353c:	39f1                	jal	e0003218 <HMAC_SMOKETEST_CLEAR+0x2c1c>
e000353e:	284d                	jal	e00035f0 <HMAC_SMOKETEST_CLEAR+0x2ff4>
e0003540:	4019                	0x4019
e0003542:	ebce                	fsw	fs3,212(sp)
e0003544:	0c48fb23          	0xc48fb23
e0003548:	12b0                	addi	a2,sp,360
e000354a:	5eae                	lw	t4,232(sp)
e000354c:	f3c2                	fsw	fa6,228(sp)
e000354e:	9531afbb          	0x9531afbb
e0003552:	98e4fadb          	p.mac.sh.zh	s5,s1,a4,a2
e0003556:	833f397b          	0x833f397b
e000355a:	2c8890d3          	fmax.h	ra,a7,s0
e000355e:	f000                	fsw	fs0,32(s0)
	...
e0003568:	0074                	addi	a3,sp,12
e000356a:	0000                	unimp
e000356c:	0002                	0x2
e000356e:	0000                	unimp
e0003570:	2d1a                	fld	fs10,384(sp)
e0003572:	f000                	fsw	fs0,32(s0)
e0003574:	0042                	0x42
e0003576:	0000                	unimp
e0003578:	2c88                	fld	fa0,24(s1)
e000357a:	f000                	fsw	fs0,32(s0)
e000357c:	2d36                	fld	fs10,328(sp)
e000357e:	f000                	fsw	fs0,32(s0)
e0003580:	0001                	nop
e0003582:	0000                	unimp
e0003584:	2c88                	fld	fa0,24(s1)
e0003586:	f000                	fsw	fs0,32(s0)
e0003588:	0002                	0x2
e000358a:	0000                	unimp
e000358c:	0001                	nop
e000358e:	0000                	unimp
e0003590:	004c                	addi	a1,sp,4
e0003592:	0000                	unimp
e0003594:	0002                	0x2
e0003596:	0000                	unimp
e0003598:	2d6a                	fld	fs10,152(sp)
e000359a:	f000                	fsw	fs0,32(s0)
e000359c:	004e                	0x4e
e000359e:	0000                	unimp
e00035a0:	2c88                	fld	fa0,24(s1)
e00035a2:	f000                	fsw	fs0,32(s0)
e00035a4:	2db8                	fld	fa4,88(a1)
e00035a6:	f000                	fsw	fs0,32(s0)
e00035a8:	0001                	nop
e00035aa:	0000                	unimp
e00035ac:	2c88                	fld	fa0,24(s1)
e00035ae:	f000                	fsw	fs0,32(s0)
e00035b0:	0002                	0x2
e00035b2:	0000                	unimp
e00035b4:	0001                	nop
e00035b6:	0000                	unimp
e00035b8:	0056                	0x56
e00035ba:	0000                	unimp
e00035bc:	642f7773          	csrrci	a4,0x642,30
e00035c0:	2e09                	jal	e00038d2 <HMAC_SMOKETEST_CLEAR+0x32d6>
e00035c2:	f000                	fsw	fs0,32(s0)
e00035c4:	2f65                	jal	e0003d7c <HMAC_SMOKETEST_CLEAR+0x3780>
e00035c6:	696c                	flw	fa1,84(a0)
e00035c8:	7665                	lui	a2,0xffff9
e00035ca:	6369                	lui	t1,0x1a
e00035cc:	6e697473          	csrrci	s0,0x6e6,18
e00035d0:	2f62                	fld	ft10,24(sp)
e00035d2:	6574                	flw	fa3,76(a0)
e00035d4:	6361                	lui	t1,0x18
e00035d6:	745f 2f67 6d68      	0x6d682f67745f
e00035dc:	6974                	flw	fa3,84(a0)
e00035de:	736c                	flw	fa1,100(a4)
e00035e0:	7365                	lui	t1,0xffff9
e00035e2:	7574                	flw	fa3,108(a0)
e00035e4:	4649                	li	a2,18
e00035e6:	662d                	lui	a2,0xb
e00035e8:	632e                	flw	ft6,200(sp)
e00035ea:	4400                	lw	s0,8(s0)
e00035ec:	6420                	flw	fs0,72(s0)
e00035ee:	6669                	lui	a2,0x1a
e00035f0:	6961                	lui	s2,0x18
e00035f2:	3a6c                	fld	fa1,240(a2)
e00035f4:	65675f63          	ble	s6,a4,e0003c52 <HMAC_SMOKETEST_CLEAR+0x3656>
e00035f8:	685f 616d 7373      	0x7373616d685f
e00035fe:	6761                	lui	a4,0x18
e0003600:	5f74                	lw	a3,124(a4)
e0003602:	656d                	lui	a0,0x1b
e0003604:	676e                	flw	fa4,216(sp)
e0003606:	6874                	flw	fa3,84(s0)
e0003608:	5f65                	li	t5,-7
e000360a:	656c                	flw	fa1,76(a0)
e000360c:	26202c63          	p.beqimm	zero,2,e0003884 <HMAC_SMOKETEST_CLEAR+0x3288>
e0003610:	6828                	flw	fa0,80(s0)
e0003612:	616d                	addi	sp,sp,240
e0003614:	625f 7469 6573      	0x65737469625f
e000361a:	746e                	flw	fs0,248(sp)
e000361c:	7465                	lui	s0,0xffff9
e000361e:	7275                	lui	tp,0xffffd
e0003620:	72202973          	csrr	s2,0x722
e0003624:	0064                	addi	s1,sp,12
e0003626:	736e4843          	fmadd.d	fa6,ft8,fs6,fa4,rmm
e000362a:	2520                	fld	fs0,72(a0)
e000362c:	6166                	flw	ft2,88(sp)
e000362e:	6c69                	lui	s8,0x1a
e0003630:	4345                	li	t1,17
e0003632:	73732d4b          	fnmsub.d	fs10,ft6,fs7,fa4,rdn
e0003636:	6761                	lui	a4,0x18
e0003638:	203a                	fld	ft0,392(sp)
e000363a:	654d                	lui	a0,0x13
e000363c:	676e                	flw	fa4,216(sp)
e000363e:	6874                	flw	fa3,84(s0)
e0003640:	2065                	jal	e00036e8 <HMAC_SMOKETEST_CLEAR+0x30ec>
e0003642:	656c                	flw	fa1,76(a0)
e0003644:	616d                	addi	sp,sp,240
e0003646:	6374                	flw	fa3,68(a4)
e0003648:	6d20                	flw	fs0,88(a0)
e000364a:	7369                	lui	t1,0xffffa
e000364c:	7078                	flw	fa4,100(s0)
e000364e:	6365                	lui	t1,0x19
e0003650:	2e68                	fld	fa0,216(a2)
e0003652:	4520                	lw	s0,72(a0)
e0003654:	7830                	flw	fa2,112(s0)
e0003656:	3025                	jal	e0002e7e <HMAC_SMOKETEST_CLEAR+0x2882>
e0003658:	6574                	flw	fa3,76(a0)
e000365a:	2064                	fld	fs1,192(s0)
e000365c:	7838                	flw	fa4,112(s0)
e000365e:	6220                	flw	fs0,64(a2)
e0003660:	7838                	flw	fa4,112(s0)
e0003662:	3025                	jal	e0002e8a <HMAC_SMOKETEST_CLEAR+0x288e>
e0003664:	7562                	flw	fa0,56(sp)
e0003666:	2074                	fld	fa3,192(s0)
e0003668:	7469                	lui	s0,0xffffa
e000366a:	78302073          	csrr	zero,pccr3
e000366e:	3025                	jal	e0002e96 <HMAC_SMOKETEST_CLEAR+0x289a>
e0003670:	20746f67          	0x20746f67
e0003674:	7838                	flw	fa4,112(s0)
e0003676:	6220                	flw	fs0,64(a2)
e0003678:	7838                	flw	fa4,112(s0)
e000367a:	3025                	jal	e0002ea2 <HMAC_SMOKETEST_CLEAR+0x28a6>
e000367c:	4300                	lw	s0,0(a4)
e000367e:	4548                	lw	a0,12(a0)
e0003680:	7469                	lui	s0,0xffffa
e0003682:	69612e73          	csrrs	t3,0x696,sp
e0003686:	3a6c                	fld	fa1,240(a2)
e0003688:	662d4b43          	0x662d4b43
e000368c:	6465                	lui	s0,0x19
e000368e:	6f20                	flw	fs0,88(a4)
e0003690:	5420                	lw	s0,104(s0)
e0003692:	6d69                	lui	s10,0x1a
e0003694:	7466                	flw	fs0,120(sp)
e0003696:	7265                	lui	tp,0xffff9
e0003698:	7475                	lui	s0,0xffffd
e000369a:	6120                	flw	fs0,64(a0)
e000369c:	7375                	lui	t1,0xffffd
e000369e:	6365                	lui	t1,0x19
e00036a0:	2520                	fld	fs0,72(a0)
e00036a2:	2064                	fld	fs1,192(s0)
e00036a4:	4320                	lw	s0,64(a4)
e00036a6:	5550                	lw	a2,44(a0)
e00036a8:	2820                	fld	fs0,80(s0)
e00036aa:	6425                	lui	s0,0x9
e00036ac:	656c                	flw	fa1,76(a0)
e00036ae:	63202973          	csrr	s2,0x632
e00036b2:	6379                	lui	t1,0x1e
e00036b4:	6974                	flw	fa3,84(a0)
e00036b6:	676e                	flw	fa4,216(sp)
e00036b8:	7720                	flw	fs0,104(a4)
e00036ba:	6961                	lui	s2,0x18
e00036bc:	6320                	flw	fs0,64(a4)
e00036be:	6568                	flw	fa0,76(a0)
e00036c0:	6620                	flw	fs0,72(a2)
e00036c2:	6669726f          	jal	tp,e009ad28 <fromhost+0x8ad18>
e00036c6:	6b635f6f          	jal	t5,e0038d7c <fromhost+0x28d6c>
e00036ca:	665f 2879 6d68      	0x6d682879665f
e00036d0:	6d65                	lui	s10,0x19
e00036d2:	7470                	flw	fa2,108(s0)
e00036d4:	43454843          	fmadd.d	fa6,fa0,fs4,fs0,rmm
e00036d8:	6361                	lui	t1,0x18
e00036da:	0029                	c.addi	zero,10
e00036dc:	6c69                	lui	s8,0x1a
e00036de:	203a                	fld	ft0,392(sp)
e00036e0:	61662d4b          	fnmsub.s	fs10,fa2,fs6,fa2,rdn
e00036e4:	2064                	fld	fs1,192(s0)
e00036e6:	6954756f          	jal	a0,e004b57a <fromhost+0x3b56a>
e00036ea:	656d                	lui	a0,0x1b
e00036ec:	6574                	flw	fa3,76(a0)
e00036ee:	2072                	fld	ft0,280(sp)
e00036f0:	2074                	fld	fa3,192(s0)
e00036f2:	6661                	lui	a2,0x18
e00036f4:	20636573          	csrrsi	a0,0x206,6
e00036f8:	6425                	lui	s0,0x9
e00036fa:	7520                	flw	fs0,104(a0)
e00036fc:	20555043          	fmadd.s	ft0,fa0,ft5,ft4,unknown
e0003700:	2528                	fld	fa0,72(a0)
e0003702:	2064                	fld	fs1,192(s0)
e0003704:	7365                	lui	t1,0xffff9
e0003706:	2029                	jal	e0003710 <HMAC_SMOKETEST_CLEAR+0x3114>
e0003708:	6c637963          	bleu	t1,t1,e0003dda <HMAC_SMOKETEST_CLEAR+0x37de>
e000370c:	6e69                	lui	t3,0x1a
e000370e:	61772067          	0x61772067
e0003712:	7469                	lui	s0,0xffffa
e0003714:	63656863          	bltu	a0,s6,e0003d44 <HMAC_SMOKETEST_CLEAR+0x3748>
e0003718:	6f66                	flw	ft10,88(sp)
e000371a:	2072                	fld	ft0,280(sp)
e000371c:	696e                	flw	fs2,216(sp)
e000371e:	5f6b6873          	csrrsi	a6,0x5f6,22
e0003722:	6966                	flw	fs2,88(sp)
e0003724:	616d                	addi	sp,sp,240
e0003726:	64652c63          	p.beqimm	a0,6,e0003d7e <HMAC_SMOKETEST_CLEAR+0x3782>
e000372a:	6828                	flw	fa0,80(s0)
e000372c:	7365                	lui	t1,0xffff9
e000372e:	5f74                	lw	a3,124(a4)
e0003730:	6420                	flw	fs0,72(s0)
e0003732:	6769                	lui	a4,0x1a
e0003734:	4300                	lw	s0,0(a4)
e0003736:	4548                	lw	a0,12(a0)
e0003738:	2974756f          	jal	a0,e004b1ce <fromhost+0x3b1be>
e000373c:	6961                	lui	s2,0x18
e000373e:	3a6c                	fld	fa1,240(a2)
e0003740:	662d4b43          	0x662d4b43
e0003744:	7365                	lui	t1,0xffff9
e0003746:	2e74                	fld	fa3,216(a2)
e0003748:	6420                	flw	fs0,72(s0)
e000374a:	6769                	lui	a4,0x1a
e000374c:	64207473          	csrrci	s0,0x642,0
e0003750:	6964                	flw	fs1,84(a0)
e0003752:	6f6e6567          	0x6f6e6567
e0003756:	2074                	fld	fa3,192(s0)
e0003758:	2073656f          	jal	a0,e003a15e <fromhost+0x2a14e>
e000375c:	2068                	fld	fa0,192(s0)
e000375e:	7865                	lui	a6,0xffff9
e0003760:	616d                	addi	sp,sp,240
e0003762:	6374                	flw	fa3,68(a4)
e0003764:	6465                	lui	s0,0x19
e0003766:	3e2d                	jal	e00032a0 <HMAC_SMOKETEST_CLEAR+0x2ca4>
e0003768:	6570                	flw	fa2,76(a0)
e000376a:	74737463          	bleu	t2,t1,e0003eb2 <HMAC_SMOKETEST_CLEAR+0x38b6>
e000376e:	4300                	lw	s0,0(a4)
e0003770:	6964                	flw	fs1,84(a0)
e0003772:	662d6567          	0x662d6567
e0003776:	6961                	lui	s2,0x18
e0003778:	4548                	lw	a0,12(a0)
e000377a:	64254b43          	fmadd.h	s6,a0,sp,a2,rmm
e000377e:	205d                	jal	e0003824 <HMAC_SMOKETEST_CLEAR+0x3228>
e0003780:	3a6c                	fld	fa1,240(a2)
e0003782:	5b20                	lw	s0,112(a4)
e0003784:	3020                	fld	fs0,96(s0)
e0003786:	2578                	fld	fa4,200(a0)
e0003788:	3a746f67          	0x3a746f67
e000378c:	7720                	flw	fs0,104(a4)
e000378e:	6e61                	lui	t3,0x18
e0003790:	3830                	fld	fa2,112(s0)
e0003792:	3b78                	fld	fa4,240(a4)
e0003794:	2578                	fld	fa4,200(a0)
e0003796:	3830                	fld	fa2,112(s0)
e0003798:	3a74                	fld	fa3,240(a2)
e000379a:	3020                	fld	fs0,96(s0)
e000379c:	4345                	li	t1,17
e000379e:	00782d4b          	fnmsub.s	fs10,fa6,ft7,ft0,rdn
e00037a2:	203a4843          	fmadd.s	fa6,fs4,ft3,ft4,rmm
e00037a6:	4d48                	lw	a0,28(a0)
e00037a8:	6166                	flw	ft2,88(sp)
e00037aa:	6c69                	lui	s8,0x1a
e00037ac:	7272                	flw	ft4,60(sp)
e00037ae:	4341726f          	jal	tp,e001abe2 <fromhost+0xabd2>
e00037b2:	6520                	flw	fs0,72(a0)
e00037b4:	0064                	addi	s1,sp,12
e00037b6:	4944                	lw	s1,20(a0)
e00037b8:	3d20                	fld	fs0,120(a0)
e00037ba:	2520                	fld	fs0,72(a0)
e00037bc:	6c69                	lui	s8,0x1a
e00037be:	203a                	fld	ft0,392(sp)
e00037c0:	2d46                	fld	fs10,80(sp)
e00037c2:	6166                	flw	ft2,88(sp)
e00037c4:	6d68                	flw	fa0,92(a0)
e00037c6:	6361                	lui	t1,0x18
e00037c8:	6964                	flw	fs1,84(a0)
e00037ca:	5f66                	lw	t5,120(sp)
e00037cc:	6f635f6f          	jal	t5,e0038ec2 <fromhost+0x28eb2>
e00037d0:	665f 6669 6e65      	0x6e656669665f
e00037d6:	7274                	flw	fa3,100(a2)
e00037d8:	6e75                	lui	t3,0x1d
e00037da:	5f74                	lw	a3,124(a4)
e00037dc:	6d68                	flw	fa0,92(a0)
e00037de:	6361                	lui	t1,0x18
e00037e0:	6569                	lui	a0,0x1a
e00037e2:	66692873          	csrrs	a6,0x666,s2
e00037e6:	202c5f6f          	jal	t5,e00c89e8 <fromhost+0xb89d8>
e00037ea:	6626                	flw	fa2,72(sp)
e00037ec:	2968                	fld	fa0,208(a0)
e00037ee:	7220                	flw	fs0,96(a2)
e00037f0:	6564                	flw	fs1,76(a0)
e00037f2:	7470                	flw	fa2,108(s0)
e00037f4:	736e                	flw	ft6,248(sp)
e00037f6:	2520                	fld	fs0,72(a0)
e00037f8:	7465                	lui	s0,0xffff9
e00037fa:	7275                	lui	tp,0xffffd
e00037fc:	0002                	0x2
e00037fe:	0000                	unimp
e0003800:	0064                	addi	s1,sp,12
e0003802:	0000                	unimp
e0003804:	003e                	0x3e
e0003806:	0000                	unimp
e0003808:	2fc4                	fld	fs1,152(a5)
e000380a:	f000                	fsw	fs0,32(s0)
e000380c:	f0002feb          	0xf0002feb
e0003810:	0001                	nop
e0003812:	0000                	unimp
e0003814:	2fc4                	fld	fs1,152(a5)
e0003816:	f000                	fsw	fs0,32(s0)
e0003818:	0002                	0x2
e000381a:	0000                	unimp
e000381c:	0004                	addi	s1,sp,0
e000381e:	0000                	unimp
e0003820:	0046                	0x46
e0003822:	0000                	unimp
e0003824:	0002                	0x2
e0003826:	0000                	unimp
e0003828:	302e                	fld	ft0,232(sp)
e000382a:	f000                	fsw	fs0,32(s0)
e000382c:	00000053          	fadd.s	ft0,ft0,ft0,rne
e0003830:	2fc4                	fld	fs1,152(a5)
e0003832:	f000                	fsw	fs0,32(s0)
e0003834:	3085                	jal	e0003094 <HMAC_SMOKETEST_CLEAR+0x2a98>
e0003836:	f000                	fsw	fs0,32(s0)
e0003838:	0002                	0x2
e000383a:	0000                	unimp
e000383c:	2fc4                	fld	fs1,152(a5)
e000383e:	f000                	fsw	fs0,32(s0)
e0003840:	0002                	0x2
e0003842:	0000                	unimp
e0003844:	0002                	0x2
e0003846:	0000                	unimp
e0003848:	0061                	c.addi	zero,24
e000384a:	0000                	unimp
e000384c:	0002                	0x2
e000384e:	0000                	unimp
e0003850:	30dc                	fld	fa5,160(s1)
e0003852:	f000                	fsw	fs0,32(s0)
e0003854:	0068                	addi	a0,sp,12
e0003856:	0000                	unimp
e0003858:	2fc4                	fld	fs1,152(a5)
e000385a:	f000                	fsw	fs0,32(s0)
e000385c:	313d                	jal	e000348a <HMAC_SMOKETEST_CLEAR+0x2e8e>
e000385e:	f000                	fsw	fs0,32(s0)
e0003860:	0000                	unimp
e0003862:	0000                	unimp
e0003864:	2fc4                	fld	fs1,152(a5)
e0003866:	f000                	fsw	fs0,32(s0)
e0003868:	0002                	0x2
e000386a:	0000                	unimp
e000386c:	00000003          	lb	zero,0(zero) # 0 <_min_stack-0x2000>
e0003870:	0068                	addi	a0,sp,12
e0003872:	0000                	unimp
e0003874:	0002                	0x2
e0003876:	0000                	unimp
e0003878:	f0003177          	0xf0003177
e000387c:	00000073          	ecall
e0003880:	2fc4                	fld	fs1,152(a5)
e0003882:	f000                	fsw	fs0,32(s0)
e0003884:	31a2                	fld	ft3,40(sp)
e0003886:	f000                	fsw	fs0,32(s0)
e0003888:	0001                	nop
e000388a:	0000                	unimp
e000388c:	2fc4                	fld	fs1,152(a5)
e000388e:	f000                	fsw	fs0,32(s0)
e0003890:	0002                	0x2
e0003892:	0000                	unimp
e0003894:	0001                	nop
e0003896:	0000                	unimp
e0003898:	004e                	0x4e
e000389a:	0000                	unimp
e000389c:	0002                	0x2
e000389e:	0000                	unimp
e00038a0:	31be                	fld	ft3,488(sp)
e00038a2:	f000                	fsw	fs0,32(s0)
e00038a4:	0059                	c.addi	zero,22
e00038a6:	0000                	unimp
e00038a8:	2fc4                	fld	fs1,152(a5)
e00038aa:	f000                	fsw	fs0,32(s0)
e00038ac:	31a2                	fld	ft3,40(sp)
e00038ae:	f000                	fsw	fs0,32(s0)
e00038b0:	0001                	nop
e00038b2:	0000                	unimp
e00038b4:	7665                	lui	a2,0xffff9
e00038b6:	6369                	lui	t1,0x1a
e00038b8:	642f7773          	csrrci	a4,0x642,30
e00038bc:	2f62                	fld	ft10,24(sp)
e00038be:	6574                	flw	fa3,76(a0)
e00038c0:	2f65                	jal	e0004078 <HMAC_SMOKETEST_CLEAR+0x3a7c>
e00038c2:	696c                	flw	fa1,84(a0)
e00038c4:	65742f67          	0x65742f67
e00038c8:	6e697473          	csrrci	s0,0x6e6,18
e00038cc:	6172                	flw	ft2,28(sp)
e00038ce:	656d                	lui	a0,0x1b
e00038d0:	665f7473          	csrrci	s0,0x665,30
e00038d4:	74746f2f          	0x74746f2f
e00038d8:	6b726f77          	0x6b726f77
e00038dc:	6e69                	lui	t3,0x1a
e00038de:	632e                	flw	ft6,200(sp)
e00038e0:	5f66                	lw	t5,120(sp)
e00038e2:	616d                	addi	sp,sp,240
e00038e4:	2046                	fld	ft0,80(sp)
e00038e6:	4f007563          	bleu	a6,zero,e0003dd0 <HMAC_SMOKETEST_CLEAR+0x37d4>
e00038ea:	5454                	lw	a3,44(s0)
e00038ec:	6c74                	flw	fa3,92(s0)
e00038ee:	2079                	jal	e000397c <HMAC_SMOKETEST_CLEAR+0x3380>
e00038f0:	7272                	flw	ft4,60(sp)
e00038f2:	6e65                	lui	t3,0x19
e00038f4:	7320                	flw	fs0,96(a4)
e00038f6:	7075                	0x7075
e00038f8:	796c6e6f          	jal	t3,e00ca08e <fromhost+0xba07e>
e00038fc:	73752073          	csrs	0x737,a0
e0003900:	6f70                	flw	fa2,92(a4)
e0003902:	7472                	flw	fs0,60(sp)
e0003904:	6d20                	flw	fs0,88(a0)
e0003906:	6361                	lui	t1,0x18
e0003908:	2065                	jal	e00039b0 <HMAC_SMOKETEST_CLEAR+0x33b4>
e000390a:	6d2d666f          	jal	a2,e00d9fdc <fromhost+0xc9fcc>
e000390e:	6968646f          	jal	s0,e0089fa4 <fromhost+0x79f94>
e0003912:	656e                	flw	fa0,216(sp)
e0003914:	6c61                	lui	s8,0x18
e0003916:	206c                	fld	fa1,192(s0)
e0003918:	2065                	jal	e00039c0 <HMAC_SMOKETEST_CLEAR+0x33c4>
e000391a:	6365                	lui	t1,0x19
e000391c:	7246                	flw	ft4,112(sp)
e000391e:	6565                	lui	a0,0x19
e0003920:	6f66                	flw	ft10,88(sp)
e0003922:	2072                	fld	ft0,280(sp)
e0003924:	6320                	flw	fs0,64(a4)
e0003926:	54526e6f          	jal	t3,e002a66a <fromhost+0x1a65a>
e000392a:	7320534f          	fnmadd.d	ft6,ft0,fs2,fa4,unknown
e000392e:	65746977          	0x65746977
e0003932:	7478                	flw	fa4,108(s0)
e0003934:	676e                	flw	fa4,216(sp)
e0003936:	002e                	0x2e
e0003938:	6374                	flw	fa3,68(a4)
e000393a:	6968                	flw	fa0,84(a0)
e000393c:	6e69                	lui	t3,0x1a
e000393e:	75522067          	0x75522067
e0003942:	6e6e                	flw	ft8,216(sp)
e0003944:	4649                	li	a2,18
e0003946:	662d                	lui	a2,0xb
e0003948:	7325                	lui	t1,0xfffe9
e000394a:	4400                	lw	s0,8(s0)
e000394c:	6420                	flw	fs0,72(s0)
e000394e:	6669                	lui	a2,0x1a
e0003950:	6961                	lui	s2,0x18
e0003952:	3a6c                	fld	fa1,240(a2)
e0003954:	65726f63          	bltu	tp,s7,e0003fb2 <HMAC_SMOKETEST_CLEAR+0x39b6>
e0003958:	725f 5f76 5f78      	0x5f785f76725f
e000395e:	6e69                	lui	t3,0x1a
e0003960:	695f 6562 6d6d      	0x6d6d6562695f
e0003966:	6f69                	lui	t5,0x1a
e0003968:	7469                	lui	s0,0xffffa
e000396a:	2028                	fld	fa0,64(s0)
e000396c:	6f69                	lui	t5,0x1a
e000396e:	5f6e                	lw	t5,248(sp)
e0003970:	725f 6765 615f      	0x615f6765725f
e0003976:	6464                	flw	fs1,76(s0)
e0003978:	7266                	flw	ft4,120(sp)
e000397a:	5f506d6f          	jal	s10,e000a76e <_stack+0x76e>
e000397e:	4145                	li	sp,17
e0003980:	2872                	fld	fa6,280(sp)
e0003982:	4f54                	lw	a3,28(a4)
e0003984:	5945                	li	s2,-15
e0003986:	525f 4c52 5247      	0x52474c52525f
e000398c:	4552                	lw	a0,20(sp)
e000398e:	495f 5f56 4f43      	0x4f435f56495f
e0003994:	5f474643          	0x5f474643
e0003998:	4542                	lw	a0,16(sp)
e000399a:	5f58                	lw	a4,60(a4)
e000399c:	415f 4444 4142      	0x41424444415f
e00039a2:	72264553          	0x72264553
e00039a6:	5f76                	lw	t5,124(sp)
e00039a8:	2952                	fld	fs2,272(sp)
e00039aa:	202c                	fld	fa1,64(s0)
e00039ac:	695f 6562 6f63      	0x6f636562695f
e00039b2:	6572                	flw	fa0,28(sp)
e00039b4:	7465                	lui	s0,0xffff9
e00039b6:	7275                	lui	tp,0xffffd
e00039b8:	2978                	fld	fa4,208(a0)
e00039ba:	7220                	flw	fs0,96(a2)
e00039bc:	0064                	addi	s1,sp,12
e00039be:	6574                	flw	fa3,76(a0)
e00039c0:	736e                	flw	ft6,248(sp)
e00039c2:	2520                	fld	fs0,72(a0)
e00039c4:	6961                	lui	s2,0x18
e00039c6:	006e                	0x6e
e00039c8:	6d5f7473          	csrrci	s0,0x6d5,30
e00039cc:	61662d4b          	fnmsub.s	fs10,fa2,fs6,fa2,rdn
e00039d0:	43454843          	fmadd.d	fa6,fa0,fs4,fs0,rmm
e00039d4:	6166                	flw	ft2,88(sp)
e00039d6:	736c                	flw	fa1,100(a4)
e00039d8:	6c69                	lui	s8,0x1a
e00039da:	203a                	fld	ft0,392(sp)
e00039dc:	2d46                	fld	fs10,80(sp)
e00039de:	6166                	flw	ft2,88(sp)
e00039e0:	0065                	c.addi	zero,25
e00039e2:	4944                	lw	s1,20(a0)
e00039e4:	6964                	flw	fs1,84(a0)
e00039e6:	5f66                	lw	t5,120(sp)
e00039e8:	6c69                	lui	s8,0x1a
e00039ea:	203a                	fld	ft0,392(sp)
e00039ec:	695f 696e 6175      	0x6175696e695f
e00039f2:	7472                	flw	fs0,60(sp)
e00039f4:	696d                	lui	s2,0x1b
e00039f6:	28745f6f          	jal	t5,e004947c <fromhost+0x3946c>
e00039fa:	6d20                	flw	fs0,88(a0)
e00039fc:	665f6e6f          	jal	t3,e00fa860 <fromhost+0xea850>
e0003a00:	6572                	flw	fa0,28(sp)
e0003a02:	64616967          	0x64616967
e0003a06:	7264                	flw	fs1,100(a2)
e0003a08:	6f72                	flw	ft10,28(sp)
e0003a0a:	5f6d                	li	t5,-5
e0003a0c:	455f 5241 5428      	0x54285241455f
e0003a12:	5f59504f          	0x5f59504f
e0003a16:	4155                	li	sp,21
e0003a18:	474c                	lw	a1,12(a4)
e0003a1a:	4552                	lw	a0,20(sp)
e0003a1c:	4142                	lw	sp,16(sp)
e0003a1e:	54524553          	0x54524553
e0003a22:	5f30                	lw	a2,120(a4)
e0003a24:	2952                	fld	fs2,272(sp)
e0003a26:	202c                	fld	fa1,64(s0)
e0003a28:	415f 4444 3074      	0x30744444415f
e0003a2e:	2029                	jal	e0003a38 <HMAC_SMOKETEST_CLEAR+0x343c>
e0003a30:	7526                	flw	fa0,104(sp)
e0003a32:	7261                	lui	tp,0xffff8
e0003a34:	6e72                	flw	ft8,28(sp)
e0003a36:	65722073          	csrs	0x657,tp
e0003a3a:	7574                	flw	fa3,108(a0)
e0003a3c:	4649                	li	a2,18
e0003a3e:	662d                	lui	a2,0xb
e0003a40:	6425                	lui	s0,0x9
e0003a42:	4400                	lw	s0,8(s0)
e0003a44:	6420                	flw	fs0,72(s0)
e0003a46:	6669                	lui	a2,0x1a
e0003a48:	6961                	lui	s2,0x18
e0003a4a:	3a6c                	fld	fa1,240(a2)
e0003a4c:	5f74                	lw	a3,124(a4)
e0003a4e:	755f6f63          	bltu	t5,s5,e00041ac <HMAC_SMOKETEST_CLEAR+0x3bb0>
e0003a52:	7261                	lui	tp,0xffff8
e0003a54:	7275                	lui	tp,0xffffd
e0003a56:	2865                	jal	e0003b0e <HMAC_SMOKETEST_CLEAR+0x3512>
e0003a58:	666e                	flw	fa2,216(sp)
e0003a5a:	6769                	lui	a4,0x1a
e0003a5c:	3074                	fld	fa3,224(s0)
e0003a5e:	202c                	fld	fa1,64(s0)
e0003a60:	7526                	flw	fa0,104(sp)
e0003a62:	7261                	lui	tp,0xffff8
e0003a64:	755f 7261 6428      	0x64287261755f
e0003a6a:	6669                	lui	a2,0x1a
e0003a6c:	666e                	flw	fa2,216(sp)
e0003a6e:	6769                	lui	a4,0x1a
e0003a70:	5f74                	lw	a3,124(a4)
e0003a72:	2e206f63          	bltu	zero,sp,e0003d70 <HMAC_SMOKETEST_CLEAR+0x3774>
e0003a76:	6162                	flw	ft2,24(sp)
e0003a78:	745f 7b29 6574      	0x65747b29745f
e0003a7e:	3d20                	fld	fs0,120(a0)
e0003a80:	6475                	lui	s0,0x1d
e0003a82:	6172                	flw	ft2,28(sp)
e0003a84:	7472                	flw	fs0,60(sp)
e0003a86:	6142                	flw	ft2,16(sp)
e0003a88:	6b20                	flw	fs0,80(a4)
e0003a8a:	6155                	addi	sp,sp,304
e0003a8c:	6574                	flw	fa3,76(a0)
e0003a8e:	202c                	fld	fa1,64(s0)
e0003a90:	6475                	lui	s0,0x1d
e0003a92:	6172                	flw	ft2,28(sp)
e0003a94:	665f 6572 632e      	0x632e6572665f
e0003a9a:	6b6c                	flw	fa1,84(a4)
e0003a9c:	3d20                	fld	fs0,120(a0)
e0003a9e:	6b20                	flw	fs0,80(a4)
e0003aa0:	5f71                	li	t5,-4
e0003aa2:	7a68                	flw	fa0,116(a2)
e0003aa4:	6572466b          	0x6572466b
e0003aa8:	636f6c43          	fmadd.d	fs8,ft10,fs6,fa2,unknown
e0003aac:	7069                	0x7069
e0003aae:	6568                	flw	fa0,76(a0)
e0003ab0:	5071                	0x5071
e0003ab2:	7265                	lui	tp,0xffff9
e0003ab4:	2c7a                	fld	fs8,408(sp)
e0003ab6:	2e20                	fld	fs0,88(a2)
e0003ab8:	6172                	flw	ft2,28(sp)
e0003aba:	486c                	lw	a1,84(s0)
e0003abc:	7974                	flw	fa3,116(a0)
e0003abe:	655f 6170 6972      	0x69726170655f
e0003ac4:	2065                	jal	e0003b6c <HMAC_SMOKETEST_CLEAR+0x3570>
e0003ac6:	203d                	jal	e0003af4 <HMAC_SMOKETEST_CLEAR+0x34f8>
e0003ac8:	616e                	flw	ft2,216(sp)
e0003aca:	6c62                	flw	fs8,24(sp)
e0003acc:	6f54                	flw	fa3,28(a4)
e0003ace:	446b6767          	0x446b6767
e0003ad2:	6669                	lui	a2,0x1a
e0003ad4:	6c626173          	csrrsi	sp,0x6c6,4
e0003ad8:	656c                	flw	fa1,76(a0)
e0003ada:	6944                	flw	fs1,20(a0)
e0003adc:	702e                	flw	ft0,232(sp)
e0003ade:	7261                	lui	tp,0xffff8
e0003ae0:	6465                	lui	s0,0x19
e0003ae2:	202c                	fld	fa1,64(s0)
e0003ae4:	203d                	jal	e0003b12 <HMAC_SMOKETEST_CLEAR+0x3516>
e0003ae6:	7469446b          	0x7469446b
e0003aea:	2079                	jal	e0003b78 <HMAC_SMOKETEST_CLEAR+0x357c>
e0003aec:	7472                	flw	fs0,60(sp)
e0003aee:	6150                	flw	fa2,4(a0)
e0003af0:	6669                	lui	a2,0x1a
e0003af2:	6155                	addi	sp,sp,304
e0003af4:	7645                	lui	a2,0xffff1
e0003af6:	6e65                	lui	t3,0x19
e0003af8:	6972                	flw	fs2,28(sp)
e0003afa:	7974                	flw	fa3,116(a0)
e0003afc:	7220                	flw	fs0,96(a2)
e0003afe:	7465                	lui	s0,0xffff9
e0003b00:	202c                	fld	fa1,64(s0)
e0003b02:	297d                	jal	e0003fc0 <HMAC_SMOKETEST_CLEAR+0x39c4>
e0003b04:	2520                	fld	fs0,72(a0)
e0003b06:	0064                	addi	s1,sp,12
e0003b08:	7275                	lui	tp,0xffffd
e0003b0a:	736e                	flw	ft6,248(sp)
e0003b0c:	64656873          	csrrsi	a6,0x646,10
e0003b10:	6946                	flw	fs2,80(sp)
e0003b12:	696e                	flw	fs2,216(sp)
e0003b14:	0002                	0x2
e0003b16:	0000                	unimp
e0003b18:	2520                	fld	fs0,72(a0)
e0003b1a:	003b0073          	0x3b0073
e0003b1e:	0000                	unimp
e0003b20:	32b8                	fld	fa4,96(a3)
e0003b22:	f000                	fsw	fs0,32(s0)
e0003b24:	32e9                	jal	e00034ee <HMAC_SMOKETEST_CLEAR+0x2ef2>
e0003b26:	f000                	fsw	fs0,32(s0)
e0003b28:	0000                	unimp
e0003b2a:	0000                	unimp
e0003b2c:	32b8                	fld	fa4,96(a3)
e0003b2e:	f000                	fsw	fs0,32(s0)
e0003b30:	0000                	unimp
e0003b32:	0000                	unimp
e0003b34:	0001                	nop
e0003b36:	0000                	unimp
e0003b38:	007e                	0x7e
e0003b3a:	0000                	unimp
e0003b3c:	0002                	0x2
e0003b3e:	0000                	unimp
e0003b40:	3340                	fld	fs0,160(a4)
e0003b42:	f000                	fsw	fs0,32(s0)
e0003b44:	0086                	slli	ra,ra,0x1
e0003b46:	0000                	unimp
e0003b48:	32b8                	fld	fa4,96(a3)
e0003b4a:	f000                	fsw	fs0,32(s0)
e0003b4c:	f000334b          	fnmsub.s	ft6,ft0,ft0,ft10,rup
e0003b50:	0001                	nop
e0003b52:	0000                	unimp
e0003b54:	32b8                	fld	fa4,96(a3)
e0003b56:	f000                	fsw	fs0,32(s0)
e0003b58:	0002                	0x2
e0003b5a:	0000                	unimp
e0003b5c:	0000                	unimp
e0003b5e:	0000                	unimp
e0003b60:	0096                	slli	ra,ra,0x5
e0003b62:	0000                	unimp
e0003b64:	0002                	0x2
e0003b66:	0000                	unimp
e0003b68:	33d0                	fld	fa2,160(a5)
e0003b6a:	f000                	fsw	fs0,32(s0)
e0003b6c:	00000053          	fadd.s	ft0,ft0,ft0,rne
e0003b70:	32b8                	fld	fa4,96(a3)
e0003b72:	f000                	fsw	fs0,32(s0)
e0003b74:	33e2                	fld	ft7,56(sp)
e0003b76:	f000                	fsw	fs0,32(s0)
e0003b78:	0001                	nop
e0003b7a:	0000                	unimp
e0003b7c:	32b8                	fld	fa4,96(a3)
e0003b7e:	f000                	fsw	fs0,32(s0)
e0003b80:	0002                	0x2
e0003b82:	0000                	unimp
e0003b84:	0001                	nop
e0003b86:	0000                	unimp
e0003b88:	005a                	0x5a
e0003b8a:	0000                	unimp
e0003b8c:	0000                	unimp
e0003b8e:	0000                	unimp
e0003b90:	f0003443          	fmadd.s	fs0,ft0,ft0,ft10,rup
e0003b94:	0064                	addi	s1,sp,12
e0003b96:	0000                	unimp
e0003b98:	32b8                	fld	fa4,96(a3)
e0003b9a:	f000                	fsw	fs0,32(s0)
e0003b9c:	3510                	fld	fa2,40(a0)
e0003b9e:	f000                	fsw	fs0,32(s0)
e0003ba0:	0001                	nop
e0003ba2:	0000                	unimp
e0003ba4:	7665                	lui	a2,0xffff9
e0003ba6:	6369                	lui	t1,0x1a
e0003ba8:	642f7773          	csrrci	a4,0x642,30
e0003bac:	2f62                	fld	ft10,24(sp)
e0003bae:	6574                	flw	fa3,76(a0)
e0003bb0:	2f65                	jal	e0004368 <HMAC_SMOKETEST_CLEAR+0x3d6c>
e0003bb2:	696c                	flw	fa1,84(a0)
e0003bb4:	65742f67          	0x65742f67
e0003bb8:	6e697473          	csrrci	s0,0x6e6,18
e0003bbc:	6172                	flw	ft2,28(sp)
e0003bbe:	656d                	lui	a0,0x1b
e0003bc0:	665f7473          	csrrci	s0,0x665,30
e0003bc4:	6572662f          	0x6572662f
e0003bc8:	6b726f77          	0x6b726f77
e0003bcc:	6f685f73          	csrrwi	t5,0x6f6,16
e0003bd0:	7265                	lui	tp,0xffff9
e0003bd2:	6f74                	flw	fa3,92(a4)
e0003bd4:	72460063          	beq	a2,tp,e00042f4 <HMAC_SMOKETEST_CLEAR+0x3cf8>
e0003bd8:	2e736b6f          	jal	s6,e003a6be <fromhost+0x2a6ae>
e0003bdc:	6d20534f          	fnmadd.ah	t1,zero,s2,a3
e0003be0:	6565                	lui	a0,0x19
e0003be2:	5452                	lw	s0,52(sp)
e0003be4:	61662063          	p.beqimm	a2,-10,e00041e4 <HMAC_SMOKETEST_CLEAR+0x3be8>
e0003be8:	6c61                	lui	s8,0x18
e0003bea:	6f6c                	flw	fa1,92(a4)
e0003bec:	202e                	fld	ft0,200(sp)
e0003bee:	6e49                	lui	t3,0x12
e0003bf0:	6c69                	lui	s8,0x1a
e0003bf2:	6465                	lui	s0,0x19
e0003bf4:	68206573          	csrrsi	a0,0x682,0
e0003bf8:	61657263          	bleu	s6,a0,e00041fc <HMAC_SMOKETEST_CLEAR+0x3c00>
e0003bfc:	657a6973          	csrrsi	s2,0x657,20
e0003c00:	6165                	addi	sp,sp,112
e0003c02:	2070                	fld	fa2,192(s0)
e0003c04:	7246                	flw	ft4,112(sp)
e0003c06:	6565                	lui	a0,0x19
e0003c08:	6920                	flw	fs0,80(a0)
e0003c0a:	206e                	fld	ft0,216(sp)
e0003c0c:	666e6f43          	0x666e6f43
e0003c10:	5452                	lw	s0,52(sp)
e0003c12:	4600534f          	0x4600534f
e0003c16:	6572                	flw	fa0,28(sp)
e0003c18:	6769                	lui	a4,0x1a
e0003c1a:	682e                	flw	fa6,200(sp)
e0003c1c:	74732053          	0x74732053
e0003c20:	5265                	li	tp,-7
e0003c22:	4f54                	lw	a3,28(a4)
e0003c24:	7265766f          	jal	a2,e005b34a <fromhost+0x4b33a>
e0003c28:	6361                	lui	t1,0x18
e0003c2a:	202e206b          	0x202e206b
e0003c2e:	6e49                	lui	t3,0x12
e0003c30:	6c66                	flw	fs8,88(sp)
e0003c32:	6573776f          	jal	a4,e003ba88 <fromhost+0x2ba78>
e0003c36:	7320                	flw	fs0,96(a4)
e0003c38:	61657263          	bleu	s6,a0,e000423c <HMAC_SMOKETEST_CLEAR+0x3c40>
e0003c3c:	7320                	flw	fs0,96(a4)
e0003c3e:	7a69                	lui	s4,0xffffa
e0003c40:	6174                	flw	fa3,68(a0)
e0003c42:	74206b63          	bltu	zero,sp,e0004398 <HMAC_SMOKETEST_CLEAR+0x3d9c>
e0003c46:	7361                	lui	t1,0xffff8
e0003c48:	2065                	jal	e0003cf0 <HMAC_SMOKETEST_CLEAR+0x36f4>
e0003c4a:	0073666f          	jal	a2,e003a450 <fromhost+0x2a440>
e0003c4e:	0000                	unimp
e0003c50:	25203a6b          	0x25203a6b
e0003c54:	35a8                	fld	fa0,104(a1)
e0003c56:	f000                	fsw	fs0,32(s0)
	...
e0003c60:	00000013          	nop
e0003c64:	0000                	unimp
e0003c66:	0000                	unimp
e0003c68:	35de                	fld	fa1,496(sp)
e0003c6a:	f000                	fsw	fs0,32(s0)
e0003c6c:	001d                	c.addi	zero,7
e0003c6e:	0000                	unimp
e0003c70:	35a8                	fld	fa0,104(a1)
e0003c72:	f000                	fsw	fs0,32(s0)
e0003c74:	361d                	jal	e000379a <HMAC_SMOKETEST_CLEAR+0x319e>
e0003c76:	f000                	fsw	fs0,32(s0)
e0003c78:	0000                	unimp
e0003c7a:	0000                	unimp
e0003c7c:	1638                	addi	a4,sp,808
e0003c7e:	f000                	fsw	fs0,32(s0)
e0003c80:	1632                	slli	a2,a2,0x2c
e0003c82:	f000                	fsw	fs0,32(s0)
e0003c84:	1644                	addi	s1,sp,804
e0003c86:	f000                	fsw	fs0,32(s0)
e0003c88:	163e                	slli	a2,a2,0x2f
e0003c8a:	f000                	fsw	fs0,32(s0)
e0003c8c:	162c                	addi	a1,sp,808
e0003c8e:	f000                	fsw	fs0,32(s0)
e0003c90:	1656                	slli	a2,a2,0x35
e0003c92:	f000                	fsw	fs0,32(s0)
e0003c94:	162c                	addi	a1,sp,808
e0003c96:	f000                	fsw	fs0,32(s0)
e0003c98:	1656                	slli	a2,a2,0x35
e0003c9a:	f000                	fsw	fs0,32(s0)
e0003c9c:	1656                	slli	a2,a2,0x35
e0003c9e:	f000                	fsw	fs0,32(s0)
e0003ca0:	164a                	slli	a2,a2,0x32
e0003ca2:	f000                	fsw	fs0,32(s0)
e0003ca4:	1650                	addi	a2,sp,804
e0003ca6:	f000                	fsw	fs0,32(s0)
e0003ca8:	1656                	slli	a2,a2,0x35
e0003caa:	f000                	fsw	fs0,32(s0)
e0003cac:	7665                	lui	a2,0xffff9
e0003cae:	6369                	lui	t1,0x1a
e0003cb0:	642f7773          	csrrci	a4,0x642,30
e0003cb4:	2f62                	fld	ft10,24(sp)
e0003cb6:	6574                	flw	fa3,76(a0)
e0003cb8:	2f65                	jal	e0004470 <HMAC_SMOKETEST_CLEAR+0x3e74>
e0003cba:	696c                	flw	fa1,84(a0)
e0003cbc:	65742f67          	0x65742f67
e0003cc0:	6e697473          	csrrci	s0,0x6e6,18
e0003cc4:	6172                	flw	ft2,28(sp)
e0003cc6:	656d                	lui	a0,0x1b
e0003cc8:	665f7473          	csrrci	s0,0x665,30
e0003ccc:	74746f2f          	0x74746f2f
e0003cd0:	6b726f77          	0x6b726f77
e0003cd4:	7372                	flw	ft6,60(sp)
e0003cd6:	632e                	flw	ft6,200(sp)
e0003cd8:	5f66                	lw	t5,120(sp)
e0003cda:	7369                	lui	t1,0xffffa
e0003cdc:	544c                	lw	a1,44(s0)
e0003cde:	203a                	fld	ft0,392(sp)
e0003ce0:	4600                	lw	s0,8(a2)
e0003ce2:	5541                	li	a0,-16
e0003ce4:	434d                	li	t1,19
e0003ce6:	5541                	li	a0,-16
e0003ce8:	7325                	lui	t1,0xfffe9
e0003cea:	202e                	fld	ft0,200(sp)
e0003cec:	3830                	fld	fa2,112(s0)
e0003cee:	2078                	fld	fa4,192(s0)
e0003cf0:	253d4553          	fsgnj.ah	a0,s10,s3
e0003cf4:	253d                	jal	e0004322 <HMAC_SMOKETEST_CLEAR+0x3d26>
e0003cf6:	3830                	fld	fa2,112(s0)
e0003cf8:	454d                	li	a0,19
e0003cfa:	4350                	lw	a2,4(a4)
e0003cfc:	4156                	lw	sp,84(sp)
e0003cfe:	3d4c                	fld	fa1,184(a0)
e0003d00:	2078                	fld	fa4,192(s0)
e0003d02:	544d                	li	s0,-13
e0003d04:	5300                	lw	s0,32(a4)
e0003d06:	3025666f          	jal	a2,e005a008 <fromhost+0x49ff8>
e0003d0a:	7838                	flw	fa4,112(s0)
e0003d0c:	2065                	jal	e0003db4 <HMAC_SMOKETEST_CLEAR+0x37b8>
e0003d0e:	5249                	li	tp,-14
e0003d10:	7774                	flw	fa3,108(a4)
e0003d12:	7261                	lui	tp,0xffff8
e0003d14:	656d                	lui	a0,0x1b
e0003d16:	2072                	fld	ft0,280(sp)
e0003d18:	0051                	c.addi	zero,20
e0003d1a:	6954                	flw	fa3,20(a0)
e0003d1c:	4944                	lw	s1,20(a0)
e0003d1e:	2d46                	fld	fs10,80(sp)
e0003d20:	5249                	li	tp,-14
e0003d22:	0051                	c.addi	zero,20
e0003d24:	203a                	fld	ft0,392(sp)
e0003d26:	6964                	flw	fs1,84(a0)
e0003d28:	6166                	flw	ft2,88(sp)
e0003d2a:	6c69                	lui	s8,0x1a
e0003d2c:	705f 696c 5f66      	0x5f66696c705f
e0003d32:	7672                	flw	fa2,60(sp)
e0003d34:	5f71                	li	t5,-4
e0003d36:	5f636c63          	bltu	t1,s6,e000432e <HMAC_SMOKETEST_CLEAR+0x3d32>
e0003d3a:	7269                	lui	tp,0xffffa
e0003d3c:	6f26                	flw	ft10,72(sp)
e0003d3e:	7474                	flw	fa3,108(s0)
e0003d40:	6961                	lui	s2,0x18
e0003d42:	286d                	jal	e0003dfc <HMAC_SMOKETEST_CLEAR+0x3800>
e0003d44:	6369                	lui	t1,0x1a
e0003d46:	202c                	fld	fa1,64(s0)
e0003d48:	5f66                	lw	t5,120(sp)
e0003d4a:	6c70                	flw	fa2,92(s0)
e0003d4c:	72615463          	ble	t1,sp,e0004474 <HMAC_SMOKETEST_CLEAR+0x3e78>
e0003d50:	696c506b          	0x696c506b
e0003d54:	2620                	fld	fs0,72(a2)
e0003d56:	6c70                	flw	fa2,92(s0)
e0003d58:	2c746567          	0x2c746567
e0003d5c:	7172                	flw	ft2,60(sp)
e0003d5e:	695f 6369 695f      	0x695f6369695f
e0003d64:	7465                	lui	s0,0xffff9
e0003d66:	7275                	lui	tp,0xffffd
e0003d68:	2964                	fld	fs1,208(a0)
e0003d6a:	7220                	flw	fs0,96(a2)
e0003d6c:	0064                	addi	s1,sp,12
e0003d6e:	4944                	lw	s1,20(a0)
e0003d70:	736e                	flw	ft6,248(sp)
e0003d72:	2520                	fld	fs0,72(a0)
e0003d74:	6c69                	lui	s8,0x1a
e0003d76:	203a                	fld	ft0,392(sp)
e0003d78:	2d46                	fld	fs10,80(sp)
e0003d7a:	6166                	flw	ft2,88(sp)
e0003d7c:	7672                	flw	fa2,60(sp)
e0003d7e:	705f 6964 5f66      	0x5f666964705f
e0003d84:	7269                	lui	tp,0xffffa
e0003d86:	5f71                	li	t5,-4
e0003d88:	696c                	flw	fa1,84(a0)
e0003d8a:	656c5f63          	ble	s6,s8,e00043e8 <HMAC_SMOKETEST_CLEAR+0x3dec>
e0003d8e:	6574                	flw	fa3,76(a0)
e0003d90:	706d6f63          	bltu	s10,t1,e00044ae <HMAC_SMOKETEST_CLEAR+0x3eb2>
e0003d94:	6674                	flw	fa3,76(a2)
e0003d96:	705f 2628 746f      	0x746f2628705f
e0003d9c:	6b20                	flw	fs0,80(a4)
e0003d9e:	6c50                	flw	fa2,28(s0)
e0003da0:	696c                	flw	fa1,84(a0)
e0003da2:	67722c63          	p.beqimm	tp,-9,e000441a <HMAC_SMOKETEST_CLEAR+0x3e1e>
e0003da6:	7465                	lui	s0,0xffff9
e0003da8:	6369                	lui	t1,0x1a
e0003daa:	6154                	flw	fa3,4(a0)
e0003dac:	6369                	lui	t1,0x1a
e0003dae:	695f 202c 6c70      	0x6c70202c695f
e0003db4:	2964                	fld	fs1,208(a0)
e0003db6:	7220                	flw	fs0,96(a2)
e0003db8:	7172                	flw	ft2,60(sp)
e0003dba:	695f 736e 2520      	0x2520736e695f
e0003dc0:	7465                	lui	s0,0xffff9
e0003dc2:	7275                	lui	tp,0xffffd
e0003dc4:	6574                	flw	fa3,76(a0)
e0003dc6:	6e72                	flw	ft8,28(sp)
e0003dc8:	0064                	addi	s1,sp,12
e0003dca:	7845                	lui	a6,0xffff1
e0003dcc:	5152                	lw	sp,52(sp)
e0003dce:	4900                	lw	s0,16(a0)
e0003dd0:	6c61                	lui	s8,0x18
e0003dd2:	4920                	lw	s0,80(a0)
e0003dd4:	6375                	lui	t1,0x1d
e0003dd6:	6974                	flw	fa3,84(a0)
e0003dd8:	736e                	flw	ft6,248(sp)
e0003dda:	7274                	flw	fa3,100(a2)
e0003ddc:	7369                	lui	t1,0xffffa
e0003dde:	6c61                	lui	s8,0x18
e0003de0:	4d206e6f          	jal	t3,e000a2b2 <_stack+0x2b2>
e0003de4:	0064                	addi	s1,sp,12
e0003de6:	6e49                	lui	t3,0x12
e0003de8:	6769                	lui	a4,0x1a
e0003dea:	656e                	flw	fa0,216(sp)
e0003dec:	6f697463          	bleu	s6,s2,e00044d4 <HMAC_SMOKETEST_CLEAR+0x3ed8>
e0003df0:	75727473          	csrrci	s0,0x757,4
e0003df4:	73736563          	bltu	t1,s7,e000451e <HMAC_SMOKETEST_CLEAR+0x3f22>
e0003df8:	206e                	fld	ft0,216(sp)
e0003dfa:	6341                	lui	t1,0x10
e0003dfc:	6765                	lui	a4,0x19
e0003dfe:	6c61                	lui	s8,0x18
e0003e00:	4900                	lw	s0,16(a0)
e0003e02:	6c6c                	flw	fa1,92(s0)
e0003e04:	7274                	flw	fa3,100(a2)
e0003e06:	6375                	lui	t1,0x1d
e0003e08:	4920                	lw	s0,80(a0)
e0003e0a:	736e                	flw	ft6,248(sp)
e0003e0c:	4200                	lw	s0,0(a2)
e0003e0e:	6572                	flw	fa0,28(sp)
e0003e10:	6974                	flw	fa3,84(a0)
e0003e12:	6e696e6f          	jal	t3,e009a4f8 <fromhost+0x8a4e8>
e0003e16:	0074                	addi	a3,sp,12
e0003e18:	6b61                	lui	s6,0x18
e0003e1a:	6f70                	flw	fa2,92(a4)
e0003e1c:	4120                	lw	s0,64(a0)
e0003e1e:	6464                	flw	fs1,76(s0)
e0003e20:	6f4c                	flw	fa1,28(a4)
e0003e22:	6461                	lui	s0,0x18
e0003e24:	4d20                	lw	s0,88(a0)
e0003e26:	7369                	lui	t1,0xffffa
e0003e28:	6572                	flw	fa0,28(sp)
e0003e2a:	656e7373          	csrrci	t1,0x656,28
e0003e2e:	0064                	addi	s1,sp,12
e0003e30:	6c61                	lui	s8,0x18
e0003e32:	6769                	lui	a4,0x1a
e0003e34:	4120                	lw	s0,64(a0)
e0003e36:	6f4c6363          	bltu	s8,s4,e000451c <HMAC_SMOKETEST_CLEAR+0x3f20>
e0003e3a:	6461                	lui	s0,0x18
e0003e3c:	6146                	flw	ft2,80(sp)
e0003e3e:	6c75                	lui	s8,0x1d
e0003e40:	7365                	lui	t1,0xffff9
e0003e42:	726f2073          	csrs	0x726,t5
e0003e46:	2065                	jal	e0003eee <HMAC_SMOKETEST_CLEAR+0x38f2>
e0003e48:	0074                	addi	a3,sp,12
e0003e4a:	73657453          	0x73657453
e0003e4e:	64412073          	csrs	0x644,sp
e0003e52:	7264                	flw	fs1,100(a2)
e0003e54:	696c                	flw	fa1,84(a0)
e0003e56:	694d6e67          	0x694d6e67
e0003e5a:	6f746173          	csrrsi	sp,0x6f7,8
e0003e5e:	6572                	flw	fa0,28(sp)
e0003e60:	6465                	lui	s0,0x19
e0003e62:	5300                	lw	s0,32(a4)
e0003e64:	7365                	lui	t1,0xffff9
e0003e66:	41202073          	csrr	zero,0x412
e0003e6a:	00746363          	bltu	s0,t2,e0003e70 <HMAC_SMOKETEST_CLEAR+0x3874>
e0003e6e:	2d55                	jal	e0004522 <HMAC_SMOKETEST_CLEAR+0x3f26>
e0003e70:	6146                	flw	ft2,80(sp)
e0003e72:	6c75                	lui	s8,0x1d
e0003e74:	4520                	lw	s0,72(a0)
e0003e76:	6f6d6163          	bltu	s10,s6,e0004558 <HMAC_SMOKETEST_CLEAR+0x3f5c>
e0003e7a:	6564                	flw	fs1,76(a0)
e0003e7c:	6d2d                	lui	s10,0xb
e0003e7e:	6c6c646f          	jal	s0,e00ca544 <fromhost+0xba534>
e0003e82:	5300                	lw	s0,32(a4)
e0003e84:	6c61                	lui	s8,0x18
e0003e86:	006c                	addi	a1,sp,12
e0003e88:	2065                	jal	e0003f30 <HMAC_SMOKETEST_CLEAR+0x3934>
e0003e8a:	6345                	lui	t1,0x11
e0003e8c:	7672                	flw	fa2,60(sp)
e0003e8e:	6465                	lui	s0,0x19
e0003e90:	6552                	flw	fa0,20(sp)
e0003e92:	646f6573          	csrrsi	a0,0x646,30
e0003e96:	2065                	jal	e0003f3e <HMAC_SMOKETEST_CLEAR+0x3942>
e0003e98:	4d00                	lw	s0,24(a0)
e0003e9a:	6d2d                	lui	s10,0xb
e0003e9c:	006c                	addi	a1,sp,12
e0003e9e:	6e49                	lui	t3,0x12
e0003ea0:	6345                	lui	t1,0x11
e0003ea2:	6c61                	lui	s8,0x18
e0003ea4:	6f697463          	bleu	s6,s2,e000458c <HMAC_SMOKETEST_CLEAR+0x3f90>
e0003ea8:	75727473          	csrrci	s0,0x757,4
e0003eac:	46206567          	0x46206567
e0003eb0:	206e                	fld	ft0,216(sp)
e0003eb2:	6150                	flw	fa2,4(a0)
e0003eb4:	4c00                	lw	s0,24(s0)
e0003eb6:	7561616f          	jal	sp,e001a60c <fromhost+0xa5fc>
e0003eba:	746c                	flw	fa1,108(s0)
e0003ebc:	46206567          	0x46206567
e0003ec0:	2064                	fld	fs1,192(s0)
e0003ec2:	6150                	flw	fa2,4(a0)
e0003ec4:	5300                	lw	s0,32(a4)
e0003ec6:	6f74                	flw	fa3,92(a4)
e0003ec8:	7561                	lui	a0,0xffff8
e0003eca:	746c                	flw	fa1,108(s0)
e0003ecc:	6761                	lui	a4,0x18
e0003ece:	2065                	jal	e0003f76 <HMAC_SMOKETEST_CLEAR+0x397a>
e0003ed0:	6572                	flw	fa0,28(sp)
e0003ed2:	5020                	lw	s0,96(s0)
e0003ed4:	0074                	addi	a3,sp,12
e0003ed6:	6e49                	lui	t3,0x12
e0003ed8:	6146                	flw	ft2,80(sp)
e0003eda:	6c75                	lui	s8,0x1d
e0003edc:	6c61                	lui	s8,0x18
e0003ede:	4920                	lw	s0,80(a0)
e0003ee0:	6574                	flw	fa3,76(a0)
e0003ee2:	6e72                	flw	ft8,28(sp)
e0003ee4:	0002                	0x2
e0003ee6:	0000                	unimp
e0003ee8:	5152                	lw	sp,52(sp)
e0003eea:	0000                	unimp
e0003eec:	003c                	addi	a5,sp,8
e0003eee:	0000                	unimp
e0003ef0:	36b0                	fld	fa2,104(a3)
e0003ef2:	f000                	fsw	fs0,32(s0)
e0003ef4:	36e1                	jal	e0003abc <HMAC_SMOKETEST_CLEAR+0x34c0>
e0003ef6:	f000                	fsw	fs0,32(s0)
e0003ef8:	0004                	addi	s1,sp,0
e0003efa:	0000                	unimp
e0003efc:	36b0                	fld	fa2,104(a3)
e0003efe:	f000                	fsw	fs0,32(s0)
e0003f00:	0002                	0x2
e0003f02:	0000                	unimp
e0003f04:	0001                	nop
e0003f06:	0000                	unimp
e0003f08:	009f 0000 0002      	0x20000009f
e0003f0e:	0000                	unimp
e0003f10:	3724                	fld	fs1,104(a4)
e0003f12:	f000                	fsw	fs0,32(s0)
e0003f14:	00a8                	addi	a0,sp,72
e0003f16:	0000                	unimp
e0003f18:	36b0                	fld	fa2,104(a3)
e0003f1a:	f000                	fsw	fs0,32(s0)
e0003f1c:	3776                	fld	fa4,376(sp)
e0003f1e:	f000                	fsw	fs0,32(s0)
e0003f20:	0001                	nop
e0003f22:	0000                	unimp
e0003f24:	37ee                	fld	fa5,248(sp)
e0003f26:	f000                	fsw	fs0,32(s0)
e0003f28:	f00037d7          	0xf00037d7
e0003f2c:	3815                	jal	e0003760 <HMAC_SMOKETEST_CLEAR+0x3164>
e0003f2e:	f000                	fsw	fs0,32(s0)
e0003f30:	3801                	jal	e0003740 <HMAC_SMOKETEST_CLEAR+0x3144>
e0003f32:	f000                	fsw	fs0,32(s0)
e0003f34:	3838                	fld	fa4,112(s0)
e0003f36:	f000                	fsw	fs0,32(s0)
e0003f38:	3820                	fld	fs0,112(s0)
e0003f3a:	f000                	fsw	fs0,32(s0)
e0003f3c:	f0003863          	p.bneimm	zero,0,e000364c <HMAC_SMOKETEST_CLEAR+0x3050>
e0003f40:	384a                	fld	fa6,176(sp)
e0003f42:	f000                	fsw	fs0,32(s0)
e0003f44:	f0003883          	0xf0003883
e0003f48:	3876                	fld	fa6,376(sp)
e0003f4a:	f000                	fsw	fs0,32(s0)
e0003f4c:	3899                	jal	e00037a2 <HMAC_SMOKETEST_CLEAR+0x31a6>
e0003f4e:	f000                	fsw	fs0,32(s0)
e0003f50:	3890                	fld	fa2,48(s1)
e0003f52:	f000                	fsw	fs0,32(s0)
e0003f54:	38bd                	jal	e00037d2 <HMAC_SMOKETEST_CLEAR+0x31d6>
e0003f56:	f000                	fsw	fs0,32(s0)
e0003f58:	38a6                	fld	fa7,104(sp)
e0003f5a:	f000                	fsw	fs0,32(s0)
e0003f5c:	38cd                	jal	e000384e <HMAC_SMOKETEST_CLEAR+0x3252>
e0003f5e:	f000                	fsw	fs0,32(s0)
e0003f60:	3890                	fld	fa2,48(s1)
e0003f62:	f000                	fsw	fs0,32(s0)
e0003f64:	3890                	fld	fa2,48(s1)
e0003f66:	f000                	fsw	fs0,32(s0)
e0003f68:	3890                	fld	fa2,48(s1)
e0003f6a:	f000                	fsw	fs0,32(s0)
e0003f6c:	3890                	fld	fa2,48(s1)
e0003f6e:	f000                	fsw	fs0,32(s0)
e0003f70:	3890                	fld	fa2,48(s1)
e0003f72:	f000                	fsw	fs0,32(s0)
e0003f74:	3890                	fld	fa2,48(s1)
e0003f76:	f000                	fsw	fs0,32(s0)
e0003f78:	3890                	fld	fa2,48(s1)
e0003f7a:	f000                	fsw	fs0,32(s0)
e0003f7c:	3890                	fld	fa2,48(s1)
e0003f7e:	f000                	fsw	fs0,32(s0)
e0003f80:	3890                	fld	fa2,48(s1)
e0003f82:	f000                	fsw	fs0,32(s0)
e0003f84:	3890                	fld	fa2,48(s1)
e0003f86:	f000                	fsw	fs0,32(s0)
e0003f88:	3890                	fld	fa2,48(s1)
e0003f8a:	f000                	fsw	fs0,32(s0)
e0003f8c:	3890                	fld	fa2,48(s1)
e0003f8e:	f000                	fsw	fs0,32(s0)
e0003f90:	3890                	fld	fa2,48(s1)
e0003f92:	f000                	fsw	fs0,32(s0)
e0003f94:	3890                	fld	fa2,48(s1)
e0003f96:	f000                	fsw	fs0,32(s0)
e0003f98:	3890                	fld	fa2,48(s1)
e0003f9a:	f000                	fsw	fs0,32(s0)
e0003f9c:	3890                	fld	fa2,48(s1)
e0003f9e:	f000                	fsw	fs0,32(s0)
e0003fa0:	3890                	fld	fa2,48(s1)
e0003fa2:	f000                	fsw	fs0,32(s0)
e0003fa4:	7665                	lui	a2,0xffff9
e0003fa6:	6369                	lui	t1,0x1a
e0003fa8:	642f7773          	csrrci	a4,0x642,30
e0003fac:	2f62                	fld	ft10,24(sp)
e0003fae:	6574                	flw	fa3,76(a0)
e0003fb0:	2f65                	jal	e0004768 <HMAC_SMOKETEST_CLEAR+0x416c>
e0003fb2:	696c                	flw	fa1,84(a0)
e0003fb4:	61722f67          	0x61722f67
e0003fb8:	6e697473          	csrrci	s0,0x6e6,18
e0003fbc:	7365                	lui	t1,0xffff9
e0003fbe:	7574                	flw	fa3,108(a0)
e0003fc0:	646e                	flw	fs0,216(sp)
e0003fc2:	745f 632e 4300      	0x4300632e745f
e0003fc8:	6974                	flw	fa3,84(a0)
e0003fca:	736c                	flw	fa1,100(a4)
e0003fcc:	662d                	lui	a2,0xb
e0003fce:	6961                	lui	s2,0x18
e0003fd0:	4548                	lw	a0,12(a0)
e0003fd2:	5f764b43          	0x5f764b43
e0003fd6:	3a6c6f63          	bltu	s8,t1,e0004394 <HMAC_SMOKETEST_CLEAR+0x3d98>
e0003fda:	7220                	flw	fs0,96(a2)
e0003fdc:	6562                	flw	fa0,24(sp)
e0003fde:	2078                	fld	fa4,192(s0)
e0003fe0:	6572                	flw	fa0,28(sp)
e0003fe2:	695f 4c55 004c      	0x4c4c55695f
e0003fe8:	3d21                	jal	e0003e00 <HMAC_SMOKETEST_CLEAR+0x3804>
e0003fea:	4e20                	lw	s0,88(a2)
e0003fec:	61662d4b          	fnmsub.s	fs10,fa2,fs6,fa2,rdn
e0003ff0:	43454843          	fmadd.d	fa6,fa0,fs4,fs0,rmm
e0003ff4:	616d                	addi	sp,sp,240
e0003ff6:	2078                	fld	fa4,192(s0)
e0003ff8:	6c69                	lui	s8,0x1a
e0003ffa:	203a                	fld	ft0,392(sp)
e0003ffc:	6e69                	lui	t3,0x1a
e0003ffe:	4300                	lw	s0,0(a4)
e0004000:	3d3e                	fld	fs10,488(sp)
e0004002:	6d20                	flw	fs0,88(a0)
e0004004:	662d                	lui	a2,0xb
e0004006:	6961                	lui	s2,0x18
e0004008:	4548                	lw	a0,12(a0)
e000400a:	73654b43          	fmadd.d	fs6,fa0,fs6,fa4,rmm
e000400e:	6c75                	lui	s8,0x1d
e0004010:	3a6c                	fld	fa1,240(a2)
e0004012:	7220                	flw	fs0,96(a2)
e0004014:	6d20                	flw	fs0,88(a0)
e0004016:	6e69                	lui	t3,0x1a
e0004018:	2074                	fld	fa3,192(s0)
e000401a:	3d3e                	fld	fs10,488(sp)
e000401c:	6572                	flw	fa0,28(sp)
e000401e:	26207573          	csrrci	a0,0x262,0
e0004022:	2026                	fld	ft0,72(sp)
e0004024:	203d                	jal	e0004052 <HMAC_SMOKETEST_CLEAR+0x3a56>
e0004026:	616d                	addi	sp,sp,240
e0004028:	746c                	flw	fa1,108(s0)
e000402a:	3c20                	fld	fs0,120(s0)
e000402c:	0002                	0x2
e000402e:	0000                	unimp
e0004030:	0078                	addi	a4,sp,12
e0004032:	0000                	unimp
e0004034:	0020                	addi	s0,sp,8
e0004036:	0000                	unimp
e0004038:	39a8                	fld	fa0,112(a1)
e000403a:	f000                	fsw	fs0,32(s0)
e000403c:	f00039cf          	fnmadd.s	fs3,ft0,ft0,ft10,rup
e0004040:	0000                	unimp
e0004042:	0000                	unimp
e0004044:	0001                	nop
e0004046:	0000                	unimp
e0004048:	0000                	unimp
e000404a:	0000                	unimp
e000404c:	0001                	nop
e000404e:	0000                	unimp
e0004050:	0001                	nop
e0004052:	0000                	unimp
e0004054:	0001                	nop
e0004056:	0000                	unimp
e0004058:	0001                	nop
e000405a:	0000                	unimp
e000405c:	0001                	nop
e000405e:	0000                	unimp
e0004060:	0001                	nop
e0004062:	0000                	unimp
e0004064:	0002                	0x2
e0004066:	0000                	unimp
e0004068:	0001                	nop
e000406a:	0000                	unimp
e000406c:	0002                	0x2
e000406e:	0000                	unimp
e0004070:	0002                	0x2
e0004072:	0000                	unimp
e0004074:	0002                	0x2
e0004076:	0000                	unimp
e0004078:	0002                	0x2
e000407a:	0000                	unimp
e000407c:	0002                	0x2
e000407e:	0000                	unimp
e0004080:	0002                	0x2
e0004082:	0000                	unimp
e0004084:	00000003          	lb	zero,0(zero) # 0 <_min_stack-0x2000>
e0004088:	0002                	0x2
e000408a:	0000                	unimp
e000408c:	00000003          	lb	zero,0(zero) # 0 <_min_stack-0x2000>
e0004090:	00000003          	lb	zero,0(zero) # 0 <_min_stack-0x2000>
e0004094:	00000003          	lb	zero,0(zero) # 0 <_min_stack-0x2000>
e0004098:	00000003          	lb	zero,0(zero) # 0 <_min_stack-0x2000>
e000409c:	00000003          	lb	zero,0(zero) # 0 <_min_stack-0x2000>
e00040a0:	00000003          	lb	zero,0(zero) # 0 <_min_stack-0x2000>
e00040a4:	0004                	addi	s1,sp,0
e00040a6:	0000                	unimp
e00040a8:	00000003          	lb	zero,0(zero) # 0 <_min_stack-0x2000>
e00040ac:	0004                	addi	s1,sp,0
e00040ae:	0000                	unimp
e00040b0:	0004                	addi	s1,sp,0
e00040b2:	0000                	unimp
e00040b4:	0004                	addi	s1,sp,0
e00040b6:	0000                	unimp
e00040b8:	0004                	addi	s1,sp,0
e00040ba:	0000                	unimp
e00040bc:	0004                	addi	s1,sp,0
e00040be:	0000                	unimp
e00040c0:	0004                	addi	s1,sp,0
e00040c2:	0000                	unimp
e00040c4:	0005                	c.addi	zero,1
e00040c6:	0000                	unimp
e00040c8:	0004                	addi	s1,sp,0
e00040ca:	0000                	unimp
e00040cc:	0005                	c.addi	zero,1
e00040ce:	0000                	unimp
e00040d0:	0005                	c.addi	zero,1
e00040d2:	0000                	unimp
e00040d4:	0005                	c.addi	zero,1
e00040d6:	0000                	unimp
e00040d8:	0005                	c.addi	zero,1
e00040da:	0000                	unimp
e00040dc:	0005                	c.addi	zero,1
e00040de:	0000                	unimp
e00040e0:	0005                	c.addi	zero,1
e00040e2:	0000                	unimp
e00040e4:	0005                	c.addi	zero,1
e00040e6:	0000                	unimp
e00040e8:	0005                	c.addi	zero,1
e00040ea:	0000                	unimp
e00040ec:	0005                	c.addi	zero,1
e00040ee:	0000                	unimp
e00040f0:	0005                	c.addi	zero,1
e00040f2:	0000                	unimp
e00040f4:	0005                	c.addi	zero,1
e00040f6:	0000                	unimp
e00040f8:	0005                	c.addi	zero,1
e00040fa:	0000                	unimp
e00040fc:	0005                	c.addi	zero,1
e00040fe:	0000                	unimp
e0004100:	0005                	c.addi	zero,1
e0004102:	0000                	unimp
e0004104:	0005                	c.addi	zero,1
e0004106:	0000                	unimp
e0004108:	0005                	c.addi	zero,1
e000410a:	0000                	unimp
e000410c:	0005                	c.addi	zero,1
e000410e:	0000                	unimp
e0004110:	0005                	c.addi	zero,1
e0004112:	0000                	unimp
e0004114:	0005                	c.addi	zero,1
e0004116:	0000                	unimp
e0004118:	0005                	c.addi	zero,1
e000411a:	0000                	unimp
e000411c:	0005                	c.addi	zero,1
e000411e:	0000                	unimp
e0004120:	0005                	c.addi	zero,1
e0004122:	0000                	unimp
e0004124:	0005                	c.addi	zero,1
e0004126:	0000                	unimp
e0004128:	0005                	c.addi	zero,1
e000412a:	0000                	unimp
e000412c:	0005                	c.addi	zero,1
e000412e:	0000                	unimp
e0004130:	0005                	c.addi	zero,1
e0004132:	0000                	unimp
e0004134:	0005                	c.addi	zero,1
e0004136:	0000                	unimp
e0004138:	0005                	c.addi	zero,1
e000413a:	0000                	unimp
e000413c:	0005                	c.addi	zero,1
e000413e:	0000                	unimp
e0004140:	0005                	c.addi	zero,1
e0004142:	0000                	unimp
e0004144:	0006                	0x6
e0004146:	0000                	unimp
e0004148:	0005                	c.addi	zero,1
e000414a:	0000                	unimp
e000414c:	0006                	0x6
e000414e:	0000                	unimp
e0004150:	0006                	0x6
e0004152:	0000                	unimp
e0004154:	0006                	0x6
e0004156:	0000                	unimp
e0004158:	0006                	0x6
e000415a:	0000                	unimp
e000415c:	0006                	0x6
e000415e:	0000                	unimp
e0004160:	0006                	0x6
e0004162:	0000                	unimp
e0004164:	0006                	0x6
e0004166:	0000                	unimp
e0004168:	0006                	0x6
e000416a:	0000                	unimp
e000416c:	0006                	0x6
e000416e:	0000                	unimp
e0004170:	0006                	0x6
e0004172:	0000                	unimp
e0004174:	00000007          	0x7
e0004178:	0006                	0x6
e000417a:	0000                	unimp
e000417c:	00000007          	0x7
e0004180:	00000007          	0x7
e0004184:	00000007          	0x7
e0004188:	00000007          	0x7
e000418c:	00000007          	0x7
e0004190:	00000007          	0x7
e0004194:	00000007          	0x7
e0004198:	00000007          	0x7
e000419c:	00000007          	0x7
e00041a0:	00000007          	0x7
e00041a4:	00000007          	0x7
e00041a8:	00000007          	0x7
e00041ac:	00000007          	0x7
e00041b0:	00000007          	0x7
e00041b4:	0008                	addi	a0,sp,0
e00041b6:	0000                	unimp
e00041b8:	0008                	addi	a0,sp,0
e00041ba:	0000                	unimp
e00041bc:	0008                	addi	a0,sp,0
e00041be:	0000                	unimp
e00041c0:	0008                	addi	a0,sp,0
e00041c2:	0000                	unimp
e00041c4:	0008                	addi	a0,sp,0
e00041c6:	0000                	unimp
e00041c8:	0008                	addi	a0,sp,0
e00041ca:	0000                	unimp
e00041cc:	0008                	addi	a0,sp,0
e00041ce:	0000                	unimp
e00041d0:	0008                	addi	a0,sp,0
e00041d2:	0000                	unimp
e00041d4:	0008                	addi	a0,sp,0
e00041d6:	0000                	unimp
e00041d8:	0008                	addi	a0,sp,0
e00041da:	0000                	unimp
e00041dc:	0008                	addi	a0,sp,0
e00041de:	0000                	unimp
e00041e0:	0008                	addi	a0,sp,0
e00041e2:	0000                	unimp
e00041e4:	0008                	addi	a0,sp,0
e00041e6:	0000                	unimp
e00041e8:	0008                	addi	a0,sp,0
e00041ea:	0000                	unimp
e00041ec:	0009                	c.addi	zero,2
e00041ee:	0000                	unimp
e00041f0:	0008                	addi	a0,sp,0
e00041f2:	0000                	unimp
e00041f4:	0009                	c.addi	zero,2
e00041f6:	0000                	unimp
e00041f8:	0009                	c.addi	zero,2
e00041fa:	0000                	unimp
e00041fc:	0009                	c.addi	zero,2
e00041fe:	0000                	unimp
e0004200:	0009                	c.addi	zero,2
e0004202:	0000                	unimp
e0004204:	0009                	c.addi	zero,2
e0004206:	0000                	unimp
e0004208:	0009                	c.addi	zero,2
e000420a:	0000                	unimp
e000420c:	0009                	c.addi	zero,2
e000420e:	0000                	unimp
e0004210:	0009                	c.addi	zero,2
e0004212:	0000                	unimp
e0004214:	0009                	c.addi	zero,2
e0004216:	0000                	unimp
e0004218:	0009                	c.addi	zero,2
e000421a:	0000                	unimp
e000421c:	0009                	c.addi	zero,2
e000421e:	0000                	unimp
e0004220:	0009                	c.addi	zero,2
e0004222:	0000                	unimp
e0004224:	0009                	c.addi	zero,2
e0004226:	0000                	unimp
e0004228:	0009                	c.addi	zero,2
e000422a:	0000                	unimp
e000422c:	000a                	0xa
e000422e:	0000                	unimp
e0004230:	000a                	0xa
e0004232:	0000                	unimp
e0004234:	000c                	addi	a1,sp,0
e0004236:	0000                	unimp
e0004238:	0000000b          	p.lb	zero,0(zero!) # 0 <_min_stack-0x2000>
e000423c:	000d                	c.addi	zero,3
e000423e:	0000                	unimp
e0004240:	000c                	addi	a1,sp,0
e0004242:	0000                	unimp
e0004244:	000d                	c.addi	zero,3
e0004246:	0000                	unimp
e0004248:	000d                	c.addi	zero,3
e000424a:	0000                	unimp
e000424c:	000e                	0xe
e000424e:	0000                	unimp
e0004250:	000d                	c.addi	zero,3
e0004252:	0000                	unimp
e0004254:	0000000f          	fence	unknown,unknown
e0004258:	000e                	0xe
e000425a:	0000                	unimp
e000425c:	0010                	addi	a2,sp,0
e000425e:	0000                	unimp
e0004260:	0000000f          	fence	unknown,unknown
e0004264:	0010                	addi	a2,sp,0
e0004266:	0000                	unimp
e0004268:	0010                	addi	a2,sp,0
e000426a:	0000                	unimp
e000426c:	0010                	addi	a2,sp,0
e000426e:	0000                	unimp
e0004270:	0010                	addi	a2,sp,0
e0004272:	0000                	unimp
e0004274:	0010                	addi	a2,sp,0
e0004276:	0000                	unimp
e0004278:	0010                	addi	a2,sp,0
e000427a:	0000                	unimp
e000427c:	0010                	addi	a2,sp,0
e000427e:	0000                	unimp
e0004280:	0010                	addi	a2,sp,0
e0004282:	0000                	unimp
e0004284:	0010                	addi	a2,sp,0
e0004286:	0000                	unimp
e0004288:	0010                	addi	a2,sp,0
e000428a:	0000                	unimp
e000428c:	0010                	addi	a2,sp,0
e000428e:	0000                	unimp
e0004290:	0010                	addi	a2,sp,0
e0004292:	0000                	unimp
e0004294:	0010                	addi	a2,sp,0
e0004296:	0000                	unimp
e0004298:	0010                	addi	a2,sp,0
e000429a:	0000                	unimp
e000429c:	0010                	addi	a2,sp,0
e000429e:	0000                	unimp
e00042a0:	0010                	addi	a2,sp,0
e00042a2:	0000                	unimp
e00042a4:	0012                	0x12
e00042a6:	0000                	unimp
e00042a8:	0011                	c.addi	zero,4
e00042aa:	0000                	unimp
e00042ac:	0014                	addi	a3,sp,0
e00042ae:	0000                	unimp
e00042b0:	00000013          	nop
e00042b4:	0015                	c.addi	zero,5
e00042b6:	0000                	unimp
e00042b8:	0014                	addi	a3,sp,0
e00042ba:	0000                	unimp
e00042bc:	0016                	0x16
e00042be:	0000                	unimp
e00042c0:	0015                	c.addi	zero,5
e00042c2:	0000                	unimp
e00042c4:	00000017          	auipc	zero,0x0
e00042c8:	00000017          	auipc	zero,0x0
e00042cc:	00000017          	auipc	zero,0x0
e00042d0:	00000017          	auipc	zero,0x0
e00042d4:	00000017          	auipc	zero,0x0
e00042d8:	00000017          	auipc	zero,0x0
e00042dc:	0018                	addi	a4,sp,0
e00042de:	0000                	unimp
e00042e0:	0018                	addi	a4,sp,0
e00042e2:	0000                	unimp
e00042e4:	0019                	c.addi	zero,6
e00042e6:	0000                	unimp
e00042e8:	0018                	addi	a4,sp,0
e00042ea:	0000                	unimp
e00042ec:	0019                	c.addi	zero,6
e00042ee:	0000                	unimp
e00042f0:	0019                	c.addi	zero,6
e00042f2:	0000                	unimp
e00042f4:	0000001b          	0x1b
e00042f8:	001a                	0x1a
e00042fa:	0000                	unimp
e00042fc:	001c                	addi	a5,sp,0
e00042fe:	0000                	unimp
e0004300:	001c                	addi	a5,sp,0
e0004302:	0000                	unimp
e0004304:	001c                	addi	a5,sp,0
e0004306:	0000                	unimp
e0004308:	001c                	addi	a5,sp,0
e000430a:	0000                	unimp
e000430c:	001d                	c.addi	zero,7
e000430e:	0000                	unimp
e0004310:	001d                	c.addi	zero,7
e0004312:	0000                	unimp
e0004314:	001d                	c.addi	zero,7
e0004316:	0000                	unimp
e0004318:	001d                	c.addi	zero,7
e000431a:	0000                	unimp
e000431c:	001e                	0x1e
e000431e:	0000                	unimp
e0004320:	001e                	0x1e
e0004322:	0000                	unimp
e0004324:	001f 0000 001f      	0x1f0000001f
e000432a:	0000                	unimp
e000432c:	7665                	lui	a2,0xffff9
e000432e:	6369                	lui	t1,0x1a
e0004330:	642f7773          	csrrci	a4,0x642,30
e0004334:	2f62                	fld	ft10,24(sp)
e0004336:	6574                	flw	fa3,76(a0)
e0004338:	2f65                	jal	e0004af0 <_bss_end+0x310>
e000433a:	696c                	flw	fa1,84(a0)
e000433c:	65742f67          	0x65742f67
e0004340:	6e697473          	csrrci	s0,0x6e6,18
e0004344:	6172                	flw	ft2,28(sp)
e0004346:	656d                	lui	a0,0x1b
e0004348:	665f7473          	csrrci	s0,0x665,30
e000434c:	6174732f          	0x6174732f
e0004350:	6b726f77          	0x6b726f77
e0004354:	41500063          	beq	zero,s5,e0004754 <HMAC_SMOKETEST_CLEAR+0x4158>
e0004358:	7574                	flw	fa3,108(a0)
e000435a:	41462e73          	csrrs	t3,0x414,a2
e000435e:	4c49                	li	s8,18
e0004360:	00215353          	fadd.s	ft6,ft2,ft2,unknown
e0004364:	0000                	unimp
e0004366:	0000                	unimp
e0004368:	0021                	c.addi	zero,8
e000436a:	0000                	unimp
e000436c:	001c                	addi	a5,sp,0
e000436e:	0000                	unimp
e0004370:	3d30                	fld	fa2,120(a0)
e0004372:	f000                	fsw	fs0,32(s0)
e0004374:	3d5e                	fld	fs10,496(sp)
e0004376:	f000                	fsw	fs0,32(s0)
e0004378:	0000                	unimp
e000437a:	0000                	unimp
e000437c:	3d30                	fld	fa2,120(a0)
e000437e:	f000                	fsw	fs0,32(s0)
	...
e0004388:	0022                	0x22
e000438a:	0000                	unimp
e000438c:	7325                	lui	t1,0xfffe9
e000438e:	3025                	jal	e0003bb6 <HMAC_SMOKETEST_CLEAR+0x35ba>
e0004390:	3d64                	fld	fs1,248(a0)
e0004392:	f000                	fsw	fs0,32(s0)
e0004394:	64253a73          	csrrc	s4,0x642,a0
e0004398:	6435                	lui	s0,0xd
e000439a:	2520                	fld	fs0,72(a0)
e000439c:	000a                	0xa
e000439e:	0049                	c.addi	zero,18
e00043a0:	205d                	jal	e0004446 <HMAC_SMOKETEST_CLEAR+0x3e4a>
e00043a2:	0d00                	addi	s0,sp,656
e00043a4:	0000003f 00460057 	0x4600570000003f
e00043ac:	3da8                	fld	fa0,120(a1)
e00043ae:	f000                	fsw	fs0,32(s0)
e00043b0:	3da6                	fld	fs11,104(sp)
e00043b2:	f000                	fsw	fs0,32(s0)
e00043b4:	3daa                	fld	fs11,168(sp)
e00043b6:	f000                	fsw	fs0,32(s0)
e00043b8:	f000404f          	fnmadd.s	ft0,ft0,ft0,ft10,rmm
e00043bc:	1c80                	addi	s0,sp,624
e00043be:	f000                	fsw	fs0,32(s0)
e00043c0:	1c44                	addi	s1,sp,564
e00043c2:	f000                	fsw	fs0,32(s0)
e00043c4:	1ea4                	addi	s1,sp,888
e00043c6:	f000                	fsw	fs0,32(s0)
e00043c8:	1ea4                	addi	s1,sp,888
e00043ca:	f000                	fsw	fs0,32(s0)
e00043cc:	1ea4                	addi	s1,sp,888
e00043ce:	f000                	fsw	fs0,32(s0)
e00043d0:	1ea4                	addi	s1,sp,888
e00043d2:	f000                	fsw	fs0,32(s0)
e00043d4:	1ea4                	addi	s1,sp,888
e00043d6:	f000                	fsw	fs0,32(s0)
e00043d8:	1ea4                	addi	s1,sp,888
e00043da:	f000                	fsw	fs0,32(s0)
e00043dc:	1ea4                	addi	s1,sp,888
e00043de:	f000                	fsw	fs0,32(s0)
e00043e0:	1ea4                	addi	s1,sp,888
e00043e2:	f000                	fsw	fs0,32(s0)
e00043e4:	1cc2                	slli	s9,s9,0x30
e00043e6:	f000                	fsw	fs0,32(s0)
e00043e8:	1ca4                	addi	s1,sp,632
e00043ea:	f000                	fsw	fs0,32(s0)
e00043ec:	1ea4                	addi	s1,sp,888
e00043ee:	f000                	fsw	fs0,32(s0)
e00043f0:	1bec                	addi	a1,sp,508
e00043f2:	f000                	fsw	fs0,32(s0)
e00043f4:	1ea4                	addi	s1,sp,888
e00043f6:	f000                	fsw	fs0,32(s0)
e00043f8:	1ea4                	addi	s1,sp,888
e00043fa:	f000                	fsw	fs0,32(s0)
e00043fc:	1bec                	addi	a1,sp,508
e00043fe:	f000                	fsw	fs0,32(s0)
e0004400:	1e54                	addi	a3,sp,820
e0004402:	f000                	fsw	fs0,32(s0)
e0004404:	1ea4                	addi	s1,sp,888
e0004406:	f000                	fsw	fs0,32(s0)
e0004408:	1ea4                	addi	s1,sp,888
e000440a:	f000                	fsw	fs0,32(s0)
e000440c:	1ea4                	addi	s1,sp,888
e000440e:	f000                	fsw	fs0,32(s0)
e0004410:	1ea4                	addi	s1,sp,888
e0004412:	f000                	fsw	fs0,32(s0)
e0004414:	1cda                	slli	s9,s9,0x36
e0004416:	f000                	fsw	fs0,32(s0)
e0004418:	1ea4                	addi	s1,sp,888
e000441a:	f000                	fsw	fs0,32(s0)
e000441c:	1ea4                	addi	s1,sp,888
e000441e:	f000                	fsw	fs0,32(s0)
e0004420:	1cf8                	addi	a4,sp,636
e0004422:	f000                	fsw	fs0,32(s0)
e0004424:	1df2                	slli	s11,s11,0x3c
e0004426:	f000                	fsw	fs0,32(s0)
e0004428:	1d34                	addi	a3,sp,696
e000442a:	f000                	fsw	fs0,32(s0)
e000442c:	1e0a                	slli	t3,t3,0x22
e000442e:	f000                	fsw	fs0,32(s0)
e0004430:	1ea4                	addi	s1,sp,888
e0004432:	f000                	fsw	fs0,32(s0)
e0004434:	1ea4                	addi	s1,sp,888
e0004436:	f000                	fsw	fs0,32(s0)
e0004438:	1ea4                	addi	s1,sp,888
e000443a:	f000                	fsw	fs0,32(s0)
e000443c:	1e76                	slli	t3,t3,0x3d
e000443e:	f000                	fsw	fs0,32(s0)
e0004440:	1e28                	addi	a0,sp,824
e0004442:	f000                	fsw	fs0,32(s0)
e0004444:	003a                	0x3a
e0004446:	2125                	jal	e000486e <_bss_end+0x8e>
e0004448:	3025                	jal	e0003c70 <HMAC_SMOKETEST_CLEAR+0x3674>
e000444a:	7838                	flw	fa4,112(s0)
e000444c:	2500                	fld	fs0,8(a0)
e000444e:	2d00                	fld	fs0,24(a0)
e0004450:	20200073          	hret
e0004454:	7274                	flw	fa3,100(a2)
e0004456:	6575                	lui	a0,0x1d
e0004458:	3000                	fld	fs0,32(s0)
e000445a:	0078                	addi	a4,sp,12
e000445c:	005d005b          	p.mac	zero,s10,t0,zero
e0004460:	7b00                	flw	fs0,48(a4)
e0004462:	0022                	0x22
e0004464:	3332                	fld	ft6,296(sp)
e0004466:	3534                	fld	fa3,104(a0)
e0004468:	007d                	c.addi	zero,31
e000446a:	3130                	fld	fa2,96(a0)
e000446c:	6261                	lui	tp,0x18
e000446e:	37366463          	bltu	a2,s3,e00047d6 <remu10_table+0x6>
e0004472:	3938                	fld	fa4,112(a0)
e0004474:	6e75                	lui	t3,0x1d
e0004476:	7865                	lui	a6,0xffff9
e0004478:	6665                	lui	a2,0x19
e000447a:	3c25                	jal	e0003eb2 <HMAC_SMOKETEST_CLEAR+0x38b6>
e000447c:	6465                	lui	s0,0x19
e000447e:	6e20                	flw	fs0,88(a2)
e0004480:	6570                	flw	fa2,76(a0)
e0004482:	623c7463          	bleu	gp,s8,e0004aaa <_bss_end+0x2ca>
e0004486:	6461                	lui	s0,0x18
e0004488:	6c75                	lui	s8,0x1d
e000448a:	253e                	fld	fa0,456(sp)
e000448c:	6874                	flw	fa3,84(s0)
e000448e:	303e                	fld	ft0,488(sp)
e0004490:	7720                	flw	fs0,104(a4)
e0004492:	6469                	lui	s0,0x1a
e0004494:	3635                	jal	e0003fc0 <HMAC_SMOKETEST_CLEAR+0x39c4>
e0004496:	32313837          	lui	a6,0x32313
e000449a:	45443433          	0x45443433
e000449e:	2546                	fld	fa0,80(sp)
e00044a0:	4139                	li	sp,14
e00044a2:	4342                	lw	t1,16(sp)
e00044a4:	6f6e                	flw	ft10,216(sp)
e00044a6:	753c6e77          	0x753c6e77
e00044aa:	6b6e                	flw	fs6,216(sp)
e00044ac:	6b4f3e63          	p.bneimm	t5,-12,e0004b68 <_bss_end+0x388>
e00044b0:	7320                	flw	fs0,96(a4)
e00044b2:	6570                	flw	fa2,76(a0)
e00044b4:	6c6c6563          	bltu	s8,t1,e0004b7e <_bss_end+0x39e>
e00044b8:	4300                	lw	s0,0(a4)
e00044ba:	6e61                	lui	t3,0x18
e00044bc:	6b6e                	flw	fs6,216(sp)
e00044be:	6f6e                	flw	ft10,216(sp)
e00044c0:	6465                	lui	s0,0x19
e00044c2:	5500                	lw	s0,40(a0)
e00044c4:	766e                	flw	fa2,248(sp)
e00044c6:	6c61                	lui	s8,0x18
e00044c8:	49006e77          	0x49006e77
e00044cc:	656d7567          	0x656d7567
e00044d0:	6469                	lui	s0,0x1a
e00044d2:	7241                	lui	tp,0xffff0
e00044d4:	6165                	addi	sp,sp,112
e00044d6:	6c64                	flw	fs1,92(s0)
e00044d8:	746e                	flw	fs0,248(sp)
e00044da:	4400                	lw	s0,8(s0)
e00044dc:	6378                	flw	fa4,68(a4)
e00044de:	6565                	lui	a0,0x19
e00044e0:	6e69                	lui	t3,0x1a
e00044e2:	4565                	li	a0,25
e00044e4:	6f4e                	flw	ft10,208(sp)
e00044e6:	4674                	lw	a3,76(a2)
e00044e8:	6564                	flw	fs1,76(a0)
e00044ea:	0064                	addi	s1,sp,12
e00044ec:	4100                	lw	s0,0(a0)
e00044ee:	726c                	flw	fa1,100(a2)
e00044f0:	646e756f          	jal	a0,e00ebb36 <fromhost+0xdbb26>
e00044f4:	7845                	lui	a6,0xffff1
e00044f6:	7369                	lui	t1,0xffffa
e00044f8:	6165                	addi	sp,sp,112
e00044fa:	7964                	flw	fs1,116(a0)
e00044fc:	7265                	lui	tp,0xffff9
e00044fe:	696d                	lui	s2,0x1b
e0004500:	7374                	flw	fa3,100(a4)
e0004502:	5000                	lw	s0,32(s0)
e0004504:	446e                	lw	s0,216(sp)
e0004506:	6e65                	lui	t3,0x19
e0004508:	6f697373          	csrrci	t1,0x6f6,18
e000450c:	6552                	flw	fa0,20(sp)
e000450e:	65696f73          	csrrsi	t5,0x656,18
e0004512:	0064                	addi	s1,sp,12
e0004514:	7845                	lui	a6,0xffff1
e0004516:	6168                	flw	fa0,68(a0)
e0004518:	7275                	lui	tp,0xffffd
e000451a:	00646563          	bltu	s0,t1,e0004524 <HMAC_SMOKETEST_CLEAR+0x3f28>
e000451e:	6146                	flw	ft2,80(sp)
e0004520:	7375                	lui	t1,0xffffd
e0004522:	6574                	flw	fa3,76(a0)
e0004524:	7250                	flw	fa2,36(a2)
e0004526:	6365                	lui	t1,0x19
e0004528:	6c69                	lui	s8,0x1a
e000452a:	6465                	lui	s0,0x19
e000452c:	6974                	flw	fa3,84(a0)
e000452e:	6e6f6e6f          	jal	t3,e00fac14 <fromhost+0xeac04>
e0004532:	6964                	flw	fs1,84(a0)
e0004534:	7472                	flw	fs0,60(sp)
e0004536:	6465                	lui	s0,0x19
e0004538:	4100                	lw	s0,0(a0)
e000453a:	6f62                	flw	ft10,24(sp)
e000453c:	6152664f          	fnmadd.s	fa2,ft4,fs5,fa2,unknown
e0004540:	4f00                	lw	s0,24(a4)
e0004542:	7475                	lui	s0,0xffffd
e0004544:	6e55                	lui	t3,0x15
e0004546:	6d69                	lui	s10,0x1a
e0004548:	676e                	flw	fa4,216(sp)
e000454a:	0065                	c.addi	zero,25
e000454c:	6e65                	lui	t3,0x19
e000454e:	6574                	flw	fa3,76(a0)
e0004550:	6c70                	flw	fa2,92(s0)
e0004552:	6d65                	lui	s10,0x19
e0004554:	6574                	flw	fa3,76(a0)
e0004556:	6e72                	flw	ft8,28(sp)
e0004558:	0064                	addi	s1,sp,12
e000455a:	6e49                	lui	t3,0x12
e000455c:	616e                	flw	ft2,216(sp)
e000455e:	6176                	flw	ft2,92(sp)
e0004560:	6c61                	lui	s8,0x18
e0004562:	5500                	lw	s0,40(a0)
e0004564:	656c                	flw	fa1,76(a0)
e0004566:	4400                	lw	s0,8(s0)
e0004568:	6c69                	lui	s8,0x1a
e000456a:	6261                	lui	tp,0x18
e000456c:	0073736f          	jal	t1,e003bd72 <fromhost+0x2bd62>
e0004570:	7461                	lui	s0,0xffff8
e0004572:	4c61                	li	s8,24
e0004574:	6874                	flw	fa3,84(s0)
e0004576:	6e65                	lui	t3,0x19
e0004578:	6e55                	lui	t3,0x15
e000457a:	7561                	lui	a0,0xffff8
e000457c:	6574                	flw	fa3,76(a0)
e000457e:	0064                	addi	s1,sp,12
e0004580:	6974                	flw	fa3,84(a0)
e0004582:	69666163          	bltu	a2,s6,e0004c04 <_bss_end+0x424>
e0004586:	656e                	flw	fa0,216(sp)
e0004588:	6e55                	lui	t3,0x15
e000458a:	6564                	flw	fs1,76(a0)
e000458c:	6e55                	lui	t3,0x15
e000458e:	6564                	flw	fs1,76(a0)
e0004590:	3164                	fld	fs1,224(a0)
e0004592:	31640037          	lui	zero,0x31640
e0004596:	0038                	addi	a4,sp,8
e0004598:	6966                	flw	fs2,88(sp)
e000459a:	656e                	flw	fa0,216(sp)
e000459c:	6966                	flw	fs2,88(sp)
e000459e:	656e                	flw	fa0,216(sp)
e00045a0:	6e55                	lui	t3,0x15
e00045a2:	6564                	flw	fs1,76(a0)
e00045a4:	6e55                	lui	t3,0x15
e00045a6:	6564                	flw	fs1,76(a0)
e00045a8:	3164                	fld	fs1,224(a0)
e00045aa:	0039                	c.addi	zero,14
e00045ac:	3264                	fld	fs1,224(a2)
e00045ae:	0030                	addi	a2,sp,8
e00045b0:	6966                	flw	fs2,88(sp)
e00045b2:	656e                	flw	fa0,216(sp)
e00045b4:	6966                	flw	fs2,88(sp)
e00045b6:	656e                	flw	fa0,216(sp)
e00045b8:	6e55                	lui	t3,0x15
e00045ba:	6564                	flw	fs1,76(a0)
e00045bc:	6e55                	lui	t3,0x15
e00045be:	6564                	flw	fs1,76(a0)
e00045c0:	3264                	fld	fs1,224(a2)
e00045c2:	0031                	c.addi	zero,12
e00045c4:	3264                	fld	fs1,224(a2)
e00045c6:	0032                	0x32
e00045c8:	6966                	flw	fs2,88(sp)
e00045ca:	656e                	flw	fa0,216(sp)
e00045cc:	6966                	flw	fs2,88(sp)
e00045ce:	656e                	flw	fa0,216(sp)
e00045d0:	6e55                	lui	t3,0x15
e00045d2:	6564                	flw	fs1,76(a0)
e00045d4:	6e55                	lui	t3,0x15
e00045d6:	6564                	flw	fs1,76(a0)
e00045d8:	3264                	fld	fs1,224(a2)
e00045da:	32640033          	0x32640033
e00045de:	0034                	addi	a3,sp,8
e00045e0:	6966                	flw	fs2,88(sp)
e00045e2:	656e                	flw	fa0,216(sp)
e00045e4:	6966                	flw	fs2,88(sp)
e00045e6:	656e                	flw	fa0,216(sp)
e00045e8:	6e55                	lui	t3,0x15
e00045ea:	6564                	flw	fs1,76(a0)
e00045ec:	6e55                	lui	t3,0x15
e00045ee:	6564                	flw	fs1,76(a0)
e00045f0:	3264                	fld	fs1,224(a2)
e00045f2:	0035                	c.addi	zero,13
e00045f4:	3264                	fld	fs1,224(a2)
e00045f6:	0036                	0x36
e00045f8:	6966                	flw	fs2,88(sp)
e00045fa:	656e                	flw	fa0,216(sp)
e00045fc:	6966                	flw	fs2,88(sp)
e00045fe:	656e                	flw	fa0,216(sp)
e0004600:	6e55                	lui	t3,0x15
e0004602:	6564                	flw	fs1,76(a0)
e0004604:	6e55                	lui	t3,0x15
e0004606:	6564                	flw	fs1,76(a0)
e0004608:	3264                	fld	fs1,224(a2)
e000460a:	32640037          	lui	zero,0x32640
e000460e:	0038                	addi	a4,sp,8
e0004610:	6966                	flw	fs2,88(sp)
e0004612:	656e                	flw	fa0,216(sp)
e0004614:	6966                	flw	fs2,88(sp)
e0004616:	656e                	flw	fa0,216(sp)
e0004618:	6e55                	lui	t3,0x15
e000461a:	6564                	flw	fs1,76(a0)
e000461c:	6e55                	lui	t3,0x15
e000461e:	6564                	flw	fs1,76(a0)
e0004620:	3264                	fld	fs1,224(a2)
e0004622:	0039                	c.addi	zero,14
e0004624:	3364                	fld	fs1,224(a4)
e0004626:	0030                	addi	a2,sp,8
e0004628:	6966                	flw	fs2,88(sp)
e000462a:	656e                	flw	fa0,216(sp)
e000462c:	6966                	flw	fs2,88(sp)
e000462e:	656e                	flw	fa0,216(sp)
e0004630:	6e55                	lui	t3,0x15
e0004632:	6564                	flw	fs1,76(a0)
e0004634:	7245                	lui	tp,0xffff1
e0004636:	6f72                	flw	ft10,28(sp)
e0004638:	3364                	fld	fs1,224(a4)
e000463a:	0031                	c.addi	zero,12
e000463c:	0000726f          	jal	tp,e000b63c <_stack+0x163c>
e0004640:	4572                	lw	a0,28(sp)
e0004642:	7272                	flw	ft4,60(sp)
e0004644:	4449                	li	s0,18
e0004646:	454c                	lw	a1,12(a0)
e0004648:	0004                	addi	s1,sp,0
e000464a:	0000                	unimp
e000464c:	0001                	nop
	...
e0004656:	0000                	unimp
e0004658:	a120                	fsd	fs0,64(a0)
e000465a:	00000007          	0x7
e000465e:	0000                	unimp
e0004660:	e848                	fsw	fa0,20(s0)
e0004662:	0001                	nop
e0004664:	0000                	unimp
e0004666:	0000                	unimp
e0004668:	1c20                	addi	s0,sp,568
	...
e0004672:	1c00                	addi	s0,sp,560
e0004674:	fa98                	fsw	fa4,48(a3)
e0004676:	082e                	slli	a6,a6,0xb
e0004678:	6c89                	lui	s9,0x2
e000467a:	ec4e                	fsw	fs3,24(sp)
e000467c:	3822                	fld	fa6,40(sp)
e000467e:	a409                	j	e0004880 <_bss_end+0xa0>
e0004680:	31d0                	fld	fa2,160(a1)
e0004682:	299f 8a2e 1319      	0x13198a2e299f
e0004688:	7344                	flw	fs1,36(a4)
e000468a:	0370                	addi	a2,sp,396
e000468c:	6a88                	flw	fa0,16(a3)
e000468e:	08d3243f 3eb985a3 	0x3eb985a308d3243f
e0004696:	f000                	fsw	fs0,32(s0)
e0004698:	3eb6                	fld	ft9,360(sp)
e000469a:	f000                	fsw	fs0,32(s0)
e000469c:	f0003ecb          	fnmsub.s	ft9,ft0,ft0,ft10,rup
e00046a0:	f0003ec3          	fmadd.s	ft9,ft0,ft0,ft10,rup
e00046a4:	3eec                	fld	fa1,248(a3)
e00046a6:	f000                	fsw	fs0,32(s0)
e00046a8:	f0003edb          	0xf0003edb
e00046ac:	f0003f03          	0xf0003f03
e00046b0:	3ef5                	jal	e00042ac <HMAC_SMOKETEST_CLEAR+0x3cb0>
e00046b2:	f000                	fsw	fs0,32(s0)
e00046b4:	3f26                	fld	ft10,104(sp)
e00046b6:	f000                	fsw	fs0,32(s0)
e00046b8:	3f14                	fld	fa3,56(a4)
e00046ba:	f000                	fsw	fs0,32(s0)
e00046bc:	3f41                	jal	e000464c <HMAC_SMOKETEST_CLEAR+0x4050>
e00046be:	f000                	fsw	fs0,32(s0)
e00046c0:	3f39                	jal	e00045de <HMAC_SMOKETEST_CLEAR+0x3fe2>
e00046c2:	f000                	fsw	fs0,32(s0)
e00046c4:	3f5a                	fld	ft10,432(sp)
e00046c6:	f000                	fsw	fs0,32(s0)
e00046c8:	3f4c                	fld	fa1,184(a4)
e00046ca:	f000                	fsw	fs0,32(s0)
e00046cc:	f0003f6f          	jal	t5,dff07dcc <tohost+0xdfee7dc4>
e00046d0:	f0003f63          	p.bneimm	zero,0,e0003dee <HMAC_SMOKETEST_CLEAR+0x37f2>
e00046d4:	3f88                	fld	fa0,56(a5)
e00046d6:	f000                	fsw	fs0,32(s0)
e00046d8:	3f78                	fld	fa4,248(a4)
e00046da:	f000                	fsw	fs0,32(s0)
e00046dc:	3fa0                	fld	fs0,120(a5)
e00046de:	f000                	fsw	fs0,32(s0)
e00046e0:	3f94                	fld	fa3,56(a5)
e00046e2:	f000                	fsw	fs0,32(s0)
e00046e4:	3fb8                	fld	fa4,120(a5)
e00046e6:	f000                	fsw	fs0,32(s0)
e00046e8:	3fac                	fld	fa1,120(a5)
e00046ea:	f000                	fsw	fs0,32(s0)
e00046ec:	3fd0                	fld	fa2,184(a5)
e00046ee:	f000                	fsw	fs0,32(s0)
e00046f0:	3fc4                	fld	fs1,184(a5)
e00046f2:	f000                	fsw	fs0,32(s0)
e00046f4:	3fe8                	fld	fa0,248(a5)
e00046f6:	f000                	fsw	fs0,32(s0)
e00046f8:	3fdc                	fld	fa5,184(a5)
e00046fa:	f000                	fsw	fs0,32(s0)
e00046fc:	4000                	lw	s0,0(s0)
e00046fe:	f000                	fsw	fs0,32(s0)
e0004700:	3ff4                	fld	fa3,248(a5)
e0004702:	f000                	fsw	fs0,32(s0)
e0004704:	4018                	lw	a4,0(s0)
e0004706:	f000                	fsw	fs0,32(s0)
e0004708:	400c                	lw	a1,0(s0)
e000470a:	f000                	fsw	fs0,32(s0)
e000470c:	4030                	lw	a2,64(s0)
e000470e:	f000                	fsw	fs0,32(s0)
e0004710:	4024                	lw	s1,64(s0)
e0004712:	f000                	fsw	fs0,32(s0)
e0004714:	ffff                	0xffff
e0004716:	ffff                	0xffff
e0004718:	403c                	lw	a5,64(s0)
e000471a:	f000                	fsw	fs0,32(s0)
e000471c:	6e28                	flw	fa0,88(a2)
e000471e:	6c75                	lui	s8,0x1d
e0004720:	296c                	fld	fa1,208(a0)
e0004722:	0000                	unimp
e0004724:	5845                	li	a6,-15
e0004726:	54504543          	fmadd.h	a0,zero,t0,a0,rmm
e000472a:	4f49                	li	t5,18
e000472c:	214e                	fld	ft2,208(sp)
e000472e:	2121                	jal	e0004b36 <_bss_end+0x356>
e0004730:	0a0d                	addi	s4,s4,3
e0004732:	0000                	unimp
e0004734:	72726f43          	fmadd.d	ft10,ft4,ft7,fa4,unknown
e0004738:	6365                	lui	t1,0x19
e000473a:	2174                	fld	fa3,192(a0)
e000473c:	4120                	lw	s0,64(a0)
e000473e:	6464                	flw	fs1,76(s0)
e0004740:	3a72                	fld	fs4,312(sp)
e0004742:	2520                	fld	fs0,72(a0)
e0004744:	2c78                	fld	fa4,216(s0)
e0004746:	4520                	lw	s0,72(a0)
e0004748:	7078                	flw	fa4,100(s0)
e000474a:	6574                	flw	fa3,76(a0)
e000474c:	64657463          	bleu	t1,a0,e0004d94 <_bss_end+0x5b4>
e0004750:	4420                	lw	s0,72(s0)
e0004752:	7461                	lui	s0,0xffff8
e0004754:	3a61                	jal	e00040ec <HMAC_SMOKETEST_CLEAR+0x3af0>
e0004756:	2520                	fld	fs0,72(a0)
e0004758:	2c78                	fld	fa4,216(s0)
e000475a:	5220                	lw	s0,96(a2)
e000475c:	6165                	addi	sp,sp,112
e000475e:	2064                	fld	fs1,192(s0)
e0004760:	6144                	flw	fs1,4(a0)
e0004762:	6174                	flw	fa3,68(a0)
e0004764:	203a                	fld	ft0,392(sp)
e0004766:	7825                	lui	a6,0xfffe9
e0004768:	0a0d                	addi	s4,s4,3
e000476a:	0000                	unimp
e000476c:	7245                	lui	tp,0xffff1
e000476e:	6f72                	flw	ft10,28(sp)
e0004770:	2172                	fld	ft2,280(sp)
e0004772:	4120                	lw	s0,64(a0)
e0004774:	6464                	flw	fs1,76(s0)
e0004776:	3a72                	fld	fs4,312(sp)
e0004778:	2520                	fld	fs0,72(a0)
e000477a:	2c78                	fld	fa4,216(s0)
e000477c:	4520                	lw	s0,72(a0)
e000477e:	7078                	flw	fa4,100(s0)
e0004780:	6574                	flw	fa3,76(a0)
e0004782:	64657463          	bleu	t1,a0,e0004dca <_bss_end+0x5ea>
e0004786:	4420                	lw	s0,72(s0)
e0004788:	7461                	lui	s0,0xffff8
e000478a:	3a61                	jal	e0004122 <HMAC_SMOKETEST_CLEAR+0x3b26>
e000478c:	2520                	fld	fs0,72(a0)
e000478e:	2c78                	fld	fa4,216(s0)
e0004790:	5220                	lw	s0,96(a2)
e0004792:	6165                	addi	sp,sp,112
e0004794:	2064                	fld	fs1,192(s0)
e0004796:	6144                	flw	fs1,4(a0)
e0004798:	6174                	flw	fa3,68(a0)
e000479a:	203a                	fld	ft0,392(sp)
e000479c:	7825                	lui	a6,0xfffe9
e000479e:	0a0d                	addi	s4,s4,3
e00047a0:	0000                	unimp
e00047a2:	0000                	unimp
e00047a4:	6f54                	flw	fa3,28(a4)
e00047a6:	6174                	flw	fa3,68(a0)
e00047a8:	206c                	fld	fa1,192(s0)
e00047aa:	72726f43          	fmadd.d	ft10,ft4,ft7,fa4,unknown
e00047ae:	6365                	lui	t1,0x19
e00047b0:	3a74                	fld	fa3,240(a2)
e00047b2:	2520                	fld	fs0,72(a0)
e00047b4:	2f78                	fld	fa4,216(a4)
e00047b6:	7825                	lui	a6,0xfffe9
e00047b8:	0000                	unimp
e00047ba:	0000                	unimp
e00047bc:	6f54                	flw	fa3,28(a4)
e00047be:	6174                	flw	fa3,68(a0)
e00047c0:	206c                	fld	fa1,192(s0)
e00047c2:	7245                	lui	tp,0xffff1
e00047c4:	6f72                	flw	ft10,28(sp)
e00047c6:	7372                	flw	ft6,60(sp)
e00047c8:	203a                	fld	ft0,392(sp)
e00047ca:	7825                	lui	a6,0xfffe9
e00047cc:	0078252f          	amoadd.w	a0,t2,(a6)

Disassembly of section .data:

e00047d0 <remu10_table>:
e00047d0:	0100                	addi	s0,sp,128
e00047d2:	0202                	slli	tp,tp,0x0
e00047d4:	05040303          	lb	t1,80(s0) # ffff8050 <pulp__FC+0xffff8051>
e00047d8:	0605                	addi	a2,a2,1
e00047da:	08080707          	0x8080707
e00047de:	0009                	c.addi	zero,2

Disassembly of section .stack:

e0008000 <_stack-0x2000>:
	...

Disassembly of section .debug_frame:

00000000 <.debug_frame>:
   0:	000c                	addi	a1,sp,0
   2:	0000                	unimp
   4:	ffff                	0xffff
   6:	ffff                	0xffff
   8:	7c010003          	lb	zero,1984(sp)
   c:	0c01                	addi	s8,s8,0
   e:	0002                	0x2
  10:	000c                	addi	a1,sp,0
  12:	0000                	unimp
  14:	0000                	unimp
  16:	0000                	unimp
  18:	0084                	addi	s1,sp,64
  1a:	e000                	fsw	fs0,0(s0)
  1c:	002e                	0x2e
  1e:	0000                	unimp
  20:	000c                	addi	a1,sp,0
  22:	0000                	unimp
  24:	0000                	unimp
  26:	0000                	unimp
  28:	00b2                	slli	ra,ra,0xc
  2a:	e000                	fsw	fs0,0(s0)
  2c:	0026                	0x26
  2e:	0000                	unimp
  30:	000c                	addi	a1,sp,0
  32:	0000                	unimp
  34:	0000                	unimp
  36:	0000                	unimp
  38:	00d8                	addi	a4,sp,68
  3a:	e000                	fsw	fs0,0(s0)
  3c:	0012                	0x12
  3e:	0000                	unimp
  40:	000c                	addi	a1,sp,0
  42:	0000                	unimp
  44:	0000                	unimp
  46:	0000                	unimp
  48:	00ea                	slli	ra,ra,0x1a
  4a:	e000                	fsw	fs0,0(s0)
  4c:	0010                	addi	a2,sp,0
  4e:	0000                	unimp
  50:	0058                	addi	a4,sp,4
  52:	0000                	unimp
  54:	0000                	unimp
  56:	0000                	unimp
  58:	00fa                	slli	ra,ra,0x1e
  5a:	e000                	fsw	fs0,0(s0)
  5c:	00a6                	slli	ra,ra,0x9
  5e:	0000                	unimp
  60:	0204                	addi	s1,sp,256
  62:	0000                	unimp
  64:	0e00                	addi	s0,sp,784
  66:	0420                	addi	s0,sp,520
  68:	000c                	addi	a1,sp,0
  6a:	0000                	unimp
  6c:	0288                	addi	a0,sp,320
  6e:	0389                	addi	t2,t2,2
  70:	0492                	slli	s1,s1,0x4
  72:	0181                	addi	gp,gp,0
  74:	06940593          	addi	a1,s0,105
  78:	5a04                	lw	s1,48(a2)
  7a:	0000                	unimp
  7c:	0a00                	addi	s0,sp,272
  7e:	04c1                	addi	s1,s1,16
  80:	0002                	0x2
  82:	0000                	unimp
  84:	04c8                	addi	a0,sp,580
  86:	0002                	0x2
  88:	0000                	unimp
  8a:	04c9                	addi	s1,s1,18
  8c:	0002                	0x2
  8e:	0000                	unimp
  90:	04d2                	slli	s1,s1,0x14
  92:	0002                	0x2
  94:	0000                	unimp
  96:	000204d3          	fadd.s	fs1,ft4,ft0,rne
  9a:	0000                	unimp
  9c:	04d4                	addi	a3,sp,580
  9e:	0002                	0x2
  a0:	0000                	unimp
  a2:	000e                	0xe
  a4:	0204                	addi	s1,sp,256
  a6:	0000                	unimp
  a8:	0b00                	addi	s0,sp,400
  aa:	0000                	unimp
  ac:	0040                	addi	s0,sp,4
  ae:	0000                	unimp
  b0:	0000                	unimp
  b2:	0000                	unimp
  b4:	01a0                	addi	s0,sp,200
  b6:	e000                	fsw	fs0,0(s0)
  b8:	00fa                	slli	ra,ra,0x1e
  ba:	0000                	unimp
  bc:	0204                	addi	s1,sp,256
  be:	0000                	unimp
  c0:	0e00                	addi	s0,sp,784
  c2:	0440                	addi	s0,sp,516
  c4:	0006                	0x6
  c6:	0000                	unimp
  c8:	0389                	addi	t2,t2,2
  ca:	0181                	addi	gp,gp,0
  cc:	0288                	addi	a0,sp,320
  ce:	1604                	addi	s1,sp,800
  d0:	0000                	unimp
  d2:	0a00                	addi	s0,sp,272
  d4:	04c1                	addi	s1,s1,16
  d6:	0002                	0x2
  d8:	0000                	unimp
  da:	04c8                	addi	a0,sp,580
  dc:	0002                	0x2
  de:	0000                	unimp
  e0:	04c9                	addi	s1,s1,18
  e2:	0002                	0x2
  e4:	0000                	unimp
  e6:	000e                	0xe
  e8:	0204                	addi	s1,sp,256
  ea:	0000                	unimp
  ec:	0b00                	addi	s0,sp,400
  ee:	0000                	unimp
  f0:	000c                	addi	a1,sp,0
  f2:	0000                	unimp
  f4:	0000                	unimp
  f6:	0000                	unimp
  f8:	029a                	slli	t0,t0,0x6
  fa:	e000                	fsw	fs0,0(s0)
  fc:	000e                	0xe
  fe:	0000                	unimp
 100:	0034                	addi	a3,sp,8
 102:	0000                	unimp
 104:	0000                	unimp
 106:	0000                	unimp
 108:	02a8                	addi	a0,sp,328
 10a:	e000                	fsw	fs0,0(s0)
 10c:	0018                	addi	a4,sp,0
 10e:	0000                	unimp
 110:	0204                	addi	s1,sp,256
 112:	0000                	unimp
 114:	0e00                	addi	s0,sp,784
 116:	0410                	addi	a2,sp,512
 118:	0002                	0x2
 11a:	0000                	unimp
 11c:	0288                	addi	a0,sp,320
 11e:	0804                	addi	s1,sp,16
 120:	0000                	unimp
 122:	8100                	0x8100
 124:	0401                	addi	s0,s0,0
 126:	0006                	0x6
 128:	0000                	unimp
 12a:	04c1                	addi	s1,s1,16
 12c:	0002                	0x2
 12e:	0000                	unimp
 130:	04c8                	addi	a0,sp,580
 132:	0002                	0x2
 134:	0000                	unimp
 136:	000e                	0xe
 138:	007c                	addi	a5,sp,12
 13a:	0000                	unimp
 13c:	0000                	unimp
 13e:	0000                	unimp
 140:	02c0                	addi	s0,sp,324
 142:	e000                	fsw	fs0,0(s0)
 144:	0158                	addi	a4,sp,132
 146:	0000                	unimp
 148:	0204                	addi	s1,sp,256
 14a:	0000                	unimp
 14c:	0e00                	addi	s0,sp,784
 14e:	0460                	addi	s0,sp,524
 150:	0002                	0x2
 152:	0000                	unimp
 154:	0a88                	addi	a0,sp,336
 156:	1404                	addi	s1,sp,544
 158:	0000                	unimp
 15a:	8900                	0x8900
 15c:	930c920b          	p.lh	tp,-1744(s9!) # 1930 <_min_stack-0x6d0>
 160:	940d                	srai	s0,s0,0x23
 162:	950e                	add	a0,a0,gp
 164:	9710960f          	0x9710960f
 168:	8111                	srli	a0,a0,0x4
 16a:	9809                	andi	s0,s0,-30
 16c:	0412                	slli	s0,s0,0x4
 16e:	0032                	0x32
 170:	0000                	unimp
 172:	c10a                	sw	sp,128(sp)
 174:	0204                	addi	s1,sp,256
 176:	0000                	unimp
 178:	c800                	sw	s0,16(s0)
 17a:	0404                	addi	s1,sp,512
 17c:	0000                	unimp
 17e:	c900                	sw	s0,16(a0)
 180:	0204                	addi	s1,sp,256
 182:	0000                	unimp
 184:	d200                	sw	s0,32(a2)
 186:	0204                	addi	s1,sp,256
 188:	0000                	unimp
 18a:	d300                	sw	s0,32(a4)
 18c:	0204                	addi	s1,sp,256
 18e:	0000                	unimp
 190:	d400                	sw	s0,40(s0)
 192:	0204                	addi	s1,sp,256
 194:	0000                	unimp
 196:	d500                	sw	s0,40(a0)
 198:	0204                	addi	s1,sp,256
 19a:	0000                	unimp
 19c:	d600                	sw	s0,40(a2)
 19e:	0204                	addi	s1,sp,256
 1a0:	0000                	unimp
 1a2:	d700                	sw	s0,40(a4)
 1a4:	0204                	addi	s1,sp,256
 1a6:	0000                	unimp
 1a8:	d800                	sw	s0,48(s0)
 1aa:	0204                	addi	s1,sp,256
 1ac:	0000                	unimp
 1ae:	0e00                	addi	s0,sp,784
 1b0:	0400                	addi	s0,sp,512
 1b2:	0002                	0x2
 1b4:	0000                	unimp
 1b6:	000c000b          	p.lb	zero,0(s8!) # 1d000 <_stack_len+0x15000>
 1ba:	0000                	unimp
 1bc:	0000                	unimp
 1be:	0000                	unimp
 1c0:	0418                	addi	a4,sp,512
 1c2:	e000                	fsw	fs0,0(s0)
 1c4:	000a                	0xa
 1c6:	0000                	unimp
 1c8:	0048                	addi	a0,sp,4
 1ca:	0000                	unimp
 1cc:	0000                	unimp
 1ce:	0000                	unimp
 1d0:	0422                	slli	s0,s0,0x8
 1d2:	e000                	fsw	fs0,0(s0)
 1d4:	0030                	addi	a2,sp,8
 1d6:	0000                	unimp
 1d8:	0204                	addi	s1,sp,256
 1da:	0000                	unimp
 1dc:	0e00                	addi	s0,sp,784
 1de:	0410                	addi	a2,sp,512
 1e0:	0008                	addi	a0,sp,0
 1e2:	0000                	unimp
 1e4:	0288                	addi	a0,sp,320
 1e6:	0389                	addi	t2,t2,2
 1e8:	0181                	addi	gp,gp,0
 1ea:	0492                	slli	s1,s1,0x4
 1ec:	1604                	addi	s1,sp,800
 1ee:	0000                	unimp
 1f0:	0a00                	addi	s0,sp,272
 1f2:	04c1                	addi	s1,s1,16
 1f4:	0002                	0x2
 1f6:	0000                	unimp
 1f8:	04c8                	addi	a0,sp,580
 1fa:	0004                	addi	s1,sp,0
 1fc:	0000                	unimp
 1fe:	04c9                	addi	s1,s1,18
 200:	0002                	0x2
 202:	0000                	unimp
 204:	04d2                	slli	s1,s1,0x14
 206:	0002                	0x2
 208:	0000                	unimp
 20a:	000e                	0xe
 20c:	0204                	addi	s1,sp,256
 20e:	0000                	unimp
 210:	0b00                	addi	s0,sp,400
 212:	0000                	unimp
 214:	0058                	addi	a4,sp,4
 216:	0000                	unimp
 218:	0000                	unimp
 21a:	0000                	unimp
 21c:	0452                	slli	s0,s0,0x14
 21e:	e000                	fsw	fs0,0(s0)
 220:	006c                	addi	a1,sp,12
 222:	0000                	unimp
 224:	0204                	addi	s1,sp,256
 226:	0000                	unimp
 228:	0e00                	addi	s0,sp,784
 22a:	0420                	addi	s0,sp,520
 22c:	000e                	0xe
 22e:	0000                	unimp
 230:	058e                	slli	a1,a1,0x3
 232:	018a068f          	0x18a068f
 236:	038c028b          	p.lb	t0,56(s8!)
 23a:	048d                	addi	s1,s1,3
 23c:	0790                	addi	a2,sp,960
 23e:	4a04                	lw	s1,16(a2)
 240:	0000                	unimp
 242:	ca00                	sw	s0,16(a2)
 244:	0204                	addi	s1,sp,256
 246:	0000                	unimp
 248:	cb00                	sw	s0,16(a4)
 24a:	0204                	addi	s1,sp,256
 24c:	0000                	unimp
 24e:	cc00                	sw	s0,24(s0)
 250:	0204                	addi	s1,sp,256
 252:	0000                	unimp
 254:	cd00                	sw	s0,24(a0)
 256:	0204                	addi	s1,sp,256
 258:	0000                	unimp
 25a:	ce00                	sw	s0,24(a2)
 25c:	0204                	addi	s1,sp,256
 25e:	0000                	unimp
 260:	cf00                	sw	s0,24(a4)
 262:	0204                	addi	s1,sp,256
 264:	0000                	unimp
 266:	d000                	sw	s0,32(s0)
 268:	0204                	addi	s1,sp,256
 26a:	0000                	unimp
 26c:	0e00                	addi	s0,sp,784
 26e:	0000                	unimp
 270:	000c                	addi	a1,sp,0
 272:	0000                	unimp
 274:	ffff                	0xffff
 276:	ffff                	0xffff
 278:	7c010003          	lb	zero,1984(sp)
 27c:	0c01                	addi	s8,s8,0
 27e:	0002                	0x2
 280:	0064                	addi	s1,sp,12
 282:	0000                	unimp
 284:	0270                	addi	a2,sp,268
 286:	0000                	unimp
 288:	053a                	slli	a0,a0,0xe
 28a:	e000                	fsw	fs0,0(s0)
 28c:	00c0                	addi	s0,sp,68
 28e:	0000                	unimp
 290:	0204                	addi	s1,sp,256
 292:	0000                	unimp
 294:	0e00                	addi	s0,sp,784
 296:	0420                	addi	s0,sp,520
 298:	0008                	addi	a0,sp,0
 29a:	0000                	unimp
 29c:	0288                	addi	a0,sp,320
 29e:	12040593          	addi	a1,s0,288
 2a2:	0000                	unimp
 2a4:	8900                	0x8900
 2a6:	94049203          	lh	tp,-1728(s1) # d000180a <tohost+0xcffe1802>
 2aa:	9506                	add	a0,a0,ra
 2ac:	04018107          	0x4018107
 2b0:	0078                	addi	a4,sp,12
 2b2:	0000                	unimp
 2b4:	c10a                	sw	sp,128(sp)
 2b6:	0204                	addi	s1,sp,256
 2b8:	0000                	unimp
 2ba:	c800                	sw	s0,16(s0)
 2bc:	0a04                	addi	s1,sp,272
 2be:	0000                	unimp
 2c0:	c900                	sw	s0,16(a0)
 2c2:	0204                	addi	s1,sp,256
 2c4:	0000                	unimp
 2c6:	d200                	sw	s0,32(a2)
 2c8:	0204                	addi	s1,sp,256
 2ca:	0000                	unimp
 2cc:	d300                	sw	s0,32(a4)
 2ce:	0204                	addi	s1,sp,256
 2d0:	0000                	unimp
 2d2:	d400                	sw	s0,40(s0)
 2d4:	0204                	addi	s1,sp,256
 2d6:	0000                	unimp
 2d8:	d500                	sw	s0,40(a0)
 2da:	0404                	addi	s1,sp,512
 2dc:	0000                	unimp
 2de:	0e00                	addi	s0,sp,784
 2e0:	0400                	addi	s0,sp,512
 2e2:	0002                	0x2
 2e4:	0000                	unimp
 2e6:	0081000b          	p.lb	zero,0(zero!) # 0 <_min_stack-0x2000>

Disassembly of section .debug_info:

00000000 <.debug_info>:
   0:	0924                	addi	s1,sp,152
   2:	0000                	unimp
   4:	0004                	addi	s1,sp,0
   6:	0000                	unimp
   8:	0000                	unimp
   a:	0104                	addi	s1,sp,128
   c:	0000012b          	p.sb	zero,2(zero!) # 2 <_min_stack-0x1ffe>
  10:	080c                	addi	a1,sp,16
  12:	0000                	unimp
  14:	e600                	fsw	fs0,8(a2)
  16:	0001                	nop
  18:	8400                	0x8400
  1a:	0000                	unimp
  1c:	3ae0                	fld	fs0,240(a3)
  1e:	0004                	addi	s1,sp,0
  20:	0000                	unimp
  22:	0000                	unimp
  24:	0200                	addi	s0,sp,256
  26:	0268                	addi	a0,sp,268
  28:	0000                	unimp
  2a:	2802                	fld	fa6,0(sp)
  2c:	0030                	addi	a2,sp,8
  2e:	0000                	unimp
  30:	02350403          	lb	s0,35(a0) # ffff8023 <pulp__FC+0xffff8024>
  34:	0000                	unimp
  36:	6f02                	flw	ft10,0(sp)
  38:	0002                	0x2
  3a:	0200                	addi	s0,sp,256
  3c:	00002563          	p.beqimm	zero,0,46 <_min_stack-0x1fba>
  40:	0400                	addi	s0,sp,512
  42:	0504                	addi	s1,sp,640
  44:	6e69                	lui	t3,0x1a
  46:	0074                	addi	a3,sp,12
  48:	4105                	li	sp,1
  4a:	0000                	unimp
  4c:	0600                	addi	s0,sp,768
  4e:	0704                	addi	s1,sp,896
  50:	01a1                	addi	gp,gp,8
  52:	0000                	unimp
  54:	0806                	slli	a6,a6,0x1
  56:	8f05                	sub	a4,a4,s1
  58:	0000                	unimp
  5a:	0600                	addi	s0,sp,768
  5c:	0410                	addi	a2,sp,512
  5e:	00ff                	0xff
  60:	0000                	unimp
  62:	0106                	slli	sp,sp,0x1
  64:	0d06                	slli	s10,s10,0x1
  66:	0001                	nop
  68:	0600                	addi	s0,sp,768
  6a:	0502                	slli	a0,a0,0x0
  6c:	0044                	addi	s1,sp,4
  6e:	0000                	unimp
  70:	0406                	slli	s0,s0,0x1
  72:	9405                	srai	s0,s0,0x21
  74:	0000                	unimp
  76:	0600                	addi	s0,sp,768
  78:	0801                	addi	a6,a6,0
  7a:	0000010b          	p.lb	sp,0(zero!) # 0 <_min_stack-0x2000>
  7e:	b502                	fsd	ft0,168(sp)
  80:	0001                	nop
  82:	0300                	addi	s0,sp,384
  84:	8931                	andi	a0,a0,12
  86:	0000                	unimp
  88:	0600                	addi	s0,sp,768
  8a:	0702                	slli	a4,a4,0x0
  8c:	01c9                	addi	gp,gp,18
  8e:	0000                	unimp
  90:	0406                	slli	s0,s0,0x1
  92:	00019c07          	0x19c07
  96:	0600                	addi	s0,sp,768
  98:	0708                	addi	a0,sp,896
  9a:	00000197          	auipc	gp,0x0
  9e:	0000ae07          	flw	ft8,0(ra) # a2cc3000 <tohost+0xa2ca2ff8>
  a2:	ae00                	fsd	fs0,24(a2)
  a4:	0000                	unimp
  a6:	0800                	addi	s0,sp,16
  a8:	004d                	c.addi	zero,19
  aa:	0000                	unimp
  ac:	0106000f          	0x106000f
  b0:	1408                	addi	a0,sp,544
  b2:	0001                	nop
  b4:	0900                	addi	s0,sp,144
  b6:	00ae                	slli	ra,ra,0xb
  b8:	0000                	unimp
  ba:	9d0a                	add	s10,s10,sp
  bc:	0000                	unimp
  be:	0100                	addi	s0,sp,128
  c0:	9e80                	0x9e80
  c2:	0000                	unimp
  c4:	0500                	addi	s0,sp,640
  c6:	0047d003          	lhu	zero,4(a5) # d0002e6c <tohost+0xcffe2e64>
  ca:	0be0                	addi	s0,sp,476
  cc:	00000277          	0x277
  d0:	5201                	li	tp,-32
  d2:	5201                	li	tp,-32
  d4:	0004                	addi	s1,sp,0
  d6:	6ce0                	flw	fs0,92(s1)
  d8:	0000                	unimp
  da:	0100                	addi	s0,sp,128
  dc:	a69c                	fsd	fa5,8(a3)
  de:	0001                	nop
  e0:	0c00                	addi	s0,sp,528
  e2:	0296                	slli	t0,t0,0x5
  e4:	0000                	unimp
  e6:	5401                	li	s0,-32
  e8:	4101                	li	sp,0
  ea:	0000                	unimp
  ec:	9f00                	0x9f00
  ee:	610d                	addi	sp,sp,160
  f0:	0100                	addi	s0,sp,128
  f2:	0155                	addi	sp,sp,21
  f4:	0041                	c.addi	zero,16
  f6:	0000                	unimp
  f8:	0000                	unimp
  fa:	0000                	unimp
  fc:	620d                	lui	tp,0x3
  fe:	0100                	addi	s0,sp,128
 100:	0155                	addi	sp,sp,21
 102:	0041                	c.addi	zero,16
 104:	0000                	unimp
 106:	00000013          	nop
 10a:	630d                	lui	t1,0x3
 10c:	0100                	addi	s0,sp,128
 10e:	0155                	addi	sp,sp,21
 110:	0041                	c.addi	zero,16
 112:	0000                	unimp
 114:	0026                	0x26
 116:	0000                	unimp
 118:	650d                	lui	a0,0x3
 11a:	0100                	addi	s0,sp,128
 11c:	0155                	addi	sp,sp,21
 11e:	0041                	c.addi	zero,16
 120:	0000                	unimp
 122:	0039                	c.addi	zero,14
 124:	0000                	unimp
 126:	640d                	lui	s0,0x3
 128:	0100                	addi	s0,sp,128
 12a:	0155                	addi	sp,sp,21
 12c:	0041                	c.addi	zero,16
 12e:	0000                	unimp
 130:	004c                	addi	a1,sp,4
 132:	0000                	unimp
 134:	4e0e                	lw	t3,192(sp)
 136:	0000                	unimp
 138:	0100                	addi	s0,sp,128
 13a:	0156                	slli	sp,sp,0x15
 13c:	01a6                	slli	gp,gp,0x9
 13e:	0000                	unimp
 140:	005f 0000 e30f      	0xe30f0000005f
 146:	0000                	unimp
 148:	0100                	addi	s0,sp,128
 14a:	0156                	slli	sp,sp,0x15
 14c:	01a6                	slli	gp,gp,0x9
 14e:	0000                	unimp
 150:	4008                	lw	a0,0(s0)
 152:	1040                	addi	s0,sp,36
 154:	be10                	fsd	fa2,56(a2)
 156:	0001                	nop
 158:	0100                	addi	s0,sp,128
 15a:	0156                	slli	sp,sp,0x15
 15c:	01a6                	slli	gp,gp,0x9
 15e:	0000                	unimp
 160:	8084                	0x8084
 162:	c180                	sw	s0,0(a1)
 164:	0f7c                	addi	a5,sp,924
 166:	00ea                	slli	ra,ra,0x1a
 168:	0000                	unimp
 16a:	5601                	li	a2,-32
 16c:	a601                	j	46c <_min_stack-0x1b94>
 16e:	0001                	nop
 170:	1000                	addi	s0,sp,32
 172:	4040                	lw	s0,4(s0)
 174:	0f10                	addi	a2,sp,912
 176:	00f1                	addi	ra,ra,28
 178:	0000                	unimp
 17a:	5601                	li	a2,-32
 17c:	a601                	j	47c <_min_stack-0x1b84>
 17e:	0001                	nop
 180:	1400                	addi	s0,sp,544
 182:	4040                	lw	s0,4(s0)
 184:	0f10                	addi	a2,sp,912
 186:	00f8                	addi	a4,sp,76
 188:	0000                	unimp
 18a:	5601                	li	a2,-32
 18c:	a601                	j	48c <_min_stack-0x1b74>
 18e:	0001                	nop
 190:	1800                	addi	s0,sp,48
 192:	4040                	lw	s0,4(s0)
 194:	0f10                	addi	a2,sp,912
 196:	02a5                	addi	t0,t0,9
 198:	0000                	unimp
 19a:	5601                	li	a2,-32
 19c:	a601                	j	49c <_min_stack-0x1b64>
 19e:	0001                	nop
 1a0:	1c00                	addi	s0,sp,560
 1a2:	4040                	lw	s0,4(s0)
 1a4:	0010                	addi	a2,sp,0
 1a6:	0411                	addi	s0,s0,4
 1a8:	0048                	addi	a0,sp,4
 1aa:	0000                	unimp
 1ac:	7112                	flw	ft2,36(sp)
 1ae:	0000                	unimp
 1b0:	0100                	addi	s0,sp,128
 1b2:	0146                	slli	sp,sp,0x11
 1b4:	0041                	c.addi	zero,16
 1b6:	0000                	unimp
 1b8:	0422                	slli	s0,s0,0x8
 1ba:	e000                	fsw	fs0,0(s0)
 1bc:	0030                	addi	a2,sp,8
 1be:	0000                	unimp
 1c0:	9c01                	0x9c01
 1c2:	00000233          	add	tp,zero,zero
 1c6:	01007313          	andi	t1,zero,16
 1ca:	0146                	slli	sp,sp,0x11
 1cc:	00000233          	add	tp,zero,zero
 1d0:	00000087          	0x87
 1d4:	690d                	lui	s2,0x3
 1d6:	0100                	addi	s0,sp,128
 1d8:	0148                	addi	a0,sp,132
 1da:	0041                	c.addi	zero,16
 1dc:	0000                	unimp
 1de:	00be                	slli	ra,ra,0xf
 1e0:	0000                	unimp
 1e2:	1114                	addi	a3,sp,160
 1e4:	0005                	c.addi	zero,1
 1e6:	3c00                	fld	fs0,56(s0)
 1e8:	0004                	addi	s1,sp,0
 1ea:	04e0                	addi	s0,sp,588
 1ec:	0000                	unimp
 1ee:	0100                	addi	s0,sp,128
 1f0:	014d                	addi	sp,sp,19
 1f2:	0000020f          	0x20f
 1f6:	2115                	jal	61a <_min_stack-0x19e6>
 1f8:	0005                	c.addi	zero,1
 1fa:	f800                	fsw	fs0,48(s0)
 1fc:	0000                	unimp
 1fe:	1600                	addi	s0,sp,800
 200:	0440                	addi	s0,sp,516
 202:	e000                	fsw	fs0,0(s0)
 204:	0582                	slli	a1,a1,0x0
 206:	0000                	unimp
 208:	015a0117          	auipc	sp,0x15a0
 20c:	003a                	0x3a
 20e:	1800                	addi	s0,sp,48
 210:	0511                	addi	a0,a0,4
 212:	0000                	unimp
 214:	044e                	slli	s0,s0,0x13
 216:	e000                	fsw	fs0,0(s0)
 218:	0004                	addi	s1,sp,0
 21a:	0000                	unimp
 21c:	4b01                	li	s6,0
 21e:	1501                	addi	a0,a0,-32
 220:	0521                	addi	a0,a0,8
 222:	0000                	unimp
 224:	010c                	addi	a1,sp,128
 226:	0000                	unimp
 228:	5019                	0x5019
 22a:	0004                	addi	s1,sp,0
 22c:	82e0                	0x82e0
 22e:	0005                	c.addi	zero,1
 230:	0000                	unimp
 232:	1100                	addi	s0,sp,160
 234:	b504                	fsd	fs1,40(a0)
 236:	0000                	unimp
 238:	1200                	addi	s0,sp,288
 23a:	00cd                	addi	ra,ra,19
 23c:	0000                	unimp
 23e:	3701                	jal	13e <_min_stack-0x1ec2>
 240:	4101                	li	sp,0
 242:	0000                	unimp
 244:	c000                	sw	s0,0(s0)
 246:	0002                	0x2
 248:	58e0                	lw	s0,116(s1)
 24a:	0001                	nop
 24c:	0100                	addi	s0,sp,128
 24e:	4b9c                	lw	a5,16(a5)
 250:	1a000003          	lb	zero,416(zero) # 1a0 <_min_stack-0x1e60>
 254:	029e                	slli	t0,t0,0x7
 256:	0000                	unimp
 258:	3701                	jal	158 <_min_stack-0x1ea8>
 25a:	3301                	jal	ffffff5a <pulp__FC+0xffffff5b>
 25c:	0002                	0x2
 25e:	2400                	fld	fs0,8(s0)
 260:	0001                	nop
 262:	1b00                	addi	s0,sp,432
 264:	701c                	flw	fa5,32(s0)
 266:	39010063          	beq	sp,a6,5e6 <_min_stack-0x1a1a>
 26a:	4101                	li	sp,0
 26c:	0000                	unimp
 26e:	1d00                	addi	s0,sp,688
 270:	6176                	flw	ft2,92(sp)
 272:	0100                	addi	s0,sp,128
 274:	013a                	slli	sp,sp,0xe
 276:	0036                	0x36
 278:	0000                	unimp
 27a:	7fac9103          	lh	sp,2042(s9)
 27e:	4b1e                	lw	s6,196(sp)
 280:	ea000003          	lb	zero,-352(zero) # fffffea0 <pulp__FC+0xfffffea1>
 284:	0002                	0x2
 286:	d8e0                	sw	s0,116(s1)
 288:	0000                	unimp
 28a:	0100                	addi	s0,sp,128
 28c:	013e                	slli	sp,sp,0xf
 28e:	5b1f 0003 0000      	0x35b1f
 294:	7115                	addi	sp,sp,-224
 296:	45000003          	lb	zero,1104(zero) # 450 <_min_stack-0x1bb0>
 29a:	0001                	nop
 29c:	1500                	addi	s0,sp,672
 29e:	0366                	slli	t1,t1,0x19
 2a0:	0000                	unimp
 2a2:	000001e7          	jalr	gp,zero
 2a6:	d820                	sw	s0,112(s0)
 2a8:	0000                	unimp
 2aa:	2100                	fld	fs0,0(a0)
 2ac:	0000037b          	lp.starti	x6,2ac <_min_stack-0x1d54>
 2b0:	02ad                	addi	t0,t0,11
 2b2:	0000                	unimp
 2b4:	8621                	srai	a2,a2,0x8
 2b6:	05000003          	lb	zero,80(zero) # 50 <_min_stack-0x1fb0>
 2ba:	21000003          	lb	zero,528(zero) # 210 <_min_stack-0x1df0>
 2be:	0391                	addi	t2,t2,4
 2c0:	0000                	unimp
 2c2:	035d                	addi	t1,t1,23
 2c4:	0000                	unimp
 2c6:	9b22                	add	s6,s6,s0
 2c8:	03000003          	lb	zero,48(zero) # 30 <_min_stack-0x1fd0>
 2cc:	a891                	j	320 <_min_stack-0x1ce0>
 2ce:	237f                	0x237f
 2d0:	03a6                	slli	t2,t2,0x9
 2d2:	0000                	unimp
 2d4:	040e                	slli	s0,s0,0x3
 2d6:	e000                	fsw	fs0,0(s0)
 2d8:	ae24                	fsd	fs1,88(a2)
 2da:	f0000003          	lb	zero,-256(zero) # ffffff00 <pulp__FC+0xffffff01>
 2de:	0000                	unimp
 2e0:	ed00                	fsw	fs0,24(a0)
 2e2:	0002                	0x2
 2e4:	2200                	fld	fs0,0(a2)
 2e6:	000003af          	0x3af
 2ea:	5a01                	li	s4,-32
 2ec:	2500                	fld	fs0,8(a0)
 2ee:	04f0                	addi	a2,sp,588
 2f0:	0000                	unimp
 2f2:	040e                	slli	s0,s0,0x3
 2f4:	e000                	fsw	fs0,0(s0)
 2f6:	0108                	addi	a0,sp,128
 2f8:	0000                	unimp
 2fa:	2e01                	jal	60a <_min_stack-0x19f6>
 2fc:	3601                	jal	fffffdfc <pulp__FC+0xfffffdfd>
 2fe:	15000003          	lb	zero,336(zero) # 150 <_min_stack-0x1eb0>
 302:	04fc                	addi	a5,sp,588
 304:	0000                	unimp
 306:	039e                	slli	t2,t2,0x7
 308:	0000                	unimp
 30a:	0715                	addi	a4,a4,5
 30c:	0005                	c.addi	zero,1
 30e:	b200                	fsd	fs0,32(a2)
 310:	26000003          	lb	zero,608(zero) # 260 <_min_stack-0x1da0>
 314:	0511                	addi	a0,a0,4
 316:	0000                	unimp
 318:	040e                	slli	s0,s0,0x3
 31a:	e000                	fsw	fs0,0(s0)
 31c:	0108                	addi	a0,sp,128
 31e:	0000                	unimp
 320:	9801                	andi	s0,s0,-32
 322:	2115                	jal	746 <_min_stack-0x18ba>
 324:	0005                	c.addi	zero,1
 326:	b200                	fsd	fs0,32(a2)
 328:	19000003          	lb	zero,400(zero) # 190 <_min_stack-0x1e70>
 32c:	0416                	slli	s0,s0,0x5
 32e:	e000                	fsw	fs0,0(s0)
 330:	0582                	slli	a1,a1,0x0
 332:	0000                	unimp
 334:	0000                	unimp
 336:	7e19                	lui	t3,0xfffe6
 338:	5ae00003          	lb	zero,1454(zero) # 5ae <_min_stack-0x1a52>
 33c:	0006                	0x6
 33e:	1900                	addi	s0,sp,176
 340:	03aa                	slli	t2,t2,0xa
 342:	e000                	fsw	fs0,0(s0)
 344:	00000793          	li	a5,0
 348:	0000                	unimp
 34a:	2700                	fld	fs0,8(a4)
 34c:	01ae                	slli	gp,gp,0xb
 34e:	0000                	unimp
 350:	f301                	bnez	a4,250 <_min_stack-0x1db0>
 352:	0041                	c.addi	zero,16
 354:	0000                	unimp
 356:	bb01                	j	66 <_min_stack-0x1f9a>
 358:	28000003          	lb	zero,640(zero) # 280 <_min_stack-0x1d80>
 35c:	0074756f          	jal	a0,47b62 <tohost+0x27b5a>
 360:	f301                	bnez	a4,260 <_min_stack-0x1da0>
 362:	000003bb          	0x3bb
 366:	9e29                	0x9e29
 368:	0002                	0x2
 36a:	0100                	addi	s0,sp,128
 36c:	000233f3          	csrrc	t2,0x0,tp
 370:	2800                	fld	fs0,16(s0)
 372:	6176                	flw	ft2,92(sp)
 374:	0100                	addi	s0,sp,128
 376:	000036f3          	csrrc	a3,0x0,zero
 37a:	2a00                	fld	fs0,16(a2)
 37c:	0076                	0x76
 37e:	0000                	unimp
 380:	f501                	bnez	a0,288 <_min_stack-0x1d78>
 382:	0041                	c.addi	zero,16
 384:	0000                	unimp
 386:	6461702b          	0x6461702b
 38a:	0100                	addi	s0,sp,128
 38c:	41f5                	li	gp,29
 38e:	0000                	unimp
 390:	2b00                	fld	fs0,16(a4)
 392:	6370                	flw	fa2,68(a4)
 394:	0100                	addi	s0,sp,128
 396:	41f6                	lw	gp,92(sp)
 398:	0000                	unimp
 39a:	2b00                	fld	fs0,16(a4)
 39c:	00726373          	csrrsi	t1,0x7,4
 3a0:	f701                	bnez	a4,2a8 <_min_stack-0x1d58>
 3a2:	000003c7          	fmsub.s	ft7,ft0,ft0,ft0,rne
 3a6:	6f2c                	flw	fa1,88(a4)
 3a8:	7475                	lui	s0,0xffffd
 3aa:	0100                	addi	s0,sp,128
 3ac:	012d                	addi	sp,sp,11
 3ae:	1c2d                	addi	s8,s8,-21
 3b0:	10010073          	0x10010073
 3b4:	c101                	beqz	a0,3b4 <_min_stack-0x1c4c>
 3b6:	00000003          	lb	zero,0(zero) # 0 <_min_stack-0x2000>
 3ba:	1100                	addi	s0,sp,160
 3bc:	c104                	sw	s1,0(a0)
 3be:	11000003          	lb	zero,272(zero) # 110 <_min_stack-0x1ef0>
 3c2:	ae04                	fsd	fs1,24(a2)
 3c4:	0000                	unimp
 3c6:	0700                	addi	s0,sp,896
 3c8:	00ae                	slli	ra,ra,0xb
 3ca:	0000                	unimp
 3cc:	000003d7          	pv.add.h	t2,zero,zero
 3d0:	4d08                	lw	a0,24(a0)
 3d2:	0000                	unimp
 3d4:	0100                	addi	s0,sp,128
 3d6:	2700                	fld	fs0,8(a4)
 3d8:	00d4                	addi	a3,sp,68
 3da:	0000                	unimp
 3dc:	b901                	j	ffffffec <pulp__FC+0xffffffed>
 3de:	0041                	c.addi	zero,16
 3e0:	0000                	unimp
 3e2:	7601                	lui	a2,0xfffe0
 3e4:	0004                	addi	s1,sp,0
 3e6:	2800                	fld	fs0,16(s0)
 3e8:	0074756f          	jal	a0,47bee <tohost+0x27be6>
 3ec:	b901                	j	fffffffc <pulp__FC+0xfffffffd>
 3ee:	000003bb          	0x3bb
 3f2:	6928                	flw	fa0,80(a0)
 3f4:	0100                	addi	s0,sp,128
 3f6:	41b9                	li	gp,14
 3f8:	0000                	unimp
 3fa:	2800                	fld	fs0,16(s0)
 3fc:	0062                	0x62
 3fe:	b901                	j	e <_min_stack-0x1ff2>
 400:	0041                	c.addi	zero,16
 402:	0000                	unimp
 404:	7328                	flw	fa0,96(a4)
 406:	b9010067          	jr	-1136(sp) # 159fd98 <tohost+0x157fd90>
 40a:	0041                	c.addi	zero,16
 40c:	0000                	unimp
 40e:	7629                	lui	a2,0xfffea
 410:	0000                	unimp
 412:	0100                	addi	s0,sp,128
 414:	41b9                	li	gp,14
 416:	0000                	unimp
 418:	2800                	fld	fs0,16(s0)
 41a:	6170                	flw	fa2,68(a0)
 41c:	0064                	addi	s1,sp,12
 41e:	b901                	j	2e <_min_stack-0x1fd2>
 420:	0041                	c.addi	zero,16
 422:	0000                	unimp
 424:	be29                	j	ffffff3e <pulp__FC+0xffffff3f>
 426:	0000                	unimp
 428:	0100                	addi	s0,sp,128
 42a:	aeb9                	j	788 <_min_stack-0x1878>
 42c:	0000                	unimp
 42e:	2a00                	fld	fs0,16(a2)
 430:	01dc                	addi	a5,sp,196
 432:	0000                	unimp
 434:	bb01                	j	144 <_min_stack-0x1ebc>
 436:	0476                	slli	s0,s0,0x1d
 438:	0000                	unimp
 43a:	0100732b          	0x100732b
 43e:	c1bc                	sw	a5,64(a1)
 440:	2b000003          	lb	zero,688(zero) # 2b0 <_min_stack-0x1d50>
 444:	656e                	flw	fa0,216(sp)
 446:	bd010067          	jr	-1072(sp)
 44a:	0041                	c.addi	zero,16
 44c:	0000                	unimp
 44e:	0063702b          	0x63702b
 452:	bd01                	j	262 <_min_stack-0x1d9e>
 454:	0041                	c.addi	zero,16
 456:	0000                	unimp
 458:	0100742b          	0x100742b
 45c:	4dbe                	lw	s11,204(sp)
 45e:	0000                	unimp
 460:	2b00                	fld	fs0,16(a4)
 462:	0075                	c.addi	zero,29
 464:	be01                	j	ffffff74 <pulp__FC+0xffffff75>
 466:	004d                	c.addi	zero,19
 468:	0000                	unimp
 46a:	2b2d                	jal	9a4 <_min_stack-0x165c>
 46c:	0074                	addi	a3,sp,12
 46e:	d401                	beqz	s0,376 <_min_stack-0x1c8a>
 470:	0041                	c.addi	zero,16
 472:	0000                	unimp
 474:	0000                	unimp
 476:	0000ae07          	flw	ft8,0(ra)
 47a:	8600                	0x8600
 47c:	0004                	addi	s1,sp,0
 47e:	0800                	addi	s0,sp,16
 480:	004d                	c.addi	zero,19
 482:	0000                	unimp
 484:	001f 0027 0000      	0x27001f
 48a:	0100                	addi	s0,sp,128
 48c:	0000419b          	0x419b
 490:	0100                	addi	s0,sp,128
 492:	04f0                	addi	a2,sp,588
 494:	0000                	unimp
 496:	6f28                	flw	fa0,88(a4)
 498:	7475                	lui	s0,0xffffd
 49a:	0100                	addi	s0,sp,128
 49c:	0003bb9b          	0x3bb9b
 4a0:	2900                	fld	fs0,16(a0)
 4a2:	00c6                	slli	ra,ra,0x11
 4a4:	0000                	unimp
 4a6:	9b01                	andi	a4,a4,-32
 4a8:	00000233          	add	tp,zero,zero
 4ac:	7629                	lui	a2,0xfffea
 4ae:	0000                	unimp
 4b0:	0100                	addi	s0,sp,128
 4b2:	0000419b          	0x419b
 4b6:	2800                	fld	fs0,16(s0)
 4b8:	6170                	flw	fa2,68(a0)
 4ba:	0064                	addi	s1,sp,12
 4bc:	9b01                	andi	a4,a4,-32
 4be:	0041                	c.addi	zero,16
 4c0:	0000                	unimp
 4c2:	0063702b          	0x63702b
 4c6:	9d01                	0x9d01
 4c8:	0041                	c.addi	zero,16
 4ca:	0000                	unimp
 4cc:	5c2a                	lw	s8,168(sp)
 4ce:	0000                	unimp
 4d0:	0100                	addi	s0,sp,128
 4d2:	419d                	li	gp,7
 4d4:	0000                	unimp
 4d6:	2d00                	fld	fs0,24(a0)
 4d8:	6e656c2b          	0x6e656c2b
 4dc:	0100                	addi	s0,sp,128
 4de:	41a0                	lw	s0,64(a1)
 4e0:	0000                	unimp
 4e2:	2b00                	fld	fs0,16(a4)
 4e4:	7470                	flw	fa2,108(s0)
 4e6:	0072                	0x72
 4e8:	a101                	j	8e8 <_min_stack-0x1718>
 4ea:	00000233          	add	tp,zero,zero
 4ee:	0000                	unimp
 4f0:	2a2e                	fld	fs4,200(sp)
 4f2:	0002                	0x2
 4f4:	0100                	addi	s0,sp,128
 4f6:	0190                	addi	a2,sp,192
 4f8:	0511                	addi	a0,a0,4
 4fa:	0000                	unimp
 4fc:	7328                	flw	fa0,96(a4)
 4fe:	7274                	flw	fa3,100(a2)
 500:	0100                	addi	s0,sp,128
 502:	bb90                	fsd	fa2,48(a5)
 504:	28000003          	lb	zero,640(zero) # 280 <_min_stack-0x1d80>
 508:	90010063          	beqz	sp,fffff608 <pulp__FC+0xfffff609>
 50c:	0041                	c.addi	zero,16
 50e:	0000                	unimp
 510:	2f00                	fld	fs0,24(a4)
 512:	0054                	addi	a3,sp,4
 514:	0000                	unimp
 516:	8a01                	andi	a2,a2,0
 518:	0041                	c.addi	zero,16
 51a:	0000                	unimp
 51c:	2b01                	jal	a2c <_min_stack-0x15d4>
 51e:	0005                	c.addi	zero,1
 520:	2800                	fld	fs0,16(s0)
 522:	8a010073          	0x8a010073
 526:	0041                	c.addi	zero,16
 528:	0000                	unimp
 52a:	2700                	fld	fs0,8(a4)
 52c:	000000b7          	lui	ra,0x0
 530:	8501                	srai	a0,a0,0x0
 532:	004d                	c.addi	zero,19
 534:	0000                	unimp
 536:	4501                	li	a0,0
 538:	0005                	c.addi	zero,1
 53a:	2800                	fld	fs0,16(s0)
 53c:	006e                	0x6e
 53e:	8501                	srai	a0,a0,0x0
 540:	004d                	c.addi	zero,19
 542:	0000                	unimp
 544:	2700                	fld	fs0,8(a4)
 546:	00000247          	fmsub.s	ft4,ft0,ft0,ft0,rne
 54a:	7301                	lui	t1,0xfffe0
 54c:	004d                	c.addi	zero,19
 54e:	0000                	unimp
 550:	7101                	addi	sp,sp,-512
 552:	0005                	c.addi	zero,1
 554:	2800                	fld	fs0,16(s0)
 556:	006e                	0x6e
 558:	7301                	lui	t1,0xfffe0
 55a:	004d                	c.addi	zero,19
 55c:	0000                	unimp
 55e:	0100712b          	0x100712b
 562:	4d74                	lw	a3,92(a0)
 564:	0000                	unimp
 566:	2b00                	fld	fs0,16(a4)
 568:	0072                	0x72
 56a:	7401                	lui	s0,0xfffe0
 56c:	004d                	c.addi	zero,19
 56e:	0000                	unimp
 570:	3000                	fld	fs0,32(s0)
 572:	0119                	addi	sp,sp,6
 574:	0000                	unimp
 576:	5501                	li	a0,-32
 578:	029a                	slli	t0,t0,0x6
 57a:	e000                	fsw	fs0,0(s0)
 57c:	000e                	0xe
 57e:	0000                	unimp
 580:	9c01                	0x9c01
 582:	4e31                	li	t3,12
 584:	0002                	0x2
 586:	0100                	addi	s0,sp,128
 588:	ea4d                	bnez	a2,63a <_min_stack-0x19c6>
 58a:	0000                	unimp
 58c:	10e0                	addi	s0,sp,108
 58e:	0000                	unimp
 590:	0100                	addi	s0,sp,128
 592:	a39c                	fsd	fa5,0(a5)
 594:	0005                	c.addi	zero,1
 596:	3200                	fld	fs0,32(a2)
 598:	4d010063          	beq	sp,a6,a58 <_min_stack-0x15a8>
 59c:	00b5                	addi	ra,ra,13
 59e:	0000                	unimp
 5a0:	5a01                	li	s4,-32
 5a2:	3300                	fld	fs0,32(a4)
 5a4:	00aa                	slli	ra,ra,0xa
 5a6:	0000                	unimp
 5a8:	4701                	li	a4,0
 5aa:	00ae                	slli	ra,ra,0xb
 5ac:	0000                	unimp
 5ae:	00d8                	addi	a4,sp,68
 5b0:	e000                	fsw	fs0,0(s0)
 5b2:	0012                	0x12
 5b4:	0000                	unimp
 5b6:	9c01                	0x9c01
 5b8:	8c31                	xor	s0,s0,a2
 5ba:	0002                	0x2
 5bc:	0100                	addi	s0,sp,128
 5be:	b235                	j	fffffeea <pulp__FC+0xfffffeeb>
 5c0:	0000                	unimp
 5c2:	26e0                	fld	fs0,200(a3)
 5c4:	0000                	unimp
 5c6:	0100                	addi	s0,sp,128
 5c8:	f69c                	fsw	fa5,40(a3)
 5ca:	0005                	c.addi	zero,1
 5cc:	3400                	fld	fs0,40(s0)
 5ce:	00727473          	csrrci	s0,0x7,4
 5d2:	3501                	jal	3d2 <_min_stack-0x1c2e>
 5d4:	00000233          	add	tp,zero,zero
 5d8:	03cc                	addi	a1,sp,452
 5da:	0000                	unimp
 5dc:	6c34                	flw	fa3,88(s0)
 5de:	6e65                	lui	t3,0x19
 5e0:	0100                	addi	s0,sp,128
 5e2:	4d35                	li	s10,13
 5e4:	0000                	unimp
 5e6:	ea00                	fsw	fs0,16(a2)
 5e8:	35000003          	lb	zero,848(zero) # 350 <_min_stack-0x1cb0>
 5ec:	0069                	c.addi	zero,26
 5ee:	3601                	jal	ee <_min_stack-0x1f12>
 5f0:	004d                	c.addi	zero,19
 5f2:	0000                	unimp
 5f4:	0000                	unimp
 5f6:	6431                	lui	s0,0xc
 5f8:	0000                	unimp
 5fa:	0100                	addi	s0,sp,128
 5fc:	842a                	mv	s0,a0
 5fe:	0000                	unimp
 600:	2ee0                	fld	fs0,216(a3)
 602:	0000                	unimp
 604:	0100                	addi	s0,sp,128
 606:	319c                	fld	fa5,32(a1)
 608:	0006                	0x6
 60a:	3600                	fld	fs0,40(a2)
 60c:	00dc                	addi	a5,sp,68
 60e:	0000                	unimp
 610:	2a01                	jal	720 <_min_stack-0x18e0>
 612:	0041                	c.addi	zero,16
 614:	0000                	unimp
 616:	5a01                	li	s4,-32
 618:	00025c37          	lui	s8,0x25
 61c:	0100                	addi	s0,sp,128
 61e:	7e2a                	flw	ft8,168(sp)
 620:	0000                	unimp
 622:	0800                	addi	s0,sp,16
 624:	0004                	addi	s1,sp,0
 626:	2b00                	fld	fs0,16(a4)
 628:	0069                	c.addi	zero,26
 62a:	2b01                	jal	b3a <_min_stack-0x14c6>
 62c:	004d                	c.addi	zero,19
 62e:	0000                	unimp
 630:	3100                	fld	fs0,32(a0)
 632:	007c                	addi	a5,sp,12
 634:	0000                	unimp
 636:	1b01                	addi	s6,s6,-32
 638:	0418                	addi	a4,sp,512
 63a:	e000                	fsw	fs0,0(s0)
 63c:	000a                	0xa
 63e:	0000                	unimp
 640:	9c01                	0x9c01
 642:	065a                	slli	a2,a2,0x16
 644:	0000                	unimp
 646:	2238                	fld	fa4,64(a2)
 648:	0004                	addi	s1,sp,0
 64a:	39e0                	fld	fs0,240(a1)
 64c:	0002                	0x2
 64e:	1700                	addi	s0,sp,928
 650:	5a01                	li	s4,-32
 652:	0305                	addi	t1,t1,1
 654:	4724                	lw	s1,72(a4)
 656:	e000                	fsw	fs0,0(s0)
 658:	0000                	unimp
 65a:	8639                	srai	a2,a2,0xe
 65c:	0004                	addi	s1,sp,0
 65e:	fa00                	fsw	fs0,48(a2)
 660:	0000                	unimp
 662:	a6e0                	fsd	fs0,200(a3)
 664:	0000                	unimp
 666:	0100                	addi	s0,sp,128
 668:	939c                	0x939c
 66a:	15000007          	0x15000007
 66e:	04a1                	addi	s1,s1,8
 670:	0000                	unimp
 672:	0429                	addi	s0,s0,10
 674:	0000                	unimp
 676:	ac15                	j	8aa <_min_stack-0x1756>
 678:	0004                	addi	s1,sp,0
 67a:	5200                	lw	s0,32(a2)
 67c:	0004                	addi	s1,sp,0
 67e:	1500                	addi	s0,sp,672
 680:	000004b7          	lui	s1,0x0
 684:	04ca                	slli	s1,s1,0x12
 686:	0000                	unimp
 688:	c221                	beqz	a2,6c8 <_min_stack-0x1938>
 68a:	0004                	addi	s1,sp,0
 68c:	0400                	addi	s0,sp,512
 68e:	0005                	c.addi	zero,1
 690:	2100                	fld	fs0,0(a0)
 692:	04cc                	addi	a1,sp,580
 694:	0000                	unimp
 696:	0546                	slli	a0,a0,0x11
 698:	0000                	unimp
 69a:	961f 0004 0000      	0x4961f
 6a0:	d724                	sw	s1,104(a4)
 6a2:	0004                	addi	s1,sp,0
 6a4:	0000                	unimp
 6a6:	0000                	unimp
 6a8:	c000                	sw	s0,0(s0)
 6aa:	0006                	0x6
 6ac:	2100                	fld	fs0,0(a0)
 6ae:	04d8                	addi	a4,sp,580
 6b0:	0000                	unimp
 6b2:	057e                	slli	a0,a0,0x1f
 6b4:	0000                	unimp
 6b6:	e321                	bnez	a4,6f6 <_min_stack-0x190a>
 6b8:	0004                	addi	s1,sp,0
 6ba:	9c00                	0x9c00
 6bc:	0005                	c.addi	zero,1
 6be:	0000                	unimp
 6c0:	f03a                	fsw	fa4,32(sp)
 6c2:	0004                	addi	s1,sp,0
 6c4:	4e00                	lw	s0,24(a2)
 6c6:	0001                	nop
 6c8:	20e0                	fld	fs0,192(s1)
 6ca:	0000                	unimp
 6cc:	0100                	addi	s0,sp,128
 6ce:	07b2                	slli	a5,a5,0xc
 6d0:	15000007          	0x15000007
 6d4:	04fc                	addi	a5,sp,588
 6d6:	0000                	unimp
 6d8:	05c5                	addi	a1,a1,17
 6da:	0000                	unimp
 6dc:	0005073b          	0x5073b
 6e0:	2600                	fld	fs0,8(a2)
 6e2:	0511                	addi	a0,a0,4
 6e4:	0000                	unimp
 6e6:	014e                	slli	sp,sp,0x13
 6e8:	e000                	fsw	fs0,0(s0)
 6ea:	0038                	addi	a4,sp,8
 6ec:	0000                	unimp
 6ee:	9801                	andi	s0,s0,-32
 6f0:	0005213b          	0x5213b
 6f4:	1600                	addi	s0,sp,800
 6f6:	019c                	addi	a5,sp,192
 6f8:	e000                	fsw	fs0,0(s0)
 6fa:	0582                	slli	a1,a1,0x0
 6fc:	0000                	unimp
 6fe:	025a0117          	auipc	sp,0x25a0
 702:	0082                	slli	ra,ra,0x0
 704:	0000                	unimp
 706:	3a00                	fld	fs0,48(a2)
 708:	04f0                	addi	a2,sp,588
 70a:	0000                	unimp
 70c:	0174                	addi	a3,sp,140
 70e:	e000                	fsw	fs0,0(s0)
 710:	0050                	addi	a2,sp,4
 712:	0000                	unimp
 714:	a901                	j	b24 <_min_stack-0x14dc>
 716:	074e                	slli	a4,a4,0x13
 718:	0000                	unimp
 71a:	fc15                	bnez	s0,656 <_min_stack-0x19aa>
 71c:	0004                	addi	s1,sp,0
 71e:	d900                	sw	s0,48(a0)
 720:	0005                	c.addi	zero,1
 722:	3b00                	fld	fs0,48(a4)
 724:	00000507          	0x507
 728:	1126                	slli	sp,sp,0x29
 72a:	0005                	c.addi	zero,1
 72c:	7400                	flw	fs0,40(s0)
 72e:	0001                	nop
 730:	68e0                	flw	fs0,84(s1)
 732:	0000                	unimp
 734:	0100                	addi	s0,sp,128
 736:	3b98                	fld	fa4,48(a5)
 738:	0521                	addi	a0,a0,8
 73a:	0000                	unimp
 73c:	7816                	flw	fa6,100(sp)
 73e:	0001                	nop
 740:	82e0                	0x82e0
 742:	0005                	c.addi	zero,1
 744:	1700                	addi	s0,sp,928
 746:	5a01                	li	s4,-32
 748:	8402                	jr	s0
 74a:	0000                	unimp
 74c:	0000                	unimp
 74e:	f03c                	fsw	fa5,96(s0)
 750:	0004                	addi	s1,sp,0
 752:	9200                	0x9200
 754:	0001                	nop
 756:	02e0                	addi	s0,sp,332
 758:	0000                	unimp
 75a:	0100                	addi	s0,sp,128
 75c:	15ae                	slli	a1,a1,0x2b
 75e:	04fc                	addi	a5,sp,588
 760:	0000                	unimp
 762:	05ed                	addi	a1,a1,27
 764:	0000                	unimp
 766:	0715                	addi	a4,a4,5
 768:	0005                	c.addi	zero,1
 76a:	0100                	addi	s0,sp,128
 76c:	0006                	0x6
 76e:	3c00                	fld	fs0,56(s0)
 770:	0511                	addi	a0,a0,4
 772:	0000                	unimp
 774:	0192                	slli	gp,gp,0x4
 776:	e000                	fsw	fs0,0(s0)
 778:	0002                	0x2
 77a:	0000                	unimp
 77c:	9801                	andi	s0,s0,-32
 77e:	2115                	jal	ba2 <_min_stack-0x145e>
 780:	0005                	c.addi	zero,1
 782:	0100                	addi	s0,sp,128
 784:	0006                	0x6
 786:	1900                	addi	s0,sp,176
 788:	0194                	addi	a3,sp,192
 78a:	e000                	fsw	fs0,0(s0)
 78c:	0582                	slli	a1,a1,0x0
 78e:	0000                	unimp
 790:	0000                	unimp
 792:	3900                	fld	fs0,48(a0)
 794:	000003d7          	pv.add.h	t2,zero,zero
 798:	01a0                	addi	s0,sp,200
 79a:	e000                	fsw	fs0,0(s0)
 79c:	00fa                	slli	ra,ra,0x1e
 79e:	0000                	unimp
 7a0:	9c01                	0x9c01
 7a2:	08fe                	slli	a7,a7,0x1f
 7a4:	0000                	unimp
 7a6:	f215                	bnez	a2,6ca <_min_stack-0x1936>
 7a8:	19000003          	lb	zero,400(zero) # 190 <_min_stack-0x1e70>
 7ac:	0006                	0x6
 7ae:	1500                	addi	s0,sp,672
 7b0:	000003fb          	lp.starti	x7,7b0 <_min_stack-0x1850>
 7b4:	066c                	addi	a1,sp,780
 7b6:	0000                	unimp
 7b8:	0415                	addi	s0,s0,5
 7ba:	0004                	addi	s1,sp,0
 7bc:	d800                	sw	s0,48(s0)
 7be:	0006                	0x6
 7c0:	1500                	addi	s0,sp,672
 7c2:	040e                	slli	s0,s0,0x3
 7c4:	0000                	unimp
 7c6:	0736                	slli	a4,a4,0xd
 7c8:	0000                	unimp
 7ca:	1915                	addi	s2,s2,-27
 7cc:	0004                	addi	s1,sp,0
 7ce:	8600                	0x8600
 7d0:	15000007          	0x15000007
 7d4:	0424                	addi	s1,sp,520
 7d6:	0000                	unimp
 7d8:	000007cb          	fnmsub.s	fa5,ft0,ft0,ft0,rne
 7dc:	2f22                	fld	ft10,8(sp)
 7de:	0004                	addi	s1,sp,0
 7e0:	0200                	addi	s0,sp,256
 7e2:	5091                	li	ra,-28
 7e4:	3a21                	jal	fc <_min_stack-0x1f04>
 7e6:	0004                	addi	s1,sp,0
 7e8:	3700                	fld	fs0,40(a4)
 7ea:	0008                	addi	a0,sp,0
 7ec:	2100                	fld	fs0,0(a0)
 7ee:	00000443          	fmadd.s	fs0,ft0,ft0,ft0,rne
 7f2:	087a                	slli	a6,a6,0x1e
 7f4:	0000                	unimp
 7f6:	4e21                	li	t3,8
 7f8:	0004                	addi	s1,sp,0
 7fa:	d300                	sw	s0,32(a4)
 7fc:	0008                	addi	a0,sp,0
 7fe:	3d00                	fld	fs0,56(a0)
 800:	0458                	addi	a4,sp,516
 802:	0000                	unimp
 804:	6121                	addi	sp,sp,64
 806:	0004                	addi	s1,sp,0
 808:	1600                	addi	s0,sp,800
 80a:	0009                	c.addi	zero,2
 80c:	1f00                	addi	s0,sp,944
 80e:	000003e7          	jalr	t2,zero
 812:	3a00                	fld	fs0,48(a2)
 814:	0000052b          	p.sb	zero,10(zero!) # a <_min_stack-0x1ff6>
 818:	01e4                	addi	s1,sp,204
 81a:	e000                	fsw	fs0,0(s0)
 81c:	0080                	addi	s0,sp,64
 81e:	0000                	unimp
 820:	df01                	beqz	a4,738 <_min_stack-0x18c8>
 822:	0830                	addi	a2,sp,24
 824:	0000                	unimp
 826:	3b15                	jal	55a <_min_stack-0x1aa6>
 828:	0005                	c.addi	zero,1
 82a:	6500                	flw	fs0,8(a0)
 82c:	0009                	c.addi	zero,2
 82e:	0000                	unimp
 830:	453a                	lw	a0,140(sp)
 832:	0005                	c.addi	zero,1
 834:	f400                	fsw	fs0,40(s0)
 836:	0001                	nop
 838:	a0e0                	fsd	fs0,192(s1)
 83a:	0000                	unimp
 83c:	0100                	addi	s0,sp,128
 83e:	65e0                	flw	fs0,76(a1)
 840:	0008                	addi	a0,sp,0
 842:	1500                	addi	s0,sp,672
 844:	0555                	addi	a0,a0,21
 846:	0000                	unimp
 848:	0978                	addi	a4,sp,156
 84a:	0000                	unimp
 84c:	a020                	fsd	fs0,64(s0)
 84e:	0000                	unimp
 850:	2100                	fld	fs0,0(a0)
 852:	055e                	slli	a0,a0,0x17
 854:	0000                	unimp
 856:	0998                	addi	a4,sp,208
 858:	0000                	unimp
 85a:	6721                	lui	a4,0x8
 85c:	0005                	c.addi	zero,1
 85e:	ab00                	fsd	fs0,16(a4)
 860:	0009                	c.addi	zero,2
 862:	0000                	unimp
 864:	2400                	fld	fs0,8(s0)
 866:	046a                	slli	s0,s0,0x1a
 868:	0000                	unimp
 86a:	00c0                	addi	s0,sp,68
 86c:	0000                	unimp
 86e:	087c                	addi	a5,sp,28
 870:	0000                	unimp
 872:	6b21                	lui	s6,0x8
 874:	0004                	addi	s1,sp,0
 876:	db00                	sw	s0,48(a4)
 878:	0009                	c.addi	zero,2
 87a:	0000                	unimp
 87c:	f03e                	fsw	fa5,32(sp)
 87e:	0004                	addi	s1,sp,0
 880:	6a00                	flw	fs0,16(a2)
 882:	0002                	0x2
 884:	0ae0                	addi	s0,sp,348
 886:	0000                	unimp
 888:	0100                	addi	s0,sp,128
 88a:	0008cbe7          	0x8cbe7
 88e:	1500                	addi	s0,sp,672
 890:	04fc                	addi	a5,sp,588
 892:	0000                	unimp
 894:	000009fb          	lp.starti	x19,894 <_min_stack-0x176c>
 898:	0715                	addi	a4,a4,5
 89a:	0005                	c.addi	zero,1
 89c:	0f00                	addi	s0,sp,912
 89e:	000a                	0xa
 8a0:	3c00                	fld	fs0,56(s0)
 8a2:	0511                	addi	a0,a0,4
 8a4:	0000                	unimp
 8a6:	026a                	slli	tp,tp,0x1a
 8a8:	e000                	fsw	fs0,0(s0)
 8aa:	000a                	0xa
 8ac:	0000                	unimp
 8ae:	9801                	andi	s0,s0,-32
 8b0:	2115                	jal	cd4 <_min_stack-0x132c>
 8b2:	0005                	c.addi	zero,1
 8b4:	2400                	fld	fs0,8(s0)
 8b6:	000a                	0xa
 8b8:	1600                	addi	s0,sp,800
 8ba:	0274                	addi	a3,sp,268
 8bc:	e000                	fsw	fs0,0(s0)
 8be:	0582                	slli	a1,a1,0x0
 8c0:	0000                	unimp
 8c2:	025a0117          	auipc	sp,0x25a0
 8c6:	2d08                	fld	fa0,24(a0)
 8c8:	0000                	unimp
 8ca:	3f00                	fld	fs0,56(a4)
 8cc:	01bc                	addi	a5,sp,200
 8ce:	e000                	fsw	fs0,0(s0)
 8d0:	065a                	slli	a2,a2,0x16
 8d2:	0000                	unimp
 8d4:	08ed                	addi	a7,a7,27
 8d6:	0000                	unimp
 8d8:	025a0117          	auipc	sp,0x25a0
 8dc:	5091                	li	ra,-28
 8de:	035b0117          	auipc	sp,0x35b0
 8e2:	175d01f3          	0x175d01f3
 8e6:	5c01                	li	s8,-32
 8e8:	5e01f303          	0x5e01f303
 8ec:	1600                	addi	s0,sp,800
 8ee:	0280                	addi	s0,sp,320
 8f0:	e000                	fsw	fs0,0(s0)
 8f2:	065a                	slli	a2,a2,0x16
 8f4:	0000                	unimp
 8f6:	025a0117          	auipc	sp,0x25a0
 8fa:	0078                	addi	a4,sp,12
 8fc:	0000                	unimp
 8fe:	1140                	addi	s0,sp,164
 900:	0005                	c.addi	zero,1
 902:	a800                	fsd	fs0,16(s0)
 904:	0002                	0x2
 906:	18e0                	addi	s0,sp,124
 908:	0000                	unimp
 90a:	0100                	addi	s0,sp,128
 90c:	159c                	addi	a5,sp,736
 90e:	0521                	addi	a0,a0,8
 910:	0000                	unimp
 912:	0a39                	addi	s4,s4,14
 914:	0000                	unimp
 916:	b616                	fsd	ft5,296(sp)
 918:	0002                	0x2
 91a:	82e0                	0x82e0
 91c:	0005                	c.addi	zero,1
 91e:	1700                	addi	s0,sp,928
 920:	5a01                	li	s4,-32
 922:	7802                	flw	fa6,32(sp)
 924:	0000                	unimp
 926:	0000                	unimp
 928:	0254                	addi	a3,sp,260
 92a:	0000                	unimp
 92c:	0004                	addi	s1,sp,0
 92e:	0378                	addi	a4,sp,396
 930:	0000                	unimp
 932:	0104                	addi	s1,sp,128
 934:	0000012b          	p.sb	zero,2(zero!) # 2 <_min_stack-0x1ffe>
 938:	1c0c                	addi	a1,sp,560
 93a:	e6000003          	lb	zero,-416(zero) # fffffe60 <pulp__FC+0xfffffe61>
 93e:	0001                	nop
 940:	2000                	fld	fs0,0(s0)
 942:	0001                	nop
 944:	0000                	unimp
 946:	0000                	unimp
 948:	c400                	sw	s0,8(s0)
 94a:	0005                	c.addi	zero,1
 94c:	0200                	addi	s0,sp,256
 94e:	0601                	addi	a2,a2,0
 950:	010d                	addi	sp,sp,3
 952:	0000                	unimp
 954:	0202                	slli	tp,tp,0x0
 956:	4405                	li	s0,1
 958:	0000                	unimp
 95a:	0200                	addi	s0,sp,256
 95c:	0504                	addi	s1,sp,640
 95e:	0094                	addi	a3,sp,64
 960:	0000                	unimp
 962:	0802                	slli	a6,a6,0x0
 964:	8f05                	sub	a4,a4,s1
 966:	0000                	unimp
 968:	0200                	addi	s0,sp,256
 96a:	0801                	addi	a6,a6,0
 96c:	0000010b          	p.lb	sp,0(zero!) # 0 <_min_stack-0x2000>
 970:	0202                	slli	tp,tp,0x0
 972:	0001c907          	0x1c907
 976:	0300                	addi	s0,sp,384
 978:	02e8                	addi	a0,sp,332
 97a:	0000                	unimp
 97c:	3404                	fld	fs1,40(s0)
 97e:	005f 0000 4f04      	0x4f040000005f
 984:	0000                	unimp
 986:	0200                	addi	s0,sp,256
 988:	0704                	addi	s1,sp,896
 98a:	019c                	addi	a5,sp,192
 98c:	0000                	unimp
 98e:	0802                	slli	a6,a6,0x0
 990:	00019707          	0x19707
 994:	0500                	addi	s0,sp,640
 996:	0504                	addi	s1,sp,640
 998:	6e69                	lui	t3,0x1a
 99a:	0074                	addi	a3,sp,12
 99c:	6d06                	flw	fs10,64(sp)
 99e:	0000                	unimp
 9a0:	0200                	addi	s0,sp,256
 9a2:	0704                	addi	s1,sp,896
 9a4:	01a1                	addi	gp,gp,8
 9a6:	0000                	unimp
 9a8:	0002c107          	0x2c107
 9ac:	0200                	addi	s0,sp,256
 9ae:	5a06                	lw	s4,96(sp)
 9b0:	0000                	unimp
 9b2:	4800                	lw	s0,16(s0)
 9b4:	0810                	addi	a2,sp,16
 9b6:	005a                	0x5a
 9b8:	0000                	unimp
 9ba:	009e                	slli	ra,ra,0x7
 9bc:	0000                	unimp
 9be:	7909                	lui	s2,0xfffe2
 9c0:	0000                	unimp
 9c2:	4700                	lw	s0,8(a4)
 9c4:	0010                	addi	a2,sp,0
 9c6:	8d04                	0x8d04
 9c8:	0000                	unimp
 9ca:	0a00                	addi	s0,sp,272
 9cc:	02ac                	addi	a1,sp,328
 9ce:	0000                	unimp
 9d0:	0702                	slli	a4,a4,0x0
 9d2:	009e                	slli	ra,ra,0x7
 9d4:	0000                	unimp
 9d6:	0305                	addi	t1,t1,1
 9d8:	05fc                	addi	a5,sp,716
 9da:	e000                	fsw	fs0,0(s0)
 9dc:	1002                	0x1002
 9de:	ff04                	fsw	fs1,56(a4)
 9e0:	0000                	unimp
 9e2:	0b00                	addi	s0,sp,400
 9e4:	02f1                	addi	t0,t0,28
 9e6:	0000                	unimp
 9e8:	1301                	addi	t1,t1,-32
 9ea:	006d                	c.addi	zero,27
 9ec:	0000                	unimp
 9ee:	053a                	slli	a0,a0,0xe
 9f0:	e000                	fsw	fs0,0(s0)
 9f2:	00c0                	addi	s0,sp,68
 9f4:	0000                	unimp
 9f6:	9c01                	0x9c01
 9f8:	0228                	addi	a0,sp,264
 9fa:	0000                	unimp
 9fc:	070c                	addi	a1,sp,896
 9fe:	01000003          	lb	zero,16(zero) # 10 <_min_stack-0x1ff0>
 a02:	00006d13          	ori	s10,zero,0
 a06:	6200                	flw	fs0,0(a2)
 a08:	000a                	0xa
 a0a:	0c00                	addi	s0,sp,528
 a0c:	030c                	addi	a1,sp,384
 a0e:	0000                	unimp
 a10:	1301                	addi	t1,t1,-32
 a12:	0228                	addi	a0,sp,264
 a14:	0000                	unimp
 a16:	00000a83          	lb	s5,0(zero) # 0 <_min_stack-0x2000>
 a1a:	dd0d                	beqz	a0,954 <_min_stack-0x16ac>
 a1c:	0002                	0x2
 a1e:	0100                	addi	s0,sp,128
 a20:	3b15                	jal	754 <_min_stack-0x18ac>
 a22:	0002                	0x2
 a24:	9400                	0x9400
 a26:	8080                	0x8080
 a28:	0e78                	addi	a4,sp,796
 a2a:	0311                	addi	t1,t1,4
 a2c:	0000                	unimp
 a2e:	1601                	addi	a2,a2,-32
 a30:	0000023b          	0x23b
 a34:	0aa4                	addi	s1,sp,344
 a36:	0000                	unimp
 a38:	f60e                	fsw	ft3,44(sp)
 a3a:	0002                	0x2
 a3c:	0100                	addi	s0,sp,128
 a3e:	6d18                	flw	fa4,24(a0)
 a40:	0000                	unimp
 a42:	0100                	addi	s0,sp,128
 a44:	0f00000b          	p.lb	zero,240(zero!) # f0 <_min_stack-0x1f10>
 a48:	0069                	c.addi	zero,26
 a4a:	1901                	addi	s2,s2,-32
 a4c:	006d                	c.addi	zero,27
 a4e:	0000                	unimp
 a50:	00000b2b          	p.sb	zero,22(zero!) # 16 <_min_stack-0x1fea>
 a54:	7078650f          	0x7078650f
 a58:	0100                	addi	s0,sp,128
 a5a:	6d1a                	flw	fs10,132(sp)
 a5c:	0000                	unimp
 a5e:	3f00                	fld	fs0,56(a4)
 a60:	0e00000b          	p.lb	zero,224(zero!) # e0 <_min_stack-0x1f20>
 a64:	0225                	addi	tp,tp,9
 a66:	0000                	unimp
 a68:	1a01                	addi	s4,s4,-32
 a6a:	006d                	c.addi	zero,27
 a6c:	0000                	unimp
 a6e:	00000b8b          	p.lb	s7,0(zero!) # 0 <_min_stack-0x2000>
 a72:	d310                	sw	a2,32(a4)
 a74:	0002                	0x2
 a76:	0100                	addi	s0,sp,128
 a78:	6d20                	flw	fs0,88(a0)
 a7a:	0000                	unimp
 a7c:	0000                	unimp
 a7e:	01c2                	slli	gp,gp,0x10
 a80:	1000                	addi	s0,sp,32
 a82:	02fd                	addi	t0,t0,31
 a84:	0000                	unimp
 a86:	2101                	jal	e86 <_min_stack-0x117a>
 a88:	006d                	c.addi	zero,27
 a8a:	0000                	unimp
 a8c:	f080                	fsw	fs0,32(s1)
 a8e:	02fa                	slli	t0,t0,0x1e
 a90:	6011                	0x6011
 a92:	0005                	c.addi	zero,1
 a94:	41e0                	lw	s0,68(a1)
 a96:	0002                	0x2
 a98:	8000                	0x8000
 a9a:	0001                	nop
 a9c:	1200                	addi	s0,sp,288
 a9e:	5a01                	li	s4,-32
 aa0:	3001                	jal	2a0 <_min_stack-0x1d60>
 aa2:	0112                	slli	sp,sp,0x4
 aa4:	004b015b          	p.mac	sp,s6,tp,zero
 aa8:	8e11                	sub	a2,a2,a2
 aaa:	0005                	c.addi	zero,1
 aac:	4ce0                	lw	s0,92(s1)
 aae:	0002                	0x2
 ab0:	9a00                	0x9a00
 ab2:	0001                	nop
 ab4:	1200                	addi	s0,sp,288
 ab6:	5a01                	li	s4,-32
 ab8:	8502                	jr	a0
 aba:	1200                	addi	s0,sp,288
 abc:	5b01                	li	s6,-32
 abe:	7802                	flw	fa6,32(sp)
 ac0:	007c                	addi	a5,sp,12
 ac2:	a011                	j	ac6 <_min_stack-0x153a>
 ac4:	0005                	c.addi	zero,1
 ac6:	4ce0                	lw	s0,92(s1)
 ac8:	0002                	0x2
 aca:	b400                	fsd	fs0,40(s0)
 acc:	0001                	nop
 ace:	1200                	addi	s0,sp,288
 ad0:	5a01                	li	s4,-32
 ad2:	8502                	jr	a0
 ad4:	1200                	addi	s0,sp,288
 ad6:	5b01                	li	s6,-32
 ad8:	7802                	flw	fa6,32(sp)
 ada:	0000                	unimp
 adc:	be11                	j	5f0 <_min_stack-0x1a10>
 ade:	0005                	c.addi	zero,1
 ae0:	4ce0                	lw	s0,92(s1)
 ae2:	0002                	0x2
 ae4:	da00                	sw	s0,48(a2)
 ae6:	0001                	nop
 ae8:	1200                	addi	s0,sp,288
 aea:	5a01                	li	s4,-32
 aec:	0305                	addi	t1,t1,1
 aee:	47a4                	lw	s1,72(a5)
 af0:	e000                	fsw	fs0,0(s0)
 af2:	0112                	slli	sp,sp,0x4
 af4:	0078055b          	p.mac	a0,a6,t2,zero
 af8:	0079                	c.addi	zero,30
 afa:	121c                	addi	a5,sp,288
 afc:	5c01                	li	s8,-32
 afe:	7802                	flw	fa6,32(sp)
 b00:	0000                	unimp
 b02:	cc11                	beqz	s0,b1e <_min_stack-0x14e2>
 b04:	0005                	c.addi	zero,1
 b06:	4ce0                	lw	s0,92(s1)
 b08:	0002                	0x2
 b0a:	fd00                	fsw	fs0,56(a0)
 b0c:	0001                	nop
 b0e:	1200                	addi	s0,sp,288
 b10:	5a01                	li	s4,-32
 b12:	0305                	addi	t1,t1,1
 b14:	47bc                	lw	a5,72(a5)
 b16:	e000                	fsw	fs0,0(s0)
 b18:	0112                	slli	sp,sp,0x4
 b1a:	0079025b          	p.mac	tp,s2,t2,zero
 b1e:	0112                	slli	sp,sp,0x4
 b20:	025c                	addi	a5,sp,260
 b22:	0078                	addi	a4,sp,12
 b24:	1100                	addi	s0,sp,160
 b26:	05ec                	addi	a1,sp,716
 b28:	e000                	fsw	fs0,0(s0)
 b2a:	024c                	addi	a1,sp,260
 b2c:	0000                	unimp
 b2e:	0211                	addi	tp,tp,4
 b30:	0000                	unimp
 b32:	0112                	slli	sp,sp,0x4
 b34:	025a                	slli	tp,tp,0x16
 b36:	0084                	addi	s1,sp,64
 b38:	1300                	addi	s0,sp,416
 b3a:	05f6                	slli	a1,a1,0x1d
 b3c:	e000                	fsw	fs0,0(s0)
 b3e:	024c                	addi	a1,sp,260
 b40:	0000                	unimp
 b42:	0112                	slli	sp,sp,0x4
 b44:	025a                	slli	tp,tp,0x16
 b46:	0084                	addi	s1,sp,64
 b48:	0112                	slli	sp,sp,0x4
 b4a:	0078025b          	p.mac	tp,a6,t2,zero
 b4e:	0000                	unimp
 b50:	0414                	addi	a3,sp,512
 b52:	022e                	slli	tp,tp,0xb
 b54:	0000                	unimp
 b56:	0414                	addi	a3,sp,512
 b58:	0234                	addi	a3,sp,264
 b5a:	0000                	unimp
 b5c:	0102                	slli	sp,sp,0x0
 b5e:	1408                	addi	a0,sp,544
 b60:	0001                	nop
 b62:	1400                	addi	s0,sp,544
 b64:	7404                	flw	fs1,40(s0)
 b66:	0000                	unimp
 b68:	1500                	addi	s0,sp,672
 b6a:	0064                	addi	s1,sp,12
 b6c:	0000                	unimp
 b6e:	0064                	addi	s1,sp,12
 b70:	0000                	unimp
 b72:	cd153b03          	0xcd153b03
 b76:	0000                	unimp
 b78:	cd00                	sw	s0,24(a0)
 b7a:	0000                	unimp
 b7c:	0300                	addi	s0,sp,384
 b7e:	004d                	c.addi	zero,19
 b80:	009f 0000 0002      	0x20000009f
 b86:	0492                	slli	s1,s1,0x4
 b88:	0000                	unimp
 b8a:	0104                	addi	s1,sp,128
 b8c:	0000077b          	lp.starti	x14,b8c <_min_stack-0x1474>
 b90:	0130                	addi	a2,sp,136
 b92:	0000                	unimp
 b94:	7263732f          	0x7263732f
 b98:	7461                	lui	s0,0xffff8
 b9a:	6d2f6863          	bltu	t5,s2,126a <_min_stack-0xd96>
 b9e:	6e616963          	bltu	sp,t1,1290 <_min_stack-0xd70>
 ba2:	2f69                	jal	133c <_min_stack-0xcc4>
 ba4:	6e65706f          	j	5828a <tohost+0x38282>
 ba8:	6974                	flw	fa3,84(a0)
 baa:	6174                	flw	fa3,68(a0)
 bac:	2f6e                	fld	ft10,216(sp)
 bae:	742f7773          	csrrci	a4,0x742,30
 bb2:	7365                	lui	t1,0xffff9
 bb4:	7374                	flw	fa3,100(a4)
 bb6:	65706f2f          	0x65706f2f
 bba:	746e                	flw	fs0,248(sp)
 bbc:	7469                	lui	s0,0xffffa
 bbe:	6e61                	lui	t3,0x18
 bc0:	6d6f632f          	0x6d6f632f
 bc4:	6f6d                	lui	t5,0x1b
 bc6:	2f6e                	fld	ft10,216(sp)
 bc8:	30747263          	bleu	t2,s0,ecc <_min_stack-0x1134>
 bcc:	532e                	lw	t1,232(sp)
 bce:	2f00                	fld	fs0,24(a4)
 bd0:	61726373          	csrrsi	t1,0x617,4
 bd4:	6374                	flw	fa3,68(a4)
 bd6:	2f68                	fld	fa0,216(a4)
 bd8:	636d                	lui	t1,0x1b
 bda:	6169                	addi	sp,sp,208
 bdc:	696e                	flw	fs2,216(sp)
 bde:	65706f2f          	0x65706f2f
 be2:	746e                	flw	fs0,248(sp)
 be4:	7469                	lui	s0,0xffffa
 be6:	6e61                	lui	t3,0x18
 be8:	2f77732f          	0x2f77732f
 bec:	6574                	flw	fa3,76(a0)
 bee:	2f737473          	csrrci	s0,0x2f7,6
 bf2:	6e65706f          	j	582d8 <tohost+0x382d0>
 bf6:	6974                	flw	fa3,84(a0)
 bf8:	6174                	flw	fa3,68(a0)
 bfa:	2f6e                	fld	ft10,216(sp)
 bfc:	7270                	flw	fa2,100(a2)
 bfe:	6265                	lui	tp,0x19
 c00:	5f746f6f          	jal	t5,479f6 <tohost+0x279ee>
 c04:	65646f63          	bltu	s0,s6,1262 <_min_stack-0xd9e>
 c08:	685f 616d 5f63      	0x5f63616d685f
 c0e:	6572                	flw	fa0,28(sp)
 c10:	6461                	lui	s0,0x18
 c12:	4700                	lw	s0,8(a4)
 c14:	554e                	lw	a0,240(sp)
 c16:	4120                	lw	s0,64(a0)
 c18:	2e322053          	0x2e322053
 c1c:	3832                	fld	fa6,296(sp)
 c1e:	302e                	fld	ft0,232(sp)
 c20:	0100                	addi	s0,sp,128
 c22:	80 00 00 00 00          	Address 0x0000000000000c22 is out of bounds.


Disassembly of section .debug_abbrev:

00000000 <.debug_abbrev>:
   0:	1101                	addi	sp,sp,-32
   2:	2501                	jal	602 <_min_stack-0x19fe>
   4:	130e                	slli	t1,t1,0x23
   6:	1b0e030b          	p.lb	t1,432(t3!) # 181b0 <_stack_len+0x101b0>
   a:	110e                	slli	sp,sp,0x23
   c:	1201                	addi	tp,tp,-32
   e:	1006                	0x1006
  10:	02000017          	auipc	zero,0x2000
  14:	0016                	0x16
  16:	0b3a0e03          	lb	t3,179(s4) # ffffa0b3 <pulp__FC+0xffffa0b4>
  1a:	13490b3b          	0x13490b3b
  1e:	0000                	unimp
  20:	0b000f03          	lb	t5,176(zero) # b0 <_min_stack-0x1f50>
  24:	000e030b          	p.lb	t1,0(t3!)
  28:	0400                	addi	s0,sp,512
  2a:	0024                	addi	s1,sp,8
  2c:	0b3e0b0b          	p.lb	s6,179(t3!)
  30:	00000803          	lb	a6,0(zero) # 0 <_min_stack-0x2000>
  34:	3505                	jal	fffffe54 <pulp__FC+0xfffffe55>
  36:	4900                	lw	s0,16(a0)
  38:	06000013          	li	zero,96
  3c:	0024                	addi	s1,sp,8
  3e:	0b3e0b0b          	p.lb	s6,179(t3!)
  42:	00000e03          	lb	t3,0(zero) # 0 <_min_stack-0x2000>
  46:	49010107          	0x49010107
  4a:	00130113          	addi	sp,t1,1 # 1b001 <_stack_len+0x13001>
  4e:	0800                	addi	s0,sp,16
  50:	0021                	c.addi	zero,8
  52:	1349                	addi	t1,t1,-14
  54:	00000b2f          	0xb2f
  58:	2609                	jal	35a <_min_stack-0x1ca6>
  5a:	4900                	lw	s0,16(a0)
  5c:	0a000013          	li	zero,160
  60:	0034                	addi	a3,sp,8
  62:	0b3a0e03          	lb	t3,179(s4)
  66:	13490b3b          	0x13490b3b
  6a:	1802193f 2e0b0000 	0x2e0b00001802193f
  72:	3f01                	jal	ffffff82 <pulp__FC+0xffffff83>
  74:	0319                	addi	t1,t1,6
  76:	3a0e                	fld	fs4,224(sp)
  78:	27053b0b          	0x27053b0b
  7c:	1119                	addi	sp,sp,-26
  7e:	1201                	addi	tp,tp,-32
  80:	4006                	0x4006
  82:	9718                	0x9718
  84:	1942                	slli	s2,s2,0x30
  86:	1301                	addi	t1,t1,-32
  88:	0000                	unimp
  8a:	340c                	fld	fa1,40(s0)
  8c:	0300                	addi	s0,sp,384
  8e:	3a0e                	fld	fs4,224(sp)
  90:	49053b0b          	0x49053b0b
  94:	000b1c13          	slli	s8,s6,0x0
  98:	0d00                	addi	s0,sp,656
  9a:	0034                	addi	a3,sp,8
  9c:	0b3a0803          	lb	a6,179(s4)
  a0:	1349053b          	0x1349053b
  a4:	1702                	slli	a4,a4,0x20
  a6:	0000                	unimp
  a8:	340e                	fld	fs0,224(sp)
  aa:	0300                	addi	s0,sp,384
  ac:	3a0e                	fld	fs4,224(sp)
  ae:	49053b0b          	0x49053b0b
  b2:	00170213          	addi	tp,a4,1 # 8001 <_stack_len+0x1>
  b6:	0f00                	addi	s0,sp,912
  b8:	0034                	addi	a3,sp,8
  ba:	0b3a0e03          	lb	t3,179(s4)
  be:	1349053b          	0x1349053b
  c2:	061c                	addi	a5,sp,768
  c4:	0000                	unimp
  c6:	3410                	fld	fa2,40(s0)
  c8:	0300                	addi	s0,sp,384
  ca:	3a0e                	fld	fs4,224(sp)
  cc:	49053b0b          	0x49053b0b
  d0:	000d1c13          	slli	s8,s10,0x0
  d4:	1100                	addi	s0,sp,160
  d6:	0b0b000f          	0xb0b000f
  da:	1349                	addi	t1,t1,-14
  dc:	0000                	unimp
  de:	2e12                	fld	ft8,256(sp)
  e0:	3f01                	jal	fffffff0 <pulp__FC+0xfffffff1>
  e2:	0319                	addi	t1,t1,6
  e4:	3a0e                	fld	fs4,224(sp)
  e6:	27053b0b          	0x27053b0b
  ea:	4919                	li	s2,6
  ec:	12011113          	0x12011113
  f0:	4006                	0x4006
  f2:	9718                	0x9718
  f4:	1942                	slli	s2,s2,0x30
  f6:	1301                	addi	t1,t1,-32
  f8:	0000                	unimp
  fa:	03000513          	li	a0,48
  fe:	3a08                	fld	fa0,48(a2)
 100:	49053b0b          	0x49053b0b
 104:	00170213          	addi	tp,a4,1
 108:	1400                	addi	s0,sp,544
 10a:	011d                	addi	sp,sp,7
 10c:	1331                	addi	t1,t1,-20
 10e:	0111                	addi	sp,sp,4
 110:	0612                	slli	a2,a2,0x4
 112:	0b58                	addi	a4,sp,404
 114:	0559                	addi	a0,a0,22
 116:	1301                	addi	t1,t1,-32
 118:	0000                	unimp
 11a:	0515                	addi	a0,a0,5
 11c:	3100                	fld	fs0,32(a0)
 11e:	00170213          	addi	tp,a4,1
 122:	1600                	addi	s0,sp,800
 124:	8289                	srli	a3,a3,0x2
 126:	0101                	addi	sp,sp,0
 128:	0111                	addi	sp,sp,4
 12a:	1331                	addi	t1,t1,-20
 12c:	0000                	unimp
 12e:	01828a17          	auipc	s4,0x1828
 132:	0200                	addi	s0,sp,256
 134:	9118                	0x9118
 136:	1842                	slli	a6,a6,0x30
 138:	0000                	unimp
 13a:	1d18                	addi	a4,sp,688
 13c:	3101                	jal	fffffd3c <pulp__FC+0xfffffd3d>
 13e:	12011113          	0x12011113
 142:	5806                	lw	a6,96(sp)
 144:	0005590b          	p.lhu	s2,0(a0!) # 3000 <_min_stack+0x1000>
 148:	1900                	addi	s0,sp,176
 14a:	8289                	srli	a3,a3,0x2
 14c:	0001                	nop
 14e:	0111                	addi	sp,sp,4
 150:	1331                	addi	t1,t1,-20
 152:	0000                	unimp
 154:	051a                	slli	a0,a0,0x6
 156:	0300                	addi	s0,sp,384
 158:	3a0e                	fld	fs4,224(sp)
 15a:	49053b0b          	0x49053b0b
 15e:	00170213          	addi	tp,a4,1
 162:	1b00                	addi	s0,sp,432
 164:	0018                	addi	a4,sp,0
 166:	0000                	unimp
 168:	341c                	fld	fa5,40(s0)
 16a:	0300                	addi	s0,sp,384
 16c:	3a08                	fld	fa0,48(a2)
 16e:	49053b0b          	0x49053b0b
 172:	1d000013          	li	zero,464
 176:	0034                	addi	a3,sp,8
 178:	0b3a0803          	lb	a6,179(s4) # 18281e1 <tohost+0x18081d9>
 17c:	1349053b          	0x1349053b
 180:	1802                	slli	a6,a6,0x20
 182:	0000                	unimp
 184:	1d1e                	slli	s10,s10,0x27
 186:	3101                	jal	fffffd86 <pulp__FC+0xfffffd87>
 188:	55015213          	0x55015213
 18c:	590b5817          	auipc	a6,0x590b5
 190:	0005                	c.addi	zero,1
 192:	1f00                	addi	s0,sp,944
 194:	0005                	c.addi	zero,1
 196:	1331                	addi	t1,t1,-20
 198:	0b1c                	addi	a5,sp,400
 19a:	0000                	unimp
 19c:	0b20                	addi	s0,sp,408
 19e:	5501                	li	a0,-32
 1a0:	21000017          	auipc	zero,0x21000
 1a4:	0034                	addi	a3,sp,8
 1a6:	1331                	addi	t1,t1,-20
 1a8:	1702                	slli	a4,a4,0x20
 1aa:	0000                	unimp
 1ac:	3422                	fld	fs0,40(sp)
 1ae:	3100                	fld	fs0,32(a0)
 1b0:	00180213          	addi	tp,a6,1 # 590b518d <tohost+0x59095185>
 1b4:	2300                	fld	fs0,0(a4)
 1b6:	000a                	0xa
 1b8:	1331                	addi	t1,t1,-20
 1ba:	0111                	addi	sp,sp,4
 1bc:	0000                	unimp
 1be:	0b24                	addi	s1,sp,408
 1c0:	3101                	jal	fffffdc0 <pulp__FC+0xfffffdc1>
 1c2:	01175513          	srli	a0,a4,0x11
 1c6:	25000013          	li	zero,592
 1ca:	011d                	addi	sp,sp,7
 1cc:	1331                	addi	t1,t1,-20
 1ce:	0152                	slli	sp,sp,0x14
 1d0:	1755                	addi	a4,a4,-11
 1d2:	0b58                	addi	a4,sp,404
 1d4:	0559                	addi	a0,a0,22
 1d6:	1301                	addi	t1,t1,-32
 1d8:	0000                	unimp
 1da:	1d26                	slli	s10,s10,0x29
 1dc:	3101                	jal	fffffddc <pulp__FC+0xfffffddd>
 1de:	55015213          	0x55015213
 1e2:	590b5817          	auipc	a6,0x590b5
 1e6:	2700000b          	p.lb	zero,624(zero!) # 270 <_min_stack-0x1d90>
 1ea:	012e                	slli	sp,sp,0xb
 1ec:	0b3a0e03          	lb	t3,179(s4)
 1f0:	19270b3b          	0x19270b3b
 1f4:	1349                	addi	t1,t1,-14
 1f6:	0b20                	addi	s0,sp,408
 1f8:	1301                	addi	t1,t1,-32
 1fa:	0000                	unimp
 1fc:	0528                	addi	a0,sp,648
 1fe:	0300                	addi	s0,sp,384
 200:	3a08                	fld	fa0,48(a2)
 202:	490b3b0b          	0x490b3b0b
 206:	29000013          	li	zero,656
 20a:	0005                	c.addi	zero,1
 20c:	0b3a0e03          	lb	t3,179(s4)
 210:	13490b3b          	0x13490b3b
 214:	0000                	unimp
 216:	342a                	fld	fs0,168(sp)
 218:	0300                	addi	s0,sp,384
 21a:	3a0e                	fld	fs4,224(sp)
 21c:	490b3b0b          	0x490b3b0b
 220:	2b000013          	li	zero,688
 224:	0034                	addi	a3,sp,8
 226:	0b3a0803          	lb	a6,179(s4)
 22a:	13490b3b          	0x13490b3b
 22e:	0000                	unimp
 230:	0a2c                	addi	a1,sp,280
 232:	0300                	addi	s0,sp,384
 234:	3a08                	fld	fa0,48(a2)
 236:	00053b0b          	0x53b0b
 23a:	2d00                	fld	fs0,24(a0)
 23c:	0000010b          	p.lb	sp,0(zero!) # 0 <_min_stack-0x2000>
 240:	2e2e                	fld	ft8,200(sp)
 242:	0301                	addi	t1,t1,0
 244:	3a0e                	fld	fs4,224(sp)
 246:	270b3b0b          	0x270b3b0b
 24a:	2019                	jal	250 <_min_stack-0x1db0>
 24c:	0013010b          	p.lb	sp,1(t1!)
 250:	2f00                	fld	fs0,24(a4)
 252:	012e                	slli	sp,sp,0xb
 254:	0e03193f 0b3b0b3a 	0xb3b0b3a0e03193f
 25c:	13491927          	0x13491927
 260:	0b20                	addi	s0,sp,408
 262:	1301                	addi	t1,t1,-32
 264:	0000                	unimp
 266:	2e30                	fld	fa2,88(a2)
 268:	3f00                	fld	fs0,56(a4)
 26a:	0319                	addi	t1,t1,6
 26c:	3a0e                	fld	fs4,224(sp)
 26e:	270b3b0b          	0x270b3b0b
 272:	1119                	addi	sp,sp,-26
 274:	1201                	addi	tp,tp,-32
 276:	4006                	0x4006
 278:	9718                	0x9718
 27a:	1942                	slli	s2,s2,0x30
 27c:	0000                	unimp
 27e:	2e31                	jal	59a <_min_stack-0x1a66>
 280:	3f01                	jal	190 <_min_stack-0x1e70>
 282:	0319                	addi	t1,t1,6
 284:	3a0e                	fld	fs4,224(sp)
 286:	270b3b0b          	0x270b3b0b
 28a:	1119                	addi	sp,sp,-26
 28c:	1201                	addi	tp,tp,-32
 28e:	4006                	0x4006
 290:	9718                	0x9718
 292:	1942                	slli	s2,s2,0x30
 294:	1301                	addi	t1,t1,-32
 296:	0000                	unimp
 298:	0532                	slli	a0,a0,0xc
 29a:	0300                	addi	s0,sp,384
 29c:	3a08                	fld	fa0,48(a2)
 29e:	490b3b0b          	0x490b3b0b
 2a2:	00180213          	addi	tp,a6,1 # 590b51e3 <tohost+0x590951db>
 2a6:	3300                	fld	fs0,32(a4)
 2a8:	002e                	0x2e
 2aa:	0e03193f 0b3b0b3a 	0xb3b0b3a0e03193f
 2b2:	1349                	addi	t1,t1,-14
 2b4:	0111                	addi	sp,sp,4
 2b6:	0612                	slli	a2,a2,0x4
 2b8:	1840                	addi	s0,sp,52
 2ba:	00194297          	auipc	t0,0x194
 2be:	3400                	fld	fs0,40(s0)
 2c0:	0005                	c.addi	zero,1
 2c2:	0b3a0803          	lb	a6,179(s4)
 2c6:	13490b3b          	0x13490b3b
 2ca:	1702                	slli	a4,a4,0x20
 2cc:	0000                	unimp
 2ce:	3435                	jal	fffffcfa <pulp__FC+0xfffffcfb>
 2d0:	0300                	addi	s0,sp,384
 2d2:	3a08                	fld	fa0,48(a2)
 2d4:	490b3b0b          	0x490b3b0b
 2d8:	000b1c13          	slli	s8,s6,0x0
 2dc:	3600                	fld	fs0,40(a2)
 2de:	0005                	c.addi	zero,1
 2e0:	0b3a0e03          	lb	t3,179(s4)
 2e4:	13490b3b          	0x13490b3b
 2e8:	1802                	slli	a6,a6,0x20
 2ea:	0000                	unimp
 2ec:	03000537          	lui	a0,0x3000
 2f0:	3a0e                	fld	fs4,224(sp)
 2f2:	490b3b0b          	0x490b3b0b
 2f6:	00170213          	addi	tp,a4,1
 2fa:	3800                	fld	fs0,48(s0)
 2fc:	8289                	srli	a3,a3,0x2
 2fe:	0101                	addi	sp,sp,0
 300:	0111                	addi	sp,sp,4
 302:	4295                	li	t0,5
 304:	3119                	jal	ffffff0a <pulp__FC+0xffffff0b>
 306:	39000013          	li	zero,912
 30a:	012e                	slli	sp,sp,0xb
 30c:	1331                	addi	t1,t1,-20
 30e:	0111                	addi	sp,sp,4
 310:	0612                	slli	a2,a2,0x4
 312:	1840                	addi	s0,sp,52
 314:	01194297          	auipc	t0,0x1194
 318:	3a000013          	li	zero,928
 31c:	011d                	addi	sp,sp,7
 31e:	1331                	addi	t1,t1,-20
 320:	0152                	slli	sp,sp,0x14
 322:	1755                	addi	a4,a4,-11
 324:	0b58                	addi	a4,sp,404
 326:	0b59                	addi	s6,s6,22
 328:	1301                	addi	t1,t1,-32
 32a:	0000                	unimp
 32c:	3100053b          	0x3100053b
 330:	3c000013          	li	zero,960
 334:	011d                	addi	sp,sp,7
 336:	1331                	addi	t1,t1,-20
 338:	0111                	addi	sp,sp,4
 33a:	0612                	slli	a2,a2,0x4
 33c:	0b58                	addi	a4,sp,404
 33e:	0b59                	addi	s6,s6,22
 340:	0000                	unimp
 342:	343d                	jal	fffffd70 <pulp__FC+0xfffffd71>
 344:	3100                	fld	fs0,32(a0)
 346:	3e000013          	li	zero,992
 34a:	011d                	addi	sp,sp,7
 34c:	1331                	addi	t1,t1,-20
 34e:	0111                	addi	sp,sp,4
 350:	0612                	slli	a2,a2,0x4
 352:	0b58                	addi	a4,sp,404
 354:	0b59                	addi	s6,s6,22
 356:	1301                	addi	t1,t1,-32
 358:	0000                	unimp
 35a:	0182893f 31011101 	0x310111010182893f
 362:	00130113          	addi	sp,t1,1
 366:	4000                	lw	s0,0(s0)
 368:	012e                	slli	sp,sp,0xb
 36a:	1331                	addi	t1,t1,-20
 36c:	0111                	addi	sp,sp,4
 36e:	0612                	slli	a2,a2,0x4
 370:	1840                	addi	s0,sp,52
 372:	00194297          	auipc	t0,0x194
 376:	0000                	unimp
 378:	1101                	addi	sp,sp,-32
 37a:	2501                	jal	97a <_min_stack-0x1686>
 37c:	130e                	slli	t1,t1,0x23
 37e:	1b0e030b          	p.lb	t1,432(t3!)
 382:	550e                	lw	a0,224(sp)
 384:	10011117          	auipc	sp,0x10011
 388:	02000017          	auipc	zero,0x2000
 38c:	0024                	addi	s1,sp,8
 38e:	0b3e0b0b          	p.lb	s6,179(t3!)
 392:	00000e03          	lb	t3,0(zero) # 0 <_min_stack-0x2000>
 396:	03001603          	lh	a2,48(zero) # 30 <_min_stack-0x1fd0>
 39a:	3a0e                	fld	fs4,224(sp)
 39c:	490b3b0b          	0x490b3b0b
 3a0:	04000013          	li	zero,64
 3a4:	0026                	0x26
 3a6:	1349                	addi	t1,t1,-14
 3a8:	0000                	unimp
 3aa:	2405                	jal	5ca <_min_stack-0x1a36>
 3ac:	0b00                	addi	s0,sp,400
 3ae:	030b3e0b          	0x30b3e0b
 3b2:	0008                	addi	a0,sp,0
 3b4:	0600                	addi	s0,sp,768
 3b6:	0035                	c.addi	zero,13
 3b8:	1349                	addi	t1,t1,-14
 3ba:	0000                	unimp
 3bc:	03003407          	fld	fs0,48(zero) # 30 <_min_stack-0x1fd0>
 3c0:	3a0e                	fld	fs4,224(sp)
 3c2:	490b3b0b          	0x490b3b0b
 3c6:	00051c13          	slli	s8,a0,0x0
 3ca:	0800                	addi	s0,sp,16
 3cc:	0101                	addi	sp,sp,0
 3ce:	1349                	addi	t1,t1,-14
 3d0:	1301                	addi	t1,t1,-32
 3d2:	0000                	unimp
 3d4:	2109                	jal	7d6 <_min_stack-0x182a>
 3d6:	4900                	lw	s0,16(a0)
 3d8:	00052f13          	slti	t5,a0,0
 3dc:	0a00                	addi	s0,sp,272
 3de:	0034                	addi	a3,sp,8
 3e0:	0b3a0e03          	lb	t3,179(s4)
 3e4:	13490b3b          	0x13490b3b
 3e8:	1802                	slli	a6,a6,0x20
 3ea:	0000                	unimp
 3ec:	3f012e0b          	p.lw	t3,1008(sp!) # 10011774 <tohost+0xfff176c>
 3f0:	0319                	addi	t1,t1,6
 3f2:	3a0e                	fld	fs4,224(sp)
 3f4:	270b3b0b          	0x270b3b0b
 3f8:	4919                	li	s2,6
 3fa:	12011113          	0x12011113
 3fe:	4006                	0x4006
 400:	9718                	0x9718
 402:	1942                	slli	s2,s2,0x30
 404:	1301                	addi	t1,t1,-32
 406:	0000                	unimp
 408:	050c                	addi	a1,sp,640
 40a:	0300                	addi	s0,sp,384
 40c:	3a0e                	fld	fs4,224(sp)
 40e:	490b3b0b          	0x490b3b0b
 412:	00170213          	addi	tp,a4,1
 416:	0d00                	addi	s0,sp,656
 418:	0034                	addi	a3,sp,8
 41a:	0b3a0e03          	lb	t3,179(s4)
 41e:	13490b3b          	0x13490b3b
 422:	0d1c                	addi	a5,sp,656
 424:	0000                	unimp
 426:	340e                	fld	fs0,224(sp)
 428:	0300                	addi	s0,sp,384
 42a:	3a0e                	fld	fs4,224(sp)
 42c:	490b3b0b          	0x490b3b0b
 430:	00170213          	addi	tp,a4,1
 434:	0f00                	addi	s0,sp,912
 436:	0034                	addi	a3,sp,8
 438:	0b3a0803          	lb	a6,179(s4)
 43c:	13490b3b          	0x13490b3b
 440:	1702                	slli	a4,a4,0x20
 442:	0000                	unimp
 444:	3410                	fld	fa2,40(s0)
 446:	0300                	addi	s0,sp,384
 448:	3a0e                	fld	fs4,224(sp)
 44a:	490b3b0b          	0x490b3b0b
 44e:	00061c13          	slli	s8,a2,0x0
 452:	1100                	addi	s0,sp,160
 454:	8289                	srli	a3,a3,0x2
 456:	0101                	addi	sp,sp,0
 458:	0111                	addi	sp,sp,4
 45a:	1331                	addi	t1,t1,-20
 45c:	1301                	addi	t1,t1,-32
 45e:	0000                	unimp
 460:	8a12                	mv	s4,tp
 462:	0182                	slli	gp,gp,0x0
 464:	0200                	addi	s0,sp,256
 466:	9118                	0x9118
 468:	1842                	slli	a6,a6,0x30
 46a:	0000                	unimp
 46c:	01828913          	addi	s2,t0,24 # 19438a <tohost+0x174382>
 470:	1101                	addi	sp,sp,-32
 472:	3101                	jal	72 <_min_stack-0x1f8e>
 474:	14000013          	li	zero,320
 478:	0b0b000f          	0xb0b000f
 47c:	1349                	addi	t1,t1,-14
 47e:	0000                	unimp
 480:	2e15                	jal	7b4 <_min_stack-0x184c>
 482:	3f00                	fld	fs0,56(a4)
 484:	3c19                	jal	fffffe9a <pulp__FC+0xfffffe9b>
 486:	6e19                	lui	t3,0x6
 488:	030e                	slli	t1,t1,0x3
 48a:	3a0e                	fld	fs4,224(sp)
 48c:	000b3b0b          	0xb3b0b
 490:	0000                	unimp
 492:	1101                	addi	sp,sp,-32
 494:	1000                	addi	s0,sp,32
 496:	5506                	lw	a0,96(sp)
 498:	0306                	slli	t1,t1,0x1
 49a:	1b08                	addi	a0,sp,432
 49c:	2508                	fld	fa0,8(a0)
 49e:	1308                	addi	a0,sp,416
 4a0:	0005                	c.addi	zero,1
	...

Disassembly of section .debug_loc:

00000000 <.debug_loc>:
   0:	03fc                	addi	a5,sp,460
   2:	0000                	unimp
   4:	0428                	addi	a0,sp,520
   6:	0000                	unimp
   8:	0001                	nop
   a:	005a                	0x5a
   c:	0000                	unimp
   e:	0000                	unimp
  10:	0000                	unimp
  12:	0200                	addi	s0,sp,256
  14:	0004                	addi	s1,sp,0
  16:	2a00                	fld	fs0,16(a2)
  18:	0004                	addi	s1,sp,0
  1a:	0100                	addi	s0,sp,128
  1c:	5b00                	lw	s0,48(a4)
	...
  26:	0404                	addi	s1,sp,512
  28:	0000                	unimp
  2a:	042c                	addi	a1,sp,520
  2c:	0000                	unimp
  2e:	0001                	nop
  30:	005c                	addi	a5,sp,4
  32:	0000                	unimp
  34:	0000                	unimp
  36:	0000                	unimp
  38:	0a00                	addi	s0,sp,272
  3a:	0004                	addi	s1,sp,0
  3c:	3400                	fld	fs0,40(s0)
  3e:	0004                	addi	s1,sp,0
  40:	0100                	addi	s0,sp,128
  42:	6000                	flw	fs0,0(s0)
	...
  4c:	0406                	slli	s0,s0,0x1
  4e:	0000                	unimp
  50:	042e                	slli	s0,s0,0xb
  52:	0000                	unimp
  54:	0001                	nop
  56:	005d                	c.addi	zero,23
  58:	0000                	unimp
  5a:	0000                	unimp
  5c:	0000                	unimp
  5e:	f000                	fsw	fs0,32(s0)
  60:	22000003          	lb	zero,544(zero) # 220 <_min_stack-0x1de0>
  64:	0004                	addi	s1,sp,0
  66:	0600                	addi	s0,sp,768
  68:	0c00                	addi	s0,sp,528
  6a:	4020                	lw	s0,64(s0)
  6c:	1040                	addi	s0,sp,36
  6e:	229f 0004 2600      	0x26000004229f
  74:	0004                	addi	s1,sp,0
  76:	0600                	addi	s0,sp,768
  78:	0c00                	addi	s0,sp,528
  7a:	4024                	lw	s1,64(s0)
  7c:	1040                	addi	s0,sp,36
  7e:	009f 0000 0000      	0x9f
  84:	0000                	unimp
  86:	9e00                	0x9e00
  88:	ac000003          	lb	zero,-1344(zero) # fffffac0 <pulp__FC+0xfffffac1>
  8c:	01000003          	lb	zero,16(zero) # 10 <_min_stack-0x1ff0>
  90:	5a00                	lw	s0,48(a2)
  92:	03ac                	addi	a1,sp,456
  94:	0000                	unimp
  96:	03c4                	addi	s1,sp,452
  98:	0000                	unimp
  9a:	0001                	nop
  9c:	c459                	beqz	s0,12a <_min_stack-0x1ed6>
  9e:	ca000003          	lb	zero,-864(zero) # fffffca0 <pulp__FC+0xfffffca1>
  a2:	04000003          	lb	zero,64(zero) # 40 <_min_stack-0x1fc0>
  a6:	f300                	fsw	fs0,32(a4)
  a8:	5a01                	li	s4,-32
  aa:	ca9f 0003 ce00      	0xce000003ca9f
  b0:	01000003          	lb	zero,16(zero) # 10 <_min_stack-0x1ff0>
  b4:	5900                	lw	s0,48(a0)
	...
  be:	039e                	slli	t2,t2,0x7
  c0:	0000                	unimp
  c2:	03ac                	addi	a1,sp,456
  c4:	0000                	unimp
  c6:	0002                	0x2
  c8:	9f30                	0x9f30
  ca:	03b0                	addi	a2,sp,456
  cc:	0000                	unimp
  ce:	03c6                	slli	t2,t2,0x11
  d0:	0000                	unimp
  d2:	0001                	nop
  d4:	c662                	sw	s8,12(sp)
  d6:	ca000003          	lb	zero,-864(zero) # fffffca0 <pulp__FC+0xfffffca1>
  da:	01000003          	lb	zero,16(zero) # 10 <_min_stack-0x1ff0>
  de:	5a00                	lw	s0,48(a2)
  e0:	03ca                	slli	t2,t2,0x12
  e2:	0000                	unimp
  e4:	03ce                	slli	t2,t2,0x13
  e6:	0000                	unimp
  e8:	0006                	0x6
  ea:	0078                	addi	a4,sp,12
  ec:	0079                	c.addi	zero,30
  ee:	9f1c                	0x9f1c
	...
  f8:	03b8                	addi	a4,sp,456
  fa:	0000                	unimp
  fc:	03bc                	addi	a5,sp,456
  fe:	0000                	unimp
 100:	0002                	0x2
 102:	9f3a                	add	t5,t5,a4
	...
 10c:	03ca                	slli	t2,t2,0x12
 10e:	0000                	unimp
 110:	000003cb          	fnmsub.s	ft7,ft0,ft0,ft0,rne
 114:	0006                	0x6
 116:	007a                	0x7a
 118:	ff08                	fsw	fa0,56(a4)
 11a:	9f1a                	add	t5,t5,t1
	...
 124:	023c                	addi	a5,sp,264
 126:	0000                	unimp
 128:	027e                	slli	tp,tp,0x1f
 12a:	0000                	unimp
 12c:	0001                	nop
 12e:	7e5a                	flw	ft8,180(sp)
 130:	0002                	0x2
 132:	9400                	0x9400
 134:	04000003          	lb	zero,64(zero) # 40 <_min_stack-0x1fc0>
 138:	f300                	fsw	fs0,32(a4)
 13a:	5a01                	li	s4,-32
 13c:	009f 0000 0000      	0x9f
 142:	0000                	unimp
 144:	6600                	flw	fs0,8(a2)
 146:	0002                	0x2
 148:	8800                	0x8800
 14a:	0002                	0x2
 14c:	0100                	addi	s0,sp,128
 14e:	5800                	lw	s0,48(s0)
 150:	029e                	slli	t0,t0,0x7
 152:	0000                	unimp
 154:	02f0                	addi	a2,sp,332
 156:	0000                	unimp
 158:	0001                	nop
 15a:	f058                	fsw	fa4,36(s0)
 15c:	0002                	0x2
 15e:	fc00                	fsw	fs0,56(s0)
 160:	0002                	0x2
 162:	0100                	addi	s0,sp,128
 164:	6800                	flw	fs0,16(s0)
 166:	02fc                	addi	a5,sp,332
 168:	0000                	unimp
 16a:	031a                	slli	t1,t1,0x6
 16c:	0000                	unimp
 16e:	0001                	nop
 170:	1a58                	addi	a4,sp,308
 172:	2a000003          	lb	zero,672(zero) # 2a0 <_min_stack-0x1d60>
 176:	01000003          	lb	zero,16(zero) # 10 <_min_stack-0x1ff0>
 17a:	6800                	flw	fs0,16(s0)
 17c:	032a                	slli	t1,t1,0xa
 17e:	0000                	unimp
 180:	033a                	slli	t1,t1,0xe
 182:	0000                	unimp
 184:	0001                	nop
 186:	3a58                	fld	fa4,176(a2)
 188:	42000003          	lb	zero,1056(zero) # 420 <_min_stack-0x1be0>
 18c:	01000003          	lb	zero,16(zero) # 10 <_min_stack-0x1ff0>
 190:	6800                	flw	fs0,16(s0)
 192:	0342                	slli	t1,t1,0x10
 194:	0000                	unimp
 196:	034e                	slli	t1,t1,0x13
 198:	0000                	unimp
 19a:	0001                	nop
 19c:	4e58                	lw	a4,28(a2)
 19e:	58000003          	lb	zero,1408(zero) # 580 <_min_stack-0x1a80>
 1a2:	01000003          	lb	zero,16(zero) # 10 <_min_stack-0x1ff0>
 1a6:	6800                	flw	fs0,16(s0)
 1a8:	0358                	addi	a4,sp,388
 1aa:	0000                	unimp
 1ac:	0364                	addi	s1,sp,396
 1ae:	0000                	unimp
 1b0:	0001                	nop
 1b2:	6458                	flw	fa4,12(s0)
 1b4:	6a000003          	lb	zero,1696(zero) # 6a0 <_min_stack-0x1960>
 1b8:	01000003          	lb	zero,16(zero) # 10 <_min_stack-0x1ff0>
 1bc:	6800                	flw	fs0,16(s0)
 1be:	036a                	slli	t1,t1,0x1a
 1c0:	0000                	unimp
 1c2:	0378                	addi	a4,sp,396
 1c4:	0000                	unimp
 1c6:	0001                	nop
 1c8:	7858                	flw	fa4,52(s0)
 1ca:	88000003          	lb	zero,-1920(zero) # fffff880 <pulp__FC+0xfffff881>
 1ce:	01000003          	lb	zero,16(zero) # 10 <_min_stack-0x1ff0>
 1d2:	6800                	flw	fs0,16(s0)
 1d4:	0388                	addi	a0,sp,448
 1d6:	0000                	unimp
 1d8:	0394                	addi	a3,sp,448
 1da:	0000                	unimp
 1dc:	0001                	nop
 1de:	0058                	addi	a4,sp,4
 1e0:	0000                	unimp
 1e2:	0000                	unimp
 1e4:	0000                	unimp
 1e6:	6600                	flw	fs0,8(a2)
 1e8:	0002                	0x2
 1ea:	7e00                	flw	fs0,56(a2)
 1ec:	0002                	0x2
 1ee:	0100                	addi	s0,sp,128
 1f0:	5a00                	lw	s0,48(a2)
 1f2:	027e                	slli	tp,tp,0x1f
 1f4:	0000                	unimp
 1f6:	0284                	addi	s1,sp,320
 1f8:	0000                	unimp
 1fa:	0001                	nop
 1fc:	00029e67          	0x29e67
 200:	a200                	fsd	fs0,0(a2)
 202:	0002                	0x2
 204:	0100                	addi	s0,sp,128
 206:	6700                	flw	fs0,8(a4)
 208:	02a2                	slli	t0,t0,0x8
 20a:	0000                	unimp
 20c:	02ba                	slli	t0,t0,0xe
 20e:	0000                	unimp
 210:	01870003          	lb	zero,24(a4)
 214:	ba9f 0002 bc00      	0xbc000002ba9f
 21a:	0002                	0x2
 21c:	0100                	addi	s0,sp,128
 21e:	5f00                	lw	s0,56(a4)
 220:	02be                	slli	t0,t0,0xf
 222:	0000                	unimp
 224:	02fc                	addi	a5,sp,332
 226:	0000                	unimp
 228:	0001                	nop
 22a:	0002fc67          	0x2fc67
 22e:	0000                	unimp
 230:	03000003          	lb	zero,48(zero) # 30 <_min_stack-0x1fd0>
 234:	8700                	0x8700
 236:	9f01                	0x9f01
 238:	0300                	addi	s0,sp,384
 23a:	0000                	unimp
 23c:	0304                	addi	s1,sp,384
 23e:	0000                	unimp
 240:	017d0003          	lb	zero,23(s10) # 19017 <_stack_len+0x11017>
 244:	049f 0003 0a00      	0xa000003049f
 24a:	01000003          	lb	zero,16(zero) # 10 <_min_stack-0x1ff0>
 24e:	6700                	flw	fs0,8(a4)
 250:	030a                	slli	t1,t1,0x2
 252:	0000                	unimp
 254:	030c                	addi	a1,sp,384
 256:	0000                	unimp
 258:	7f800003          	lb	zero,2040(zero) # 7f8 <_min_stack-0x1808>
 25c:	0c9f 0003 0e00      	0xe0000030c9f
 262:	03000003          	lb	zero,48(zero) # 30 <_min_stack-0x1fd0>
 266:	8700                	0x8700
 268:	9f01                	0x9f01
 26a:	030e                	slli	t1,t1,0x3
 26c:	0000                	unimp
 26e:	032a                	slli	t1,t1,0xa
 270:	0000                	unimp
 272:	0001                	nop
 274:	00032a67          	0x32a67
 278:	2c00                	fld	fs0,24(s0)
 27a:	03000003          	lb	zero,48(zero) # 30 <_min_stack-0x1fd0>
 27e:	8700                	0x8700
 280:	9f01                	0x9f01
 282:	032c                	addi	a1,sp,392
 284:	0000                	unimp
 286:	0388                	addi	a0,sp,448
 288:	0000                	unimp
 28a:	0001                	nop
 28c:	00038867          	jalr	a6,t2
 290:	8a00                	0x8a00
 292:	03000003          	lb	zero,48(zero) # 30 <_min_stack-0x1fd0>
 296:	7f00                	flw	fs0,56(a4)
 298:	9f01                	0x9f01
 29a:	038a                	slli	t2,t2,0x2
 29c:	0000                	unimp
 29e:	0394                	addi	a3,sp,448
 2a0:	0000                	unimp
 2a2:	0001                	nop
 2a4:	00000067          	jr	zero
 2a8:	0000                	unimp
 2aa:	0000                	unimp
 2ac:	a200                	fsd	fs0,0(a2)
 2ae:	0002                	0x2
 2b0:	ce00                	sw	s0,24(a2)
 2b2:	0002                	0x2
 2b4:	0200                	addi	s0,sp,256
 2b6:	3000                	fld	fs0,32(s0)
 2b8:	ce9f 0002 f800      	0xf8000002ce9f
 2be:	0002                	0x2
 2c0:	0100                	addi	s0,sp,128
 2c2:	5d00                	lw	s0,56(a0)
 2c4:	02f8                	addi	a4,sp,332
 2c6:	0000                	unimp
 2c8:	02f9                	addi	t0,t0,30
 2ca:	0000                	unimp
 2cc:	0001                	nop
 2ce:	0002fc5b          	p.mac.zh.zh	s8,t0,zero,zero
 2d2:	0400                	addi	s0,sp,512
 2d4:	02000003          	lb	zero,32(zero) # 20 <_min_stack-0x1fe0>
 2d8:	3000                	fld	fs0,32(s0)
 2da:	049f 0003 2500      	0x25000003049f
 2e0:	01000003          	lb	zero,16(zero) # 10 <_min_stack-0x1ff0>
 2e4:	5d00                	lw	s0,56(a0)
 2e6:	032e                	slli	t1,t1,0xb
 2e8:	0000                	unimp
 2ea:	0388                	addi	a0,sp,448
 2ec:	0000                	unimp
 2ee:	0001                	nop
 2f0:	885d                	andi	s0,s0,23
 2f2:	8a000003          	lb	zero,-1888(zero) # fffff8a0 <pulp__FC+0xfffff8a1>
 2f6:	02000003          	lb	zero,32(zero) # 20 <_min_stack-0x1fe0>
 2fa:	3000                	fld	fs0,32(s0)
 2fc:	009f 0000 0000      	0x9f
 302:	0000                	unimp
 304:	a200                	fsd	fs0,0(a2)
 306:	0002                	0x2
 308:	ba00                	fsd	fs0,48(a2)
 30a:	0002                	0x2
 30c:	0200                	addi	s0,sp,256
 30e:	3000                	fld	fs0,32(s0)
 310:	ba9f 0002 bc00      	0xbc000002ba9f
 316:	0002                	0x2
 318:	0200                	addi	s0,sp,256
 31a:	3100                	fld	fs0,32(a0)
 31c:	be9f 0002 f800      	0xf8000002be9f
 322:	0002                	0x2
 324:	0100                	addi	s0,sp,128
 326:	5e00                	lw	s0,56(a2)
 328:	02f8                	addi	a4,sp,332
 32a:	0000                	unimp
 32c:	02f9                	addi	t0,t0,30
 32e:	0000                	unimp
 330:	0001                	nop
 332:	fc5c                	fsw	fa5,60(s0)
 334:	0002                	0x2
 336:	2500                	fld	fs0,8(a0)
 338:	01000003          	lb	zero,16(zero) # 10 <_min_stack-0x1ff0>
 33c:	5e00                	lw	s0,56(a2)
 33e:	032e                	slli	t1,t1,0xb
 340:	0000                	unimp
 342:	0388                	addi	a0,sp,448
 344:	0000                	unimp
 346:	0001                	nop
 348:	885e                	mv	a6,s7
 34a:	8a000003          	lb	zero,-1888(zero) # fffff8a0 <pulp__FC+0xfffff8a1>
 34e:	02000003          	lb	zero,32(zero) # 20 <_min_stack-0x1fe0>
 352:	3000                	fld	fs0,32(s0)
 354:	009f 0000 0000      	0x9f
 35a:	0000                	unimp
 35c:	7e00                	flw	fs0,56(a2)
 35e:	0002                	0x2
 360:	9600                	0x9600
 362:	0002                	0x2
 364:	0100                	addi	s0,sp,128
 366:	6600                	flw	fs0,8(a2)
 368:	0296                	slli	t0,t0,0x5
 36a:	0000                	unimp
 36c:	029e                	slli	t0,t0,0x7
 36e:	0000                	unimp
 370:	0001                	nop
 372:	9e5a                	add	t3,t3,s6
 374:	0002                	0x2
 376:	9000                	0x9000
 378:	01000003          	lb	zero,16(zero) # 10 <_min_stack-0x1ff0>
 37c:	6600                	flw	fs0,8(a2)
 37e:	0390                	addi	a2,sp,448
 380:	0000                	unimp
 382:	0392                	slli	t2,t2,0x4
 384:	0000                	unimp
 386:	7f860003          	lb	zero,2040(a2) # fffea7f8 <pulp__FC+0xfffea7f9>
 38a:	929f 0003 9400      	0x94000003929f
 390:	01000003          	lb	zero,16(zero) # 10 <_min_stack-0x1ff0>
 394:	6600                	flw	fs0,8(a2)
	...
 39e:	038a                	slli	t2,t2,0x2
 3a0:	0000                	unimp
 3a2:	0392                	slli	t2,t2,0x4
 3a4:	0000                	unimp
 3a6:	0002                	0x2
 3a8:	9f30                	0x9f30
	...
 3b2:	038a                	slli	t2,t2,0x2
 3b4:	0000                	unimp
 3b6:	0391                	addi	t2,t2,4
 3b8:	0000                	unimp
 3ba:	0008                	addi	a0,sp,0
 3bc:	01940087          	0x1940087
 3c0:	ff08                	fsw	fa0,56(a4)
 3c2:	9f1a                	add	t5,t5,t1
	...
 3cc:	002e                	0x2e
 3ce:	0000                	unimp
 3d0:	0044                	addi	s1,sp,4
 3d2:	0000                	unimp
 3d4:	0001                	nop
 3d6:	445a                	lw	s0,148(sp)
 3d8:	0000                	unimp
 3da:	5400                	lw	s0,40(s0)
 3dc:	0000                	unimp
 3de:	0100                	addi	s0,sp,128
 3e0:	5a00                	lw	s0,48(a2)
	...
 3ea:	002e                	0x2e
 3ec:	0000                	unimp
 3ee:	004a                	0x4a
 3f0:	0000                	unimp
 3f2:	0001                	nop
 3f4:	00004a5b          	p.mac.zl.zl	s4,zero,zero,zero
 3f8:	5400                	lw	s0,40(s0)
 3fa:	0000                	unimp
 3fc:	0100                	addi	s0,sp,128
 3fe:	5b00                	lw	s0,48(a4)
	...
 40c:	0014                	addi	a3,sp,0
 40e:	0000                	unimp
 410:	0001                	nop
 412:	0000145b          	p.macu	s0,zero,zero
 416:	2e00                	fld	fs0,24(a2)
 418:	0000                	unimp
 41a:	0400                	addi	s0,sp,512
 41c:	f300                	fsw	fs0,32(a4)
 41e:	5b01                	li	s6,-32
 420:	009f 0000 0000      	0x9f
 426:	0000                	unimp
 428:	7600                	flw	fs0,40(a2)
 42a:	0000                	unimp
 42c:	9400                	0x9400
 42e:	0000                	unimp
 430:	0100                	addi	s0,sp,128
 432:	5a00                	lw	s0,48(a2)
 434:	0094                	addi	a3,sp,64
 436:	0000                	unimp
 438:	00ca                	slli	ra,ra,0x12
 43a:	0000                	unimp
 43c:	0001                	nop
 43e:	ec59                	bnez	s0,4dc <_min_stack-0x1b24>
 440:	0000                	unimp
 442:	1400                	addi	s0,sp,544
 444:	0001                	nop
 446:	0100                	addi	s0,sp,128
 448:	5900                	lw	s0,48(a0)
	...
 452:	0076                	0x76
 454:	0000                	unimp
 456:	00a6                	slli	ra,ra,0x9
 458:	0000                	unimp
 45a:	0001                	nop
 45c:	0000a65b          	p.addn	a2,ra,zero,0
 460:	ba00                	fsd	fs0,48(a2)
 462:	0000                	unimp
 464:	0100                	addi	s0,sp,128
 466:	5800                	lw	s0,48(s0)
 468:	00ce                	slli	ra,ra,0x13
 46a:	0000                	unimp
 46c:	00e2                	slli	ra,ra,0x18
 46e:	0000                	unimp
 470:	0001                	nop
 472:	ec59                	bnez	s0,510 <_min_stack-0x1af0>
 474:	0000                	unimp
 476:	ee00                	fsw	fs0,24(a2)
 478:	0000                	unimp
 47a:	0100                	addi	s0,sp,128
 47c:	5800                	lw	s0,48(s0)
 47e:	00ee                	slli	ra,ra,0x1b
 480:	0000                	unimp
 482:	00f0                	addi	a2,sp,76
 484:	0000                	unimp
 486:	0001                	nop
 488:	0000f05b          	p.mac.zh.zh	zero,ra,zero,zero
 48c:	f400                	fsw	fs0,40(s0)
 48e:	0000                	unimp
 490:	0100                	addi	s0,sp,128
 492:	6300                	flw	fs0,0(a4)
 494:	00f4                	addi	a3,sp,76
 496:	0000                	unimp
 498:	00f6                	slli	ra,ra,0x1d
 49a:	0000                	unimp
 49c:	7f830003          	lb	zero,2040(t1)
 4a0:	f69f 0000 0600      	0x6000000f69f
 4a6:	0001                	nop
 4a8:	0100                	addi	s0,sp,128
 4aa:	6300                	flw	fs0,0(a4)
 4ac:	0106                	slli	sp,sp,0x1
 4ae:	0000                	unimp
 4b0:	010e                	slli	sp,sp,0x3
 4b2:	0000                	unimp
 4b4:	0001                	nop
 4b6:	1458                	addi	a4,sp,548
 4b8:	0001                	nop
 4ba:	1c00                	addi	s0,sp,560
 4bc:	0001                	nop
 4be:	0100                	addi	s0,sp,128
 4c0:	5900                	lw	s0,48(a0)
	...
 4ca:	0076                	0x76
 4cc:	0000                	unimp
 4ce:	00b6                	slli	ra,ra,0xd
 4d0:	0000                	unimp
 4d2:	0001                	nop
 4d4:	b65c                	fsd	fa5,168(a2)
 4d6:	0000                	unimp
 4d8:	ec00                	fsw	fs0,24(s0)
 4da:	0000                	unimp
 4dc:	0400                	addi	s0,sp,512
 4de:	f300                	fsw	fs0,32(a4)
 4e0:	5c01                	li	s8,-32
 4e2:	ec9f 0000 f000      	0xf0000000ec9f
 4e8:	0000                	unimp
 4ea:	0100                	addi	s0,sp,128
 4ec:	5c00                	lw	s0,56(s0)
 4ee:	00f0                	addi	a2,sp,76
 4f0:	0000                	unimp
 4f2:	011c                	addi	a5,sp,128
 4f4:	0000                	unimp
 4f6:	0004                	addi	s1,sp,0
 4f8:	9f5c01f3          	0x9f5c01f3
	...
 504:	0076                	0x76
 506:	0000                	unimp
 508:	00ba                	slli	ra,ra,0xe
 50a:	0000                	unimp
 50c:	0002                	0x2
 50e:	9f30                	0x9f30
 510:	00c6                	slli	ra,ra,0x11
 512:	0000                	unimp
 514:	00ce                	slli	ra,ra,0x13
 516:	0000                	unimp
 518:	0001                	nop
 51a:	ec64                	fsw	fs1,92(s0)
 51c:	0000                	unimp
 51e:	f000                	fsw	fs0,32(s0)
 520:	0000                	unimp
 522:	0200                	addi	s0,sp,256
 524:	3000                	fld	fs0,32(s0)
 526:	069f 0001 0e00      	0xe000001069f
 52c:	0001                	nop
 52e:	0200                	addi	s0,sp,256
 530:	3000                	fld	fs0,32(s0)
 532:	0e9f 0001 1000      	0x100000010e9f
 538:	0001                	nop
 53a:	0100                	addi	s0,sp,128
 53c:	6400                	flw	fs0,8(s0)
	...
 546:	0076                	0x76
 548:	0000                	unimp
 54a:	00b4                	addi	a3,sp,72
 54c:	0000                	unimp
 54e:	20080003          	lb	zero,512(a6)
 552:	b49f 0000 ce00      	0xce000000b49f
 558:	0000                	unimp
 55a:	0100                	addi	s0,sp,128
 55c:	6200                	flw	fs0,0(a2)
 55e:	00ec                	addi	a1,sp,76
 560:	0000                	unimp
 562:	00f0                	addi	a2,sp,76
 564:	0000                	unimp
 566:	20080003          	lb	zero,512(a6)
 56a:	f09f 0000 1400      	0x14000000f09f
 570:	0001                	nop
 572:	0100                	addi	s0,sp,128
 574:	6200                	flw	fs0,0(a2)
	...
 57e:	009e                	slli	ra,ra,0x7
 580:	0000                	unimp
 582:	00b4                	addi	a3,sp,72
 584:	0000                	unimp
 586:	0001                	nop
 588:	ec5e                	fsw	fs7,24(sp)
 58a:	0000                	unimp
 58c:	f000                	fsw	fs0,32(s0)
 58e:	0000                	unimp
 590:	0100                	addi	s0,sp,128
 592:	5e00                	lw	s0,56(a2)
	...
 59c:	0094                	addi	a3,sp,64
 59e:	0000                	unimp
 5a0:	0096                	slli	ra,ra,0x5
 5a2:	0000                	unimp
 5a4:	0001                	nop
 5a6:	9e5f 0000 aa00      	0xaa0000009e5f
 5ac:	0000                	unimp
 5ae:	0100                	addi	s0,sp,128
 5b0:	5f00                	lw	s0,56(a4)
 5b2:	00ec                	addi	a1,sp,76
 5b4:	0000                	unimp
 5b6:	00f0                	addi	a2,sp,76
 5b8:	0000                	unimp
 5ba:	0001                	nop
 5bc:	005f 0000 0000      	0x5f
 5c2:	0000                	unimp
 5c4:	1400                	addi	s0,sp,544
 5c6:	0001                	nop
 5c8:	1800                	addi	s0,sp,48
 5ca:	0001                	nop
 5cc:	0200                	addi	s0,sp,256
 5ce:	3000                	fld	fs0,32(s0)
 5d0:	009f 0000 0000      	0x9f
 5d6:	0000                	unimp
 5d8:	f000                	fsw	fs0,32(s0)
 5da:	0000                	unimp
 5dc:	f400                	fsw	fs0,40(s0)
 5de:	0000                	unimp
 5e0:	0200                	addi	s0,sp,256
 5e2:	3000                	fld	fs0,32(s0)
 5e4:	009f 0000 0000      	0x9f
 5ea:	0000                	unimp
 5ec:	0e00                	addi	s0,sp,784
 5ee:	0001                	nop
 5f0:	1000                	addi	s0,sp,32
 5f2:	0001                	nop
 5f4:	0200                	addi	s0,sp,256
 5f6:	3000                	fld	fs0,32(s0)
 5f8:	009f 0000 0000      	0x9f
 5fe:	0000                	unimp
 600:	0e00                	addi	s0,sp,784
 602:	0001                	nop
 604:	0f00                	addi	s0,sp,912
 606:	0001                	nop
 608:	0600                	addi	s0,sp,768
 60a:	7a00                	flw	fs0,48(a2)
 60c:	0800                	addi	s0,sp,16
 60e:	1aff                	0x1aff
 610:	009f 0000 0000      	0x9f
 616:	0000                	unimp
 618:	1c00                	addi	s0,sp,560
 61a:	0001                	nop
 61c:	3200                	fld	fs0,32(a2)
 61e:	0001                	nop
 620:	0100                	addi	s0,sp,128
 622:	5a00                	lw	s0,48(a2)
 624:	0132                	slli	sp,sp,0xc
 626:	0000                	unimp
 628:	0142                	slli	sp,sp,0x10
 62a:	0000                	unimp
 62c:	0004                	addi	s1,sp,0
 62e:	9f5a01f3          	0x9f5a01f3
 632:	0142                	slli	sp,sp,0x10
 634:	0000                	unimp
 636:	0152                	slli	sp,sp,0x14
 638:	0000                	unimp
 63a:	0001                	nop
 63c:	525a                	lw	tp,180(sp)
 63e:	0001                	nop
 640:	c000                	sw	s0,0(s0)
 642:	0001                	nop
 644:	0400                	addi	s0,sp,512
 646:	f300                	fsw	fs0,32(a4)
 648:	5a01                	li	s4,-32
 64a:	c09f 0001 c400      	0xc4000001c09f
 650:	0001                	nop
 652:	0100                	addi	s0,sp,128
 654:	5a00                	lw	s0,48(a2)
 656:	01c4                	addi	s1,sp,196
 658:	0000                	unimp
 65a:	0216                	slli	tp,tp,0x5
 65c:	0000                	unimp
 65e:	0004                	addi	s1,sp,0
 660:	9f5a01f3          	0x9f5a01f3
	...
 66c:	011c                	addi	a5,sp,128
 66e:	0000                	unimp
 670:	0130                	addi	a2,sp,136
 672:	0000                	unimp
 674:	0001                	nop
 676:	0001305b          	p.subn	zero,sp,zero,0
 67a:	4200                	lw	s0,0(a2)
 67c:	0001                	nop
 67e:	0400                	addi	s0,sp,512
 680:	f300                	fsw	fs0,32(a4)
 682:	5b01                	li	s6,-32
 684:	429f 0001 7200      	0x72000001429f
 68a:	0001                	nop
 68c:	0100                	addi	s0,sp,128
 68e:	5b00                	lw	s0,48(a4)
 690:	0172                	slli	sp,sp,0x1c
 692:	0000                	unimp
 694:	01c0                	addi	s0,sp,196
 696:	0000                	unimp
 698:	0004                	addi	s1,sp,0
 69a:	9f5b01f3          	0x9f5b01f3
 69e:	01c0                	addi	s0,sp,196
 6a0:	0000                	unimp
 6a2:	01dc                	addi	a5,sp,196
 6a4:	0000                	unimp
 6a6:	0001                	nop
 6a8:	0001dc5b          	p.mac.zl.zh	s8,gp,zero,zero
 6ac:	0000                	unimp
 6ae:	0002                	0x2
 6b0:	0400                	addi	s0,sp,512
 6b2:	f300                	fsw	fs0,32(a4)
 6b4:	5b01                	li	s6,-32
 6b6:	009f 0002 0800      	0x8000002009f
 6bc:	0002                	0x2
 6be:	0100                	addi	s0,sp,128
 6c0:	5b00                	lw	s0,48(a4)
 6c2:	0208                	addi	a0,sp,256
 6c4:	0000                	unimp
 6c6:	0216                	slli	tp,tp,0x5
 6c8:	0000                	unimp
 6ca:	0004                	addi	s1,sp,0
 6cc:	9f5b01f3          	0x9f5b01f3
	...
 6d8:	011c                	addi	a5,sp,128
 6da:	0000                	unimp
 6dc:	0128                	addi	a0,sp,136
 6de:	0000                	unimp
 6e0:	0001                	nop
 6e2:	285c                	fld	fa5,144(s0)
 6e4:	0001                	nop
 6e6:	3800                	fld	fs0,48(s0)
 6e8:	0001                	nop
 6ea:	0100                	addi	s0,sp,128
 6ec:	5900                	lw	s0,48(a0)
 6ee:	0138                	addi	a4,sp,136
 6f0:	0000                	unimp
 6f2:	0142                	slli	sp,sp,0x10
 6f4:	0000                	unimp
 6f6:	0004                	addi	s1,sp,0
 6f8:	9f5c01f3          	0x9f5c01f3
 6fc:	0142                	slli	sp,sp,0x10
 6fe:	0000                	unimp
 700:	0152                	slli	sp,sp,0x14
 702:	0000                	unimp
 704:	0001                	nop
 706:	5259                	li	tp,-10
 708:	0001                	nop
 70a:	c000                	sw	s0,0(s0)
 70c:	0001                	nop
 70e:	0400                	addi	s0,sp,512
 710:	f300                	fsw	fs0,32(a4)
 712:	5c01                	li	s8,-32
 714:	c09f 0001 c200      	0xc2000001c09f
 71a:	0001                	nop
 71c:	0100                	addi	s0,sp,128
 71e:	5900                	lw	s0,48(a0)
 720:	01c2                	slli	gp,gp,0x10
 722:	0000                	unimp
 724:	0216                	slli	tp,tp,0x5
 726:	0000                	unimp
 728:	0004                	addi	s1,sp,0
 72a:	9f5c01f3          	0x9f5c01f3
	...
 736:	011c                	addi	a5,sp,128
 738:	0000                	unimp
 73a:	00000137          	lui	sp,0x0
 73e:	0001                	nop
 740:	375d                	jal	6e6 <_min_stack-0x191a>
 742:	0001                	nop
 744:	3800                	fld	fs0,48(s0)
 746:	0001                	nop
 748:	0400                	addi	s0,sp,512
 74a:	f300                	fsw	fs0,32(a4)
 74c:	5d01                	li	s10,-32
 74e:	429f 0001 ef00      	0xef000001429f
 754:	0001                	nop
 756:	0100                	addi	s0,sp,128
 758:	5d00                	lw	s0,56(a0)
 75a:	000001ef          	jal	gp,75a <_min_stack-0x18a6>
 75e:	01f6                	slli	gp,gp,0x1d
 760:	0000                	unimp
 762:	0004                	addi	s1,sp,0
 764:	9f5d01f3          	0x9f5d01f3
 768:	01f6                	slli	gp,gp,0x1d
 76a:	0000                	unimp
 76c:	000001fb          	lp.starti	x3,76c <_min_stack-0x1894>
 770:	0001                	nop
 772:	005d                	c.addi	zero,23
 774:	0002                	0x2
 776:	1600                	addi	s0,sp,800
 778:	0002                	0x2
 77a:	0100                	addi	s0,sp,128
 77c:	5d00                	lw	s0,56(a0)
	...
 786:	011c                	addi	a5,sp,128
 788:	0000                	unimp
 78a:	00000137          	lui	sp,0x0
 78e:	0001                	nop
 790:	375e                	fld	fa4,496(sp)
 792:	0001                	nop
 794:	4200                	lw	s0,0(a2)
 796:	0001                	nop
 798:	0400                	addi	s0,sp,512
 79a:	f300                	fsw	fs0,32(a4)
 79c:	5e01                	li	t3,-32
 79e:	429f 0001 ef00      	0xef000001429f
 7a4:	0001                	nop
 7a6:	0100                	addi	s0,sp,128
 7a8:	5c00                	lw	s0,56(s0)
 7aa:	000001ef          	jal	gp,7aa <_min_stack-0x1856>
 7ae:	0200                	addi	s0,sp,256
 7b0:	0000                	unimp
 7b2:	0004                	addi	s1,sp,0
 7b4:	9f5e01f3          	0x9f5e01f3
 7b8:	0200                	addi	s0,sp,256
 7ba:	0000                	unimp
 7bc:	0216                	slli	tp,tp,0x5
 7be:	0000                	unimp
 7c0:	0001                	nop
 7c2:	005c                	addi	a5,sp,4
 7c4:	0000                	unimp
 7c6:	0000                	unimp
 7c8:	0000                	unimp
 7ca:	1c00                	addi	s0,sp,560
 7cc:	0001                	nop
 7ce:	2e00                	fld	fs0,24(a2)
 7d0:	0001                	nop
 7d2:	0100                	addi	s0,sp,128
 7d4:	5f00                	lw	s0,56(a4)
 7d6:	012e                	slli	sp,sp,0xb
 7d8:	0000                	unimp
 7da:	0142                	slli	sp,sp,0x10
 7dc:	0000                	unimp
 7de:	0004                	addi	s1,sp,0
 7e0:	9f5f01f3          	0x9f5f01f3
 7e4:	0142                	slli	sp,sp,0x10
 7e6:	0000                	unimp
 7e8:	0172                	slli	sp,sp,0x1c
 7ea:	0000                	unimp
 7ec:	0001                	nop
 7ee:	725f 0001 c000      	0xc0000001725f
 7f4:	0001                	nop
 7f6:	0400                	addi	s0,sp,512
 7f8:	f300                	fsw	fs0,32(a4)
 7fa:	5f01                	li	t5,-32
 7fc:	c09f 0001 c400      	0xc4000001c09f
 802:	0001                	nop
 804:	0100                	addi	s0,sp,128
 806:	5f00                	lw	s0,56(a4)
 808:	01c4                	addi	s1,sp,196
 80a:	0000                	unimp
 80c:	0200                	addi	s0,sp,256
 80e:	0000                	unimp
 810:	0004                	addi	s1,sp,0
 812:	9f5f01f3          	0x9f5f01f3
 816:	0200                	addi	s0,sp,256
 818:	0000                	unimp
 81a:	0206                	slli	tp,tp,0x1
 81c:	0000                	unimp
 81e:	0001                	nop
 820:	065f 0002 1600      	0x16000002065f
 826:	0002                	0x2
 828:	0400                	addi	s0,sp,512
 82a:	f300                	fsw	fs0,32(a4)
 82c:	5f01                	li	t5,-32
 82e:	009f 0000 0000      	0x9f
 834:	0000                	unimp
 836:	5200                	lw	s0,32(a2)
 838:	0001                	nop
 83a:	5c00                	lw	s0,56(s0)
 83c:	0001                	nop
 83e:	0300                	addi	s0,sp,384
 840:	9100                	0x9100
 842:	015c9f6f          	jal	t5,ca056 <tohost+0xaa04e>
 846:	0000                	unimp
 848:	01c0                	addi	s0,sp,196
 84a:	0000                	unimp
 84c:	0001                	nop
 84e:	c458                	sw	a4,12(s0)
 850:	0001                	nop
 852:	0800                	addi	s0,sp,16
 854:	0002                	0x2
 856:	0100                	addi	s0,sp,128
 858:	5800                	lw	s0,48(s0)
 85a:	0208                	addi	a0,sp,256
 85c:	0000                	unimp
 85e:	0214                	addi	a3,sp,256
 860:	0000                	unimp
 862:	7f780003          	lb	zero,2039(a6)
 866:	149f 0002 1600      	0x16000002149f
 86c:	0002                	0x2
 86e:	0100                	addi	s0,sp,128
 870:	5800                	lw	s0,48(s0)
	...
 87a:	011c                	addi	a5,sp,128
 87c:	0000                	unimp
 87e:	0138                	addi	a4,sp,136
 880:	0000                	unimp
 882:	0002                	0x2
 884:	9f30                	0x9f30
 886:	0142                	slli	sp,sp,0x10
 888:	0000                	unimp
 88a:	014e                	slli	sp,sp,0x13
 88c:	0000                	unimp
 88e:	0002                	0x2
 890:	9f30                	0x9f30
 892:	014e                	slli	sp,sp,0x13
 894:	0000                	unimp
 896:	0152                	slli	sp,sp,0x14
 898:	0000                	unimp
 89a:	0002                	0x2
 89c:	9f31                	0x9f31
 89e:	0152                	slli	sp,sp,0x14
 8a0:	0000                	unimp
 8a2:	01c0                	addi	s0,sp,196
 8a4:	0000                	unimp
 8a6:	0001                	nop
 8a8:	c059                	beqz	s0,92e <_min_stack-0x16d2>
 8aa:	0001                	nop
 8ac:	c400                	sw	s0,8(s0)
 8ae:	0001                	nop
 8b0:	0200                	addi	s0,sp,256
 8b2:	3000                	fld	fs0,32(s0)
 8b4:	c49f 0001 f600      	0xf6000001c49f
 8ba:	0001                	nop
 8bc:	0100                	addi	s0,sp,128
 8be:	5900                	lw	s0,48(a0)
 8c0:	0200                	addi	s0,sp,256
 8c2:	0000                	unimp
 8c4:	0212                	slli	tp,tp,0x4
 8c6:	0000                	unimp
 8c8:	0001                	nop
 8ca:	0059                	c.addi	zero,22
 8cc:	0000                	unimp
 8ce:	0000                	unimp
 8d0:	0000                	unimp
 8d2:	1c00                	addi	s0,sp,560
 8d4:	0001                	nop
 8d6:	3800                	fld	fs0,48(s0)
 8d8:	0001                	nop
 8da:	0200                	addi	s0,sp,256
 8dc:	3000                	fld	fs0,32(s0)
 8de:	429f 0001 f000      	0xf0000001429f
 8e4:	0001                	nop
 8e6:	0200                	addi	s0,sp,256
 8e8:	3000                	fld	fs0,32(s0)
 8ea:	f09f 0001 f600      	0xf6000001f09f
 8f0:	0001                	nop
 8f2:	0200                	addi	s0,sp,256
 8f4:	3100                	fld	fs0,32(a0)
 8f6:	f69f 0001 0000      	0x1f69f
 8fc:	0002                	0x2
 8fe:	0100                	addi	s0,sp,128
 900:	5900                	lw	s0,48(a0)
 902:	0200                	addi	s0,sp,256
 904:	0000                	unimp
 906:	0216                	slli	tp,tp,0x5
 908:	0000                	unimp
 90a:	0002                	0x2
 90c:	9f30                	0x9f30
	...
 916:	011c                	addi	a5,sp,128
 918:	0000                	unimp
 91a:	0132                	slli	sp,sp,0xc
 91c:	0000                	unimp
 91e:	0001                	nop
 920:	325a                	fld	ft4,432(sp)
 922:	0001                	nop
 924:	3800                	fld	fs0,48(s0)
 926:	0001                	nop
 928:	0400                	addi	s0,sp,512
 92a:	f300                	fsw	fs0,32(a4)
 92c:	5a01                	li	s4,-32
 92e:	429f 0001 b800      	0xb8000001429f
 934:	0001                	nop
 936:	0100                	addi	s0,sp,128
 938:	5a00                	lw	s0,48(a2)
 93a:	01b8                	addi	a4,sp,200
 93c:	0000                	unimp
 93e:	01ba                	slli	gp,gp,0xe
 940:	0000                	unimp
 942:	7a7a0003          	lb	zero,1959(s4)
 946:	c09f 0001 ea00      	0xea000001c09f
 94c:	0001                	nop
 94e:	0100                	addi	s0,sp,128
 950:	5a00                	lw	s0,48(a2)
 952:	0200                	addi	s0,sp,256
 954:	0000                	unimp
 956:	0216                	slli	tp,tp,0x5
 958:	0000                	unimp
 95a:	0001                	nop
 95c:	005a                	0x5a
 95e:	0000                	unimp
 960:	0000                	unimp
 962:	0000                	unimp
 964:	7400                	flw	fs0,40(s0)
 966:	0001                	nop
 968:	7c00                	flw	fs0,56(s0)
 96a:	0001                	nop
 96c:	0100                	addi	s0,sp,128
 96e:	5a00                	lw	s0,48(a2)
	...
 978:	019e                	slli	gp,gp,0x7
 97a:	0000                	unimp
 97c:	01b8                	addi	a4,sp,200
 97e:	0000                	unimp
 980:	0001                	nop
 982:	b85a                	fsd	fs6,48(sp)
 984:	0001                	nop
 986:	ba00                	fsd	fs0,48(a2)
 988:	0001                	nop
 98a:	0300                	addi	s0,sp,384
 98c:	7a00                	flw	fs0,48(a2)
 98e:	9f7a                	add	t5,t5,t5
	...
 998:	019e                	slli	gp,gp,0x7
 99a:	0000                	unimp
 99c:	01be                	slli	gp,gp,0xf
 99e:	0000                	unimp
 9a0:	0001                	nop
 9a2:	005f 0000 0000      	0x5f
 9a8:	0000                	unimp
 9aa:	b200                	fsd	fs0,32(a2)
 9ac:	0001                	nop
 9ae:	b800                	fsd	fs0,48(s0)
 9b0:	0001                	nop
 9b2:	0900                	addi	s0,sp,144
 9b4:	7f00                	flw	fs0,56(a4)
 9b6:	0900                	addi	s0,sp,144
 9b8:	1ef6                	slli	t4,t4,0x3d
 9ba:	007a                	0x7a
 9bc:	9f22                	add	t5,t5,s0
 9be:	01b8                	addi	a4,sp,200
 9c0:	0000                	unimp
 9c2:	01ba                	slli	gp,gp,0xe
 9c4:	0000                	unimp
 9c6:	007f000b          	p.lb	zero,7(t5!) # 1b007 <_stack_len+0x13007>
 9ca:	f609                	bnez	a2,8d4 <_min_stack-0x172c>
 9cc:	7a1e                	flw	fs4,228(sp)
 9ce:	2200                	fld	fs0,0(a2)
 9d0:	1c36                	slli	s8,s8,0x2d
 9d2:	009f 0000 0000      	0x9f
 9d8:	0000                	unimp
 9da:	c800                	sw	s0,16(s0)
 9dc:	0001                	nop
 9de:	d400                	sw	s0,40(s0)
 9e0:	0001                	nop
 9e2:	0100                	addi	s0,sp,128
 9e4:	6000                	flw	fs0,0(s0)
 9e6:	01d4                	addi	a3,sp,196
 9e8:	0000                	unimp
 9ea:	01da                	slli	gp,gp,0x16
 9ec:	0000                	unimp
 9ee:	50800003          	lb	zero,1288(zero) # 508 <_min_stack-0x1af8>
 9f2:	009f 0000 0000      	0x9f
 9f8:	0000                	unimp
 9fa:	e600                	fsw	fs0,8(a2)
 9fc:	0001                	nop
 9fe:	f000                	fsw	fs0,32(s0)
 a00:	0001                	nop
 a02:	0200                	addi	s0,sp,256
 a04:	3000                	fld	fs0,32(s0)
 a06:	009f 0000 0000      	0x9f
 a0c:	0000                	unimp
 a0e:	e600                	fsw	fs0,8(a2)
 a10:	0001                	nop
 a12:	f000                	fsw	fs0,32(s0)
 a14:	0001                	nop
 a16:	0300                	addi	s0,sp,384
 a18:	0800                	addi	s0,sp,16
 a1a:	9f2d                	0x9f2d
	...
 a24:	01e6                	slli	gp,gp,0x19
 a26:	0000                	unimp
 a28:	01f6                	slli	gp,gp,0x1d
 a2a:	0000                	unimp
 a2c:	2d080003          	lb	zero,720(a6)
 a30:	009f 0000 0000      	0x9f
 a36:	0000                	unimp
 a38:	2400                	fld	fs0,8(s0)
 a3a:	0002                	0x2
 a3c:	2e00                	fld	fs0,24(a2)
 a3e:	0002                	0x2
 a40:	0100                	addi	s0,sp,128
 a42:	5a00                	lw	s0,48(a2)
 a44:	022e                	slli	tp,tp,0xb
 a46:	0000                	unimp
 a48:	0238                	addi	a4,sp,264
 a4a:	0000                	unimp
 a4c:	0001                	nop
 a4e:	3858                	fld	fa4,176(s0)
 a50:	0002                	0x2
 a52:	3c00                	fld	fs0,56(s0)
 a54:	0002                	0x2
 a56:	0100                	addi	s0,sp,128
 a58:	5a00                	lw	s0,48(a2)
	...
 a62:	053a                	slli	a0,a0,0xe
 a64:	e000                	fsw	fs0,0(s0)
 a66:	0544                	addi	s1,sp,644
 a68:	e000                	fsw	fs0,0(s0)
 a6a:	0001                	nop
 a6c:	445a                	lw	s0,148(sp)
 a6e:	0005                	c.addi	zero,1
 a70:	fae0                	fsw	fs0,116(a3)
 a72:	0005                	c.addi	zero,1
 a74:	04e0                	addi	s0,sp,588
 a76:	f300                	fsw	fs0,32(a4)
 a78:	5a01                	li	s4,-32
 a7a:	009f 0000 0000      	0x9f
 a80:	0000                	unimp
 a82:	3a00                	fld	fs0,48(a2)
 a84:	0005                	c.addi	zero,1
 a86:	42e0                	lw	s0,68(a3)
 a88:	0005                	c.addi	zero,1
 a8a:	01e0                	addi	s0,sp,204
 a8c:	5b00                	lw	s0,48(a4)
 a8e:	0542                	slli	a0,a0,0x10
 a90:	e000                	fsw	fs0,0(s0)
 a92:	05fa                	slli	a1,a1,0x1e
 a94:	e000                	fsw	fs0,0(s0)
 a96:	0004                	addi	s1,sp,0
 a98:	9f5b01f3          	0x9f5b01f3
	...
 aa4:	053a                	slli	a0,a0,0xe
 aa6:	e000                	fsw	fs0,0(s0)
 aa8:	0578                	addi	a4,sp,652
 aaa:	e000                	fsw	fs0,0(s0)
 aac:	0005                	c.addi	zero,1
 aae:	4840                	lw	s0,20(s0)
 ab0:	1f24                	addi	s1,sp,952
 ab2:	849f 0005 8de0      	0x8de00005849f
 ab8:	0005                	c.addi	zero,1
 aba:	01e0                	addi	s0,sp,204
 abc:	5b00                	lw	s0,48(a4)
 abe:	058d                	addi	a1,a1,3
 ac0:	e000                	fsw	fs0,0(s0)
 ac2:	058e                	slli	a1,a1,0x3
 ac4:	e000                	fsw	fs0,0(s0)
 ac6:	7c780003          	lb	zero,1991(a6)
 aca:	8e9f 0005 a0e0      	0xa0e000058e9f
 ad0:	0005                	c.addi	zero,1
 ad2:	01e0                	addi	s0,sp,204
 ad4:	5800                	lw	s0,48(s0)
 ad6:	05e8                	addi	a0,sp,716
 ad8:	e000                	fsw	fs0,0(s0)
 ada:	e00005eb          	0xe00005eb
 ade:	0001                	nop
 ae0:	0005eb5b          	p.mac.zh.zl	s6,a1,zero,zero
 ae4:	f0e0                	fsw	fs0,100(s1)
 ae6:	0005                	c.addi	zero,1
 ae8:	03e0                	addi	s0,sp,460
 aea:	7800                	flw	fs0,48(s0)
 aec:	9f7c                	0x9f7c
 aee:	05f0                	addi	a2,sp,716
 af0:	e000                	fsw	fs0,0(s0)
 af2:	05fa                	slli	a1,a1,0x1e
 af4:	e000                	fsw	fs0,0(s0)
 af6:	0001                	nop
 af8:	0058                	addi	a4,sp,4
 afa:	0000                	unimp
 afc:	0000                	unimp
 afe:	0000                	unimp
 b00:	3a00                	fld	fs0,48(a2)
 b02:	0005                	c.addi	zero,1
 b04:	78e0                	flw	fs0,116(s1)
 b06:	0005                	c.addi	zero,1
 b08:	02e0                	addi	s0,sp,332
 b0a:	3000                	fld	fs0,32(s0)
 b0c:	789f 0005 dae0      	0xdae00005789f
 b12:	0005                	c.addi	zero,1
 b14:	01e0                	addi	s0,sp,204
 b16:	5900                	lw	s0,48(a0)
 b18:	05e8                	addi	a0,sp,716
 b1a:	e000                	fsw	fs0,0(s0)
 b1c:	05fa                	slli	a1,a1,0x1e
 b1e:	e000                	fsw	fs0,0(s0)
 b20:	0001                	nop
 b22:	0059                	c.addi	zero,22
 b24:	0000                	unimp
 b26:	0000                	unimp
 b28:	0000                	unimp
 b2a:	3a00                	fld	fs0,48(a2)
 b2c:	0005                	c.addi	zero,1
 b2e:	60e0                	flw	fs0,68(s1)
 b30:	0005                	c.addi	zero,1
 b32:	02e0                	addi	s0,sp,332
 b34:	3000                	fld	fs0,32(s0)
 b36:	009f 0000 0000      	0x9f
 b3c:	0000                	unimp
 b3e:	8400                	0x8400
 b40:	0005                	c.addi	zero,1
 b42:	8ae0                	0x8ae0
 b44:	0005                	c.addi	zero,1
 b46:	01e0                	addi	s0,sp,204
 b48:	5c00                	lw	s0,56(s0)
 b4a:	058a                	slli	a1,a1,0x2
 b4c:	e000                	fsw	fs0,0(s0)
 b4e:	058d                	addi	a1,a1,3
 b50:	e000                	fsw	fs0,0(s0)
 b52:	0002                	0x2
 b54:	0482                	slli	s1,s1,0x0
 b56:	0594                	addi	a3,sp,704
 b58:	e000                	fsw	fs0,0(s0)
 b5a:	059a                	slli	a1,a1,0x6
 b5c:	e000                	fsw	fs0,0(s0)
 b5e:	0001                	nop
 b60:	9a5c                	0x9a5c
 b62:	0005                	c.addi	zero,1
 b64:	9fe0                	0x9fe0
 b66:	0005                	c.addi	zero,1
 b68:	02e0                	addi	s0,sp,332
 b6a:	8200                	0x8200
 b6c:	e800                	fsw	fs0,16(s0)
 b6e:	0005                	c.addi	zero,1
 b70:	ebe0                	fsw	fs0,84(a5)
 b72:	0005                	c.addi	zero,1
 b74:	01e0                	addi	s0,sp,204
 b76:	5c00                	lw	s0,56(s0)
 b78:	05f0                	addi	a2,sp,716
 b7a:	e000                	fsw	fs0,0(s0)
 b7c:	05f5                	addi	a1,a1,29
 b7e:	e000                	fsw	fs0,0(s0)
 b80:	0001                	nop
 b82:	005c                	addi	a5,sp,4
 b84:	0000                	unimp
 b86:	0000                	unimp
 b88:	0000                	unimp
 b8a:	8400                	0x8400
 b8c:	0005                	c.addi	zero,1
 b8e:	8de0                	0x8de0
 b90:	0005                	c.addi	zero,1
 b92:	01e0                	addi	s0,sp,204
 b94:	5d00                	lw	s0,56(a0)
 b96:	0590                	addi	a2,sp,704
 b98:	e000                	fsw	fs0,0(s0)
 b9a:	059f e000 0001      	0x1e000059f
 ba0:	e85d                	bnez	s0,c56 <_min_stack-0x13aa>
 ba2:	0005                	c.addi	zero,1
 ba4:	ebe0                	fsw	fs0,84(a5)
 ba6:	0005                	c.addi	zero,1
 ba8:	01e0                	addi	s0,sp,204
 baa:	5d00                	lw	s0,56(a0)
 bac:	05f0                	addi	a2,sp,716
 bae:	e000                	fsw	fs0,0(s0)
 bb0:	05f5                	addi	a1,a1,29
 bb2:	e000                	fsw	fs0,0(s0)
 bb4:	0001                	nop
 bb6:	005d                	c.addi	zero,23
 bb8:	0000                	unimp
 bba:	0000                	unimp
 bbc:	0000                	unimp
	...

Disassembly of section .debug_aranges:

00000000 <.debug_aranges>:
   0:	001c                	addi	a5,sp,0
   2:	0000                	unimp
   4:	0002                	0x2
   6:	0000                	unimp
   8:	0000                	unimp
   a:	0004                	addi	s1,sp,0
   c:	0000                	unimp
   e:	0000                	unimp
  10:	0084                	addi	s1,sp,64
  12:	e000                	fsw	fs0,0(s0)
  14:	043a                	slli	s0,s0,0xe
	...
  1e:	0000                	unimp
  20:	001c                	addi	a5,sp,0
  22:	0000                	unimp
  24:	0002                	0x2
  26:	0928                	addi	a0,sp,152
  28:	0000                	unimp
  2a:	0004                	addi	s1,sp,0
  2c:	0000                	unimp
  2e:	0000                	unimp
  30:	053a                	slli	a0,a0,0xe
  32:	e000                	fsw	fs0,0(s0)
  34:	00c0                	addi	s0,sp,68
	...
  3e:	0000                	unimp
  40:	0024                	addi	s1,sp,8
  42:	0000                	unimp
  44:	0002                	0x2
  46:	0b80                	addi	s0,sp,464
  48:	0000                	unimp
  4a:	0004                	addi	s1,sp,0
  4c:	0000                	unimp
  4e:	0000                	unimp
  50:	04be                	slli	s1,s1,0xf
  52:	e000                	fsw	fs0,0(s0)
  54:	007c                	addi	a5,sp,12
  56:	0000                	unimp
  58:	0000                	unimp
  5a:	e000                	fsw	fs0,0(s0)
  5c:	0084                	addi	s1,sp,64
	...

Disassembly of section .debug_ranges:

00000000 <.debug_ranges>:
   0:	0094                	addi	a3,sp,64
   2:	0000                	unimp
   4:	00aa                	slli	ra,ra,0xa
   6:	0000                	unimp
   8:	00ae                	slli	ra,ra,0xb
   a:	0000                	unimp
   c:	00b4                	addi	a3,sp,72
   e:	0000                	unimp
  10:	00ec                	addi	a1,sp,76
  12:	0000                	unimp
  14:	00f0                	addi	a2,sp,76
	...
  1e:	0000                	unimp
  20:	00ca                	slli	ra,ra,0x12
  22:	0000                	unimp
  24:	00ce                	slli	ra,ra,0x13
  26:	0000                	unimp
  28:	0114                	addi	a3,sp,128
  2a:	0000                	unimp
  2c:	0118                	addi	a4,sp,128
	...
  36:	0000                	unimp
  38:	00ca                	slli	ra,ra,0x12
  3a:	0000                	unimp
  3c:	00ce                	slli	ra,ra,0x13
  3e:	0000                	unimp
  40:	0114                	addi	a3,sp,128
  42:	0000                	unimp
  44:	0118                	addi	a4,sp,128
	...
  4e:	0000                	unimp
  50:	00f0                	addi	a2,sp,76
  52:	0000                	unimp
  54:	00f4                	addi	a3,sp,76
  56:	0000                	unimp
  58:	0108                	addi	a0,sp,128
  5a:	0000                	unimp
  5c:	010e                	slli	sp,sp,0x3
	...
  66:	0000                	unimp
  68:	00f0                	addi	a2,sp,76
  6a:	0000                	unimp
  6c:	00f4                	addi	a3,sp,76
  6e:	0000                	unimp
  70:	0108                	addi	a0,sp,128
  72:	0000                	unimp
  74:	010e                	slli	sp,sp,0x3
	...
  7e:	0000                	unimp
  80:	0160                	addi	s0,sp,140
  82:	0000                	unimp
  84:	0170                	addi	a2,sp,140
  86:	0000                	unimp
  88:	0174                	addi	a3,sp,140
  8a:	0000                	unimp
  8c:	0180                	addi	s0,sp,192
  8e:	0000                	unimp
  90:	0182                	slli	gp,gp,0x0
  92:	0000                	unimp
  94:	018c                	addi	a1,sp,192
	...
  9e:	0000                	unimp
  a0:	0170                	addi	a2,sp,140
  a2:	0000                	unimp
  a4:	0172                	slli	sp,sp,0x1c
  a6:	0000                	unimp
  a8:	0190                	addi	a2,sp,192
  aa:	0000                	unimp
  ac:	0196                	slli	gp,gp,0x5
  ae:	0000                	unimp
  b0:	019e                	slli	gp,gp,0x7
  b2:	0000                	unimp
  b4:	01c0                	addi	s0,sp,196
	...
  be:	0000                	unimp
  c0:	01c4                	addi	s1,sp,196
  c2:	0000                	unimp
  c4:	01da                	slli	gp,gp,0x16
  c6:	0000                	unimp
  c8:	0200                	addi	s0,sp,256
  ca:	0000                	unimp
  cc:	0208                	addi	a0,sp,256
	...
  d6:	0000                	unimp
  d8:	0266                	slli	tp,tp,0x19
  da:	0000                	unimp
  dc:	0284                	addi	s1,sp,320
  de:	0000                	unimp
  e0:	029e                	slli	t0,t0,0x7
  e2:	0000                	unimp
  e4:	0394                	addi	a3,sp,448
	...
  ee:	0000                	unimp
  f0:	0276                	slli	tp,tp,0x1d
  f2:	0000                	unimp
  f4:	027e                	slli	tp,tp,0x1f
  f6:	0000                	unimp
  f8:	02ea                	slli	t0,t0,0x1a
  fa:	0000                	unimp
  fc:	02f8                	addi	a4,sp,332
	...
 106:	0000                	unimp
 108:	038a                	slli	t2,t2,0x2
 10a:	0000                	unimp
 10c:	038e                	slli	t2,t2,0x3
 10e:	0000                	unimp
 110:	0390                	addi	a2,sp,448
 112:	0000                	unimp
 114:	0394                	addi	a3,sp,448
	...
 11e:	0000                	unimp
 120:	053a                	slli	a0,a0,0xe
 122:	e000                	fsw	fs0,0(s0)
 124:	05fa                	slli	a1,a1,0x1e
 126:	e000                	fsw	fs0,0(s0)
	...
 130:	ffff                	0xffff
 132:	ffff                	0xffff
 134:	0000                	unimp
 136:	0000                	unimp
 138:	04be                	slli	s1,s1,0xf
 13a:	e000                	fsw	fs0,0(s0)
 13c:	053a                	slli	a0,a0,0xe
 13e:	e000                	fsw	fs0,0(s0)
 140:	0000                	unimp
 142:	e000                	fsw	fs0,0(s0)
 144:	0084                	addi	s1,sp,64
 146:	e000                	fsw	fs0,0(s0)
	...

Disassembly of section .debug_line:

00000000 <.debug_line>:
   0:	05c0                	addi	s0,sp,708
   2:	0000                	unimp
   4:	0002                	0x2
   6:	00e9                	addi	ra,ra,26
   8:	0000                	unimp
   a:	0101                	addi	sp,sp,0
   c:	000d0efb          	0xd0efb
  10:	0101                	addi	sp,sp,0
  12:	0101                	addi	sp,sp,0
  14:	0000                	unimp
  16:	0100                	addi	s0,sp,128
  18:	0000                	unimp
  1a:	2f01                	jal	72a <_min_stack-0x18d6>
  1c:	61726373          	csrrsi	t1,0x617,4
  20:	6374                	flw	fa3,68(a4)
  22:	2f68                	fld	fa0,216(a4)
  24:	636d                	lui	t1,0x1b
  26:	6169                	addi	sp,sp,208
  28:	696e                	flw	fs2,216(sp)
  2a:	65706f2f          	0x65706f2f
  2e:	746e                	flw	fs0,248(sp)
  30:	7469                	lui	s0,0xffffa
  32:	6e61                	lui	t3,0x18
  34:	2f77732f          	0x2f77732f
  38:	6574                	flw	fa3,76(a0)
  3a:	2f737473          	csrrci	s0,0x2f7,6
  3e:	6e65706f          	j	57724 <tohost+0x3771c>
  42:	6974                	flw	fa3,84(a0)
  44:	6174                	flw	fa3,68(a0)
  46:	2f6e                	fld	ft10,216(sp)
  48:	6d6d6f63          	bltu	s10,s6,726 <_min_stack-0x18da>
  4c:	2f006e6f          	jal	t3,633c <_min_stack+0x433c>
  50:	7375                	lui	t1,0xffffd
  52:	2f72                	fld	ft10,280(sp)
  54:	6170                	flw	fa2,68(a0)
  56:	702f6b63          	bltu	t5,sp,76c <_min_stack-0x1894>
  5a:	6c75                	lui	s8,0x1d
  5c:	7370                	flw	fa2,100(a4)
  5e:	6b64                	flw	fs1,84(a4)
  60:	312d                	jal	fffffc8a <pulp__FC+0xfffffc8b>
  62:	302e                	fld	ft0,232(sp)
  64:	6b2d                	lui	s6,0xb
  66:	612f6667          	0x612f6667
  6a:	7472                	flw	fs0,60(sp)
  6c:	6669                	lui	a2,0x1a
  6e:	6361                	lui	t1,0x18
  70:	6f74                	flw	fa3,92(a4)
  72:	7972                	flw	fs2,60(sp)
  74:	6c75702f          	0x6c75702f
  78:	2d70                	fld	fa2,216(a0)
  7a:	2d6b6473          	csrrsi	s0,0x2d6,22
  7e:	6572                	flw	fa0,28(sp)
  80:	656c                	flw	fa1,76(a0)
  82:	7361                	lui	t1,0xffff8
  84:	2f65                	jal	83c <_min_stack-0x17c4>
  86:	6b70                	flw	fa2,84(a4)
  88:	75702f67          	0x75702f67
  8c:	706c                	flw	fa1,100(s0)
  8e:	725f 7369 7663      	0x76637369725f
  94:	675f 6363 312f      	0x312f6363675f
  9a:	302e                	fld	ft0,232(sp)
  9c:	312e                	fld	ft2,232(sp)
  9e:	2f36                	fld	ft10,328(sp)
  a0:	696c                	flw	fa1,84(a0)
  a2:	2f62                	fld	ft10,24(sp)
  a4:	2f636367          	0x2f636367
  a8:	6972                	flw	fs2,28(sp)
  aa:	33766373          	csrrsi	t1,0x337,12
  ae:	2d32                	fld	fs10,264(sp)
  b0:	6e75                	lui	t3,0x1d
  b2:	776f6e6b          	0x776f6e6b
  b6:	2d6e                	fld	fs10,216(sp)
  b8:	6c65                	lui	s8,0x19
  ba:	2f66                	fld	ft10,88(sp)
  bc:	2e312e37          	lui	t3,0x2e312
  c0:	2f31                	jal	7dc <_min_stack-0x1824>
  c2:	6e69                	lui	t3,0x1a
  c4:	64756c63          	bltu	a0,t2,71c <_min_stack-0x18e4>
  c8:	0065                	c.addi	zero,25
  ca:	7500                	flw	fs0,40(a0)
  cc:	6974                	flw	fa3,84(a0)
  ce:	736c                	flw	fa1,100(a4)
  d0:	632e                	flw	ft6,200(sp)
  d2:	0100                	addi	s0,sp,128
  d4:	0000                	unimp
  d6:	61647473          	csrrci	s0,0x616,8
  da:	6772                	flw	fa4,28(sp)
  dc:	682e                	flw	fa6,200(sp)
  de:	0200                	addi	s0,sp,256
  e0:	0000                	unimp
  e2:	69647473          	csrrci	s0,0x696,8
  e6:	746e                	flw	fs0,248(sp)
  e8:	672d                	lui	a4,0xb
  ea:	682e6363          	bltu	t3,sp,770 <_min_stack-0x1890>
  ee:	0200                	addi	s0,sp,256
  f0:	0000                	unimp
  f2:	0000                	unimp
  f4:	0205                	addi	tp,tp,1
  f6:	0084                	addi	s1,sp,64
  f8:	e000                	fsw	fs0,0(s0)
  fa:	03012903          	lw	s2,48(sp) # 30 <_min_stack-0x1fd0>
  fe:	0902                	slli	s2,s2,0x0
 100:	0000                	unimp
 102:	0301                	addi	t1,t1,0
 104:	0901                	addi	s2,s2,0
 106:	000a                	0xa
 108:	0301                	addi	t1,t1,0
 10a:	0901                	addi	s2,s2,0
 10c:	0006                	0x6
 10e:	0301                	addi	t1,t1,0
 110:	0901                	addi	s2,s2,0
 112:	0006                	0x6
 114:	0301                	addi	t1,t1,0
 116:	0901                	addi	s2,s2,0
 118:	0006                	0x6
 11a:	0301                	addi	t1,t1,0
 11c:	0902                	slli	s2,s2,0x0
 11e:	0004                	addi	s1,sp,0
 120:	0301                	addi	t1,t1,0
 122:	0901                	addi	s2,s2,0
 124:	000c                	addi	a1,sp,0
 126:	0301                	addi	t1,t1,0
 128:	0902                	slli	s2,s2,0x0
 12a:	0002                	0x2
 12c:	0301                	addi	t1,t1,0
 12e:	00000907          	0x907
 132:	0301                	addi	t1,t1,0
 134:	097c                	addi	a5,sp,156
 136:	0004                	addi	s1,sp,0
 138:	0301                	addi	t1,t1,0
 13a:	090d                	addi	s2,s2,3
 13c:	0002                	0x2
 13e:	0001                	nop
 140:	0402                	slli	s0,s0,0x0
 142:	0301                	addi	t1,t1,0
 144:	00020977          	0x20977
 148:	0001                	nop
 14a:	0402                	slli	s0,s0,0x0
 14c:	0304                	addi	s1,sp,384
 14e:	0904                	addi	s1,sp,144
 150:	000c                	addi	a1,sp,0
 152:	0001                	nop
 154:	0402                	slli	s0,s0,0x0
 156:	0304                	addi	s1,sp,384
 158:	0902                	slli	s2,s2,0x0
 15a:	0006                	0x6
 15c:	0001                	nop
 15e:	0402                	slli	s0,s0,0x0
 160:	0304                	addi	s1,sp,384
 162:	097e                	slli	s2,s2,0x1f
 164:	0002                	0x2
 166:	0001                	nop
 168:	0402                	slli	s0,s0,0x0
 16a:	0304                	addi	s1,sp,384
 16c:	097e                	slli	s2,s2,0x1f
 16e:	0002                	0x2
 170:	0001                	nop
 172:	0402                	slli	s0,s0,0x0
 174:	00030603          	lb	a2,0(t1) # ffff8000 <pulp__FC+0xffff8001>
 178:	0409                	addi	s0,s0,2
 17a:	0100                	addi	s0,sp,128
 17c:	0306                	slli	t1,t1,0x1
 17e:	0909                	addi	s2,s2,2
 180:	0004                	addi	s1,sp,0
 182:	0301                	addi	t1,t1,0
 184:	0901                	addi	s2,s2,0
 186:	0000                	unimp
 188:	0001                	nop
 18a:	0402                	slli	s0,s0,0x0
 18c:	0601                	addi	a2,a2,0
 18e:	04090003          	lb	zero,64(s2) # fffe2040 <pulp__FC+0xfffe2041>
 192:	0100                	addi	s0,sp,128
 194:	0306                	slli	t1,t1,0x1
 196:	0902                	slli	s2,s2,0x0
 198:	0006                	0x6
 19a:	0301                	addi	t1,t1,0
 19c:	0901                	addi	s2,s2,0
 19e:	0002                	0x2
 1a0:	0301                	addi	t1,t1,0
 1a2:	0902                	slli	s2,s2,0x0
 1a4:	0006                	0x6
 1a6:	0301                	addi	t1,t1,0
 1a8:	0902                	slli	s2,s2,0x0
 1aa:	0000                	unimp
 1ac:	0001                	nop
 1ae:	0402                	slli	s0,s0,0x0
 1b0:	0601                	addi	a2,a2,0
 1b2:	04090003          	lb	zero,64(s2)
 1b6:	0100                	addi	s0,sp,128
 1b8:	0306                	slli	t1,t1,0x1
 1ba:	00080903          	lb	s2,0(a6)
 1be:	0301                	addi	t1,t1,0
 1c0:	0901                	addi	s2,s2,0
 1c2:	0002                	0x2
 1c4:	0301                	addi	t1,t1,0
 1c6:	00c8                	addi	a0,sp,68
 1c8:	0209                	addi	tp,tp,2
 1ca:	0100                	addi	s0,sp,128
 1cc:	0e090003          	lb	zero,224(s2)
 1d0:	0100                	addi	s0,sp,128
 1d2:	04090203          	lb	tp,64(s2)
 1d6:	0100                	addi	s0,sp,128
 1d8:	04090203          	lb	tp,64(s2)
 1dc:	0100                	addi	s0,sp,128
 1de:	08090303          	lb	t1,128(s2)
 1e2:	0100                	addi	s0,sp,128
 1e4:	0c090103          	lb	sp,192(s2)
 1e8:	0100                	addi	s0,sp,128
 1ea:	04090103          	lb	sp,64(s2)
 1ee:	0100                	addi	s0,sp,128
 1f0:	02090103          	lb	sp,32(s2)
 1f4:	0100                	addi	s0,sp,128
 1f6:	04097803          	0x4097803
 1fa:	0100                	addi	s0,sp,128
 1fc:	04090803          	lb	a6,64(s2)
 200:	0100                	addi	s0,sp,128
 202:	06090203          	lb	tp,96(s2)
 206:	0100                	addi	s0,sp,128
 208:	04097603          	0x4097603
 20c:	0100                	addi	s0,sp,128
 20e:	06091003          	lh	zero,96(s2)
 212:	0100                	addi	s0,sp,128
 214:	0c095f03          	lhu	t5,192(s2)
 218:	0100                	addi	s0,sp,128
 21a:	04092503          	lw	a0,64(s2)
 21e:	0100                	addi	s0,sp,128
 220:	04090503          	lb	a0,64(s2)
 224:	0100                	addi	s0,sp,128
 226:	06090103          	lb	sp,96(s2)
 22a:	0100                	addi	s0,sp,128
 22c:	14096c03          	p.elw	s8,320(s2)
 230:	0100                	addi	s0,sp,128
 232:	04096903          	p.elw	s2,64(s2)
 236:	0100                	addi	s0,sp,128
 238:	04091c03          	lh	s8,64(s2)
 23c:	0100                	addi	s0,sp,128
 23e:	12097f03          	0x12097f03
 242:	0100                	addi	s0,sp,128
 244:	02096503          	p.elw	a0,32(s2)
 248:	0100                	addi	s0,sp,128
 24a:	08092103          	lw	sp,128(s2)
 24e:	0100                	addi	s0,sp,128
 250:	04095f03          	lhu	t5,64(s2)
 254:	0100                	addi	s0,sp,128
 256:	04092503          	lw	a0,64(s2)
 25a:	0100                	addi	s0,sp,128
 25c:	04090803          	lb	a6,64(s2)
 260:	0100                	addi	s0,sp,128
 262:	08090003          	lb	zero,128(s2)
 266:	0100                	addi	s0,sp,128
 268:	04090703          	lb	a4,64(s2)
 26c:	0100                	addi	s0,sp,128
 26e:	02090203          	lb	tp,32(s2)
 272:	0100                	addi	s0,sp,128
 274:	04090203          	lb	tp,64(s2)
 278:	0100                	addi	s0,sp,128
 27a:	04097e03          	0x4097e03
 27e:	0100                	addi	s0,sp,128
 280:	04090203          	lb	tp,64(s2)
 284:	0100                	addi	s0,sp,128
 286:	02092d03          	lw	s10,32(s2)
 28a:	0100                	addi	s0,sp,128
 28c:	0a095603          	lhu	a2,160(s2)
 290:	0100                	addi	s0,sp,128
 292:	0c090303          	lb	t1,192(s2)
 296:	0100                	addi	s0,sp,128
 298:	04090403          	lb	s0,64(s2)
 29c:	0100                	addi	s0,sp,128
 29e:	04090303          	lb	t1,64(s2)
 2a2:	0100                	addi	s0,sp,128
 2a4:	02097c03          	0x2097c03
 2a8:	0100                	addi	s0,sp,128
 2aa:	04090403          	lb	s0,64(s2)
 2ae:	0100                	addi	s0,sp,128
 2b0:	097fb503          	0x97fb503
 2b4:	0004                	addi	s1,sp,0
 2b6:	0301                	addi	t1,t1,0
 2b8:	0901                	addi	s2,s2,0
 2ba:	0004                	addi	s1,sp,0
 2bc:	0301                	addi	t1,t1,0
 2be:	097f                	0x97f
 2c0:	0008                	addi	a0,sp,0
 2c2:	0301                	addi	t1,t1,0
 2c4:	0975                	addi	s2,s2,29
 2c6:	0004                	addi	s1,sp,0
 2c8:	0301                	addi	t1,t1,0
 2ca:	020900e3          	beqz	s2,aea <_min_stack-0x1516>
 2ce:	0100                	addi	s0,sp,128
 2d0:	097fa803          	lw	a6,151(t6)
 2d4:	0002                	0x2
 2d6:	0301                	addi	t1,t1,0
 2d8:	00d9                	addi	ra,ra,22
 2da:	0c09                	addi	s8,s8,2
 2dc:	0100                	addi	s0,sp,128
 2de:	097fa703          	lw	a4,151(t6)
 2e2:	0002                	0x2
 2e4:	0301                	addi	t1,t1,0
 2e6:	0901                	addi	s2,s2,0
 2e8:	0008                	addi	a0,sp,0
 2ea:	0301                	addi	t1,t1,0
 2ec:	00d8                	addi	a4,sp,68
 2ee:	0209                	addi	tp,tp,2
 2f0:	0100                	addi	s0,sp,128
 2f2:	097f9703          	lh	a4,151(t6)
 2f6:	0004                	addi	s1,sp,0
 2f8:	0301                	addi	t1,t1,0
 2fa:	00e9                	addi	ra,ra,26
 2fc:	0609                	addi	a2,a2,2
 2fe:	0100                	addi	s0,sp,128
 300:	097f9803          	lh	a6,151(t6)
 304:	0008                	addi	a0,sp,0
 306:	0301                	addi	t1,t1,0
 308:	0901                	addi	s2,s2,0
 30a:	0006                	0x6
 30c:	0301                	addi	t1,t1,0
 30e:	0901                	addi	s2,s2,0
 310:	0006                	0x6
 312:	0301                	addi	t1,t1,0
 314:	0901                	addi	s2,s2,0
 316:	0006                	0x6
 318:	0301                	addi	t1,t1,0
 31a:	0901                	addi	s2,s2,0
 31c:	0002                	0x2
 31e:	0301                	addi	t1,t1,0
 320:	0902                	slli	s2,s2,0x0
 322:	0004                	addi	s1,sp,0
 324:	0301                	addi	t1,t1,0
 326:	00c0                	addi	s0,sp,68
 328:	0a09                	addi	s4,s4,2
 32a:	0100                	addi	s0,sp,128
 32c:	04091703          	lh	a4,64(s2)
 330:	0100                	addi	s0,sp,128
 332:	04090203          	lb	tp,64(s2)
 336:	0100                	addi	s0,sp,128
 338:	04090103          	lb	sp,64(s2)
 33c:	0100                	addi	s0,sp,128
 33e:	02090203          	lb	tp,32(s2)
 342:	0100                	addi	s0,sp,128
 344:	0a090103          	lb	sp,160(s2)
 348:	0100                	addi	s0,sp,128
 34a:	02097903          	0x2097903
 34e:	0100                	addi	s0,sp,128
 350:	02091103          	lh	sp,32(s2)
 354:	0100                	addi	s0,sp,128
 356:	02090103          	lb	sp,32(s2)
 35a:	0100                	addi	s0,sp,128
 35c:	097fa703          	lw	a4,151(t6)
 360:	0008                	addi	a0,sp,0
 362:	0301                	addi	t1,t1,0
 364:	00dd                	addi	ra,ra,23
 366:	0a09                	addi	s4,s4,2
 368:	0100                	addi	s0,sp,128
 36a:	06090703          	lb	a4,96(s2)
 36e:	0100                	addi	s0,sp,128
 370:	0a096603          	p.elw	a2,160(s2)
 374:	0100                	addi	s0,sp,128
 376:	02090103          	lb	sp,32(s2)
 37a:	0100                	addi	s0,sp,128
 37c:	06091603          	lh	a2,96(s2)
 380:	0100                	addi	s0,sp,128
 382:	08095003          	lhu	zero,128(s2)
 386:	0100                	addi	s0,sp,128
 388:	02093003          	0x2093003
 38c:	0100                	addi	s0,sp,128
 38e:	097ee803          	p.elw	a6,151(t4)
 392:	0004                	addi	s1,sp,0
 394:	0301                	addi	t1,t1,0
 396:	0902                	slli	s2,s2,0x0
 398:	0000                	unimp
 39a:	0001                	nop
 39c:	0402                	slli	s0,s0,0x0
 39e:	0601                	addi	a2,a2,0
 3a0:	04090003          	lb	zero,64(s2)
 3a4:	0100                	addi	s0,sp,128
 3a6:	0306                	slli	t1,t1,0x1
 3a8:	0901                	addi	s2,s2,0
 3aa:	0008                	addi	a0,sp,0
 3ac:	0301                	addi	t1,t1,0
 3ae:	00020933          	add	s2,tp,zero
 3b2:	0301                	addi	t1,t1,0
 3b4:	0901                	addi	s2,s2,0
 3b6:	0006                	0x6
 3b8:	0301                	addi	t1,t1,0
 3ba:	097f                	0x97f
 3bc:	0004                	addi	s1,sp,0
 3be:	0301                	addi	t1,t1,0
 3c0:	0901                	addi	s2,s2,0
 3c2:	0002                	0x2
 3c4:	0301                	addi	t1,t1,0
 3c6:	0902                	slli	s2,s2,0x0
 3c8:	0002                	0x2
 3ca:	0301                	addi	t1,t1,0
 3cc:	01aa                	slli	gp,gp,0xa
 3ce:	0a09                	addi	s4,s4,2
 3d0:	0100                	addi	s0,sp,128
 3d2:	04090403          	lb	s0,64(s2)
 3d6:	0100                	addi	s0,sp,128
 3d8:	02097c03          	0x2097c03
 3dc:	0100                	addi	s0,sp,128
 3de:	12090003          	lb	zero,288(s2)
 3e2:	0100                	addi	s0,sp,128
 3e4:	10090403          	lb	s0,256(s2)
 3e8:	0100                	addi	s0,sp,128
 3ea:	097fba03          	0x97fba03
 3ee:	0002                	0x2
 3f0:	0301                	addi	t1,t1,0
 3f2:	0905                	addi	s2,s2,1
 3f4:	0002                	0x2
 3f6:	0301                	addi	t1,t1,0
 3f8:	0906                	slli	s2,s2,0x1
 3fa:	0004                	addi	s1,sp,0
 3fc:	0301                	addi	t1,t1,0
 3fe:	0905                	addi	s2,s2,1
 400:	0004                	addi	s1,sp,0
 402:	0301                	addi	t1,t1,0
 404:	0906                	slli	s2,s2,0x1
 406:	0004                	addi	s1,sp,0
 408:	0301                	addi	t1,t1,0
 40a:	0905                	addi	s2,s2,1
 40c:	0002                	0x2
 40e:	0301                	addi	t1,t1,0
 410:	0968                	addi	a0,sp,156
 412:	0008                	addi	a0,sp,0
 414:	0301                	addi	t1,t1,0
 416:	060900cb          	0x60900cb
 41a:	0100                	addi	s0,sp,128
 41c:	097fb703          	0x97fb703
 420:	001a                	0x1a
 422:	0301                	addi	t1,t1,0
 424:	0904                	addi	s1,sp,144
 426:	0004                	addi	s1,sp,0
 428:	0301                	addi	t1,t1,0
 42a:	0901                	addi	s2,s2,0
 42c:	000a                	0xa
 42e:	0301                	addi	t1,t1,0
 430:	097e                	slli	s2,s2,0x1f
 432:	0004                	addi	s1,sp,0
 434:	0301                	addi	t1,t1,0
 436:	00020903          	lb	s2,0(tp) # 19000 <_stack_len+0x11000>
 43a:	0301                	addi	t1,t1,0
 43c:	0902                	slli	s2,s2,0x0
 43e:	0004                	addi	s1,sp,0
 440:	0301                	addi	t1,t1,0
 442:	0901                	addi	s2,s2,0
 444:	0004                	addi	s1,sp,0
 446:	0301                	addi	t1,t1,0
 448:	0902                	slli	s2,s2,0x0
 44a:	0004                	addi	s1,sp,0
 44c:	0301                	addi	t1,t1,0
 44e:	0978                	addi	a4,sp,156
 450:	000c                	addi	a1,sp,0
 452:	0301                	addi	t1,t1,0
 454:	090d                	addi	s2,s2,3
 456:	0002                	0x2
 458:	0301                	addi	t1,t1,0
 45a:	0904                	addi	s1,sp,144
 45c:	0016                	0x16
 45e:	0301                	addi	t1,t1,0
 460:	0901                	addi	s2,s2,0
 462:	0008                	addi	a0,sp,0
 464:	0301                	addi	t1,t1,0
 466:	0901                	addi	s2,s2,0
 468:	0006                	0x6
 46a:	0301                	addi	t1,t1,0
 46c:	0916                	slli	s2,s2,0x5
 46e:	0008                	addi	a0,sp,0
 470:	0301                	addi	t1,t1,0
 472:	0962                	slli	s2,s2,0x18
 474:	0004                	addi	s1,sp,0
 476:	0301                	addi	t1,t1,0
 478:	097f                	0x97f
 47a:	0004                	addi	s1,sp,0
 47c:	0301                	addi	t1,t1,0
 47e:	0904                	addi	s1,sp,144
 480:	0004                	addi	s1,sp,0
 482:	0301                	addi	t1,t1,0
 484:	097f                	0x97f
 486:	0004                	addi	s1,sp,0
 488:	0301                	addi	t1,t1,0
 48a:	0902                	slli	s2,s2,0x0
 48c:	0002                	0x2
 48e:	0301                	addi	t1,t1,0
 490:	00040907          	0x40907
 494:	0301                	addi	t1,t1,0
 496:	0901                	addi	s2,s2,0
 498:	0008                	addi	a0,sp,0
 49a:	0301                	addi	t1,t1,0
 49c:	0964                	addi	s1,sp,156
 49e:	0014                	addi	a3,sp,0
 4a0:	0301                	addi	t1,t1,0
 4a2:	091f 0004 0301      	0x3010004091f
 4a8:	0901                	addi	s2,s2,0
 4aa:	0008                	addi	a0,sp,0
 4ac:	0301                	addi	t1,t1,0
 4ae:	000c0903          	lb	s2,0(s8) # 19000 <_stack_len+0x11000>
 4b2:	0301                	addi	t1,t1,0
 4b4:	0901                	addi	s2,s2,0
 4b6:	0008                	addi	a0,sp,0
 4b8:	0301                	addi	t1,t1,0
 4ba:	0904                	addi	s1,sp,144
 4bc:	0008                	addi	a0,sp,0
 4be:	0301                	addi	t1,t1,0
 4c0:	097f                	0x97f
 4c2:	0006                	0x6
 4c4:	0301                	addi	t1,t1,0
 4c6:	0901                	addi	s2,s2,0
 4c8:	0008                	addi	a0,sp,0
 4ca:	0301                	addi	t1,t1,0
 4cc:	000a0903          	lb	s2,0(s4)
 4d0:	0301                	addi	t1,t1,0
 4d2:	0901                	addi	s2,s2,0
 4d4:	0008                	addi	a0,sp,0
 4d6:	0301                	addi	t1,t1,0
 4d8:	0901                	addi	s2,s2,0
 4da:	0006                	0x6
 4dc:	0301                	addi	t1,t1,0
 4de:	097f                	0x97f
 4e0:	0004                	addi	s1,sp,0
 4e2:	0301                	addi	t1,t1,0
 4e4:	0902                	slli	s2,s2,0x0
 4e6:	0004                	addi	s1,sp,0
 4e8:	0301                	addi	t1,t1,0
 4ea:	0956                	slli	s2,s2,0x15
 4ec:	0008                	addi	a0,sp,0
 4ee:	0301                	addi	t1,t1,0
 4f0:	02097f8f          	0x2097f8f
 4f4:	0100                	addi	s0,sp,128
 4f6:	0901a303          	lw	t1,144(gp) # 12a <_min_stack-0x1ed6>
 4fa:	0004                	addi	s1,sp,0
 4fc:	0301                	addi	t1,t1,0
 4fe:	7edd                	lui	t4,0xffff7
 500:	0209                	addi	tp,tp,2
 502:	0100                	addi	s0,sp,128
 504:	097f8f03          	lb	t5,151(t6)
 508:	0004                	addi	s1,sp,0
 50a:	0301                	addi	t1,t1,0
 50c:	0901                	addi	s2,s2,0
 50e:	0000                	unimp
 510:	0301                	addi	t1,t1,0
 512:	0a0902ab          	p.sb	zero,165(s2!)
 516:	0100                	addi	s0,sp,128
 518:	0a090003          	lb	zero,160(s2)
 51c:	0100                	addi	s0,sp,128
 51e:	02090303          	lb	t1,32(s2)
 522:	0100                	addi	s0,sp,128
 524:	097ec203          	lbu	tp,151(t4) # ffff7097 <pulp__FC+0xffff7098>
 528:	000e                	0xe
 52a:	0301                	addi	t1,t1,0
 52c:	01c4                	addi	s1,sp,196
 52e:	0409                	addi	s0,s0,2
 530:	0100                	addi	s0,sp,128
 532:	097ebc03          	0x97ebc03
 536:	000e                	0xe
 538:	0301                	addi	t1,t1,0
 53a:	01c6                	slli	gp,gp,0x11
 53c:	0409                	addi	s0,s0,2
 53e:	0100                	addi	s0,sp,128
 540:	10091103          	lh	sp,256(s2)
 544:	0100                	addi	s0,sp,128
 546:	0200                	addi	s0,sp,256
 548:	0104                	addi	s1,sp,128
 54a:	0306                	slli	t1,t1,0x1
 54c:	0900                	addi	s0,sp,144
 54e:	0008                	addi	a0,sp,0
 550:	0601                	addi	a2,a2,0
 552:	0a090303          	lb	t1,160(s2)
 556:	0100                	addi	s0,sp,128
 558:	08090203          	lb	tp,128(s2)
 55c:	0100                	addi	s0,sp,128
 55e:	02090203          	lb	tp,32(s2)
 562:	0100                	addi	s0,sp,128
 564:	02090703          	lb	a4,32(s2)
 568:	0100                	addi	s0,sp,128
 56a:	04097a03          	0x4097a03
 56e:	0100                	addi	s0,sp,128
 570:	02090103          	lb	sp,32(s2)
 574:	0100                	addi	s0,sp,128
 576:	02090103          	lb	sp,32(s2)
 57a:	0100                	addi	s0,sp,128
 57c:	02090103          	lb	sp,32(s2)
 580:	0100                	addi	s0,sp,128
 582:	04090303          	lb	t1,64(s2)
 586:	0100                	addi	s0,sp,128
 588:	0200                	addi	s0,sp,256
 58a:	0104                	addi	s1,sp,128
 58c:	0306                	slli	t1,t1,0x1
 58e:	0900                	addi	s0,sp,144
 590:	0008                	addi	a0,sp,0
 592:	0001                	nop
 594:	0402                	slli	s0,s0,0x0
 596:	0302                	slli	t1,t1,0x0
 598:	0900                	addi	s0,sp,144
 59a:	0004                	addi	s1,sp,0
 59c:	0001                	nop
 59e:	0402                	slli	s0,s0,0x0
 5a0:	09000303          	lb	t1,144(zero) # 90 <_min_stack-0x1f70>
 5a4:	0004                	addi	s1,sp,0
 5a6:	0001                	nop
 5a8:	0402                	slli	s0,s0,0x0
 5aa:	0304                	addi	s1,sp,384
 5ac:	0900                	addi	s0,sp,144
 5ae:	0004                	addi	s1,sp,0
 5b0:	0601                	addi	a2,a2,0
 5b2:	04090203          	lb	tp,64(s2)
 5b6:	0100                	addi	s0,sp,128
 5b8:	04090403          	lb	s0,64(s2)
 5bc:	0100                	addi	s0,sp,128
 5be:	1409                	addi	s0,s0,-30
 5c0:	0000                	unimp
 5c2:	0101                	addi	sp,sp,0
 5c4:	000001b3          	add	gp,zero,zero
 5c8:	0002                	0x2
 5ca:	00fd                	addi	ra,ra,31
 5cc:	0000                	unimp
 5ce:	0101                	addi	sp,sp,0
 5d0:	000d0efb          	0xd0efb
 5d4:	0101                	addi	sp,sp,0
 5d6:	0101                	addi	sp,sp,0
 5d8:	0000                	unimp
 5da:	0100                	addi	s0,sp,128
 5dc:	0000                	unimp
 5de:	2e01                	jal	8ee <_min_stack-0x1712>
 5e0:	2f2e                	fld	ft10,200(sp)
 5e2:	6d68                	flw	fa0,92(a0)
 5e4:	6361                	lui	t1,0x18
 5e6:	735f 6f6d 656b      	0x656b6f6d735f
 5ec:	6574                	flw	fa3,76(a0)
 5ee:	2e007473          	csrrci	s0,0x2e0,0
 5f2:	2f2e                	fld	ft10,200(sp)
 5f4:	6d6d6f63          	bltu	s10,s6,cd2 <_min_stack-0x132e>
 5f8:	2f006e6f          	jal	t3,68e8 <_min_stack+0x48e8>
 5fc:	7375                	lui	t1,0xffffd
 5fe:	2f72                	fld	ft10,280(sp)
 600:	6170                	flw	fa2,68(a0)
 602:	702f6b63          	bltu	t5,sp,d18 <_min_stack-0x12e8>
 606:	6c75                	lui	s8,0x1d
 608:	7370                	flw	fa2,100(a4)
 60a:	6b64                	flw	fs1,84(a4)
 60c:	312d                	jal	236 <_min_stack-0x1dca>
 60e:	302e                	fld	ft0,232(sp)
 610:	6b2d                	lui	s6,0xb
 612:	612f6667          	0x612f6667
 616:	7472                	flw	fs0,60(sp)
 618:	6669                	lui	a2,0x1a
 61a:	6361                	lui	t1,0x18
 61c:	6f74                	flw	fa3,92(a4)
 61e:	7972                	flw	fs2,60(sp)
 620:	6c75702f          	0x6c75702f
 624:	2d70                	fld	fa2,216(a0)
 626:	2d6b6473          	csrrsi	s0,0x2d6,22
 62a:	6572                	flw	fa0,28(sp)
 62c:	656c                	flw	fa1,76(a0)
 62e:	7361                	lui	t1,0xffff8
 630:	2f65                	jal	de8 <_min_stack-0x1218>
 632:	6b70                	flw	fa2,84(a4)
 634:	75702f67          	0x75702f67
 638:	706c                	flw	fa1,100(s0)
 63a:	725f 7369 7663      	0x76637369725f
 640:	675f 6363 312f      	0x312f6363675f
 646:	302e                	fld	ft0,232(sp)
 648:	312e                	fld	ft2,232(sp)
 64a:	2f36                	fld	ft10,328(sp)
 64c:	696c                	flw	fa1,84(a0)
 64e:	2f62                	fld	ft10,24(sp)
 650:	2f636367          	0x2f636367
 654:	6972                	flw	fs2,28(sp)
 656:	33766373          	csrrsi	t1,0x337,12
 65a:	2d32                	fld	fs10,264(sp)
 65c:	6e75                	lui	t3,0x1d
 65e:	776f6e6b          	0x776f6e6b
 662:	2d6e                	fld	fs10,216(sp)
 664:	6c65                	lui	s8,0x19
 666:	2f66                	fld	ft10,88(sp)
 668:	2e312e37          	lui	t3,0x2e312
 66c:	2f31                	jal	d88 <_min_stack-0x1278>
 66e:	6e69                	lui	t3,0x1a
 670:	64756c63          	bltu	a0,t2,cc8 <_min_stack-0x1338>
 674:	0065                	c.addi	zero,25
 676:	7000                	flw	fs0,32(s0)
 678:	6572                	flw	fa0,28(sp)
 67a:	6f62                	flw	ft10,24(sp)
 67c:	635f746f          	jal	s0,f84b0 <tohost+0xd84a8>
 680:	5f65646f          	jal	s0,56c76 <tohost+0x36c6e>
 684:	6d68                	flw	fa0,92(a0)
 686:	6361                	lui	t1,0x18
 688:	725f 6165 2e64      	0x2e646165725f
 68e:	00000063          	beqz	zero,68e <_min_stack-0x1972>
 692:	6800                	flw	fs0,16(s0)
 694:	616d                	addi	sp,sp,240
 696:	6d735f63          	ble	s7,t1,d74 <_min_stack-0x128c>
 69a:	74656b6f          	jal	s6,56de0 <tohost+0x36dd8>
 69e:	7365                	lui	t1,0xffff9
 6a0:	5f74                	lw	a3,124(a4)
 6a2:	61656c63          	bltu	a0,s6,cba <_min_stack-0x1346>
 6a6:	3372                	fld	ft6,312(sp)
 6a8:	2e32                	fld	ft8,264(sp)
 6aa:	0068                	addi	a0,sp,12
 6ac:	0001                	nop
 6ae:	7500                	flw	fs0,40(a0)
 6b0:	6974                	flw	fa3,84(a0)
 6b2:	736c                	flw	fa1,100(a4)
 6b4:	682e                	flw	fa6,200(sp)
 6b6:	0200                	addi	s0,sp,256
 6b8:	0000                	unimp
 6ba:	69647473          	csrrci	s0,0x696,8
 6be:	746e                	flw	fs0,248(sp)
 6c0:	672d                	lui	a4,0xb
 6c2:	682e6363          	bltu	t3,sp,d48 <_min_stack-0x12b8>
 6c6:	0300                	addi	s0,sp,384
 6c8:	0000                	unimp
 6ca:	0000                	unimp
 6cc:	0205                	addi	tp,tp,1
 6ce:	053a                	slli	a0,a0,0xe
 6d0:	e000                	fsw	fs0,0(s0)
 6d2:	03011203          	lh	tp,48(sp)
 6d6:	0914                	addi	a3,sp,144
 6d8:	0006                	0x6
 6da:	0301                	addi	t1,t1,0
 6dc:	00080903          	lb	s2,0(a6)
 6e0:	0301                	addi	t1,t1,0
 6e2:	0969                	addi	s2,s2,26
 6e4:	0004                	addi	s1,sp,0
 6e6:	0301                	addi	t1,t1,0
 6e8:	0914                	addi	a3,sp,144
 6ea:	0012                	0x12
 6ec:	0301                	addi	t1,t1,0
 6ee:	0971                	addi	s2,s2,28
 6f0:	0004                	addi	s1,sp,0
 6f2:	0301                	addi	t1,t1,0
 6f4:	0919                	addi	s2,s2,6
 6f6:	0002                	0x2
 6f8:	0301                	addi	t1,t1,0
 6fa:	097e                	slli	s2,s2,0x1f
 6fc:	0008                	addi	a0,sp,0
 6fe:	0301                	addi	t1,t1,0
 700:	0008097b          	0x8097b
 704:	0301                	addi	t1,t1,0
 706:	0902                	slli	s2,s2,0x0
 708:	0004                	addi	s1,sp,0
 70a:	0301                	addi	t1,t1,0
 70c:	0901                	addi	s2,s2,0
 70e:	0004                	addi	s1,sp,0
 710:	0301                	addi	t1,t1,0
 712:	0901                	addi	s2,s2,0
 714:	0008                	addi	a0,sp,0
 716:	0301                	addi	t1,t1,0
 718:	0901                	addi	s2,s2,0
 71a:	0004                	addi	s1,sp,0
 71c:	0301                	addi	t1,t1,0
 71e:	0906                	slli	s2,s2,0x1
 720:	0006                	0x6
 722:	0301                	addi	t1,t1,0
 724:	0901                	addi	s2,s2,0
 726:	0002                	0x2
 728:	0301                	addi	t1,t1,0
 72a:	0901                	addi	s2,s2,0
 72c:	0004                	addi	s1,sp,0
 72e:	0301                	addi	t1,t1,0
 730:	0901                	addi	s2,s2,0
 732:	0004                	addi	s1,sp,0
 734:	0001                	nop
 736:	0402                	slli	s0,s0,0x0
 738:	0302                	slli	t1,t1,0x0
 73a:	0972                	slli	s2,s2,0x1c
 73c:	000c                	addi	a1,sp,0
 73e:	0301                	addi	t1,t1,0
 740:	0916                	slli	s2,s2,0x5
 742:	0004                	addi	s1,sp,0
 744:	0301                	addi	t1,t1,0
 746:	0901                	addi	s2,s2,0
 748:	0016                	0x16
 74a:	0301                	addi	t1,t1,0
 74c:	0905                	addi	s2,s2,1
 74e:	000e                	0xe
 750:	0301                	addi	t1,t1,0
 752:	097c                	addi	a5,sp,156
 754:	0004                	addi	s1,sp,0
 756:	0301                	addi	t1,t1,0
 758:	0904                	addi	s1,sp,144
 75a:	0008                	addi	a0,sp,0
 75c:	0301                	addi	t1,t1,0
 75e:	0010096b          	0x10096b
 762:	0301                	addi	t1,t1,0
 764:	0901                	addi	s2,s2,0
 766:	0004                	addi	s1,sp,0
 768:	0301                	addi	t1,t1,0
 76a:	0908                	addi	a0,sp,144
 76c:	0004                	addi	s1,sp,0
 76e:	0301                	addi	t1,t1,0
 770:	0901                	addi	s2,s2,0
 772:	0006                	0x6
 774:	0901                	addi	s2,s2,0
 776:	0004                	addi	s1,sp,0
 778:	0100                	addi	s0,sp,128
 77a:	9c01                	0x9c01
 77c:	0001                	nop
 77e:	0200                	addi	s0,sp,256
 780:	5100                	lw	s0,32(a0)
 782:	0000                	unimp
 784:	0100                	addi	s0,sp,128
 786:	fb01                	bnez	a4,696 <_min_stack-0x196a>
 788:	0d0e                	slli	s10,s10,0x3
 78a:	0100                	addi	s0,sp,128
 78c:	0101                	addi	sp,sp,0
 78e:	0001                	nop
 790:	0000                	unimp
 792:	0001                	nop
 794:	0100                	addi	s0,sp,128
 796:	7263732f          	0x7263732f
 79a:	7461                	lui	s0,0xffff8
 79c:	6d2f6863          	bltu	t5,s2,e6c <_min_stack-0x1194>
 7a0:	6e616963          	bltu	sp,t1,e92 <_min_stack-0x116e>
 7a4:	2f69                	jal	f3e <_min_stack-0x10c2>
 7a6:	6e65706f          	j	57e8c <tohost+0x37e84>
 7aa:	6974                	flw	fa3,84(a0)
 7ac:	6174                	flw	fa3,68(a0)
 7ae:	2f6e                	fld	ft10,216(sp)
 7b0:	742f7773          	csrrci	a4,0x742,30
 7b4:	7365                	lui	t1,0xffff9
 7b6:	7374                	flw	fa3,100(a4)
 7b8:	65706f2f          	0x65706f2f
 7bc:	746e                	flw	fs0,248(sp)
 7be:	7469                	lui	s0,0xffffa
 7c0:	6e61                	lui	t3,0x18
 7c2:	6d6f632f          	0x6d6f632f
 7c6:	6f6d                	lui	t5,0x1b
 7c8:	006e                	0x6e
 7ca:	6300                	flw	fs0,0(a4)
 7cc:	7472                	flw	fs0,60(sp)
 7ce:	2e30                	fld	fa2,88(a2)
 7d0:	00010053          	fadd.s	ft0,ft2,ft0,rne
 7d4:	0000                	unimp
 7d6:	0500                	addi	s0,sp,640
 7d8:	be02                	fsd	ft0,312(sp)
 7da:	0004                	addi	s1,sp,0
 7dc:	1ae0                	addi	s0,sp,380
 7de:	04090403          	lb	s0,64(s2)
 7e2:	0100                	addi	s0,sp,128
 7e4:	04090103          	lb	sp,64(s2)
 7e8:	0100                	addi	s0,sp,128
 7ea:	02090103          	lb	sp,32(s2)
 7ee:	0100                	addi	s0,sp,128
 7f0:	02090103          	lb	sp,32(s2)
 7f4:	0100                	addi	s0,sp,128
 7f6:	02090103          	lb	sp,32(s2)
 7fa:	0100                	addi	s0,sp,128
 7fc:	02090103          	lb	sp,32(s2)
 800:	0100                	addi	s0,sp,128
 802:	02090103          	lb	sp,32(s2)
 806:	0100                	addi	s0,sp,128
 808:	02090103          	lb	sp,32(s2)
 80c:	0100                	addi	s0,sp,128
 80e:	02090103          	lb	sp,32(s2)
 812:	0100                	addi	s0,sp,128
 814:	02090103          	lb	sp,32(s2)
 818:	0100                	addi	s0,sp,128
 81a:	02090103          	lb	sp,32(s2)
 81e:	0100                	addi	s0,sp,128
 820:	02090103          	lb	sp,32(s2)
 824:	0100                	addi	s0,sp,128
 826:	02090103          	lb	sp,32(s2)
 82a:	0100                	addi	s0,sp,128
 82c:	02090103          	lb	sp,32(s2)
 830:	0100                	addi	s0,sp,128
 832:	02090103          	lb	sp,32(s2)
 836:	0100                	addi	s0,sp,128
 838:	02090103          	lb	sp,32(s2)
 83c:	0100                	addi	s0,sp,128
 83e:	02090103          	lb	sp,32(s2)
 842:	0100                	addi	s0,sp,128
 844:	02090103          	lb	sp,32(s2)
 848:	0100                	addi	s0,sp,128
 84a:	02090103          	lb	sp,32(s2)
 84e:	0100                	addi	s0,sp,128
 850:	02090103          	lb	sp,32(s2)
 854:	0100                	addi	s0,sp,128
 856:	02090103          	lb	sp,32(s2)
 85a:	0100                	addi	s0,sp,128
 85c:	02090103          	lb	sp,32(s2)
 860:	0100                	addi	s0,sp,128
 862:	02090103          	lb	sp,32(s2)
 866:	0100                	addi	s0,sp,128
 868:	02090103          	lb	sp,32(s2)
 86c:	0100                	addi	s0,sp,128
 86e:	02090103          	lb	sp,32(s2)
 872:	0100                	addi	s0,sp,128
 874:	02090103          	lb	sp,32(s2)
 878:	0100                	addi	s0,sp,128
 87a:	02090103          	lb	sp,32(s2)
 87e:	0100                	addi	s0,sp,128
 880:	02090103          	lb	sp,32(s2)
 884:	0100                	addi	s0,sp,128
 886:	02090103          	lb	sp,32(s2)
 88a:	0100                	addi	s0,sp,128
 88c:	02090103          	lb	sp,32(s2)
 890:	0100                	addi	s0,sp,128
 892:	02090103          	lb	sp,32(s2)
 896:	0100                	addi	s0,sp,128
 898:	02090303          	lb	t1,32(s2)
 89c:	0100                	addi	s0,sp,128
 89e:	08090703          	lb	a4,128(s2)
 8a2:	0100                	addi	s0,sp,128
 8a4:	08090103          	lb	sp,128(s2)
 8a8:	0100                	addi	s0,sp,128
 8aa:	08090103          	lb	sp,128(s2)
 8ae:	0100                	addi	s0,sp,128
 8b0:	04090403          	lb	s0,64(s2)
 8b4:	0100                	addi	s0,sp,128
 8b6:	04090103          	lb	sp,64(s2)
 8ba:	0100                	addi	s0,sp,128
 8bc:	02090103          	lb	sp,32(s2)
 8c0:	0100                	addi	s0,sp,128
 8c2:	04090603          	lb	a2,64(s2)
 8c6:	0100                	addi	s0,sp,128
 8c8:	04090103          	lb	sp,64(s2)
 8cc:	0100                	addi	s0,sp,128
 8ce:	04090103          	lb	sp,64(s2)
 8d2:	0100                	addi	s0,sp,128
 8d4:	04090303          	lb	t1,64(s2)
 8d8:	0100                	addi	s0,sp,128
 8da:	04090103          	lb	sp,64(s2)
 8de:	0100                	addi	s0,sp,128
 8e0:	0209                	addi	tp,tp,2
 8e2:	0000                	unimp
 8e4:	0101                	addi	sp,sp,0
 8e6:	0500                	addi	s0,sp,640
 8e8:	0002                	0x2
 8ea:	0000                	unimp
 8ec:	03e0                	addi	s0,sp,460
 8ee:	00d4                	addi	a3,sp,68
 8f0:	0301                	addi	t1,t1,0
 8f2:	0902                	slli	s2,s2,0x0
 8f4:	0028                	addi	a0,sp,8
 8f6:	0301                	addi	t1,t1,0
 8f8:	0902                	slli	s2,s2,0x0
 8fa:	0004                	addi	s1,sp,0
 8fc:	0301                	addi	t1,t1,0
 8fe:	0905                	addi	s2,s2,1
 900:	0004                	addi	s1,sp,0
 902:	0301                	addi	t1,t1,0
 904:	0901                	addi	s2,s2,0
 906:	0048                	addi	a0,sp,4
 908:	0301                	addi	t1,t1,0
 90a:	0901                	addi	s2,s2,0
 90c:	0004                	addi	s1,sp,0
 90e:	0301                	addi	t1,t1,0
 910:	0905                	addi	s2,s2,1
 912:	0004                	addi	s1,sp,0
 914:	0901                	addi	s2,s2,0
 916:	0004                	addi	s1,sp,0
 918:	0100                	addi	s0,sp,128
 91a:	01 01 00 00 01          	Address 0x000000000000091a is out of bounds.


Disassembly of section .debug_str:

00000000 <.debug_str>:
   0:	7071                	0x7071
   2:	6972                	flw	fs2,28(sp)
   4:	746e                	flw	fs0,248(sp)
   6:	732f0073          	0x732f0073
   a:	74617263          	bleu	t1,sp,74e <_min_stack-0x18b2>
   e:	6d2f6863          	bltu	t5,s2,6de <_min_stack-0x1922>
  12:	6e616963          	bltu	sp,t1,704 <_min_stack-0x18fc>
  16:	2f69                	jal	7b0 <_min_stack-0x1850>
  18:	6e65706f          	j	576fe <tohost+0x376f6>
  1c:	6974                	flw	fa3,84(a0)
  1e:	6174                	flw	fa3,68(a0)
  20:	2f6e                	fld	ft10,216(sp)
  22:	742f7773          	csrrci	a4,0x742,30
  26:	7365                	lui	t1,0xffff9
  28:	7374                	flw	fa3,100(a4)
  2a:	65706f2f          	0x65706f2f
  2e:	746e                	flw	fs0,248(sp)
  30:	7469                	lui	s0,0xffffa
  32:	6e61                	lui	t3,0x18
  34:	6d6f632f          	0x6d6f632f
  38:	6f6d                	lui	t5,0x1b
  3a:	2f6e                	fld	ft10,216(sp)
  3c:	7475                	lui	s0,0xffffd
  3e:	6c69                	lui	s8,0x1a
  40:	00632e73          	csrrs	t3,0x6,t1
  44:	726f6873          	csrrsi	a6,0x726,30
  48:	2074                	fld	fa3,192(s0)
  4a:	6e69                	lui	t3,0x1a
  4c:	0074                	addi	a3,sp,12
  4e:	5f70                	lw	a2,124(a4)
  50:	6572                	flw	fa0,28(sp)
  52:	75700067          	jr	1879(zero) # 757 <_min_stack-0x18a9>
  56:	6374                	flw	fa3,68(a4)
  58:	6168                	flw	fa0,68(a0)
  5a:	0072                	0x72
  5c:	6170                	flw	fa2,68(a0)
  5e:	6364                	flw	fs1,68(a4)
  60:	6168                	flw	fa0,68(a0)
  62:	0072                	0x72
  64:	6175                	addi	sp,sp,368
  66:	7472                	flw	fs0,60(sp)
  68:	735f 7465 635f      	0x635f7465735f
  6e:	6766                	flw	fa4,88(sp)
  70:	7000                	flw	fs0,32(s0)
  72:	7475                	lui	s0,0xffffd
  74:	69770073          	0x69770073
  78:	7464                	flw	fs1,108(s0)
  7a:	0068                	addi	a0,sp,12
  7c:	706d6973          	csrrsi	s2,0x706,26
  80:	656c                	flw	fa1,76(a0)
  82:	655f 6378 685f      	0x685f6378655f
  88:	6e61                	lui	t3,0x18
  8a:	6c64                	flw	fs1,92(s0)
  8c:	7265                	lui	tp,0xffff9
  8e:	6c00                	flw	fs0,24(s0)
  90:	20676e6f          	jal	t3,76296 <tohost+0x5628e>
  94:	6f6c                	flw	fa1,92(a4)
  96:	676e                	flw	fa4,216(sp)
  98:	6920                	flw	fs0,80(a0)
  9a:	746e                	flw	fs0,248(sp)
  9c:	7200                	flw	fs0,32(a2)
  9e:	6d65                	lui	s10,0x19
  a0:	3175                	jal	fffffd4c <pulp__FC+0xfffffd4d>
  a2:	5f30                	lw	a2,120(a4)
  a4:	6174                	flw	fa3,68(a0)
  a6:	6c62                	flw	fs8,24(sp)
  a8:	0065                	c.addi	zero,25
  aa:	6175                	addi	sp,sp,368
  ac:	7472                	flw	fs0,60(sp)
  ae:	675f 7465 6863      	0x68637465675f
  b4:	7261                	lui	tp,0xffff8
  b6:	7200                	flw	fs0,32(a2)
  b8:	6d65                	lui	s10,0x19
  ba:	3175                	jal	fffffd66 <pulp__FC+0xfffffd67>
  bc:	0030                	addi	a2,sp,8
  be:	656c                	flw	fa1,76(a0)
  c0:	6274                	flw	fa3,68(a2)
  c2:	7361                	lui	t1,0xffff8
  c4:	0065                	c.addi	zero,25
  c6:	69727473          	csrrci	s0,0x697,4
  ca:	676e                	flw	fa4,216(sp)
  cc:	7000                	flw	fs0,32(s0)
  ce:	6972                	flw	fs2,28(sp)
  d0:	746e                	flw	fs0,248(sp)
  d2:	0066                	0x66
  d4:	7071                	0x7071
  d6:	6972                	flw	fs2,28(sp)
  d8:	746e                	flw	fs0,248(sp)
  da:	0069                	c.addi	zero,26
  dc:	6170                	flw	fa2,68(a0)
  de:	6972                	flw	fs2,28(sp)
  e0:	7974                	flw	fa3,116(a0)
  e2:	7000                	flw	fs0,32(s0)
  e4:	725f 6765 0031      	0x316765725f
  ea:	5f70                	lw	a2,124(a4)
  ec:	6572                	flw	fa0,28(sp)
  ee:	70003267          	0x70003267
  f2:	725f 6765 0033      	0x336765725f
  f8:	5f70                	lw	a2,124(a4)
  fa:	6572                	flw	fa0,28(sp)
  fc:	6c003467          	0x6c003467
 100:	20676e6f          	jal	t3,76306 <tohost+0x562fe>
 104:	6f64                	flw	fs1,92(a4)
 106:	6275                	lui	tp,0x1d
 108:	656c                	flw	fa1,76(a0)
 10a:	7500                	flw	fs0,40(a0)
 10c:	736e                	flw	ft6,248(sp)
 10e:	6769                	lui	a4,0x1a
 110:	656e                	flw	fa0,216(sp)
 112:	2064                	fld	fs1,192(s0)
 114:	72616863          	bltu	sp,t1,844 <_min_stack-0x17bc>
 118:	7500                	flw	fs0,40(a0)
 11a:	7261                	lui	tp,0xffff8
 11c:	5f74                	lw	a3,124(a4)
 11e:	74696177          	0x74696177
 122:	745f 5f78 6f64      	0x6f645f78745f
 128:	656e                	flw	fa0,216(sp)
 12a:	4700                	lw	s0,8(a4)
 12c:	554e                	lw	a0,240(sp)
 12e:	4320                	lw	s0,64(a4)
 130:	3131                	jal	fffffd3c <pulp__FC+0xfffffd3d>
 132:	3720                	fld	fs0,104(a4)
 134:	312e                	fld	ft2,232(sp)
 136:	312e                	fld	ft2,232(sp)
 138:	3220                	fld	fs0,96(a2)
 13a:	3130                	fld	fa2,96(a0)
 13c:	30353037          	lui	zero,0x30353
 140:	2039                	jal	14e <_min_stack-0x1eb2>
 142:	6d2d                	lui	s10,0xb
 144:	7261                	lui	tp,0xffff8
 146:	723d6863          	bltu	s10,gp,876 <_min_stack-0x178a>
 14a:	3376                	fld	ft6,376(sp)
 14c:	6932                	flw	fs2,12(sp)
 14e:	636d                	lui	t1,0x1b
 150:	2d20                	fld	fs0,88(a0)
 152:	616d                	addi	sp,sp,240
 154:	6962                	flw	fs2,24(sp)
 156:	693d                	lui	s2,0xf
 158:	706c                	flw	fa1,100(s0)
 15a:	2d203233          	0x2d203233
 15e:	636d                	lui	t1,0x1b
 160:	6f6d                	lui	t5,0x1b
 162:	6564                	flw	fs1,76(a0)
 164:	3d6c                	fld	fa1,248(a0)
 166:	656d                	lui	a0,0x1b
 168:	6164                	flw	fs1,68(a0)
 16a:	796e                	flw	fs2,248(sp)
 16c:	2d20                	fld	fs0,88(a0)
 16e:	4f2d2067          	0x4f2d2067
 172:	662d2073          	csrs	0x662,s10
 176:	6976                	flw	fs2,92(sp)
 178:	69626973          	csrrsi	s2,0x696,4
 17c:	696c                	flw	fa1,84(a0)
 17e:	7974                	flw	fa3,116(a0)
 180:	683d                	lui	a6,0xf
 182:	6469                	lui	s0,0x1a
 184:	6564                	flw	fs1,76(a0)
 186:	206e                	fld	ft0,216(sp)
 188:	662d                	lui	a2,0xb
 18a:	7266                	flw	ft4,120(sp)
 18c:	6565                	lui	a0,0x19
 18e:	6e617473          	csrrci	s0,0x6e6,2
 192:	6964                	flw	fs1,84(a0)
 194:	676e                	flw	fa4,216(sp)
 196:	6c00                	flw	fs0,24(s0)
 198:	20676e6f          	jal	t3,7639e <tohost+0x56396>
 19c:	6f6c                	flw	fa1,92(a4)
 19e:	676e                	flw	fa4,216(sp)
 1a0:	7520                	flw	fs0,104(a0)
 1a2:	736e                	flw	ft6,248(sp)
 1a4:	6769                	lui	a4,0x1a
 1a6:	656e                	flw	fa0,216(sp)
 1a8:	2064                	fld	fs1,192(s0)
 1aa:	6e69                	lui	t3,0x1a
 1ac:	0074                	addi	a3,sp,12
 1ae:	7071                	0x7071
 1b0:	6972                	flw	fs2,28(sp)
 1b2:	746e                	flw	fs0,248(sp)
 1b4:	7500                	flw	fs0,40(a0)
 1b6:	6e69                	lui	t3,0x1a
 1b8:	3174                	fld	fa3,224(a0)
 1ba:	5f36                	lw	t5,108(sp)
 1bc:	0074                	addi	a3,sp,12
 1be:	6c70                	flw	fa2,92(s0)
 1c0:	6369                	lui	t1,0x1a
 1c2:	635f 6568 6b63      	0x6b636568635f
 1c8:	7300                	flw	fs0,32(a4)
 1ca:	6f68                	flw	fa0,92(a4)
 1cc:	7472                	flw	fs0,60(sp)
 1ce:	7520                	flw	fs0,104(a0)
 1d0:	736e                	flw	ft6,248(sp)
 1d2:	6769                	lui	a4,0x1a
 1d4:	656e                	flw	fa0,216(sp)
 1d6:	2064                	fld	fs1,192(s0)
 1d8:	6e69                	lui	t3,0x1a
 1da:	0074                	addi	a3,sp,12
 1dc:	7270                	flw	fa2,100(a2)
 1de:	6e69                	lui	t3,0x1a
 1e0:	5f74                	lw	a3,124(a4)
 1e2:	7562                	flw	fa0,56(sp)
 1e4:	0066                	0x66
 1e6:	7263732f          	0x7263732f
 1ea:	7461                	lui	s0,0xffff8
 1ec:	6d2f6863          	bltu	t5,s2,8bc <_min_stack-0x1744>
 1f0:	6e616963          	bltu	sp,t1,8e2 <_min_stack-0x171e>
 1f4:	2f69                	jal	98e <_min_stack-0x1672>
 1f6:	6e65706f          	j	578dc <tohost+0x378d4>
 1fa:	6974                	flw	fa3,84(a0)
 1fc:	6174                	flw	fa3,68(a0)
 1fe:	2f6e                	fld	ft10,216(sp)
 200:	742f7773          	csrrci	a4,0x742,30
 204:	7365                	lui	t1,0xffff9
 206:	7374                	flw	fa3,100(a4)
 208:	65706f2f          	0x65706f2f
 20c:	746e                	flw	fs0,248(sp)
 20e:	7469                	lui	s0,0xffffa
 210:	6e61                	lui	t3,0x18
 212:	6572702f          	0x6572702f
 216:	6f62                	flw	ft10,24(sp)
 218:	635f746f          	jal	s0,f804c <tohost+0xd8044>
 21c:	5f65646f          	jal	s0,56812 <tohost+0x3680a>
 220:	6d68                	flw	fa0,92(a0)
 222:	6361                	lui	t1,0x18
 224:	725f 6165 0064      	0x646165725f
 22a:	7071                	0x7071
 22c:	6972                	flw	fs2,28(sp)
 22e:	746e                	flw	fs0,248(sp)
 230:	72616863          	bltu	sp,t1,960 <_min_stack-0x16a0>
 234:	5f00                	lw	s0,56(a4)
 236:	625f 6975 746c      	0x746c6975625f
 23c:	6e69                	lui	t3,0x1a
 23e:	765f 5f61 696c      	0x696c5f61765f
 244:	64007473          	csrrci	s0,0x640,0
 248:	7669                	lui	a2,0xffffa
 24a:	3175                	jal	fffffef6 <pulp__FC+0xfffffef7>
 24c:	0030                	addi	a2,sp,8
 24e:	6175                	addi	sp,sp,368
 250:	7472                	flw	fs0,60(sp)
 252:	735f 6e65 6364      	0x63646e65735f
 258:	6168                	flw	fa0,68(a0)
 25a:	0072                	0x72
 25c:	5f6b6c63          	bltu	s6,s6,854 <_min_stack-0x17ac>
 260:	6e756f63          	bltu	a0,t2,95e <_min_stack-0x16a2>
 264:	6574                	flw	fa3,76(a0)
 266:	0072                	0x72
 268:	5f5f 6e67 6375      	0x63756e675f5f
 26e:	765f 5f61 696c      	0x696c5f61765f
 274:	65007473          	csrrci	s0,0x650,0
 278:	7478                	flw	fa4,108(s0)
 27a:	7265                	lui	tp,0xffff9
 27c:	616e                	flw	ft2,216(sp)
 27e:	5f6c                	lw	a1,124(a4)
 280:	7269                	lui	tp,0xffffa
 282:	5f71                	li	t5,-4
 284:	6168                	flw	fa0,68(a0)
 286:	646e                	flw	fs0,216(sp)
 288:	656c                	flw	fa1,76(a0)
 28a:	0072                	0x72
 28c:	6175                	addi	sp,sp,368
 28e:	7472                	flw	fs0,60(sp)
 290:	735f 6e65 0064      	0x646e65735f
 296:	626d                	lui	tp,0x1b
 298:	695f786f          	jal	a6,f812c <tohost+0xd8124>
 29c:	0064                	addi	s1,sp,12
 29e:	6f66                	flw	ft10,88(sp)
 2a0:	6d72                	flw	fs10,28(sp)
 2a2:	7461                	lui	s0,0xffff8
 2a4:	7000                	flw	fs0,32(s0)
 2a6:	725f 6765 0035      	0x356765725f
 2ac:	4d48                	lw	a0,28(a0)
 2ae:	4341                	li	t1,16
 2b0:	535f 4f4d 454b      	0x454b4f4d535f
 2b6:	4554                	lw	a3,12(a0)
 2b8:	435f5453          	0x435f5453
 2bc:	454c                	lw	a1,12(a0)
 2be:	5241                	li	tp,-16
 2c0:	6200                	flw	fs0,0(a2)
 2c2:	6675                	lui	a2,0x1d
 2c4:	6566                	flw	fa0,88(sp)
 2c6:	5f72                	lw	t5,60(sp)
 2c8:	657a6973          	csrrsi	s2,0x657,20
 2cc:	635f 656c 7261      	0x7261656c635f
 2d2:	6200                	flw	fs0,0(a2)
 2d4:	7561                	lui	a0,0xffff8
 2d6:	5f64                	lw	s1,124(a4)
 2d8:	6172                	flw	ft2,28(sp)
 2da:	6574                	flw	fa3,76(a0)
 2dc:	6400                	flw	fs0,8(s0)
 2de:	6265                	lui	tp,0x19
 2e0:	6775                	lui	a4,0x1d
 2e2:	6d5f 646f 0065      	0x65646f6d5f
 2e8:	6975                	lui	s2,0x1d
 2ea:	746e                	flw	fs0,248(sp)
 2ec:	745f3233          	0x745f3233
 2f0:	6d00                	flw	fs0,24(a0)
 2f2:	6961                	lui	s2,0x18
 2f4:	006e                	0x6e
 2f6:	7265                	lui	tp,0xffff9
 2f8:	6f72                	flw	ft10,28(sp)
 2fa:	7372                	flw	ft6,60(sp)
 2fc:	7400                	flw	fs0,40(s0)
 2fe:	7365                	lui	t1,0xffff9
 300:	5f74                	lw	a3,124(a4)
 302:	7266                	flw	ft4,120(sp)
 304:	7165                	addi	sp,sp,-400
 306:	6100                	flw	fs0,0(a0)
 308:	6772                	flw	fa4,28(sp)
 30a:	72610063          	beq	sp,t1,a2a <_min_stack-0x15d6>
 30e:	66007667          	0x66007667
 312:	616c                	flw	fa1,68(a0)
 314:	615f6873          	csrrsi	a6,0x615,30
 318:	6464                	flw	fs1,76(s0)
 31a:	0072                	0x72
 31c:	7270                	flw	fa2,100(a2)
 31e:	6265                	lui	tp,0x19
 320:	5f746f6f          	jal	t5,47116 <tohost+0x2710e>
 324:	65646f63          	bltu	s0,s6,982 <_min_stack-0x167e>
 328:	685f 616d 5f63      	0x5f63616d685f
 32e:	6572                	flw	fa0,28(sp)
 330:	6461                	lui	s0,0x18
 332:	632e                	flw	ft6,200(sp)
	...

Disassembly of section .comment:

00000000 <.comment>:
   0:	3a434347          	fmsub.d	ft6,ft6,ft4,ft7,rmm
   4:	2820                	fld	fs0,80(s0)
   6:	29554e47          	fmsub.s	ft8,fa0,fs5,ft5,rmm
   a:	3720                	fld	fs0,104(a4)
   c:	312e                	fld	ft2,232(sp)
   e:	312e                	fld	ft2,232(sp)
  10:	3220                	fld	fs0,96(a2)
  12:	3130                	fld	fa2,96(a0)
  14:	30353037          	lui	zero,0x30353
  18:	0039                	c.addi	zero,14

Disassembly of section .Pulp_Chip.Info:

00000000 <.Pulp_Chip.Info>:
   0:	000a                	0xa
   2:	0000                	unimp
   4:	0038                	addi	a4,sp,8
   6:	0000                	unimp
   8:	0001                	nop
   a:	0000                	unimp
   c:	7550                	flw	fa2,44(a0)
   e:	706c                	flw	fa1,100(s0)
  10:	495f 666e 006f      	0x6f666e495f
  16:	70696863          	bltu	s2,t1,726 <_min_stack-0x18da>
  1a:	6e3d                	lui	t3,0xf
  1c:	20656e6f          	jal	t3,56222 <tohost+0x3621a>
  20:	3d757063          	bleu	s7,a0,3e0 <_min_stack-0x1c20>
  24:	6f6e                	flw	ft10,216(sp)
  26:	656e                	flw	fa0,216(sp)
  28:	7020                	flw	fs0,96(s0)
  2a:	3d65                	jal	fffffee2 <pulp__FC+0xfffffee3>
  2c:	312d                	jal	fffffc56 <pulp__FC+0xfffffc57>
  2e:	6620                	flw	fs0,72(a2)
  30:	312d3d63          	p.bneimm	s10,-14,34a <_min_stack-0x1cb6>
  34:	6c20                	flw	fs0,88(s0)
  36:	3d32                	fld	fs10,296(sp)
  38:	312d                	jal	fffffc62 <pulp__FC+0xfffffc63>
  3a:	6c20                	flw	fs0,88(s0)
  3c:	6331                	lui	t1,0xc
  3e:	3d6c                	fld	fa1,248(a0)
  40:	312d                	jal	fffffc6a <pulp__FC+0xfffffc6b>
  42:	6c20                	flw	fs0,88(s0)
  44:	6631                	lui	a2,0xc
  46:	312d3d63          	p.bneimm	s10,-14,360 <_min_stack-0x1ca0>
  4a:	0000                	unimp
	...
